
/home/palmerc/Development/nakajima/newsim/ss_precompiled_spec/m88ksim.ss:     file format ss-coff-little

Disassembly of section .text:

00400140 <__start>:
  400140:	28 00 00 00 00 00 10 1d 	lw $16,0($29)
  400148:	a2 00 00 00 01 10 1c 00 	lui $28,4097
  400150:	43 00 00 00 80 43 1c 1c 	addiu $28,$28,17280
  400158:	43 00 00 00 04 00 11 1d 	addiu $17,$29,4
  400160:	43 00 00 00 04 00 03 11 	addiu $3,$17,4
  400168:	55 00 00 00 02 02 10 00 	sll $2,$16,0x2
  400170:	42 00 00 00 00 03 02 03 	addu $3,$3,$2
  400178:	42 00 00 00 00 12 03 00 	addu $18,$0,$3
  400180:	34 00 00 00 94 8e 12 1c 	sw $18,-29036($28)
  400188:	43 00 00 00 e8 ff 1d 1d 	addiu $29,$29,-24
  400190:	42 00 00 00 00 04 10 00 	addu $4,$0,$16
  400198:	42 00 00 00 00 05 11 00 	addu $5,$0,$17
  4001a0:	42 00 00 00 00 06 12 00 	addu $6,$0,$18
  4001a8:	02 00 00 00 e0 b9 10 00 	jal 42e780 <__libc_init>
  4001b0:	34 00 00 00 90 8e 00 1c 	sw $0,-29040($28)
  4001b8:	42 00 00 00 00 04 10 00 	addu $4,$0,$16
  4001c0:	42 00 00 00 00 05 11 00 	addu $5,$0,$17
  4001c8:	42 00 00 00 00 06 12 00 	addu $6,$0,$18
  4001d0:	02 00 00 00 24 8d 10 00 	jal 423490 <main>
  4001d8:	42 00 00 00 00 04 02 00 	addu $4,$0,$2
  4001e0:	02 00 00 00 ec b9 10 00 	jal 42e7b0 <exit>
	...

004001f0 <addd>:
  4001f0:	28 00 00 00 10 00 0a 1d 	lw $10,16($29)
  4001f8:	28 00 00 00 14 00 0b 1d 	lw $11,20($29)
  400200:	28 00 00 00 18 00 0c 1d 	lw $12,24($29)
  400208:	28 00 00 00 1c 00 09 1d 	lw $9,28($29)
  400210:	28 00 00 00 20 00 08 1d 	lw $8,32($29)
  400218:	28 00 00 00 24 00 0d 1d 	lw $13,36($29)
  400220:	06 00 00 00 1a 00 07 04 	bne $4,$7,400290 <addd+0xa0>
  400228:	42 00 00 00 00 02 0a 05 	addu $2,$5,$10
  400230:	42 00 00 00 00 03 0b 06 	addu $3,$6,$11
  400238:	34 00 00 00 00 00 02 09 	sw $2,0($9)
  400240:	5d 00 00 00 00 02 06 03 	sltu $2,$3,$6
  400248:	34 00 00 00 00 00 03 08 	sw $3,0($8)
  400250:	06 00 00 00 04 00 00 02 	bne $2,$0,400268 <addd+0x78>
  400258:	5d 00 00 00 00 02 0b 03 	sltu $2,$3,$11
  400260:	05 00 00 00 06 00 00 02 	beq $2,$0,400280 <addd+0x90>
  400268:	28 00 00 00 00 00 02 09 	lw $2,0($9)
  400270:	43 00 00 00 01 00 02 02 	addiu $2,$2,1
  400278:	34 00 00 00 00 00 02 09 	sw $2,0($9)
  400280:	34 00 00 00 00 00 04 0c 	sw $4,0($12)
  400288:	01 00 00 00 f2 00 10 00 	j 4003c8 <addd+0x1d8>
  400290:	5d 00 00 00 00 02 05 0a 	sltu $2,$10,$5
  400298:	06 00 00 00 06 00 00 02 	bne $2,$0,4002b8 <addd+0xc8>
  4002a0:	06 00 00 00 1c 00 0a 05 	bne $5,$10,400318 <addd+0x128>
  4002a8:	5d 00 00 00 00 02 0b 06 	sltu $2,$6,$11
  4002b0:	06 00 00 00 18 00 00 02 	bne $2,$0,400318 <addd+0x128>
  4002b8:	54 00 00 00 00 02 0b 00 	nor $2,$0,$11
  4002c0:	42 00 00 00 00 03 02 06 	addu $3,$6,$2
  4002c8:	34 00 00 00 00 00 04 0c 	sw $4,0($12)
  4002d0:	34 00 00 00 00 00 03 08 	sw $3,0($8)
  4002d8:	54 00 00 00 00 03 0a 00 	nor $3,$0,$10
  4002e0:	42 00 00 00 00 03 03 05 	addu $3,$5,$3
  4002e8:	34 00 00 00 00 00 03 09 	sw $3,0($9)
  4002f0:	28 00 00 00 00 00 04 08 	lw $4,0($8)
  4002f8:	5d 00 00 00 00 02 02 04 	sltu $2,$4,$2
  400300:	06 00 00 00 1c 00 00 02 	bne $2,$0,400378 <addd+0x188>
  400308:	5d 00 00 00 00 02 06 04 	sltu $2,$4,$6
  400310:	01 00 00 00 dc 00 10 00 	j 400370 <addd+0x180>
  400318:	54 00 00 00 00 02 06 00 	nor $2,$0,$6
  400320:	42 00 00 00 00 03 0b 02 	addu $3,$2,$11
  400328:	34 00 00 00 00 00 07 0c 	sw $7,0($12)
  400330:	34 00 00 00 00 00 03 08 	sw $3,0($8)
  400338:	54 00 00 00 00 03 05 00 	nor $3,$0,$5
  400340:	42 00 00 00 00 03 0a 03 	addu $3,$3,$10
  400348:	34 00 00 00 00 00 03 09 	sw $3,0($9)
  400350:	28 00 00 00 00 00 04 08 	lw $4,0($8)
  400358:	5d 00 00 00 00 02 02 04 	sltu $2,$4,$2
  400360:	06 00 00 00 04 00 00 02 	bne $2,$0,400378 <addd+0x188>
  400368:	5d 00 00 00 00 02 0b 04 	sltu $2,$4,$11
  400370:	05 00 00 00 04 00 00 02 	beq $2,$0,400388 <addd+0x198>
  400378:	43 00 00 00 01 00 02 03 	addiu $2,$3,1
  400380:	34 00 00 00 00 00 02 09 	sw $2,0($9)
  400388:	06 00 00 00 0e 00 00 0d 	bne $13,$0,4003c8 <addd+0x1d8>
  400390:	28 00 00 00 00 00 02 08 	lw $2,0($8)
  400398:	43 00 00 00 01 00 02 02 	addiu $2,$2,1
  4003a0:	34 00 00 00 00 00 02 08 	sw $2,0($8)
  4003a8:	06 00 00 00 06 00 00 02 	bne $2,$0,4003c8 <addd+0x1d8>
  4003b0:	28 00 00 00 00 00 02 09 	lw $2,0($9)
  4003b8:	43 00 00 00 01 00 02 02 	addiu $2,$2,1
  4003c0:	34 00 00 00 00 00 02 09 	sw $2,0($9)
  4003c8:	03 00 00 00 00 00 00 1f 	jr $31

004003d0 <adds>:
  4003d0:	28 00 00 00 10 00 03 1d 	lw $3,16($29)
  4003d8:	28 00 00 00 14 00 08 1d 	lw $8,20($29)
  4003e0:	28 00 00 00 18 00 09 1d 	lw $9,24($29)
  4003e8:	06 00 00 00 08 00 06 04 	bne $4,$6,400410 <adds+0x40>
  4003f0:	42 00 00 00 00 02 07 05 	addu $2,$5,$7
  4003f8:	34 00 00 00 00 00 02 08 	sw $2,0($8)
  400400:	34 00 00 00 00 00 06 03 	sw $6,0($3)
  400408:	01 00 00 00 1e 01 10 00 	j 400478 <adds+0xa8>
  400410:	5d 00 00 00 00 02 07 05 	sltu $2,$5,$7
  400418:	06 00 00 00 08 00 00 02 	bne $2,$0,400440 <adds+0x70>
  400420:	54 00 00 00 00 02 07 00 	nor $2,$0,$7
  400428:	42 00 00 00 00 02 02 05 	addu $2,$5,$2
  400430:	34 00 00 00 00 00 04 03 	sw $4,0($3)
  400438:	01 00 00 00 16 01 10 00 	j 400458 <adds+0x88>
  400440:	54 00 00 00 00 02 05 00 	nor $2,$0,$5
  400448:	42 00 00 00 00 02 07 02 	addu $2,$2,$7
  400450:	34 00 00 00 00 00 06 03 	sw $6,0($3)
  400458:	34 00 00 00 00 00 02 08 	sw $2,0($8)
  400460:	06 00 00 00 04 00 00 09 	bne $9,$0,400478 <adds+0xa8>
  400468:	43 00 00 00 01 00 02 02 	addiu $2,$2,1
  400470:	34 00 00 00 00 00 02 08 	sw $2,0($8)
  400478:	03 00 00 00 00 00 00 1f 	jr $31

00400480 <alignd>:
  400480:	28 00 00 00 10 00 0a 1d 	lw $10,16($29)
  400488:	28 00 00 00 14 00 09 1d 	lw $9,20($29)
  400490:	28 00 00 00 18 00 0c 1d 	lw $12,24($29)
  400498:	28 00 00 00 00 00 03 05 	lw $3,0($5)
  4004a0:	28 00 00 00 1c 00 0b 1d 	lw $11,28($29)
  4004a8:	55 00 00 00 02 03 03 00 	sll $3,$3,0x2
  4004b0:	34 00 00 00 00 00 03 05 	sw $3,0($5)
  4004b8:	28 00 00 00 00 00 02 06 	lw $2,0($6)
  4004c0:	57 00 00 00 1e 02 02 00 	srl $2,$2,0x1e
  4004c8:	50 00 00 00 00 02 03 02 	or $2,$2,$3
  4004d0:	34 00 00 00 00 00 02 05 	sw $2,0($5)
  4004d8:	28 00 00 00 00 00 02 06 	lw $2,0($6)
  4004e0:	55 00 00 00 02 02 02 00 	sll $2,$2,0x2
  4004e8:	34 00 00 00 00 00 02 06 	sw $2,0($6)
  4004f0:	28 00 00 00 00 00 03 0a 	lw $3,0($10)
  4004f8:	55 00 00 00 02 03 03 00 	sll $3,$3,0x2
  400500:	34 00 00 00 00 00 03 0a 	sw $3,0($10)
  400508:	28 00 00 00 00 00 02 09 	lw $2,0($9)
  400510:	57 00 00 00 1e 02 02 00 	srl $2,$2,0x1e
  400518:	50 00 00 00 00 02 03 02 	or $2,$2,$3
  400520:	34 00 00 00 00 00 02 0a 	sw $2,0($10)
  400528:	28 00 00 00 00 00 02 09 	lw $2,0($9)
  400530:	45 00 00 00 00 08 07 04 	subu $8,$4,$7
  400538:	55 00 00 00 02 02 02 00 	sll $2,$2,0x2
  400540:	34 00 00 00 00 00 02 09 	sw $2,0($9)
  400548:	09 00 00 00 2a 00 00 08 	bltz $8,4005f8 <alignd+0x178>
  400550:	34 00 00 00 00 00 00 0b 	sw $0,0($11)
  400558:	07 00 00 00 22 00 00 08 	blez $8,4005e8 <alignd+0x168>
  400560:	28 00 00 00 00 00 02 09 	lw $2,0($9)
  400568:	28 00 00 00 00 00 03 0b 	lw $3,0($11)
  400570:	4f 00 00 00 01 00 02 02 	andi $2,$2,1
  400578:	50 00 00 00 00 02 03 02 	or $2,$2,$3
  400580:	34 00 00 00 00 00 02 0b 	sw $2,0($11)
  400588:	28 00 00 00 00 00 03 09 	lw $3,0($9)
  400590:	57 00 00 00 01 03 03 00 	srl $3,$3,0x1
  400598:	34 00 00 00 00 00 03 09 	sw $3,0($9)
  4005a0:	28 00 00 00 00 00 02 0a 	lw $2,0($10)
  4005a8:	55 00 00 00 1f 02 02 00 	sll $2,$2,0x1f
  4005b0:	50 00 00 00 00 02 03 02 	or $2,$2,$3
  4005b8:	34 00 00 00 00 00 02 09 	sw $2,0($9)
  4005c0:	28 00 00 00 00 00 02 0a 	lw $2,0($10)
  4005c8:	43 00 00 00 ff ff 08 08 	addiu $8,$8,-1
  4005d0:	57 00 00 00 01 02 02 00 	srl $2,$2,0x1
  4005d8:	34 00 00 00 00 00 02 0a 	sw $2,0($10)
  4005e0:	08 00 00 00 de ff 00 08 	bgtz $8,400560 <alignd+0xe0>
  4005e8:	34 00 00 00 00 00 04 0c 	sw $4,0($12)
  4005f0:	01 00 00 00 a8 01 10 00 	j 4006a0 <alignd+0x220>
  4005f8:	45 00 00 00 00 08 08 00 	subu $8,$0,$8
  400600:	34 00 00 00 00 00 00 0b 	sw $0,0($11)
  400608:	07 00 00 00 22 00 00 08 	blez $8,400698 <alignd+0x218>
  400610:	28 00 00 00 00 00 02 06 	lw $2,0($6)
  400618:	28 00 00 00 00 00 03 0b 	lw $3,0($11)
  400620:	4f 00 00 00 01 00 02 02 	andi $2,$2,1
  400628:	50 00 00 00 00 02 03 02 	or $2,$2,$3
  400630:	34 00 00 00 00 00 02 0b 	sw $2,0($11)
  400638:	28 00 00 00 00 00 03 06 	lw $3,0($6)
  400640:	57 00 00 00 01 03 03 00 	srl $3,$3,0x1
  400648:	34 00 00 00 00 00 03 06 	sw $3,0($6)
  400650:	28 00 00 00 00 00 02 05 	lw $2,0($5)
  400658:	55 00 00 00 1f 02 02 00 	sll $2,$2,0x1f
  400660:	50 00 00 00 00 02 03 02 	or $2,$2,$3
  400668:	34 00 00 00 00 00 02 06 	sw $2,0($6)
  400670:	28 00 00 00 00 00 02 05 	lw $2,0($5)
  400678:	43 00 00 00 ff ff 08 08 	addiu $8,$8,-1
  400680:	57 00 00 00 01 02 02 00 	srl $2,$2,0x1
  400688:	34 00 00 00 00 00 02 05 	sw $2,0($5)
  400690:	08 00 00 00 de ff 00 08 	bgtz $8,400610 <alignd+0x190>
  400698:	34 00 00 00 00 00 07 0c 	sw $7,0($12)
  4006a0:	03 00 00 00 00 00 00 1f 	jr $31
	...

004006b0 <aligns>:
  4006b0:	28 00 00 00 10 00 0a 1d 	lw $10,16($29)
  4006b8:	28 00 00 00 00 00 02 05 	lw $2,0($5)
  4006c0:	28 00 00 00 14 00 09 1d 	lw $9,20($29)
  4006c8:	55 00 00 00 02 02 02 00 	sll $2,$2,0x2
  4006d0:	34 00 00 00 00 00 02 05 	sw $2,0($5)
  4006d8:	28 00 00 00 00 00 02 07 	lw $2,0($7)
  4006e0:	45 00 00 00 00 03 06 04 	subu $3,$4,$6
  4006e8:	55 00 00 00 02 02 02 00 	sll $2,$2,0x2
  4006f0:	34 00 00 00 00 00 02 07 	sw $2,0($7)
  4006f8:	09 00 00 00 1e 00 00 03 	bltz $3,400778 <aligns+0xc8>
  400700:	42 00 00 00 00 08 02 00 	addu $8,$0,$2
  400708:	5c 00 00 00 21 00 02 03 	slti $2,$3,33
  400710:	05 00 00 00 0e 00 00 02 	beq $2,$0,400750 <aligns+0xa0>
  400718:	58 00 00 00 00 02 08 03 	srlv $2,$8,$3
  400720:	34 00 00 00 00 00 02 07 	sw $2,0($7)
  400728:	56 00 00 00 00 02 02 03 	sllv $2,$2,$3
  400730:	52 00 00 00 00 02 02 08 	xor $2,$8,$2
  400738:	5d 00 00 00 00 02 02 00 	sltu $2,$0,$2
  400740:	34 00 00 00 00 00 02 09 	sw $2,0($9)
  400748:	01 00 00 00 da 01 10 00 	j 400768 <aligns+0xb8>
  400750:	5d 00 00 00 00 02 08 00 	sltu $2,$0,$8
  400758:	34 00 00 00 00 00 02 09 	sw $2,0($9)
  400760:	34 00 00 00 00 00 00 07 	sw $0,0($7)
  400768:	34 00 00 00 00 00 04 0a 	sw $4,0($10)
  400770:	01 00 00 00 fe 01 10 00 	j 4007f8 <aligns+0x148>
  400778:	45 00 00 00 00 03 03 00 	subu $3,$0,$3
  400780:	5c 00 00 00 21 00 02 03 	slti $2,$3,33
  400788:	05 00 00 00 10 00 00 02 	beq $2,$0,4007d0 <aligns+0x120>
  400790:	28 00 00 00 00 00 08 05 	lw $8,0($5)
  400798:	58 00 00 00 00 02 08 03 	srlv $2,$8,$3
  4007a0:	34 00 00 00 00 00 02 05 	sw $2,0($5)
  4007a8:	56 00 00 00 00 02 02 03 	sllv $2,$2,$3
  4007b0:	52 00 00 00 00 02 02 08 	xor $2,$8,$2
  4007b8:	5d 00 00 00 00 02 02 00 	sltu $2,$0,$2
  4007c0:	34 00 00 00 00 00 02 09 	sw $2,0($9)
  4007c8:	01 00 00 00 fc 01 10 00 	j 4007f0 <aligns+0x140>
  4007d0:	28 00 00 00 00 00 02 05 	lw $2,0($5)
  4007d8:	5d 00 00 00 00 02 02 00 	sltu $2,$0,$2
  4007e0:	34 00 00 00 00 00 02 09 	sw $2,0($9)
  4007e8:	34 00 00 00 00 00 00 05 	sw $0,0($5)
  4007f0:	34 00 00 00 00 00 06 0a 	sw $6,0($10)
  4007f8:	03 00 00 00 00 00 00 1f 	jr $31

00400800 <assembler>:
  400800:	43 00 00 00 e0 ff 1d 1d 	addiu $29,$29,-32
  400808:	34 00 00 00 18 00 12 1d 	sw $18,24($29)
  400810:	42 00 00 00 00 12 05 00 	addu $18,$0,$5
  400818:	34 00 00 00 1c 00 1f 1d 	sw $31,28($29)
  400820:	34 00 00 00 14 00 11 1d 	sw $17,20($29)
  400828:	34 00 00 00 10 00 10 1d 	sw $16,16($29)
  400830:	34 00 00 00 d8 8e 06 1c 	sw $6,-28968($28)
  400838:	34 00 00 00 d0 8e 00 1c 	sw $0,-28976($28)
  400840:	34 00 00 00 e0 8e 00 1c 	sw $0,-28960($28)
  400848:	34 00 00 00 00 00 00 12 	sw $0,0($18)
  400850:	02 00 00 00 70 02 10 00 	jal 4009c0 <a_pname>
  400858:	a2 00 00 00 00 10 11 00 	lui $17,4096
  400860:	43 00 00 00 e8 5f 11 11 	addiu $17,$17,24552
  400868:	28 00 00 00 00 00 05 11 	lw $5,0($17)
  400870:	a2 00 00 00 00 10 04 00 	lui $4,4096
  400878:	43 00 00 00 68 58 04 04 	addiu $4,$4,22632
  400880:	02 00 00 00 2c 03 10 00 	jal 400cb0 <a_choice>
  400888:	42 00 00 00 00 10 02 00 	addu $16,$0,$2
  400890:	05 00 00 00 1a 00 00 10 	beq $16,$0,400900 <assembler+0x100>
  400898:	28 00 00 00 e0 8e 02 1c 	lw $2,-28960($28)
  4008a0:	43 00 00 00 04 00 04 11 	addiu $4,$17,4
  4008a8:	34 00 00 00 68 89 00 1c 	sw $0,-30360($28)
  4008b0:	05 00 00 00 02 00 00 02 	beq $2,$0,4008c0 <assembler+0xc0>
  4008b8:	43 00 00 00 08 00 04 11 	addiu $4,$17,8
  4008c0:	02 00 00 00 5a 03 10 00 	jal 400d68 <procopers>
  4008c8:	06 00 00 00 0c 00 00 02 	bne $2,$0,400900 <assembler+0x100>
  4008d0:	28 00 00 00 08 00 02 10 	lw $2,8($16)
  4008d8:	05 00 00 00 0e 00 00 02 	beq $2,$0,400918 <assembler+0x118>
  4008e0:	42 00 00 00 00 04 10 00 	addu $4,$0,$16
  4008e8:	42 00 00 00 00 05 12 00 	addu $5,$0,$18
  4008f0:	04 00 00 00 00 1f 00 02 	jalr $31,$2
  4008f8:	05 00 00 00 06 00 00 02 	beq $2,$0,400918 <assembler+0x118>
  400900:	28 00 00 00 00 00 04 11 	lw $4,0($17)
  400908:	02 00 00 00 58 02 10 00 	jal 400960 <reterr>
  400910:	01 00 00 00 4c 02 10 00 	j 400930 <assembler+0x130>
  400918:	43 00 00 00 01 00 02 00 	addiu $2,$0,1
  400920:	34 00 00 00 68 89 02 1c 	sw $2,-30360($28)
  400928:	42 00 00 00 00 02 00 00 	addu $2,$0,$0
  400930:	28 00 00 00 1c 00 1f 1d 	lw $31,28($29)
  400938:	28 00 00 00 18 00 12 1d 	lw $18,24($29)
  400940:	28 00 00 00 14 00 11 1d 	lw $17,20($29)
  400948:	28 00 00 00 10 00 10 1d 	lw $16,16($29)
  400950:	43 00 00 00 20 00 1d 1d 	addiu $29,$29,32
  400958:	03 00 00 00 00 00 00 1f 	jr $31

00400960 <reterr>:
  400960:	43 00 00 00 e8 ff 1d 1d 	addiu $29,$29,-24
  400968:	42 00 00 00 00 05 04 00 	addu $5,$0,$4
  400970:	a2 00 00 00 00 10 04 00 	lui $4,4096
  400978:	43 00 00 00 00 00 04 04 	addiu $4,$4,0
  400980:	34 00 00 00 10 00 1f 1d 	sw $31,16($29)
  400988:	02 00 00 00 0a b6 10 00 	jal 42d828 <PPrintf>
  400990:	43 00 00 00 01 00 02 00 	addiu $2,$0,1
  400998:	34 00 00 00 68 89 02 1c 	sw $2,-30360($28)
  4009a0:	43 00 00 00 ff ff 02 00 	addiu $2,$0,-1
  4009a8:	28 00 00 00 10 00 1f 1d 	lw $31,16($29)
  4009b0:	43 00 00 00 18 00 1d 1d 	addiu $29,$29,24
  4009b8:	03 00 00 00 00 00 00 1f 	jr $31

004009c0 <a_pname>:
  4009c0:	43 00 00 00 f0 ff 1d 1d 	addiu $29,$29,-16
  4009c8:	42 00 00 00 00 06 00 00 	addu $6,$0,$0
  4009d0:	42 00 00 00 00 05 00 00 	addu $5,$0,$0
  4009d8:	42 00 00 00 00 07 00 00 	addu $7,$0,$0
  4009e0:	34 00 00 00 70 82 00 1c 	sw $0,-32144($28)
  4009e8:	43 00 00 00 20 00 18 00 	addiu $24,$0,32
  4009f0:	43 00 00 00 2e 00 0f 00 	addiu $15,$0,46
  4009f8:	43 00 00 00 01 00 0b 00 	addiu $11,$0,1
  400a00:	43 00 00 00 5b 00 0e 00 	addiu $14,$0,91
  400a08:	43 00 00 00 3c 00 0d 00 	addiu $13,$0,60
  400a10:	43 00 00 00 2c 00 0c 00 	addiu $12,$0,44
  400a18:	a2 00 00 00 00 10 08 00 	lui $8,4096
  400a20:	43 00 00 00 e8 5f 08 08 	addiu $8,$8,24552
  400a28:	20 00 00 00 00 00 02 04 	lb $2,0($4)
  400a30:	28 00 00 00 00 8a 03 1c 	lw $3,-30208($28)
  400a38:	01 00 00 00 94 02 10 00 	j 400a50 <a_pname+0x90>
  400a40:	43 00 00 00 01 00 04 04 	addiu $4,$4,1
  400a48:	20 00 00 00 00 00 02 04 	lb $2,0($4)
  400a50:	55 00 00 00 01 02 02 00 	sll $2,$2,0x1
  400a58:	42 00 00 00 00 02 03 02 	addu $2,$2,$3
  400a60:	26 00 00 00 00 00 02 02 	lhu $2,0($2)
  400a68:	4f 00 00 00 10 00 02 02 	andi $2,$2,16
  400a70:	06 00 00 00 f2 ff 00 02 	bne $2,$0,400a40 <a_pname+0x80>
  400a78:	34 00 00 00 00 00 04 08 	sw $4,0($8)
  400a80:	20 00 00 00 00 00 02 04 	lb $2,0($4)
  400a88:	05 00 00 00 06 00 00 02 	beq $2,$0,400aa8 <a_pname+0xe8>
  400a90:	28 00 00 00 70 82 02 1c 	lw $2,-32144($28)
  400a98:	43 00 00 00 01 00 02 02 	addiu $2,$2,1
  400aa0:	34 00 00 00 70 82 02 1c 	sw $2,-32144($28)
  400aa8:	20 00 00 00 00 00 02 04 	lb $2,0($4)
  400ab0:	28 00 00 00 00 8a 03 1c 	lw $3,-30208($28)
  400ab8:	55 00 00 00 01 02 02 00 	sll $2,$2,0x1
  400ac0:	42 00 00 00 00 02 03 02 	addu $2,$2,$3
  400ac8:	26 00 00 00 00 00 02 02 	lhu $2,0($2)
  400ad0:	22 00 00 00 00 00 03 04 	lbu $3,0($4)
  400ad8:	4f 00 00 00 cb 00 02 02 	andi $2,$2,203
  400ae0:	05 00 00 00 5a 00 00 02 	beq $2,$0,400c50 <a_pname+0x290>
  400ae8:	43 00 00 00 5d 00 0a 00 	addiu $10,$0,93
  400af0:	43 00 00 00 3e 00 09 00 	addiu $9,$0,62
  400af8:	55 00 00 00 18 02 03 00 	sll $2,$3,0x18
  400b00:	59 00 00 00 18 03 02 00 	sra $3,$2,0x18
  400b08:	05 00 00 00 50 00 18 03 	beq $3,$24,400c50 <a_pname+0x290>
  400b10:	28 00 00 00 e0 8e 02 1c 	lw $2,-28960($28)
  400b18:	06 00 00 00 06 00 00 02 	bne $2,$0,400b38 <a_pname+0x178>
  400b20:	06 00 00 00 04 00 0f 03 	bne $3,$15,400b38 <a_pname+0x178>
  400b28:	34 00 00 00 e0 8e 0b 1c 	sw $11,-28960($28)
  400b30:	01 00 00 00 14 03 10 00 	j 400c50 <a_pname+0x290>
  400b38:	20 00 00 00 00 00 02 04 	lb $2,0($4)
  400b40:	06 00 00 00 06 00 0e 02 	bne $2,$14,400b60 <a_pname+0x1a0>
  400b48:	34 00 00 00 d0 8e 0b 1c 	sw $11,-28976($28)
  400b50:	43 00 00 00 01 00 05 00 	addiu $5,$0,1
  400b58:	01 00 00 00 14 03 10 00 	j 400c50 <a_pname+0x290>
  400b60:	06 00 00 00 04 00 0d 02 	bne $2,$13,400b78 <a_pname+0x1b8>
  400b68:	43 00 00 00 01 00 06 00 	addiu $6,$0,1
  400b70:	01 00 00 00 14 03 10 00 	j 400c50 <a_pname+0x290>
  400b78:	05 00 00 00 34 00 0c 02 	beq $2,$12,400c50 <a_pname+0x290>
  400b80:	06 00 00 00 08 00 0a 02 	bne $2,$10,400ba8 <a_pname+0x1e8>
  400b88:	4f 00 00 00 01 00 02 05 	andi $2,$5,1
  400b90:	05 00 00 00 04 00 00 02 	beq $2,$0,400ba8 <a_pname+0x1e8>
  400b98:	42 00 00 00 00 05 00 00 	addu $5,$0,$0
  400ba0:	01 00 00 00 14 03 10 00 	j 400c50 <a_pname+0x290>
  400ba8:	20 00 00 00 00 00 02 04 	lb $2,0($4)
  400bb0:	06 00 00 00 08 00 09 02 	bne $2,$9,400bd8 <a_pname+0x218>
  400bb8:	4f 00 00 00 01 00 02 06 	andi $2,$6,1
  400bc0:	05 00 00 00 04 00 00 02 	beq $2,$0,400bd8 <a_pname+0x218>
  400bc8:	42 00 00 00 00 06 00 00 	addu $6,$0,$0
  400bd0:	01 00 00 00 14 03 10 00 	j 400c50 <a_pname+0x290>
  400bd8:	22 00 00 00 00 00 03 04 	lbu $3,0($4)
  400be0:	43 00 00 00 bf ff 02 03 	addiu $2,$3,-65
  400be8:	5e 00 00 00 1a 00 02 02 	sltiu $2,$2,26
  400bf0:	05 00 00 00 04 00 00 02 	beq $2,$0,400c08 <a_pname+0x248>
  400bf8:	51 00 00 00 20 00 02 03 	ori $2,$3,32
  400c00:	30 00 00 00 00 00 02 04 	sb $2,0($4)
  400c08:	43 00 00 00 01 00 04 04 	addiu $4,$4,1
  400c10:	20 00 00 00 00 00 02 04 	lb $2,0($4)
  400c18:	28 00 00 00 00 8a 03 1c 	lw $3,-30208($28)
  400c20:	55 00 00 00 01 02 02 00 	sll $2,$2,0x1
  400c28:	42 00 00 00 00 02 03 02 	addu $2,$2,$3
  400c30:	26 00 00 00 00 00 02 02 	lhu $2,0($2)
  400c38:	22 00 00 00 00 00 03 04 	lbu $3,0($4)
  400c40:	4f 00 00 00 cb 00 02 02 	andi $2,$2,203
  400c48:	06 00 00 00 aa ff 00 02 	bne $2,$0,400af8 <a_pname+0x138>
  400c50:	20 00 00 00 00 00 02 04 	lb $2,0($4)
  400c58:	05 00 00 00 08 00 00 02 	beq $2,$0,400c80 <a_pname+0x2c0>
  400c60:	43 00 00 00 06 00 02 00 	addiu $2,$0,6
  400c68:	05 00 00 00 04 00 02 07 	beq $7,$2,400c80 <a_pname+0x2c0>
  400c70:	30 00 00 00 00 00 00 04 	sb $0,0($4)
  400c78:	43 00 00 00 01 00 04 04 	addiu $4,$4,1
  400c80:	43 00 00 00 04 00 08 08 	addiu $8,$8,4
  400c88:	43 00 00 00 01 00 07 07 	addiu $7,$7,1
  400c90:	5c 00 00 00 07 00 02 07 	slti $2,$7,7
  400c98:	06 00 00 00 62 ff 00 02 	bne $2,$0,400a28 <a_pname+0x68>
  400ca0:	43 00 00 00 10 00 1d 1d 	addiu $29,$29,16
  400ca8:	03 00 00 00 00 00 00 1f 	jr $31

00400cb0 <a_choice>:
  400cb0:	43 00 00 00 e0 ff 1d 1d 	addiu $29,$29,-32
  400cb8:	34 00 00 00 10 00 10 1d 	sw $16,16($29)
  400cc0:	42 00 00 00 00 10 04 00 	addu $16,$0,$4
  400cc8:	34 00 00 00 18 00 1f 1d 	sw $31,24($29)
  400cd0:	34 00 00 00 14 00 11 1d 	sw $17,20($29)
  400cd8:	28 00 00 00 00 00 02 10 	lw $2,0($16)
  400ce0:	42 00 00 00 00 11 05 00 	addu $17,$0,$5
  400ce8:	05 00 00 00 12 00 00 02 	beq $2,$0,400d38 <a_choice+0x88>
  400cf0:	28 00 00 00 00 00 05 10 	lw $5,0($16)
  400cf8:	42 00 00 00 00 04 11 00 	addu $4,$0,$17
  400d00:	02 00 00 00 64 ba 10 00 	jal 42e990 <strcmp>
  400d08:	06 00 00 00 04 00 00 02 	bne $2,$0,400d20 <a_choice+0x70>
  400d10:	42 00 00 00 00 02 10 00 	addu $2,$0,$16
  400d18:	01 00 00 00 50 03 10 00 	j 400d40 <a_choice+0x90>
  400d20:	43 00 00 00 0c 00 10 10 	addiu $16,$16,12
  400d28:	28 00 00 00 00 00 02 10 	lw $2,0($16)
  400d30:	06 00 00 00 ee ff 00 02 	bne $2,$0,400cf0 <a_choice+0x40>
  400d38:	42 00 00 00 00 02 00 00 	addu $2,$0,$0
  400d40:	28 00 00 00 18 00 1f 1d 	lw $31,24($29)
  400d48:	28 00 00 00 14 00 11 1d 	lw $17,20($29)
  400d50:	28 00 00 00 10 00 10 1d 	lw $16,16($29)
  400d58:	43 00 00 00 20 00 1d 1d 	addiu $29,$29,32
  400d60:	03 00 00 00 00 00 00 1f 	jr $31

00400d68 <procopers>:
  400d68:	43 00 00 00 c8 ff 1d 1d 	addiu $29,$29,-56
  400d70:	34 00 00 00 30 00 16 1d 	sw $22,48($29)
  400d78:	42 00 00 00 00 16 04 00 	addu $22,$0,$4
  400d80:	a2 00 00 00 ff ff 04 00 	lui $4,65535
  400d88:	51 00 00 00 ff 0f 04 04 	ori $4,$4,4095
  400d90:	a2 00 00 00 00 10 02 00 	lui $2,4096
  400d98:	43 00 00 00 08 58 02 02 	addiu $2,$2,22536
  400da0:	34 00 00 00 20 00 12 1d 	sw $18,32($29)
  400da8:	42 00 00 00 00 12 02 00 	addu $18,$0,$2
  400db0:	34 00 00 00 2c 00 15 1d 	sw $21,44($29)
  400db8:	43 00 00 00 72 00 15 00 	addiu $21,$0,114
  400dc0:	34 00 00 00 34 00 1f 1d 	sw $31,52($29)
  400dc8:	34 00 00 00 28 00 14 1d 	sw $20,40($29)
  400dd0:	34 00 00 00 24 00 13 1d 	sw $19,36($29)
  400dd8:	34 00 00 00 1c 00 11 1d 	sw $17,28($29)
  400de0:	34 00 00 00 18 00 10 1d 	sw $16,24($29)
  400de8:	28 00 00 00 00 00 02 12 	lw $2,0($18)
  400df0:	43 00 00 00 26 00 14 00 	addiu $20,$0,38
  400df8:	43 00 00 00 01 00 13 00 	addiu $19,$0,1
  400e00:	43 00 00 00 f0 ff 03 00 	addiu $3,$0,-16
  400e08:	34 00 00 00 d4 8e 00 1c 	sw $0,-28972($28)
  400e10:	4e 00 00 00 00 02 03 02 	and $2,$2,$3
  400e18:	43 00 00 00 0f ff 03 00 	addiu $3,$0,-241
  400e20:	4e 00 00 00 00 02 03 02 	and $2,$2,$3
  400e28:	43 00 00 00 ff f0 03 00 	addiu $3,$0,-3841
  400e30:	4e 00 00 00 00 02 03 02 	and $2,$2,$3
  400e38:	4e 00 00 00 00 02 04 02 	and $2,$2,$4
  400e40:	34 00 00 00 00 00 02 12 	sw $2,0($18)
  400e48:	28 00 00 00 d4 8e 02 1c 	lw $2,-28972($28)
  400e50:	55 00 00 00 02 02 02 00 	sll $2,$2,0x2
  400e58:	42 00 00 00 00 02 16 02 	addu $2,$2,$22
  400e60:	28 00 00 00 00 00 04 02 	lw $4,0($2)
  400e68:	20 00 00 00 00 00 02 04 	lb $2,0($4)
  400e70:	05 00 00 00 d6 00 00 02 	beq $2,$0,4011d0 <procopers+0x468>
  400e78:	a2 00 00 00 00 10 10 00 	lui $16,4096
  400e80:	43 00 00 00 80 5b 10 10 	addiu $16,$16,23424
  400e88:	28 00 00 00 00 00 02 10 	lw $2,0($16)
  400e90:	42 00 00 00 00 11 04 00 	addu $17,$0,$4
  400e98:	05 00 00 00 0e 00 00 02 	beq $2,$0,400ed8 <procopers+0x170>
  400ea0:	28 00 00 00 00 00 05 10 	lw $5,0($16)
  400ea8:	42 00 00 00 00 04 11 00 	addu $4,$0,$17
  400eb0:	02 00 00 00 64 ba 10 00 	jal 42e990 <strcmp>
  400eb8:	05 00 00 00 18 00 00 02 	beq $2,$0,400f20 <procopers+0x1b8>
  400ec0:	43 00 00 00 0c 00 10 10 	addiu $16,$16,12
  400ec8:	28 00 00 00 00 00 02 10 	lw $2,0($16)
  400ed0:	06 00 00 00 f2 ff 00 02 	bne $2,$0,400ea0 <procopers+0x138>
  400ed8:	42 00 00 00 00 05 00 00 	addu $5,$0,$0
  400ee0:	05 00 00 00 2c 00 00 05 	beq $5,$0,400f98 <procopers+0x230>
  400ee8:	28 00 00 00 d4 8e 02 1c 	lw $2,-28972($28)
  400ef0:	05 00 00 00 0e 00 00 02 	beq $2,$0,400f30 <procopers+0x1c8>
  400ef8:	a2 00 00 00 00 10 04 00 	lui $4,4096
  400f00:	43 00 00 00 30 00 04 04 	addiu $4,$4,48
  400f08:	02 00 00 00 0a b6 10 00 	jal 42d828 <PPrintf>
  400f10:	43 00 00 00 ff ff 02 00 	addiu $2,$0,-1
  400f18:	01 00 00 00 7c 04 10 00 	j 4011f0 <procopers+0x488>
  400f20:	42 00 00 00 00 05 10 00 	addu $5,$0,$16
  400f28:	01 00 00 00 b8 03 10 00 	j 400ee0 <procopers+0x178>
  400f30:	28 00 00 00 00 00 02 12 	lw $2,0($18)
  400f38:	43 00 00 00 0f ff 03 00 	addiu $3,$0,-241
  400f40:	28 00 00 00 04 00 04 05 	lw $4,4($5)
  400f48:	4e 00 00 00 00 03 03 02 	and $3,$2,$3
  400f50:	57 00 00 00 04 02 02 00 	srl $2,$2,0x4
  400f58:	4f 00 00 00 0f 00 02 02 	andi $2,$2,15
  400f60:	51 00 00 00 01 00 02 02 	ori $2,$2,1
  400f68:	55 00 00 00 04 02 02 00 	sll $2,$2,0x4
  400f70:	50 00 00 00 00 03 02 03 	or $3,$3,$2
  400f78:	4f 00 00 00 3f 00 04 04 	andi $4,$4,63
  400f80:	34 00 00 00 14 00 04 1d 	sw $4,20($29)
  400f88:	34 00 00 00 00 00 03 12 	sw $3,0($18)
  400f90:	01 00 00 00 60 04 10 00 	j 401180 <procopers+0x418>
  400f98:	20 00 00 00 00 00 03 11 	lb $3,0($17)
  400fa0:	06 00 00 00 26 00 15 03 	bne $3,$21,401040 <procopers+0x2d8>
  400fa8:	30 00 00 00 00 00 14 11 	sb $20,0($17)
  400fb0:	42 00 00 00 00 04 11 00 	addu $4,$0,$17
  400fb8:	43 00 00 00 10 00 05 1d 	addiu $5,$29,16
  400fc0:	43 00 00 00 14 00 06 1d 	addiu $6,$29,20
  400fc8:	02 00 00 00 34 39 10 00 	jal 40e4d0 <getexpr>
  400fd0:	06 00 00 00 ce ff 00 02 	bne $2,$0,400f10 <procopers+0x1a8>
  400fd8:	28 00 00 00 14 00 02 1d 	lw $2,20($29)
  400fe0:	5e 00 00 00 20 00 02 02 	sltiu $2,$2,32
  400fe8:	05 00 00 00 c8 ff 00 02 	beq $2,$0,400f10 <procopers+0x1a8>
  400ff0:	28 00 00 00 00 00 02 12 	lw $2,0($18)
  400ff8:	28 00 00 00 d4 8e 03 1c 	lw $3,-28972($28)
  401000:	43 00 00 00 ff f0 04 00 	addiu $4,$0,-3841
  401008:	4e 00 00 00 00 04 04 02 	and $4,$2,$4
  401010:	57 00 00 00 08 02 02 00 	srl $2,$2,0x8
  401018:	56 00 00 00 00 03 13 03 	sllv $3,$19,$3
  401020:	50 00 00 00 00 03 02 03 	or $3,$3,$2
  401028:	4f 00 00 00 0f 00 03 03 	andi $3,$3,15
  401030:	55 00 00 00 08 03 03 00 	sll $3,$3,0x8
  401038:	01 00 00 00 5c 04 10 00 	j 401170 <procopers+0x408>
  401040:	43 00 00 00 63 00 02 00 	addiu $2,$0,99
  401048:	06 00 00 00 30 00 02 03 	bne $3,$2,401110 <procopers+0x3a8>
  401050:	20 00 00 00 01 00 02 11 	lb $2,1($17)
  401058:	06 00 00 00 2c 00 15 02 	bne $2,$21,401110 <procopers+0x3a8>
  401060:	43 00 00 00 01 00 11 11 	addiu $17,$17,1
  401068:	30 00 00 00 00 00 14 11 	sb $20,0($17)
  401070:	42 00 00 00 00 04 11 00 	addu $4,$0,$17
  401078:	43 00 00 00 10 00 05 1d 	addiu $5,$29,16
  401080:	43 00 00 00 14 00 06 1d 	addiu $6,$29,20
  401088:	02 00 00 00 34 39 10 00 	jal 40e4d0 <getexpr>
  401090:	06 00 00 00 9e ff 00 02 	bne $2,$0,400f10 <procopers+0x1a8>
  401098:	28 00 00 00 14 00 02 1d 	lw $2,20($29)
  4010a0:	5e 00 00 00 40 00 02 02 	sltiu $2,$2,64
  4010a8:	05 00 00 00 98 ff 00 02 	beq $2,$0,400f10 <procopers+0x1a8>
  4010b0:	a2 00 00 00 ff ff 04 00 	lui $4,65535
  4010b8:	28 00 00 00 00 00 03 12 	lw $3,0($18)
  4010c0:	51 00 00 00 ff 0f 04 04 	ori $4,$4,4095
  4010c8:	28 00 00 00 d4 8e 02 1c 	lw $2,-28972($28)
  4010d0:	4e 00 00 00 00 04 04 03 	and $4,$3,$4
  4010d8:	57 00 00 00 0c 03 03 00 	srl $3,$3,0xc
  4010e0:	56 00 00 00 00 02 13 02 	sllv $2,$19,$2
  4010e8:	50 00 00 00 00 02 03 02 	or $2,$2,$3
  4010f0:	4f 00 00 00 0f 00 02 02 	andi $2,$2,15
  4010f8:	55 00 00 00 0c 02 02 00 	sll $2,$2,0xc
  401100:	50 00 00 00 00 04 02 04 	or $4,$4,$2
  401108:	01 00 00 00 5e 04 10 00 	j 401178 <procopers+0x410>
  401110:	42 00 00 00 00 04 11 00 	addu $4,$0,$17
  401118:	43 00 00 00 10 00 05 1d 	addiu $5,$29,16
  401120:	43 00 00 00 14 00 06 1d 	addiu $6,$29,20
  401128:	02 00 00 00 34 39 10 00 	jal 40e4d0 <getexpr>
  401130:	06 00 00 00 76 ff 00 02 	bne $2,$0,400f10 <procopers+0x1a8>
  401138:	28 00 00 00 00 00 02 12 	lw $2,0($18)
  401140:	28 00 00 00 d4 8e 03 1c 	lw $3,-28972($28)
  401148:	43 00 00 00 f0 ff 04 00 	addiu $4,$0,-16
  401150:	4e 00 00 00 00 04 04 02 	and $4,$2,$4
  401158:	56 00 00 00 00 03 13 03 	sllv $3,$19,$3
  401160:	50 00 00 00 00 03 02 03 	or $3,$3,$2
  401168:	4f 00 00 00 0f 00 03 03 	andi $3,$3,15
  401170:	50 00 00 00 00 04 03 04 	or $4,$4,$3
  401178:	34 00 00 00 00 00 04 12 	sw $4,0($18)
  401180:	28 00 00 00 d4 8e 02 1c 	lw $2,-28972($28)
  401188:	28 00 00 00 14 00 04 1d 	lw $4,20($29)
  401190:	55 00 00 00 02 03 02 00 	sll $3,$2,0x2
  401198:	43 00 00 00 01 00 02 02 	addiu $2,$2,1
  4011a0:	34 00 00 00 d4 8e 02 1c 	sw $2,-28972($28)
  4011a8:	5c 00 00 00 05 00 02 02 	slti $2,$2,5
  4011b0:	a2 00 00 00 00 10 01 00 	lui $1,4096
  4011b8:	42 00 00 00 00 01 03 01 	addu $1,$1,$3
  4011c0:	34 00 00 00 0c 58 04 01 	sw $4,22540($1)
  4011c8:	06 00 00 00 1e ff 00 02 	bne $2,$0,400e48 <procopers+0xe0>
  4011d0:	28 00 00 00 d4 8e 02 1c 	lw $2,-28972($28)
  4011d8:	5c 00 00 00 05 00 02 02 	slti $2,$2,5
  4011e0:	53 00 00 00 01 00 02 02 	xori $2,$2,1
  4011e8:	45 00 00 00 00 02 02 00 	subu $2,$0,$2
  4011f0:	28 00 00 00 34 00 1f 1d 	lw $31,52($29)
  4011f8:	28 00 00 00 30 00 16 1d 	lw $22,48($29)
  401200:	28 00 00 00 2c 00 15 1d 	lw $21,44($29)
  401208:	28 00 00 00 28 00 14 1d 	lw $20,40($29)
  401210:	28 00 00 00 24 00 13 1d 	lw $19,36($29)
  401218:	28 00 00 00 20 00 12 1d 	lw $18,32($29)
  401220:	28 00 00 00 1c 00 11 1d 	lw $17,28($29)
  401228:	28 00 00 00 18 00 10 1d 	lw $16,24($29)
  401230:	43 00 00 00 38 00 1d 1d 	addiu $29,$29,56
  401238:	03 00 00 00 00 00 00 1f 	jr $31

00401240 <mkwrd>:
  401240:	a2 00 00 00 00 10 02 00 	lui $2,4096
  401248:	28 00 00 00 0c 58 02 02 	lw $2,22540($2)
  401250:	34 00 00 00 00 00 02 05 	sw $2,0($5)
  401258:	42 00 00 00 00 02 00 00 	addu $2,$0,$0
  401260:	03 00 00 00 00 00 00 1f 	jr $31

00401268 <a_sfu1>:
  401268:	43 00 00 00 e8 ff 1d 1d 	addiu $29,$29,-24
  401270:	34 00 00 00 10 00 10 1d 	sw $16,16($29)
  401278:	42 00 00 00 00 10 05 00 	addu $16,$0,$5
  401280:	a2 00 00 00 ff 03 05 00 	lui $5,1023
  401288:	51 00 00 00 ff ff 05 05 	ori $5,$5,65535
  401290:	34 00 00 00 14 00 1f 1d 	sw $31,20($29)
  401298:	28 00 00 00 00 00 03 10 	lw $3,0($16)
  4012a0:	28 00 00 00 04 00 02 04 	lw $2,4($4)
  4012a8:	a2 00 00 00 ff ff 06 00 	lui $6,65535
  4012b0:	4e 00 00 00 00 03 05 03 	and $3,$3,$5
  4012b8:	55 00 00 00 1a 02 02 00 	sll $2,$2,0x1a
  4012c0:	50 00 00 00 00 03 02 03 	or $3,$3,$2
  4012c8:	34 00 00 00 00 00 03 10 	sw $3,0($16)
  4012d0:	28 00 00 00 04 00 02 04 	lw $2,4($4)
  4012d8:	51 00 00 00 1f 00 06 06 	ori $6,$6,31
  4012e0:	4e 00 00 00 00 03 06 03 	and $3,$3,$6
  4012e8:	a2 00 00 00 1f fc 04 00 	lui $4,64543
  4012f0:	57 00 00 00 07 02 02 00 	srl $2,$2,0x7
  4012f8:	4f 00 00 00 e0 ff 02 02 	andi $2,$2,65504
  401300:	50 00 00 00 00 03 02 03 	or $3,$3,$2
  401308:	34 00 00 00 00 00 03 10 	sw $3,0($16)
  401310:	a2 00 00 00 00 10 02 00 	lui $2,4096
  401318:	28 00 00 00 0c 58 02 02 	lw $2,22540($2)
  401320:	51 00 00 00 ff ff 04 04 	ori $4,$4,65535
  401328:	4e 00 00 00 00 04 04 03 	and $4,$3,$4
  401330:	28 00 00 00 e0 8e 03 1c 	lw $3,-28960($28)
  401338:	4f 00 00 00 1f 00 02 02 	andi $2,$2,31
  401340:	55 00 00 00 15 02 02 00 	sll $2,$2,0x15
  401348:	50 00 00 00 00 04 02 04 	or $4,$4,$2
  401350:	34 00 00 00 00 00 04 10 	sw $4,0($16)
  401358:	05 00 00 00 56 00 00 03 	beq $3,$0,4014b8 <a_sfu1+0x250>
  401360:	28 00 00 00 d0 8e 02 1c 	lw $2,-28976($28)
  401368:	06 00 00 00 52 00 00 02 	bne $2,$0,4014b8 <a_sfu1+0x250>
  401370:	57 00 00 00 0b 02 04 00 	srl $2,$4,0xb
  401378:	4f 00 00 00 1f 00 03 02 	andi $3,$2,31
  401380:	5e 00 00 00 0f 00 02 03 	sltiu $2,$3,15
  401388:	05 00 00 00 4a 00 00 02 	beq $2,$0,4014b8 <a_sfu1+0x250>
  401390:	55 00 00 00 02 02 03 00 	sll $2,$3,0x2
  401398:	a2 00 00 00 00 10 01 00 	lui $1,4096
  4013a0:	42 00 00 00 00 01 02 01 	addu $1,$1,$2
  4013a8:	28 00 00 00 48 00 02 01 	lw $2,72($1)
  4013b0:	03 00 00 00 00 00 00 02 	jr $2
  4013b8:	42 00 00 00 00 04 10 00 	addu $4,$0,$16
  4013c0:	43 00 00 00 00 80 05 1c 	addiu $5,$28,-32768
  4013c8:	02 00 00 00 5a 05 10 00 	jal 401568 <cksfu1>
  4013d0:	06 00 00 00 38 00 00 02 	bne $2,$0,4014b8 <a_sfu1+0x250>
  4013d8:	a2 00 00 00 00 07 04 00 	lui $4,1792
  4013e0:	02 00 00 00 3a 0e 10 00 	jal 4038e8 <validreg>
  4013e8:	05 00 00 00 32 00 00 02 	beq $2,$0,4014b8 <a_sfu1+0x250>
  4013f0:	42 00 00 00 00 04 10 00 	addu $4,$0,$16
  4013f8:	43 00 00 00 04 80 05 1c 	addiu $5,$28,-32764
  401400:	02 00 00 00 5a 05 10 00 	jal 401568 <cksfu1>
  401408:	06 00 00 00 2a 00 00 02 	bne $2,$0,4014b8 <a_sfu1+0x250>
  401410:	a2 00 00 00 e0 ff 05 00 	lui $5,65504
  401418:	51 00 00 00 ff ff 05 05 	ori $5,$5,65535
  401420:	28 00 00 00 00 00 03 10 	lw $3,0($16)
  401428:	a2 00 00 00 00 10 04 00 	lui $4,4096
  401430:	28 00 00 00 10 58 04 04 	lw $4,22544($4)
  401438:	42 00 00 00 00 02 00 00 	addu $2,$0,$0
  401440:	4e 00 00 00 00 03 05 03 	and $3,$3,$5
  401448:	4f 00 00 00 1f 00 04 04 	andi $4,$4,31
  401450:	55 00 00 00 10 04 04 00 	sll $4,$4,0x10
  401458:	50 00 00 00 00 03 04 03 	or $3,$3,$4
  401460:	34 00 00 00 00 00 03 10 	sw $3,0($16)
  401468:	a2 00 00 00 00 10 04 00 	lui $4,4096
  401470:	28 00 00 00 14 58 04 04 	lw $4,22548($4)
  401478:	01 00 00 00 48 05 10 00 	j 401520 <a_sfu1+0x2b8>
  401480:	42 00 00 00 00 04 10 00 	addu $4,$0,$16
  401488:	43 00 00 00 08 80 05 1c 	addiu $5,$28,-32760
  401490:	01 00 00 00 2a 05 10 00 	j 4014a8 <a_sfu1+0x240>
  401498:	42 00 00 00 00 04 10 00 	addu $4,$0,$16
  4014a0:	43 00 00 00 0c 80 05 1c 	addiu $5,$28,-32756
  4014a8:	02 00 00 00 5a 05 10 00 	jal 401568 <cksfu1>
  4014b0:	05 00 00 00 04 00 00 02 	beq $2,$0,4014c8 <a_sfu1+0x260>
  4014b8:	43 00 00 00 ff ff 02 00 	addiu $2,$0,-1
  4014c0:	01 00 00 00 52 05 10 00 	j 401548 <a_sfu1+0x2e0>
  4014c8:	a2 00 00 00 00 03 04 00 	lui $4,768
  4014d0:	02 00 00 00 3a 0e 10 00 	jal 4038e8 <validreg>
  4014d8:	05 00 00 00 f6 ff 00 02 	beq $2,$0,4014b8 <a_sfu1+0x250>
  4014e0:	42 00 00 00 00 04 10 00 	addu $4,$0,$16
  4014e8:	43 00 00 00 10 80 05 1c 	addiu $5,$28,-32752
  4014f0:	02 00 00 00 5a 05 10 00 	jal 401568 <cksfu1>
  4014f8:	06 00 00 00 ee ff 00 02 	bne $2,$0,4014b8 <a_sfu1+0x250>
  401500:	42 00 00 00 00 02 00 00 	addu $2,$0,$0
  401508:	28 00 00 00 00 00 03 10 	lw $3,0($16)
  401510:	a2 00 00 00 00 10 04 00 	lui $4,4096
  401518:	28 00 00 00 10 58 04 04 	lw $4,22544($4)
  401520:	43 00 00 00 e0 ff 05 00 	addiu $5,$0,-32
  401528:	4e 00 00 00 00 03 05 03 	and $3,$3,$5
  401530:	4f 00 00 00 1f 00 04 04 	andi $4,$4,31
  401538:	50 00 00 00 00 03 04 03 	or $3,$3,$4
  401540:	34 00 00 00 00 00 03 10 	sw $3,0($16)
  401548:	28 00 00 00 14 00 1f 1d 	lw $31,20($29)
  401550:	28 00 00 00 10 00 10 1d 	lw $16,16($29)
  401558:	43 00 00 00 18 00 1d 1d 	addiu $29,$29,24
  401560:	03 00 00 00 00 00 00 1f 	jr $31

00401568 <cksfu1>:
  401568:	43 00 00 00 f0 ff 1d 1d 	addiu $29,$29,-16
  401570:	42 00 00 00 00 08 04 00 	addu $8,$0,$4
  401578:	a2 00 00 00 00 10 04 00 	lui $4,4096
  401580:	28 00 00 00 ec 5f 04 04 	lw $4,24556($4)
  401588:	42 00 00 00 00 07 00 00 	addu $7,$0,$0
  401590:	43 00 00 00 64 00 0a 00 	addiu $10,$0,100
  401598:	43 00 00 00 23 00 0c 00 	addiu $12,$0,35
  4015a0:	43 00 00 00 73 00 09 00 	addiu $9,$0,115
  4015a8:	42 00 00 00 00 06 1d 00 	addu $6,$0,$29
  4015b0:	43 00 00 00 0c 00 0b 1d 	addiu $11,$29,12
  4015b8:	20 00 00 00 00 00 03 05 	lb $3,0($5)
  4015c0:	05 00 00 00 28 00 0a 03 	beq $3,$10,401668 <cksfu1+0x100>
  4015c8:	5c 00 00 00 65 00 02 03 	slti $2,$3,101
  4015d0:	05 00 00 00 06 00 00 02 	beq $2,$0,4015f0 <cksfu1+0x88>
  4015d8:	05 00 00 00 36 00 00 03 	beq $3,$0,4016b8 <cksfu1+0x150>
  4015e0:	05 00 00 00 06 00 0c 03 	beq $3,$12,401600 <cksfu1+0x98>
  4015e8:	01 00 00 00 b2 05 10 00 	j 4016c8 <cksfu1+0x160>
  4015f0:	05 00 00 00 1c 00 09 03 	beq $3,$9,401668 <cksfu1+0x100>
  4015f8:	01 00 00 00 b2 05 10 00 	j 4016c8 <cksfu1+0x160>
  401600:	20 00 00 00 00 00 02 04 	lb $2,0($4)
  401608:	05 00 00 00 2e 00 00 02 	beq $2,$0,4016c8 <cksfu1+0x160>
  401610:	05 00 00 00 02 00 0a 02 	beq $2,$10,401620 <cksfu1+0xb8>
  401618:	06 00 00 00 2a 00 09 02 	bne $2,$9,4016c8 <cksfu1+0x160>
  401620:	22 00 00 00 00 00 02 04 	lbu $2,0($4)
  401628:	43 00 00 00 01 00 07 07 	addiu $7,$7,1
  401630:	43 00 00 00 01 00 04 04 	addiu $4,$4,1
  401638:	55 00 00 00 18 02 02 00 	sll $2,$2,0x18
  401640:	59 00 00 00 18 02 02 00 	sra $2,$2,0x18
  401648:	53 00 00 00 64 00 02 02 	xori $2,$2,100
  401650:	5e 00 00 00 01 00 02 02 	sltiu $2,$2,1
  401658:	34 00 00 00 00 00 02 06 	sw $2,0($6)
  401660:	01 00 00 00 b8 05 10 00 	j 4016e0 <cksfu1+0x178>
  401668:	20 00 00 00 00 00 03 04 	lb $3,0($4)
  401670:	05 00 00 00 14 00 00 03 	beq $3,$0,4016c8 <cksfu1+0x160>
  401678:	20 00 00 00 00 00 02 05 	lb $2,0($5)
  401680:	06 00 00 00 10 00 02 03 	bne $3,$2,4016c8 <cksfu1+0x160>
  401688:	43 00 00 00 01 00 04 04 	addiu $4,$4,1
  401690:	53 00 00 00 64 00 02 03 	xori $2,$3,100
  401698:	5e 00 00 00 01 00 02 02 	sltiu $2,$2,1
  4016a0:	34 00 00 00 00 00 02 06 	sw $2,0($6)
  4016a8:	43 00 00 00 01 00 07 07 	addiu $7,$7,1
  4016b0:	01 00 00 00 b8 05 10 00 	j 4016e0 <cksfu1+0x178>
  4016b8:	20 00 00 00 00 00 02 04 	lb $2,0($4)
  4016c0:	05 00 00 00 04 00 00 02 	beq $2,$0,4016d8 <cksfu1+0x170>
  4016c8:	43 00 00 00 ff ff 02 00 	addiu $2,$0,-1
  4016d0:	01 00 00 00 f6 05 10 00 	j 4017d8 <cksfu1+0x270>
  4016d8:	34 00 00 00 00 00 00 06 	sw $0,0($6)
  4016e0:	43 00 00 00 04 00 06 06 	addiu $6,$6,4
  4016e8:	43 00 00 00 01 00 05 05 	addiu $5,$5,1
  4016f0:	5b 00 00 00 00 02 0b 06 	slt $2,$6,$11
  4016f8:	06 00 00 00 ae ff 00 02 	bne $2,$0,4015b8 <cksfu1+0x50>
  401700:	28 00 00 00 00 00 04 08 	lw $4,0($8)
  401708:	28 00 00 00 00 00 02 1d 	lw $2,0($29)
  401710:	43 00 00 00 9f ff 03 00 	addiu $3,$0,-97
  401718:	4e 00 00 00 00 04 03 04 	and $4,$4,$3
  401720:	4f 00 00 00 03 00 02 02 	andi $2,$2,3
  401728:	55 00 00 00 05 02 02 00 	sll $2,$2,0x5
  401730:	50 00 00 00 00 04 02 04 	or $4,$4,$2
  401738:	55 00 00 00 02 02 07 00 	sll $2,$7,0x2
  401740:	42 00 00 00 00 02 1d 02 	addu $2,$2,$29
  401748:	34 00 00 00 00 00 04 08 	sw $4,0($8)
  401750:	28 00 00 00 fc ff 02 02 	lw $2,-4($2)
  401758:	43 00 00 00 7f fe 03 00 	addiu $3,$0,-385
  401760:	4e 00 00 00 00 04 03 04 	and $4,$4,$3
  401768:	4f 00 00 00 03 00 02 02 	andi $2,$2,3
  401770:	55 00 00 00 07 02 02 00 	sll $2,$2,0x7
  401778:	50 00 00 00 00 04 02 04 	or $4,$4,$2
  401780:	43 00 00 00 03 00 02 00 	addiu $2,$0,3
  401788:	34 00 00 00 00 00 04 08 	sw $4,0($8)
  401790:	06 00 00 00 0e 00 02 07 	bne $7,$2,4017d0 <cksfu1+0x268>
  401798:	28 00 00 00 04 00 02 1d 	lw $2,4($29)
  4017a0:	43 00 00 00 ff f9 03 00 	addiu $3,$0,-1537
  4017a8:	4e 00 00 00 00 03 03 04 	and $3,$4,$3
  4017b0:	4f 00 00 00 03 00 02 02 	andi $2,$2,3
  4017b8:	55 00 00 00 09 02 02 00 	sll $2,$2,0x9
  4017c0:	50 00 00 00 00 03 02 03 	or $3,$3,$2
  4017c8:	34 00 00 00 00 00 03 08 	sw $3,0($8)
  4017d0:	42 00 00 00 00 02 00 00 	addu $2,$0,$0
  4017d8:	43 00 00 00 10 00 1d 1d 	addiu $29,$29,16
  4017e0:	03 00 00 00 00 00 00 1f 	jr $31

004017e8 <a_ctl>:
  4017e8:	28 00 00 00 e0 8e 02 1c 	lw $2,-28960($28)
  4017f0:	43 00 00 00 e8 ff 1d 1d 	addiu $29,$29,-24
  4017f8:	42 00 00 00 00 06 04 00 	addu $6,$0,$4
  401800:	34 00 00 00 10 00 10 1d 	sw $16,16($29)
  401808:	42 00 00 00 00 10 05 00 	addu $16,$0,$5
  401810:	34 00 00 00 14 00 1f 1d 	sw $31,20($29)
  401818:	06 00 00 00 a0 00 00 02 	bne $2,$0,401aa0 <a_ctl+0x2b8>
  401820:	28 00 00 00 d0 8e 02 1c 	lw $2,-28976($28)
  401828:	06 00 00 00 9c 00 00 02 	bne $2,$0,401aa0 <a_ctl+0x2b8>
  401830:	a2 00 00 00 ff 03 03 00 	lui $3,1023
  401838:	28 00 00 00 00 00 02 10 	lw $2,0($16)
  401840:	51 00 00 00 ff ff 03 03 	ori $3,$3,65535
  401848:	a2 00 00 00 ff ff 04 00 	lui $4,65535
  401850:	4e 00 00 00 00 02 03 02 	and $2,$2,$3
  401858:	a2 00 00 00 00 80 03 00 	lui $3,32768
  401860:	50 00 00 00 00 02 03 02 	or $2,$2,$3
  401868:	34 00 00 00 00 00 02 10 	sw $2,0($16)
  401870:	28 00 00 00 04 00 03 06 	lw $3,4($6)
  401878:	51 00 00 00 1f 00 04 04 	ori $4,$4,31
  401880:	4e 00 00 00 00 02 04 02 	and $2,$2,$4
  401888:	57 00 00 00 07 03 03 00 	srl $3,$3,0x7
  401890:	4f 00 00 00 e0 ff 03 03 	andi $3,$3,65504
  401898:	50 00 00 00 00 02 03 02 	or $2,$2,$3
  4018a0:	34 00 00 00 00 00 02 10 	sw $2,0($16)
  4018a8:	57 00 00 00 0e 02 02 00 	srl $2,$2,0xe
  4018b0:	4f 00 00 00 03 00 03 02 	andi $3,$2,3
  4018b8:	43 00 00 00 02 00 02 00 	addiu $2,$0,2
  4018c0:	05 00 00 00 3e 00 02 03 	beq $3,$2,4019c0 <a_ctl+0x1d8>
  4018c8:	5c 00 00 00 03 00 02 03 	slti $2,$3,3
  4018d0:	05 00 00 00 06 00 00 02 	beq $2,$0,4018f0 <a_ctl+0x108>
  4018d8:	43 00 00 00 01 00 02 00 	addiu $2,$0,1
  4018e0:	05 00 00 00 08 00 02 03 	beq $3,$2,401908 <a_ctl+0x120>
  4018e8:	01 00 00 00 f0 06 10 00 	j 401bc0 <a_ctl+0x3d8>
  4018f0:	43 00 00 00 03 00 02 00 	addiu $2,$0,3
  4018f8:	05 00 00 00 60 00 02 03 	beq $3,$2,401a80 <a_ctl+0x298>
  401900:	01 00 00 00 f0 06 10 00 	j 401bc0 <a_ctl+0x3d8>
  401908:	a2 00 00 00 00 01 04 00 	lui $4,256
  401910:	51 00 00 00 00 02 04 04 	ori $4,$4,512
  401918:	02 00 00 00 3a 0e 10 00 	jal 4038e8 <validreg>
  401920:	05 00 00 00 5e 00 00 02 	beq $2,$0,401aa0 <a_ctl+0x2b8>
  401928:	a2 00 00 00 1f fc 04 00 	lui $4,64543
  401930:	28 00 00 00 00 00 03 10 	lw $3,0($16)
  401938:	a2 00 00 00 00 10 02 00 	lui $2,4096
  401940:	28 00 00 00 0c 58 02 02 	lw $2,22540($2)
  401948:	51 00 00 00 ff ff 04 04 	ori $4,$4,65535
  401950:	4e 00 00 00 00 03 04 03 	and $3,$3,$4
  401958:	4f 00 00 00 1f 00 02 02 	andi $2,$2,31
  401960:	55 00 00 00 15 02 02 00 	sll $2,$2,0x15
  401968:	50 00 00 00 00 03 02 03 	or $3,$3,$2
  401970:	34 00 00 00 00 00 03 10 	sw $3,0($16)
  401978:	a2 00 00 00 00 10 02 00 	lui $2,4096
  401980:	28 00 00 00 10 58 02 02 	lw $2,22544($2)
  401988:	43 00 00 00 1f f8 04 00 	addiu $4,$0,-2017
  401990:	4e 00 00 00 00 03 04 03 	and $3,$3,$4
  401998:	4f 00 00 00 3f 00 02 02 	andi $2,$2,63
  4019a0:	55 00 00 00 05 02 02 00 	sll $2,$2,0x5
  4019a8:	50 00 00 00 00 03 02 03 	or $3,$3,$2
  4019b0:	34 00 00 00 00 00 03 10 	sw $3,0($16)
  4019b8:	01 00 00 00 f0 06 10 00 	j 401bc0 <a_ctl+0x3d8>
  4019c0:	a2 00 00 00 00 01 04 00 	lui $4,256
  4019c8:	51 00 00 00 00 02 04 04 	ori $4,$4,512
  4019d0:	02 00 00 00 3a 0e 10 00 	jal 4038e8 <validreg>
  4019d8:	05 00 00 00 30 00 00 02 	beq $2,$0,401aa0 <a_ctl+0x2b8>
  4019e0:	a2 00 00 00 e0 ff 04 00 	lui $4,65504
  4019e8:	a2 00 00 00 00 10 05 00 	lui $5,4096
  4019f0:	43 00 00 00 0c 58 05 05 	addiu $5,$5,22540
  4019f8:	28 00 00 00 00 00 02 10 	lw $2,0($16)
  401a00:	28 00 00 00 00 00 03 05 	lw $3,0($5)
  401a08:	51 00 00 00 ff ff 04 04 	ori $4,$4,65535
  401a10:	4e 00 00 00 00 02 04 02 	and $2,$2,$4
  401a18:	4f 00 00 00 1f 00 03 03 	andi $3,$3,31
  401a20:	55 00 00 00 10 03 03 00 	sll $3,$3,0x10
  401a28:	50 00 00 00 00 02 03 02 	or $2,$2,$3
  401a30:	34 00 00 00 00 00 02 10 	sw $2,0($16)
  401a38:	28 00 00 00 00 00 03 05 	lw $3,0($5)
  401a40:	43 00 00 00 e0 ff 04 00 	addiu $4,$0,-32
  401a48:	4e 00 00 00 00 02 04 02 	and $2,$2,$4
  401a50:	4f 00 00 00 1f 00 03 03 	andi $3,$3,31
  401a58:	50 00 00 00 00 02 03 02 	or $2,$2,$3
  401a60:	34 00 00 00 00 00 02 10 	sw $2,0($16)
  401a68:	a2 00 00 00 00 10 03 00 	lui $3,4096
  401a70:	28 00 00 00 10 58 03 03 	lw $3,22544($3)
  401a78:	01 00 00 00 e4 06 10 00 	j 401b90 <a_ctl+0x3a8>
  401a80:	a2 00 00 00 00 03 04 00 	lui $4,768
  401a88:	51 00 00 00 00 04 04 04 	ori $4,$4,1024
  401a90:	02 00 00 00 3a 0e 10 00 	jal 4038e8 <validreg>
  401a98:	06 00 00 00 04 00 00 02 	bne $2,$0,401ab0 <a_ctl+0x2c8>
  401aa0:	43 00 00 00 ff ff 02 00 	addiu $2,$0,-1
  401aa8:	01 00 00 00 f2 06 10 00 	j 401bc8 <a_ctl+0x3e0>
  401ab0:	a2 00 00 00 1f fc 04 00 	lui $4,64543
  401ab8:	51 00 00 00 ff ff 04 04 	ori $4,$4,65535
  401ac0:	28 00 00 00 00 00 02 10 	lw $2,0($16)
  401ac8:	a2 00 00 00 00 10 03 00 	lui $3,4096
  401ad0:	28 00 00 00 0c 58 03 03 	lw $3,22540($3)
  401ad8:	a2 00 00 00 e0 ff 05 00 	lui $5,65504
  401ae0:	4e 00 00 00 00 02 04 02 	and $2,$2,$4
  401ae8:	4f 00 00 00 1f 00 03 03 	andi $3,$3,31
  401af0:	55 00 00 00 15 03 03 00 	sll $3,$3,0x15
  401af8:	50 00 00 00 00 02 03 02 	or $2,$2,$3
  401b00:	34 00 00 00 00 00 02 10 	sw $2,0($16)
  401b08:	a2 00 00 00 00 10 03 00 	lui $3,4096
  401b10:	28 00 00 00 10 58 03 03 	lw $3,22544($3)
  401b18:	51 00 00 00 ff ff 05 05 	ori $5,$5,65535
  401b20:	4e 00 00 00 00 02 05 02 	and $2,$2,$5
  401b28:	4f 00 00 00 1f 00 03 03 	andi $3,$3,31
  401b30:	55 00 00 00 10 03 03 00 	sll $3,$3,0x10
  401b38:	50 00 00 00 00 02 03 02 	or $2,$2,$3
  401b40:	34 00 00 00 00 00 02 10 	sw $2,0($16)
  401b48:	a2 00 00 00 00 10 03 00 	lui $3,4096
  401b50:	28 00 00 00 10 58 03 03 	lw $3,22544($3)
  401b58:	43 00 00 00 e0 ff 04 00 	addiu $4,$0,-32
  401b60:	4e 00 00 00 00 02 04 02 	and $2,$2,$4
  401b68:	4f 00 00 00 1f 00 03 03 	andi $3,$3,31
  401b70:	50 00 00 00 00 02 03 02 	or $2,$2,$3
  401b78:	34 00 00 00 00 00 02 10 	sw $2,0($16)
  401b80:	a2 00 00 00 00 10 03 00 	lui $3,4096
  401b88:	28 00 00 00 14 58 03 03 	lw $3,22548($3)
  401b90:	43 00 00 00 1f f8 04 00 	addiu $4,$0,-2017
  401b98:	4e 00 00 00 00 02 04 02 	and $2,$2,$4
  401ba0:	4f 00 00 00 3f 00 03 03 	andi $3,$3,63
  401ba8:	55 00 00 00 05 03 03 00 	sll $3,$3,0x5
  401bb0:	50 00 00 00 00 02 03 02 	or $2,$2,$3
  401bb8:	34 00 00 00 00 00 02 10 	sw $2,0($16)
  401bc0:	42 00 00 00 00 02 00 00 	addu $2,$0,$0
  401bc8:	28 00 00 00 14 00 1f 1d 	lw $31,20($29)
  401bd0:	28 00 00 00 10 00 10 1d 	lw $16,16($29)
  401bd8:	43 00 00 00 18 00 1d 1d 	addiu $29,$29,24
  401be0:	03 00 00 00 00 00 00 1f 	jr $31

00401be8 <integer>:
  401be8:	28 00 00 00 d0 8e 02 1c 	lw $2,-28976($28)
  401bf0:	43 00 00 00 e0 ff 1d 1d 	addiu $29,$29,-32
  401bf8:	34 00 00 00 14 00 11 1d 	sw $17,20($29)
  401c00:	42 00 00 00 00 11 04 00 	addu $17,$0,$4
  401c08:	34 00 00 00 10 00 10 1d 	sw $16,16($29)
  401c10:	42 00 00 00 00 10 05 00 	addu $16,$0,$5
  401c18:	34 00 00 00 18 00 1f 1d 	sw $31,24($29)
  401c20:	06 00 00 00 98 00 00 02 	bne $2,$0,401e88 <integer+0x2a0>
  401c28:	a2 00 00 00 1f fc 04 00 	lui $4,64543
  401c30:	51 00 00 00 ff ff 04 04 	ori $4,$4,65535
  401c38:	a2 00 00 00 e0 ff 05 00 	lui $5,65504
  401c40:	28 00 00 00 00 00 03 10 	lw $3,0($16)
  401c48:	a2 00 00 00 00 10 02 00 	lui $2,4096
  401c50:	28 00 00 00 0c 58 02 02 	lw $2,22540($2)
  401c58:	51 00 00 00 ff ff 05 05 	ori $5,$5,65535
  401c60:	4e 00 00 00 00 03 04 03 	and $3,$3,$4
  401c68:	4f 00 00 00 1f 00 02 02 	andi $2,$2,31
  401c70:	55 00 00 00 15 02 02 00 	sll $2,$2,0x15
  401c78:	50 00 00 00 00 03 02 03 	or $3,$3,$2
  401c80:	34 00 00 00 00 00 03 10 	sw $3,0($16)
  401c88:	a2 00 00 00 00 10 02 00 	lui $2,4096
  401c90:	28 00 00 00 10 58 02 02 	lw $2,22544($2)
  401c98:	a2 00 00 00 00 07 04 00 	lui $4,1792
  401ca0:	4e 00 00 00 00 03 05 03 	and $3,$3,$5
  401ca8:	4f 00 00 00 1f 00 02 02 	andi $2,$2,31
  401cb0:	55 00 00 00 10 02 02 00 	sll $2,$2,0x10
  401cb8:	50 00 00 00 00 03 02 03 	or $3,$3,$2
  401cc0:	34 00 00 00 00 00 03 10 	sw $3,0($16)
  401cc8:	02 00 00 00 3a 0e 10 00 	jal 4038e8 <validreg>
  401cd0:	06 00 00 00 22 00 00 02 	bne $2,$0,401d60 <integer+0x178>
  401cd8:	28 00 00 00 e0 8e 02 1c 	lw $2,-28960($28)
  401ce0:	06 00 00 00 68 00 00 02 	bne $2,$0,401e88 <integer+0x2a0>
  401ce8:	a2 00 00 00 04 03 04 00 	lui $4,772
  401cf0:	02 00 00 00 3a 0e 10 00 	jal 4038e8 <validreg>
  401cf8:	05 00 00 00 62 00 00 02 	beq $2,$0,401e88 <integer+0x2a0>
  401d00:	a2 00 00 00 ff 03 04 00 	lui $4,1023
  401d08:	28 00 00 00 00 00 02 10 	lw $2,0($16)
  401d10:	28 00 00 00 04 00 03 11 	lw $3,4($17)
  401d18:	51 00 00 00 ff ff 04 04 	ori $4,$4,65535
  401d20:	4e 00 00 00 00 02 04 02 	and $2,$2,$4
  401d28:	55 00 00 00 1a 03 03 00 	sll $3,$3,0x1a
  401d30:	50 00 00 00 00 02 03 02 	or $2,$2,$3
  401d38:	34 00 00 00 00 00 02 10 	sw $2,0($16)
  401d40:	a2 00 00 00 00 10 02 00 	lui $2,4096
  401d48:	26 00 00 00 14 58 02 02 	lhu $2,22548($2)
  401d50:	32 00 00 00 00 00 02 10 	sh $2,0($16)
  401d58:	01 00 00 00 bc 07 10 00 	j 401ef0 <integer+0x308>
  401d60:	a2 00 00 00 ff 03 03 00 	lui $3,1023
  401d68:	28 00 00 00 00 00 02 10 	lw $2,0($16)
  401d70:	51 00 00 00 ff ff 03 03 	ori $3,$3,65535
  401d78:	a2 00 00 00 ff ff 04 00 	lui $4,65535
  401d80:	51 00 00 00 1f 00 04 04 	ori $4,$4,31
  401d88:	4e 00 00 00 00 02 03 02 	and $2,$2,$3
  401d90:	a2 00 00 00 00 f4 03 00 	lui $3,62464
  401d98:	50 00 00 00 00 02 03 02 	or $2,$2,$3
  401da0:	34 00 00 00 00 00 02 10 	sw $2,0($16)
  401da8:	28 00 00 00 04 00 03 11 	lw $3,4($17)
  401db0:	4e 00 00 00 00 02 04 02 	and $2,$2,$4
  401db8:	28 00 00 00 e0 8e 04 1c 	lw $4,-28960($28)
  401dc0:	57 00 00 00 07 03 03 00 	srl $3,$3,0x7
  401dc8:	4f 00 00 00 e0 ff 03 03 	andi $3,$3,65504
  401dd0:	50 00 00 00 00 02 03 02 	or $2,$2,$3
  401dd8:	34 00 00 00 00 00 02 10 	sw $2,0($16)
  401de0:	05 00 00 00 32 00 00 04 	beq $4,$0,401eb0 <integer+0x2c8>
  401de8:	a2 00 00 00 00 10 11 00 	lui $17,4096
  401df0:	43 00 00 00 ec 5f 11 11 	addiu $17,$17,24556
  401df8:	28 00 00 00 00 00 04 11 	lw $4,0($17)
  401e00:	43 00 00 00 14 80 05 1c 	addiu $5,$28,-32748
  401e08:	02 00 00 00 64 ba 10 00 	jal 42e990 <strcmp>
  401e10:	06 00 00 00 06 00 00 02 	bne $2,$0,401e30 <integer+0x248>
  401e18:	28 00 00 00 00 00 02 10 	lw $2,0($16)
  401e20:	51 00 00 00 00 01 02 02 	ori $2,$2,256
  401e28:	01 00 00 00 aa 07 10 00 	j 401ea8 <integer+0x2c0>
  401e30:	28 00 00 00 00 00 04 11 	lw $4,0($17)
  401e38:	43 00 00 00 18 80 05 1c 	addiu $5,$28,-32744
  401e40:	02 00 00 00 64 ba 10 00 	jal 42e990 <strcmp>
  401e48:	06 00 00 00 06 00 00 02 	bne $2,$0,401e68 <integer+0x280>
  401e50:	28 00 00 00 00 00 02 10 	lw $2,0($16)
  401e58:	51 00 00 00 00 02 02 02 	ori $2,$2,512
  401e60:	01 00 00 00 aa 07 10 00 	j 401ea8 <integer+0x2c0>
  401e68:	28 00 00 00 00 00 04 11 	lw $4,0($17)
  401e70:	43 00 00 00 1c 80 05 1c 	addiu $5,$28,-32740
  401e78:	02 00 00 00 64 ba 10 00 	jal 42e990 <strcmp>
  401e80:	05 00 00 00 04 00 00 02 	beq $2,$0,401e98 <integer+0x2b0>
  401e88:	43 00 00 00 ff ff 02 00 	addiu $2,$0,-1
  401e90:	01 00 00 00 be 07 10 00 	j 401ef8 <integer+0x310>
  401e98:	28 00 00 00 00 00 02 10 	lw $2,0($16)
  401ea0:	51 00 00 00 00 03 02 02 	ori $2,$2,768
  401ea8:	34 00 00 00 00 00 02 10 	sw $2,0($16)
  401eb0:	28 00 00 00 00 00 02 10 	lw $2,0($16)
  401eb8:	a2 00 00 00 00 10 03 00 	lui $3,4096
  401ec0:	28 00 00 00 14 58 03 03 	lw $3,22548($3)
  401ec8:	43 00 00 00 e0 ff 04 00 	addiu $4,$0,-32
  401ed0:	4e 00 00 00 00 02 04 02 	and $2,$2,$4
  401ed8:	4f 00 00 00 1f 00 03 03 	andi $3,$3,31
  401ee0:	50 00 00 00 00 02 03 02 	or $2,$2,$3
  401ee8:	34 00 00 00 00 00 02 10 	sw $2,0($16)
  401ef0:	42 00 00 00 00 02 00 00 	addu $2,$0,$0
  401ef8:	28 00 00 00 18 00 1f 1d 	lw $31,24($29)
  401f00:	28 00 00 00 14 00 11 1d 	lw $17,20($29)
  401f08:	28 00 00 00 10 00 10 1d 	lw $16,16($29)
  401f10:	43 00 00 00 20 00 1d 1d 	addiu $29,$29,32
  401f18:	03 00 00 00 00 00 00 1f 	jr $31

00401f20 <trpbci>:
  401f20:	43 00 00 00 e0 ff 1d 1d 	addiu $29,$29,-32
  401f28:	34 00 00 00 14 00 11 1d 	sw $17,20($29)
  401f30:	42 00 00 00 00 11 04 00 	addu $17,$0,$4
  401f38:	34 00 00 00 10 00 10 1d 	sw $16,16($29)
  401f40:	42 00 00 00 00 10 05 00 	addu $16,$0,$5
  401f48:	a2 00 00 00 05 02 04 00 	lui $4,517
  401f50:	34 00 00 00 18 00 1f 1d 	sw $31,24($29)
  401f58:	02 00 00 00 3a 0e 10 00 	jal 4038e8 <validreg>
  401f60:	06 00 00 00 0c 00 00 02 	bne $2,$0,401f98 <trpbci+0x78>
  401f68:	a2 00 00 00 04 02 04 00 	lui $4,516
  401f70:	51 00 00 00 01 00 04 04 	ori $4,$4,1
  401f78:	02 00 00 00 3a 0e 10 00 	jal 4038e8 <validreg>
  401f80:	06 00 00 00 04 00 00 02 	bne $2,$0,401f98 <trpbci+0x78>
  401f88:	28 00 00 00 e0 8e 02 1c 	lw $2,-28960($28)
  401f90:	06 00 00 00 04 00 00 02 	bne $2,$0,401fa8 <trpbci+0x88>
  401f98:	28 00 00 00 d0 8e 02 1c 	lw $2,-28976($28)
  401fa0:	05 00 00 00 04 00 00 02 	beq $2,$0,401fb8 <trpbci+0x98>
  401fa8:	43 00 00 00 ff ff 02 00 	addiu $2,$0,-1
  401fb0:	01 00 00 00 40 08 10 00 	j 402100 <trpbci+0x1e0>
  401fb8:	a2 00 00 00 ff 03 02 00 	lui $2,1023
  401fc0:	51 00 00 00 ff ff 02 02 	ori $2,$2,65535
  401fc8:	a2 00 00 00 ff ff 04 00 	lui $4,65535
  401fd0:	51 00 00 00 ff 03 04 04 	ori $4,$4,1023
  401fd8:	28 00 00 00 00 00 03 10 	lw $3,0($16)
  401fe0:	a2 00 00 00 1f fc 05 00 	lui $5,64543
  401fe8:	51 00 00 00 ff ff 05 05 	ori $5,$5,65535
  401ff0:	4e 00 00 00 00 03 02 03 	and $3,$3,$2
  401ff8:	a2 00 00 00 00 f0 02 00 	lui $2,61440
  402000:	50 00 00 00 00 03 02 03 	or $3,$3,$2
  402008:	34 00 00 00 00 00 03 10 	sw $3,0($16)
  402010:	28 00 00 00 04 00 02 11 	lw $2,4($17)
  402018:	a2 00 00 00 e0 ff 06 00 	lui $6,65504
  402020:	4e 00 00 00 00 03 04 03 	and $3,$3,$4
  402028:	55 00 00 00 04 02 02 00 	sll $2,$2,0x4
  402030:	4f 00 00 00 00 fc 02 02 	andi $2,$2,64512
  402038:	50 00 00 00 00 03 02 03 	or $3,$3,$2
  402040:	34 00 00 00 00 00 03 10 	sw $3,0($16)
  402048:	a2 00 00 00 00 10 02 00 	lui $2,4096
  402050:	28 00 00 00 0c 58 02 02 	lw $2,22540($2)
  402058:	51 00 00 00 ff ff 06 06 	ori $6,$6,65535
  402060:	4e 00 00 00 00 03 05 03 	and $3,$3,$5
  402068:	4f 00 00 00 1f 00 02 02 	andi $2,$2,31
  402070:	55 00 00 00 15 02 02 00 	sll $2,$2,0x15
  402078:	50 00 00 00 00 03 02 03 	or $3,$3,$2
  402080:	34 00 00 00 00 00 03 10 	sw $3,0($16)
  402088:	a2 00 00 00 00 10 04 00 	lui $4,4096
  402090:	28 00 00 00 10 58 04 04 	lw $4,22544($4)
  402098:	43 00 00 00 00 fe 05 00 	addiu $5,$0,-512
  4020a0:	4e 00 00 00 00 03 06 03 	and $3,$3,$6
  4020a8:	4f 00 00 00 1f 00 04 04 	andi $4,$4,31
  4020b0:	55 00 00 00 10 04 04 00 	sll $4,$4,0x10
  4020b8:	50 00 00 00 00 03 04 03 	or $3,$3,$4
  4020c0:	34 00 00 00 00 00 03 10 	sw $3,0($16)
  4020c8:	a2 00 00 00 00 10 04 00 	lui $4,4096
  4020d0:	28 00 00 00 14 58 04 04 	lw $4,22548($4)
  4020d8:	42 00 00 00 00 02 00 00 	addu $2,$0,$0
  4020e0:	4e 00 00 00 00 03 05 03 	and $3,$3,$5
  4020e8:	4f 00 00 00 ff 01 04 04 	andi $4,$4,511
  4020f0:	50 00 00 00 00 03 04 03 	or $3,$3,$4
  4020f8:	34 00 00 00 00 00 03 10 	sw $3,0($16)
  402100:	28 00 00 00 18 00 1f 1d 	lw $31,24($29)
  402108:	28 00 00 00 14 00 11 1d 	lw $17,20($29)
  402110:	28 00 00 00 10 00 10 1d 	lw $16,16($29)
  402118:	43 00 00 00 20 00 1d 1d 	addiu $29,$29,32
  402120:	03 00 00 00 00 00 00 1f 	jr $31

00402128 <tbnd>:
  402128:	28 00 00 00 e0 8e 02 1c 	lw $2,-28960($28)
  402130:	43 00 00 00 e0 ff 1d 1d 	addiu $29,$29,-32
  402138:	34 00 00 00 14 00 11 1d 	sw $17,20($29)
  402140:	42 00 00 00 00 11 04 00 	addu $17,$0,$4
  402148:	34 00 00 00 10 00 10 1d 	sw $16,16($29)
  402150:	42 00 00 00 00 10 05 00 	addu $16,$0,$5
  402158:	34 00 00 00 18 00 1f 1d 	sw $31,24($29)
  402160:	06 00 00 00 10 00 00 02 	bne $2,$0,4021a8 <tbnd+0x80>
  402168:	28 00 00 00 d0 8e 02 1c 	lw $2,-28976($28)
  402170:	06 00 00 00 0c 00 00 02 	bne $2,$0,4021a8 <tbnd+0x80>
  402178:	a2 00 00 00 00 03 04 00 	lui $4,768
  402180:	02 00 00 00 3a 0e 10 00 	jal 4038e8 <validreg>
  402188:	06 00 00 00 34 00 00 02 	bne $2,$0,402260 <tbnd+0x138>
  402190:	a2 00 00 00 02 01 04 00 	lui $4,258
  402198:	02 00 00 00 3a 0e 10 00 	jal 4038e8 <validreg>
  4021a0:	06 00 00 00 04 00 00 02 	bne $2,$0,4021b8 <tbnd+0x90>
  4021a8:	43 00 00 00 ff ff 02 00 	addiu $2,$0,-1
  4021b0:	01 00 00 00 d8 08 10 00 	j 402360 <tbnd+0x238>
  4021b8:	a2 00 00 00 ff 03 04 00 	lui $4,1023
  4021c0:	51 00 00 00 ff ff 04 04 	ori $4,$4,65535
  4021c8:	28 00 00 00 00 00 02 10 	lw $2,0($16)
  4021d0:	28 00 00 00 04 00 03 11 	lw $3,4($17)
  4021d8:	a2 00 00 00 e0 ff 05 00 	lui $5,65504
  4021e0:	4e 00 00 00 00 02 04 02 	and $2,$2,$4
  4021e8:	55 00 00 00 1a 03 03 00 	sll $3,$3,0x1a
  4021f0:	50 00 00 00 00 02 03 02 	or $2,$2,$3
  4021f8:	34 00 00 00 00 00 02 10 	sw $2,0($16)
  402200:	a2 00 00 00 00 10 03 00 	lui $3,4096
  402208:	28 00 00 00 0c 58 03 03 	lw $3,22540($3)
  402210:	51 00 00 00 ff ff 05 05 	ori $5,$5,65535
  402218:	4e 00 00 00 00 02 05 02 	and $2,$2,$5
  402220:	4f 00 00 00 1f 00 03 03 	andi $3,$3,31
  402228:	55 00 00 00 10 03 03 00 	sll $3,$3,0x10
  402230:	50 00 00 00 00 02 03 02 	or $2,$2,$3
  402238:	34 00 00 00 00 00 02 10 	sw $2,0($16)
  402240:	a2 00 00 00 00 10 02 00 	lui $2,4096
  402248:	26 00 00 00 10 58 02 02 	lhu $2,22544($2)
  402250:	32 00 00 00 00 00 02 10 	sh $2,0($16)
  402258:	01 00 00 00 d6 08 10 00 	j 402358 <tbnd+0x230>
  402260:	a2 00 00 00 ff 03 03 00 	lui $3,1023
  402268:	51 00 00 00 ff ff 03 03 	ori $3,$3,65535
  402270:	28 00 00 00 00 00 02 10 	lw $2,0($16)
  402278:	a2 00 00 00 ff ff 04 00 	lui $4,65535
  402280:	51 00 00 00 1f 00 04 04 	ori $4,$4,31
  402288:	4e 00 00 00 00 02 03 02 	and $2,$2,$3
  402290:	a2 00 00 00 00 f4 03 00 	lui $3,62464
  402298:	50 00 00 00 00 02 03 02 	or $2,$2,$3
  4022a0:	34 00 00 00 00 00 02 10 	sw $2,0($16)
  4022a8:	28 00 00 00 04 00 03 11 	lw $3,4($17)
  4022b0:	a2 00 00 00 e0 ff 05 00 	lui $5,65504
  4022b8:	4e 00 00 00 00 02 04 02 	and $2,$2,$4
  4022c0:	57 00 00 00 07 03 03 00 	srl $3,$3,0x7
  4022c8:	4f 00 00 00 e0 ff 03 03 	andi $3,$3,65504
  4022d0:	50 00 00 00 00 02 03 02 	or $2,$2,$3
  4022d8:	34 00 00 00 00 00 02 10 	sw $2,0($16)
  4022e0:	a2 00 00 00 00 10 03 00 	lui $3,4096
  4022e8:	28 00 00 00 0c 58 03 03 	lw $3,22540($3)
  4022f0:	51 00 00 00 ff ff 05 05 	ori $5,$5,65535
  4022f8:	4e 00 00 00 00 02 05 02 	and $2,$2,$5
  402300:	4f 00 00 00 1f 00 03 03 	andi $3,$3,31
  402308:	55 00 00 00 10 03 03 00 	sll $3,$3,0x10
  402310:	50 00 00 00 00 02 03 02 	or $2,$2,$3
  402318:	34 00 00 00 00 00 02 10 	sw $2,0($16)
  402320:	a2 00 00 00 00 10 03 00 	lui $3,4096
  402328:	28 00 00 00 10 58 03 03 	lw $3,22544($3)
  402330:	43 00 00 00 e0 ff 04 00 	addiu $4,$0,-32
  402338:	4e 00 00 00 00 02 04 02 	and $2,$2,$4
  402340:	4f 00 00 00 1f 00 03 03 	andi $3,$3,31
  402348:	50 00 00 00 00 02 03 02 	or $2,$2,$3
  402350:	34 00 00 00 00 00 02 10 	sw $2,0($16)
  402358:	42 00 00 00 00 02 00 00 	addu $2,$0,$0
  402360:	28 00 00 00 18 00 1f 1d 	lw $31,24($29)
  402368:	28 00 00 00 14 00 11 1d 	lw $17,20($29)
  402370:	28 00 00 00 10 00 10 1d 	lw $16,16($29)
  402378:	43 00 00 00 20 00 1d 1d 	addiu $29,$29,32
  402380:	03 00 00 00 00 00 00 1f 	jr $31

00402388 <mem>:
  402388:	43 00 00 00 e0 ff 1d 1d 	addiu $29,$29,-32
  402390:	34 00 00 00 14 00 11 1d 	sw $17,20($29)
  402398:	42 00 00 00 00 11 04 00 	addu $17,$0,$4
  4023a0:	34 00 00 00 10 00 10 1d 	sw $16,16($29)
  4023a8:	42 00 00 00 00 10 05 00 	addu $16,$0,$5
  4023b0:	a2 00 00 00 1f fc 04 00 	lui $4,64543
  4023b8:	51 00 00 00 ff ff 04 04 	ori $4,$4,65535
  4023c0:	a2 00 00 00 e0 ff 05 00 	lui $5,65504
  4023c8:	34 00 00 00 18 00 1f 1d 	sw $31,24($29)
  4023d0:	28 00 00 00 00 00 03 10 	lw $3,0($16)
  4023d8:	a2 00 00 00 00 10 02 00 	lui $2,4096
  4023e0:	28 00 00 00 0c 58 02 02 	lw $2,22540($2)
  4023e8:	51 00 00 00 ff ff 05 05 	ori $5,$5,65535
  4023f0:	4e 00 00 00 00 03 04 03 	and $3,$3,$4
  4023f8:	4f 00 00 00 1f 00 02 02 	andi $2,$2,31
  402400:	55 00 00 00 15 02 02 00 	sll $2,$2,0x15
  402408:	50 00 00 00 00 03 02 03 	or $3,$3,$2
  402410:	34 00 00 00 00 00 03 10 	sw $3,0($16)
  402418:	a2 00 00 00 00 10 02 00 	lui $2,4096
  402420:	28 00 00 00 10 58 02 02 	lw $2,22544($2)
  402428:	a2 00 00 00 00 07 04 00 	lui $4,1792
  402430:	4e 00 00 00 00 03 05 03 	and $3,$3,$5
  402438:	4f 00 00 00 1f 00 02 02 	andi $2,$2,31
  402440:	55 00 00 00 10 02 02 00 	sll $2,$2,0x10
  402448:	50 00 00 00 00 03 02 03 	or $3,$3,$2
  402450:	34 00 00 00 00 00 03 10 	sw $3,0($16)
  402458:	02 00 00 00 3a 0e 10 00 	jal 4038e8 <validreg>
  402460:	06 00 00 00 2a 00 00 02 	bne $2,$0,402510 <mem+0x188>
  402468:	a2 00 00 00 04 03 04 00 	lui $4,772
  402470:	02 00 00 00 3a 0e 10 00 	jal 4038e8 <validreg>
  402478:	05 00 00 00 4a 00 00 02 	beq $2,$0,4025a8 <mem+0x220>
  402480:	28 00 00 00 d0 8e 02 1c 	lw $2,-28976($28)
  402488:	06 00 00 00 46 00 00 02 	bne $2,$0,4025a8 <mem+0x220>
  402490:	a2 00 00 00 ff 03 02 00 	lui $2,1023
  402498:	51 00 00 00 ff ff 02 02 	ori $2,$2,65535
  4024a0:	42 00 00 00 00 04 10 00 	addu $4,$0,$16
  4024a8:	28 00 00 00 00 00 03 10 	lw $3,0($16)
  4024b0:	28 00 00 00 04 00 06 11 	lw $6,4($17)
  4024b8:	42 00 00 00 00 05 00 00 	addu $5,$0,$0
  4024c0:	4e 00 00 00 00 03 02 03 	and $3,$3,$2
  4024c8:	55 00 00 00 1a 06 06 00 	sll $6,$6,0x1a
  4024d0:	50 00 00 00 00 03 06 03 	or $3,$3,$6
  4024d8:	34 00 00 00 00 00 03 10 	sw $3,0($16)
  4024e0:	02 00 00 00 94 09 10 00 	jal 402650 <ckmem>
  4024e8:	06 00 00 00 2e 00 00 02 	bne $2,$0,4025a8 <mem+0x220>
  4024f0:	a2 00 00 00 00 10 02 00 	lui $2,4096
  4024f8:	26 00 00 00 14 58 02 02 	lhu $2,22548($2)
  402500:	32 00 00 00 00 00 02 10 	sh $2,0($16)
  402508:	01 00 00 00 88 09 10 00 	j 402620 <mem+0x298>
  402510:	a2 00 00 00 ff 03 03 00 	lui $3,1023
  402518:	51 00 00 00 ff ff 03 03 	ori $3,$3,65535
  402520:	a2 00 00 00 ff ff 06 00 	lui $6,65535
  402528:	28 00 00 00 00 00 02 10 	lw $2,0($16)
  402530:	51 00 00 00 1f 00 06 06 	ori $6,$6,31
  402538:	42 00 00 00 00 04 10 00 	addu $4,$0,$16
  402540:	4e 00 00 00 00 02 03 02 	and $2,$2,$3
  402548:	a2 00 00 00 00 f4 03 00 	lui $3,62464
  402550:	50 00 00 00 00 02 03 02 	or $2,$2,$3
  402558:	34 00 00 00 00 00 02 10 	sw $2,0($16)
  402560:	28 00 00 00 04 00 03 11 	lw $3,4($17)
  402568:	43 00 00 00 01 00 05 00 	addiu $5,$0,1
  402570:	4e 00 00 00 00 02 06 02 	and $2,$2,$6
  402578:	57 00 00 00 07 03 03 00 	srl $3,$3,0x7
  402580:	4f 00 00 00 e0 ff 03 03 	andi $3,$3,65504
  402588:	50 00 00 00 00 02 03 02 	or $2,$2,$3
  402590:	34 00 00 00 00 00 02 10 	sw $2,0($16)
  402598:	02 00 00 00 94 09 10 00 	jal 402650 <ckmem>
  4025a0:	05 00 00 00 04 00 00 02 	beq $2,$0,4025b8 <mem+0x230>
  4025a8:	43 00 00 00 ff ff 02 00 	addiu $2,$0,-1
  4025b0:	01 00 00 00 8a 09 10 00 	j 402628 <mem+0x2a0>
  4025b8:	28 00 00 00 d0 8e 02 1c 	lw $2,-28976($28)
  4025c0:	05 00 00 00 06 00 00 02 	beq $2,$0,4025e0 <mem+0x258>
  4025c8:	28 00 00 00 00 00 02 10 	lw $2,0($16)
  4025d0:	51 00 00 00 00 02 02 02 	ori $2,$2,512
  4025d8:	34 00 00 00 00 00 02 10 	sw $2,0($16)
  4025e0:	28 00 00 00 00 00 02 10 	lw $2,0($16)
  4025e8:	a2 00 00 00 00 10 03 00 	lui $3,4096
  4025f0:	28 00 00 00 14 58 03 03 	lw $3,22548($3)
  4025f8:	43 00 00 00 e0 ff 04 00 	addiu $4,$0,-32
  402600:	4e 00 00 00 00 02 04 02 	and $2,$2,$4
  402608:	4f 00 00 00 1f 00 03 03 	andi $3,$3,31
  402610:	50 00 00 00 00 02 03 02 	or $2,$2,$3
  402618:	34 00 00 00 00 00 02 10 	sw $2,0($16)
  402620:	42 00 00 00 00 02 00 00 	addu $2,$0,$0
  402628:	28 00 00 00 18 00 1f 1d 	lw $31,24($29)
  402630:	28 00 00 00 14 00 11 1d 	lw $17,20($29)
  402638:	28 00 00 00 10 00 10 1d 	lw $16,16($29)
  402640:	43 00 00 00 20 00 1d 1d 	addiu $29,$29,32
  402648:	03 00 00 00 00 00 00 1f 	jr $31

00402650 <ckmem>:
  402650:	43 00 00 00 d0 ff 1d 1d 	addiu $29,$29,-48
  402658:	34 00 00 00 20 00 14 1d 	sw $20,32($29)
  402660:	42 00 00 00 00 14 04 00 	addu $20,$0,$4
  402668:	34 00 00 00 24 00 15 1d 	sw $21,36($29)
  402670:	42 00 00 00 00 15 05 00 	addu $21,$0,$5
  402678:	34 00 00 00 28 00 1f 1d 	sw $31,40($29)
  402680:	34 00 00 00 1c 00 13 1d 	sw $19,28($29)
  402688:	34 00 00 00 18 00 12 1d 	sw $18,24($29)
  402690:	34 00 00 00 14 00 11 1d 	sw $17,20($29)
  402698:	34 00 00 00 10 00 10 1d 	sw $16,16($29)
  4026a0:	05 00 00 00 08 00 00 15 	beq $21,$0,4026c8 <ckmem+0x78>
  4026a8:	28 00 00 00 00 00 02 14 	lw $2,0($20)
  4026b0:	43 00 00 00 20 00 11 00 	addiu $17,$0,32
  4026b8:	57 00 00 00 0c 12 02 00 	srl $18,$2,0xc
  4026c0:	01 00 00 00 b8 09 10 00 	j 4026e0 <ckmem+0x90>
  4026c8:	28 00 00 00 00 00 02 14 	lw $2,0($20)
  4026d0:	43 00 00 00 01 00 11 00 	addiu $17,$0,1
  4026d8:	57 00 00 00 1c 12 02 00 	srl $18,$2,0x1c
  4026e0:	4f 00 00 00 03 00 12 12 	andi $18,$18,3
  4026e8:	28 00 00 00 e0 8e 02 1c 	lw $2,-28960($28)
  4026f0:	05 00 00 00 0a 00 00 02 	beq $2,$0,402720 <ckmem+0xd0>
  4026f8:	a2 00 00 00 00 10 04 00 	lui $4,4096
  402700:	28 00 00 00 ec 5f 04 04 	lw $4,24556($4)
  402708:	01 00 00 00 ca 09 10 00 	j 402728 <ckmem+0xd8>
  402710:	42 00 00 00 00 04 10 00 	addu $4,$0,$16
  402718:	01 00 00 00 e4 09 10 00 	j 402790 <ckmem+0x140>
  402720:	43 00 00 00 20 80 04 1c 	addiu $4,$28,-32736
  402728:	a2 00 00 00 00 10 10 00 	lui $16,4096
  402730:	43 00 00 00 e4 5a 10 10 	addiu $16,$16,23268
  402738:	28 00 00 00 00 00 02 10 	lw $2,0($16)
  402740:	42 00 00 00 00 13 04 00 	addu $19,$0,$4
  402748:	05 00 00 00 0e 00 00 02 	beq $2,$0,402788 <ckmem+0x138>
  402750:	28 00 00 00 00 00 05 10 	lw $5,0($16)
  402758:	42 00 00 00 00 04 13 00 	addu $4,$0,$19
  402760:	02 00 00 00 64 ba 10 00 	jal 42e990 <strcmp>
  402768:	05 00 00 00 e8 ff 00 02 	beq $2,$0,402710 <ckmem+0xc0>
  402770:	43 00 00 00 0c 00 10 10 	addiu $16,$16,12
  402778:	28 00 00 00 00 00 02 10 	lw $2,0($16)
  402780:	06 00 00 00 f2 ff 00 02 	bne $2,$0,402750 <ckmem+0x100>
  402788:	42 00 00 00 00 04 00 00 	addu $4,$0,$0
  402790:	05 00 00 00 b8 00 00 04 	beq $4,$0,402a78 <ckmem+0x428>
  402798:	06 00 00 00 08 00 00 15 	bne $21,$0,4027c0 <ckmem+0x170>
  4027a0:	28 00 00 00 04 00 02 04 	lw $2,4($4)
  4027a8:	57 00 00 00 06 02 02 00 	srl $2,$2,0x6
  4027b0:	4f 00 00 00 20 00 02 02 	andi $2,$2,32
  4027b8:	05 00 00 00 ae 00 00 02 	beq $2,$0,402a78 <ckmem+0x428>
  4027c0:	43 00 00 00 01 00 02 00 	addiu $2,$0,1
  4027c8:	05 00 00 00 34 00 02 12 	beq $18,$2,4028a0 <ckmem+0x250>
  4027d0:	5c 00 00 00 02 00 02 12 	slti $2,$18,2
  4027d8:	05 00 00 00 04 00 00 02 	beq $2,$0,4027f0 <ckmem+0x1a0>
  4027e0:	05 00 00 00 0c 00 00 12 	beq $18,$0,402818 <ckmem+0x1c8>
  4027e8:	01 00 00 00 a2 0a 10 00 	j 402a88 <ckmem+0x438>
  4027f0:	43 00 00 00 02 00 02 00 	addiu $2,$0,2
  4027f8:	05 00 00 00 56 00 02 12 	beq $18,$2,402958 <ckmem+0x308>
  402800:	43 00 00 00 03 00 02 00 	addiu $2,$0,3
  402808:	05 00 00 00 60 00 02 12 	beq $18,$2,402990 <ckmem+0x340>
  402810:	01 00 00 00 a2 0a 10 00 	j 402a88 <ckmem+0x438>
  402818:	28 00 00 00 04 00 03 04 	lw $3,4($4)
  402820:	57 00 00 00 06 02 03 00 	srl $2,$3,0x6
  402828:	4f 00 00 00 01 00 02 02 	andi $2,$2,1
  402830:	05 00 00 00 90 00 00 02 	beq $2,$0,402a78 <ckmem+0x428>
  402838:	05 00 00 00 06 00 00 15 	beq $21,$0,402858 <ckmem+0x208>
  402840:	57 00 00 00 0c 11 03 00 	srl $17,$3,0xc
  402848:	4f 00 00 00 ff 07 11 11 	andi $17,$17,2047
  402850:	01 00 00 00 18 0a 10 00 	j 402860 <ckmem+0x210>
  402858:	4f 00 00 00 3f 00 11 03 	andi $17,$3,63
  402860:	4f 00 00 00 60 00 03 11 	andi $3,$17,96
  402868:	43 00 00 00 60 00 02 00 	addiu $2,$0,96
  402870:	05 00 00 00 06 00 02 03 	beq $3,$2,402890 <ckmem+0x240>
  402878:	4f 00 00 00 03 00 03 11 	andi $3,$17,3
  402880:	43 00 00 00 03 00 02 00 	addiu $2,$0,3
  402888:	06 00 00 00 7e 00 02 03 	bne $3,$2,402a88 <ckmem+0x438>
  402890:	4f 00 00 00 08 00 11 11 	andi $17,$17,8
  402898:	01 00 00 00 a2 0a 10 00 	j 402a88 <ckmem+0x438>
  4028a0:	28 00 00 00 04 00 03 04 	lw $3,4($4)
  4028a8:	57 00 00 00 06 05 03 00 	srl $5,$3,0x6
  4028b0:	4f 00 00 00 02 00 02 05 	andi $2,$5,2
  4028b8:	06 00 00 00 2e 00 00 02 	bne $2,$0,402978 <ckmem+0x328>
  4028c0:	4f 00 00 00 10 00 02 05 	andi $2,$5,16
  4028c8:	05 00 00 00 6a 00 00 02 	beq $2,$0,402a78 <ckmem+0x428>
  4028d0:	05 00 00 00 10 00 00 15 	beq $21,$0,402918 <ckmem+0x2c8>
  4028d8:	28 00 00 00 00 00 02 14 	lw $2,0($20)
  4028e0:	43 00 00 00 ff cf 03 00 	addiu $3,$0,-12289
  4028e8:	4e 00 00 00 00 02 03 02 	and $2,$2,$3
  4028f0:	34 00 00 00 00 00 02 14 	sw $2,0($20)
  4028f8:	28 00 00 00 04 00 02 04 	lw $2,4($4)
  402900:	57 00 00 00 0c 11 02 00 	srl $17,$2,0xc
  402908:	4f 00 00 00 ff 07 11 11 	andi $17,$17,2047
  402910:	01 00 00 00 a2 0a 10 00 	j 402a88 <ckmem+0x438>
  402918:	28 00 00 00 00 00 02 14 	lw $2,0($20)
  402920:	a2 00 00 00 ff cf 03 00 	lui $3,53247
  402928:	51 00 00 00 ff ff 03 03 	ori $3,$3,65535
  402930:	4e 00 00 00 00 02 03 02 	and $2,$2,$3
  402938:	34 00 00 00 00 00 02 14 	sw $2,0($20)
  402940:	28 00 00 00 04 00 02 04 	lw $2,4($4)
  402948:	4f 00 00 00 3f 00 11 02 	andi $17,$2,63
  402950:	01 00 00 00 a2 0a 10 00 	j 402a88 <ckmem+0x438>
  402958:	28 00 00 00 04 00 03 04 	lw $3,4($4)
  402960:	57 00 00 00 06 02 03 00 	srl $2,$3,0x6
  402968:	4f 00 00 00 04 00 02 02 	andi $2,$2,4
  402970:	05 00 00 00 40 00 00 02 	beq $2,$0,402a78 <ckmem+0x428>
  402978:	06 00 00 00 12 00 00 15 	bne $21,$0,4029c8 <ckmem+0x378>
  402980:	4f 00 00 00 3f 00 11 03 	andi $17,$3,63
  402988:	01 00 00 00 a2 0a 10 00 	j 402a88 <ckmem+0x438>
  402990:	28 00 00 00 04 00 03 04 	lw $3,4($4)
  402998:	57 00 00 00 06 02 03 00 	srl $2,$3,0x6
  4029a0:	4f 00 00 00 08 00 02 02 	andi $2,$2,8
  4029a8:	05 00 00 00 32 00 00 02 	beq $2,$0,402a78 <ckmem+0x428>
  4029b0:	05 00 00 00 0e 00 00 15 	beq $21,$0,4029f0 <ckmem+0x3a0>
  4029b8:	28 00 00 00 d0 8e 02 1c 	lw $2,-28976($28)
  4029c0:	05 00 00 00 0a 00 00 02 	beq $2,$0,4029f0 <ckmem+0x3a0>
  4029c8:	57 00 00 00 0c 11 03 00 	srl $17,$3,0xc
  4029d0:	4f 00 00 00 ff 07 11 11 	andi $17,$17,2047
  4029d8:	01 00 00 00 a2 0a 10 00 	j 402a88 <ckmem+0x438>
  4029e0:	42 00 00 00 00 04 10 00 	addu $4,$0,$16
  4029e8:	01 00 00 00 94 0a 10 00 	j 402a50 <ckmem+0x400>
  4029f0:	a2 00 00 00 00 10 10 00 	lui $16,4096
  4029f8:	43 00 00 00 68 58 10 10 	addiu $16,$16,22632
  402a00:	28 00 00 00 00 00 02 10 	lw $2,0($16)
  402a08:	05 00 00 00 0e 00 00 02 	beq $2,$0,402a48 <ckmem+0x3f8>
  402a10:	28 00 00 00 00 00 05 10 	lw $5,0($16)
  402a18:	43 00 00 00 24 80 04 1c 	addiu $4,$28,-32732
  402a20:	02 00 00 00 64 ba 10 00 	jal 42e990 <strcmp>
  402a28:	05 00 00 00 ec ff 00 02 	beq $2,$0,4029e0 <ckmem+0x390>
  402a30:	43 00 00 00 0c 00 10 10 	addiu $16,$16,12
  402a38:	28 00 00 00 00 00 02 10 	lw $2,0($16)
  402a40:	06 00 00 00 f2 ff 00 02 	bne $2,$0,402a10 <ckmem+0x3c0>
  402a48:	42 00 00 00 00 04 00 00 	addu $4,$0,$0
  402a50:	05 00 00 00 08 00 00 04 	beq $4,$0,402a78 <ckmem+0x428>
  402a58:	34 00 00 00 e0 8e 00 1c 	sw $0,-28960($28)
  402a60:	42 00 00 00 00 05 14 00 	addu $5,$0,$20
  402a68:	02 00 00 00 fa 06 10 00 	jal 401be8 <integer>
  402a70:	01 00 00 00 ca 0a 10 00 	j 402b28 <ckmem+0x4d8>
  402a78:	43 00 00 00 ff ff 02 00 	addiu $2,$0,-1
  402a80:	01 00 00 00 ca 0a 10 00 	j 402b28 <ckmem+0x4d8>
  402a88:	05 00 00 00 12 00 00 15 	beq $21,$0,402ad8 <ckmem+0x488>
  402a90:	28 00 00 00 00 00 02 14 	lw $2,0($20)
  402a98:	a2 00 00 00 ff ff 03 00 	lui $3,65535
  402aa0:	51 00 00 00 1f 00 03 03 	ori $3,$3,31
  402aa8:	4e 00 00 00 00 03 03 02 	and $3,$2,$3
  402ab0:	57 00 00 00 05 02 02 00 	srl $2,$2,0x5
  402ab8:	50 00 00 00 00 02 02 11 	or $2,$17,$2
  402ac0:	4f 00 00 00 ff 07 02 02 	andi $2,$2,2047
  402ac8:	55 00 00 00 05 02 02 00 	sll $2,$2,0x5
  402ad0:	01 00 00 00 c4 0a 10 00 	j 402b10 <ckmem+0x4c0>
  402ad8:	28 00 00 00 00 00 02 14 	lw $2,0($20)
  402ae0:	a2 00 00 00 ff 03 03 00 	lui $3,1023
  402ae8:	51 00 00 00 ff ff 03 03 	ori $3,$3,65535
  402af0:	4e 00 00 00 00 03 03 02 	and $3,$2,$3
  402af8:	57 00 00 00 1a 02 02 00 	srl $2,$2,0x1a
  402b00:	50 00 00 00 00 02 11 02 	or $2,$2,$17
  402b08:	55 00 00 00 1a 02 02 00 	sll $2,$2,0x1a
  402b10:	50 00 00 00 00 03 02 03 	or $3,$3,$2
  402b18:	34 00 00 00 00 00 03 14 	sw $3,0($20)
  402b20:	42 00 00 00 00 02 00 00 	addu $2,$0,$0
  402b28:	28 00 00 00 28 00 1f 1d 	lw $31,40($29)
  402b30:	28 00 00 00 24 00 15 1d 	lw $21,36($29)
  402b38:	28 00 00 00 20 00 14 1d 	lw $20,32($29)
  402b40:	28 00 00 00 1c 00 13 1d 	lw $19,28($29)
  402b48:	28 00 00 00 18 00 12 1d 	lw $18,24($29)
  402b50:	28 00 00 00 14 00 11 1d 	lw $17,20($29)
  402b58:	28 00 00 00 10 00 10 1d 	lw $16,16($29)
  402b60:	43 00 00 00 30 00 1d 1d 	addiu $29,$29,48
  402b68:	03 00 00 00 00 00 00 1f 	jr $31

00402b70 <xfrbci>:
  402b70:	43 00 00 00 e0 ff 1d 1d 	addiu $29,$29,-32
  402b78:	34 00 00 00 14 00 11 1d 	sw $17,20($29)
  402b80:	42 00 00 00 00 11 04 00 	addu $17,$0,$4
  402b88:	34 00 00 00 10 00 10 1d 	sw $16,16($29)
  402b90:	42 00 00 00 00 10 05 00 	addu $16,$0,$5
  402b98:	a2 00 00 00 05 02 04 00 	lui $4,517
  402ba0:	34 00 00 00 18 00 1f 1d 	sw $31,24($29)
  402ba8:	02 00 00 00 3a 0e 10 00 	jal 4038e8 <validreg>
  402bb0:	06 00 00 00 08 00 00 02 	bne $2,$0,402bd8 <xfrbci+0x68>
  402bb8:	a2 00 00 00 04 02 04 00 	lui $4,516
  402bc0:	51 00 00 00 01 00 04 04 	ori $4,$4,1
  402bc8:	02 00 00 00 3a 0e 10 00 	jal 4038e8 <validreg>
  402bd0:	05 00 00 00 04 00 00 02 	beq $2,$0,402be8 <xfrbci+0x78>
  402bd8:	28 00 00 00 d0 8e 02 1c 	lw $2,-28976($28)
  402be0:	05 00 00 00 04 00 00 02 	beq $2,$0,402bf8 <xfrbci+0x88>
  402be8:	43 00 00 00 ff ff 02 00 	addiu $2,$0,-1
  402bf0:	01 00 00 00 58 0b 10 00 	j 402d60 <xfrbci+0x1f0>
  402bf8:	a2 00 00 00 ff 03 04 00 	lui $4,1023
  402c00:	28 00 00 00 00 00 03 10 	lw $3,0($16)
  402c08:	51 00 00 00 ff ff 04 04 	ori $4,$4,65535
  402c10:	28 00 00 00 04 00 02 11 	lw $2,4($17)
  402c18:	4e 00 00 00 00 03 04 03 	and $3,$3,$4
  402c20:	28 00 00 00 e0 8e 04 1c 	lw $4,-28960($28)
  402c28:	55 00 00 00 1a 02 02 00 	sll $2,$2,0x1a
  402c30:	50 00 00 00 00 03 02 03 	or $3,$3,$2
  402c38:	34 00 00 00 00 00 03 10 	sw $3,0($16)
  402c40:	05 00 00 00 12 00 00 04 	beq $4,$0,402c90 <xfrbci+0x120>
  402c48:	a2 00 00 00 00 10 04 00 	lui $4,4096
  402c50:	28 00 00 00 ec 5f 04 04 	lw $4,24556($4)
  402c58:	43 00 00 00 2c 80 05 1c 	addiu $5,$28,-32724
  402c60:	02 00 00 00 64 ba 10 00 	jal 42e990 <strcmp>
  402c68:	06 00 00 00 08 00 00 02 	bne $2,$0,402c90 <xfrbci+0x120>
  402c70:	28 00 00 00 00 00 02 10 	lw $2,0($16)
  402c78:	a2 00 00 00 00 04 03 00 	lui $3,1024
  402c80:	50 00 00 00 00 02 03 02 	or $2,$2,$3
  402c88:	34 00 00 00 00 00 02 10 	sw $2,0($16)
  402c90:	a2 00 00 00 1f fc 04 00 	lui $4,64543
  402c98:	51 00 00 00 ff ff 04 04 	ori $4,$4,65535
  402ca0:	28 00 00 00 00 00 03 10 	lw $3,0($16)
  402ca8:	a2 00 00 00 00 10 02 00 	lui $2,4096
  402cb0:	28 00 00 00 0c 58 02 02 	lw $2,22540($2)
  402cb8:	a2 00 00 00 e0 ff 05 00 	lui $5,65504
  402cc0:	51 00 00 00 ff ff 05 05 	ori $5,$5,65535
  402cc8:	4e 00 00 00 00 03 04 03 	and $3,$3,$4
  402cd0:	4f 00 00 00 1f 00 02 02 	andi $2,$2,31
  402cd8:	55 00 00 00 15 02 02 00 	sll $2,$2,0x15
  402ce0:	50 00 00 00 00 03 02 03 	or $3,$3,$2
  402ce8:	34 00 00 00 00 00 03 10 	sw $3,0($16)
  402cf0:	a2 00 00 00 00 10 02 00 	lui $2,4096
  402cf8:	28 00 00 00 10 58 02 02 	lw $2,22544($2)
  402d00:	4e 00 00 00 00 03 05 03 	and $3,$3,$5
  402d08:	28 00 00 00 d8 8e 04 1c 	lw $4,-28968($28)
  402d10:	4f 00 00 00 1f 00 02 02 	andi $2,$2,31
  402d18:	55 00 00 00 10 02 02 00 	sll $2,$2,0x10
  402d20:	50 00 00 00 00 03 02 03 	or $3,$3,$2
  402d28:	34 00 00 00 00 00 03 10 	sw $3,0($16)
  402d30:	a2 00 00 00 00 10 03 00 	lui $3,4096
  402d38:	28 00 00 00 14 58 03 03 	lw $3,22548($3)
  402d40:	42 00 00 00 00 02 00 00 	addu $2,$0,$0
  402d48:	45 00 00 00 00 03 04 03 	subu $3,$3,$4
  402d50:	57 00 00 00 02 03 03 00 	srl $3,$3,0x2
  402d58:	32 00 00 00 00 00 03 10 	sh $3,0($16)
  402d60:	28 00 00 00 18 00 1f 1d 	lw $31,24($29)
  402d68:	28 00 00 00 14 00 11 1d 	lw $17,20($29)
  402d70:	28 00 00 00 10 00 10 1d 	lw $16,16($29)
  402d78:	43 00 00 00 20 00 1d 1d 	addiu $29,$29,32
  402d80:	03 00 00 00 00 00 00 1f 	jr $31

00402d88 <logical>:
  402d88:	43 00 00 00 e0 ff 1d 1d 	addiu $29,$29,-32
  402d90:	34 00 00 00 14 00 11 1d 	sw $17,20($29)
  402d98:	42 00 00 00 00 11 04 00 	addu $17,$0,$4
  402da0:	34 00 00 00 10 00 10 1d 	sw $16,16($29)
  402da8:	42 00 00 00 00 10 05 00 	addu $16,$0,$5
  402db0:	a2 00 00 00 1f fc 04 00 	lui $4,64543
  402db8:	51 00 00 00 ff ff 04 04 	ori $4,$4,65535
  402dc0:	a2 00 00 00 e0 ff 05 00 	lui $5,65504
  402dc8:	34 00 00 00 18 00 1f 1d 	sw $31,24($29)
  402dd0:	28 00 00 00 00 00 03 10 	lw $3,0($16)
  402dd8:	a2 00 00 00 00 10 02 00 	lui $2,4096
  402de0:	28 00 00 00 0c 58 02 02 	lw $2,22540($2)
  402de8:	51 00 00 00 ff ff 05 05 	ori $5,$5,65535
  402df0:	4e 00 00 00 00 03 04 03 	and $3,$3,$4
  402df8:	4f 00 00 00 1f 00 02 02 	andi $2,$2,31
  402e00:	55 00 00 00 15 02 02 00 	sll $2,$2,0x15
  402e08:	50 00 00 00 00 03 02 03 	or $3,$3,$2
  402e10:	34 00 00 00 00 00 03 10 	sw $3,0($16)
  402e18:	a2 00 00 00 00 10 02 00 	lui $2,4096
  402e20:	28 00 00 00 10 58 02 02 	lw $2,22544($2)
  402e28:	a2 00 00 00 00 07 04 00 	lui $4,1792
  402e30:	4e 00 00 00 00 03 05 03 	and $3,$3,$5
  402e38:	4f 00 00 00 1f 00 02 02 	andi $2,$2,31
  402e40:	55 00 00 00 10 02 02 00 	sll $2,$2,0x10
  402e48:	50 00 00 00 00 03 02 03 	or $3,$3,$2
  402e50:	34 00 00 00 00 00 03 10 	sw $3,0($16)
  402e58:	02 00 00 00 3a 0e 10 00 	jal 4038e8 <validreg>
  402e60:	05 00 00 00 04 00 00 02 	beq $2,$0,402e78 <logical+0xf0>
  402e68:	28 00 00 00 d0 8e 02 1c 	lw $2,-28976($28)
  402e70:	05 00 00 00 38 00 00 02 	beq $2,$0,402f58 <logical+0x1d0>
  402e78:	a2 00 00 00 04 03 04 00 	lui $4,772
  402e80:	02 00 00 00 3a 0e 10 00 	jal 4038e8 <validreg>
  402e88:	05 00 00 00 54 00 00 02 	beq $2,$0,402fe0 <logical+0x258>
  402e90:	28 00 00 00 d0 8e 02 1c 	lw $2,-28976($28)
  402e98:	06 00 00 00 50 00 00 02 	bne $2,$0,402fe0 <logical+0x258>
  402ea0:	a2 00 00 00 ff 03 04 00 	lui $4,1023
  402ea8:	28 00 00 00 00 00 03 10 	lw $3,0($16)
  402eb0:	51 00 00 00 ff ff 04 04 	ori $4,$4,65535
  402eb8:	28 00 00 00 04 00 02 11 	lw $2,4($17)
  402ec0:	4e 00 00 00 00 03 04 03 	and $3,$3,$4
  402ec8:	28 00 00 00 e0 8e 04 1c 	lw $4,-28960($28)
  402ed0:	55 00 00 00 1a 02 02 00 	sll $2,$2,0x1a
  402ed8:	50 00 00 00 00 03 02 03 	or $3,$3,$2
  402ee0:	34 00 00 00 00 00 03 10 	sw $3,0($16)
  402ee8:	05 00 00 00 12 00 00 04 	beq $4,$0,402f38 <logical+0x1b0>
  402ef0:	a2 00 00 00 00 10 04 00 	lui $4,4096
  402ef8:	28 00 00 00 ec 5f 04 04 	lw $4,24556($4)
  402f00:	43 00 00 00 30 80 05 1c 	addiu $5,$28,-32720
  402f08:	02 00 00 00 64 ba 10 00 	jal 42e990 <strcmp>
  402f10:	06 00 00 00 08 00 00 02 	bne $2,$0,402f38 <logical+0x1b0>
  402f18:	28 00 00 00 00 00 02 10 	lw $2,0($16)
  402f20:	a2 00 00 00 00 04 03 00 	lui $3,1024
  402f28:	50 00 00 00 00 02 03 02 	or $2,$2,$3
  402f30:	34 00 00 00 00 00 02 10 	sw $2,0($16)
  402f38:	a2 00 00 00 00 10 02 00 	lui $2,4096
  402f40:	26 00 00 00 14 58 02 02 	lhu $2,22548($2)
  402f48:	32 00 00 00 00 00 02 10 	sh $2,0($16)
  402f50:	01 00 00 00 20 0c 10 00 	j 403080 <logical+0x2f8>
  402f58:	a2 00 00 00 ff 03 03 00 	lui $3,1023
  402f60:	28 00 00 00 00 00 02 10 	lw $2,0($16)
  402f68:	51 00 00 00 ff ff 03 03 	ori $3,$3,65535
  402f70:	a2 00 00 00 ff ff 05 00 	lui $5,65535
  402f78:	4e 00 00 00 00 02 03 02 	and $2,$2,$3
  402f80:	a2 00 00 00 00 f4 03 00 	lui $3,62464
  402f88:	50 00 00 00 00 02 03 02 	or $2,$2,$3
  402f90:	34 00 00 00 00 00 02 10 	sw $2,0($16)
  402f98:	28 00 00 00 04 00 04 11 	lw $4,4($17)
  402fa0:	51 00 00 00 1f 00 05 05 	ori $5,$5,31
  402fa8:	4e 00 00 00 00 02 05 02 	and $2,$2,$5
  402fb0:	57 00 00 00 0c 04 04 00 	srl $4,$4,0xc
  402fb8:	4f 00 00 00 ff 07 04 04 	andi $4,$4,2047
  402fc0:	55 00 00 00 05 03 04 00 	sll $3,$4,0x5
  402fc8:	50 00 00 00 00 02 03 02 	or $2,$2,$3
  402fd0:	34 00 00 00 00 00 02 10 	sw $2,0($16)
  402fd8:	06 00 00 00 04 00 00 04 	bne $4,$0,402ff0 <logical+0x268>
  402fe0:	43 00 00 00 ff ff 02 00 	addiu $2,$0,-1
  402fe8:	01 00 00 00 22 0c 10 00 	j 403088 <logical+0x300>
  402ff0:	28 00 00 00 e0 8e 02 1c 	lw $2,-28960($28)
  402ff8:	05 00 00 00 10 00 00 02 	beq $2,$0,403040 <logical+0x2b8>
  403000:	a2 00 00 00 00 10 04 00 	lui $4,4096
  403008:	28 00 00 00 ec 5f 04 04 	lw $4,24556($4)
  403010:	43 00 00 00 34 80 05 1c 	addiu $5,$28,-32716
  403018:	02 00 00 00 64 ba 10 00 	jal 42e990 <strcmp>
  403020:	06 00 00 00 06 00 00 02 	bne $2,$0,403040 <logical+0x2b8>
  403028:	28 00 00 00 00 00 02 10 	lw $2,0($16)
  403030:	51 00 00 00 00 04 02 02 	ori $2,$2,1024
  403038:	34 00 00 00 00 00 02 10 	sw $2,0($16)
  403040:	28 00 00 00 00 00 02 10 	lw $2,0($16)
  403048:	a2 00 00 00 00 10 03 00 	lui $3,4096
  403050:	28 00 00 00 14 58 03 03 	lw $3,22548($3)
  403058:	43 00 00 00 e0 ff 04 00 	addiu $4,$0,-32
  403060:	4e 00 00 00 00 02 04 02 	and $2,$2,$4
  403068:	4f 00 00 00 1f 00 03 03 	andi $3,$3,31
  403070:	50 00 00 00 00 02 03 02 	or $2,$2,$3
  403078:	34 00 00 00 00 00 02 10 	sw $2,0($16)
  403080:	42 00 00 00 00 02 00 00 	addu $2,$0,$0
  403088:	28 00 00 00 18 00 1f 1d 	lw $31,24($29)
  403090:	28 00 00 00 14 00 11 1d 	lw $17,20($29)
  403098:	28 00 00 00 10 00 10 1d 	lw $16,16($29)
  4030a0:	43 00 00 00 20 00 1d 1d 	addiu $29,$29,32
  4030a8:	03 00 00 00 00 00 00 1f 	jr $31

004030b0 <xfrri>:
  4030b0:	43 00 00 00 e0 ff 1d 1d 	addiu $29,$29,-32
  4030b8:	34 00 00 00 14 00 11 1d 	sw $17,20($29)
  4030c0:	42 00 00 00 00 11 04 00 	addu $17,$0,$4
  4030c8:	34 00 00 00 10 00 10 1d 	sw $16,16($29)
  4030d0:	42 00 00 00 00 10 05 00 	addu $16,$0,$5
  4030d8:	a2 00 00 00 01 00 04 00 	lui $4,1
  4030e0:	34 00 00 00 18 00 1f 1d 	sw $31,24($29)
  4030e8:	02 00 00 00 3a 0e 10 00 	jal 4038e8 <validreg>
  4030f0:	05 00 00 00 04 00 00 02 	beq $2,$0,403108 <xfrri+0x58>
  4030f8:	28 00 00 00 d0 8e 02 1c 	lw $2,-28976($28)
  403100:	05 00 00 00 04 00 00 02 	beq $2,$0,403118 <xfrri+0x68>
  403108:	43 00 00 00 ff ff 02 00 	addiu $2,$0,-1
  403110:	01 00 00 00 84 0c 10 00 	j 403210 <xfrri+0x160>
  403118:	a2 00 00 00 ff 03 04 00 	lui $4,1023
  403120:	28 00 00 00 00 00 03 10 	lw $3,0($16)
  403128:	51 00 00 00 ff ff 04 04 	ori $4,$4,65535
  403130:	28 00 00 00 04 00 02 11 	lw $2,4($17)
  403138:	4e 00 00 00 00 03 04 03 	and $3,$3,$4
  403140:	28 00 00 00 e0 8e 04 1c 	lw $4,-28960($28)
  403148:	55 00 00 00 1a 02 02 00 	sll $2,$2,0x1a
  403150:	50 00 00 00 00 03 02 03 	or $3,$3,$2
  403158:	34 00 00 00 00 00 03 10 	sw $3,0($16)
  403160:	05 00 00 00 12 00 00 04 	beq $4,$0,4031b0 <xfrri+0x100>
  403168:	a2 00 00 00 00 10 04 00 	lui $4,4096
  403170:	28 00 00 00 ec 5f 04 04 	lw $4,24556($4)
  403178:	43 00 00 00 2c 80 05 1c 	addiu $5,$28,-32724
  403180:	02 00 00 00 64 ba 10 00 	jal 42e990 <strcmp>
  403188:	06 00 00 00 08 00 00 02 	bne $2,$0,4031b0 <xfrri+0x100>
  403190:	28 00 00 00 00 00 02 10 	lw $2,0($16)
  403198:	a2 00 00 00 00 04 03 00 	lui $3,1024
  4031a0:	50 00 00 00 00 02 03 02 	or $2,$2,$3
  4031a8:	34 00 00 00 00 00 02 10 	sw $2,0($16)
  4031b0:	42 00 00 00 00 02 00 00 	addu $2,$0,$0
  4031b8:	a2 00 00 00 00 10 03 00 	lui $3,4096
  4031c0:	28 00 00 00 0c 58 03 03 	lw $3,22540($3)
  4031c8:	28 00 00 00 00 00 05 10 	lw $5,0($16)
  4031d0:	28 00 00 00 d8 8e 06 1c 	lw $6,-28968($28)
  4031d8:	a2 00 00 00 00 fc 04 00 	lui $4,64512
  4031e0:	4e 00 00 00 00 05 04 05 	and $5,$5,$4
  4031e8:	45 00 00 00 00 03 06 03 	subu $3,$3,$6
  4031f0:	55 00 00 00 04 03 03 00 	sll $3,$3,0x4
  4031f8:	57 00 00 00 06 03 03 00 	srl $3,$3,0x6
  403200:	50 00 00 00 00 05 03 05 	or $5,$5,$3
  403208:	34 00 00 00 00 00 05 10 	sw $5,0($16)
  403210:	28 00 00 00 18 00 1f 1d 	lw $31,24($29)
  403218:	28 00 00 00 14 00 11 1d 	lw $17,20($29)
  403220:	28 00 00 00 10 00 10 1d 	lw $16,16($29)
  403228:	43 00 00 00 20 00 1d 1d 	addiu $29,$29,32
  403230:	03 00 00 00 00 00 00 1f 	jr $31

00403238 <ffirst>:
  403238:	28 00 00 00 e0 8e 02 1c 	lw $2,-28960($28)
  403240:	43 00 00 00 e0 ff 1d 1d 	addiu $29,$29,-32
  403248:	34 00 00 00 14 00 11 1d 	sw $17,20($29)
  403250:	42 00 00 00 00 11 04 00 	addu $17,$0,$4
  403258:	34 00 00 00 10 00 10 1d 	sw $16,16($29)
  403260:	42 00 00 00 00 10 05 00 	addu $16,$0,$5
  403268:	34 00 00 00 18 00 1f 1d 	sw $31,24($29)
  403270:	06 00 00 00 4c 00 00 02 	bne $2,$0,4033a8 <ffirst+0x170>
  403278:	28 00 00 00 d0 8e 02 1c 	lw $2,-28976($28)
  403280:	06 00 00 00 48 00 00 02 	bne $2,$0,4033a8 <ffirst+0x170>
  403288:	a2 00 00 00 00 03 04 00 	lui $4,768
  403290:	02 00 00 00 3a 0e 10 00 	jal 4038e8 <validreg>
  403298:	05 00 00 00 42 00 00 02 	beq $2,$0,4033a8 <ffirst+0x170>
  4032a0:	a2 00 00 00 ff 03 02 00 	lui $2,1023
  4032a8:	51 00 00 00 ff ff 02 02 	ori $2,$2,65535
  4032b0:	a2 00 00 00 1f fc 04 00 	lui $4,64543
  4032b8:	28 00 00 00 00 00 03 10 	lw $3,0($16)
  4032c0:	51 00 00 00 ff ff 04 04 	ori $4,$4,65535
  4032c8:	a2 00 00 00 ff ff 05 00 	lui $5,65535
  4032d0:	4e 00 00 00 00 03 02 03 	and $3,$3,$2
  4032d8:	a2 00 00 00 00 f4 02 00 	lui $2,62464
  4032e0:	50 00 00 00 00 03 02 03 	or $3,$3,$2
  4032e8:	34 00 00 00 00 00 03 10 	sw $3,0($16)
  4032f0:	a2 00 00 00 00 10 02 00 	lui $2,4096
  4032f8:	28 00 00 00 0c 58 02 02 	lw $2,22540($2)
  403300:	51 00 00 00 1f 00 05 05 	ori $5,$5,31
  403308:	4e 00 00 00 00 03 04 03 	and $3,$3,$4
  403310:	4f 00 00 00 1f 00 02 02 	andi $2,$2,31
  403318:	55 00 00 00 15 02 02 00 	sll $2,$2,0x15
  403320:	50 00 00 00 00 03 02 03 	or $3,$3,$2
  403328:	34 00 00 00 00 00 03 10 	sw $3,0($16)
  403330:	28 00 00 00 04 00 04 11 	lw $4,4($17)
  403338:	42 00 00 00 00 02 00 00 	addu $2,$0,$0
  403340:	4e 00 00 00 00 03 05 03 	and $3,$3,$5
  403348:	57 00 00 00 07 04 04 00 	srl $4,$4,0x7
  403350:	4f 00 00 00 e0 ff 04 04 	andi $4,$4,65504
  403358:	50 00 00 00 00 03 04 03 	or $3,$3,$4
  403360:	34 00 00 00 00 00 03 10 	sw $3,0($16)
  403368:	a2 00 00 00 00 10 04 00 	lui $4,4096
  403370:	28 00 00 00 10 58 04 04 	lw $4,22544($4)
  403378:	43 00 00 00 e0 ff 05 00 	addiu $5,$0,-32
  403380:	4e 00 00 00 00 03 05 03 	and $3,$3,$5
  403388:	4f 00 00 00 1f 00 04 04 	andi $4,$4,31
  403390:	50 00 00 00 00 03 04 03 	or $3,$3,$4
  403398:	34 00 00 00 00 00 03 10 	sw $3,0($16)
  4033a0:	01 00 00 00 ec 0c 10 00 	j 4033b0 <ffirst+0x178>
  4033a8:	43 00 00 00 ff ff 02 00 	addiu $2,$0,-1
  4033b0:	28 00 00 00 18 00 1f 1d 	lw $31,24($29)
  4033b8:	28 00 00 00 14 00 11 1d 	lw $17,20($29)
  4033c0:	28 00 00 00 10 00 10 1d 	lw $16,16($29)
  4033c8:	43 00 00 00 20 00 1d 1d 	addiu $29,$29,32
  4033d0:	03 00 00 00 00 00 00 1f 	jr $31

004033d8 <rte>:
  4033d8:	43 00 00 00 e8 ff 1d 1d 	addiu $29,$29,-24
  4033e0:	34 00 00 00 10 00 10 1d 	sw $16,16($29)
  4033e8:	42 00 00 00 00 10 05 00 	addu $16,$0,$5
  4033f0:	42 00 00 00 00 04 00 00 	addu $4,$0,$0
  4033f8:	34 00 00 00 14 00 1f 1d 	sw $31,20($29)
  403400:	02 00 00 00 3a 0e 10 00 	jal 4038e8 <validreg>
  403408:	05 00 00 00 0a 00 00 02 	beq $2,$0,403438 <rte+0x60>
  403410:	a2 00 00 00 00 f4 02 00 	lui $2,62464
  403418:	51 00 00 00 00 fc 02 02 	ori $2,$2,64512
  403420:	34 00 00 00 00 00 02 10 	sw $2,0($16)
  403428:	42 00 00 00 00 02 00 00 	addu $2,$0,$0
  403430:	01 00 00 00 10 0d 10 00 	j 403440 <rte+0x68>
  403438:	43 00 00 00 ff ff 02 00 	addiu $2,$0,-1
  403440:	28 00 00 00 14 00 1f 1d 	lw $31,20($29)
  403448:	28 00 00 00 10 00 10 1d 	lw $16,16($29)
  403450:	43 00 00 00 18 00 1d 1d 	addiu $29,$29,24
  403458:	03 00 00 00 00 00 00 1f 	jr $31

00403460 <xfra>:
  403460:	43 00 00 00 e0 ff 1d 1d 	addiu $29,$29,-32
  403468:	34 00 00 00 14 00 11 1d 	sw $17,20($29)
  403470:	42 00 00 00 00 11 04 00 	addu $17,$0,$4
  403478:	34 00 00 00 10 00 10 1d 	sw $16,16($29)
  403480:	42 00 00 00 00 10 05 00 	addu $16,$0,$5
  403488:	a2 00 00 00 00 01 04 00 	lui $4,256
  403490:	34 00 00 00 18 00 1f 1d 	sw $31,24($29)
  403498:	02 00 00 00 3a 0e 10 00 	jal 4038e8 <validreg>
  4034a0:	05 00 00 00 04 00 00 02 	beq $2,$0,4034b8 <xfra+0x58>
  4034a8:	28 00 00 00 d0 8e 02 1c 	lw $2,-28976($28)
  4034b0:	05 00 00 00 04 00 00 02 	beq $2,$0,4034c8 <xfra+0x68>
  4034b8:	43 00 00 00 ff ff 02 00 	addiu $2,$0,-1
  4034c0:	01 00 00 00 76 0d 10 00 	j 4035d8 <xfra+0x178>
  4034c8:	a2 00 00 00 ff 03 03 00 	lui $3,1023
  4034d0:	28 00 00 00 00 00 02 10 	lw $2,0($16)
  4034d8:	51 00 00 00 ff ff 03 03 	ori $3,$3,65535
  4034e0:	a2 00 00 00 ff ff 04 00 	lui $4,65535
  4034e8:	51 00 00 00 1f 00 04 04 	ori $4,$4,31
  4034f0:	4e 00 00 00 00 02 03 02 	and $2,$2,$3
  4034f8:	a2 00 00 00 00 f4 03 00 	lui $3,62464
  403500:	50 00 00 00 00 02 03 02 	or $2,$2,$3
  403508:	34 00 00 00 00 00 02 10 	sw $2,0($16)
  403510:	28 00 00 00 04 00 03 11 	lw $3,4($17)
  403518:	4e 00 00 00 00 02 04 02 	and $2,$2,$4
  403520:	28 00 00 00 e0 8e 04 1c 	lw $4,-28960($28)
  403528:	57 00 00 00 07 03 03 00 	srl $3,$3,0x7
  403530:	4f 00 00 00 e0 ff 03 03 	andi $3,$3,65504
  403538:	50 00 00 00 00 02 03 02 	or $2,$2,$3
  403540:	34 00 00 00 00 00 02 10 	sw $2,0($16)
  403548:	05 00 00 00 10 00 00 04 	beq $4,$0,403590 <xfra+0x130>
  403550:	a2 00 00 00 00 10 04 00 	lui $4,4096
  403558:	28 00 00 00 ec 5f 04 04 	lw $4,24556($4)
  403560:	43 00 00 00 2c 80 05 1c 	addiu $5,$28,-32724
  403568:	02 00 00 00 64 ba 10 00 	jal 42e990 <strcmp>
  403570:	06 00 00 00 06 00 00 02 	bne $2,$0,403590 <xfra+0x130>
  403578:	28 00 00 00 00 00 02 10 	lw $2,0($16)
  403580:	51 00 00 00 00 04 02 02 	ori $2,$2,1024
  403588:	34 00 00 00 00 00 02 10 	sw $2,0($16)
  403590:	42 00 00 00 00 02 00 00 	addu $2,$0,$0
  403598:	28 00 00 00 00 00 03 10 	lw $3,0($16)
  4035a0:	a2 00 00 00 00 10 04 00 	lui $4,4096
  4035a8:	28 00 00 00 0c 58 04 04 	lw $4,22540($4)
  4035b0:	43 00 00 00 e0 ff 05 00 	addiu $5,$0,-32
  4035b8:	4e 00 00 00 00 03 05 03 	and $3,$3,$5
  4035c0:	4f 00 00 00 1f 00 04 04 	andi $4,$4,31
  4035c8:	50 00 00 00 00 03 04 03 	or $3,$3,$4
  4035d0:	34 00 00 00 00 00 03 10 	sw $3,0($16)
  4035d8:	28 00 00 00 18 00 1f 1d 	lw $31,24($29)
  4035e0:	28 00 00 00 14 00 11 1d 	lw $17,20($29)
  4035e8:	28 00 00 00 10 00 10 1d 	lw $16,16($29)
  4035f0:	43 00 00 00 20 00 1d 1d 	addiu $29,$29,32
  4035f8:	03 00 00 00 00 00 00 1f 	jr $31

00403600 <bits>:
  403600:	28 00 00 00 e0 8e 02 1c 	lw $2,-28960($28)
  403608:	43 00 00 00 e0 ff 1d 1d 	addiu $29,$29,-32
  403610:	34 00 00 00 14 00 11 1d 	sw $17,20($29)
  403618:	42 00 00 00 00 11 04 00 	addu $17,$0,$4
  403620:	34 00 00 00 10 00 10 1d 	sw $16,16($29)
  403628:	42 00 00 00 00 10 05 00 	addu $16,$0,$5
  403630:	34 00 00 00 18 00 1f 1d 	sw $31,24($29)
  403638:	06 00 00 00 36 00 00 02 	bne $2,$0,403718 <bits+0x118>
  403640:	28 00 00 00 d0 8e 02 1c 	lw $2,-28976($28)
  403648:	06 00 00 00 32 00 00 02 	bne $2,$0,403718 <bits+0x118>
  403650:	a2 00 00 00 1f fc 04 00 	lui $4,64543
  403658:	51 00 00 00 ff ff 04 04 	ori $4,$4,65535
  403660:	a2 00 00 00 e0 ff 05 00 	lui $5,65504
  403668:	28 00 00 00 00 00 03 10 	lw $3,0($16)
  403670:	a2 00 00 00 00 10 02 00 	lui $2,4096
  403678:	28 00 00 00 0c 58 02 02 	lw $2,22540($2)
  403680:	51 00 00 00 ff ff 05 05 	ori $5,$5,65535
  403688:	4e 00 00 00 00 03 04 03 	and $3,$3,$4
  403690:	4f 00 00 00 1f 00 02 02 	andi $2,$2,31
  403698:	55 00 00 00 15 02 02 00 	sll $2,$2,0x15
  4036a0:	50 00 00 00 00 03 02 03 	or $3,$3,$2
  4036a8:	34 00 00 00 00 00 03 10 	sw $3,0($16)
  4036b0:	a2 00 00 00 00 10 02 00 	lui $2,4096
  4036b8:	28 00 00 00 10 58 02 02 	lw $2,22544($2)
  4036c0:	a2 00 00 00 00 07 04 00 	lui $4,1792
  4036c8:	4e 00 00 00 00 03 05 03 	and $3,$3,$5
  4036d0:	4f 00 00 00 1f 00 02 02 	andi $2,$2,31
  4036d8:	55 00 00 00 10 02 02 00 	sll $2,$2,0x10
  4036e0:	50 00 00 00 00 03 02 03 	or $3,$3,$2
  4036e8:	34 00 00 00 00 00 03 10 	sw $3,0($16)
  4036f0:	02 00 00 00 3a 0e 10 00 	jal 4038e8 <validreg>
  4036f8:	06 00 00 00 42 00 00 02 	bne $2,$0,403808 <bits+0x208>
  403700:	a2 00 00 00 0c 03 04 00 	lui $4,780
  403708:	02 00 00 00 3a 0e 10 00 	jal 4038e8 <validreg>
  403710:	06 00 00 00 04 00 00 02 	bne $2,$0,403728 <bits+0x128>
  403718:	43 00 00 00 ff ff 02 00 	addiu $2,$0,-1
  403720:	01 00 00 00 30 0e 10 00 	j 4038c0 <bits+0x2c0>
  403728:	a2 00 00 00 ff 03 02 00 	lui $2,1023
  403730:	28 00 00 00 00 00 03 10 	lw $3,0($16)
  403738:	51 00 00 00 ff ff 02 02 	ori $2,$2,65535
  403740:	a2 00 00 00 ff ff 04 00 	lui $4,65535
  403748:	51 00 00 00 ff 03 04 04 	ori $4,$4,1023
  403750:	4e 00 00 00 00 03 02 03 	and $3,$3,$2
  403758:	a2 00 00 00 00 f0 02 00 	lui $2,61440
  403760:	50 00 00 00 00 03 02 03 	or $3,$3,$2
  403768:	34 00 00 00 00 00 03 10 	sw $3,0($16)
  403770:	28 00 00 00 04 00 02 11 	lw $2,4($17)
  403778:	4e 00 00 00 00 03 04 03 	and $3,$3,$4
  403780:	43 00 00 00 00 fc 04 00 	addiu $4,$0,-1024
  403788:	55 00 00 00 04 02 02 00 	sll $2,$2,0x4
  403790:	4f 00 00 00 00 fc 02 02 	andi $2,$2,64512
  403798:	50 00 00 00 00 03 02 03 	or $3,$3,$2
  4037a0:	34 00 00 00 00 00 03 10 	sw $3,0($16)
  4037a8:	a2 00 00 00 00 10 02 00 	lui $2,4096
  4037b0:	28 00 00 00 14 58 02 02 	lw $2,22548($2)
  4037b8:	a2 00 00 00 00 10 05 00 	lui $5,4096
  4037c0:	28 00 00 00 18 58 05 05 	lw $5,22552($5)
  4037c8:	4e 00 00 00 00 03 04 03 	and $3,$3,$4
  4037d0:	55 00 00 00 05 02 02 00 	sll $2,$2,0x5
  4037d8:	4f 00 00 00 1f 00 05 05 	andi $5,$5,31
  4037e0:	50 00 00 00 00 02 05 02 	or $2,$2,$5
  4037e8:	4f 00 00 00 ff 03 02 02 	andi $2,$2,1023
  4037f0:	50 00 00 00 00 03 02 03 	or $3,$3,$2
  4037f8:	34 00 00 00 00 00 03 10 	sw $3,0($16)
  403800:	01 00 00 00 2e 0e 10 00 	j 4038b8 <bits+0x2b8>
  403808:	a2 00 00 00 ff 03 03 00 	lui $3,1023
  403810:	28 00 00 00 00 00 02 10 	lw $2,0($16)
  403818:	51 00 00 00 ff ff 03 03 	ori $3,$3,65535
  403820:	a2 00 00 00 ff ff 04 00 	lui $4,65535
  403828:	4e 00 00 00 00 02 03 02 	and $2,$2,$3
  403830:	a2 00 00 00 00 f4 03 00 	lui $3,62464
  403838:	50 00 00 00 00 02 03 02 	or $2,$2,$3
  403840:	34 00 00 00 00 00 02 10 	sw $2,0($16)
  403848:	28 00 00 00 04 00 03 11 	lw $3,4($17)
  403850:	51 00 00 00 1f 00 04 04 	ori $4,$4,31
  403858:	4e 00 00 00 00 02 04 02 	and $2,$2,$4
  403860:	57 00 00 00 07 03 03 00 	srl $3,$3,0x7
  403868:	4f 00 00 00 e0 ff 03 03 	andi $3,$3,65504
  403870:	50 00 00 00 00 02 03 02 	or $2,$2,$3
  403878:	34 00 00 00 00 00 02 10 	sw $2,0($16)
  403880:	a2 00 00 00 00 10 03 00 	lui $3,4096
  403888:	28 00 00 00 14 58 03 03 	lw $3,22548($3)
  403890:	43 00 00 00 e0 ff 04 00 	addiu $4,$0,-32
  403898:	4e 00 00 00 00 02 04 02 	and $2,$2,$4
  4038a0:	4f 00 00 00 1f 00 03 03 	andi $3,$3,31
  4038a8:	50 00 00 00 00 02 03 02 	or $2,$2,$3
  4038b0:	34 00 00 00 00 00 02 10 	sw $2,0($16)
  4038b8:	42 00 00 00 00 02 00 00 	addu $2,$0,$0
  4038c0:	28 00 00 00 18 00 1f 1d 	lw $31,24($29)
  4038c8:	28 00 00 00 14 00 11 1d 	lw $17,20($29)
  4038d0:	28 00 00 00 10 00 10 1d 	lw $16,16($29)
  4038d8:	43 00 00 00 20 00 1d 1d 	addiu $29,$29,32
  4038e0:	03 00 00 00 00 00 00 1f 	jr $31

004038e8 <validreg>:
  4038e8:	43 00 00 00 f0 ff 1d 1d 	addiu $29,$29,-16
  4038f0:	34 00 00 00 08 00 04 1d 	sw $4,8($29)
  4038f8:	2c 00 00 00 0b 00 02 1d 	lwl $2,11($29)
  403900:	2d 00 00 00 08 00 02 1d 	lwr $2,8($29)
  403908:	39 00 00 00 03 00 02 1d 	swl $2,3($29)
  403910:	3a 00 00 00 00 00 02 1d 	swr $2,0($29)
  403918:	a2 00 00 00 00 10 04 00 	lui $4,4096
  403920:	28 00 00 00 08 58 04 04 	lw $4,22536($4)
  403928:	42 00 00 00 00 05 00 00 	addu $5,$0,$0
  403930:	20 00 00 00 00 00 03 1d 	lb $3,0($29)
  403938:	57 00 00 00 08 02 04 00 	srl $2,$4,0x8
  403940:	4f 00 00 00 0f 00 02 02 	andi $2,$2,15
  403948:	06 00 00 00 18 00 03 02 	bne $2,$3,4039b0 <validreg+0xc8>
  403950:	20 00 00 00 01 00 03 1d 	lb $3,1($29)
  403958:	4f 00 00 00 0f 00 02 04 	andi $2,$4,15
  403960:	06 00 00 00 12 00 03 02 	bne $2,$3,4039b0 <validreg+0xc8>
  403968:	20 00 00 00 02 00 03 1d 	lb $3,2($29)
  403970:	57 00 00 00 0c 02 04 00 	srl $2,$4,0xc
  403978:	4f 00 00 00 0f 00 02 02 	andi $2,$2,15
  403980:	06 00 00 00 0a 00 03 02 	bne $2,$3,4039b0 <validreg+0xc8>
  403988:	20 00 00 00 03 00 03 1d 	lb $3,3($29)
  403990:	57 00 00 00 04 02 04 00 	srl $2,$4,0x4
  403998:	4f 00 00 00 0f 00 02 02 	andi $2,$2,15
  4039a0:	52 00 00 00 00 02 03 02 	xor $2,$2,$3
  4039a8:	5e 00 00 00 01 00 05 02 	sltiu $5,$2,1
  4039b0:	42 00 00 00 00 02 05 00 	addu $2,$0,$5
  4039b8:	43 00 00 00 10 00 1d 1d 	addiu $29,$29,16
  4039c0:	03 00 00 00 00 00 00 1f 	jr $31
	...

004039d0 <bf>:
  4039d0:	43 00 00 00 c0 fb 1d 1d 	addiu $29,$29,-1088
  4039d8:	34 00 00 00 18 04 10 1d 	sw $16,1048($29)
  4039e0:	a2 00 00 00 02 10 10 00 	lui $16,4098
  4039e8:	43 00 00 00 c4 f8 10 10 	addiu $16,$16,-1852
  4039f0:	34 00 00 00 38 04 1f 1d 	sw $31,1080($29)
  4039f8:	34 00 00 00 34 04 17 1d 	sw $23,1076($29)
  403a00:	34 00 00 00 30 04 16 1d 	sw $22,1072($29)
  403a08:	34 00 00 00 2c 04 15 1d 	sw $21,1068($29)
  403a10:	34 00 00 00 28 04 14 1d 	sw $20,1064($29)
  403a18:	34 00 00 00 24 04 13 1d 	sw $19,1060($29)
  403a20:	34 00 00 00 20 04 12 1d 	sw $18,1056($29)
  403a28:	34 00 00 00 1c 04 11 1d 	sw $17,1052($29)
  403a30:	28 00 00 00 00 00 03 10 	lw $3,0($16)
  403a38:	a2 00 00 00 02 10 02 00 	lui $2,4098
  403a40:	28 00 00 00 c0 f8 02 02 	lw $2,-1856($2)
  403a48:	45 00 00 00 00 12 02 03 	subu $18,$3,$2
  403a50:	09 00 00 00 0c 00 00 12 	bltz $18,403a88 <bf+0xb8>
  403a58:	a2 00 00 00 00 10 04 00 	lui $4,4096
  403a60:	43 00 00 00 c8 5c 04 04 	addiu $4,$4,23752
  403a68:	43 00 00 00 04 00 05 00 	addiu $5,$0,4
  403a70:	02 00 00 00 1c 7d 10 00 	jal 41f470 <transinit>
  403a78:	43 00 00 00 ff ff 03 00 	addiu $3,$0,-1
  403a80:	06 00 00 00 04 00 03 02 	bne $2,$3,403a98 <bf+0xc8>
  403a88:	43 00 00 00 ff ff 02 00 	addiu $2,$0,-1
  403a90:	01 00 00 00 24 0f 10 00 	j 403c90 <bf+0x2c0>
  403a98:	05 00 00 00 7a 00 00 12 	beq $18,$0,403c88 <bf+0x2b8>
  403aa0:	43 00 00 00 04 00 13 10 	addiu $19,$16,4
  403aa8:	43 00 00 00 02 00 16 00 	addiu $22,$0,2
  403ab0:	43 00 00 00 01 00 15 00 	addiu $21,$0,1
  403ab8:	43 00 00 00 04 00 14 00 	addiu $20,$0,4
  403ac0:	43 00 00 00 10 00 17 1d 	addiu $23,$29,16
  403ac8:	42 00 00 00 00 10 12 00 	addu $16,$0,$18
  403ad0:	5c 00 00 00 01 04 02 12 	slti $2,$18,1025
  403ad8:	06 00 00 00 02 00 00 02 	bne $2,$0,403ae8 <bf+0x118>
  403ae0:	43 00 00 00 00 04 10 00 	addiu $16,$0,1024
  403ae8:	28 00 00 00 00 00 02 13 	lw $2,0($19)
  403af0:	49 00 00 00 00 00 02 10 	divu $0,$16,$2
  403af8:	06 00 00 00 02 00 00 02 	bne $2,$0,403b08 <bf+0x138>
  403b00:	a1 00 00 00 07 00 00 00 	break 
  403b08:	4c 00 00 00 00 03 00 00 	mflo $3
  403b10:	45 00 00 00 00 12 10 12 	subu $18,$18,$16
  403b18:	42 00 00 00 00 05 00 00 	addu $5,$0,$0
  403b20:	05 00 00 00 3e 00 00 03 	beq $3,$0,403c20 <bf+0x250>
  403b28:	42 00 00 00 00 04 17 00 	addu $4,$0,$23
  403b30:	42 00 00 00 00 07 04 00 	addu $7,$0,$4
  403b38:	42 00 00 00 00 06 04 00 	addu $6,$0,$4
  403b40:	28 00 00 00 00 00 03 13 	lw $3,0($19)
  403b48:	05 00 00 00 12 00 16 03 	beq $3,$22,403b98 <bf+0x1c8>
  403b50:	5e 00 00 00 03 00 02 03 	sltiu $2,$3,3
  403b58:	05 00 00 00 04 00 00 02 	beq $2,$0,403b70 <bf+0x1a0>
  403b60:	05 00 00 00 06 00 15 03 	beq $3,$21,403b80 <bf+0x1b0>
  403b68:	01 00 00 00 f0 0e 10 00 	j 403bc0 <bf+0x1f0>
  403b70:	05 00 00 00 0e 00 14 03 	beq $3,$20,403bb0 <bf+0x1e0>
  403b78:	01 00 00 00 f0 0e 10 00 	j 403bc0 <bf+0x1f0>
  403b80:	22 00 00 00 08 00 02 13 	lbu $2,8($19)
  403b88:	30 00 00 00 00 00 02 06 	sb $2,0($6)
  403b90:	01 00 00 00 f0 0e 10 00 	j 403bc0 <bf+0x1f0>
  403b98:	26 00 00 00 08 00 02 13 	lhu $2,8($19)
  403ba0:	32 00 00 00 00 00 02 04 	sh $2,0($4)
  403ba8:	01 00 00 00 f0 0e 10 00 	j 403bc0 <bf+0x1f0>
  403bb0:	28 00 00 00 08 00 02 13 	lw $2,8($19)
  403bb8:	34 00 00 00 00 00 02 07 	sw $2,0($7)
  403bc0:	a2 00 00 00 02 10 02 00 	lui $2,4098
  403bc8:	28 00 00 00 c8 f8 02 02 	lw $2,-1848($2)
  403bd0:	49 00 00 00 00 00 02 10 	divu $0,$16,$2
  403bd8:	06 00 00 00 02 00 00 02 	bne $2,$0,403be8 <bf+0x218>
  403be0:	a1 00 00 00 07 00 00 00 	break 
  403be8:	4c 00 00 00 00 03 00 00 	mflo $3
  403bf0:	43 00 00 00 04 00 07 07 	addiu $7,$7,4
  403bf8:	43 00 00 00 02 00 04 04 	addiu $4,$4,2
  403c00:	43 00 00 00 01 00 06 06 	addiu $6,$6,1
  403c08:	43 00 00 00 01 00 05 05 	addiu $5,$5,1
  403c10:	5d 00 00 00 00 02 03 05 	sltu $2,$5,$3
  403c18:	06 00 00 00 c8 ff 00 02 	bne $2,$0,403b40 <bf+0x170>
  403c20:	43 00 00 00 e2 04 04 00 	addiu $4,$0,1250
  403c28:	a2 00 00 00 02 10 11 00 	lui $17,4098
  403c30:	43 00 00 00 c0 f8 11 11 	addiu $17,$17,-1856
  403c38:	28 00 00 00 00 00 05 11 	lw $5,0($17)
  403c40:	43 00 00 00 10 00 06 1d 	addiu $6,$29,16
  403c48:	42 00 00 00 00 07 10 00 	addu $7,$0,$16
  403c50:	02 00 00 00 3e 7d 10 00 	jal 41f4f8 <rdwr>
  403c58:	43 00 00 00 ff ff 03 00 	addiu $3,$0,-1
  403c60:	05 00 00 00 88 ff 03 02 	beq $2,$3,403a88 <bf+0xb8>
  403c68:	28 00 00 00 00 00 02 11 	lw $2,0($17)
  403c70:	42 00 00 00 00 02 02 10 	addu $2,$16,$2
  403c78:	34 00 00 00 00 00 02 11 	sw $2,0($17)
  403c80:	06 00 00 00 90 ff 00 12 	bne $18,$0,403ac8 <bf+0xf8>
  403c88:	42 00 00 00 00 02 00 00 	addu $2,$0,$0
  403c90:	28 00 00 00 38 04 1f 1d 	lw $31,1080($29)
  403c98:	28 00 00 00 34 04 17 1d 	lw $23,1076($29)
  403ca0:	28 00 00 00 30 04 16 1d 	lw $22,1072($29)
  403ca8:	28 00 00 00 2c 04 15 1d 	lw $21,1068($29)
  403cb0:	28 00 00 00 28 04 14 1d 	lw $20,1064($29)
  403cb8:	28 00 00 00 24 04 13 1d 	lw $19,1060($29)
  403cc0:	28 00 00 00 20 04 12 1d 	lw $18,1056($29)
  403cc8:	28 00 00 00 1c 04 11 1d 	lw $17,1052($29)
  403cd0:	28 00 00 00 18 04 10 1d 	lw $16,1048($29)
  403cd8:	43 00 00 00 40 04 1d 1d 	addiu $29,$29,1088
  403ce0:	03 00 00 00 00 00 00 1f 	jr $31
	...

00403cf0 <bm>:
  403cf0:	43 00 00 00 d8 fb 1d 1d 	addiu $29,$29,-1064
  403cf8:	34 00 00 00 10 04 10 1d 	sw $16,1040($29)
  403d00:	a2 00 00 00 02 10 10 00 	lui $16,4098
  403d08:	43 00 00 00 c4 f8 10 10 	addiu $16,$16,-1852
  403d10:	34 00 00 00 20 04 1f 1d 	sw $31,1056($29)
  403d18:	34 00 00 00 1c 04 13 1d 	sw $19,1052($29)
  403d20:	34 00 00 00 18 04 12 1d 	sw $18,1048($29)
  403d28:	34 00 00 00 14 04 11 1d 	sw $17,1044($29)
  403d30:	28 00 00 00 00 00 03 10 	lw $3,0($16)
  403d38:	a2 00 00 00 02 10 02 00 	lui $2,4098
  403d40:	28 00 00 00 c0 f8 02 02 	lw $2,-1856($2)
  403d48:	45 00 00 00 00 11 02 03 	subu $17,$3,$2
  403d50:	09 00 00 00 0c 00 00 11 	bltz $17,403d88 <bm+0x98>
  403d58:	a2 00 00 00 00 10 04 00 	lui $4,4096
  403d60:	43 00 00 00 28 5d 04 04 	addiu $4,$4,23848
  403d68:	43 00 00 00 04 00 05 00 	addiu $5,$0,4
  403d70:	02 00 00 00 1c 7d 10 00 	jal 41f470 <transinit>
  403d78:	43 00 00 00 ff ff 03 00 	addiu $3,$0,-1
  403d80:	06 00 00 00 04 00 03 02 	bne $2,$3,403d98 <bm+0xa8>
  403d88:	43 00 00 00 ff ff 02 00 	addiu $2,$0,-1
  403d90:	01 00 00 00 9e 0f 10 00 	j 403e78 <bm+0x188>
  403d98:	05 00 00 00 34 00 00 11 	beq $17,$0,403e70 <bm+0x180>
  403da0:	43 00 00 00 fc ff 12 10 	addiu $18,$16,-4
  403da8:	43 00 00 00 ff ff 13 00 	addiu $19,$0,-1
  403db0:	42 00 00 00 00 10 11 00 	addu $16,$0,$17
  403db8:	5c 00 00 00 01 04 02 11 	slti $2,$17,1025
  403dc0:	06 00 00 00 02 00 00 02 	bne $2,$0,403dd0 <bm+0xe0>
  403dc8:	43 00 00 00 00 04 10 00 	addiu $16,$0,1024
  403dd0:	43 00 00 00 e1 04 04 00 	addiu $4,$0,1249
  403dd8:	28 00 00 00 00 00 05 12 	lw $5,0($18)
  403de0:	43 00 00 00 10 00 06 1d 	addiu $6,$29,16
  403de8:	42 00 00 00 00 07 10 00 	addu $7,$0,$16
  403df0:	02 00 00 00 3e 7d 10 00 	jal 41f4f8 <rdwr>
  403df8:	05 00 00 00 e2 ff 13 02 	beq $2,$19,403d88 <bm+0x98>
  403e00:	43 00 00 00 e2 04 04 00 	addiu $4,$0,1250
  403e08:	28 00 00 00 10 00 05 12 	lw $5,16($18)
  403e10:	43 00 00 00 10 00 06 1d 	addiu $6,$29,16
  403e18:	42 00 00 00 00 07 10 00 	addu $7,$0,$16
  403e20:	02 00 00 00 3e 7d 10 00 	jal 41f4f8 <rdwr>
  403e28:	05 00 00 00 d6 ff 13 02 	beq $2,$19,403d88 <bm+0x98>
  403e30:	28 00 00 00 10 00 02 12 	lw $2,16($18)
  403e38:	28 00 00 00 00 00 03 12 	lw $3,0($18)
  403e40:	45 00 00 00 00 11 10 11 	subu $17,$17,$16
  403e48:	42 00 00 00 00 02 02 10 	addu $2,$16,$2
  403e50:	42 00 00 00 00 03 03 10 	addu $3,$16,$3
  403e58:	34 00 00 00 10 00 02 12 	sw $2,16($18)
  403e60:	34 00 00 00 00 00 03 12 	sw $3,0($18)
  403e68:	06 00 00 00 d0 ff 00 11 	bne $17,$0,403db0 <bm+0xc0>
  403e70:	42 00 00 00 00 02 00 00 	addu $2,$0,$0
  403e78:	28 00 00 00 20 04 1f 1d 	lw $31,1056($29)
  403e80:	28 00 00 00 1c 04 13 1d 	lw $19,1052($29)
  403e88:	28 00 00 00 18 04 12 1d 	lw $18,1048($29)
  403e90:	28 00 00 00 14 04 11 1d 	lw $17,1044($29)
  403e98:	28 00 00 00 10 04 10 1d 	lw $16,1040($29)
  403ea0:	43 00 00 00 28 04 1d 1d 	addiu $29,$29,1064
  403ea8:	03 00 00 00 00 00 00 1f 	jr $31

00403eb0 <br>:
  403eb0:	28 00 00 00 70 82 02 1c 	lw $2,-32144($28)
  403eb8:	43 00 00 00 c0 ff 1d 1d 	addiu $29,$29,-64
  403ec0:	34 00 00 00 2c 00 13 1d 	sw $19,44($29)
  403ec8:	43 00 00 00 01 00 13 00 	addiu $19,$0,1
  403ed0:	34 00 00 00 3c 00 1f 1d 	sw $31,60($29)
  403ed8:	34 00 00 00 38 00 16 1d 	sw $22,56($29)
  403ee0:	34 00 00 00 34 00 15 1d 	sw $21,52($29)
  403ee8:	34 00 00 00 30 00 14 1d 	sw $20,48($29)
  403ef0:	34 00 00 00 28 00 12 1d 	sw $18,40($29)
  403ef8:	34 00 00 00 24 00 11 1d 	sw $17,36($29)
  403f00:	34 00 00 00 20 00 10 1d 	sw $16,32($29)
  403f08:	5b 00 00 00 00 02 02 13 	slt $2,$19,$2
  403f10:	05 00 00 00 d4 00 00 02 	beq $2,$0,404268 <br+0x3b8>
  403f18:	43 00 00 00 72 00 16 00 	addiu $22,$0,114
  403f20:	43 00 00 00 77 00 15 00 	addiu $21,$0,119
  403f28:	a2 00 00 00 00 10 12 00 	lui $18,4096
  403f30:	43 00 00 00 f0 5f 12 12 	addiu $18,$18,24560
  403f38:	43 00 00 00 04 00 14 00 	addiu $20,$0,4
  403f40:	a2 00 00 00 00 10 10 00 	lui $16,4096
  403f48:	42 00 00 00 00 10 14 10 	addu $16,$16,$20
  403f50:	28 00 00 00 e8 5f 10 10 	lw $16,24552($16)
  403f58:	43 00 00 00 3a 00 05 00 	addiu $5,$0,58
  403f60:	42 00 00 00 00 04 10 00 	addu $4,$0,$16
  403f68:	02 00 00 00 7c ba 10 00 	jal 42e9f0 <strchr>
  403f70:	42 00 00 00 00 11 02 00 	addu $17,$0,$2
  403f78:	05 00 00 00 04 00 00 11 	beq $17,$0,403f90 <br+0xe0>
  403f80:	30 00 00 00 00 00 00 11 	sb $0,0($17)
  403f88:	43 00 00 00 01 00 11 11 	addiu $17,$17,1
  403f90:	42 00 00 00 00 04 10 00 	addu $4,$0,$16
  403f98:	43 00 00 00 10 00 05 1d 	addiu $5,$29,16
  403fa0:	43 00 00 00 14 00 06 1d 	addiu $6,$29,20
  403fa8:	02 00 00 00 34 39 10 00 	jal 40e4d0 <getexpr>
  403fb0:	06 00 00 00 0c 00 00 02 	bne $2,$0,403fe8 <br+0x138>
  403fb8:	05 00 00 00 1e 00 00 11 	beq $17,$0,404038 <br+0x188>
  403fc0:	42 00 00 00 00 04 11 00 	addu $4,$0,$17
  403fc8:	43 00 00 00 10 00 05 1d 	addiu $5,$29,16
  403fd0:	43 00 00 00 18 00 06 1d 	addiu $6,$29,24
  403fd8:	02 00 00 00 34 39 10 00 	jal 40e4d0 <getexpr>
  403fe0:	05 00 00 00 14 00 00 02 	beq $2,$0,404038 <br+0x188>
  403fe8:	a2 00 00 00 00 10 04 00 	lui $4,4096
  403ff0:	43 00 00 00 90 00 04 04 	addiu $4,$4,144
  403ff8:	42 00 00 00 00 05 10 00 	addu $5,$0,$16
  404000:	02 00 00 00 0a b6 10 00 	jal 42d828 <PPrintf>
  404008:	01 00 00 00 8e 10 10 00 	j 404238 <br+0x388>
  404010:	42 00 00 00 00 10 03 00 	addu $16,$0,$3
  404018:	a2 00 00 00 00 10 04 00 	lui $4,4096
  404020:	43 00 00 00 ac 00 04 04 	addiu $4,$4,172
  404028:	02 00 00 00 0a b6 10 00 	jal 42d828 <PPrintf>
  404030:	01 00 00 00 34 10 10 00 	j 4040d0 <br+0x220>
  404038:	42 00 00 00 00 06 00 00 	addu $6,$0,$0
  404040:	a2 00 00 00 00 10 03 00 	lui $3,4096
  404048:	43 00 00 00 88 5d 03 03 	addiu $3,$3,23944
  404050:	42 00 00 00 00 10 00 00 	addu $16,$0,$0
  404058:	28 00 00 00 14 00 07 1d 	lw $7,20($29)
  404060:	43 00 00 00 08 00 04 03 	addiu $4,$3,8
  404068:	06 00 00 00 06 00 00 10 	bne $16,$0,404088 <br+0x1d8>
  404070:	22 00 00 00 00 00 02 04 	lbu $2,0($4)
  404078:	06 00 00 00 06 00 00 02 	bne $2,$0,404098 <br+0x1e8>
  404080:	42 00 00 00 00 10 03 00 	addu $16,$0,$3
  404088:	22 00 00 00 00 00 02 04 	lbu $2,0($4)
  404090:	05 00 00 00 04 00 00 02 	beq $2,$0,4040a8 <br+0x1f8>
  404098:	28 00 00 00 00 00 05 03 	lw $5,0($3)
  4040a0:	05 00 00 00 da ff 07 05 	beq $5,$7,404010 <br+0x160>
  4040a8:	43 00 00 00 01 00 06 06 	addiu $6,$6,1
  4040b0:	43 00 00 00 0c 00 04 04 	addiu $4,$4,12
  4040b8:	43 00 00 00 0c 00 03 03 	addiu $3,$3,12
  4040c0:	5c 00 00 00 0f 00 02 06 	slti $2,$6,15
  4040c8:	06 00 00 00 e6 ff 00 02 	bne $2,$0,404068 <br+0x1b8>
  4040d0:	06 00 00 00 08 00 00 10 	bne $16,$0,4040f8 <br+0x248>
  4040d8:	a2 00 00 00 00 10 04 00 	lui $4,4096
  4040e0:	43 00 00 00 d4 00 04 04 	addiu $4,$4,212
  4040e8:	02 00 00 00 0a b6 10 00 	jal 42d828 <PPrintf>
  4040f0:	01 00 00 00 9a 10 10 00 	j 404268 <br+0x3b8>
  4040f8:	43 00 00 00 04 00 02 00 	addiu $2,$0,4
  404100:	30 00 00 00 08 00 02 10 	sb $2,8($16)
  404108:	28 00 00 00 14 00 02 1d 	lw $2,20($29)
  404110:	34 00 00 00 00 00 02 10 	sw $2,0($16)
  404118:	05 00 00 00 0a 00 00 11 	beq $17,$0,404148 <br+0x298>
  404120:	22 00 00 00 08 00 02 10 	lbu $2,8($16)
  404128:	26 00 00 00 18 00 03 1d 	lhu $3,24($29)
  404130:	51 00 00 00 08 00 02 02 	ori $2,$2,8
  404138:	32 00 00 00 04 00 03 10 	sh $3,4($16)
  404140:	30 00 00 00 08 00 02 10 	sb $2,8($16)
  404148:	28 00 00 00 74 82 02 1c 	lw $2,-32140($28)
  404150:	4f 00 00 00 40 00 02 02 	andi $2,$2,64
  404158:	05 00 00 00 36 00 00 02 	beq $2,$0,404238 <br+0x388>
  404160:	28 00 00 00 00 00 02 12 	lw $2,0($18)
  404168:	20 00 00 00 00 00 02 02 	lb $2,0($2)
  404170:	05 00 00 00 08 00 16 02 	beq $2,$22,404198 <br+0x2e8>
  404178:	06 00 00 00 2e 00 15 02 	bne $2,$21,404238 <br+0x388>
  404180:	22 00 00 00 08 00 02 10 	lbu $2,8($16)
  404188:	51 00 00 00 02 00 02 02 	ori $2,$2,2
  404190:	01 00 00 00 6a 10 10 00 	j 4041a8 <br+0x2f8>
  404198:	22 00 00 00 08 00 02 10 	lbu $2,8($16)
  4041a0:	51 00 00 00 01 00 02 02 	ori $2,$2,1
  4041a8:	30 00 00 00 08 00 02 10 	sb $2,8($16)
  4041b0:	28 00 00 00 00 00 02 12 	lw $2,0($18)
  4041b8:	20 00 00 00 01 00 03 02 	lb $3,1($2)
  4041c0:	05 00 00 00 10 00 16 03 	beq $3,$22,404208 <br+0x358>
  4041c8:	5c 00 00 00 73 00 02 03 	slti $2,$3,115
  4041d0:	05 00 00 00 04 00 00 02 	beq $2,$0,4041e8 <br+0x338>
  4041d8:	05 00 00 00 10 00 00 03 	beq $3,$0,404220 <br+0x370>
  4041e0:	01 00 00 00 8e 10 10 00 	j 404238 <br+0x388>
  4041e8:	06 00 00 00 12 00 15 03 	bne $3,$21,404238 <br+0x388>
  4041f0:	22 00 00 00 08 00 02 10 	lbu $2,8($16)
  4041f8:	51 00 00 00 02 00 02 02 	ori $2,$2,2
  404200:	01 00 00 00 86 10 10 00 	j 404218 <br+0x368>
  404208:	22 00 00 00 08 00 02 10 	lbu $2,8($16)
  404210:	51 00 00 00 01 00 02 02 	ori $2,$2,1
  404218:	30 00 00 00 08 00 02 10 	sb $2,8($16)
  404220:	43 00 00 00 04 00 12 12 	addiu $18,$18,4
  404228:	43 00 00 00 04 00 14 14 	addiu $20,$20,4
  404230:	43 00 00 00 01 00 13 13 	addiu $19,$19,1
  404238:	43 00 00 00 04 00 12 12 	addiu $18,$18,4
  404240:	28 00 00 00 70 82 02 1c 	lw $2,-32144($28)
  404248:	43 00 00 00 04 00 14 14 	addiu $20,$20,4
  404250:	43 00 00 00 01 00 13 13 	addiu $19,$19,1
  404258:	5b 00 00 00 00 02 02 13 	slt $2,$19,$2
  404260:	06 00 00 00 36 ff 00 02 	bne $2,$0,403f40 <br+0x90>
  404268:	02 00 00 00 26 11 10 00 	jal 404498 <dbrks>
  404270:	28 00 00 00 3c 00 1f 1d 	lw $31,60($29)
  404278:	28 00 00 00 38 00 16 1d 	lw $22,56($29)
  404280:	28 00 00 00 34 00 15 1d 	lw $21,52($29)
  404288:	28 00 00 00 30 00 14 1d 	lw $20,48($29)
  404290:	28 00 00 00 2c 00 13 1d 	lw $19,44($29)
  404298:	28 00 00 00 28 00 12 1d 	lw $18,40($29)
  4042a0:	28 00 00 00 24 00 11 1d 	lw $17,36($29)
  4042a8:	28 00 00 00 20 00 10 1d 	lw $16,32($29)
  4042b0:	43 00 00 00 40 00 1d 1d 	addiu $29,$29,64
  4042b8:	03 00 00 00 00 00 00 1f 	jr $31

004042c0 <nobr>:
  4042c0:	28 00 00 00 70 82 03 1c 	lw $3,-32144($28)
  4042c8:	43 00 00 00 d0 ff 1d 1d 	addiu $29,$29,-48
  4042d0:	34 00 00 00 18 00 10 1d 	sw $16,24($29)
  4042d8:	a2 00 00 00 00 10 10 00 	lui $16,4096
  4042e0:	43 00 00 00 88 5d 10 10 	addiu $16,$16,23944
  4042e8:	43 00 00 00 01 00 02 00 	addiu $2,$0,1
  4042f0:	34 00 00 00 28 00 1f 1d 	sw $31,40($29)
  4042f8:	34 00 00 00 24 00 13 1d 	sw $19,36($29)
  404300:	34 00 00 00 20 00 12 1d 	sw $18,32($29)
  404308:	34 00 00 00 1c 00 11 1d 	sw $17,28($29)
  404310:	06 00 00 00 0a 00 02 03 	bne $3,$2,404340 <nobr+0x80>
  404318:	43 00 00 00 0e 00 03 00 	addiu $3,$0,14
  404320:	30 00 00 00 08 00 00 10 	sb $0,8($16)
  404328:	43 00 00 00 ff ff 03 03 	addiu $3,$3,-1
  404330:	43 00 00 00 0c 00 10 10 	addiu $16,$16,12
  404338:	0a 00 00 00 f8 ff 00 03 	bgez $3,404320 <nobr+0x60>
  404340:	28 00 00 00 70 82 02 1c 	lw $2,-32144($28)
  404348:	43 00 00 00 01 00 13 00 	addiu $19,$0,1
  404350:	5b 00 00 00 00 02 02 13 	slt $2,$19,$2
  404358:	05 00 00 00 3e 00 00 02 	beq $2,$0,404458 <nobr+0x198>
  404360:	a2 00 00 00 00 10 12 00 	lui $18,4096
  404368:	43 00 00 00 ec 5f 12 12 	addiu $18,$18,24556
  404370:	43 00 00 00 08 00 11 10 	addiu $17,$16,8
  404378:	28 00 00 00 00 00 04 12 	lw $4,0($18)
  404380:	43 00 00 00 10 00 05 1d 	addiu $5,$29,16
  404388:	43 00 00 00 14 00 06 1d 	addiu $6,$29,20
  404390:	02 00 00 00 34 39 10 00 	jal 40e4d0 <getexpr>
  404398:	05 00 00 00 0e 00 00 02 	beq $2,$0,4043d8 <nobr+0x118>
  4043a0:	28 00 00 00 00 00 05 12 	lw $5,0($18)
  4043a8:	a2 00 00 00 00 10 04 00 	lui $4,4096
  4043b0:	43 00 00 00 90 00 04 04 	addiu $4,$4,144
  4043b8:	02 00 00 00 0a b6 10 00 	jal 42d828 <PPrintf>
  4043c0:	01 00 00 00 0c 11 10 00 	j 404430 <nobr+0x170>
  4043c8:	30 00 00 00 00 00 00 11 	sb $0,0($17)
  4043d0:	01 00 00 00 0c 11 10 00 	j 404430 <nobr+0x170>
  4043d8:	42 00 00 00 00 03 00 00 	addu $3,$0,$0
  4043e0:	28 00 00 00 14 00 04 1d 	lw $4,20($29)
  4043e8:	22 00 00 00 00 00 02 11 	lbu $2,0($17)
  4043f0:	05 00 00 00 04 00 00 02 	beq $2,$0,404408 <nobr+0x148>
  4043f8:	28 00 00 00 00 00 02 10 	lw $2,0($16)
  404400:	05 00 00 00 f0 ff 04 02 	beq $2,$4,4043c8 <nobr+0x108>
  404408:	43 00 00 00 01 00 03 03 	addiu $3,$3,1
  404410:	43 00 00 00 0c 00 11 11 	addiu $17,$17,12
  404418:	43 00 00 00 0c 00 10 10 	addiu $16,$16,12
  404420:	5c 00 00 00 0f 00 02 03 	slti $2,$3,15
  404428:	06 00 00 00 ee ff 00 02 	bne $2,$0,4043e8 <nobr+0x128>
  404430:	28 00 00 00 70 82 02 1c 	lw $2,-32144($28)
  404438:	43 00 00 00 04 00 12 12 	addiu $18,$18,4
  404440:	43 00 00 00 01 00 13 13 	addiu $19,$19,1
  404448:	5b 00 00 00 00 02 02 13 	slt $2,$19,$2
  404450:	06 00 00 00 c8 ff 00 02 	bne $2,$0,404378 <nobr+0xb8>
  404458:	02 00 00 00 26 11 10 00 	jal 404498 <dbrks>
  404460:	28 00 00 00 28 00 1f 1d 	lw $31,40($29)
  404468:	28 00 00 00 24 00 13 1d 	lw $19,36($29)
  404470:	28 00 00 00 20 00 12 1d 	lw $18,32($29)
  404478:	28 00 00 00 1c 00 11 1d 	lw $17,28($29)
  404480:	28 00 00 00 18 00 10 1d 	lw $16,24($29)
  404488:	43 00 00 00 30 00 1d 1d 	addiu $29,$29,48
  404490:	03 00 00 00 00 00 00 1f 	jr $31

00404498 <dbrks>:
  404498:	43 00 00 00 d8 ff 1d 1d 	addiu $29,$29,-40
  4044a0:	34 00 00 00 14 00 11 1d 	sw $17,20($29)
  4044a8:	a2 00 00 00 00 10 11 00 	lui $17,4096
  4044b0:	43 00 00 00 88 5d 11 11 	addiu $17,$17,23944
  4044b8:	a2 00 00 00 00 10 04 00 	lui $4,4096
  4044c0:	43 00 00 00 e8 00 04 04 	addiu $4,$4,232
  4044c8:	34 00 00 00 20 00 1f 1d 	sw $31,32($29)
  4044d0:	34 00 00 00 1c 00 13 1d 	sw $19,28($29)
  4044d8:	34 00 00 00 18 00 12 1d 	sw $18,24($29)
  4044e0:	34 00 00 00 10 00 10 1d 	sw $16,16($29)
  4044e8:	02 00 00 00 0a b6 10 00 	jal 42d828 <PPrintf>
  4044f0:	42 00 00 00 00 13 00 00 	addu $19,$0,$0
  4044f8:	42 00 00 00 00 12 00 00 	addu $18,$0,$0
  404500:	43 00 00 00 08 00 10 11 	addiu $16,$17,8
  404508:	22 00 00 00 00 00 02 10 	lbu $2,0($16)
  404510:	05 00 00 00 a2 00 00 02 	beq $2,$0,4047a0 <dbrks+0x308>
  404518:	28 00 00 00 00 00 05 11 	lw $5,0($17)
  404520:	43 00 00 00 14 82 04 1c 	addiu $4,$28,-32236
  404528:	02 00 00 00 0a b6 10 00 	jal 42d828 <PPrintf>
  404530:	22 00 00 00 00 00 02 10 	lbu $2,0($16)
  404538:	43 00 00 00 01 00 13 13 	addiu $19,$19,1
  404540:	4f 00 00 00 08 00 02 02 	andi $2,$2,8
  404548:	05 00 00 00 06 00 00 02 	beq $2,$0,404568 <dbrks+0xd0>
  404550:	26 00 00 00 fc ff 05 10 	lhu $5,-4($16)
  404558:	43 00 00 00 1c 82 04 1c 	addiu $4,$28,-32228
  404560:	02 00 00 00 0a b6 10 00 	jal 42d828 <PPrintf>
  404568:	22 00 00 00 00 00 02 10 	lbu $2,0($16)
  404570:	4f 00 00 00 03 00 02 02 	andi $2,$2,3
  404578:	05 00 00 00 54 00 00 02 	beq $2,$0,4046d0 <dbrks+0x238>
  404580:	28 00 00 00 f4 89 04 1c 	lw $4,-30220($28)
  404588:	28 00 00 00 04 00 03 04 	lw $3,4($4)
  404590:	28 00 00 00 0c 00 02 04 	lw $2,12($4)
  404598:	5d 00 00 00 00 02 02 03 	sltu $2,$3,$2
  4045a0:	05 00 00 00 0a 00 00 02 	beq $2,$0,4045d0 <dbrks+0x138>
  4045a8:	43 00 00 00 01 00 02 03 	addiu $2,$3,1
  4045b0:	34 00 00 00 04 00 02 04 	sw $2,4($4)
  4045b8:	43 00 00 00 3b 00 02 00 	addiu $2,$0,59
  4045c0:	30 00 00 00 00 00 02 03 	sb $2,0($3)
  4045c8:	01 00 00 00 78 11 10 00 	j 4045e0 <dbrks+0x148>
  4045d0:	43 00 00 00 3b 00 05 00 	addiu $5,$0,59
  4045d8:	02 00 00 00 f4 be 10 00 	jal 42fbd0 <__flshfp>
  4045e0:	22 00 00 00 00 00 02 10 	lbu $2,0($16)
  4045e8:	4f 00 00 00 02 00 02 02 	andi $2,$2,2
  4045f0:	05 00 00 00 18 00 00 02 	beq $2,$0,404658 <dbrks+0x1c0>
  4045f8:	28 00 00 00 f4 89 04 1c 	lw $4,-30220($28)
  404600:	28 00 00 00 04 00 03 04 	lw $3,4($4)
  404608:	28 00 00 00 0c 00 02 04 	lw $2,12($4)
  404610:	5d 00 00 00 00 02 02 03 	sltu $2,$3,$2
  404618:	05 00 00 00 0a 00 00 02 	beq $2,$0,404648 <dbrks+0x1b0>
  404620:	43 00 00 00 01 00 02 03 	addiu $2,$3,1
  404628:	34 00 00 00 04 00 02 04 	sw $2,4($4)
  404630:	43 00 00 00 77 00 02 00 	addiu $2,$0,119
  404638:	30 00 00 00 00 00 02 03 	sb $2,0($3)
  404640:	01 00 00 00 96 11 10 00 	j 404658 <dbrks+0x1c0>
  404648:	43 00 00 00 77 00 05 00 	addiu $5,$0,119
  404650:	02 00 00 00 f4 be 10 00 	jal 42fbd0 <__flshfp>
  404658:	22 00 00 00 00 00 02 10 	lbu $2,0($16)
  404660:	4f 00 00 00 01 00 02 02 	andi $2,$2,1
  404668:	05 00 00 00 18 00 00 02 	beq $2,$0,4046d0 <dbrks+0x238>
  404670:	28 00 00 00 f4 89 04 1c 	lw $4,-30220($28)
  404678:	28 00 00 00 04 00 03 04 	lw $3,4($4)
  404680:	28 00 00 00 0c 00 02 04 	lw $2,12($4)
  404688:	5d 00 00 00 00 02 02 03 	sltu $2,$3,$2
  404690:	05 00 00 00 0a 00 00 02 	beq $2,$0,4046c0 <dbrks+0x228>
  404698:	43 00 00 00 01 00 02 03 	addiu $2,$3,1
  4046a0:	34 00 00 00 04 00 02 04 	sw $2,4($4)
  4046a8:	43 00 00 00 72 00 02 00 	addiu $2,$0,114
  4046b0:	30 00 00 00 00 00 02 03 	sb $2,0($3)
  4046b8:	01 00 00 00 b4 11 10 00 	j 4046d0 <dbrks+0x238>
  4046c0:	43 00 00 00 72 00 05 00 	addiu $5,$0,114
  4046c8:	02 00 00 00 f4 be 10 00 	jal 42fbd0 <__flshfp>
  4046d0:	28 00 00 00 f4 89 04 1c 	lw $4,-30220($28)
  4046d8:	28 00 00 00 04 00 03 04 	lw $3,4($4)
  4046e0:	28 00 00 00 0c 00 02 04 	lw $2,12($4)
  4046e8:	5d 00 00 00 00 02 02 03 	sltu $2,$3,$2
  4046f0:	05 00 00 00 0a 00 00 02 	beq $2,$0,404720 <dbrks+0x288>
  4046f8:	43 00 00 00 01 00 02 03 	addiu $2,$3,1
  404700:	34 00 00 00 04 00 02 04 	sw $2,4($4)
  404708:	43 00 00 00 09 00 02 00 	addiu $2,$0,9
  404710:	30 00 00 00 00 00 02 03 	sb $2,0($3)
  404718:	01 00 00 00 cc 11 10 00 	j 404730 <dbrks+0x298>
  404720:	43 00 00 00 09 00 05 00 	addiu $5,$0,9
  404728:	02 00 00 00 f4 be 10 00 	jal 42fbd0 <__flshfp>
  404730:	4f 00 00 00 03 00 02 13 	andi $2,$19,3
  404738:	06 00 00 00 18 00 00 02 	bne $2,$0,4047a0 <dbrks+0x308>
  404740:	28 00 00 00 f4 89 04 1c 	lw $4,-30220($28)
  404748:	28 00 00 00 04 00 03 04 	lw $3,4($4)
  404750:	28 00 00 00 0c 00 02 04 	lw $2,12($4)
  404758:	5d 00 00 00 00 02 02 03 	sltu $2,$3,$2
  404760:	05 00 00 00 0a 00 00 02 	beq $2,$0,404790 <dbrks+0x2f8>
  404768:	43 00 00 00 01 00 02 03 	addiu $2,$3,1
  404770:	34 00 00 00 04 00 02 04 	sw $2,4($4)
  404778:	43 00 00 00 0a 00 02 00 	addiu $2,$0,10
  404780:	30 00 00 00 00 00 02 03 	sb $2,0($3)
  404788:	01 00 00 00 e8 11 10 00 	j 4047a0 <dbrks+0x308>
  404790:	43 00 00 00 0a 00 05 00 	addiu $5,$0,10
  404798:	02 00 00 00 f4 be 10 00 	jal 42fbd0 <__flshfp>
  4047a0:	43 00 00 00 01 00 12 12 	addiu $18,$18,1
  4047a8:	43 00 00 00 0c 00 10 10 	addiu $16,$16,12
  4047b0:	43 00 00 00 0c 00 11 11 	addiu $17,$17,12
  4047b8:	5c 00 00 00 0f 00 02 12 	slti $2,$18,15
  4047c0:	06 00 00 00 50 ff 00 02 	bne $2,$0,404508 <dbrks+0x70>
  4047c8:	42 00 00 00 00 02 00 00 	addu $2,$0,$0
  4047d0:	28 00 00 00 20 00 1f 1d 	lw $31,32($29)
  4047d8:	28 00 00 00 1c 00 13 1d 	lw $19,28($29)
  4047e0:	28 00 00 00 18 00 12 1d 	lw $18,24($29)
  4047e8:	28 00 00 00 14 00 11 1d 	lw $17,20($29)
  4047f0:	28 00 00 00 10 00 10 1d 	lw $16,16($29)
  4047f8:	43 00 00 00 28 00 1d 1d 	addiu $29,$29,40
  404800:	03 00 00 00 00 00 00 1f 	jr $31

00404808 <ckbrkpts>:
  404808:	28 00 00 00 70 8f 02 1c 	lw $2,-28816($28)
  404810:	43 00 00 00 e8 ff 1d 1d 	addiu $29,$29,-24
  404818:	a2 00 00 00 00 10 06 00 	lui $6,4096
  404820:	43 00 00 00 88 5d 06 06 	addiu $6,$6,23944
  404828:	34 00 00 00 10 00 1f 1d 	sw $31,16($29)
  404830:	05 00 00 00 32 00 00 02 	beq $2,$0,404900 <ckbrkpts+0xf8>
  404838:	42 00 00 00 00 03 00 00 	addu $3,$0,$0
  404840:	43 00 00 00 fc ff 07 00 	addiu $7,$0,-4
  404848:	22 00 00 00 08 00 02 06 	lbu $2,8($6)
  404850:	05 00 00 00 06 00 00 02 	beq $2,$0,404870 <ckbrkpts+0x68>
  404858:	28 00 00 00 00 00 02 06 	lw $2,0($6)
  404860:	4e 00 00 00 00 02 07 02 	and $2,$2,$7
  404868:	05 00 00 00 08 00 04 02 	beq $2,$4,404890 <ckbrkpts+0x88>
  404870:	43 00 00 00 01 00 03 03 	addiu $3,$3,1
  404878:	43 00 00 00 0c 00 06 06 	addiu $6,$6,12
  404880:	5c 00 00 00 10 00 02 03 	slti $2,$3,16
  404888:	06 00 00 00 ee ff 00 02 	bne $2,$0,404848 <ckbrkpts+0x40>
  404890:	43 00 00 00 10 00 02 00 	addiu $2,$0,16
  404898:	05 00 00 00 18 00 02 03 	beq $3,$2,404900 <ckbrkpts+0xf8>
  4048a0:	22 00 00 00 08 00 02 06 	lbu $2,8($6)
  4048a8:	4e 00 00 00 00 02 05 02 	and $2,$2,$5
  4048b0:	05 00 00 00 12 00 00 02 	beq $2,$0,404900 <ckbrkpts+0xf8>
  4048b8:	22 00 00 00 08 00 02 06 	lbu $2,8($6)
  4048c0:	4f 00 00 00 08 00 02 02 	andi $2,$2,8
  4048c8:	05 00 00 00 10 00 00 02 	beq $2,$0,404910 <ckbrkpts+0x108>
  4048d0:	26 00 00 00 06 00 02 06 	lhu $2,6($6)
  4048d8:	26 00 00 00 04 00 03 06 	lhu $3,4($6)
  4048e0:	43 00 00 00 01 00 02 02 	addiu $2,$2,1
  4048e8:	32 00 00 00 06 00 02 06 	sh $2,6($6)
  4048f0:	4f 00 00 00 ff ff 02 02 	andi $2,$2,65535
  4048f8:	05 00 00 00 04 00 03 02 	beq $2,$3,404910 <ckbrkpts+0x108>
  404900:	42 00 00 00 00 02 00 00 	addu $2,$0,$0
  404908:	01 00 00 00 5a 12 10 00 	j 404968 <ckbrkpts+0x160>
  404910:	a2 00 00 00 01 10 02 00 	lui $2,4097
  404918:	28 00 00 00 f8 a3 02 02 	lw $2,-23560($2)
  404920:	34 00 00 00 10 82 04 1c 	sw $4,-32240($28)
  404928:	05 00 00 00 02 00 02 04 	beq $4,$2,404938 <ckbrkpts+0x130>
  404930:	34 00 00 00 10 82 02 1c 	sw $2,-32240($28)
  404938:	a2 00 00 00 00 10 04 00 	lui $4,4096
  404940:	43 00 00 00 f8 00 04 04 	addiu $4,$4,248
  404948:	02 00 00 00 0a b6 10 00 	jal 42d828 <PPrintf>
  404950:	43 00 00 00 01 00 02 00 	addiu $2,$0,1
  404958:	34 00 00 00 74 8f 02 1c 	sw $2,-28812($28)
  404960:	43 00 00 00 ff ff 02 00 	addiu $2,$0,-1
  404968:	28 00 00 00 10 00 1f 1d 	lw $31,16($29)
  404970:	43 00 00 00 18 00 1d 1d 	addiu $29,$29,24
  404978:	03 00 00 00 00 00 00 1f 	jr $31

00404980 <brkptenb>:
  404980:	a2 00 00 00 00 10 03 00 	lui $3,4096
  404988:	43 00 00 00 88 5d 03 03 	addiu $3,$3,23944
  404990:	43 00 00 00 0f 00 02 00 	addiu $2,$0,15
  404998:	32 00 00 00 06 00 00 03 	sh $0,6($3)
  4049a0:	43 00 00 00 ff ff 02 02 	addiu $2,$2,-1
  4049a8:	43 00 00 00 0c 00 03 03 	addiu $3,$3,12
  4049b0:	0a 00 00 00 f8 ff 00 02 	bgez $2,404998 <brkptenb+0x18>
  4049b8:	43 00 00 00 01 00 02 00 	addiu $2,$0,1
  4049c0:	34 00 00 00 70 8f 02 1c 	sw $2,-28816($28)
  4049c8:	42 00 00 00 00 02 00 00 	addu $2,$0,$0
  4049d0:	34 00 00 00 74 8f 00 1c 	sw $0,-28812($28)
  4049d8:	03 00 00 00 00 00 00 1f 	jr $31

004049e0 <settmpbrk>:
  4049e0:	43 00 00 00 04 00 02 00 	addiu $2,$0,4
  4049e8:	a2 00 00 00 00 10 01 00 	lui $1,4096
  4049f0:	30 00 00 00 44 5e 02 01 	sb $2,24132($1)
  4049f8:	a2 00 00 00 00 10 01 00 	lui $1,4096
  404a00:	34 00 00 00 3c 5e 04 01 	sw $4,24124($1)
  404a08:	03 00 00 00 00 00 00 1f 	jr $31

00404a10 <rsttmpbrk>:
  404a10:	a2 00 00 00 00 10 01 00 	lui $1,4096
  404a18:	30 00 00 00 44 5e 00 01 	sb $0,24132($1)
  404a20:	03 00 00 00 00 00 00 1f 	jr $31
	...

00404a30 <bs>:
  404a30:	43 00 00 00 b8 fb 1d 1d 	addiu $29,$29,-1096
  404a38:	34 00 00 00 20 04 10 1d 	sw $16,1056($29)
  404a40:	a2 00 00 00 02 10 10 00 	lui $16,4098
  404a48:	43 00 00 00 c4 f8 10 10 	addiu $16,$16,-1852
  404a50:	34 00 00 00 44 04 1f 1d 	sw $31,1092($29)
  404a58:	34 00 00 00 40 04 1e 1d 	sw $30,1088($29)
  404a60:	34 00 00 00 3c 04 17 1d 	sw $23,1084($29)
  404a68:	34 00 00 00 38 04 16 1d 	sw $22,1080($29)
  404a70:	34 00 00 00 34 04 15 1d 	sw $21,1076($29)
  404a78:	34 00 00 00 30 04 14 1d 	sw $20,1072($29)
  404a80:	34 00 00 00 2c 04 13 1d 	sw $19,1068($29)
  404a88:	34 00 00 00 28 04 12 1d 	sw $18,1064($29)
  404a90:	34 00 00 00 24 04 11 1d 	sw $17,1060($29)
  404a98:	28 00 00 00 00 00 03 10 	lw $3,0($16)
  404aa0:	a2 00 00 00 02 10 02 00 	lui $2,4098
  404aa8:	28 00 00 00 c0 f8 02 02 	lw $2,-1856($2)
  404ab0:	45 00 00 00 00 17 02 03 	subu $23,$3,$2
  404ab8:	09 00 00 00 0c 00 00 17 	bltz $23,404af0 <bs+0xc0>
  404ac0:	a2 00 00 00 00 10 04 00 	lui $4,4096
  404ac8:	43 00 00 00 98 5e 04 04 	addiu $4,$4,24216
  404ad0:	43 00 00 00 04 00 05 00 	addiu $5,$0,4
  404ad8:	02 00 00 00 1c 7d 10 00 	jal 41f470 <transinit>
  404ae0:	43 00 00 00 ff ff 03 00 	addiu $3,$0,-1
  404ae8:	06 00 00 00 04 00 03 02 	bne $2,$3,404b00 <bs+0xd0>
  404af0:	43 00 00 00 ff ff 02 00 	addiu $2,$0,-1
  404af8:	01 00 00 00 68 13 10 00 	j 404da0 <bs+0x370>
  404b00:	05 00 00 00 a4 00 00 17 	beq $23,$0,404d98 <bs+0x368>
  404b08:	43 00 00 00 fc ff 1e 10 	addiu $30,$16,-4
  404b10:	43 00 00 00 04 00 16 10 	addiu $22,$16,4
  404b18:	43 00 00 00 10 00 08 1d 	addiu $8,$29,16
  404b20:	34 00 00 00 10 04 08 1d 	sw $8,1040($29)
  404b28:	42 00 00 00 00 11 17 00 	addu $17,$0,$23
  404b30:	5c 00 00 00 01 04 02 17 	slti $2,$23,1025
  404b38:	06 00 00 00 02 00 00 02 	bne $2,$0,404b48 <bs+0x118>
  404b40:	43 00 00 00 00 04 11 00 	addiu $17,$0,1024
  404b48:	43 00 00 00 e1 04 04 00 	addiu $4,$0,1249
  404b50:	28 00 00 00 00 00 05 1e 	lw $5,0($30)
  404b58:	43 00 00 00 10 00 06 1d 	addiu $6,$29,16
  404b60:	42 00 00 00 00 07 11 00 	addu $7,$0,$17
  404b68:	02 00 00 00 3e 7d 10 00 	jal 41f4f8 <rdwr>
  404b70:	43 00 00 00 ff ff 03 00 	addiu $3,$0,-1
  404b78:	05 00 00 00 dc ff 03 02 	beq $2,$3,404af0 <bs+0xc0>
  404b80:	28 00 00 00 08 00 02 1e 	lw $2,8($30)
  404b88:	49 00 00 00 00 00 02 11 	divu $0,$17,$2
  404b90:	06 00 00 00 02 00 00 02 	bne $2,$0,404ba0 <bs+0x170>
  404b98:	a1 00 00 00 07 00 00 00 	break 
  404ba0:	4c 00 00 00 00 04 00 00 	mflo $4
  404ba8:	45 00 00 00 00 17 11 17 	subu $23,$23,$17
  404bb0:	42 00 00 00 00 10 00 00 	addu $16,$0,$0
  404bb8:	42 00 00 00 00 13 00 00 	addu $19,$0,$0
  404bc0:	05 00 00 00 72 00 00 04 	beq $4,$0,404d90 <bs+0x360>
  404bc8:	28 00 00 00 10 04 12 1d 	lw $18,1040($29)
  404bd0:	42 00 00 00 00 15 12 00 	addu $21,$0,$18
  404bd8:	42 00 00 00 00 14 12 00 	addu $20,$0,$18
  404be0:	28 00 00 00 00 00 03 16 	lw $3,0($22)
  404be8:	43 00 00 00 02 00 02 00 	addiu $2,$0,2
  404bf0:	05 00 00 00 20 00 02 03 	beq $3,$2,404c78 <bs+0x248>
  404bf8:	5e 00 00 00 03 00 02 03 	sltiu $2,$3,3
  404c00:	05 00 00 00 06 00 00 02 	beq $2,$0,404c20 <bs+0x1f0>
  404c08:	43 00 00 00 01 00 02 00 	addiu $2,$0,1
  404c10:	05 00 00 00 08 00 02 03 	beq $3,$2,404c38 <bs+0x208>
  404c18:	01 00 00 00 3e 13 10 00 	j 404cf8 <bs+0x2c8>
  404c20:	43 00 00 00 04 00 08 00 	addiu $8,$0,4
  404c28:	05 00 00 00 22 00 08 03 	beq $3,$8,404cb8 <bs+0x288>
  404c30:	01 00 00 00 3e 13 10 00 	j 404cf8 <bs+0x2c8>
  404c38:	22 00 00 00 00 00 06 14 	lbu $6,0($20)
  404c40:	28 00 00 00 08 00 02 16 	lw $2,8($22)
  404c48:	06 00 00 00 2a 00 02 06 	bne $6,$2,404cf8 <bs+0x2c8>
  404c50:	28 00 00 00 f8 ff 05 16 	lw $5,-8($22)
  404c58:	43 00 00 00 01 00 10 10 	addiu $16,$16,1
  404c60:	a2 00 00 00 00 10 04 00 	lui $4,4096
  404c68:	43 00 00 00 10 01 04 04 	addiu $4,$4,272
  404c70:	01 00 00 00 3c 13 10 00 	j 404cf0 <bs+0x2c0>
  404c78:	26 00 00 00 00 00 06 12 	lhu $6,0($18)
  404c80:	28 00 00 00 08 00 02 16 	lw $2,8($22)
  404c88:	06 00 00 00 1a 00 02 06 	bne $6,$2,404cf8 <bs+0x2c8>
  404c90:	28 00 00 00 f8 ff 05 16 	lw $5,-8($22)
  404c98:	43 00 00 00 01 00 10 10 	addiu $16,$16,1
  404ca0:	a2 00 00 00 00 10 04 00 	lui $4,4096
  404ca8:	43 00 00 00 20 01 04 04 	addiu $4,$4,288
  404cb0:	01 00 00 00 3c 13 10 00 	j 404cf0 <bs+0x2c0>
  404cb8:	28 00 00 00 00 00 06 15 	lw $6,0($21)
  404cc0:	28 00 00 00 08 00 02 16 	lw $2,8($22)
  404cc8:	06 00 00 00 0a 00 02 06 	bne $6,$2,404cf8 <bs+0x2c8>
  404cd0:	28 00 00 00 f8 ff 05 16 	lw $5,-8($22)
  404cd8:	43 00 00 00 01 00 10 10 	addiu $16,$16,1
  404ce0:	a2 00 00 00 00 10 04 00 	lui $4,4096
  404ce8:	43 00 00 00 30 01 04 04 	addiu $4,$4,304
  404cf0:	02 00 00 00 0a b6 10 00 	jal 42d828 <PPrintf>
  404cf8:	43 00 00 00 04 00 08 00 	addiu $8,$0,4
  404d00:	06 00 00 00 06 00 08 10 	bne $16,$8,404d20 <bs+0x2f0>
  404d08:	42 00 00 00 00 10 00 00 	addu $16,$0,$0
  404d10:	43 00 00 00 20 82 04 1c 	addiu $4,$28,-32224
  404d18:	02 00 00 00 0a b6 10 00 	jal 42d828 <PPrintf>
  404d20:	28 00 00 00 08 00 03 1e 	lw $3,8($30)
  404d28:	49 00 00 00 00 00 03 11 	divu $0,$17,$3
  404d30:	06 00 00 00 02 00 00 03 	bne $3,$0,404d40 <bs+0x310>
  404d38:	a1 00 00 00 07 00 00 00 	break 
  404d40:	4c 00 00 00 00 04 00 00 	mflo $4
  404d48:	43 00 00 00 04 00 15 15 	addiu $21,$21,4
  404d50:	43 00 00 00 02 00 12 12 	addiu $18,$18,2
  404d58:	28 00 00 00 00 00 02 1e 	lw $2,0($30)
  404d60:	43 00 00 00 01 00 14 14 	addiu $20,$20,1
  404d68:	43 00 00 00 01 00 13 13 	addiu $19,$19,1
  404d70:	42 00 00 00 00 02 03 02 	addu $2,$2,$3
  404d78:	34 00 00 00 00 00 02 1e 	sw $2,0($30)
  404d80:	5d 00 00 00 00 02 04 13 	sltu $2,$19,$4
  404d88:	06 00 00 00 94 ff 00 02 	bne $2,$0,404be0 <bs+0x1b0>
  404d90:	06 00 00 00 64 ff 00 17 	bne $23,$0,404b28 <bs+0xf8>
  404d98:	42 00 00 00 00 02 00 00 	addu $2,$0,$0
  404da0:	28 00 00 00 44 04 1f 1d 	lw $31,1092($29)
  404da8:	28 00 00 00 40 04 1e 1d 	lw $30,1088($29)
  404db0:	28 00 00 00 3c 04 17 1d 	lw $23,1084($29)
  404db8:	28 00 00 00 38 04 16 1d 	lw $22,1080($29)
  404dc0:	28 00 00 00 34 04 15 1d 	lw $21,1076($29)
  404dc8:	28 00 00 00 30 04 14 1d 	lw $20,1072($29)
  404dd0:	28 00 00 00 2c 04 13 1d 	lw $19,1068($29)
  404dd8:	28 00 00 00 28 04 12 1d 	lw $18,1064($29)
  404de0:	28 00 00 00 24 04 11 1d 	lw $17,1060($29)
  404de8:	28 00 00 00 20 04 10 1d 	lw $16,1056($29)
  404df0:	43 00 00 00 48 04 1d 1d 	addiu $29,$29,1096
  404df8:	03 00 00 00 00 00 00 1f 	jr $31

00404e00 <ckiob>:
  404e00:	43 00 00 00 e0 ff 1d 1d 	addiu $29,$29,-32
  404e08:	34 00 00 00 18 00 10 1d 	sw $16,24($29)
  404e10:	42 00 00 00 00 10 04 00 	addu $16,$0,$4
  404e18:	43 00 00 00 30 82 04 1c 	addiu $4,$28,-32208
  404e20:	43 00 00 00 10 00 05 1d 	addiu $5,$29,16
  404e28:	43 00 00 00 14 00 06 1d 	addiu $6,$29,20
  404e30:	34 00 00 00 1c 00 1f 1d 	sw $31,28($29)
  404e38:	02 00 00 00 34 39 10 00 	jal 40e4d0 <getexpr>
  404e40:	43 00 00 00 ff ff 03 00 	addiu $3,$0,-1
  404e48:	05 00 00 00 18 00 03 02 	beq $2,$3,404eb0 <ckiob+0xb0>
  404e50:	28 00 00 00 14 00 02 1d 	lw $2,20($29)
  404e58:	06 00 00 00 04 00 10 02 	bne $2,$16,404e70 <ckiob+0x70>
  404e60:	28 00 00 00 f0 89 02 1c 	lw $2,-30224($28)
  404e68:	01 00 00 00 b2 13 10 00 	j 404ec8 <ckiob+0xc8>
  404e70:	43 00 00 00 10 00 02 02 	addiu $2,$2,16
  404e78:	34 00 00 00 14 00 02 1d 	sw $2,20($29)
  404e80:	06 00 00 00 04 00 10 02 	bne $2,$16,404e98 <ckiob+0x98>
  404e88:	28 00 00 00 f4 89 02 1c 	lw $2,-30220($28)
  404e90:	01 00 00 00 b2 13 10 00 	j 404ec8 <ckiob+0xc8>
  404e98:	43 00 00 00 10 00 02 02 	addiu $2,$2,16
  404ea0:	34 00 00 00 14 00 02 1d 	sw $2,20($29)
  404ea8:	05 00 00 00 04 00 10 02 	beq $2,$16,404ec0 <ckiob+0xc0>
  404eb0:	42 00 00 00 00 02 10 00 	addu $2,$0,$16
  404eb8:	01 00 00 00 b2 13 10 00 	j 404ec8 <ckiob+0xc8>
  404ec0:	28 00 00 00 f8 89 02 1c 	lw $2,-30216($28)
  404ec8:	28 00 00 00 1c 00 1f 1d 	lw $31,28($29)
  404ed0:	28 00 00 00 18 00 10 1d 	lw $16,24($29)
  404ed8:	43 00 00 00 20 00 1d 1d 	addiu $29,$29,32
  404ee0:	03 00 00 00 00 00 00 1f 	jr $31
	...

00404ef0 <classify>:
  404ef0:	a2 00 00 00 00 fc 02 00 	lui $2,64512
  404ef8:	4e 00 00 00 00 05 02 04 	and $5,$4,$2
  404f00:	a2 00 00 00 00 80 03 00 	lui $3,32768
  404f08:	45 00 00 00 00 03 03 05 	subu $3,$5,$3
  404f10:	a2 00 00 00 00 1c 02 00 	lui $2,7168
  404f18:	5d 00 00 00 00 02 03 02 	sltu $2,$2,$3
  404f20:	06 00 00 00 12 00 00 02 	bne $2,$0,404f70 <classify+0x80>
  404f28:	a2 00 00 00 ff 83 03 00 	lui $3,33791
  404f30:	51 00 00 00 ff ff 03 03 	ori $3,$3,65535
  404f38:	a2 00 00 00 00 fc 02 00 	lui $2,64512
  404f40:	51 00 00 00 e0 ff 02 02 	ori $2,$2,65504
  404f48:	5d 00 00 00 00 03 04 03 	sltu $3,$3,$4
  404f50:	06 00 00 00 1a 00 00 03 	bne $3,$0,404fc0 <classify+0xd0>
  404f58:	a2 00 00 00 00 fc 02 00 	lui $2,64512
  404f60:	51 00 00 00 00 f8 02 02 	ori $2,$2,63488
  404f68:	01 00 00 00 f0 13 10 00 	j 404fc0 <classify+0xd0>
  404f70:	a2 00 00 00 00 f4 02 00 	lui $2,62464
  404f78:	06 00 00 00 06 00 02 05 	bne $5,$2,404f98 <classify+0xa8>
  404f80:	a2 00 00 00 00 fc 02 00 	lui $2,64512
  404f88:	51 00 00 00 e0 ff 02 02 	ori $2,$2,65504
  404f90:	01 00 00 00 f0 13 10 00 	j 404fc0 <classify+0xd0>
  404f98:	a2 00 00 00 00 fc 02 00 	lui $2,64512
  404fa0:	51 00 00 00 00 fc 02 02 	ori $2,$2,64512
  404fa8:	a2 00 00 00 00 f0 03 00 	lui $3,61440
  404fb0:	05 00 00 00 02 00 03 05 	beq $5,$3,404fc0 <classify+0xd0>
  404fb8:	a2 00 00 00 00 fc 02 00 	lui $2,64512
  404fc0:	03 00 00 00 00 00 00 1f 	jr $31
	...

00404fd0 <cm>:
  404fd0:	28 00 00 00 1c 88 02 1c 	lw $2,-30692($28)
  404fd8:	43 00 00 00 d8 ff 1d 1d 	addiu $29,$29,-40
  404fe0:	34 00 00 00 20 00 1f 1d 	sw $31,32($29)
  404fe8:	34 00 00 00 1c 00 11 1d 	sw $17,28($29)
  404ff0:	34 00 00 00 18 00 10 1d 	sw $16,24($29)
  404ff8:	05 00 00 00 94 00 00 02 	beq $2,$0,405250 <cm+0x280>
  405000:	28 00 00 00 70 82 03 1c 	lw $3,-32144($28)
  405008:	43 00 00 00 04 00 02 00 	addiu $2,$0,4
  405010:	06 00 00 00 88 00 02 03 	bne $3,$2,405238 <cm+0x268>
  405018:	a2 00 00 00 00 10 10 00 	lui $16,4096
  405020:	43 00 00 00 ec 5f 10 10 	addiu $16,$16,24556
  405028:	28 00 00 00 00 00 04 10 	lw $4,0($16)
  405030:	02 00 00 00 82 3b 10 00 	jal 40ee08 <str_toupper>
  405038:	28 00 00 00 00 00 05 10 	lw $5,0($16)
  405040:	43 00 00 00 40 82 04 1c 	addiu $4,$28,-32192
  405048:	02 00 00 00 64 ba 10 00 	jal 42e990 <strcmp>
  405050:	06 00 00 00 06 00 00 02 	bne $2,$0,405070 <cm+0xa0>
  405058:	a2 00 00 00 01 10 10 00 	lui $16,4097
  405060:	43 00 00 00 70 6a 10 10 	addiu $16,$16,27248
  405068:	01 00 00 00 2e 14 10 00 	j 4050b8 <cm+0xe8>
  405070:	28 00 00 00 00 00 05 10 	lw $5,0($16)
  405078:	43 00 00 00 44 82 04 1c 	addiu $4,$28,-32188
  405080:	02 00 00 00 64 ba 10 00 	jal 42e990 <strcmp>
  405088:	05 00 00 00 06 00 00 02 	beq $2,$0,4050a8 <cm+0xd8>
  405090:	a2 00 00 00 00 10 04 00 	lui $4,4096
  405098:	43 00 00 00 40 01 04 04 	addiu $4,$4,320
  4050a0:	01 00 00 00 66 14 10 00 	j 405198 <cm+0x1c8>
  4050a8:	a2 00 00 00 01 10 10 00 	lui $16,4097
  4050b0:	43 00 00 00 20 dc 10 10 	addiu $16,$16,-9184
  4050b8:	a2 00 00 00 00 10 11 00 	lui $17,4096
  4050c0:	43 00 00 00 f0 5f 11 11 	addiu $17,$17,24560
  4050c8:	28 00 00 00 00 00 04 11 	lw $4,0($17)
  4050d0:	02 00 00 00 82 3b 10 00 	jal 40ee08 <str_toupper>
  4050d8:	28 00 00 00 00 00 05 11 	lw $5,0($17)
  4050e0:	43 00 00 00 48 82 04 1c 	addiu $4,$28,-32184
  4050e8:	02 00 00 00 64 ba 10 00 	jal 42e990 <strcmp>
  4050f0:	06 00 00 00 04 00 00 02 	bne $2,$0,405108 <cm+0x138>
  4050f8:	43 00 00 00 08 00 10 10 	addiu $16,$16,8
  405100:	01 00 00 00 6e 14 10 00 	j 4051b8 <cm+0x1e8>
  405108:	28 00 00 00 00 00 05 11 	lw $5,0($17)
  405110:	43 00 00 00 4c 82 04 1c 	addiu $4,$28,-32180
  405118:	02 00 00 00 64 ba 10 00 	jal 42e990 <strcmp>
  405120:	06 00 00 00 04 00 00 02 	bne $2,$0,405138 <cm+0x168>
  405128:	43 00 00 00 14 00 10 10 	addiu $16,$16,20
  405130:	01 00 00 00 6e 14 10 00 	j 4051b8 <cm+0x1e8>
  405138:	28 00 00 00 00 00 05 11 	lw $5,0($17)
  405140:	43 00 00 00 54 82 04 1c 	addiu $4,$28,-32172
  405148:	02 00 00 00 64 ba 10 00 	jal 42e990 <strcmp>
  405150:	06 00 00 00 04 00 00 02 	bne $2,$0,405168 <cm+0x198>
  405158:	43 00 00 00 20 00 10 10 	addiu $16,$16,32
  405160:	01 00 00 00 6e 14 10 00 	j 4051b8 <cm+0x1e8>
  405168:	28 00 00 00 00 00 05 11 	lw $5,0($17)
  405170:	43 00 00 00 5c 82 04 1c 	addiu $4,$28,-32164
  405178:	02 00 00 00 64 ba 10 00 	jal 42e990 <strcmp>
  405180:	05 00 00 00 0a 00 00 02 	beq $2,$0,4051b0 <cm+0x1e0>
  405188:	a2 00 00 00 00 10 04 00 	lui $4,4096
  405190:	43 00 00 00 60 01 04 04 	addiu $4,$4,352
  405198:	02 00 00 00 0a b6 10 00 	jal 42d828 <PPrintf>
  4051a0:	43 00 00 00 ff ff 02 00 	addiu $2,$0,-1
  4051a8:	01 00 00 00 9c 14 10 00 	j 405270 <cm+0x2a0>
  4051b0:	43 00 00 00 24 00 10 10 	addiu $16,$16,36
  4051b8:	a2 00 00 00 00 10 04 00 	lui $4,4096
  4051c0:	28 00 00 00 f4 5f 04 04 	lw $4,24564($4)
  4051c8:	43 00 00 00 10 00 05 1d 	addiu $5,$29,16
  4051d0:	43 00 00 00 14 00 06 1d 	addiu $6,$29,20
  4051d8:	02 00 00 00 34 39 10 00 	jal 40e4d0 <getexpr>
  4051e0:	43 00 00 00 ff ff 03 00 	addiu $3,$0,-1
  4051e8:	05 00 00 00 06 00 03 02 	beq $2,$3,405208 <cm+0x238>
  4051f0:	28 00 00 00 14 00 02 1d 	lw $2,20($29)
  4051f8:	34 00 00 00 00 00 02 10 	sw $2,0($16)
  405200:	01 00 00 00 9a 14 10 00 	j 405268 <cm+0x298>
  405208:	a2 00 00 00 00 10 05 00 	lui $5,4096
  405210:	28 00 00 00 f0 5f 05 05 	lw $5,24560($5)
  405218:	a2 00 00 00 00 10 04 00 	lui $4,4096
  405220:	43 00 00 00 80 01 04 04 	addiu $4,$4,384
  405228:	02 00 00 00 0a b6 10 00 	jal 42d828 <PPrintf>
  405230:	01 00 00 00 9a 14 10 00 	j 405268 <cm+0x298>
  405238:	a2 00 00 00 00 10 04 00 	lui $4,4096
  405240:	43 00 00 00 98 01 04 04 	addiu $4,$4,408
  405248:	01 00 00 00 98 14 10 00 	j 405260 <cm+0x290>
  405250:	a2 00 00 00 00 10 04 00 	lui $4,4096
  405258:	43 00 00 00 bc 01 04 04 	addiu $4,$4,444
  405260:	02 00 00 00 0a b6 10 00 	jal 42d828 <PPrintf>
  405268:	42 00 00 00 00 02 00 00 	addu $2,$0,$0
  405270:	28 00 00 00 20 00 1f 1d 	lw $31,32($29)
  405278:	28 00 00 00 1c 00 11 1d 	lw $17,28($29)
  405280:	28 00 00 00 18 00 10 1d 	lw $16,24($29)
  405288:	43 00 00 00 28 00 1d 1d 	addiu $29,$29,40
  405290:	03 00 00 00 00 00 00 1f 	jr $31
	...

004052a0 <parse>:
  4052a0:	43 00 00 00 c8 ff 1d 1d 	addiu $29,$29,-56
  4052a8:	34 00 00 00 18 00 10 1d 	sw $16,24($29)
  4052b0:	42 00 00 00 00 10 05 00 	addu $16,$0,$5
  4052b8:	34 00 00 00 30 00 1f 1d 	sw $31,48($29)
  4052c0:	34 00 00 00 2c 00 15 1d 	sw $21,44($29)
  4052c8:	34 00 00 00 28 00 14 1d 	sw $20,40($29)
  4052d0:	34 00 00 00 24 00 13 1d 	sw $19,36($29)
  4052d8:	34 00 00 00 20 00 12 1d 	sw $18,32($29)
  4052e0:	34 00 00 00 1c 00 11 1d 	sw $17,28($29)
  4052e8:	34 00 00 00 74 82 00 1c 	sw $0,-32140($28)
  4052f0:	02 00 00 00 f6 15 10 00 	jal 4057d8 <pname>
  4052f8:	28 00 00 00 70 82 02 1c 	lw $2,-32144($28)
  405300:	06 00 00 00 0e 00 00 02 	bne $2,$0,405340 <parse+0xa0>
  405308:	a2 00 00 00 00 10 03 00 	lui $3,4096
  405310:	43 00 00 00 38 60 03 03 	addiu $3,$3,24632
  405318:	28 00 00 00 00 00 02 03 	lw $2,0($3)
  405320:	5d 00 00 00 00 02 02 00 	sltu $2,$0,$2
  405328:	45 00 00 00 00 02 02 00 	subu $2,$0,$2
  405330:	4e 00 00 00 00 02 03 02 	and $2,$2,$3
  405338:	01 00 00 00 e4 15 10 00 	j 405790 <parse+0x4f0>
  405340:	a2 00 00 00 00 10 13 00 	lui $19,4096
  405348:	43 00 00 00 e4 5f 13 13 	addiu $19,$19,24548
  405350:	43 00 00 00 08 00 15 13 	addiu $21,$19,8
  405358:	a2 00 00 00 02 10 12 00 	lui $18,4098
  405360:	43 00 00 00 c0 f8 12 12 	addiu $18,$18,-1856
  405368:	43 00 00 00 10 00 14 12 	addiu $20,$18,16
  405370:	28 00 00 00 00 00 03 10 	lw $3,0($16)
  405378:	43 00 00 00 01 00 02 00 	addiu $2,$0,1
  405380:	06 00 00 00 f0 00 02 03 	bne $3,$2,405748 <parse+0x4a8>
  405388:	a2 00 00 00 00 10 04 00 	lui $4,4096
  405390:	28 00 00 00 e8 5f 04 04 	lw $4,24552($4)
  405398:	02 00 00 00 9e 16 10 00 	jal 405a78 <strtolower>
  4053a0:	28 00 00 00 04 00 04 10 	lw $4,4($16)
  4053a8:	42 00 00 00 00 05 02 00 	addu $5,$0,$2
  4053b0:	02 00 00 00 ba 16 10 00 	jal 405ae8 <choice>
  4053b8:	42 00 00 00 00 11 02 00 	addu $17,$0,$2
  4053c0:	05 00 00 00 e0 00 00 11 	beq $17,$0,405748 <parse+0x4a8>
  4053c8:	43 00 00 00 04 00 02 00 	addiu $2,$0,4
  4053d0:	34 00 00 00 10 00 00 12 	sw $0,16($18)
  4053d8:	34 00 00 00 04 00 00 12 	sw $0,4($18)
  4053e0:	34 00 00 00 00 00 00 12 	sw $0,0($18)
  4053e8:	34 00 00 00 14 00 02 12 	sw $2,20($18)
  4053f0:	34 00 00 00 08 00 02 12 	sw $2,8($18)
  4053f8:	28 00 00 00 04 00 03 11 	lw $3,4($17)
  405400:	06 00 00 00 06 00 00 03 	bne $3,$0,405420 <parse+0x180>
  405408:	28 00 00 00 70 82 02 1c 	lw $2,-32144($28)
  405410:	5c 00 00 00 02 00 02 02 	slti $2,$2,2
  405418:	05 00 00 00 d0 00 00 02 	beq $2,$0,405760 <parse+0x4c0>
  405420:	28 00 00 00 74 82 02 1c 	lw $2,-32140($28)
  405428:	4f 00 00 00 40 00 02 02 	andi $2,$2,64
  405430:	05 00 00 00 22 00 00 02 	beq $2,$0,4054c0 <parse+0x220>
  405438:	4f 00 00 00 40 00 02 03 	andi $2,$3,64
  405440:	05 00 00 00 c6 00 00 02 	beq $2,$0,405760 <parse+0x4c0>
  405448:	28 00 00 00 08 00 10 11 	lw $16,8($17)
  405450:	05 00 00 00 1a 00 00 10 	beq $16,$0,4054c0 <parse+0x220>
  405458:	28 00 00 00 00 00 02 10 	lw $2,0($16)
  405460:	05 00 00 00 16 00 00 02 	beq $2,$0,4054c0 <parse+0x220>
  405468:	28 00 00 00 70 82 02 1c 	lw $2,-32144($28)
  405470:	55 00 00 00 02 02 02 00 	sll $2,$2,0x2
  405478:	42 00 00 00 00 02 13 02 	addu $2,$2,$19
  405480:	28 00 00 00 00 00 04 02 	lw $4,0($2)
  405488:	02 00 00 00 9e 16 10 00 	jal 405a78 <strtolower>
  405490:	28 00 00 00 00 00 04 10 	lw $4,0($16)
  405498:	42 00 00 00 00 05 02 00 	addu $5,$0,$2
  4054a0:	02 00 00 00 64 ba 10 00 	jal 42e990 <strcmp>
  4054a8:	05 00 00 00 1a 00 00 02 	beq $2,$0,405518 <parse+0x278>
  4054b0:	43 00 00 00 08 00 10 10 	addiu $16,$16,8
  4054b8:	06 00 00 00 e6 ff 00 10 	bne $16,$0,405458 <parse+0x1b8>
  4054c0:	28 00 00 00 04 00 02 11 	lw $2,4($17)
  4054c8:	4f 00 00 00 00 01 02 02 	andi $2,$2,256
  4054d0:	05 00 00 00 1e 00 00 02 	beq $2,$0,405550 <parse+0x2b0>
  4054d8:	28 00 00 00 70 82 02 1c 	lw $2,-32144($28)
  4054e0:	5c 00 00 00 02 00 02 02 	slti $2,$2,2
  4054e8:	06 00 00 00 18 00 00 02 	bne $2,$0,405550 <parse+0x2b0>
  4054f0:	28 00 00 00 74 82 03 1c 	lw $3,-32140($28)
  4054f8:	42 00 00 00 00 02 11 00 	addu $2,$0,$17
  405500:	51 00 00 00 00 01 03 03 	ori $3,$3,256
  405508:	34 00 00 00 74 82 03 1c 	sw $3,-32140($28)
  405510:	01 00 00 00 e4 15 10 00 	j 405790 <parse+0x4f0>
  405518:	22 00 00 00 04 00 02 10 	lbu $2,4($16)
  405520:	a2 00 00 00 02 10 01 00 	lui $1,4098
  405528:	34 00 00 00 c8 f8 02 01 	sw $2,-1848($1)
  405530:	28 00 00 00 04 00 02 10 	lw $2,4($16)
  405538:	a2 00 00 00 02 10 01 00 	lui $1,4098
  405540:	34 00 00 00 d4 f8 02 01 	sw $2,-1836($1)
  405548:	01 00 00 00 30 15 10 00 	j 4054c0 <parse+0x220>
  405550:	28 00 00 00 04 00 02 11 	lw $2,4($17)
  405558:	4f 00 00 00 10 00 02 02 	andi $2,$2,16
  405560:	05 00 00 00 24 00 00 02 	beq $2,$0,4055f8 <parse+0x358>
  405568:	02 00 00 00 16 3a 10 00 	jal 40e858 <getrange>
  405570:	06 00 00 00 7a 00 00 02 	bne $2,$0,405760 <parse+0x4c0>
  405578:	28 00 00 00 04 00 02 11 	lw $2,4($17)
  405580:	4f 00 00 00 24 00 02 02 	andi $2,$2,36
  405588:	05 00 00 00 1a 00 00 02 	beq $2,$0,4055f8 <parse+0x358>
  405590:	28 00 00 00 74 82 02 1c 	lw $2,-32140($28)
  405598:	4f 00 00 00 08 00 02 02 	andi $2,$2,8
  4055a0:	05 00 00 00 06 00 00 02 	beq $2,$0,4055c0 <parse+0x320>
  4055a8:	a2 00 00 00 00 10 04 00 	lui $4,4096
  4055b0:	28 00 00 00 f0 5f 04 04 	lw $4,24560($4)
  4055b8:	01 00 00 00 74 15 10 00 	j 4055d0 <parse+0x330>
  4055c0:	a2 00 00 00 00 10 04 00 	lui $4,4096
  4055c8:	28 00 00 00 f4 5f 04 04 	lw $4,24564($4)
  4055d0:	43 00 00 00 10 00 05 1d 	addiu $5,$29,16
  4055d8:	a2 00 00 00 02 10 06 00 	lui $6,4098
  4055e0:	43 00 00 00 d0 f8 06 06 	addiu $6,$6,-1840
  4055e8:	02 00 00 00 b0 3a 10 00 	jal 40eac0 <getdata>
  4055f0:	06 00 00 00 5a 00 00 02 	bne $2,$0,405760 <parse+0x4c0>
  4055f8:	28 00 00 00 04 00 02 11 	lw $2,4($17)
  405600:	4f 00 00 00 03 00 02 02 	andi $2,$2,3
  405608:	05 00 00 00 26 00 00 02 	beq $2,$0,4056a8 <parse+0x408>
  405610:	28 00 00 00 00 00 04 15 	lw $4,0($21)
  405618:	43 00 00 00 10 00 05 1d 	addiu $5,$29,16
  405620:	42 00 00 00 00 06 14 00 	addu $6,$0,$20
  405628:	02 00 00 00 34 39 10 00 	jal 40e4d0 <getexpr>
  405630:	06 00 00 00 4a 00 00 02 	bne $2,$0,405760 <parse+0x4c0>
  405638:	28 00 00 00 04 00 02 11 	lw $2,4($17)
  405640:	4f 00 00 00 02 00 02 02 	andi $2,$2,2
  405648:	05 00 00 00 16 00 00 02 	beq $2,$0,4056a8 <parse+0x408>
  405650:	28 00 00 00 00 00 02 14 	lw $2,0($20)
  405658:	a2 00 00 00 02 10 01 00 	lui $1,4098
  405660:	34 00 00 00 c0 f8 02 01 	sw $2,-1856($1)
  405668:	28 00 00 00 04 00 02 11 	lw $2,4($17)
  405670:	4f 00 00 00 04 00 02 02 	andi $2,$2,4
  405678:	05 00 00 00 0a 00 00 02 	beq $2,$0,4056a8 <parse+0x408>
  405680:	28 00 00 00 04 00 04 15 	lw $4,4($21)
  405688:	43 00 00 00 10 00 05 1d 	addiu $5,$29,16
  405690:	42 00 00 00 00 06 14 00 	addu $6,$0,$20
  405698:	02 00 00 00 b0 3a 10 00 	jal 40eac0 <getdata>
  4056a0:	06 00 00 00 2e 00 00 02 	bne $2,$0,405760 <parse+0x4c0>
  4056a8:	28 00 00 00 04 00 02 11 	lw $2,4($17)
  4056b0:	4f 00 00 00 00 04 02 02 	andi $2,$2,1024
  4056b8:	05 00 00 00 1a 00 00 02 	beq $2,$0,405728 <parse+0x488>
  4056c0:	a2 00 00 00 00 10 05 00 	lui $5,4096
  4056c8:	43 00 00 00 38 60 05 05 	addiu $5,$5,24632
  4056d0:	28 00 00 00 00 00 02 11 	lw $2,0($17)
  4056d8:	28 00 00 00 04 00 03 11 	lw $3,4($17)
  4056e0:	28 00 00 00 08 00 04 11 	lw $4,8($17)
  4056e8:	34 00 00 00 00 00 02 05 	sw $2,0($5)
  4056f0:	34 00 00 00 04 00 03 05 	sw $3,4($5)
  4056f8:	34 00 00 00 08 00 04 05 	sw $4,8($5)
  405700:	28 00 00 00 0c 00 02 11 	lw $2,12($17)
  405708:	28 00 00 00 10 00 03 11 	lw $3,16($17)
  405710:	34 00 00 00 0c 00 02 05 	sw $2,12($5)
  405718:	34 00 00 00 10 00 03 05 	sw $3,16($5)
  405720:	01 00 00 00 ce 15 10 00 	j 405738 <parse+0x498>
  405728:	a2 00 00 00 00 10 01 00 	lui $1,4096
  405730:	34 00 00 00 38 60 00 01 	sw $0,24632($1)
  405738:	42 00 00 00 00 02 11 00 	addu $2,$0,$17
  405740:	01 00 00 00 e4 15 10 00 	j 405790 <parse+0x4f0>
  405748:	43 00 00 00 08 00 10 10 	addiu $16,$16,8
  405750:	28 00 00 00 00 00 02 10 	lw $2,0($16)
  405758:	06 00 00 00 04 ff 00 02 	bne $2,$0,405370 <parse+0xd0>
  405760:	a2 00 00 00 00 10 05 00 	lui $5,4096
  405768:	28 00 00 00 e8 5f 05 05 	lw $5,24552($5)
  405770:	a2 00 00 00 00 10 04 00 	lui $4,4096
  405778:	43 00 00 00 e0 01 04 04 	addiu $4,$4,480
  405780:	02 00 00 00 0a b6 10 00 	jal 42d828 <PPrintf>
  405788:	42 00 00 00 00 02 00 00 	addu $2,$0,$0
  405790:	28 00 00 00 30 00 1f 1d 	lw $31,48($29)
  405798:	28 00 00 00 2c 00 15 1d 	lw $21,44($29)
  4057a0:	28 00 00 00 28 00 14 1d 	lw $20,40($29)
  4057a8:	28 00 00 00 24 00 13 1d 	lw $19,36($29)
  4057b0:	28 00 00 00 20 00 12 1d 	lw $18,32($29)
  4057b8:	28 00 00 00 1c 00 11 1d 	lw $17,28($29)
  4057c0:	28 00 00 00 18 00 10 1d 	lw $16,24($29)
  4057c8:	43 00 00 00 38 00 1d 1d 	addiu $29,$29,56
  4057d0:	03 00 00 00 00 00 00 1f 	jr $31

004057d8 <pname>:
  4057d8:	43 00 00 00 f0 ff 1d 1d 	addiu $29,$29,-16
  4057e0:	42 00 00 00 00 07 00 00 	addu $7,$0,$0
  4057e8:	34 00 00 00 70 82 00 1c 	sw $0,-32144($28)
  4057f0:	43 00 00 00 27 00 0c 00 	addiu $12,$0,39
  4057f8:	43 00 00 00 22 00 0b 00 	addiu $11,$0,34
  405800:	43 00 00 00 2c 00 0a 00 	addiu $10,$0,44
  405808:	43 00 00 00 3b 00 09 00 	addiu $9,$0,59
  405810:	43 00 00 00 20 00 0e 00 	addiu $14,$0,32
  405818:	a2 00 00 00 00 10 0d 00 	lui $13,4096
  405820:	43 00 00 00 e8 5f 0d 0d 	addiu $13,$13,24552
  405828:	42 00 00 00 00 08 0d 00 	addu $8,$0,$13
  405830:	20 00 00 00 00 00 02 04 	lb $2,0($4)
  405838:	28 00 00 00 00 8a 03 1c 	lw $3,-30208($28)
  405840:	01 00 00 00 16 16 10 00 	j 405858 <pname+0x80>
  405848:	43 00 00 00 01 00 04 04 	addiu $4,$4,1
  405850:	20 00 00 00 00 00 02 04 	lb $2,0($4)
  405858:	55 00 00 00 01 02 02 00 	sll $2,$2,0x1
  405860:	42 00 00 00 00 02 03 02 	addu $2,$2,$3
  405868:	26 00 00 00 00 00 02 02 	lhu $2,0($2)
  405870:	4f 00 00 00 10 00 02 02 	andi $2,$2,16
  405878:	06 00 00 00 f2 ff 00 02 	bne $2,$0,405848 <pname+0x70>
  405880:	34 00 00 00 00 00 04 08 	sw $4,0($8)
  405888:	20 00 00 00 00 00 02 04 	lb $2,0($4)
  405890:	05 00 00 00 6c 00 00 02 	beq $2,$0,405a48 <pname+0x270>
  405898:	28 00 00 00 70 82 02 1c 	lw $2,-32144($28)
  4058a0:	43 00 00 00 01 00 02 02 	addiu $2,$2,1
  4058a8:	34 00 00 00 70 82 02 1c 	sw $2,-32144($28)
  4058b0:	06 00 00 00 0e 00 00 07 	bne $7,$0,4058f0 <pname+0x118>
  4058b8:	20 00 00 00 00 00 03 04 	lb $3,0($4)
  4058c0:	43 00 00 00 21 00 02 00 	addiu $2,$0,33
  4058c8:	06 00 00 00 08 00 02 03 	bne $3,$2,4058f0 <pname+0x118>
  4058d0:	a2 00 00 00 00 10 02 00 	lui $2,4096
  4058d8:	43 00 00 00 4c 60 02 02 	addiu $2,$2,24652
  4058e0:	34 00 00 00 00 00 02 0d 	sw $2,0($13)
  4058e8:	01 00 00 00 90 16 10 00 	j 405a40 <pname+0x268>
  4058f0:	20 00 00 00 00 00 02 04 	lb $2,0($4)
  4058f8:	05 00 00 00 02 00 0c 02 	beq $2,$12,405908 <pname+0x130>
  405900:	06 00 00 00 22 00 0b 02 	bne $2,$11,405990 <pname+0x1b8>
  405908:	43 00 00 00 01 00 04 04 	addiu $4,$4,1
  405910:	20 00 00 00 00 00 02 04 	lb $2,0($4)
  405918:	22 00 00 00 00 00 03 04 	lbu $3,0($4)
  405920:	05 00 00 00 12 00 0c 02 	beq $2,$12,405970 <pname+0x198>
  405928:	05 00 00 00 10 00 0b 02 	beq $2,$11,405970 <pname+0x198>
  405930:	43 00 00 00 27 00 06 00 	addiu $6,$0,39
  405938:	43 00 00 00 22 00 05 00 	addiu $5,$0,34
  405940:	05 00 00 00 40 00 00 03 	beq $3,$0,405a48 <pname+0x270>
  405948:	43 00 00 00 01 00 04 04 	addiu $4,$4,1
  405950:	20 00 00 00 00 00 02 04 	lb $2,0($4)
  405958:	22 00 00 00 00 00 03 04 	lbu $3,0($4)
  405960:	05 00 00 00 02 00 06 02 	beq $2,$6,405970 <pname+0x198>
  405968:	06 00 00 00 f4 ff 05 02 	bne $2,$5,405940 <pname+0x168>
  405970:	20 00 00 00 00 00 02 04 	lb $2,0($4)
  405978:	05 00 00 00 32 00 00 02 	beq $2,$0,405a48 <pname+0x270>
  405980:	43 00 00 00 01 00 04 04 	addiu $4,$4,1
  405988:	01 00 00 00 86 16 10 00 	j 405a18 <pname+0x240>
  405990:	28 00 00 00 00 8a 05 1c 	lw $5,-30208($28)
  405998:	42 00 00 00 00 03 02 00 	addu $3,$0,$2
  4059a0:	01 00 00 00 70 16 10 00 	j 4059c0 <pname+0x1e8>
  4059a8:	05 00 00 00 12 00 0e 03 	beq $3,$14,4059f8 <pname+0x220>
  4059b0:	43 00 00 00 01 00 04 04 	addiu $4,$4,1
  4059b8:	20 00 00 00 00 00 03 04 	lb $3,0($4)
  4059c0:	55 00 00 00 01 02 03 00 	sll $2,$3,0x1
  4059c8:	42 00 00 00 00 02 05 02 	addu $2,$2,$5
  4059d0:	26 00 00 00 00 00 02 02 	lhu $2,0($2)
  4059d8:	4f 00 00 00 cb 00 02 02 	andi $2,$2,203
  4059e0:	05 00 00 00 04 00 00 02 	beq $2,$0,4059f8 <pname+0x220>
  4059e8:	05 00 00 00 02 00 0a 03 	beq $3,$10,4059f8 <pname+0x220>
  4059f0:	06 00 00 00 ec ff 09 03 	bne $3,$9,4059a8 <pname+0x1d0>
  4059f8:	20 00 00 00 00 00 02 04 	lb $2,0($4)
  405a00:	06 00 00 00 04 00 09 02 	bne $2,$9,405a18 <pname+0x240>
  405a08:	43 00 00 00 40 00 02 00 	addiu $2,$0,64
  405a10:	34 00 00 00 74 82 02 1c 	sw $2,-32140($28)
  405a18:	20 00 00 00 00 00 02 04 	lb $2,0($4)
  405a20:	05 00 00 00 08 00 00 02 	beq $2,$0,405a48 <pname+0x270>
  405a28:	43 00 00 00 13 00 02 00 	addiu $2,$0,19
  405a30:	05 00 00 00 04 00 02 07 	beq $7,$2,405a48 <pname+0x270>
  405a38:	30 00 00 00 00 00 00 04 	sb $0,0($4)
  405a40:	43 00 00 00 01 00 04 04 	addiu $4,$4,1
  405a48:	43 00 00 00 04 00 08 08 	addiu $8,$8,4
  405a50:	43 00 00 00 01 00 07 07 	addiu $7,$7,1
  405a58:	43 00 00 00 14 00 02 00 	addiu $2,$0,20
  405a60:	06 00 00 00 72 ff 02 07 	bne $7,$2,405830 <pname+0x58>
  405a68:	43 00 00 00 10 00 1d 1d 	addiu $29,$29,16
  405a70:	03 00 00 00 00 00 00 1f 	jr $31

00405a78 <strtolower>:
  405a78:	20 00 00 00 00 00 02 04 	lb $2,0($4)
  405a80:	42 00 00 00 00 03 04 00 	addu $3,$0,$4
  405a88:	05 00 00 00 12 00 00 02 	beq $2,$0,405ad8 <strtolower+0x60>
  405a90:	22 00 00 00 00 00 05 03 	lbu $5,0($3)
  405a98:	43 00 00 00 bf ff 02 05 	addiu $2,$5,-65
  405aa0:	5e 00 00 00 1a 00 02 02 	sltiu $2,$2,26
  405aa8:	05 00 00 00 04 00 00 02 	beq $2,$0,405ac0 <strtolower+0x48>
  405ab0:	51 00 00 00 20 00 02 05 	ori $2,$5,32
  405ab8:	30 00 00 00 00 00 02 03 	sb $2,0($3)
  405ac0:	43 00 00 00 01 00 03 03 	addiu $3,$3,1
  405ac8:	20 00 00 00 00 00 02 03 	lb $2,0($3)
  405ad0:	06 00 00 00 ee ff 00 02 	bne $2,$0,405a90 <strtolower+0x18>
  405ad8:	42 00 00 00 00 02 04 00 	addu $2,$0,$4
  405ae0:	03 00 00 00 00 00 00 1f 	jr $31

00405ae8 <choice>:
  405ae8:	43 00 00 00 e0 ff 1d 1d 	addiu $29,$29,-32
  405af0:	34 00 00 00 10 00 10 1d 	sw $16,16($29)
  405af8:	42 00 00 00 00 10 04 00 	addu $16,$0,$4
  405b00:	34 00 00 00 18 00 1f 1d 	sw $31,24($29)
  405b08:	34 00 00 00 14 00 11 1d 	sw $17,20($29)
  405b10:	28 00 00 00 00 00 02 10 	lw $2,0($16)
  405b18:	42 00 00 00 00 11 05 00 	addu $17,$0,$5
  405b20:	05 00 00 00 12 00 00 02 	beq $2,$0,405b70 <choice+0x88>
  405b28:	28 00 00 00 00 00 05 10 	lw $5,0($16)
  405b30:	42 00 00 00 00 04 11 00 	addu $4,$0,$17
  405b38:	02 00 00 00 64 ba 10 00 	jal 42e990 <strcmp>
  405b40:	06 00 00 00 04 00 00 02 	bne $2,$0,405b58 <choice+0x70>
  405b48:	42 00 00 00 00 02 10 00 	addu $2,$0,$16
  405b50:	01 00 00 00 de 16 10 00 	j 405b78 <choice+0x90>
  405b58:	43 00 00 00 14 00 10 10 	addiu $16,$16,20
  405b60:	28 00 00 00 00 00 02 10 	lw $2,0($16)
  405b68:	06 00 00 00 ee ff 00 02 	bne $2,$0,405b28 <choice+0x40>
  405b70:	42 00 00 00 00 02 00 00 	addu $2,$0,$0
  405b78:	28 00 00 00 18 00 1f 1d 	lw $31,24($29)
  405b80:	28 00 00 00 14 00 11 1d 	lw $17,20($29)
  405b88:	28 00 00 00 10 00 10 1d 	lw $16,16($29)
  405b90:	43 00 00 00 20 00 1d 1d 	addiu $29,$29,32
  405b98:	03 00 00 00 00 00 00 1f 	jr $31

00405ba0 <simexit>:
  405ba0:	43 00 00 00 e8 ff 1d 1d 	addiu $29,$29,-24
  405ba8:	34 00 00 00 10 00 1f 1d 	sw $31,16($29)
  405bb0:	43 00 00 00 80 83 04 1c 	addiu $4,$28,-31872
  405bb8:	02 00 00 00 0a b6 10 00 	jal 42d828 <PPrintf>
  405bc0:	42 00 00 00 00 04 00 00 	addu $4,$0,$0
  405bc8:	02 00 00 00 ec b9 10 00 	jal 42e7b0 <exit>
  405bd0:	28 00 00 00 10 00 1f 1d 	lw $31,16($29)
  405bd8:	43 00 00 00 18 00 1d 1d 	addiu $29,$29,24
  405be0:	03 00 00 00 00 00 00 1f 	jr $31
	...

00405bf0 <load_data>:
  405bf0:	43 00 00 00 a8 ff 1d 1d 	addiu $29,$29,-88
  405bf8:	34 00 00 00 34 00 11 1d 	sw $17,52($29)
  405c00:	42 00 00 00 00 11 04 00 	addu $17,$0,$4
  405c08:	34 00 00 00 48 00 16 1d 	sw $22,72($29)
  405c10:	42 00 00 00 00 16 05 00 	addu $22,$0,$5
  405c18:	34 00 00 00 50 00 1f 1d 	sw $31,80($29)
  405c20:	34 00 00 00 4c 00 17 1d 	sw $23,76($29)
  405c28:	34 00 00 00 44 00 15 1d 	sw $21,68($29)
  405c30:	34 00 00 00 40 00 14 1d 	sw $20,64($29)
  405c38:	34 00 00 00 3c 00 13 1d 	sw $19,60($29)
  405c40:	34 00 00 00 38 00 12 1d 	sw $18,56($29)
  405c48:	34 00 00 00 30 00 10 1d 	sw $16,48($29)
  405c50:	28 00 00 00 00 00 02 11 	lw $2,0($17)
  405c58:	28 00 00 00 68 00 15 1d 	lw $21,104($29)
  405c60:	42 00 00 00 00 12 06 00 	addu $18,$0,$6
  405c68:	42 00 00 00 00 13 07 00 	addu $19,$0,$7
  405c70:	05 00 00 00 32 00 00 02 	beq $2,$0,405d40 <load_data+0x150>
  405c78:	28 00 00 00 00 00 02 12 	lw $2,0($18)
  405c80:	a2 00 00 00 f0 ff 03 00 	lui $3,65520
  405c88:	4e 00 00 00 00 02 03 02 	and $2,$2,$3
  405c90:	06 00 00 00 2a 00 03 02 	bne $2,$3,405d40 <load_data+0x150>
  405c98:	05 00 00 00 04 00 00 13 	beq $19,$0,405cb0 <load_data+0xc0>
  405ca0:	42 00 00 00 00 02 00 00 	addu $2,$0,$0
  405ca8:	01 00 00 00 94 1a 10 00 	j 406a50 <load_data+0xe60>
  405cb0:	28 00 00 00 c0 86 02 1c 	lw $2,-31040($28)
  405cb8:	43 00 00 00 06 00 02 02 	addiu $2,$2,6
  405cc0:	34 00 00 00 c0 86 02 1c 	sw $2,-31040($28)
  405cc8:	05 00 00 00 14 00 00 15 	beq $21,$0,405d20 <load_data+0x130>
  405cd0:	28 00 00 00 20 00 02 11 	lw $2,32($17)
  405cd8:	4f 00 00 00 01 00 02 02 	andi $2,$2,1
  405ce0:	05 00 00 00 0e 00 00 02 	beq $2,$0,405d20 <load_data+0x130>
  405ce8:	28 00 00 00 0c 00 03 11 	lw $3,12($17)
  405cf0:	28 00 00 00 00 00 04 12 	lw $4,0($18)
  405cf8:	42 00 00 00 00 02 00 00 	addu $2,$0,$0
  405d00:	51 00 00 00 43 02 03 03 	ori $3,$3,579
  405d08:	34 00 00 00 10 00 04 11 	sw $4,16($17)
  405d10:	34 00 00 00 0c 00 03 11 	sw $3,12($17)
  405d18:	01 00 00 00 94 1a 10 00 	j 406a50 <load_data+0xe60>
  405d20:	28 00 00 00 00 00 04 12 	lw $4,0($18)
  405d28:	42 00 00 00 00 05 16 00 	addu $5,$0,$22
  405d30:	02 00 00 00 d8 25 10 00 	jal 409760 <ctrl_space_read>
  405d38:	01 00 00 00 94 1a 10 00 	j 406a50 <load_data+0xe60>
  405d40:	05 00 00 00 06 00 00 15 	beq $21,$0,405d60 <load_data+0x170>
  405d48:	28 00 00 00 10 8f 02 1c 	lw $2,-28912($28)
  405d50:	06 00 00 00 06 00 00 02 	bne $2,$0,405d70 <load_data+0x180>
  405d58:	01 00 00 00 60 17 10 00 	j 405d80 <load_data+0x190>
  405d60:	28 00 00 00 00 00 02 11 	lw $2,0($17)
  405d68:	05 00 00 00 04 00 00 02 	beq $2,$0,405d80 <load_data+0x190>
  405d70:	28 00 00 00 20 00 03 11 	lw $3,32($17)
  405d78:	01 00 00 00 62 17 10 00 	j 405d88 <load_data+0x198>
  405d80:	28 00 00 00 24 00 03 11 	lw $3,36($17)
  405d88:	4f 00 00 00 01 00 02 03 	andi $2,$3,1
  405d90:	05 00 00 00 aa 02 00 02 	beq $2,$0,406840 <load_data+0xc50>
  405d98:	28 00 00 00 00 00 03 12 	lw $3,0($18)
  405da0:	28 00 00 00 00 00 02 11 	lw $2,0($17)
  405da8:	57 00 00 00 13 03 03 00 	srl $3,$3,0x13
  405db0:	55 00 00 00 0d 02 02 00 	sll $2,$2,0xd
  405db8:	50 00 00 00 00 14 02 03 	or $20,$3,$2
  405dc0:	05 00 00 00 06 00 00 15 	beq $21,$0,405de0 <load_data+0x1f0>
  405dc8:	28 00 00 00 10 8f 02 1c 	lw $2,-28912($28)
  405dd0:	55 00 00 00 0d 02 02 00 	sll $2,$2,0xd
  405dd8:	50 00 00 00 00 14 02 03 	or $20,$3,$2
  405de0:	28 00 00 00 20 88 02 1c 	lw $2,-30688($28)
  405de8:	05 00 00 00 08 00 00 02 	beq $2,$0,405e10 <load_data+0x220>
  405df0:	a2 00 00 00 00 10 04 00 	lui $4,4096
  405df8:	43 00 00 00 30 06 04 04 	addiu $4,$4,1584
  405e00:	42 00 00 00 00 05 14 00 	addu $5,$0,$20
  405e08:	02 00 00 00 0a b6 10 00 	jal 42d828 <PPrintf>
  405e10:	51 00 00 00 00 80 02 00 	ori $2,$0,32768
  405e18:	42 00 00 00 00 10 02 11 	addu $16,$17,$2
  405e20:	28 00 00 00 3c 0e 02 10 	lw $2,3644($16)
  405e28:	42 00 00 00 00 04 11 00 	addu $4,$0,$17
  405e30:	42 00 00 00 00 05 14 00 	addu $5,$0,$20
  405e38:	43 00 00 00 01 00 02 02 	addiu $2,$2,1
  405e40:	34 00 00 00 3c 0e 02 10 	sw $2,3644($16)
  405e48:	02 00 00 00 ec 1d 10 00 	jal 4077b0 <check_BATC>
  405e50:	05 00 00 00 ca 00 00 02 	beq $2,$0,406180 <load_data+0x590>
  405e58:	28 00 00 00 20 88 02 1c 	lw $2,-30688($28)
  405e60:	05 00 00 00 06 00 00 02 	beq $2,$0,405e80 <load_data+0x290>
  405e68:	a2 00 00 00 00 10 04 00 	lui $4,4096
  405e70:	43 00 00 00 4c 06 04 04 	addiu $4,$4,1612
  405e78:	02 00 00 00 0a b6 10 00 	jal 42d828 <PPrintf>
  405e80:	28 00 00 00 40 0e 02 10 	lw $2,3648($16)
  405e88:	51 00 00 00 00 80 17 00 	ori $23,$0,32768
  405e90:	43 00 00 00 01 00 02 02 	addiu $2,$2,1
  405e98:	34 00 00 00 40 0e 02 10 	sw $2,3648($16)
  405ea0:	05 00 00 00 06 00 00 15 	beq $21,$0,405ec0 <load_data+0x2d0>
  405ea8:	28 00 00 00 0c 00 02 11 	lw $2,12($17)
  405eb0:	51 00 00 00 02 00 02 02 	ori $2,$2,2
  405eb8:	34 00 00 00 0c 00 02 11 	sw $2,12($17)
  405ec0:	a2 00 00 00 07 00 02 00 	lui $2,7
  405ec8:	28 00 00 00 00 00 03 12 	lw $3,0($18)
  405ed0:	28 00 00 00 20 88 04 1c 	lw $4,-30688($28)
  405ed8:	51 00 00 00 ff ff 02 02 	ori $2,$2,65535
  405ee0:	4e 00 00 00 00 10 02 03 	and $16,$3,$2
  405ee8:	05 00 00 00 08 00 00 04 	beq $4,$0,405f10 <load_data+0x320>
  405ef0:	a2 00 00 00 00 10 04 00 	lui $4,4096
  405ef8:	43 00 00 00 58 06 04 04 	addiu $4,$4,1624
  405f00:	42 00 00 00 00 05 10 00 	addu $5,$0,$16
  405f08:	02 00 00 00 0a b6 10 00 	jal 42d828 <PPrintf>
  405f10:	34 00 00 00 10 00 15 1d 	sw $21,16($29)
  405f18:	42 00 00 00 00 04 11 00 	addu $4,$0,$17
  405f20:	43 00 00 00 20 00 05 1d 	addiu $5,$29,32
  405f28:	42 00 00 00 00 06 14 00 	addu $6,$0,$20
  405f30:	42 00 00 00 00 07 13 00 	addu $7,$0,$19
  405f38:	02 00 00 00 20 1e 10 00 	jal 407880 <get_from_BATC>
  405f40:	43 00 00 00 ff ff 03 00 	addiu $3,$0,-1
  405f48:	05 00 00 00 a8 01 03 02 	beq $2,$3,4065f0 <load_data+0xa00>
  405f50:	28 00 00 00 20 88 02 1c 	lw $2,-30688($28)
  405f58:	05 00 00 00 08 00 00 02 	beq $2,$0,405f80 <load_data+0x390>
  405f60:	28 00 00 00 20 00 05 1d 	lw $5,32($29)
  405f68:	a2 00 00 00 00 10 04 00 	lui $4,4096
  405f70:	43 00 00 00 70 06 04 04 	addiu $4,$4,1648
  405f78:	02 00 00 00 0a b6 10 00 	jal 42d828 <PPrintf>
  405f80:	28 00 00 00 20 00 02 1d 	lw $2,32($29)
  405f88:	28 00 00 00 20 88 03 1c 	lw $3,-30688($28)
  405f90:	50 00 00 00 00 05 02 10 	or $5,$16,$2
  405f98:	34 00 00 00 28 00 05 1d 	sw $5,40($29)
  405fa0:	05 00 00 00 06 00 00 03 	beq $3,$0,405fc0 <load_data+0x3d0>
  405fa8:	a2 00 00 00 00 10 04 00 	lui $4,4096
  405fb0:	43 00 00 00 8c 06 04 04 	addiu $4,$4,1676
  405fb8:	02 00 00 00 0a b6 10 00 	jal 42d828 <PPrintf>
  405fc0:	05 00 00 00 04 00 00 13 	beq $19,$0,405fd8 <load_data+0x3e8>
  405fc8:	28 00 00 00 28 00 02 1d 	lw $2,40($29)
  405fd0:	34 00 00 00 00 00 02 12 	sw $2,0($18)
  405fd8:	05 00 00 00 04 00 00 15 	beq $21,$0,405ff0 <load_data+0x400>
  405fe0:	28 00 00 00 28 00 02 1d 	lw $2,40($29)
  405fe8:	34 00 00 00 10 00 02 11 	sw $2,16($17)
  405ff0:	28 00 00 00 f0 8e 02 1c 	lw $2,-28944($28)
  405ff8:	05 00 00 00 1a 00 00 02 	beq $2,$0,406068 <load_data+0x478>
  406000:	06 00 00 00 06 00 00 13 	bne $19,$0,406020 <load_data+0x430>
  406008:	28 00 00 00 c0 86 02 1c 	lw $2,-31040($28)
  406010:	43 00 00 00 03 00 02 02 	addiu $2,$2,3
  406018:	34 00 00 00 c0 86 02 1c 	sw $2,-31040($28)
  406020:	42 00 00 00 00 04 11 00 	addu $4,$0,$17
  406028:	28 00 00 00 28 00 06 1d 	lw $6,40($29)
  406030:	42 00 00 00 00 05 16 00 	addu $5,$0,$22
  406038:	42 00 00 00 00 07 13 00 	addu $7,$0,$19
  406040:	02 00 00 00 e4 20 10 00 	jal 408390 <load_from_cache>
  406048:	28 00 00 00 28 00 05 1d 	lw $5,40($29)
  406050:	42 00 00 00 00 02 17 11 	addu $2,$17,$23
  406058:	28 00 00 00 24 0e 04 02 	lw $4,3620($2)
  406060:	01 00 00 00 c0 19 10 00 	j 406700 <load_data+0xb10>
  406068:	a2 00 00 00 01 10 02 00 	lui $2,4097
  406070:	43 00 00 00 70 6a 02 02 	addiu $2,$2,27248
  406078:	06 00 00 00 08 00 02 11 	bne $17,$2,4060a0 <load_data+0x4b0>
  406080:	28 00 00 00 a4 8e 02 1c 	lw $2,-29020($28)
  406088:	43 00 00 00 01 00 02 02 	addiu $2,$2,1
  406090:	34 00 00 00 a4 8e 02 1c 	sw $2,-29020($28)
  406098:	01 00 00 00 5a 18 10 00 	j 406168 <load_data+0x578>
  4060a0:	28 00 00 00 a8 8e 02 1c 	lw $2,-29016($28)
  4060a8:	28 00 00 00 20 88 03 1c 	lw $3,-30688($28)
  4060b0:	43 00 00 00 01 00 05 02 	addiu $5,$2,1
  4060b8:	34 00 00 00 a8 8e 05 1c 	sw $5,-29016($28)
  4060c0:	05 00 00 00 06 00 00 03 	beq $3,$0,4060e0 <load_data+0x4f0>
  4060c8:	a2 00 00 00 00 10 04 00 	lui $4,4096
  4060d0:	43 00 00 00 a4 06 04 04 	addiu $4,$4,1700
  4060d8:	02 00 00 00 c4 c1 10 00 	jal 430710 <printf>
  4060e0:	05 00 00 00 10 00 00 13 	beq $19,$0,406128 <load_data+0x538>
  4060e8:	28 00 00 00 c0 8e 02 1c 	lw $2,-28992($28)
  4060f0:	28 00 00 00 20 88 03 1c 	lw $3,-30688($28)
  4060f8:	43 00 00 00 01 00 05 02 	addiu $5,$2,1
  406100:	34 00 00 00 c0 8e 05 1c 	sw $5,-28992($28)
  406108:	05 00 00 00 16 00 00 03 	beq $3,$0,406168 <load_data+0x578>
  406110:	a2 00 00 00 00 10 04 00 	lui $4,4096
  406118:	43 00 00 00 b4 06 04 04 	addiu $4,$4,1716
  406120:	01 00 00 00 58 18 10 00 	j 406160 <load_data+0x570>
  406128:	28 00 00 00 bc 8e 02 1c 	lw $2,-28996($28)
  406130:	28 00 00 00 20 88 03 1c 	lw $3,-30688($28)
  406138:	43 00 00 00 01 00 05 02 	addiu $5,$2,1
  406140:	34 00 00 00 bc 8e 05 1c 	sw $5,-28996($28)
  406148:	05 00 00 00 06 00 00 03 	beq $3,$0,406168 <load_data+0x578>
  406150:	a2 00 00 00 00 10 04 00 	lui $4,4096
  406158:	43 00 00 00 c4 06 04 04 	addiu $4,$4,1732
  406160:	02 00 00 00 c4 c1 10 00 	jal 430710 <printf>
  406168:	42 00 00 00 00 04 11 00 	addu $4,$0,$17
  406170:	28 00 00 00 28 00 06 1d 	lw $6,40($29)
  406178:	01 00 00 00 8e 1a 10 00 	j 406a38 <load_data+0xe48>
  406180:	28 00 00 00 00 00 02 12 	lw $2,0($18)
  406188:	28 00 00 00 00 00 05 11 	lw $5,0($17)
  406190:	57 00 00 00 0c 03 02 00 	srl $3,$2,0xc
  406198:	55 00 00 00 14 02 05 00 	sll $2,$5,0x14
  4061a0:	50 00 00 00 00 14 02 03 	or $20,$3,$2
  4061a8:	05 00 00 00 06 00 00 15 	beq $21,$0,4061c8 <load_data+0x5d8>
  4061b0:	28 00 00 00 10 8f 02 1c 	lw $2,-28912($28)
  4061b8:	55 00 00 00 14 02 02 00 	sll $2,$2,0x14
  4061c0:	50 00 00 00 00 14 02 03 	or $20,$3,$2
  4061c8:	28 00 00 00 20 88 02 1c 	lw $2,-30688($28)
  4061d0:	05 00 00 00 12 00 00 02 	beq $2,$0,406220 <load_data+0x630>
  4061d8:	a2 00 00 00 00 10 04 00 	lui $4,4096
  4061e0:	43 00 00 00 d4 06 04 04 	addiu $4,$4,1748
  4061e8:	02 00 00 00 0a b6 10 00 	jal 42d828 <PPrintf>
  4061f0:	28 00 00 00 20 88 02 1c 	lw $2,-30688($28)
  4061f8:	05 00 00 00 08 00 00 02 	beq $2,$0,406220 <load_data+0x630>
  406200:	a2 00 00 00 00 10 04 00 	lui $4,4096
  406208:	43 00 00 00 ec 06 04 04 	addiu $4,$4,1772
  406210:	42 00 00 00 00 05 14 00 	addu $5,$0,$20
  406218:	02 00 00 00 0a b6 10 00 	jal 42d828 <PPrintf>
  406220:	51 00 00 00 00 80 02 00 	ori $2,$0,32768
  406228:	42 00 00 00 00 10 02 11 	addu $16,$17,$2
  406230:	28 00 00 00 44 0e 02 10 	lw $2,3652($16)
  406238:	42 00 00 00 00 04 11 00 	addu $4,$0,$17
  406240:	42 00 00 00 00 05 14 00 	addu $5,$0,$20
  406248:	43 00 00 00 01 00 02 02 	addiu $2,$2,1
  406250:	34 00 00 00 44 0e 02 10 	sw $2,3652($16)
  406258:	02 00 00 00 06 1e 10 00 	jal 407818 <check_PATC>
  406260:	05 00 00 00 c4 00 00 02 	beq $2,$0,406578 <load_data+0x988>
  406268:	28 00 00 00 20 88 02 1c 	lw $2,-30688($28)
  406270:	05 00 00 00 06 00 00 02 	beq $2,$0,406290 <load_data+0x6a0>
  406278:	a2 00 00 00 00 10 04 00 	lui $4,4096
  406280:	43 00 00 00 08 07 04 04 	addiu $4,$4,1800
  406288:	02 00 00 00 0a b6 10 00 	jal 42d828 <PPrintf>
  406290:	28 00 00 00 48 0e 02 10 	lw $2,3656($16)
  406298:	43 00 00 00 01 00 02 02 	addiu $2,$2,1
  4062a0:	34 00 00 00 48 0e 02 10 	sw $2,3656($16)
  4062a8:	28 00 00 00 00 00 02 12 	lw $2,0($18)
  4062b0:	28 00 00 00 20 88 03 1c 	lw $3,-30688($28)
  4062b8:	51 00 00 00 00 80 17 00 	ori $23,$0,32768
  4062c0:	4f 00 00 00 ff 0f 10 02 	andi $16,$2,4095
  4062c8:	05 00 00 00 08 00 00 03 	beq $3,$0,4062f0 <load_data+0x700>
  4062d0:	a2 00 00 00 00 10 04 00 	lui $4,4096
  4062d8:	43 00 00 00 14 07 04 04 	addiu $4,$4,1812
  4062e0:	42 00 00 00 00 05 10 00 	addu $5,$0,$16
  4062e8:	02 00 00 00 0a b6 10 00 	jal 42d828 <PPrintf>
  4062f0:	42 00 00 00 00 04 11 00 	addu $4,$0,$17
  4062f8:	43 00 00 00 24 00 05 1d 	addiu $5,$29,36
  406300:	28 00 00 00 00 00 02 12 	lw $2,0($18)
  406308:	42 00 00 00 00 06 14 00 	addu $6,$0,$20
  406310:	42 00 00 00 00 07 13 00 	addu $7,$0,$19
  406318:	34 00 00 00 10 00 02 1d 	sw $2,16($29)
  406320:	34 00 00 00 14 00 15 1d 	sw $21,20($29)
  406328:	02 00 00 00 e2 1e 10 00 	jal 407b88 <get_from_PATC>
  406330:	43 00 00 00 ff ff 03 00 	addiu $3,$0,-1
  406338:	05 00 00 00 ac 00 03 02 	beq $2,$3,4065f0 <load_data+0xa00>
  406340:	28 00 00 00 20 88 02 1c 	lw $2,-30688($28)
  406348:	05 00 00 00 08 00 00 02 	beq $2,$0,406370 <load_data+0x780>
  406350:	28 00 00 00 24 00 05 1d 	lw $5,36($29)
  406358:	a2 00 00 00 00 10 04 00 	lui $4,4096
  406360:	43 00 00 00 2c 07 04 04 	addiu $4,$4,1836
  406368:	02 00 00 00 0a b6 10 00 	jal 42d828 <PPrintf>
  406370:	28 00 00 00 24 00 02 1d 	lw $2,36($29)
  406378:	28 00 00 00 20 88 03 1c 	lw $3,-30688($28)
  406380:	55 00 00 00 0c 02 02 00 	sll $2,$2,0xc
  406388:	50 00 00 00 00 05 10 02 	or $5,$2,$16
  406390:	34 00 00 00 28 00 05 1d 	sw $5,40($29)
  406398:	05 00 00 00 06 00 00 03 	beq $3,$0,4063b8 <load_data+0x7c8>
  4063a0:	a2 00 00 00 00 10 04 00 	lui $4,4096
  4063a8:	43 00 00 00 8c 06 04 04 	addiu $4,$4,1676
  4063b0:	02 00 00 00 0a b6 10 00 	jal 42d828 <PPrintf>
  4063b8:	05 00 00 00 04 00 00 13 	beq $19,$0,4063d0 <load_data+0x7e0>
  4063c0:	28 00 00 00 28 00 02 1d 	lw $2,40($29)
  4063c8:	34 00 00 00 00 00 02 12 	sw $2,0($18)
  4063d0:	05 00 00 00 04 00 00 15 	beq $21,$0,4063e8 <load_data+0x7f8>
  4063d8:	28 00 00 00 28 00 02 1d 	lw $2,40($29)
  4063e0:	34 00 00 00 10 00 02 11 	sw $2,16($17)
  4063e8:	28 00 00 00 f0 8e 02 1c 	lw $2,-28944($28)
  4063f0:	05 00 00 00 1a 00 00 02 	beq $2,$0,406460 <load_data+0x870>
  4063f8:	06 00 00 00 06 00 00 13 	bne $19,$0,406418 <load_data+0x828>
  406400:	28 00 00 00 c0 86 02 1c 	lw $2,-31040($28)
  406408:	43 00 00 00 03 00 02 02 	addiu $2,$2,3
  406410:	34 00 00 00 c0 86 02 1c 	sw $2,-31040($28)
  406418:	42 00 00 00 00 04 11 00 	addu $4,$0,$17
  406420:	28 00 00 00 28 00 06 1d 	lw $6,40($29)
  406428:	42 00 00 00 00 05 16 00 	addu $5,$0,$22
  406430:	42 00 00 00 00 07 13 00 	addu $7,$0,$19
  406438:	02 00 00 00 e4 20 10 00 	jal 408390 <load_from_cache>
  406440:	28 00 00 00 28 00 05 1d 	lw $5,40($29)
  406448:	42 00 00 00 00 02 17 11 	addu $2,$17,$23
  406450:	28 00 00 00 24 0e 04 02 	lw $4,3620($2)
  406458:	01 00 00 00 c0 19 10 00 	j 406700 <load_data+0xb10>
  406460:	a2 00 00 00 01 10 02 00 	lui $2,4097
  406468:	43 00 00 00 70 6a 02 02 	addiu $2,$2,27248
  406470:	06 00 00 00 08 00 02 11 	bne $17,$2,406498 <load_data+0x8a8>
  406478:	28 00 00 00 a4 8e 02 1c 	lw $2,-29020($28)
  406480:	43 00 00 00 01 00 02 02 	addiu $2,$2,1
  406488:	34 00 00 00 a4 8e 02 1c 	sw $2,-29020($28)
  406490:	01 00 00 00 58 19 10 00 	j 406560 <load_data+0x970>
  406498:	28 00 00 00 a8 8e 02 1c 	lw $2,-29016($28)
  4064a0:	28 00 00 00 20 88 03 1c 	lw $3,-30688($28)
  4064a8:	43 00 00 00 01 00 05 02 	addiu $5,$2,1
  4064b0:	34 00 00 00 a8 8e 05 1c 	sw $5,-29016($28)
  4064b8:	05 00 00 00 06 00 00 03 	beq $3,$0,4064d8 <load_data+0x8e8>
  4064c0:	a2 00 00 00 00 10 04 00 	lui $4,4096
  4064c8:	43 00 00 00 a4 06 04 04 	addiu $4,$4,1700
  4064d0:	02 00 00 00 c4 c1 10 00 	jal 430710 <printf>
  4064d8:	05 00 00 00 10 00 00 13 	beq $19,$0,406520 <load_data+0x930>
  4064e0:	28 00 00 00 c0 8e 02 1c 	lw $2,-28992($28)
  4064e8:	28 00 00 00 20 88 03 1c 	lw $3,-30688($28)
  4064f0:	43 00 00 00 01 00 05 02 	addiu $5,$2,1
  4064f8:	34 00 00 00 c0 8e 05 1c 	sw $5,-28992($28)
  406500:	05 00 00 00 16 00 00 03 	beq $3,$0,406560 <load_data+0x970>
  406508:	a2 00 00 00 00 10 04 00 	lui $4,4096
  406510:	43 00 00 00 b4 06 04 04 	addiu $4,$4,1716
  406518:	01 00 00 00 56 19 10 00 	j 406558 <load_data+0x968>
  406520:	28 00 00 00 bc 8e 02 1c 	lw $2,-28996($28)
  406528:	28 00 00 00 20 88 03 1c 	lw $3,-30688($28)
  406530:	43 00 00 00 01 00 05 02 	addiu $5,$2,1
  406538:	34 00 00 00 bc 8e 05 1c 	sw $5,-28996($28)
  406540:	05 00 00 00 06 00 00 03 	beq $3,$0,406560 <load_data+0x970>
  406548:	a2 00 00 00 00 10 04 00 	lui $4,4096
  406550:	43 00 00 00 c4 06 04 04 	addiu $4,$4,1732
  406558:	02 00 00 00 c4 c1 10 00 	jal 430710 <printf>
  406560:	42 00 00 00 00 04 11 00 	addu $4,$0,$17
  406568:	28 00 00 00 28 00 06 1d 	lw $6,40($29)
  406570:	01 00 00 00 8e 1a 10 00 	j 406a38 <load_data+0xe48>
  406578:	28 00 00 00 c0 86 02 1c 	lw $2,-31040($28)
  406580:	28 00 00 00 34 0e 03 10 	lw $3,3636($16)
  406588:	42 00 00 00 00 04 11 00 	addu $4,$0,$17
  406590:	43 00 00 00 0c 00 02 02 	addiu $2,$2,12
  406598:	43 00 00 00 01 00 03 03 	addiu $3,$3,1
  4065a0:	34 00 00 00 c0 86 02 1c 	sw $2,-31040($28)
  4065a8:	34 00 00 00 34 0e 03 10 	sw $3,3636($16)
  4065b0:	34 00 00 00 10 00 13 1d 	sw $19,16($29)
  4065b8:	34 00 00 00 14 00 00 1d 	sw $0,20($29)
  4065c0:	34 00 00 00 18 00 15 1d 	sw $21,24($29)
  4065c8:	28 00 00 00 00 00 06 12 	lw $6,0($18)
  4065d0:	43 00 00 00 28 00 05 1d 	addiu $5,$29,40
  4065d8:	42 00 00 00 00 07 14 00 	addu $7,$0,$20
  4065e0:	02 00 00 00 aa 1a 10 00 	jal 406aa8 <tablewalk>
  4065e8:	05 00 00 00 06 00 00 02 	beq $2,$0,406608 <load_data+0xa18>
  4065f0:	5e 00 00 00 01 00 02 15 	sltiu $2,$21,1
  4065f8:	45 00 00 00 00 02 02 00 	subu $2,$0,$2
  406600:	01 00 00 00 94 1a 10 00 	j 406a50 <load_data+0xe60>
  406608:	28 00 00 00 20 88 02 1c 	lw $2,-30688($28)
  406610:	05 00 00 00 08 00 00 02 	beq $2,$0,406638 <load_data+0xa48>
  406618:	28 00 00 00 28 00 05 1d 	lw $5,40($29)
  406620:	a2 00 00 00 00 10 04 00 	lui $4,4096
  406628:	43 00 00 00 8c 06 04 04 	addiu $4,$4,1676
  406630:	02 00 00 00 0a b6 10 00 	jal 42d828 <PPrintf>
  406638:	05 00 00 00 04 00 00 13 	beq $19,$0,406650 <load_data+0xa60>
  406640:	28 00 00 00 28 00 02 1d 	lw $2,40($29)
  406648:	34 00 00 00 00 00 02 12 	sw $2,0($18)
  406650:	05 00 00 00 04 00 00 15 	beq $21,$0,406668 <load_data+0xa78>
  406658:	28 00 00 00 28 00 02 1d 	lw $2,40($29)
  406660:	34 00 00 00 10 00 02 11 	sw $2,16($17)
  406668:	28 00 00 00 20 88 02 1c 	lw $2,-30688($28)
  406670:	05 00 00 00 08 00 00 02 	beq $2,$0,406698 <load_data+0xaa8>
  406678:	28 00 00 00 f0 8e 05 1c 	lw $5,-28944($28)
  406680:	a2 00 00 00 00 10 04 00 	lui $4,4096
  406688:	43 00 00 00 48 07 04 04 	addiu $4,$4,1864
  406690:	02 00 00 00 0a b6 10 00 	jal 42d828 <PPrintf>
  406698:	28 00 00 00 f0 8e 02 1c 	lw $2,-28944($28)
  4066a0:	05 00 00 00 20 00 00 02 	beq $2,$0,406728 <load_data+0xb38>
  4066a8:	06 00 00 00 06 00 00 13 	bne $19,$0,4066c8 <load_data+0xad8>
  4066b0:	28 00 00 00 c0 86 02 1c 	lw $2,-31040($28)
  4066b8:	43 00 00 00 03 00 02 02 	addiu $2,$2,3
  4066c0:	34 00 00 00 c0 86 02 1c 	sw $2,-31040($28)
  4066c8:	42 00 00 00 00 04 11 00 	addu $4,$0,$17
  4066d0:	28 00 00 00 28 00 06 1d 	lw $6,40($29)
  4066d8:	42 00 00 00 00 05 16 00 	addu $5,$0,$22
  4066e0:	42 00 00 00 00 07 13 00 	addu $7,$0,$19
  4066e8:	02 00 00 00 e4 20 10 00 	jal 408390 <load_from_cache>
  4066f0:	28 00 00 00 28 00 05 1d 	lw $5,40($29)
  4066f8:	28 00 00 00 24 0e 04 10 	lw $4,3620($16)
  406700:	42 00 00 00 00 06 16 00 	addu $6,$0,$22
  406708:	43 00 00 00 04 00 07 00 	addiu $7,$0,4
  406710:	51 00 00 00 01 00 04 04 	ori $4,$4,1
  406718:	02 00 00 00 3e 7d 10 00 	jal 41f4f8 <rdwr>
  406720:	01 00 00 00 94 1a 10 00 	j 406a50 <load_data+0xe60>
  406728:	a2 00 00 00 01 10 02 00 	lui $2,4097
  406730:	43 00 00 00 70 6a 02 02 	addiu $2,$2,27248
  406738:	06 00 00 00 08 00 02 11 	bne $17,$2,406760 <load_data+0xb70>
  406740:	28 00 00 00 a4 8e 02 1c 	lw $2,-29020($28)
  406748:	43 00 00 00 01 00 02 02 	addiu $2,$2,1
  406750:	34 00 00 00 a4 8e 02 1c 	sw $2,-29020($28)
  406758:	01 00 00 00 0a 1a 10 00 	j 406828 <load_data+0xc38>
  406760:	28 00 00 00 a8 8e 02 1c 	lw $2,-29016($28)
  406768:	28 00 00 00 20 88 03 1c 	lw $3,-30688($28)
  406770:	43 00 00 00 01 00 05 02 	addiu $5,$2,1
  406778:	34 00 00 00 a8 8e 05 1c 	sw $5,-29016($28)
  406780:	05 00 00 00 06 00 00 03 	beq $3,$0,4067a0 <load_data+0xbb0>
  406788:	a2 00 00 00 00 10 04 00 	lui $4,4096
  406790:	43 00 00 00 a4 06 04 04 	addiu $4,$4,1700
  406798:	02 00 00 00 c4 c1 10 00 	jal 430710 <printf>
  4067a0:	05 00 00 00 10 00 00 13 	beq $19,$0,4067e8 <load_data+0xbf8>
  4067a8:	28 00 00 00 c0 8e 02 1c 	lw $2,-28992($28)
  4067b0:	28 00 00 00 20 88 03 1c 	lw $3,-30688($28)
  4067b8:	43 00 00 00 01 00 05 02 	addiu $5,$2,1
  4067c0:	34 00 00 00 c0 8e 05 1c 	sw $5,-28992($28)
  4067c8:	05 00 00 00 16 00 00 03 	beq $3,$0,406828 <load_data+0xc38>
  4067d0:	a2 00 00 00 00 10 04 00 	lui $4,4096
  4067d8:	43 00 00 00 b4 06 04 04 	addiu $4,$4,1716
  4067e0:	01 00 00 00 08 1a 10 00 	j 406820 <load_data+0xc30>
  4067e8:	28 00 00 00 bc 8e 02 1c 	lw $2,-28996($28)
  4067f0:	28 00 00 00 20 88 03 1c 	lw $3,-30688($28)
  4067f8:	43 00 00 00 01 00 05 02 	addiu $5,$2,1
  406800:	34 00 00 00 bc 8e 05 1c 	sw $5,-28996($28)
  406808:	05 00 00 00 06 00 00 03 	beq $3,$0,406828 <load_data+0xc38>
  406810:	a2 00 00 00 00 10 04 00 	lui $4,4096
  406818:	43 00 00 00 c4 06 04 04 	addiu $4,$4,1732
  406820:	02 00 00 00 c4 c1 10 00 	jal 430710 <printf>
  406828:	42 00 00 00 00 04 11 00 	addu $4,$0,$17
  406830:	28 00 00 00 28 00 06 1d 	lw $6,40($29)
  406838:	01 00 00 00 8e 1a 10 00 	j 406a38 <load_data+0xe48>
  406840:	4f 00 00 00 40 00 02 03 	andi $2,$3,64
  406848:	05 00 00 00 2c 00 00 02 	beq $2,$0,406900 <load_data+0xd10>
  406850:	06 00 00 00 06 00 00 13 	bne $19,$0,406870 <load_data+0xc80>
  406858:	28 00 00 00 c0 86 02 1c 	lw $2,-31040($28)
  406860:	43 00 00 00 03 00 02 02 	addiu $2,$2,3
  406868:	34 00 00 00 c0 86 02 1c 	sw $2,-31040($28)
  406870:	42 00 00 00 00 04 11 00 	addu $4,$0,$17
  406878:	43 00 00 00 01 00 02 00 	addiu $2,$0,1
  406880:	34 00 00 00 f0 8e 02 1c 	sw $2,-28944($28)
  406888:	28 00 00 00 00 00 06 12 	lw $6,0($18)
  406890:	42 00 00 00 00 05 16 00 	addu $5,$0,$22
  406898:	42 00 00 00 00 07 13 00 	addu $7,$0,$19
  4068a0:	02 00 00 00 e4 20 10 00 	jal 408390 <load_from_cache>
  4068a8:	51 00 00 00 00 80 02 00 	ori $2,$0,32768
  4068b0:	42 00 00 00 00 02 02 11 	addu $2,$17,$2
  4068b8:	28 00 00 00 24 0e 04 02 	lw $4,3620($2)
  4068c0:	42 00 00 00 00 06 16 00 	addu $6,$0,$22
  4068c8:	43 00 00 00 04 00 07 00 	addiu $7,$0,4
  4068d0:	28 00 00 00 00 00 02 12 	lw $2,0($18)
  4068d8:	43 00 00 00 fc ff 05 00 	addiu $5,$0,-4
  4068e0:	51 00 00 00 01 00 04 04 	ori $4,$4,1
  4068e8:	4e 00 00 00 00 05 05 02 	and $5,$2,$5
  4068f0:	02 00 00 00 3e 7d 10 00 	jal 41f4f8 <rdwr>
  4068f8:	01 00 00 00 94 1a 10 00 	j 406a50 <load_data+0xe60>
  406900:	34 00 00 00 f0 8e 00 1c 	sw $0,-28944($28)
  406908:	4f 00 00 00 00 02 02 03 	andi $2,$3,512
  406910:	05 00 00 00 04 00 00 02 	beq $2,$0,406928 <load_data+0xd38>
  406918:	43 00 00 00 01 00 02 00 	addiu $2,$0,1
  406920:	34 00 00 00 90 83 02 1c 	sw $2,-31856($28)
  406928:	a2 00 00 00 01 10 02 00 	lui $2,4097
  406930:	43 00 00 00 70 6a 02 02 	addiu $2,$2,27248
  406938:	06 00 00 00 08 00 02 11 	bne $17,$2,406960 <load_data+0xd70>
  406940:	28 00 00 00 a4 8e 02 1c 	lw $2,-29020($28)
  406948:	43 00 00 00 01 00 02 02 	addiu $2,$2,1
  406950:	34 00 00 00 a4 8e 02 1c 	sw $2,-29020($28)
  406958:	01 00 00 00 8a 1a 10 00 	j 406a28 <load_data+0xe38>
  406960:	28 00 00 00 a8 8e 02 1c 	lw $2,-29016($28)
  406968:	28 00 00 00 20 88 03 1c 	lw $3,-30688($28)
  406970:	43 00 00 00 01 00 05 02 	addiu $5,$2,1
  406978:	34 00 00 00 a8 8e 05 1c 	sw $5,-29016($28)
  406980:	05 00 00 00 06 00 00 03 	beq $3,$0,4069a0 <load_data+0xdb0>
  406988:	a2 00 00 00 00 10 04 00 	lui $4,4096
  406990:	43 00 00 00 a4 06 04 04 	addiu $4,$4,1700
  406998:	02 00 00 00 c4 c1 10 00 	jal 430710 <printf>
  4069a0:	05 00 00 00 10 00 00 13 	beq $19,$0,4069e8 <load_data+0xdf8>
  4069a8:	28 00 00 00 c0 8e 02 1c 	lw $2,-28992($28)
  4069b0:	28 00 00 00 20 88 03 1c 	lw $3,-30688($28)
  4069b8:	43 00 00 00 01 00 05 02 	addiu $5,$2,1
  4069c0:	34 00 00 00 c0 8e 05 1c 	sw $5,-28992($28)
  4069c8:	05 00 00 00 16 00 00 03 	beq $3,$0,406a28 <load_data+0xe38>
  4069d0:	a2 00 00 00 00 10 04 00 	lui $4,4096
  4069d8:	43 00 00 00 b4 06 04 04 	addiu $4,$4,1716
  4069e0:	01 00 00 00 88 1a 10 00 	j 406a20 <load_data+0xe30>
  4069e8:	28 00 00 00 bc 8e 02 1c 	lw $2,-28996($28)
  4069f0:	28 00 00 00 20 88 03 1c 	lw $3,-30688($28)
  4069f8:	43 00 00 00 01 00 05 02 	addiu $5,$2,1
  406a00:	34 00 00 00 bc 8e 05 1c 	sw $5,-28996($28)
  406a08:	05 00 00 00 06 00 00 03 	beq $3,$0,406a28 <load_data+0xe38>
  406a10:	a2 00 00 00 00 10 04 00 	lui $4,4096
  406a18:	43 00 00 00 c4 06 04 04 	addiu $4,$4,1732
  406a20:	02 00 00 00 c4 c1 10 00 	jal 430710 <printf>
  406a28:	42 00 00 00 00 04 11 00 	addu $4,$0,$17
  406a30:	28 00 00 00 00 00 06 12 	lw $6,0($18)
  406a38:	42 00 00 00 00 05 16 00 	addu $5,$0,$22
  406a40:	42 00 00 00 00 07 13 00 	addu $7,$0,$19
  406a48:	02 00 00 00 e4 20 10 00 	jal 408390 <load_from_cache>
  406a50:	28 00 00 00 50 00 1f 1d 	lw $31,80($29)
  406a58:	28 00 00 00 4c 00 17 1d 	lw $23,76($29)
  406a60:	28 00 00 00 48 00 16 1d 	lw $22,72($29)
  406a68:	28 00 00 00 44 00 15 1d 	lw $21,68($29)
  406a70:	28 00 00 00 40 00 14 1d 	lw $20,64($29)
  406a78:	28 00 00 00 3c 00 13 1d 	lw $19,60($29)
  406a80:	28 00 00 00 38 00 12 1d 	lw $18,56($29)
  406a88:	28 00 00 00 34 00 11 1d 	lw $17,52($29)
  406a90:	28 00 00 00 30 00 10 1d 	lw $16,48($29)
  406a98:	43 00 00 00 58 00 1d 1d 	addiu $29,$29,88
  406aa0:	03 00 00 00 00 00 00 1f 	jr $31

00406aa8 <tablewalk>:
  406aa8:	43 00 00 00 98 ff 1d 1d 	addiu $29,$29,-104
  406ab0:	34 00 00 00 60 00 1e 1d 	sw $30,96($29)
  406ab8:	28 00 00 00 78 00 1e 1d 	lw $30,120($29)
  406ac0:	34 00 00 00 50 00 14 1d 	sw $20,80($29)
  406ac8:	28 00 00 00 80 00 14 1d 	lw $20,128($29)
  406ad0:	34 00 00 00 40 00 10 1d 	sw $16,64($29)
  406ad8:	42 00 00 00 00 10 04 00 	addu $16,$0,$4
  406ae0:	34 00 00 00 58 00 16 1d 	sw $22,88($29)
  406ae8:	42 00 00 00 00 16 05 00 	addu $22,$0,$5
  406af0:	34 00 00 00 44 00 11 1d 	sw $17,68($29)
  406af8:	42 00 00 00 00 11 06 00 	addu $17,$0,$6
  406b00:	a2 00 00 00 c0 ff 03 00 	lui $3,65472
  406b08:	34 00 00 00 54 00 15 1d 	sw $21,84($29)
  406b10:	4e 00 00 00 00 15 03 11 	and $21,$17,$3
  406b18:	28 00 00 00 20 88 03 1c 	lw $3,-30688($28)
  406b20:	a2 00 00 00 3f 00 02 00 	lui $2,63
  406b28:	51 00 00 00 00 f0 02 02 	ori $2,$2,61440
  406b30:	34 00 00 00 5c 00 17 1d 	sw $23,92($29)
  406b38:	4e 00 00 00 00 17 02 11 	and $23,$17,$2
  406b40:	4f 00 00 00 ff 0f 0a 11 	andi $10,$17,4095
  406b48:	34 00 00 00 64 00 1f 1d 	sw $31,100($29)
  406b50:	34 00 00 00 4c 00 13 1d 	sw $19,76($29)
  406b58:	34 00 00 00 48 00 12 1d 	sw $18,72($29)
  406b60:	34 00 00 00 28 00 07 1d 	sw $7,40($29)
  406b68:	34 00 00 00 38 00 00 1d 	sw $0,56($29)
  406b70:	34 00 00 00 30 00 0a 1d 	sw $10,48($29)
  406b78:	05 00 00 00 0c 00 00 03 	beq $3,$0,406bb0 <tablewalk+0x108>
  406b80:	a2 00 00 00 00 10 04 00 	lui $4,4096
  406b88:	43 00 00 00 60 07 04 04 	addiu $4,$4,1888
  406b90:	28 00 00 00 30 00 07 1d 	lw $7,48($29)
  406b98:	42 00 00 00 00 05 15 00 	addu $5,$0,$21
  406ba0:	42 00 00 00 00 06 17 00 	addu $6,$0,$23
  406ba8:	02 00 00 00 0a b6 10 00 	jal 42d828 <PPrintf>
  406bb0:	34 00 00 00 00 00 11 16 	sw $17,0($22)
  406bb8:	05 00 00 00 04 00 00 14 	beq $20,$0,406bd0 <tablewalk+0x128>
  406bc0:	28 00 00 00 10 8f 02 1c 	lw $2,-28912($28)
  406bc8:	01 00 00 00 f6 1a 10 00 	j 406bd8 <tablewalk+0x130>
  406bd0:	28 00 00 00 00 00 02 10 	lw $2,0($16)
  406bd8:	06 00 00 00 04 00 00 02 	bne $2,$0,406bf0 <tablewalk+0x148>
  406be0:	28 00 00 00 24 00 13 10 	lw $19,36($16)
  406be8:	01 00 00 00 fe 1a 10 00 	j 406bf8 <tablewalk+0x150>
  406bf0:	28 00 00 00 20 00 13 10 	lw $19,32($16)
  406bf8:	28 00 00 00 20 88 02 1c 	lw $2,-30688($28)
  406c00:	05 00 00 00 08 00 00 02 	beq $2,$0,406c28 <tablewalk+0x180>
  406c08:	a2 00 00 00 00 10 04 00 	lui $4,4096
  406c10:	43 00 00 00 9c 07 04 04 	addiu $4,$4,1948
  406c18:	42 00 00 00 00 05 13 00 	addu $5,$0,$19
  406c20:	02 00 00 00 0a b6 10 00 	jal 42d828 <PPrintf>
  406c28:	4f 00 00 00 40 00 02 13 	andi $2,$19,64
  406c30:	05 00 00 00 0e 00 00 02 	beq $2,$0,406c70 <tablewalk+0x1c8>
  406c38:	43 00 00 00 01 00 02 00 	addiu $2,$0,1
  406c40:	34 00 00 00 f0 8e 02 1c 	sw $2,-28944($28)
  406c48:	05 00 00 00 0a 00 00 14 	beq $20,$0,406c78 <tablewalk+0x1d0>
  406c50:	28 00 00 00 0c 00 02 10 	lw $2,12($16)
  406c58:	51 00 00 00 40 00 02 02 	ori $2,$2,64
  406c60:	34 00 00 00 0c 00 02 10 	sw $2,12($16)
  406c68:	01 00 00 00 1e 1b 10 00 	j 406c78 <tablewalk+0x1d0>
  406c70:	34 00 00 00 f0 8e 00 1c 	sw $0,-28944($28)
  406c78:	4f 00 00 00 80 00 02 13 	andi $2,$19,128
  406c80:	05 00 00 00 0e 00 00 02 	beq $2,$0,406cc0 <tablewalk+0x218>
  406c88:	43 00 00 00 01 00 02 00 	addiu $2,$0,1
  406c90:	34 00 00 00 f4 8e 02 1c 	sw $2,-28940($28)
  406c98:	05 00 00 00 0a 00 00 14 	beq $20,$0,406cc8 <tablewalk+0x220>
  406ca0:	28 00 00 00 0c 00 02 10 	lw $2,12($16)
  406ca8:	51 00 00 00 80 00 02 02 	ori $2,$2,128
  406cb0:	34 00 00 00 0c 00 02 10 	sw $2,12($16)
  406cb8:	01 00 00 00 32 1b 10 00 	j 406cc8 <tablewalk+0x220>
  406cc0:	34 00 00 00 f4 8e 00 1c 	sw $0,-28940($28)
  406cc8:	4f 00 00 00 00 02 02 13 	andi $2,$19,512
  406cd0:	05 00 00 00 0e 00 00 02 	beq $2,$0,406d10 <tablewalk+0x268>
  406cd8:	43 00 00 00 01 00 02 00 	addiu $2,$0,1
  406ce0:	34 00 00 00 90 83 02 1c 	sw $2,-31856($28)
  406ce8:	05 00 00 00 0a 00 00 14 	beq $20,$0,406d18 <tablewalk+0x270>
  406cf0:	28 00 00 00 0c 00 02 10 	lw $2,12($16)
  406cf8:	51 00 00 00 00 02 02 02 	ori $2,$2,512
  406d00:	34 00 00 00 0c 00 02 10 	sw $2,12($16)
  406d08:	01 00 00 00 46 1b 10 00 	j 406d18 <tablewalk+0x270>
  406d10:	34 00 00 00 90 83 00 1c 	sw $0,-31856($28)
  406d18:	28 00 00 00 20 88 02 1c 	lw $2,-30688($28)
  406d20:	43 00 00 00 00 f0 12 00 	addiu $18,$0,-4096
  406d28:	4e 00 00 00 00 11 12 13 	and $17,$19,$18
  406d30:	05 00 00 00 08 00 00 02 	beq $2,$0,406d58 <tablewalk+0x2b0>
  406d38:	a2 00 00 00 00 10 04 00 	lui $4,4096
  406d40:	43 00 00 00 b4 07 04 04 	addiu $4,$4,1972
  406d48:	42 00 00 00 00 05 11 00 	addu $5,$0,$17
  406d50:	02 00 00 00 0a b6 10 00 	jal 42d828 <PPrintf>
  406d58:	4e 00 00 00 00 02 12 11 	and $2,$17,$18
  406d60:	28 00 00 00 20 88 04 1c 	lw $4,-30688($28)
  406d68:	57 00 00 00 14 03 15 00 	srl $3,$21,0x14
  406d70:	50 00 00 00 00 11 03 02 	or $17,$2,$3
  406d78:	05 00 00 00 08 00 00 04 	beq $4,$0,406da0 <tablewalk+0x2f8>
  406d80:	a2 00 00 00 00 10 04 00 	lui $4,4096
  406d88:	43 00 00 00 c8 07 04 04 	addiu $4,$4,1992
  406d90:	42 00 00 00 00 05 11 00 	addu $5,$0,$17
  406d98:	02 00 00 00 0a b6 10 00 	jal 42d828 <PPrintf>
  406da0:	42 00 00 00 00 05 11 00 	addu $5,$0,$17
  406da8:	51 00 00 00 00 80 02 00 	ori $2,$0,32768
  406db0:	42 00 00 00 00 02 02 10 	addu $2,$16,$2
  406db8:	28 00 00 00 24 0e 04 02 	lw $4,3620($2)
  406dc0:	43 00 00 00 20 00 06 1d 	addiu $6,$29,32
  406dc8:	43 00 00 00 04 00 07 00 	addiu $7,$0,4
  406dd0:	51 00 00 00 01 00 04 04 	ori $4,$4,1
  406dd8:	02 00 00 00 3e 7d 10 00 	jal 41f4f8 <rdwr>
  406de0:	43 00 00 00 ff ff 03 00 	addiu $3,$0,-1
  406de8:	05 00 00 00 2e 01 03 02 	beq $2,$3,4072a8 <tablewalk+0x800>
  406df0:	28 00 00 00 20 88 02 1c 	lw $2,-30688($28)
  406df8:	05 00 00 00 08 00 00 02 	beq $2,$0,406e20 <tablewalk+0x378>
  406e00:	28 00 00 00 20 00 05 1d 	lw $5,32($29)
  406e08:	a2 00 00 00 00 10 04 00 	lui $4,4096
  406e10:	43 00 00 00 e4 07 04 04 	addiu $4,$4,2020
  406e18:	02 00 00 00 0a b6 10 00 	jal 42d828 <PPrintf>
  406e20:	28 00 00 00 20 00 03 1d 	lw $3,32($29)
  406e28:	4f 00 00 00 01 00 02 03 	andi $2,$3,1
  406e30:	05 00 00 00 1e 02 00 02 	beq $2,$0,4076b0 <tablewalk+0xc08>
  406e38:	28 00 00 00 00 00 02 10 	lw $2,0($16)
  406e40:	06 00 00 00 0e 00 00 02 	bne $2,$0,406e80 <tablewalk+0x3d8>
  406e48:	4f 00 00 00 00 01 02 03 	andi $2,$3,256
  406e50:	05 00 00 00 0a 00 00 02 	beq $2,$0,406e80 <tablewalk+0x3d8>
  406e58:	a2 00 00 00 00 10 04 00 	lui $4,4096
  406e60:	43 00 00 00 f8 07 04 04 	addiu $4,$4,2040
  406e68:	02 00 00 00 0a b6 10 00 	jal 42d828 <PPrintf>
  406e70:	a2 00 00 00 06 00 02 00 	lui $2,6
  406e78:	01 00 00 00 a8 1c 10 00 	j 4072a0 <tablewalk+0x7f8>
  406e80:	05 00 00 00 18 00 00 14 	beq $20,$0,406ee8 <tablewalk+0x440>
  406e88:	28 00 00 00 20 00 02 1d 	lw $2,32($29)
  406e90:	4f 00 00 00 00 01 02 02 	andi $2,$2,256
  406e98:	05 00 00 00 06 00 00 02 	beq $2,$0,406eb8 <tablewalk+0x410>
  406ea0:	28 00 00 00 0c 00 02 10 	lw $2,12($16)
  406ea8:	51 00 00 00 00 01 02 02 	ori $2,$2,256
  406eb0:	34 00 00 00 0c 00 02 10 	sw $2,12($16)
  406eb8:	28 00 00 00 20 00 02 1d 	lw $2,32($29)
  406ec0:	4f 00 00 00 04 00 02 02 	andi $2,$2,4
  406ec8:	05 00 00 00 06 00 00 02 	beq $2,$0,406ee8 <tablewalk+0x440>
  406ed0:	28 00 00 00 0c 00 02 10 	lw $2,12($16)
  406ed8:	51 00 00 00 04 00 02 02 	ori $2,$2,4
  406ee0:	34 00 00 00 0c 00 02 10 	sw $2,12($16)
  406ee8:	05 00 00 00 0c 00 00 1e 	beq $30,$0,406f20 <tablewalk+0x478>
  406ef0:	28 00 00 00 20 00 02 1d 	lw $2,32($29)
  406ef8:	4f 00 00 00 04 00 02 02 	andi $2,$2,4
  406f00:	05 00 00 00 06 00 00 02 	beq $2,$0,406f20 <tablewalk+0x478>
  406f08:	a2 00 00 00 00 10 04 00 	lui $4,4096
  406f10:	43 00 00 00 28 08 04 04 	addiu $4,$4,2088
  406f18:	01 00 00 00 a4 1c 10 00 	j 407290 <tablewalk+0x7e8>
  406f20:	28 00 00 00 20 00 02 1d 	lw $2,32($29)
  406f28:	4f 00 00 00 40 00 02 02 	andi $2,$2,64
  406f30:	06 00 00 00 04 00 00 02 	bne $2,$0,406f48 <tablewalk+0x4a0>
  406f38:	28 00 00 00 f0 8e 02 1c 	lw $2,-28944($28)
  406f40:	05 00 00 00 0e 00 00 02 	beq $2,$0,406f80 <tablewalk+0x4d8>
  406f48:	43 00 00 00 01 00 02 00 	addiu $2,$0,1
  406f50:	34 00 00 00 f0 8e 02 1c 	sw $2,-28944($28)
  406f58:	05 00 00 00 0a 00 00 14 	beq $20,$0,406f88 <tablewalk+0x4e0>
  406f60:	28 00 00 00 0c 00 02 10 	lw $2,12($16)
  406f68:	51 00 00 00 40 00 02 02 	ori $2,$2,64
  406f70:	34 00 00 00 0c 00 02 10 	sw $2,12($16)
  406f78:	01 00 00 00 e2 1b 10 00 	j 406f88 <tablewalk+0x4e0>
  406f80:	34 00 00 00 f0 8e 00 1c 	sw $0,-28944($28)
  406f88:	28 00 00 00 20 00 02 1d 	lw $2,32($29)
  406f90:	4f 00 00 00 80 00 02 02 	andi $2,$2,128
  406f98:	06 00 00 00 04 00 00 02 	bne $2,$0,406fb0 <tablewalk+0x508>
  406fa0:	28 00 00 00 f4 8e 02 1c 	lw $2,-28940($28)
  406fa8:	05 00 00 00 0e 00 00 02 	beq $2,$0,406fe8 <tablewalk+0x540>
  406fb0:	43 00 00 00 01 00 02 00 	addiu $2,$0,1
  406fb8:	34 00 00 00 f4 8e 02 1c 	sw $2,-28940($28)
  406fc0:	05 00 00 00 0a 00 00 14 	beq $20,$0,406ff0 <tablewalk+0x548>
  406fc8:	28 00 00 00 0c 00 02 10 	lw $2,12($16)
  406fd0:	51 00 00 00 80 00 02 02 	ori $2,$2,128
  406fd8:	34 00 00 00 0c 00 02 10 	sw $2,12($16)
  406fe0:	01 00 00 00 fc 1b 10 00 	j 406ff0 <tablewalk+0x548>
  406fe8:	34 00 00 00 f4 8e 00 1c 	sw $0,-28940($28)
  406ff0:	28 00 00 00 20 00 02 1d 	lw $2,32($29)
  406ff8:	4f 00 00 00 00 02 02 02 	andi $2,$2,512
  407000:	06 00 00 00 04 00 00 02 	bne $2,$0,407018 <tablewalk+0x570>
  407008:	28 00 00 00 90 83 02 1c 	lw $2,-31856($28)
  407010:	05 00 00 00 0e 00 00 02 	beq $2,$0,407050 <tablewalk+0x5a8>
  407018:	43 00 00 00 01 00 02 00 	addiu $2,$0,1
  407020:	34 00 00 00 90 83 02 1c 	sw $2,-31856($28)
  407028:	05 00 00 00 0a 00 00 14 	beq $20,$0,407058 <tablewalk+0x5b0>
  407030:	28 00 00 00 0c 00 02 10 	lw $2,12($16)
  407038:	51 00 00 00 00 02 02 02 	ori $2,$2,512
  407040:	34 00 00 00 0c 00 02 10 	sw $2,12($16)
  407048:	01 00 00 00 16 1c 10 00 	j 407058 <tablewalk+0x5b0>
  407050:	34 00 00 00 90 83 00 1c 	sw $0,-31856($28)
  407058:	28 00 00 00 20 00 02 1d 	lw $2,32($29)
  407060:	28 00 00 00 20 88 03 1c 	lw $3,-30688($28)
  407068:	43 00 00 00 00 f0 12 00 	addiu $18,$0,-4096
  407070:	4e 00 00 00 00 11 12 02 	and $17,$2,$18
  407078:	05 00 00 00 08 00 00 03 	beq $3,$0,4070a0 <tablewalk+0x5f8>
  407080:	a2 00 00 00 00 10 04 00 	lui $4,4096
  407088:	43 00 00 00 70 08 04 04 	addiu $4,$4,2160
  407090:	42 00 00 00 00 05 11 00 	addu $5,$0,$17
  407098:	02 00 00 00 0a b6 10 00 	jal 42d828 <PPrintf>
  4070a0:	4e 00 00 00 00 02 12 11 	and $2,$17,$18
  4070a8:	28 00 00 00 20 88 04 1c 	lw $4,-30688($28)
  4070b0:	57 00 00 00 0a 03 17 00 	srl $3,$23,0xa
  4070b8:	50 00 00 00 00 11 03 02 	or $17,$2,$3
  4070c0:	05 00 00 00 08 00 00 04 	beq $4,$0,4070e8 <tablewalk+0x640>
  4070c8:	a2 00 00 00 00 10 04 00 	lui $4,4096
  4070d0:	43 00 00 00 84 08 04 04 	addiu $4,$4,2180
  4070d8:	42 00 00 00 00 05 11 00 	addu $5,$0,$17
  4070e0:	02 00 00 00 0a b6 10 00 	jal 42d828 <PPrintf>
  4070e8:	42 00 00 00 00 05 11 00 	addu $5,$0,$17
  4070f0:	51 00 00 00 00 80 02 00 	ori $2,$0,32768
  4070f8:	42 00 00 00 00 02 02 10 	addu $2,$16,$2
  407100:	28 00 00 00 24 0e 04 02 	lw $4,3620($2)
  407108:	43 00 00 00 24 00 06 1d 	addiu $6,$29,36
  407110:	43 00 00 00 04 00 07 00 	addiu $7,$0,4
  407118:	51 00 00 00 01 00 04 04 	ori $4,$4,1
  407120:	02 00 00 00 3e 7d 10 00 	jal 41f4f8 <rdwr>
  407128:	43 00 00 00 ff ff 03 00 	addiu $3,$0,-1
  407130:	05 00 00 00 5c 00 03 02 	beq $2,$3,4072a8 <tablewalk+0x800>
  407138:	28 00 00 00 20 88 02 1c 	lw $2,-30688($28)
  407140:	05 00 00 00 08 00 00 02 	beq $2,$0,407168 <tablewalk+0x6c0>
  407148:	28 00 00 00 24 00 05 1d 	lw $5,36($29)
  407150:	a2 00 00 00 00 10 04 00 	lui $4,4096
  407158:	43 00 00 00 a0 08 04 04 	addiu $4,$4,2208
  407160:	02 00 00 00 0a b6 10 00 	jal 42d828 <PPrintf>
  407168:	28 00 00 00 24 00 03 1d 	lw $3,36($29)
  407170:	4f 00 00 00 01 00 02 03 	andi $2,$3,1
  407178:	05 00 00 00 26 01 00 02 	beq $2,$0,407618 <tablewalk+0xb70>
  407180:	28 00 00 00 00 00 02 10 	lw $2,0($16)
  407188:	06 00 00 00 0e 00 00 02 	bne $2,$0,4071c8 <tablewalk+0x720>
  407190:	4f 00 00 00 00 01 02 03 	andi $2,$3,256
  407198:	05 00 00 00 0a 00 00 02 	beq $2,$0,4071c8 <tablewalk+0x720>
  4071a0:	a2 00 00 00 00 10 04 00 	lui $4,4096
  4071a8:	43 00 00 00 f8 07 04 04 	addiu $4,$4,2040
  4071b0:	02 00 00 00 0a b6 10 00 	jal 42d828 <PPrintf>
  4071b8:	a2 00 00 00 06 00 02 00 	lui $2,6
  4071c0:	01 00 00 00 a8 1c 10 00 	j 4072a0 <tablewalk+0x7f8>
  4071c8:	05 00 00 00 24 00 00 14 	beq $20,$0,407260 <tablewalk+0x7b8>
  4071d0:	28 00 00 00 24 00 02 1d 	lw $2,36($29)
  4071d8:	4f 00 00 00 10 00 02 02 	andi $2,$2,16
  4071e0:	05 00 00 00 06 00 00 02 	beq $2,$0,407200 <tablewalk+0x758>
  4071e8:	28 00 00 00 0c 00 02 10 	lw $2,12($16)
  4071f0:	51 00 00 00 10 00 02 02 	ori $2,$2,16
  4071f8:	34 00 00 00 0c 00 02 10 	sw $2,12($16)
  407200:	28 00 00 00 24 00 02 1d 	lw $2,36($29)
  407208:	4f 00 00 00 00 01 02 02 	andi $2,$2,256
  407210:	05 00 00 00 06 00 00 02 	beq $2,$0,407230 <tablewalk+0x788>
  407218:	28 00 00 00 0c 00 02 10 	lw $2,12($16)
  407220:	51 00 00 00 00 01 02 02 	ori $2,$2,256
  407228:	34 00 00 00 0c 00 02 10 	sw $2,12($16)
  407230:	28 00 00 00 24 00 02 1d 	lw $2,36($29)
  407238:	4f 00 00 00 04 00 02 02 	andi $2,$2,4
  407240:	05 00 00 00 06 00 00 02 	beq $2,$0,407260 <tablewalk+0x7b8>
  407248:	28 00 00 00 0c 00 02 10 	lw $2,12($16)
  407250:	51 00 00 00 04 00 02 02 	ori $2,$2,4
  407258:	34 00 00 00 0c 00 02 10 	sw $2,12($16)
  407260:	05 00 00 00 3c 00 00 1e 	beq $30,$0,407358 <tablewalk+0x8b0>
  407268:	28 00 00 00 24 00 03 1d 	lw $3,36($29)
  407270:	4f 00 00 00 04 00 02 03 	andi $2,$3,4
  407278:	05 00 00 00 0e 00 00 02 	beq $2,$0,4072b8 <tablewalk+0x810>
  407280:	a2 00 00 00 00 10 04 00 	lui $4,4096
  407288:	43 00 00 00 b8 08 04 04 	addiu $4,$4,2232
  407290:	02 00 00 00 0a b6 10 00 	jal 42d828 <PPrintf>
  407298:	a2 00 00 00 07 00 02 00 	lui $2,7
  4072a0:	34 00 00 00 18 00 02 10 	sw $2,24($16)
  4072a8:	43 00 00 00 ff ff 02 00 	addiu $2,$0,-1
  4072b0:	01 00 00 00 d4 1d 10 00 	j 407750 <tablewalk+0xca8>
  4072b8:	4f 00 00 00 10 00 02 03 	andi $2,$3,16
  4072c0:	06 00 00 00 24 00 00 02 	bne $2,$0,407358 <tablewalk+0x8b0>
  4072c8:	43 00 00 00 01 00 0a 00 	addiu $10,$0,1
  4072d0:	42 00 00 00 00 05 11 00 	addu $5,$0,$17
  4072d8:	43 00 00 00 24 00 06 1d 	addiu $6,$29,36
  4072e0:	43 00 00 00 04 00 07 00 	addiu $7,$0,4
  4072e8:	51 00 00 00 10 00 02 03 	ori $2,$3,16
  4072f0:	51 00 00 00 00 80 08 00 	ori $8,$0,32768
  4072f8:	42 00 00 00 00 08 08 10 	addu $8,$16,$8
  407300:	34 00 00 00 38 00 0a 1d 	sw $10,56($29)
  407308:	34 00 00 00 24 00 02 1d 	sw $2,36($29)
  407310:	28 00 00 00 24 0e 04 08 	lw $4,3620($8)
  407318:	28 00 00 00 c0 86 02 1c 	lw $2,-31040($28)
  407320:	28 00 00 00 38 0e 03 08 	lw $3,3640($8)
  407328:	51 00 00 00 02 00 04 04 	ori $4,$4,2
  407330:	43 00 00 00 04 00 02 02 	addiu $2,$2,4
  407338:	43 00 00 00 01 00 03 03 	addiu $3,$3,1
  407340:	34 00 00 00 c0 86 02 1c 	sw $2,-31040($28)
  407348:	34 00 00 00 38 0e 03 08 	sw $3,3640($8)
  407350:	02 00 00 00 3e 7d 10 00 	jal 41f4f8 <rdwr>
  407358:	28 00 00 00 7c 00 0a 1d 	lw $10,124($29)
  407360:	06 00 00 00 f8 00 00 0a 	bne $10,$0,407748 <tablewalk+0xca0>
  407368:	28 00 00 00 24 00 02 1d 	lw $2,36($29)
  407370:	4f 00 00 00 40 00 02 02 	andi $2,$2,64
  407378:	06 00 00 00 04 00 00 02 	bne $2,$0,407390 <tablewalk+0x8e8>
  407380:	28 00 00 00 f0 8e 02 1c 	lw $2,-28944($28)
  407388:	05 00 00 00 0e 00 00 02 	beq $2,$0,4073c8 <tablewalk+0x920>
  407390:	43 00 00 00 01 00 02 00 	addiu $2,$0,1
  407398:	34 00 00 00 f0 8e 02 1c 	sw $2,-28944($28)
  4073a0:	05 00 00 00 0a 00 00 14 	beq $20,$0,4073d0 <tablewalk+0x928>
  4073a8:	28 00 00 00 0c 00 02 10 	lw $2,12($16)
  4073b0:	51 00 00 00 40 00 02 02 	ori $2,$2,64
  4073b8:	34 00 00 00 0c 00 02 10 	sw $2,12($16)
  4073c0:	01 00 00 00 f4 1c 10 00 	j 4073d0 <tablewalk+0x928>
  4073c8:	34 00 00 00 f0 8e 00 1c 	sw $0,-28944($28)
  4073d0:	28 00 00 00 24 00 02 1d 	lw $2,36($29)
  4073d8:	4f 00 00 00 80 00 02 02 	andi $2,$2,128
  4073e0:	06 00 00 00 04 00 00 02 	bne $2,$0,4073f8 <tablewalk+0x950>
  4073e8:	28 00 00 00 f4 8e 02 1c 	lw $2,-28940($28)
  4073f0:	05 00 00 00 0e 00 00 02 	beq $2,$0,407430 <tablewalk+0x988>
  4073f8:	43 00 00 00 01 00 02 00 	addiu $2,$0,1
  407400:	34 00 00 00 f4 8e 02 1c 	sw $2,-28940($28)
  407408:	05 00 00 00 0a 00 00 14 	beq $20,$0,407438 <tablewalk+0x990>
  407410:	28 00 00 00 0c 00 02 10 	lw $2,12($16)
  407418:	51 00 00 00 80 00 02 02 	ori $2,$2,128
  407420:	34 00 00 00 0c 00 02 10 	sw $2,12($16)
  407428:	01 00 00 00 0e 1d 10 00 	j 407438 <tablewalk+0x990>
  407430:	34 00 00 00 f4 8e 00 1c 	sw $0,-28940($28)
  407438:	28 00 00 00 24 00 02 1d 	lw $2,36($29)
  407440:	4f 00 00 00 00 02 02 02 	andi $2,$2,512
  407448:	06 00 00 00 04 00 00 02 	bne $2,$0,407460 <tablewalk+0x9b8>
  407450:	28 00 00 00 90 83 02 1c 	lw $2,-31856($28)
  407458:	05 00 00 00 0e 00 00 02 	beq $2,$0,407498 <tablewalk+0x9f0>
  407460:	43 00 00 00 01 00 02 00 	addiu $2,$0,1
  407468:	34 00 00 00 90 83 02 1c 	sw $2,-31856($28)
  407470:	05 00 00 00 0a 00 00 14 	beq $20,$0,4074a0 <tablewalk+0x9f8>
  407478:	28 00 00 00 0c 00 02 10 	lw $2,12($16)
  407480:	51 00 00 00 00 02 02 02 	ori $2,$2,512
  407488:	34 00 00 00 0c 00 02 10 	sw $2,12($16)
  407490:	01 00 00 00 28 1d 10 00 	j 4074a0 <tablewalk+0x9f8>
  407498:	34 00 00 00 90 83 00 1c 	sw $0,-31856($28)
  4074a0:	28 00 00 00 24 00 09 1d 	lw $9,36($29)
  4074a8:	4f 00 00 00 08 00 02 09 	andi $2,$9,8
  4074b0:	06 00 00 00 24 00 00 02 	bne $2,$0,407548 <tablewalk+0xaa0>
  4074b8:	28 00 00 00 38 00 0a 1d 	lw $10,56($29)
  4074c0:	06 00 00 00 06 00 00 0a 	bne $10,$0,4074e0 <tablewalk+0xa38>
  4074c8:	28 00 00 00 c0 86 02 1c 	lw $2,-31040($28)
  4074d0:	43 00 00 00 04 00 02 02 	addiu $2,$2,4
  4074d8:	34 00 00 00 c0 86 02 1c 	sw $2,-31040($28)
  4074e0:	42 00 00 00 00 05 11 00 	addu $5,$0,$17
  4074e8:	43 00 00 00 24 00 06 1d 	addiu $6,$29,36
  4074f0:	51 00 00 00 00 80 03 00 	ori $3,$0,32768
  4074f8:	42 00 00 00 00 03 03 10 	addu $3,$16,$3
  407500:	28 00 00 00 38 0e 08 03 	lw $8,3640($3)
  407508:	28 00 00 00 24 0e 04 03 	lw $4,3620($3)
  407510:	43 00 00 00 04 00 07 00 	addiu $7,$0,4
  407518:	51 00 00 00 08 00 02 09 	ori $2,$9,8
  407520:	51 00 00 00 02 00 04 04 	ori $4,$4,2
  407528:	43 00 00 00 01 00 08 08 	addiu $8,$8,1
  407530:	34 00 00 00 24 00 02 1d 	sw $2,36($29)
  407538:	34 00 00 00 38 0e 08 03 	sw $8,3640($3)
  407540:	02 00 00 00 3e 7d 10 00 	jal 41f4f8 <rdwr>
  407548:	28 00 00 00 24 00 02 1d 	lw $2,36($29)
  407550:	28 00 00 00 20 88 04 1c 	lw $4,-30688($28)
  407558:	43 00 00 00 00 f0 03 00 	addiu $3,$0,-4096
  407560:	4e 00 00 00 00 11 03 02 	and $17,$2,$3
  407568:	05 00 00 00 08 00 00 04 	beq $4,$0,407590 <tablewalk+0xae8>
  407570:	a2 00 00 00 00 10 04 00 	lui $4,4096
  407578:	43 00 00 00 fc 08 04 04 	addiu $4,$4,2300
  407580:	42 00 00 00 00 05 11 00 	addu $5,$0,$17
  407588:	02 00 00 00 0a b6 10 00 	jal 42d828 <PPrintf>
  407590:	28 00 00 00 30 00 0a 1d 	lw $10,48($29)
  407598:	50 00 00 00 00 02 0a 11 	or $2,$17,$10
  4075a0:	34 00 00 00 00 00 02 16 	sw $2,0($22)
  4075a8:	05 00 00 00 06 00 00 14 	beq $20,$0,4075c8 <tablewalk+0xb20>
  4075b0:	28 00 00 00 0c 00 02 10 	lw $2,12($16)
  4075b8:	51 00 00 00 01 00 02 02 	ori $2,$2,1
  4075c0:	34 00 00 00 0c 00 02 10 	sw $2,12($16)
  4075c8:	28 00 00 00 20 00 02 1d 	lw $2,32($29)
  4075d0:	28 00 00 00 28 00 05 1d 	lw $5,40($29)
  4075d8:	34 00 00 00 10 00 02 1d 	sw $2,16($29)
  4075e0:	34 00 00 00 14 00 13 1d 	sw $19,20($29)
  4075e8:	34 00 00 00 18 00 1e 1d 	sw $30,24($29)
  4075f0:	28 00 00 00 00 00 06 16 	lw $6,0($22)
  4075f8:	28 00 00 00 24 00 07 1d 	lw $7,36($29)
  407600:	42 00 00 00 00 04 10 00 	addu $4,$0,$16
  407608:	02 00 00 00 36 20 10 00 	jal 4080d8 <update_PATC>
  407610:	01 00 00 00 d2 1d 10 00 	j 407748 <tablewalk+0xca0>
  407618:	a2 00 00 00 00 10 04 00 	lui $4,4096
  407620:	43 00 00 00 14 09 04 04 	addiu $4,$4,2324
  407628:	02 00 00 00 0a b6 10 00 	jal 42d828 <PPrintf>
  407630:	28 00 00 00 20 88 03 1c 	lw $3,-30688($28)
  407638:	a2 00 00 00 05 00 02 00 	lui $2,5
  407640:	34 00 00 00 18 00 02 10 	sw $2,24($16)
  407648:	05 00 00 00 08 00 00 03 	beq $3,$0,407670 <tablewalk+0xbc8>
  407650:	a2 00 00 00 00 10 04 00 	lui $4,4096
  407658:	43 00 00 00 44 09 04 04 	addiu $4,$4,2372
  407660:	a2 00 00 00 05 00 05 00 	lui $5,5
  407668:	02 00 00 00 c4 c1 10 00 	jal 430710 <printf>
  407670:	28 00 00 00 20 88 02 1c 	lw $2,-30688($28)
  407678:	34 00 00 00 1c 00 11 10 	sw $17,28($16)
  407680:	05 00 00 00 08 ff 00 02 	beq $2,$0,4072a8 <tablewalk+0x800>
  407688:	a2 00 00 00 00 10 04 00 	lui $4,4096
  407690:	43 00 00 00 5c 09 04 04 	addiu $4,$4,2396
  407698:	42 00 00 00 00 05 11 00 	addu $5,$0,$17
  4076a0:	02 00 00 00 c4 c1 10 00 	jal 430710 <printf>
  4076a8:	01 00 00 00 aa 1c 10 00 	j 4072a8 <tablewalk+0x800>
  4076b0:	a2 00 00 00 00 10 04 00 	lui $4,4096
  4076b8:	43 00 00 00 74 09 04 04 	addiu $4,$4,2420
  4076c0:	02 00 00 00 0a b6 10 00 	jal 42d828 <PPrintf>
  4076c8:	28 00 00 00 20 88 03 1c 	lw $3,-30688($28)
  4076d0:	a2 00 00 00 04 00 02 00 	lui $2,4
  4076d8:	34 00 00 00 18 00 02 10 	sw $2,24($16)
  4076e0:	05 00 00 00 08 00 00 03 	beq $3,$0,407708 <tablewalk+0xc60>
  4076e8:	a2 00 00 00 00 10 04 00 	lui $4,4096
  4076f0:	43 00 00 00 44 09 04 04 	addiu $4,$4,2372
  4076f8:	a2 00 00 00 04 00 05 00 	lui $5,4
  407700:	02 00 00 00 c4 c1 10 00 	jal 430710 <printf>
  407708:	28 00 00 00 20 88 02 1c 	lw $2,-30688($28)
  407710:	34 00 00 00 1c 00 11 10 	sw $17,28($16)
  407718:	05 00 00 00 e2 fe 00 02 	beq $2,$0,4072a8 <tablewalk+0x800>
  407720:	a2 00 00 00 00 10 04 00 	lui $4,4096
  407728:	43 00 00 00 5c 09 04 04 	addiu $4,$4,2396
  407730:	42 00 00 00 00 05 11 00 	addu $5,$0,$17
  407738:	02 00 00 00 c4 c1 10 00 	jal 430710 <printf>
  407740:	01 00 00 00 aa 1c 10 00 	j 4072a8 <tablewalk+0x800>
  407748:	42 00 00 00 00 02 00 00 	addu $2,$0,$0
  407750:	28 00 00 00 64 00 1f 1d 	lw $31,100($29)
  407758:	28 00 00 00 60 00 1e 1d 	lw $30,96($29)
  407760:	28 00 00 00 5c 00 17 1d 	lw $23,92($29)
  407768:	28 00 00 00 58 00 16 1d 	lw $22,88($29)
  407770:	28 00 00 00 54 00 15 1d 	lw $21,84($29)
  407778:	28 00 00 00 50 00 14 1d 	lw $20,80($29)
  407780:	28 00 00 00 4c 00 13 1d 	lw $19,76($29)
  407788:	28 00 00 00 48 00 12 1d 	lw $18,72($29)
  407790:	28 00 00 00 44 00 11 1d 	lw $17,68($29)
  407798:	28 00 00 00 40 00 10 1d 	lw $16,64($29)
  4077a0:	43 00 00 00 68 00 1d 1d 	addiu $29,$29,104
  4077a8:	03 00 00 00 00 00 00 1f 	jr $31

004077b0 <check_BATC>:
  4077b0:	42 00 00 00 00 03 00 00 	addu $3,$0,$0
  4077b8:	28 00 00 00 4c 00 02 04 	lw $2,76($4)
  4077c0:	06 00 00 00 08 00 05 02 	bne $2,$5,4077e8 <check_BATC+0x38>
  4077c8:	28 00 00 00 64 00 02 04 	lw $2,100($4)
  4077d0:	05 00 00 00 04 00 00 02 	beq $2,$0,4077e8 <check_BATC+0x38>
  4077d8:	43 00 00 00 01 00 02 00 	addiu $2,$0,1
  4077e0:	01 00 00 00 04 1e 10 00 	j 407810 <check_BATC+0x60>
  4077e8:	43 00 00 00 1c 00 04 04 	addiu $4,$4,28
  4077f0:	43 00 00 00 01 00 03 03 	addiu $3,$3,1
  4077f8:	5c 00 00 00 0a 00 02 03 	slti $2,$3,10
  407800:	06 00 00 00 ec ff 00 02 	bne $2,$0,4077b8 <check_BATC+0x8>
  407808:	42 00 00 00 00 02 00 00 	addu $2,$0,$0
  407810:	03 00 00 00 00 00 00 1f 	jr $31

00407818 <check_PATC>:
  407818:	42 00 00 00 00 03 00 00 	addu $3,$0,$0
  407820:	28 00 00 00 64 01 02 04 	lw $2,356($4)
  407828:	06 00 00 00 08 00 05 02 	bne $2,$5,407850 <check_PATC+0x38>
  407830:	28 00 00 00 84 01 02 04 	lw $2,388($4)
  407838:	05 00 00 00 04 00 00 02 	beq $2,$0,407850 <check_PATC+0x38>
  407840:	43 00 00 00 01 00 02 00 	addiu $2,$0,1
  407848:	01 00 00 00 1e 1e 10 00 	j 407878 <check_PATC+0x60>
  407850:	43 00 00 00 28 00 04 04 	addiu $4,$4,40
  407858:	43 00 00 00 01 00 03 03 	addiu $3,$3,1
  407860:	5c 00 00 00 38 00 02 03 	slti $2,$3,56
  407868:	06 00 00 00 ec ff 00 02 	bne $2,$0,407820 <check_PATC+0x8>
  407870:	42 00 00 00 00 02 00 00 	addu $2,$0,$0
  407878:	03 00 00 00 00 00 00 1f 	jr $31

00407880 <get_from_BATC>:
  407880:	43 00 00 00 e8 ff 1d 1d 	addiu $29,$29,-24
  407888:	28 00 00 00 28 00 08 1d 	lw $8,40($29)
  407890:	34 00 00 00 10 00 10 1d 	sw $16,16($29)
  407898:	42 00 00 00 00 10 04 00 	addu $16,$0,$4
  4078a0:	34 00 00 00 14 00 1f 1d 	sw $31,20($29)
  4078a8:	28 00 00 00 4c 00 02 10 	lw $2,76($16)
  4078b0:	42 00 00 00 00 04 00 00 	addu $4,$0,$0
  4078b8:	05 00 00 00 0a 00 06 02 	beq $2,$6,4078e8 <get_from_BATC+0x68>
  4078c0:	42 00 00 00 00 03 10 00 	addu $3,$0,$16
  4078c8:	43 00 00 00 1c 00 03 03 	addiu $3,$3,28
  4078d0:	28 00 00 00 4c 00 02 03 	lw $2,76($3)
  4078d8:	43 00 00 00 01 00 04 04 	addiu $4,$4,1
  4078e0:	06 00 00 00 f8 ff 06 02 	bne $2,$6,4078c8 <get_from_BATC+0x48>
  4078e8:	05 00 00 00 1a 00 00 07 	beq $7,$0,407958 <get_from_BATC+0xd8>
  4078f0:	55 00 00 00 03 02 04 00 	sll $2,$4,0x3
  4078f8:	45 00 00 00 00 02 04 02 	subu $2,$2,$4
  407900:	55 00 00 00 02 02 02 00 	sll $2,$2,0x2
  407908:	42 00 00 00 00 02 02 10 	addu $2,$16,$2
  407910:	28 00 00 00 60 00 02 02 	lw $2,96($2)
  407918:	05 00 00 00 0e 00 00 02 	beq $2,$0,407958 <get_from_BATC+0xd8>
  407920:	a2 00 00 00 00 10 04 00 	lui $4,4096
  407928:	43 00 00 00 b0 09 04 04 	addiu $4,$4,2480
  407930:	02 00 00 00 0a b6 10 00 	jal 42d828 <PPrintf>
  407938:	a2 00 00 00 07 00 02 00 	lui $2,7
  407940:	34 00 00 00 18 00 02 10 	sw $2,24($16)
  407948:	43 00 00 00 ff ff 02 00 	addiu $2,$0,-1
  407950:	01 00 00 00 da 1e 10 00 	j 407b68 <get_from_BATC+0x2e8>
  407958:	55 00 00 00 03 02 04 00 	sll $2,$4,0x3
  407960:	45 00 00 00 00 02 04 02 	subu $2,$2,$4
  407968:	55 00 00 00 02 02 02 00 	sll $2,$2,0x2
  407970:	42 00 00 00 00 02 02 10 	addu $2,$16,$2
  407978:	28 00 00 00 5c 00 02 02 	lw $2,92($2)
  407980:	05 00 00 00 14 00 00 02 	beq $2,$0,4079d8 <get_from_BATC+0x158>
  407988:	28 00 00 00 c0 86 02 1c 	lw $2,-31040($28)
  407990:	43 00 00 00 01 00 03 00 	addiu $3,$0,1
  407998:	34 00 00 00 f0 8e 03 1c 	sw $3,-28944($28)
  4079a0:	43 00 00 00 01 00 02 02 	addiu $2,$2,1
  4079a8:	34 00 00 00 c0 86 02 1c 	sw $2,-31040($28)
  4079b0:	05 00 00 00 0a 00 00 08 	beq $8,$0,4079e0 <get_from_BATC+0x160>
  4079b8:	28 00 00 00 0c 00 02 10 	lw $2,12($16)
  4079c0:	51 00 00 00 40 00 02 02 	ori $2,$2,64
  4079c8:	34 00 00 00 0c 00 02 10 	sw $2,12($16)
  4079d0:	01 00 00 00 78 1e 10 00 	j 4079e0 <get_from_BATC+0x160>
  4079d8:	34 00 00 00 f0 8e 00 1c 	sw $0,-28944($28)
  4079e0:	55 00 00 00 03 02 04 00 	sll $2,$4,0x3
  4079e8:	45 00 00 00 00 02 04 02 	subu $2,$2,$4
  4079f0:	55 00 00 00 02 02 02 00 	sll $2,$2,0x2
  4079f8:	42 00 00 00 00 02 02 10 	addu $2,$16,$2
  407a00:	28 00 00 00 54 00 02 02 	lw $2,84($2)
  407a08:	05 00 00 00 0e 00 00 02 	beq $2,$0,407a48 <get_from_BATC+0x1c8>
  407a10:	43 00 00 00 01 00 02 00 	addiu $2,$0,1
  407a18:	34 00 00 00 90 83 02 1c 	sw $2,-31856($28)
  407a20:	05 00 00 00 0a 00 00 08 	beq $8,$0,407a50 <get_from_BATC+0x1d0>
  407a28:	28 00 00 00 0c 00 02 10 	lw $2,12($16)
  407a30:	51 00 00 00 00 02 02 02 	ori $2,$2,512
  407a38:	34 00 00 00 0c 00 02 10 	sw $2,12($16)
  407a40:	01 00 00 00 94 1e 10 00 	j 407a50 <get_from_BATC+0x1d0>
  407a48:	34 00 00 00 90 83 00 1c 	sw $0,-31856($28)
  407a50:	55 00 00 00 03 02 04 00 	sll $2,$4,0x3
  407a58:	45 00 00 00 00 02 04 02 	subu $2,$2,$4
  407a60:	55 00 00 00 02 02 02 00 	sll $2,$2,0x2
  407a68:	42 00 00 00 00 02 02 10 	addu $2,$16,$2
  407a70:	28 00 00 00 58 00 02 02 	lw $2,88($2)
  407a78:	05 00 00 00 0e 00 00 02 	beq $2,$0,407ab8 <get_from_BATC+0x238>
  407a80:	43 00 00 00 01 00 02 00 	addiu $2,$0,1
  407a88:	34 00 00 00 f4 8e 02 1c 	sw $2,-28940($28)
  407a90:	05 00 00 00 24 00 00 08 	beq $8,$0,407b28 <get_from_BATC+0x2a8>
  407a98:	28 00 00 00 0c 00 02 10 	lw $2,12($16)
  407aa0:	51 00 00 00 80 00 02 02 	ori $2,$2,128
  407aa8:	34 00 00 00 0c 00 02 10 	sw $2,12($16)
  407ab0:	01 00 00 00 b0 1e 10 00 	j 407ac0 <get_from_BATC+0x240>
  407ab8:	34 00 00 00 f4 8e 00 1c 	sw $0,-28940($28)
  407ac0:	05 00 00 00 18 00 00 08 	beq $8,$0,407b28 <get_from_BATC+0x2a8>
  407ac8:	55 00 00 00 03 02 04 00 	sll $2,$4,0x3
  407ad0:	45 00 00 00 00 02 04 02 	subu $2,$2,$4
  407ad8:	55 00 00 00 02 02 02 00 	sll $2,$2,0x2
  407ae0:	42 00 00 00 00 02 02 10 	addu $2,$16,$2
  407ae8:	28 00 00 00 60 00 02 02 	lw $2,96($2)
  407af0:	05 00 00 00 06 00 00 02 	beq $2,$0,407b10 <get_from_BATC+0x290>
  407af8:	28 00 00 00 0c 00 02 10 	lw $2,12($16)
  407b00:	51 00 00 00 04 00 02 02 	ori $2,$2,4
  407b08:	34 00 00 00 0c 00 02 10 	sw $2,12($16)
  407b10:	28 00 00 00 0c 00 02 10 	lw $2,12($16)
  407b18:	51 00 00 00 01 00 02 02 	ori $2,$2,1
  407b20:	34 00 00 00 0c 00 02 10 	sw $2,12($16)
  407b28:	55 00 00 00 03 02 04 00 	sll $2,$4,0x3
  407b30:	45 00 00 00 00 02 04 02 	subu $2,$2,$4
  407b38:	55 00 00 00 02 02 02 00 	sll $2,$2,0x2
  407b40:	42 00 00 00 00 02 02 10 	addu $2,$16,$2
  407b48:	28 00 00 00 50 00 03 02 	lw $3,80($2)
  407b50:	42 00 00 00 00 02 00 00 	addu $2,$0,$0
  407b58:	55 00 00 00 13 03 03 00 	sll $3,$3,0x13
  407b60:	34 00 00 00 00 00 03 05 	sw $3,0($5)
  407b68:	28 00 00 00 14 00 1f 1d 	lw $31,20($29)
  407b70:	28 00 00 00 10 00 10 1d 	lw $16,16($29)
  407b78:	43 00 00 00 18 00 1d 1d 	addiu $29,$29,24
  407b80:	03 00 00 00 00 00 00 1f 	jr $31

00407b88 <get_from_PATC>:
  407b88:	43 00 00 00 c0 ff 1d 1d 	addiu $29,$29,-64
  407b90:	34 00 00 00 34 00 13 1d 	sw $19,52($29)
  407b98:	28 00 00 00 54 00 13 1d 	lw $19,84($29)
  407ba0:	34 00 00 00 28 00 10 1d 	sw $16,40($29)
  407ba8:	42 00 00 00 00 10 04 00 	addu $16,$0,$4
  407bb0:	34 00 00 00 38 00 14 1d 	sw $20,56($29)
  407bb8:	42 00 00 00 00 14 05 00 	addu $20,$0,$5
  407bc0:	42 00 00 00 00 08 06 00 	addu $8,$0,$6
  407bc8:	34 00 00 00 3c 00 1f 1d 	sw $31,60($29)
  407bd0:	34 00 00 00 30 00 12 1d 	sw $18,48($29)
  407bd8:	34 00 00 00 2c 00 11 1d 	sw $17,44($29)
  407be0:	28 00 00 00 64 01 02 10 	lw $2,356($16)
  407be8:	42 00 00 00 00 12 07 00 	addu $18,$0,$7
  407bf0:	42 00 00 00 00 11 00 00 	addu $17,$0,$0
  407bf8:	06 00 00 00 04 00 08 02 	bne $2,$8,407c10 <get_from_PATC+0x88>
  407c00:	28 00 00 00 84 01 02 10 	lw $2,388($16)
  407c08:	06 00 00 00 12 00 00 02 	bne $2,$0,407c58 <get_from_PATC+0xd0>
  407c10:	43 00 00 00 01 00 11 11 	addiu $17,$17,1
  407c18:	55 00 00 00 02 02 11 00 	sll $2,$17,0x2
  407c20:	42 00 00 00 00 02 11 02 	addu $2,$2,$17
  407c28:	55 00 00 00 03 02 02 00 	sll $2,$2,0x3
  407c30:	42 00 00 00 00 03 02 10 	addu $3,$16,$2
  407c38:	28 00 00 00 64 01 02 03 	lw $2,356($3)
  407c40:	06 00 00 00 f2 ff 08 02 	bne $2,$8,407c10 <get_from_PATC+0x88>
  407c48:	28 00 00 00 84 01 02 03 	lw $2,388($3)
  407c50:	05 00 00 00 ee ff 00 02 	beq $2,$0,407c10 <get_from_PATC+0x88>
  407c58:	05 00 00 00 20 00 00 13 	beq $19,$0,407ce0 <get_from_PATC+0x158>
  407c60:	28 00 00 00 0c 00 04 10 	lw $4,12($16)
  407c68:	51 00 00 00 08 00 02 04 	ori $2,$4,8
  407c70:	34 00 00 00 0c 00 02 10 	sw $2,12($16)
  407c78:	55 00 00 00 02 02 11 00 	sll $2,$17,0x2
  407c80:	42 00 00 00 00 02 11 02 	addu $2,$2,$17
  407c88:	55 00 00 00 03 02 02 00 	sll $2,$2,0x3
  407c90:	42 00 00 00 00 03 02 10 	addu $3,$16,$2
  407c98:	28 00 00 00 80 01 02 03 	lw $2,384($3)
  407ca0:	05 00 00 00 04 00 00 02 	beq $2,$0,407cb8 <get_from_PATC+0x130>
  407ca8:	51 00 00 00 0c 00 02 04 	ori $2,$4,12
  407cb0:	34 00 00 00 0c 00 02 10 	sw $2,12($16)
  407cb8:	28 00 00 00 6c 01 02 03 	lw $2,364($3)
  407cc0:	05 00 00 00 06 00 00 02 	beq $2,$0,407ce0 <get_from_PATC+0x158>
  407cc8:	28 00 00 00 0c 00 02 10 	lw $2,12($16)
  407cd0:	51 00 00 00 00 01 02 02 	ori $2,$2,256
  407cd8:	34 00 00 00 0c 00 02 10 	sw $2,12($16)
  407ce0:	05 00 00 00 1a 00 00 12 	beq $18,$0,407d50 <get_from_PATC+0x1c8>
  407ce8:	55 00 00 00 02 02 11 00 	sll $2,$17,0x2
  407cf0:	42 00 00 00 00 02 11 02 	addu $2,$2,$17
  407cf8:	55 00 00 00 03 02 02 00 	sll $2,$2,0x3
  407d00:	42 00 00 00 00 02 02 10 	addu $2,$16,$2
  407d08:	28 00 00 00 80 01 02 02 	lw $2,384($2)
  407d10:	05 00 00 00 0e 00 00 02 	beq $2,$0,407d50 <get_from_PATC+0x1c8>
  407d18:	a2 00 00 00 00 10 04 00 	lui $4,4096
  407d20:	43 00 00 00 e4 09 04 04 	addiu $4,$4,2532
  407d28:	02 00 00 00 0a b6 10 00 	jal 42d828 <PPrintf>
  407d30:	a2 00 00 00 07 00 02 00 	lui $2,7
  407d38:	34 00 00 00 18 00 02 10 	sw $2,24($16)
  407d40:	43 00 00 00 ff ff 02 00 	addiu $2,$0,-1
  407d48:	01 00 00 00 26 20 10 00 	j 408098 <get_from_PATC+0x510>
  407d50:	05 00 00 00 12 00 00 13 	beq $19,$0,407da0 <get_from_PATC+0x218>
  407d58:	55 00 00 00 02 02 11 00 	sll $2,$17,0x2
  407d60:	42 00 00 00 00 02 11 02 	addu $2,$2,$17
  407d68:	55 00 00 00 03 02 02 00 	sll $2,$2,0x3
  407d70:	42 00 00 00 00 02 02 10 	addu $2,$16,$2
  407d78:	28 00 00 00 7c 01 02 02 	lw $2,380($2)
  407d80:	05 00 00 00 06 00 00 02 	beq $2,$0,407da0 <get_from_PATC+0x218>
  407d88:	28 00 00 00 0c 00 02 10 	lw $2,12($16)
  407d90:	51 00 00 00 10 00 02 02 	ori $2,$2,16
  407d98:	34 00 00 00 0c 00 02 10 	sw $2,12($16)
  407da0:	05 00 00 00 2a 00 00 12 	beq $18,$0,407e50 <get_from_PATC+0x2c8>
  407da8:	55 00 00 00 02 02 11 00 	sll $2,$17,0x2
  407db0:	42 00 00 00 00 02 11 02 	addu $2,$2,$17
  407db8:	55 00 00 00 03 02 02 00 	sll $2,$2,0x3
  407dc0:	42 00 00 00 00 02 02 10 	addu $2,$16,$2
  407dc8:	28 00 00 00 7c 01 02 02 	lw $2,380($2)
  407dd0:	06 00 00 00 1e 00 00 02 	bne $2,$0,407e50 <get_from_PATC+0x2c8>
  407dd8:	28 00 00 00 c0 86 03 1c 	lw $3,-31040($28)
  407de0:	42 00 00 00 00 04 10 00 	addu $4,$0,$16
  407de8:	43 00 00 00 20 00 05 1d 	addiu $5,$29,32
  407df0:	28 00 00 00 50 00 06 1d 	lw $6,80($29)
  407df8:	43 00 00 00 01 00 02 00 	addiu $2,$0,1
  407e00:	42 00 00 00 00 07 08 00 	addu $7,$0,$8
  407e08:	34 00 00 00 10 00 12 1d 	sw $18,16($29)
  407e10:	34 00 00 00 14 00 02 1d 	sw $2,20($29)
  407e18:	34 00 00 00 18 00 00 1d 	sw $0,24($29)
  407e20:	43 00 00 00 0c 00 03 03 	addiu $3,$3,12
  407e28:	34 00 00 00 c0 86 03 1c 	sw $3,-31040($28)
  407e30:	02 00 00 00 aa 1a 10 00 	jal 406aa8 <tablewalk>
  407e38:	05 00 00 00 04 00 00 02 	beq $2,$0,407e50 <get_from_PATC+0x2c8>
  407e40:	43 00 00 00 ff ff 02 00 	addiu $2,$0,-1
  407e48:	01 00 00 00 26 20 10 00 	j 408098 <get_from_PATC+0x510>
  407e50:	28 00 00 00 20 88 02 1c 	lw $2,-30688($28)
  407e58:	05 00 00 00 10 00 00 02 	beq $2,$0,407ea0 <get_from_PATC+0x318>
  407e60:	55 00 00 00 02 02 11 00 	sll $2,$17,0x2
  407e68:	42 00 00 00 00 02 11 02 	addu $2,$2,$17
  407e70:	55 00 00 00 03 02 02 00 	sll $2,$2,0x3
  407e78:	42 00 00 00 00 02 02 10 	addu $2,$16,$2
  407e80:	28 00 00 00 78 01 05 02 	lw $5,376($2)
  407e88:	a2 00 00 00 00 10 04 00 	lui $4,4096
  407e90:	43 00 00 00 18 0a 04 04 	addiu $4,$4,2584
  407e98:	02 00 00 00 0a b6 10 00 	jal 42d828 <PPrintf>
  407ea0:	55 00 00 00 02 02 11 00 	sll $2,$17,0x2
  407ea8:	42 00 00 00 00 02 11 02 	addu $2,$2,$17
  407eb0:	55 00 00 00 03 02 02 00 	sll $2,$2,0x3
  407eb8:	42 00 00 00 00 02 02 10 	addu $2,$16,$2
  407ec0:	28 00 00 00 78 01 02 02 	lw $2,376($2)
  407ec8:	05 00 00 00 14 00 00 02 	beq $2,$0,407f20 <get_from_PATC+0x398>
  407ed0:	28 00 00 00 c0 86 02 1c 	lw $2,-31040($28)
  407ed8:	43 00 00 00 01 00 03 00 	addiu $3,$0,1
  407ee0:	34 00 00 00 f0 8e 03 1c 	sw $3,-28944($28)
  407ee8:	43 00 00 00 01 00 02 02 	addiu $2,$2,1
  407ef0:	34 00 00 00 c0 86 02 1c 	sw $2,-31040($28)
  407ef8:	05 00 00 00 0a 00 00 13 	beq $19,$0,407f28 <get_from_PATC+0x3a0>
  407f00:	28 00 00 00 0c 00 02 10 	lw $2,12($16)
  407f08:	51 00 00 00 40 00 02 02 	ori $2,$2,64
  407f10:	34 00 00 00 0c 00 02 10 	sw $2,12($16)
  407f18:	01 00 00 00 ca 1f 10 00 	j 407f28 <get_from_PATC+0x3a0>
  407f20:	34 00 00 00 f0 8e 00 1c 	sw $0,-28944($28)
  407f28:	55 00 00 00 02 02 11 00 	sll $2,$17,0x2
  407f30:	42 00 00 00 00 02 11 02 	addu $2,$2,$17
  407f38:	55 00 00 00 03 02 02 00 	sll $2,$2,0x3
  407f40:	42 00 00 00 00 02 02 10 	addu $2,$16,$2
  407f48:	28 00 00 00 70 01 02 02 	lw $2,368($2)
  407f50:	05 00 00 00 0e 00 00 02 	beq $2,$0,407f90 <get_from_PATC+0x408>
  407f58:	43 00 00 00 01 00 02 00 	addiu $2,$0,1
  407f60:	34 00 00 00 90 83 02 1c 	sw $2,-31856($28)
  407f68:	05 00 00 00 0a 00 00 13 	beq $19,$0,407f98 <get_from_PATC+0x410>
  407f70:	28 00 00 00 0c 00 02 10 	lw $2,12($16)
  407f78:	51 00 00 00 00 02 02 02 	ori $2,$2,512
  407f80:	34 00 00 00 0c 00 02 10 	sw $2,12($16)
  407f88:	01 00 00 00 e6 1f 10 00 	j 407f98 <get_from_PATC+0x410>
  407f90:	34 00 00 00 90 83 00 1c 	sw $0,-31856($28)
  407f98:	55 00 00 00 02 02 11 00 	sll $2,$17,0x2
  407fa0:	42 00 00 00 00 02 11 02 	addu $2,$2,$17
  407fa8:	55 00 00 00 03 02 02 00 	sll $2,$2,0x3
  407fb0:	42 00 00 00 00 02 02 10 	addu $2,$16,$2
  407fb8:	28 00 00 00 74 01 02 02 	lw $2,372($2)
  407fc0:	05 00 00 00 0e 00 00 02 	beq $2,$0,408000 <get_from_PATC+0x478>
  407fc8:	43 00 00 00 01 00 02 00 	addiu $2,$0,1
  407fd0:	34 00 00 00 f4 8e 02 1c 	sw $2,-28940($28)
  407fd8:	05 00 00 00 0a 00 00 13 	beq $19,$0,408008 <get_from_PATC+0x480>
  407fe0:	28 00 00 00 0c 00 02 10 	lw $2,12($16)
  407fe8:	51 00 00 00 80 00 02 02 	ori $2,$2,128
  407ff0:	34 00 00 00 0c 00 02 10 	sw $2,12($16)
  407ff8:	01 00 00 00 02 20 10 00 	j 408008 <get_from_PATC+0x480>
  408000:	34 00 00 00 f4 8e 00 1c 	sw $0,-28940($28)
  408008:	05 00 00 00 0c 00 00 12 	beq $18,$0,408040 <get_from_PATC+0x4b8>
  408010:	55 00 00 00 02 02 11 00 	sll $2,$17,0x2
  408018:	42 00 00 00 00 02 11 02 	addu $2,$2,$17
  408020:	55 00 00 00 03 02 02 00 	sll $2,$2,0x3
  408028:	42 00 00 00 00 02 02 10 	addu $2,$16,$2
  408030:	43 00 00 00 01 00 03 00 	addiu $3,$0,1
  408038:	34 00 00 00 7c 01 03 02 	sw $3,380($2)
  408040:	05 00 00 00 06 00 00 13 	beq $19,$0,408060 <get_from_PATC+0x4d8>
  408048:	28 00 00 00 0c 00 02 10 	lw $2,12($16)
  408050:	51 00 00 00 01 00 02 02 	ori $2,$2,1
  408058:	34 00 00 00 0c 00 02 10 	sw $2,12($16)
  408060:	55 00 00 00 02 02 11 00 	sll $2,$17,0x2
  408068:	42 00 00 00 00 02 11 02 	addu $2,$2,$17
  408070:	55 00 00 00 03 02 02 00 	sll $2,$2,0x3
  408078:	42 00 00 00 00 02 02 10 	addu $2,$16,$2
  408080:	28 00 00 00 68 01 03 02 	lw $3,360($2)
  408088:	42 00 00 00 00 02 00 00 	addu $2,$0,$0
  408090:	34 00 00 00 00 00 03 14 	sw $3,0($20)
  408098:	28 00 00 00 3c 00 1f 1d 	lw $31,60($29)
  4080a0:	28 00 00 00 38 00 14 1d 	lw $20,56($29)
  4080a8:	28 00 00 00 34 00 13 1d 	lw $19,52($29)
  4080b0:	28 00 00 00 30 00 12 1d 	lw $18,48($29)
  4080b8:	28 00 00 00 2c 00 11 1d 	lw $17,44($29)
  4080c0:	28 00 00 00 28 00 10 1d 	lw $16,40($29)
  4080c8:	43 00 00 00 40 00 1d 1d 	addiu $29,$29,64
  4080d0:	03 00 00 00 00 00 00 1f 	jr $31

004080d8 <update_PATC>:
  4080d8:	43 00 00 00 c8 ff 1d 1d 	addiu $29,$29,-56
  4080e0:	34 00 00 00 24 00 15 1d 	sw $21,36($29)
  4080e8:	28 00 00 00 48 00 15 1d 	lw $21,72($29)
  4080f0:	34 00 00 00 28 00 16 1d 	sw $22,40($29)
  4080f8:	28 00 00 00 4c 00 16 1d 	lw $22,76($29)
  408100:	34 00 00 00 2c 00 17 1d 	sw $23,44($29)
  408108:	28 00 00 00 50 00 17 1d 	lw $23,80($29)
  408110:	34 00 00 00 14 00 11 1d 	sw $17,20($29)
  408118:	42 00 00 00 00 11 04 00 	addu $17,$0,$4
  408120:	34 00 00 00 1c 00 13 1d 	sw $19,28($29)
  408128:	42 00 00 00 00 13 05 00 	addu $19,$0,$5
  408130:	34 00 00 00 20 00 14 1d 	sw $20,32($29)
  408138:	42 00 00 00 00 14 06 00 	addu $20,$0,$6
  408140:	34 00 00 00 30 00 1f 1d 	sw $31,48($29)
  408148:	34 00 00 00 18 00 12 1d 	sw $18,24($29)
  408150:	34 00 00 00 10 00 10 1d 	sw $16,16($29)
  408158:	28 00 00 00 88 01 02 11 	lw $2,392($17)
  408160:	42 00 00 00 00 12 07 00 	addu $18,$0,$7
  408168:	42 00 00 00 00 10 00 00 	addu $16,$0,$0
  408170:	05 00 00 00 0a 00 00 02 	beq $2,$0,4081a0 <update_PATC+0xc8>
  408178:	42 00 00 00 00 03 11 00 	addu $3,$0,$17
  408180:	43 00 00 00 28 00 03 03 	addiu $3,$3,40
  408188:	28 00 00 00 88 01 02 03 	lw $2,392($3)
  408190:	43 00 00 00 01 00 10 10 	addiu $16,$16,1
  408198:	06 00 00 00 f8 ff 00 02 	bne $2,$0,408180 <update_PATC+0xa8>
  4081a0:	28 00 00 00 20 88 02 1c 	lw $2,-30688($28)
  4081a8:	05 00 00 00 08 00 00 02 	beq $2,$0,4081d0 <update_PATC+0xf8>
  4081b0:	a2 00 00 00 00 10 04 00 	lui $4,4096
  4081b8:	43 00 00 00 30 0a 04 04 	addiu $4,$4,2608
  4081c0:	42 00 00 00 00 05 10 00 	addu $5,$0,$16
  4081c8:	02 00 00 00 0a b6 10 00 	jal 42d828 <PPrintf>
  4081d0:	55 00 00 00 02 02 10 00 	sll $2,$16,0x2
  4081d8:	42 00 00 00 00 02 10 02 	addu $2,$2,$16
  4081e0:	55 00 00 00 03 02 02 00 	sll $2,$2,0x3
  4081e8:	42 00 00 00 00 05 02 11 	addu $5,$17,$2
  4081f0:	43 00 00 00 37 00 02 00 	addiu $2,$0,55
  4081f8:	34 00 00 00 88 01 02 05 	sw $2,392($5)
  408200:	57 00 00 00 0c 02 14 00 	srl $2,$20,0xc
  408208:	43 00 00 00 01 00 06 00 	addiu $6,$0,1
  408210:	50 00 00 00 00 03 15 16 	or $3,$22,$21
  408218:	50 00 00 00 00 03 12 03 	or $3,$3,$18
  408220:	34 00 00 00 68 01 02 05 	sw $2,360($5)
  408228:	4f 00 00 00 80 00 02 03 	andi $2,$3,128
  408230:	5d 00 00 00 00 02 02 00 	sltu $2,$0,$2
  408238:	50 00 00 00 00 04 12 15 	or $4,$21,$18
  408240:	34 00 00 00 74 01 02 05 	sw $2,372($5)
  408248:	4f 00 00 00 04 00 02 04 	andi $2,$4,4
  408250:	5d 00 00 00 00 02 02 00 	sltu $2,$0,$2
  408258:	34 00 00 00 80 01 02 05 	sw $2,384($5)
  408260:	4f 00 00 00 40 00 02 03 	andi $2,$3,64
  408268:	5d 00 00 00 00 02 02 00 	sltu $2,$0,$2
  408270:	4f 00 00 00 00 02 03 03 	andi $3,$3,512
  408278:	5d 00 00 00 00 03 03 00 	sltu $3,$0,$3
  408280:	4f 00 00 00 00 01 04 04 	andi $4,$4,256
  408288:	5d 00 00 00 00 04 04 00 	sltu $4,$0,$4
  408290:	34 00 00 00 64 01 13 05 	sw $19,356($5)
  408298:	34 00 00 00 84 01 06 05 	sw $6,388($5)
  4082a0:	34 00 00 00 78 01 02 05 	sw $2,376($5)
  4082a8:	34 00 00 00 70 01 03 05 	sw $3,368($5)
  4082b0:	34 00 00 00 6c 01 04 05 	sw $4,364($5)
  4082b8:	06 00 00 00 04 00 00 17 	bne $23,$0,4082d0 <update_PATC+0x1f8>
  4082c0:	4f 00 00 00 10 00 02 12 	andi $2,$18,16
  4082c8:	05 00 00 00 02 00 00 02 	beq $2,$0,4082d8 <update_PATC+0x200>
  4082d0:	34 00 00 00 7c 01 06 05 	sw $6,380($5)
  4082d8:	42 00 00 00 00 03 00 00 	addu $3,$0,$0
  4082e0:	42 00 00 00 00 04 11 00 	addu $4,$0,$17
  4082e8:	05 00 00 00 08 00 10 03 	beq $3,$16,408310 <update_PATC+0x238>
  4082f0:	28 00 00 00 88 01 02 04 	lw $2,392($4)
  4082f8:	05 00 00 00 04 00 00 02 	beq $2,$0,408310 <update_PATC+0x238>
  408300:	43 00 00 00 ff ff 02 02 	addiu $2,$2,-1
  408308:	34 00 00 00 88 01 02 04 	sw $2,392($4)
  408310:	43 00 00 00 28 00 04 04 	addiu $4,$4,40
  408318:	43 00 00 00 01 00 03 03 	addiu $3,$3,1
  408320:	5c 00 00 00 38 00 02 03 	slti $2,$3,56
  408328:	06 00 00 00 ee ff 00 02 	bne $2,$0,4082e8 <update_PATC+0x210>
  408330:	42 00 00 00 00 02 00 00 	addu $2,$0,$0
  408338:	28 00 00 00 30 00 1f 1d 	lw $31,48($29)
  408340:	28 00 00 00 2c 00 17 1d 	lw $23,44($29)
  408348:	28 00 00 00 28 00 16 1d 	lw $22,40($29)
  408350:	28 00 00 00 24 00 15 1d 	lw $21,36($29)
  408358:	28 00 00 00 20 00 14 1d 	lw $20,32($29)
  408360:	28 00 00 00 1c 00 13 1d 	lw $19,28($29)
  408368:	28 00 00 00 18 00 12 1d 	lw $18,24($29)
  408370:	28 00 00 00 14 00 11 1d 	lw $17,20($29)
  408378:	28 00 00 00 10 00 10 1d 	lw $16,16($29)
  408380:	43 00 00 00 38 00 1d 1d 	addiu $29,$29,56
  408388:	03 00 00 00 00 00 00 1f 	jr $31

00408390 <load_from_cache>:
  408390:	28 00 00 00 20 88 03 1c 	lw $3,-30688($28)
  408398:	43 00 00 00 c0 ff 1d 1d 	addiu $29,$29,-64
  4083a0:	34 00 00 00 28 00 12 1d 	sw $18,40($29)
  4083a8:	42 00 00 00 00 12 04 00 	addu $18,$0,$4
  4083b0:	34 00 00 00 34 00 15 1d 	sw $21,52($29)
  4083b8:	42 00 00 00 00 15 05 00 	addu $21,$0,$5
  4083c0:	34 00 00 00 24 00 11 1d 	sw $17,36($29)
  4083c8:	42 00 00 00 00 11 06 00 	addu $17,$0,$6
  4083d0:	34 00 00 00 38 00 16 1d 	sw $22,56($29)
  4083d8:	42 00 00 00 00 16 07 00 	addu $22,$0,$7
  4083e0:	4f 00 00 00 f0 0f 02 11 	andi $2,$17,4080
  4083e8:	34 00 00 00 2c 00 13 1d 	sw $19,44($29)
  4083f0:	57 00 00 00 04 13 02 00 	srl $19,$2,0x4
  4083f8:	4f 00 00 00 0c 00 02 11 	andi $2,$17,12
  408400:	34 00 00 00 30 00 14 1d 	sw $20,48($29)
  408408:	57 00 00 00 02 14 02 00 	srl $20,$2,0x2
  408410:	43 00 00 00 00 f0 02 00 	addiu $2,$0,-4096
  408418:	34 00 00 00 20 00 10 1d 	sw $16,32($29)
  408420:	4e 00 00 00 00 10 02 11 	and $16,$17,$2
  408428:	34 00 00 00 3c 00 1f 1d 	sw $31,60($29)
  408430:	05 00 00 00 08 00 00 03 	beq $3,$0,408458 <load_from_cache+0xc8>
  408438:	a2 00 00 00 00 10 04 00 	lui $4,4096
  408440:	43 00 00 00 60 0a 04 04 	addiu $4,$4,2656
  408448:	42 00 00 00 00 05 10 00 	addu $5,$0,$16
  408450:	02 00 00 00 0a b6 10 00 	jal 42d828 <PPrintf>
  408458:	42 00 00 00 00 04 12 00 	addu $4,$0,$18
  408460:	42 00 00 00 00 05 13 00 	addu $5,$0,$19
  408468:	42 00 00 00 00 06 10 00 	addu $6,$0,$16
  408470:	02 00 00 00 ac 21 10 00 	jal 4086b0 <check_cache>
  408478:	05 00 00 00 4a 00 00 02 	beq $2,$0,4085a8 <load_from_cache+0x218>
  408480:	28 00 00 00 20 88 02 1c 	lw $2,-30688($28)
  408488:	05 00 00 00 06 00 00 02 	beq $2,$0,4084a8 <load_from_cache+0x118>
  408490:	a2 00 00 00 00 10 04 00 	lui $4,4096
  408498:	43 00 00 00 78 0a 04 04 	addiu $4,$4,2680
  4084a0:	02 00 00 00 0a b6 10 00 	jal 42d828 <PPrintf>
  4084a8:	42 00 00 00 00 04 12 00 	addu $4,$0,$18
  4084b0:	42 00 00 00 00 05 13 00 	addu $5,$0,$19
  4084b8:	42 00 00 00 00 06 10 00 	addu $6,$0,$16
  4084c0:	42 00 00 00 00 07 14 00 	addu $7,$0,$20
  4084c8:	02 00 00 00 e6 21 10 00 	jal 408798 <cache_hit>
  4084d0:	34 00 00 00 00 00 02 15 	sw $2,0($21)
  4084d8:	a2 00 00 00 01 10 02 00 	lui $2,4097
  4084e0:	43 00 00 00 70 6a 02 02 	addiu $2,$2,27248
  4084e8:	06 00 00 00 0c 00 02 12 	bne $18,$2,408520 <load_from_cache+0x190>
  4084f0:	28 00 00 00 f0 8e 02 1c 	lw $2,-28944($28)
  4084f8:	06 00 00 00 08 00 00 02 	bne $2,$0,408520 <load_from_cache+0x190>
  408500:	28 00 00 00 b8 8e 02 1c 	lw $2,-29000($28)
  408508:	43 00 00 00 01 00 02 02 	addiu $2,$2,1
  408510:	34 00 00 00 b8 8e 02 1c 	sw $2,-29000($28)
  408518:	01 00 00 00 96 21 10 00 	j 408658 <load_from_cache+0x2c8>
  408520:	a2 00 00 00 01 10 02 00 	lui $2,4097
  408528:	43 00 00 00 20 dc 02 02 	addiu $2,$2,-9184
  408530:	06 00 00 00 48 00 02 12 	bne $18,$2,408658 <load_from_cache+0x2c8>
  408538:	28 00 00 00 f0 8e 02 1c 	lw $2,-28944($28)
  408540:	06 00 00 00 44 00 00 02 	bne $2,$0,408658 <load_from_cache+0x2c8>
  408548:	28 00 00 00 a0 8e 02 1c 	lw $2,-29024($28)
  408550:	43 00 00 00 01 00 02 02 	addiu $2,$2,1
  408558:	34 00 00 00 a0 8e 02 1c 	sw $2,-29024($28)
  408560:	05 00 00 00 08 00 00 16 	beq $22,$0,408588 <load_from_cache+0x1f8>
  408568:	28 00 00 00 b0 8e 02 1c 	lw $2,-29008($28)
  408570:	43 00 00 00 01 00 02 02 	addiu $2,$2,1
  408578:	34 00 00 00 b0 8e 02 1c 	sw $2,-29008($28)
  408580:	01 00 00 00 96 21 10 00 	j 408658 <load_from_cache+0x2c8>
  408588:	28 00 00 00 b4 8e 02 1c 	lw $2,-29004($28)
  408590:	43 00 00 00 01 00 02 02 	addiu $2,$2,1
  408598:	34 00 00 00 b4 8e 02 1c 	sw $2,-29004($28)
  4085a0:	01 00 00 00 96 21 10 00 	j 408658 <load_from_cache+0x2c8>
  4085a8:	28 00 00 00 20 88 02 1c 	lw $2,-30688($28)
  4085b0:	05 00 00 00 06 00 00 02 	beq $2,$0,4085d0 <load_from_cache+0x240>
  4085b8:	a2 00 00 00 00 10 04 00 	lui $4,4096
  4085c0:	43 00 00 00 84 0a 04 04 	addiu $4,$4,2692
  4085c8:	02 00 00 00 0a b6 10 00 	jal 42d828 <PPrintf>
  4085d0:	28 00 00 00 f0 8e 02 1c 	lw $2,-28944($28)
  4085d8:	06 00 00 00 1e 00 00 02 	bne $2,$0,408658 <load_from_cache+0x2c8>
  4085e0:	28 00 00 00 20 88 02 1c 	lw $2,-30688($28)
  4085e8:	05 00 00 00 08 00 00 02 	beq $2,$0,408610 <load_from_cache+0x280>
  4085f0:	28 00 00 00 c0 86 05 1c 	lw $5,-31040($28)
  4085f8:	a2 00 00 00 00 10 04 00 	lui $4,4096
  408600:	43 00 00 00 94 0a 04 04 	addiu $4,$4,2708
  408608:	02 00 00 00 c4 c1 10 00 	jal 430710 <printf>
  408610:	42 00 00 00 00 04 12 00 	addu $4,$0,$18
  408618:	42 00 00 00 00 05 15 00 	addu $5,$0,$21
  408620:	42 00 00 00 00 06 13 00 	addu $6,$0,$19
  408628:	42 00 00 00 00 07 10 00 	addu $7,$0,$16
  408630:	34 00 00 00 10 00 14 1d 	sw $20,16($29)
  408638:	34 00 00 00 14 00 11 1d 	sw $17,20($29)
  408640:	34 00 00 00 18 00 16 1d 	sw $22,24($29)
  408648:	02 00 00 00 d6 22 10 00 	jal 408b58 <cache_miss>
  408650:	01 00 00 00 98 21 10 00 	j 408660 <load_from_cache+0x2d0>
  408658:	42 00 00 00 00 02 00 00 	addu $2,$0,$0
  408660:	28 00 00 00 3c 00 1f 1d 	lw $31,60($29)
  408668:	28 00 00 00 38 00 16 1d 	lw $22,56($29)
  408670:	28 00 00 00 34 00 15 1d 	lw $21,52($29)
  408678:	28 00 00 00 30 00 14 1d 	lw $20,48($29)
  408680:	28 00 00 00 2c 00 13 1d 	lw $19,44($29)
  408688:	28 00 00 00 28 00 12 1d 	lw $18,40($29)
  408690:	28 00 00 00 24 00 11 1d 	lw $17,36($29)
  408698:	28 00 00 00 20 00 10 1d 	lw $16,32($29)
  4086a0:	43 00 00 00 40 00 1d 1d 	addiu $29,$29,64
  4086a8:	03 00 00 00 00 00 00 1f 	jr $31

004086b0 <check_cache>:
  4086b0:	55 00 00 00 07 02 05 00 	sll $2,$5,0x7
  4086b8:	42 00 00 00 00 03 02 04 	addu $3,$4,$2
  4086c0:	22 00 00 00 24 0a 07 03 	lbu $7,2596($3)
  4086c8:	43 00 00 00 03 00 02 00 	addiu $2,$0,3
  4086d0:	06 00 00 00 0c 00 02 07 	bne $7,$2,408708 <check_cache+0x58>
  4086d8:	22 00 00 00 44 0a 02 03 	lbu $2,2628($3)
  4086e0:	06 00 00 00 08 00 07 02 	bne $2,$7,408708 <check_cache+0x58>
  4086e8:	22 00 00 00 64 0a 07 03 	lbu $7,2660($3)
  4086f0:	06 00 00 00 04 00 02 07 	bne $7,$2,408708 <check_cache+0x58>
  4086f8:	22 00 00 00 84 0a 02 03 	lbu $2,2692($3)
  408700:	05 00 00 00 20 00 07 02 	beq $2,$7,408788 <check_cache+0xd8>
  408708:	42 00 00 00 00 07 00 00 	addu $7,$0,$0
  408710:	43 00 00 00 03 00 08 00 	addiu $8,$0,3
  408718:	55 00 00 00 07 05 05 00 	sll $5,$5,0x7
  408720:	42 00 00 00 00 03 05 04 	addu $3,$4,$5
  408728:	28 00 00 00 28 0a 02 03 	lw $2,2600($3)
  408730:	06 00 00 00 0c 00 02 06 	bne $6,$2,408768 <check_cache+0xb8>
  408738:	22 00 00 00 24 0a 02 03 	lbu $2,2596($3)
  408740:	05 00 00 00 08 00 08 02 	beq $2,$8,408768 <check_cache+0xb8>
  408748:	28 00 00 00 40 0a 02 03 	lw $2,2624($3)
  408750:	06 00 00 00 04 00 00 02 	bne $2,$0,408768 <check_cache+0xb8>
  408758:	43 00 00 00 01 00 02 00 	addiu $2,$0,1
  408760:	01 00 00 00 e4 21 10 00 	j 408790 <check_cache+0xe0>
  408768:	43 00 00 00 20 00 05 05 	addiu $5,$5,32
  408770:	43 00 00 00 01 00 07 07 	addiu $7,$7,1
  408778:	5c 00 00 00 04 00 02 07 	slti $2,$7,4
  408780:	06 00 00 00 e6 ff 00 02 	bne $2,$0,408720 <check_cache+0x70>
  408788:	42 00 00 00 00 02 00 00 	addu $2,$0,$0
  408790:	03 00 00 00 00 00 00 1f 	jr $31

00408798 <cache_hit>:
  408798:	43 00 00 00 d8 ff 1d 1d 	addiu $29,$29,-40
  4087a0:	34 00 00 00 10 00 10 1d 	sw $16,16($29)
  4087a8:	42 00 00 00 00 10 04 00 	addu $16,$0,$4
  4087b0:	34 00 00 00 18 00 12 1d 	sw $18,24($29)
  4087b8:	42 00 00 00 00 12 05 00 	addu $18,$0,$5
  4087c0:	55 00 00 00 07 03 12 00 	sll $3,$18,0x7
  4087c8:	42 00 00 00 00 02 03 10 	addu $2,$16,$3
  4087d0:	34 00 00 00 20 00 1f 1d 	sw $31,32($29)
  4087d8:	34 00 00 00 1c 00 13 1d 	sw $19,28($29)
  4087e0:	34 00 00 00 14 00 11 1d 	sw $17,20($29)
  4087e8:	28 00 00 00 28 0a 02 02 	lw $2,2600($2)
  4087f0:	42 00 00 00 00 13 07 00 	addu $19,$0,$7
  4087f8:	42 00 00 00 00 07 00 00 	addu $7,$0,$0
  408800:	05 00 00 00 0a 00 02 06 	beq $6,$2,408830 <cache_hit+0x98>
  408808:	43 00 00 00 20 00 03 03 	addiu $3,$3,32
  408810:	42 00 00 00 00 02 03 10 	addu $2,$16,$3
  408818:	28 00 00 00 28 0a 02 02 	lw $2,2600($2)
  408820:	43 00 00 00 01 00 07 07 	addiu $7,$7,1
  408828:	06 00 00 00 f6 ff 02 06 	bne $6,$2,408808 <cache_hit+0x70>
  408830:	55 00 00 00 05 02 07 00 	sll $2,$7,0x5
  408838:	55 00 00 00 07 03 12 00 	sll $3,$18,0x7
  408840:	42 00 00 00 00 02 03 02 	addu $2,$2,$3
  408848:	42 00 00 00 00 11 02 10 	addu $17,$16,$2
  408850:	28 00 00 00 3c 0a 04 11 	lw $4,2620($17)
  408858:	42 00 00 00 00 05 10 00 	addu $5,$0,$16
  408860:	42 00 00 00 00 06 12 00 	addu $6,$0,$18
  408868:	02 00 00 00 44 22 10 00 	jal 408910 <mark_lru>
  408870:	28 00 00 00 f0 8e 02 1c 	lw $2,-28944($28)
  408878:	05 00 00 00 04 00 00 02 	beq $2,$0,408890 <cache_hit+0xf8>
  408880:	43 00 00 00 03 00 02 00 	addiu $2,$0,3
  408888:	30 00 00 00 24 0a 02 11 	sb $2,2596($17)
  408890:	55 00 00 00 02 02 12 00 	sll $2,$18,0x2
  408898:	42 00 00 00 00 02 10 02 	addu $2,$2,$16
  4088a0:	51 00 00 00 24 8a 03 00 	ori $3,$0,35364
  4088a8:	42 00 00 00 00 02 03 02 	addu $2,$2,$3
  4088b0:	43 00 00 00 01 00 03 00 	addiu $3,$0,1
  4088b8:	34 00 00 00 00 00 03 02 	sw $3,0($2)
  4088c0:	55 00 00 00 02 02 13 00 	sll $2,$19,0x2
  4088c8:	42 00 00 00 00 02 11 02 	addu $2,$2,$17
  4088d0:	28 00 00 00 2c 0a 02 02 	lw $2,2604($2)
  4088d8:	28 00 00 00 20 00 1f 1d 	lw $31,32($29)
  4088e0:	28 00 00 00 1c 00 13 1d 	lw $19,28($29)
  4088e8:	28 00 00 00 18 00 12 1d 	lw $18,24($29)
  4088f0:	28 00 00 00 14 00 11 1d 	lw $17,20($29)
  4088f8:	28 00 00 00 10 00 10 1d 	lw $16,16($29)
  408900:	43 00 00 00 28 00 1d 1d 	addiu $29,$29,40
  408908:	03 00 00 00 00 00 00 1f 	jr $31

00408910 <mark_lru>:
  408910:	43 00 00 00 e0 ff 1d 1d 	addiu $29,$29,-32
  408918:	34 00 00 00 14 00 11 1d 	sw $17,20($29)
  408920:	42 00 00 00 00 11 05 00 	addu $17,$0,$5
  408928:	34 00 00 00 10 00 10 1d 	sw $16,16($29)
  408930:	42 00 00 00 00 10 06 00 	addu $16,$0,$6
  408938:	34 00 00 00 18 00 12 1d 	sw $18,24($29)
  408940:	42 00 00 00 00 12 07 00 	addu $18,$0,$7
  408948:	43 00 00 00 01 00 02 00 	addiu $2,$0,1
  408950:	34 00 00 00 1c 00 1f 1d 	sw $31,28($29)
  408958:	05 00 00 00 18 00 02 04 	beq $4,$2,4089c0 <mark_lru+0xb0>
  408960:	5c 00 00 00 02 00 02 04 	slti $2,$4,2
  408968:	05 00 00 00 04 00 00 02 	beq $2,$0,408980 <mark_lru+0x70>
  408970:	05 00 00 00 08 00 00 04 	beq $4,$0,408998 <mark_lru+0x88>
  408978:	01 00 00 00 84 22 10 00 	j 408a10 <mark_lru+0x100>
  408980:	43 00 00 00 02 00 02 00 	addiu $2,$0,2
  408988:	06 00 00 00 20 00 02 04 	bne $4,$2,408a10 <mark_lru+0x100>
  408990:	01 00 00 00 7a 22 10 00 	j 4089e8 <mark_lru+0xd8>
  408998:	42 00 00 00 00 04 11 00 	addu $4,$0,$17
  4089a0:	42 00 00 00 00 05 10 00 	addu $5,$0,$16
  4089a8:	43 00 00 00 01 00 06 00 	addiu $6,$0,1
  4089b0:	42 00 00 00 00 07 00 00 	addu $7,$0,$0
  4089b8:	02 00 00 00 9c 22 10 00 	jal 408a70 <find_change_order>
  4089c0:	42 00 00 00 00 04 11 00 	addu $4,$0,$17
  4089c8:	42 00 00 00 00 05 10 00 	addu $5,$0,$16
  4089d0:	43 00 00 00 02 00 06 00 	addiu $6,$0,2
  4089d8:	43 00 00 00 01 00 07 00 	addiu $7,$0,1
  4089e0:	02 00 00 00 9c 22 10 00 	jal 408a70 <find_change_order>
  4089e8:	42 00 00 00 00 04 11 00 	addu $4,$0,$17
  4089f0:	42 00 00 00 00 05 10 00 	addu $5,$0,$16
  4089f8:	43 00 00 00 03 00 06 00 	addiu $6,$0,3
  408a00:	43 00 00 00 02 00 07 00 	addiu $7,$0,2
  408a08:	02 00 00 00 9c 22 10 00 	jal 408a70 <find_change_order>
  408a10:	55 00 00 00 05 02 12 00 	sll $2,$18,0x5
  408a18:	55 00 00 00 07 03 10 00 	sll $3,$16,0x7
  408a20:	42 00 00 00 00 02 03 02 	addu $2,$2,$3
  408a28:	42 00 00 00 00 02 02 11 	addu $2,$17,$2
  408a30:	43 00 00 00 03 00 03 00 	addiu $3,$0,3
  408a38:	34 00 00 00 3c 0a 03 02 	sw $3,2620($2)
  408a40:	28 00 00 00 1c 00 1f 1d 	lw $31,28($29)
  408a48:	28 00 00 00 18 00 12 1d 	lw $18,24($29)
  408a50:	28 00 00 00 14 00 11 1d 	lw $17,20($29)
  408a58:	28 00 00 00 10 00 10 1d 	lw $16,16($29)
  408a60:	43 00 00 00 20 00 1d 1d 	addiu $29,$29,32
  408a68:	03 00 00 00 00 00 00 1f 	jr $31

00408a70 <find_change_order>:
  408a70:	43 00 00 00 e8 ff 1d 1d 	addiu $29,$29,-24
  408a78:	42 00 00 00 00 03 05 00 	addu $3,$0,$5
  408a80:	55 00 00 00 07 08 03 00 	sll $8,$3,0x7
  408a88:	42 00 00 00 00 02 08 04 	addu $2,$4,$8
  408a90:	34 00 00 00 10 00 1f 1d 	sw $31,16($29)
  408a98:	28 00 00 00 3c 0a 02 02 	lw $2,2620($2)
  408aa0:	42 00 00 00 00 05 00 00 	addu $5,$0,$0
  408aa8:	05 00 00 00 0e 00 06 02 	beq $2,$6,408ae8 <find_change_order+0x78>
  408ab0:	5c 00 00 00 04 00 02 05 	slti $2,$5,4
  408ab8:	05 00 00 00 0a 00 00 02 	beq $2,$0,408ae8 <find_change_order+0x78>
  408ac0:	43 00 00 00 20 00 08 08 	addiu $8,$8,32
  408ac8:	42 00 00 00 00 02 08 04 	addu $2,$4,$8
  408ad0:	28 00 00 00 3c 0a 02 02 	lw $2,2620($2)
  408ad8:	43 00 00 00 01 00 05 05 	addiu $5,$5,1
  408ae0:	06 00 00 00 f2 ff 06 02 	bne $2,$6,408ab0 <find_change_order+0x40>
  408ae8:	5c 00 00 00 05 00 02 05 	slti $2,$5,5
  408af0:	06 00 00 00 08 00 00 02 	bne $2,$0,408b18 <find_change_order+0xa8>
  408af8:	a2 00 00 00 00 10 04 00 	lui $4,4096
  408b00:	43 00 00 00 bc 0a 04 04 	addiu $4,$4,2748
  408b08:	02 00 00 00 0a b6 10 00 	jal 42d828 <PPrintf>
  408b10:	01 00 00 00 d0 22 10 00 	j 408b40 <find_change_order+0xd0>
  408b18:	55 00 00 00 05 02 05 00 	sll $2,$5,0x5
  408b20:	55 00 00 00 07 03 03 00 	sll $3,$3,0x7
  408b28:	42 00 00 00 00 02 03 02 	addu $2,$2,$3
  408b30:	42 00 00 00 00 02 02 04 	addu $2,$4,$2
  408b38:	34 00 00 00 3c 0a 07 02 	sw $7,2620($2)
  408b40:	28 00 00 00 10 00 1f 1d 	lw $31,16($29)
  408b48:	43 00 00 00 18 00 1d 1d 	addiu $29,$29,24
  408b50:	03 00 00 00 00 00 00 1f 	jr $31

00408b58 <cache_miss>:
  408b58:	43 00 00 00 a0 ff 1d 1d 	addiu $29,$29,-96
  408b60:	34 00 00 00 48 00 14 1d 	sw $20,72($29)
  408b68:	42 00 00 00 00 14 04 00 	addu $20,$0,$4
  408b70:	34 00 00 00 50 00 16 1d 	sw $22,80($29)
  408b78:	42 00 00 00 00 16 06 00 	addu $22,$0,$6
  408b80:	34 00 00 00 58 00 1e 1d 	sw $30,88($29)
  408b88:	42 00 00 00 00 1e 00 00 	addu $30,$0,$0
  408b90:	34 00 00 00 20 00 05 1d 	sw $5,32($29)
  408b98:	42 00 00 00 00 05 00 00 	addu $5,$0,$0
  408ba0:	34 00 00 00 44 00 13 1d 	sw $19,68($29)
  408ba8:	42 00 00 00 00 13 00 00 	addu $19,$0,$0
  408bb0:	55 00 00 00 07 04 16 00 	sll $4,$22,0x7
  408bb8:	42 00 00 00 00 06 04 14 	addu $6,$20,$4
  408bc0:	34 00 00 00 5c 00 1f 1d 	sw $31,92($29)
  408bc8:	34 00 00 00 54 00 17 1d 	sw $23,84($29)
  408bd0:	34 00 00 00 4c 00 15 1d 	sw $21,76($29)
  408bd8:	34 00 00 00 40 00 12 1d 	sw $18,64($29)
  408be0:	34 00 00 00 3c 00 11 1d 	sw $17,60($29)
  408be8:	34 00 00 00 38 00 10 1d 	sw $16,56($29)
  408bf0:	34 00 00 00 28 00 07 1d 	sw $7,40($29)
  408bf8:	28 00 00 00 3c 0a 02 06 	lw $2,2620($6)
  408c00:	42 00 00 00 00 15 00 00 	addu $21,$0,$0
  408c08:	05 00 00 00 0c 00 13 02 	beq $2,$19,408c40 <cache_miss+0xe8>
  408c10:	42 00 00 00 00 03 04 00 	addu $3,$0,$4
  408c18:	43 00 00 00 20 00 03 03 	addiu $3,$3,32
  408c20:	42 00 00 00 00 02 03 14 	addu $2,$20,$3
  408c28:	28 00 00 00 3c 0a 02 02 	lw $2,2620($2)
  408c30:	43 00 00 00 01 00 15 15 	addiu $21,$21,1
  408c38:	06 00 00 00 f6 ff 13 02 	bne $2,$19,408c18 <cache_miss+0xc0>
  408c40:	55 00 00 00 05 02 15 00 	sll $2,$21,0x5
  408c48:	42 00 00 00 00 02 04 02 	addu $2,$2,$4
  408c50:	42 00 00 00 00 02 02 14 	addu $2,$20,$2
  408c58:	28 00 00 00 40 0a 02 02 	lw $2,2624($2)
  408c60:	05 00 00 00 12 00 00 02 	beq $2,$0,408cb0 <cache_miss+0x158>
  408c68:	5c 00 00 00 03 00 02 13 	slti $2,$19,3
  408c70:	06 00 00 00 0a 00 00 02 	bne $2,$0,408ca0 <cache_miss+0x148>
  408c78:	a2 00 00 00 00 10 04 00 	lui $4,4096
  408c80:	43 00 00 00 f4 0a 04 04 	addiu $4,$4,2804
  408c88:	02 00 00 00 0a b6 10 00 	jal 42d828 <PPrintf>
  408c90:	42 00 00 00 00 04 00 00 	addu $4,$0,$0
  408c98:	02 00 00 00 ec b9 10 00 	jal 42e7b0 <exit>
  408ca0:	43 00 00 00 01 00 13 13 	addiu $19,$19,1
  408ca8:	01 00 00 00 2e 23 10 00 	j 408cb8 <cache_miss+0x160>
  408cb0:	43 00 00 00 01 00 05 00 	addiu $5,$0,1
  408cb8:	05 00 00 00 ce ff 00 05 	beq $5,$0,408bf8 <cache_miss+0xa0>
  408cc0:	55 00 00 00 05 02 15 00 	sll $2,$21,0x5
  408cc8:	55 00 00 00 07 03 16 00 	sll $3,$22,0x7
  408cd0:	42 00 00 00 00 02 03 02 	addu $2,$2,$3
  408cd8:	42 00 00 00 00 02 02 14 	addu $2,$20,$2
  408ce0:	22 00 00 00 24 0a 03 02 	lbu $3,2596($2)
  408ce8:	43 00 00 00 03 00 02 00 	addiu $2,$0,3
  408cf0:	05 00 00 00 68 00 02 03 	beq $3,$2,408e98 <cache_miss+0x340>
  408cf8:	43 00 00 00 01 00 02 00 	addiu $2,$0,1
  408d00:	06 00 00 00 64 00 02 03 	bne $3,$2,408e98 <cache_miss+0x340>
  408d08:	28 00 00 00 78 00 08 1d 	lw $8,120($29)
  408d10:	05 00 00 00 06 00 00 08 	beq $8,$0,408d30 <cache_miss+0x1d8>
  408d18:	28 00 00 00 c0 86 02 1c 	lw $2,-31040($28)
  408d20:	43 00 00 00 06 00 02 02 	addiu $2,$2,6
  408d28:	01 00 00 00 50 23 10 00 	j 408d40 <cache_miss+0x1e8>
  408d30:	28 00 00 00 c0 86 02 1c 	lw $2,-31040($28)
  408d38:	43 00 00 00 08 00 02 02 	addiu $2,$2,8
  408d40:	34 00 00 00 c0 86 02 1c 	sw $2,-31040($28)
  408d48:	28 00 00 00 78 00 08 1d 	lw $8,120($29)
  408d50:	05 00 00 00 0c 00 00 08 	beq $8,$0,408d88 <cache_miss+0x230>
  408d58:	51 00 00 00 00 80 03 00 	ori $3,$0,32768
  408d60:	42 00 00 00 00 03 03 14 	addu $3,$20,$3
  408d68:	28 00 00 00 2c 0e 02 03 	lw $2,3628($3)
  408d70:	43 00 00 00 01 00 02 02 	addiu $2,$2,1
  408d78:	34 00 00 00 2c 0e 02 03 	sw $2,3628($3)
  408d80:	01 00 00 00 6c 23 10 00 	j 408db0 <cache_miss+0x258>
  408d88:	51 00 00 00 00 80 03 00 	ori $3,$0,32768
  408d90:	42 00 00 00 00 03 03 14 	addu $3,$20,$3
  408d98:	28 00 00 00 30 0e 02 03 	lw $2,3632($3)
  408da0:	43 00 00 00 01 00 02 02 	addiu $2,$2,1
  408da8:	34 00 00 00 30 0e 02 03 	sw $2,3632($3)
  408db0:	42 00 00 00 00 12 00 00 	addu $18,$0,$0
  408db8:	51 00 00 00 00 80 02 00 	ori $2,$0,32768
  408dc0:	42 00 00 00 00 02 02 14 	addu $2,$20,$2
  408dc8:	55 00 00 00 05 03 15 00 	sll $3,$21,0x5
  408dd0:	55 00 00 00 07 04 16 00 	sll $4,$22,0x7
  408dd8:	34 00 00 00 30 00 02 1d 	sw $2,48($29)
  408de0:	43 00 00 00 24 0a 02 04 	addiu $2,$4,2596
  408de8:	42 00 00 00 00 02 02 14 	addu $2,$20,$2
  408df0:	42 00 00 00 00 17 03 02 	addu $23,$2,$3
  408df8:	42 00 00 00 00 03 04 03 	addu $3,$3,$4
  408e00:	42 00 00 00 00 03 03 14 	addu $3,$20,$3
  408e08:	28 00 00 00 28 0a 03 03 	lw $3,2600($3)
  408e10:	43 00 00 00 08 00 11 00 	addiu $17,$0,8
  408e18:	55 00 00 00 04 02 16 00 	sll $2,$22,0x4
  408e20:	50 00 00 00 00 10 03 02 	or $16,$2,$3
  408e28:	28 00 00 00 30 00 08 1d 	lw $8,48($29)
  408e30:	42 00 00 00 00 05 10 00 	addu $5,$0,$16
  408e38:	28 00 00 00 24 0e 04 08 	lw $4,3620($8)
  408e40:	42 00 00 00 00 06 11 17 	addu $6,$23,$17
  408e48:	43 00 00 00 04 00 07 00 	addiu $7,$0,4
  408e50:	51 00 00 00 02 00 04 04 	ori $4,$4,2
  408e58:	02 00 00 00 3e 7d 10 00 	jal 41f4f8 <rdwr>
  408e60:	43 00 00 00 ff ff 08 00 	addiu $8,$0,-1
  408e68:	05 00 00 00 6a 00 08 02 	beq $2,$8,409018 <cache_miss+0x4c0>
  408e70:	43 00 00 00 04 00 11 11 	addiu $17,$17,4
  408e78:	43 00 00 00 01 00 12 12 	addiu $18,$18,1
  408e80:	43 00 00 00 04 00 10 10 	addiu $16,$16,4
  408e88:	5c 00 00 00 04 00 02 12 	slti $2,$18,4
  408e90:	06 00 00 00 e4 ff 00 02 	bne $2,$0,408e28 <cache_miss+0x2d0>
  408e98:	28 00 00 00 74 00 08 1d 	lw $8,116($29)
  408ea0:	4f 00 00 00 0c 00 02 08 	andi $2,$8,12
  408ea8:	57 00 00 00 02 03 02 00 	srl $3,$2,0x2
  408eb0:	43 00 00 00 01 00 02 00 	addiu $2,$0,1
  408eb8:	05 00 00 00 16 00 02 03 	beq $3,$2,408f18 <cache_miss+0x3c0>
  408ec0:	5c 00 00 00 02 00 02 03 	slti $2,$3,2
  408ec8:	05 00 00 00 04 00 00 02 	beq $2,$0,408ee0 <cache_miss+0x388>
  408ed0:	05 00 00 00 0c 00 00 03 	beq $3,$0,408f08 <cache_miss+0x3b0>
  408ed8:	01 00 00 00 d0 23 10 00 	j 408f40 <cache_miss+0x3e8>
  408ee0:	43 00 00 00 02 00 02 00 	addiu $2,$0,2
  408ee8:	05 00 00 00 0e 00 02 03 	beq $3,$2,408f28 <cache_miss+0x3d0>
  408ef0:	43 00 00 00 03 00 02 00 	addiu $2,$0,3
  408ef8:	05 00 00 00 0e 00 02 03 	beq $3,$2,408f38 <cache_miss+0x3e0>
  408f00:	01 00 00 00 d0 23 10 00 	j 408f40 <cache_miss+0x3e8>
  408f08:	42 00 00 00 00 1e 00 00 	addu $30,$0,$0
  408f10:	01 00 00 00 d0 23 10 00 	j 408f40 <cache_miss+0x3e8>
  408f18:	43 00 00 00 fc ff 1e 00 	addiu $30,$0,-4
  408f20:	01 00 00 00 d0 23 10 00 	j 408f40 <cache_miss+0x3e8>
  408f28:	43 00 00 00 f8 ff 1e 00 	addiu $30,$0,-8
  408f30:	01 00 00 00 d0 23 10 00 	j 408f40 <cache_miss+0x3e8>
  408f38:	43 00 00 00 f4 ff 1e 00 	addiu $30,$0,-12
  408f40:	28 00 00 00 20 88 02 1c 	lw $2,-30688($28)
  408f48:	05 00 00 00 18 00 00 02 	beq $2,$0,408fb0 <cache_miss+0x458>
  408f50:	a2 00 00 00 00 10 04 00 	lui $4,4096
  408f58:	43 00 00 00 28 0b 04 04 	addiu $4,$4,2856
  408f60:	02 00 00 00 c4 c1 10 00 	jal 430710 <printf>
  408f68:	28 00 00 00 20 88 02 1c 	lw $2,-30688($28)
  408f70:	05 00 00 00 0e 00 00 02 	beq $2,$0,408fb0 <cache_miss+0x458>
  408f78:	28 00 00 00 74 00 08 1d 	lw $8,116($29)
  408f80:	a2 00 00 00 00 10 04 00 	lui $4,4096
  408f88:	43 00 00 00 38 0b 04 04 	addiu $4,$4,2872
  408f90:	43 00 00 00 fc ff 05 00 	addiu $5,$0,-4
  408f98:	4e 00 00 00 00 05 05 08 	and $5,$8,$5
  408fa0:	42 00 00 00 00 05 1e 05 	addu $5,$5,$30
  408fa8:	02 00 00 00 c4 c1 10 00 	jal 430710 <printf>
  408fb0:	43 00 00 00 fc ff 05 00 	addiu $5,$0,-4
  408fb8:	28 00 00 00 74 00 08 1d 	lw $8,116($29)
  408fc0:	51 00 00 00 00 80 02 00 	ori $2,$0,32768
  408fc8:	42 00 00 00 00 02 02 14 	addu $2,$20,$2
  408fd0:	28 00 00 00 24 0e 04 02 	lw $4,3620($2)
  408fd8:	43 00 00 00 10 00 06 1d 	addiu $6,$29,16
  408fe0:	43 00 00 00 10 00 07 00 	addiu $7,$0,16
  408fe8:	4e 00 00 00 00 05 05 08 	and $5,$8,$5
  408ff0:	42 00 00 00 00 05 1e 05 	addu $5,$5,$30
  408ff8:	51 00 00 00 01 00 04 04 	ori $4,$4,1
  409000:	02 00 00 00 3e 7d 10 00 	jal 41f4f8 <rdwr>
  409008:	43 00 00 00 ff ff 03 00 	addiu $3,$0,-1
  409010:	06 00 00 00 04 00 03 02 	bne $2,$3,409028 <cache_miss+0x4d0>
  409018:	43 00 00 00 ff ff 02 00 	addiu $2,$0,-1
  409020:	01 00 00 00 a0 24 10 00 	j 409280 <cache_miss+0x728>
  409028:	43 00 00 00 01 00 02 00 	addiu $2,$0,1
  409030:	05 00 00 00 18 00 02 13 	beq $19,$2,409098 <cache_miss+0x540>
  409038:	5c 00 00 00 02 00 02 13 	slti $2,$19,2
  409040:	05 00 00 00 04 00 00 02 	beq $2,$0,409058 <cache_miss+0x500>
  409048:	05 00 00 00 08 00 00 13 	beq $19,$0,409070 <cache_miss+0x518>
  409050:	01 00 00 00 3a 24 10 00 	j 4090e8 <cache_miss+0x590>
  409058:	43 00 00 00 02 00 02 00 	addiu $2,$0,2
  409060:	06 00 00 00 20 00 02 13 	bne $19,$2,4090e8 <cache_miss+0x590>
  409068:	01 00 00 00 30 24 10 00 	j 4090c0 <cache_miss+0x568>
  409070:	42 00 00 00 00 04 14 00 	addu $4,$0,$20
  409078:	42 00 00 00 00 05 16 00 	addu $5,$0,$22
  409080:	43 00 00 00 01 00 06 00 	addiu $6,$0,1
  409088:	42 00 00 00 00 07 00 00 	addu $7,$0,$0
  409090:	02 00 00 00 9c 22 10 00 	jal 408a70 <find_change_order>
  409098:	42 00 00 00 00 04 14 00 	addu $4,$0,$20
  4090a0:	42 00 00 00 00 05 16 00 	addu $5,$0,$22
  4090a8:	43 00 00 00 02 00 06 00 	addiu $6,$0,2
  4090b0:	43 00 00 00 01 00 07 00 	addiu $7,$0,1
  4090b8:	02 00 00 00 9c 22 10 00 	jal 408a70 <find_change_order>
  4090c0:	42 00 00 00 00 04 14 00 	addu $4,$0,$20
  4090c8:	42 00 00 00 00 05 16 00 	addu $5,$0,$22
  4090d0:	43 00 00 00 03 00 06 00 	addiu $6,$0,3
  4090d8:	43 00 00 00 02 00 07 00 	addiu $7,$0,2
  4090e0:	02 00 00 00 9c 22 10 00 	jal 408a70 <find_change_order>
  4090e8:	55 00 00 00 05 02 15 00 	sll $2,$21,0x5
  4090f0:	55 00 00 00 07 03 16 00 	sll $3,$22,0x7
  4090f8:	42 00 00 00 00 02 03 02 	addu $2,$2,$3
  409100:	42 00 00 00 00 02 02 14 	addu $2,$20,$2
  409108:	42 00 00 00 00 04 02 00 	addu $4,$0,$2
  409110:	43 00 00 00 03 00 02 00 	addiu $2,$0,3
  409118:	34 00 00 00 3c 0a 02 04 	sw $2,2620($4)
  409120:	55 00 00 00 02 02 16 00 	sll $2,$22,0x2
  409128:	42 00 00 00 00 02 14 02 	addu $2,$2,$20
  409130:	51 00 00 00 24 8a 03 00 	ori $3,$0,35364
  409138:	42 00 00 00 00 02 03 02 	addu $2,$2,$3
  409140:	43 00 00 00 01 00 03 00 	addiu $3,$0,1
  409148:	34 00 00 00 00 00 03 02 	sw $3,0($2)
  409150:	43 00 00 00 02 00 02 00 	addiu $2,$0,2
  409158:	30 00 00 00 24 0a 02 04 	sb $2,2596($4)
  409160:	28 00 00 00 28 00 08 1d 	lw $8,40($29)
  409168:	42 00 00 00 00 12 00 00 	addu $18,$0,$0
  409170:	43 00 00 00 10 00 05 1d 	addiu $5,$29,16
  409178:	34 00 00 00 28 0a 08 04 	sw $8,2600($4)
  409180:	28 00 00 00 00 00 02 05 	lw $2,0($5)
  409188:	43 00 00 00 01 00 12 12 	addiu $18,$18,1
  409190:	43 00 00 00 04 00 05 05 	addiu $5,$5,4
  409198:	34 00 00 00 2c 0a 02 04 	sw $2,2604($4)
  4091a0:	43 00 00 00 04 00 04 04 	addiu $4,$4,4
  4091a8:	5c 00 00 00 04 00 02 12 	slti $2,$18,4
  4091b0:	06 00 00 00 f2 ff 00 02 	bne $2,$0,409180 <cache_miss+0x628>
  4091b8:	28 00 00 00 78 00 08 1d 	lw $8,120($29)
  4091c0:	05 00 00 00 06 00 00 08 	beq $8,$0,4091e0 <cache_miss+0x688>
  4091c8:	28 00 00 00 c0 86 02 1c 	lw $2,-31040($28)
  4091d0:	43 00 00 00 0f 00 02 02 	addiu $2,$2,15
  4091d8:	01 00 00 00 7c 24 10 00 	j 4091f0 <cache_miss+0x698>
  4091e0:	28 00 00 00 c0 86 02 1c 	lw $2,-31040($28)
  4091e8:	43 00 00 00 07 00 02 02 	addiu $2,$2,7
  4091f0:	34 00 00 00 c0 86 02 1c 	sw $2,-31040($28)
  4091f8:	28 00 00 00 20 88 02 1c 	lw $2,-30688($28)
  409200:	05 00 00 00 08 00 00 02 	beq $2,$0,409228 <cache_miss+0x6d0>
  409208:	28 00 00 00 c0 86 05 1c 	lw $5,-31040($28)
  409210:	a2 00 00 00 00 10 04 00 	lui $4,4096
  409218:	43 00 00 00 68 0b 04 04 	addiu $4,$4,2920
  409220:	02 00 00 00 c4 c1 10 00 	jal 430710 <printf>
  409228:	55 00 00 00 05 03 15 00 	sll $3,$21,0x5
  409230:	55 00 00 00 07 02 16 00 	sll $2,$22,0x7
  409238:	28 00 00 00 70 00 08 1d 	lw $8,112($29)
  409240:	42 00 00 00 00 03 02 03 	addu $3,$3,$2
  409248:	42 00 00 00 00 03 03 14 	addu $3,$20,$3
  409250:	55 00 00 00 02 02 08 00 	sll $2,$8,0x2
  409258:	42 00 00 00 00 02 03 02 	addu $2,$2,$3
  409260:	28 00 00 00 2c 0a 03 02 	lw $3,2604($2)
  409268:	28 00 00 00 20 00 08 1d 	lw $8,32($29)
  409270:	42 00 00 00 00 02 00 00 	addu $2,$0,$0
  409278:	34 00 00 00 00 00 03 08 	sw $3,0($8)
  409280:	28 00 00 00 5c 00 1f 1d 	lw $31,92($29)
  409288:	28 00 00 00 58 00 1e 1d 	lw $30,88($29)
  409290:	28 00 00 00 54 00 17 1d 	lw $23,84($29)
  409298:	28 00 00 00 50 00 16 1d 	lw $22,80($29)
  4092a0:	28 00 00 00 4c 00 15 1d 	lw $21,76($29)
  4092a8:	28 00 00 00 48 00 14 1d 	lw $20,72($29)
  4092b0:	28 00 00 00 44 00 13 1d 	lw $19,68($29)
  4092b8:	28 00 00 00 40 00 12 1d 	lw $18,64($29)
  4092c0:	28 00 00 00 3c 00 11 1d 	lw $17,60($29)
  4092c8:	28 00 00 00 38 00 10 1d 	lw $16,56($29)
  4092d0:	43 00 00 00 60 00 1d 1d 	addiu $29,$29,96
  4092d8:	03 00 00 00 00 00 00 1f 	jr $31

004092e0 <store_data>:
  4092e0:	43 00 00 00 e8 ff 1d 1d 	addiu $29,$29,-24
  4092e8:	42 00 00 00 00 09 04 00 	addu $9,$0,$4
  4092f0:	34 00 00 00 14 00 1f 1d 	sw $31,20($29)
  4092f8:	34 00 00 00 10 00 10 1d 	sw $16,16($29)
  409300:	28 00 00 00 00 00 02 09 	lw $2,0($9)
  409308:	34 00 00 00 20 00 06 1d 	sw $6,32($29)
  409310:	05 00 00 00 14 00 00 02 	beq $2,$0,409368 <store_data+0x88>
  409318:	a2 00 00 00 f0 ff 03 00 	lui $3,65520
  409320:	4e 00 00 00 00 02 03 05 	and $2,$5,$3
  409328:	06 00 00 00 0e 00 03 02 	bne $2,$3,409368 <store_data+0x88>
  409330:	28 00 00 00 c0 86 02 1c 	lw $2,-31040($28)
  409338:	42 00 00 00 00 04 05 00 	addu $4,$0,$5
  409340:	42 00 00 00 00 05 06 00 	addu $5,$0,$6
  409348:	43 00 00 00 04 00 02 02 	addiu $2,$2,4
  409350:	34 00 00 00 c0 86 02 1c 	sw $2,-31040($28)
  409358:	02 00 00 00 a8 28 10 00 	jal 40a2a0 <ctrl_space_write>
  409360:	01 00 00 00 d0 25 10 00 	j 409740 <store_data+0x460>
  409368:	28 00 00 00 f0 8e 02 1c 	lw $2,-28944($28)
  409370:	05 00 00 00 1c 00 00 02 	beq $2,$0,4093e8 <store_data+0x108>
  409378:	51 00 00 00 00 80 02 00 	ori $2,$0,32768
  409380:	42 00 00 00 00 02 02 09 	addu $2,$9,$2
  409388:	28 00 00 00 24 0e 04 02 	lw $4,3620($2)
  409390:	43 00 00 00 20 00 06 1d 	addiu $6,$29,32
  409398:	28 00 00 00 c0 86 02 1c 	lw $2,-31040($28)
  4093a0:	43 00 00 00 04 00 07 00 	addiu $7,$0,4
  4093a8:	51 00 00 00 02 00 04 04 	ori $4,$4,2
  4093b0:	43 00 00 00 05 00 02 02 	addiu $2,$2,5
  4093b8:	34 00 00 00 c0 86 02 1c 	sw $2,-31040($28)
  4093c0:	02 00 00 00 3e 7d 10 00 	jal 41f4f8 <rdwr>
  4093c8:	54 00 00 00 00 02 02 00 	nor $2,$0,$2
  4093d0:	5e 00 00 00 01 00 02 02 	sltiu $2,$2,1
  4093d8:	45 00 00 00 00 02 02 00 	subu $2,$0,$2
  4093e0:	01 00 00 00 d0 25 10 00 	j 409740 <store_data+0x460>
  4093e8:	4f 00 00 00 f0 0f 02 05 	andi $2,$5,4080
  4093f0:	57 00 00 00 04 06 02 00 	srl $6,$2,0x4
  4093f8:	4f 00 00 00 0c 00 02 05 	andi $2,$5,12
  409400:	57 00 00 00 02 08 02 00 	srl $8,$2,0x2
  409408:	55 00 00 00 07 02 06 00 	sll $2,$6,0x7
  409410:	42 00 00 00 00 02 02 09 	addu $2,$9,$2
  409418:	28 00 00 00 28 0a 03 02 	lw $3,2600($2)
  409420:	42 00 00 00 00 04 00 00 	addu $4,$0,$0
  409428:	43 00 00 00 00 f0 02 00 	addiu $2,$0,-4096
  409430:	4e 00 00 00 00 07 02 05 	and $7,$5,$2
  409438:	06 00 00 00 0e 00 03 07 	bne $7,$3,409478 <store_data+0x198>
  409440:	55 00 00 00 05 02 04 00 	sll $2,$4,0x5
  409448:	55 00 00 00 07 03 06 00 	sll $3,$6,0x7
  409450:	42 00 00 00 00 02 03 02 	addu $2,$2,$3
  409458:	42 00 00 00 00 02 02 09 	addu $2,$9,$2
  409460:	22 00 00 00 24 0a 03 02 	lbu $3,2596($2)
  409468:	43 00 00 00 03 00 02 00 	addiu $2,$0,3
  409470:	06 00 00 00 10 00 02 03 	bne $3,$2,4094b8 <store_data+0x1d8>
  409478:	43 00 00 00 01 00 04 04 	addiu $4,$4,1
  409480:	55 00 00 00 05 02 04 00 	sll $2,$4,0x5
  409488:	55 00 00 00 07 03 06 00 	sll $3,$6,0x7
  409490:	42 00 00 00 00 02 03 02 	addu $2,$2,$3
  409498:	42 00 00 00 00 02 02 09 	addu $2,$9,$2
  4094a0:	28 00 00 00 28 0a 02 02 	lw $2,2600($2)
  4094a8:	06 00 00 00 f2 ff 02 07 	bne $7,$2,409478 <store_data+0x198>
  4094b0:	01 00 00 00 10 25 10 00 	j 409440 <store_data+0x160>
  4094b8:	55 00 00 00 05 02 04 00 	sll $2,$4,0x5
  4094c0:	55 00 00 00 07 03 06 00 	sll $3,$6,0x7
  4094c8:	42 00 00 00 00 02 03 02 	addu $2,$2,$3
  4094d0:	42 00 00 00 00 10 02 09 	addu $16,$9,$2
  4094d8:	28 00 00 00 20 00 03 1d 	lw $3,32($29)
  4094e0:	28 00 00 00 90 83 04 1c 	lw $4,-31856($28)
  4094e8:	55 00 00 00 02 02 08 00 	sll $2,$8,0x2
  4094f0:	42 00 00 00 00 02 10 02 	addu $2,$2,$16
  4094f8:	34 00 00 00 2c 0a 03 02 	sw $3,2604($2)
  409500:	05 00 00 00 1c 00 00 04 	beq $4,$0,409578 <store_data+0x298>
  409508:	51 00 00 00 00 80 02 00 	ori $2,$0,32768
  409510:	42 00 00 00 00 02 02 09 	addu $2,$9,$2
  409518:	28 00 00 00 24 0e 04 02 	lw $4,3620($2)
  409520:	43 00 00 00 20 00 06 1d 	addiu $6,$29,32
  409528:	28 00 00 00 c0 86 02 1c 	lw $2,-31040($28)
  409530:	43 00 00 00 04 00 07 00 	addiu $7,$0,4
  409538:	51 00 00 00 02 00 04 04 	ori $4,$4,2
  409540:	43 00 00 00 05 00 02 02 	addiu $2,$2,5
  409548:	34 00 00 00 c0 86 02 1c 	sw $2,-31040($28)
  409550:	02 00 00 00 3e 7d 10 00 	jal 41f4f8 <rdwr>
  409558:	43 00 00 00 ff ff 03 00 	addiu $3,$0,-1
  409560:	05 00 00 00 5c 00 03 02 	beq $2,$3,4096d8 <store_data+0x3f8>
  409568:	43 00 00 00 02 00 02 00 	addiu $2,$0,2
  409570:	01 00 00 00 c0 25 10 00 	j 409700 <store_data+0x420>
  409578:	22 00 00 00 24 0a 03 10 	lbu $3,2596($16)
  409580:	43 00 00 00 01 00 02 00 	addiu $2,$0,1
  409588:	05 00 00 00 5e 00 02 03 	beq $3,$2,409708 <store_data+0x428>
