
/export/capc5/SPEC_TRACE/SimpleScalar/bin/ijpeg.ss:     file format ss-coff-little

Disassembly of section .text:

00400140 <__start>:
  400140:	28 00 00 00 00 00 10 1d 	lw $16,0($29)
  400148:	a2 00 00 00 01 10 1c 00 	lui $28,4097
  400150:	43 00 00 00 90 dc 1c 1c 	addiu $28,$28,-9072
  400158:	43 00 00 00 04 00 11 1d 	addiu $17,$29,4
  400160:	43 00 00 00 04 00 03 11 	addiu $3,$17,4
  400168:	55 00 00 00 02 02 10 00 	sll $2,$16,0x2
  400170:	42 00 00 00 00 03 02 03 	addu $3,$3,$2
  400178:	42 00 00 00 00 12 03 00 	addu $18,$0,$3
  400180:	34 00 00 00 14 86 12 1c 	sw $18,-31212($28)
  400188:	43 00 00 00 e8 ff 1d 1d 	addiu $29,$29,-24
  400190:	42 00 00 00 00 04 10 00 	addu $4,$0,$16
  400198:	42 00 00 00 00 05 11 00 	addu $5,$0,$17
  4001a0:	42 00 00 00 00 06 12 00 	addu $6,$0,$18
  4001a8:	02 00 00 00 28 6d 11 00 	jal 45b4a0 <__libc_init>
  4001b0:	34 00 00 00 10 86 00 1c 	sw $0,-31216($28)
  4001b8:	42 00 00 00 00 04 10 00 	addu $4,$0,$16
  4001c0:	42 00 00 00 00 05 11 00 	addu $5,$0,$17
  4001c8:	42 00 00 00 00 06 12 00 	addu $6,$0,$18
  4001d0:	02 00 00 00 62 57 10 00 	jal 415d88 <main>
  4001d8:	42 00 00 00 00 04 02 00 	addu $4,$0,$2
  4001e0:	02 00 00 00 34 6d 11 00 	jal 45b4d0 <exit>
	...

004001f0 <pm_allocrow>:
  4001f0:	46 00 00 00 00 00 05 04 	mult $4,$5
  4001f8:	4c 00 00 00 00 04 00 00 	mflo $4
  400200:	43 00 00 00 e8 ff 1d 1d 	addiu $29,$29,-24
  400208:	34 00 00 00 14 00 1f 1d 	sw $31,20($29)
  400210:	34 00 00 00 10 00 10 1d 	sw $16,16($29)
  400218:	02 00 00 00 16 6f 11 00 	jal 45bc58 <malloc>
  400220:	42 00 00 00 00 10 02 00 	addu $16,$0,$2
  400228:	06 00 00 00 06 00 00 10 	bne $16,$0,400248 <pm_allocrow+0x58>
  400230:	a2 00 00 00 00 10 04 00 	lui $4,4096
  400238:	43 00 00 00 00 00 04 04 	addiu $4,$4,0
  400240:	02 00 00 00 30 05 10 00 	jal 4014c0 <pm_error>
  400248:	42 00 00 00 00 02 10 00 	addu $2,$0,$16
  400250:	28 00 00 00 14 00 1f 1d 	lw $31,20($29)
  400258:	28 00 00 00 10 00 10 1d 	lw $16,16($29)
  400260:	43 00 00 00 18 00 1d 1d 	addiu $29,$29,24
  400268:	03 00 00 00 00 00 00 1f 	jr $31

00400270 <pm_freerow>:
  400270:	43 00 00 00 e8 ff 1d 1d 	addiu $29,$29,-24
  400278:	34 00 00 00 10 00 1f 1d 	sw $31,16($29)
  400280:	02 00 00 00 a4 73 11 00 	jal 45ce90 <free>
  400288:	28 00 00 00 10 00 1f 1d 	lw $31,16($29)
  400290:	43 00 00 00 18 00 1d 1d 	addiu $29,$29,24
  400298:	03 00 00 00 00 00 00 1f 	jr $31

004002a0 <pm_allocarray>:
  4002a0:	43 00 00 00 d8 ff 1d 1d 	addiu $29,$29,-40
  4002a8:	34 00 00 00 14 00 11 1d 	sw $17,20($29)
  4002b0:	42 00 00 00 00 11 04 00 	addu $17,$0,$4
  4002b8:	34 00 00 00 1c 00 13 1d 	sw $19,28($29)
  4002c0:	42 00 00 00 00 13 05 00 	addu $19,$0,$5
  4002c8:	34 00 00 00 18 00 12 1d 	sw $18,24($29)
  4002d0:	42 00 00 00 00 12 06 00 	addu $18,$0,$6
  4002d8:	55 00 00 00 02 04 13 00 	sll $4,$19,0x2
  4002e0:	34 00 00 00 20 00 1f 1d 	sw $31,32($29)
  4002e8:	34 00 00 00 10 00 10 1d 	sw $16,16($29)
  4002f0:	02 00 00 00 16 6f 11 00 	jal 45bc58 <malloc>
  4002f8:	42 00 00 00 00 10 02 00 	addu $16,$0,$2
  400300:	06 00 00 00 06 00 00 10 	bne $16,$0,400320 <pm_allocarray+0x80>
  400308:	a2 00 00 00 00 10 04 00 	lui $4,4096
  400310:	43 00 00 00 20 00 04 04 	addiu $4,$4,32
  400318:	02 00 00 00 30 05 10 00 	jal 4014c0 <pm_error>
  400320:	46 00 00 00 00 00 11 13 	mult $19,$17
  400328:	4c 00 00 00 00 02 00 00 	mflo $2
  400330:	46 00 00 00 00 00 12 02 	mult $2,$18
  400338:	4c 00 00 00 00 04 00 00 	mflo $4
  400340:	02 00 00 00 16 6f 11 00 	jal 45bc58 <malloc>
  400348:	34 00 00 00 00 00 02 10 	sw $2,0($16)
  400350:	06 00 00 00 06 00 00 02 	bne $2,$0,400370 <pm_allocarray+0xd0>
  400358:	a2 00 00 00 00 10 04 00 	lui $4,4096
  400360:	43 00 00 00 20 00 04 04 	addiu $4,$4,32
  400368:	02 00 00 00 30 05 10 00 	jal 4014c0 <pm_error>
  400370:	43 00 00 00 01 00 07 00 	addiu $7,$0,1
  400378:	5b 00 00 00 00 02 13 07 	slt $2,$7,$19
  400380:	05 00 00 00 7e 00 00 02 	beq $2,$0,400580 <pm_allocarray+0x2e0>
  400388:	43 00 00 00 04 00 05 10 	addiu $5,$16,4
  400390:	42 00 00 00 00 03 11 00 	addu $3,$0,$17
  400398:	43 00 00 00 ff ff 02 13 	addiu $2,$19,-1
  4003a0:	4f 00 00 00 03 00 04 02 	andi $4,$2,3
  4003a8:	05 00 00 00 3c 00 00 04 	beq $4,$0,4004a0 <pm_allocarray+0x200>
  4003b0:	5c 00 00 00 02 00 02 04 	slti $2,$4,2
  4003b8:	06 00 00 00 24 00 00 02 	bne $2,$0,400450 <pm_allocarray+0x1b0>
  4003c0:	5c 00 00 00 03 00 02 04 	slti $2,$4,3
  4003c8:	06 00 00 00 10 00 00 02 	bne $2,$0,400410 <pm_allocarray+0x170>
  4003d0:	46 00 00 00 00 00 12 11 	mult $17,$18
  4003d8:	43 00 00 00 04 00 05 05 	addiu $5,$5,4
  4003e0:	28 00 00 00 00 00 02 10 	lw $2,0($16)
  4003e8:	4c 00 00 00 00 04 00 00 	mflo $4
  4003f0:	55 00 00 00 01 03 11 00 	sll $3,$17,0x1
  4003f8:	43 00 00 00 02 00 07 00 	addiu $7,$0,2
  400400:	42 00 00 00 00 02 04 02 	addu $2,$2,$4
  400408:	34 00 00 00 04 00 02 10 	sw $2,4($16)
  400410:	46 00 00 00 00 00 12 03 	mult $3,$18
  400418:	28 00 00 00 00 00 02 10 	lw $2,0($16)
  400420:	4c 00 00 00 00 04 00 00 	mflo $4
  400428:	43 00 00 00 01 00 07 07 	addiu $7,$7,1
  400430:	42 00 00 00 00 03 11 03 	addu $3,$3,$17
  400438:	42 00 00 00 00 02 04 02 	addu $2,$2,$4
  400440:	34 00 00 00 00 00 02 05 	sw $2,0($5)
  400448:	43 00 00 00 04 00 05 05 	addiu $5,$5,4
  400450:	46 00 00 00 00 00 12 03 	mult $3,$18
  400458:	43 00 00 00 01 00 07 07 	addiu $7,$7,1
  400460:	28 00 00 00 00 00 02 10 	lw $2,0($16)
  400468:	4c 00 00 00 00 04 00 00 	mflo $4
  400470:	5b 00 00 00 00 06 13 07 	slt $6,$7,$19
  400478:	42 00 00 00 00 03 11 03 	addu $3,$3,$17
  400480:	42 00 00 00 00 02 04 02 	addu $2,$2,$4
  400488:	34 00 00 00 00 00 02 05 	sw $2,0($5)
  400490:	43 00 00 00 04 00 05 05 	addiu $5,$5,4
  400498:	05 00 00 00 38 00 00 06 	beq $6,$0,400580 <pm_allocarray+0x2e0>
  4004a0:	46 00 00 00 00 00 12 03 	mult $3,$18
  4004a8:	4c 00 00 00 00 04 00 00 	mflo $4
  4004b0:	42 00 00 00 00 03 11 03 	addu $3,$3,$17
  4004b8:	46 00 00 00 00 00 12 03 	mult $3,$18
  4004c0:	4c 00 00 00 00 06 00 00 	mflo $6
  4004c8:	42 00 00 00 00 03 11 03 	addu $3,$3,$17
  4004d0:	46 00 00 00 00 00 12 03 	mult $3,$18
  4004d8:	4c 00 00 00 00 08 00 00 	mflo $8
  4004e0:	42 00 00 00 00 03 11 03 	addu $3,$3,$17
  4004e8:	46 00 00 00 00 00 12 03 	mult $3,$18
  4004f0:	28 00 00 00 00 00 02 10 	lw $2,0($16)
  4004f8:	42 00 00 00 00 02 04 02 	addu $2,$2,$4
  400500:	34 00 00 00 00 00 02 05 	sw $2,0($5)
  400508:	28 00 00 00 00 00 02 10 	lw $2,0($16)
  400510:	42 00 00 00 00 02 06 02 	addu $2,$2,$6
  400518:	34 00 00 00 04 00 02 05 	sw $2,4($5)
  400520:	28 00 00 00 00 00 02 10 	lw $2,0($16)
  400528:	43 00 00 00 04 00 07 07 	addiu $7,$7,4
  400530:	42 00 00 00 00 02 08 02 	addu $2,$2,$8
  400538:	34 00 00 00 08 00 02 05 	sw $2,8($5)
  400540:	28 00 00 00 00 00 02 10 	lw $2,0($16)
  400548:	4c 00 00 00 00 04 00 00 	mflo $4
  400550:	5b 00 00 00 00 06 13 07 	slt $6,$7,$19
  400558:	42 00 00 00 00 03 11 03 	addu $3,$3,$17
  400560:	42 00 00 00 00 02 04 02 	addu $2,$2,$4
  400568:	34 00 00 00 0c 00 02 05 	sw $2,12($5)
  400570:	43 00 00 00 10 00 05 05 	addiu $5,$5,16
  400578:	06 00 00 00 c8 ff 00 06 	bne $6,$0,4004a0 <pm_allocarray+0x200>
  400580:	42 00 00 00 00 02 10 00 	addu $2,$0,$16
  400588:	28 00 00 00 20 00 1f 1d 	lw $31,32($29)
  400590:	28 00 00 00 1c 00 13 1d 	lw $19,28($29)
  400598:	28 00 00 00 18 00 12 1d 	lw $18,24($29)
  4005a0:	28 00 00 00 14 00 11 1d 	lw $17,20($29)
  4005a8:	28 00 00 00 10 00 10 1d 	lw $16,16($29)
  4005b0:	43 00 00 00 28 00 1d 1d 	addiu $29,$29,40
  4005b8:	03 00 00 00 00 00 00 1f 	jr $31

004005c0 <pm_freearray>:
  4005c0:	43 00 00 00 e8 ff 1d 1d 	addiu $29,$29,-24
  4005c8:	34 00 00 00 10 00 10 1d 	sw $16,16($29)
  4005d0:	42 00 00 00 00 10 04 00 	addu $16,$0,$4
  4005d8:	34 00 00 00 14 00 1f 1d 	sw $31,20($29)
  4005e0:	28 00 00 00 00 00 04 10 	lw $4,0($16)
  4005e8:	02 00 00 00 a4 73 11 00 	jal 45ce90 <free>
  4005f0:	42 00 00 00 00 04 10 00 	addu $4,$0,$16
  4005f8:	02 00 00 00 a4 73 11 00 	jal 45ce90 <free>
  400600:	28 00 00 00 14 00 1f 1d 	lw $31,20($29)
  400608:	28 00 00 00 10 00 10 1d 	lw $16,16($29)
  400610:	43 00 00 00 18 00 1d 1d 	addiu $29,$29,24
  400618:	03 00 00 00 00 00 00 1f 	jr $31

00400620 <pm_keymatch>:
  400620:	43 00 00 00 e0 ff 1d 1d 	addiu $29,$29,-32
  400628:	34 00 00 00 14 00 11 1d 	sw $17,20($29)
  400630:	42 00 00 00 00 11 04 00 	addu $17,$0,$4
  400638:	34 00 00 00 18 00 12 1d 	sw $18,24($29)
  400640:	42 00 00 00 00 12 05 00 	addu $18,$0,$5
  400648:	34 00 00 00 10 00 10 1d 	sw $16,16($29)
  400650:	42 00 00 00 00 10 06 00 	addu $16,$0,$6
  400658:	34 00 00 00 1c 00 1f 1d 	sw $31,28($29)
  400660:	02 00 00 00 cc 73 11 00 	jal 45cf30 <strlen>
  400668:	42 00 00 00 00 03 02 00 	addu $3,$0,$2
  400670:	5b 00 00 00 00 10 10 03 	slt $16,$3,$16
  400678:	05 00 00 00 04 00 00 10 	beq $16,$0,400690 <pm_keymatch+0x70>
  400680:	42 00 00 00 00 02 00 00 	addu $2,$0,$0
  400688:	01 00 00 00 50 02 10 00 	j 400940 <pm_keymatch+0x320>
  400690:	43 00 00 00 ff ff 03 03 	addiu $3,$3,-1
  400698:	09 00 00 00 a6 00 00 03 	bltz $3,400938 <pm_keymatch+0x318>
  4006a0:	28 00 00 00 30 82 09 1c 	lw $9,-32208($28)
  4006a8:	28 00 00 00 34 82 08 1c 	lw $8,-32204($28)
  4006b0:	54 00 00 00 00 02 03 00 	nor $2,$0,$3
  4006b8:	4f 00 00 00 01 00 02 02 	andi $2,$2,1
  4006c0:	05 00 00 00 36 00 00 02 	beq $2,$0,4007a0 <pm_keymatch+0x180>
  4006c8:	22 00 00 00 00 00 05 11 	lbu $5,0($17)
  4006d0:	22 00 00 00 00 00 02 12 	lbu $2,0($18)
  4006d8:	43 00 00 00 01 00 11 11 	addiu $17,$17,1
  4006e0:	43 00 00 00 01 00 12 12 	addiu $18,$18,1
  4006e8:	55 00 00 00 18 02 02 00 	sll $2,$2,0x18
  4006f0:	59 00 00 00 18 06 02 00 	sra $6,$2,0x18
  4006f8:	05 00 00 00 e0 ff 00 06 	beq $6,$0,400680 <pm_keymatch+0x60>
  400700:	55 00 00 00 18 02 05 00 	sll $2,$5,0x18
  400708:	59 00 00 00 17 04 02 00 	sra $4,$2,0x17
  400710:	42 00 00 00 00 02 09 04 	addu $2,$4,$9
  400718:	26 00 00 00 00 00 02 02 	lhu $2,0($2)
  400720:	4f 00 00 00 01 00 02 02 	andi $2,$2,1
  400728:	05 00 00 00 04 00 00 02 	beq $2,$0,400740 <pm_keymatch+0x120>
  400730:	42 00 00 00 00 02 08 04 	addu $2,$4,$8
  400738:	22 00 00 00 00 00 05 02 	lbu $5,0($2)
  400740:	55 00 00 00 01 04 06 00 	sll $4,$6,0x1
  400748:	42 00 00 00 00 02 09 04 	addu $2,$4,$9
  400750:	26 00 00 00 00 00 02 02 	lhu $2,0($2)
  400758:	4f 00 00 00 01 00 02 02 	andi $2,$2,1
  400760:	05 00 00 00 04 00 00 02 	beq $2,$0,400778 <pm_keymatch+0x158>
  400768:	42 00 00 00 00 02 08 04 	addu $2,$4,$8
  400770:	22 00 00 00 00 00 05 02 	lbu $5,0($2)
  400778:	55 00 00 00 18 02 05 00 	sll $2,$5,0x18
  400780:	59 00 00 00 18 02 02 00 	sra $2,$2,0x18
  400788:	06 00 00 00 bc ff 06 02 	bne $2,$6,400680 <pm_keymatch+0x60>
  400790:	43 00 00 00 ff ff 03 03 	addiu $3,$3,-1
  400798:	09 00 00 00 66 00 00 03 	bltz $3,400938 <pm_keymatch+0x318>
  4007a0:	42 00 00 00 00 10 03 00 	addu $16,$0,$3
  4007a8:	42 00 00 00 00 05 12 00 	addu $5,$0,$18
  4007b0:	42 00 00 00 00 04 11 00 	addu $4,$0,$17
  4007b8:	20 00 00 00 00 00 07 05 	lb $7,0($5)
  4007c0:	22 00 00 00 00 00 06 04 	lbu $6,0($4)
  4007c8:	05 00 00 00 ac ff 00 07 	beq $7,$0,400680 <pm_keymatch+0x60>
  4007d0:	55 00 00 00 18 02 06 00 	sll $2,$6,0x18
  4007d8:	59 00 00 00 17 03 02 00 	sra $3,$2,0x17
  4007e0:	42 00 00 00 00 02 09 03 	addu $2,$3,$9
  4007e8:	26 00 00 00 00 00 02 02 	lhu $2,0($2)
  4007f0:	4f 00 00 00 01 00 02 02 	andi $2,$2,1
  4007f8:	05 00 00 00 04 00 00 02 	beq $2,$0,400810 <pm_keymatch+0x1f0>
  400800:	42 00 00 00 00 02 08 03 	addu $2,$3,$8
  400808:	22 00 00 00 00 00 06 02 	lbu $6,0($2)
  400810:	55 00 00 00 01 03 07 00 	sll $3,$7,0x1
  400818:	42 00 00 00 00 02 09 03 	addu $2,$3,$9
  400820:	26 00 00 00 00 00 02 02 	lhu $2,0($2)
  400828:	4f 00 00 00 01 00 02 02 	andi $2,$2,1
  400830:	05 00 00 00 04 00 00 02 	beq $2,$0,400848 <pm_keymatch+0x228>
  400838:	42 00 00 00 00 02 08 03 	addu $2,$3,$8
  400840:	22 00 00 00 00 00 06 02 	lbu $6,0($2)
  400848:	55 00 00 00 18 02 06 00 	sll $2,$6,0x18
  400850:	59 00 00 00 18 02 02 00 	sra $2,$2,0x18
  400858:	06 00 00 00 88 ff 07 02 	bne $2,$7,400680 <pm_keymatch+0x60>
  400860:	22 00 00 00 01 00 06 04 	lbu $6,1($4)
  400868:	22 00 00 00 01 00 02 05 	lbu $2,1($5)
  400870:	43 00 00 00 02 00 04 04 	addiu $4,$4,2
  400878:	43 00 00 00 02 00 05 05 	addiu $5,$5,2
  400880:	55 00 00 00 18 02 02 00 	sll $2,$2,0x18
  400888:	59 00 00 00 18 07 02 00 	sra $7,$2,0x18
  400890:	05 00 00 00 7a ff 00 07 	beq $7,$0,400680 <pm_keymatch+0x60>
  400898:	55 00 00 00 18 02 06 00 	sll $2,$6,0x18
  4008a0:	59 00 00 00 17 03 02 00 	sra $3,$2,0x17
  4008a8:	42 00 00 00 00 02 09 03 	addu $2,$3,$9
  4008b0:	26 00 00 00 00 00 02 02 	lhu $2,0($2)
  4008b8:	4f 00 00 00 01 00 02 02 	andi $2,$2,1
  4008c0:	05 00 00 00 04 00 00 02 	beq $2,$0,4008d8 <pm_keymatch+0x2b8>
  4008c8:	42 00 00 00 00 02 08 03 	addu $2,$3,$8
  4008d0:	22 00 00 00 00 00 06 02 	lbu $6,0($2)
  4008d8:	55 00 00 00 01 03 07 00 	sll $3,$7,0x1
  4008e0:	42 00 00 00 00 02 09 03 	addu $2,$3,$9
  4008e8:	26 00 00 00 00 00 02 02 	lhu $2,0($2)
  4008f0:	4f 00 00 00 01 00 02 02 	andi $2,$2,1
  4008f8:	05 00 00 00 04 00 00 02 	beq $2,$0,400910 <pm_keymatch+0x2f0>
  400900:	42 00 00 00 00 02 08 03 	addu $2,$3,$8
  400908:	22 00 00 00 00 00 06 02 	lbu $6,0($2)
  400910:	55 00 00 00 18 02 06 00 	sll $2,$6,0x18
  400918:	59 00 00 00 18 02 02 00 	sra $2,$2,0x18
  400920:	06 00 00 00 56 ff 07 02 	bne $2,$7,400680 <pm_keymatch+0x60>
  400928:	43 00 00 00 fe ff 10 10 	addiu $16,$16,-2
  400930:	0a 00 00 00 a0 ff 00 10 	bgez $16,4007b8 <pm_keymatch+0x198>
  400938:	43 00 00 00 01 00 02 00 	addiu $2,$0,1
  400940:	28 00 00 00 1c 00 1f 1d 	lw $31,28($29)
  400948:	28 00 00 00 18 00 12 1d 	lw $18,24($29)
  400950:	28 00 00 00 14 00 11 1d 	lw $17,20($29)
  400958:	28 00 00 00 10 00 10 1d 	lw $16,16($29)
  400960:	43 00 00 00 20 00 1d 1d 	addiu $29,$29,32
  400968:	03 00 00 00 00 00 00 1f 	jr $31

00400970 <pm_maxvaltobits>:
  400970:	43 00 00 00 e8 ff 1d 1d 	addiu $29,$29,-24
  400978:	34 00 00 00 10 00 1f 1d 	sw $31,16($29)
  400980:	42 00 00 00 00 05 04 00 	addu $5,$0,$4
  400988:	5c 00 00 00 02 00 02 05 	slti $2,$5,2
  400990:	05 00 00 00 04 00 00 02 	beq $2,$0,4009a8 <pm_maxvaltobits+0x38>
  400998:	43 00 00 00 01 00 02 00 	addiu $2,$0,1
  4009a0:	01 00 00 00 ec 02 10 00 	j 400bb0 <pm_maxvaltobits+0x240>
  4009a8:	5c 00 00 00 04 00 02 05 	slti $2,$5,4
  4009b0:	05 00 00 00 04 00 00 02 	beq $2,$0,4009c8 <pm_maxvaltobits+0x58>
  4009b8:	43 00 00 00 02 00 02 00 	addiu $2,$0,2
  4009c0:	01 00 00 00 ec 02 10 00 	j 400bb0 <pm_maxvaltobits+0x240>
  4009c8:	5c 00 00 00 08 00 02 05 	slti $2,$5,8
  4009d0:	05 00 00 00 04 00 00 02 	beq $2,$0,4009e8 <pm_maxvaltobits+0x78>
  4009d8:	43 00 00 00 03 00 02 00 	addiu $2,$0,3
  4009e0:	01 00 00 00 ec 02 10 00 	j 400bb0 <pm_maxvaltobits+0x240>
  4009e8:	5c 00 00 00 10 00 02 05 	slti $2,$5,16
  4009f0:	05 00 00 00 04 00 00 02 	beq $2,$0,400a08 <pm_maxvaltobits+0x98>
  4009f8:	43 00 00 00 04 00 02 00 	addiu $2,$0,4
  400a00:	01 00 00 00 ec 02 10 00 	j 400bb0 <pm_maxvaltobits+0x240>
  400a08:	5c 00 00 00 20 00 02 05 	slti $2,$5,32
  400a10:	05 00 00 00 04 00 00 02 	beq $2,$0,400a28 <pm_maxvaltobits+0xb8>
  400a18:	43 00 00 00 05 00 02 00 	addiu $2,$0,5
  400a20:	01 00 00 00 ec 02 10 00 	j 400bb0 <pm_maxvaltobits+0x240>
  400a28:	5c 00 00 00 40 00 02 05 	slti $2,$5,64
  400a30:	05 00 00 00 04 00 00 02 	beq $2,$0,400a48 <pm_maxvaltobits+0xd8>
  400a38:	43 00 00 00 06 00 02 00 	addiu $2,$0,6
  400a40:	01 00 00 00 ec 02 10 00 	j 400bb0 <pm_maxvaltobits+0x240>
  400a48:	5c 00 00 00 80 00 02 05 	slti $2,$5,128
  400a50:	05 00 00 00 04 00 00 02 	beq $2,$0,400a68 <pm_maxvaltobits+0xf8>
  400a58:	43 00 00 00 07 00 02 00 	addiu $2,$0,7
  400a60:	01 00 00 00 ec 02 10 00 	j 400bb0 <pm_maxvaltobits+0x240>
  400a68:	5c 00 00 00 00 01 02 05 	slti $2,$5,256
  400a70:	05 00 00 00 04 00 00 02 	beq $2,$0,400a88 <pm_maxvaltobits+0x118>
  400a78:	43 00 00 00 08 00 02 00 	addiu $2,$0,8
  400a80:	01 00 00 00 ec 02 10 00 	j 400bb0 <pm_maxvaltobits+0x240>
  400a88:	5c 00 00 00 00 02 02 05 	slti $2,$5,512
  400a90:	05 00 00 00 04 00 00 02 	beq $2,$0,400aa8 <pm_maxvaltobits+0x138>
  400a98:	43 00 00 00 09 00 02 00 	addiu $2,$0,9
  400aa0:	01 00 00 00 ec 02 10 00 	j 400bb0 <pm_maxvaltobits+0x240>
  400aa8:	5c 00 00 00 00 04 02 05 	slti $2,$5,1024
  400ab0:	05 00 00 00 04 00 00 02 	beq $2,$0,400ac8 <pm_maxvaltobits+0x158>
  400ab8:	43 00 00 00 0a 00 02 00 	addiu $2,$0,10
  400ac0:	01 00 00 00 ec 02 10 00 	j 400bb0 <pm_maxvaltobits+0x240>
  400ac8:	5c 00 00 00 00 08 02 05 	slti $2,$5,2048
  400ad0:	05 00 00 00 04 00 00 02 	beq $2,$0,400ae8 <pm_maxvaltobits+0x178>
  400ad8:	43 00 00 00 0b 00 02 00 	addiu $2,$0,11
  400ae0:	01 00 00 00 ec 02 10 00 	j 400bb0 <pm_maxvaltobits+0x240>
  400ae8:	5c 00 00 00 00 10 02 05 	slti $2,$5,4096
  400af0:	05 00 00 00 04 00 00 02 	beq $2,$0,400b08 <pm_maxvaltobits+0x198>
  400af8:	43 00 00 00 0c 00 02 00 	addiu $2,$0,12
  400b00:	01 00 00 00 ec 02 10 00 	j 400bb0 <pm_maxvaltobits+0x240>
  400b08:	5c 00 00 00 00 20 02 05 	slti $2,$5,8192
  400b10:	05 00 00 00 04 00 00 02 	beq $2,$0,400b28 <pm_maxvaltobits+0x1b8>
  400b18:	43 00 00 00 0d 00 02 00 	addiu $2,$0,13
  400b20:	01 00 00 00 ec 02 10 00 	j 400bb0 <pm_maxvaltobits+0x240>
  400b28:	5c 00 00 00 00 40 02 05 	slti $2,$5,16384
  400b30:	05 00 00 00 04 00 00 02 	beq $2,$0,400b48 <pm_maxvaltobits+0x1d8>
  400b38:	43 00 00 00 0e 00 02 00 	addiu $2,$0,14
  400b40:	01 00 00 00 ec 02 10 00 	j 400bb0 <pm_maxvaltobits+0x240>
  400b48:	43 00 00 00 ff 7f 02 00 	addiu $2,$0,32767
  400b50:	5b 00 00 00 00 02 05 02 	slt $2,$2,$5
  400b58:	06 00 00 00 04 00 00 02 	bne $2,$0,400b70 <pm_maxvaltobits+0x200>
  400b60:	43 00 00 00 0f 00 02 00 	addiu $2,$0,15
  400b68:	01 00 00 00 ec 02 10 00 	j 400bb0 <pm_maxvaltobits+0x240>
  400b70:	51 00 00 00 ff ff 02 00 	ori $2,$0,65535
  400b78:	5b 00 00 00 00 02 05 02 	slt $2,$2,$5
  400b80:	06 00 00 00 04 00 00 02 	bne $2,$0,400b98 <pm_maxvaltobits+0x228>
  400b88:	43 00 00 00 10 00 02 00 	addiu $2,$0,16
  400b90:	01 00 00 00 ec 02 10 00 	j 400bb0 <pm_maxvaltobits+0x240>
  400b98:	a2 00 00 00 00 10 04 00 	lui $4,4096
  400ba0:	43 00 00 00 44 00 04 04 	addiu $4,$4,68
  400ba8:	02 00 00 00 30 05 10 00 	jal 4014c0 <pm_error>
  400bb0:	28 00 00 00 10 00 1f 1d 	lw $31,16($29)
  400bb8:	43 00 00 00 18 00 1d 1d 	addiu $29,$29,24
  400bc0:	03 00 00 00 00 00 00 1f 	jr $31

00400bc8 <pm_bitstomaxval>:
  400bc8:	43 00 00 00 01 00 02 00 	addiu $2,$0,1
  400bd0:	56 00 00 00 00 02 02 04 	sllv $2,$2,$4
  400bd8:	43 00 00 00 ff ff 02 02 	addiu $2,$2,-1
  400be0:	03 00 00 00 00 00 00 1f 	jr $31

00400be8 <pm_init>:
  400be8:	43 00 00 00 d0 ff 1d 1d 	addiu $29,$29,-48
  400bf0:	34 00 00 00 18 00 12 1d 	sw $18,24($29)
  400bf8:	42 00 00 00 00 12 04 00 	addu $18,$0,$4
  400c00:	34 00 00 00 24 00 15 1d 	sw $21,36($29)
  400c08:	42 00 00 00 00 15 05 00 	addu $21,$0,$5
  400c10:	34 00 00 00 28 00 1f 1d 	sw $31,40($29)
  400c18:	34 00 00 00 20 00 14 1d 	sw $20,32($29)
  400c20:	34 00 00 00 1c 00 13 1d 	sw $19,28($29)
  400c28:	34 00 00 00 14 00 11 1d 	sw $17,20($29)
  400c30:	34 00 00 00 10 00 10 1d 	sw $16,16($29)
  400c38:	28 00 00 00 00 00 04 15 	lw $4,0($21)
  400c40:	43 00 00 00 2f 00 05 00 	addiu $5,$0,47
  400c48:	02 00 00 00 20 74 11 00 	jal 45d080 <strrchr>
  400c50:	34 00 00 00 d0 85 02 1c 	sw $2,-31280($28)
  400c58:	06 00 00 00 04 00 00 02 	bne $2,$0,400c70 <pm_init+0x88>
  400c60:	28 00 00 00 00 00 02 15 	lw $2,0($21)
  400c68:	01 00 00 00 1e 03 10 00 	j 400c78 <pm_init+0x90>
  400c70:	43 00 00 00 01 00 02 02 	addiu $2,$2,1
  400c78:	34 00 00 00 d0 85 02 1c 	sw $2,-31280($28)
  400c80:	43 00 00 00 01 00 02 00 	addiu $2,$0,1
  400c88:	34 00 00 00 d4 85 02 1c 	sw $2,-31276($28)
  400c90:	28 00 00 00 00 00 02 12 	lw $2,0($18)
  400c98:	43 00 00 00 01 00 13 00 	addiu $19,$0,1
  400ca0:	5b 00 00 00 00 02 02 13 	slt $2,$19,$2
  400ca8:	05 00 00 00 6c 01 00 02 	beq $2,$0,401260 <pm_init+0x678>
  400cb0:	43 00 00 00 04 00 14 15 	addiu $20,$21,4
  400cb8:	28 00 00 00 00 00 10 14 	lw $16,0($20)
  400cc0:	43 00 00 00 00 80 11 1c 	addiu $17,$28,-32768
  400cc8:	42 00 00 00 00 04 10 00 	addu $4,$0,$16
  400cd0:	02 00 00 00 cc 73 11 00 	jal 45cf30 <strlen>
  400cd8:	42 00 00 00 00 05 02 00 	addu $5,$0,$2
  400ce0:	5c 00 00 00 06 00 02 05 	slti $2,$5,6
  400ce8:	05 00 00 00 04 00 00 02 	beq $2,$0,400d00 <pm_init+0x118>
  400cf0:	42 00 00 00 00 02 00 00 	addu $2,$0,$0
  400cf8:	01 00 00 00 c0 03 10 00 	j 400f00 <pm_init+0x318>
  400d00:	43 00 00 00 ff ff 05 05 	addiu $5,$5,-1
  400d08:	09 00 00 00 7a 00 00 05 	bltz $5,400ef8 <pm_init+0x310>
  400d10:	28 00 00 00 30 82 08 1c 	lw $8,-32208($28)
  400d18:	28 00 00 00 34 82 07 1c 	lw $7,-32204($28)
  400d20:	54 00 00 00 00 02 05 00 	nor $2,$0,$5
  400d28:	4f 00 00 00 01 00 02 02 	andi $2,$2,1
  400d30:	05 00 00 00 36 00 00 02 	beq $2,$0,400e10 <pm_init+0x228>
  400d38:	22 00 00 00 00 00 04 10 	lbu $4,0($16)
  400d40:	22 00 00 00 00 00 02 11 	lbu $2,0($17)
  400d48:	43 00 00 00 01 00 10 10 	addiu $16,$16,1
  400d50:	43 00 00 00 01 00 11 11 	addiu $17,$17,1
  400d58:	55 00 00 00 18 02 02 00 	sll $2,$2,0x18
  400d60:	59 00 00 00 18 06 02 00 	sra $6,$2,0x18
  400d68:	05 00 00 00 e0 ff 00 06 	beq $6,$0,400cf0 <pm_init+0x108>
  400d70:	55 00 00 00 18 02 04 00 	sll $2,$4,0x18
  400d78:	59 00 00 00 17 03 02 00 	sra $3,$2,0x17
  400d80:	42 00 00 00 00 02 08 03 	addu $2,$3,$8
  400d88:	26 00 00 00 00 00 02 02 	lhu $2,0($2)
  400d90:	4f 00 00 00 01 00 02 02 	andi $2,$2,1
  400d98:	05 00 00 00 04 00 00 02 	beq $2,$0,400db0 <pm_init+0x1c8>
  400da0:	42 00 00 00 00 02 07 03 	addu $2,$3,$7
  400da8:	22 00 00 00 00 00 04 02 	lbu $4,0($2)
  400db0:	55 00 00 00 01 03 06 00 	sll $3,$6,0x1
  400db8:	42 00 00 00 00 02 08 03 	addu $2,$3,$8
  400dc0:	26 00 00 00 00 00 02 02 	lhu $2,0($2)
  400dc8:	4f 00 00 00 01 00 02 02 	andi $2,$2,1
  400dd0:	05 00 00 00 04 00 00 02 	beq $2,$0,400de8 <pm_init+0x200>
  400dd8:	42 00 00 00 00 02 07 03 	addu $2,$3,$7
  400de0:	22 00 00 00 00 00 04 02 	lbu $4,0($2)
  400de8:	55 00 00 00 18 02 04 00 	sll $2,$4,0x18
  400df0:	59 00 00 00 18 02 02 00 	sra $2,$2,0x18
  400df8:	06 00 00 00 bc ff 06 02 	bne $2,$6,400cf0 <pm_init+0x108>
  400e00:	43 00 00 00 ff ff 05 05 	addiu $5,$5,-1
  400e08:	09 00 00 00 3a 00 00 05 	bltz $5,400ef8 <pm_init+0x310>
  400e10:	22 00 00 00 00 00 04 10 	lbu $4,0($16)
  400e18:	22 00 00 00 00 00 02 11 	lbu $2,0($17)
  400e20:	43 00 00 00 01 00 10 10 	addiu $16,$16,1
  400e28:	43 00 00 00 01 00 11 11 	addiu $17,$17,1
  400e30:	55 00 00 00 18 02 02 00 	sll $2,$2,0x18
  400e38:	59 00 00 00 18 06 02 00 	sra $6,$2,0x18
  400e40:	05 00 00 00 aa ff 00 06 	beq $6,$0,400cf0 <pm_init+0x108>
  400e48:	55 00 00 00 18 02 04 00 	sll $2,$4,0x18
  400e50:	59 00 00 00 17 03 02 00 	sra $3,$2,0x17
  400e58:	42 00 00 00 00 02 08 03 	addu $2,$3,$8
  400e60:	26 00 00 00 00 00 02 02 	lhu $2,0($2)
  400e68:	4f 00 00 00 01 00 02 02 	andi $2,$2,1
  400e70:	05 00 00 00 04 00 00 02 	beq $2,$0,400e88 <pm_init+0x2a0>
  400e78:	42 00 00 00 00 02 07 03 	addu $2,$3,$7
  400e80:	22 00 00 00 00 00 04 02 	lbu $4,0($2)
  400e88:	55 00 00 00 01 03 06 00 	sll $3,$6,0x1
  400e90:	42 00 00 00 00 02 08 03 	addu $2,$3,$8
  400e98:	26 00 00 00 00 00 02 02 	lhu $2,0($2)
  400ea0:	4f 00 00 00 01 00 02 02 	andi $2,$2,1
  400ea8:	05 00 00 00 04 00 00 02 	beq $2,$0,400ec0 <pm_init+0x2d8>
  400eb0:	42 00 00 00 00 02 07 03 	addu $2,$3,$7
  400eb8:	22 00 00 00 00 00 04 02 	lbu $4,0($2)
  400ec0:	55 00 00 00 18 02 04 00 	sll $2,$4,0x18
  400ec8:	59 00 00 00 18 02 02 00 	sra $2,$2,0x18
  400ed0:	06 00 00 00 86 ff 06 02 	bne $2,$6,400cf0 <pm_init+0x108>
  400ed8:	22 00 00 00 00 00 04 10 	lbu $4,0($16)
  400ee0:	22 00 00 00 00 00 02 11 	lbu $2,0($17)
  400ee8:	43 00 00 00 ff ff 05 05 	addiu $5,$5,-1
  400ef0:	01 00 00 00 52 03 10 00 	j 400d48 <pm_init+0x160>
  400ef8:	43 00 00 00 01 00 02 00 	addiu $2,$0,1
  400f00:	05 00 00 00 04 00 00 02 	beq $2,$0,400f18 <pm_init+0x330>
  400f08:	34 00 00 00 d4 85 00 1c 	sw $0,-31276($28)
  400f10:	01 00 00 00 6e 04 10 00 	j 4011b8 <pm_init+0x5d0>
  400f18:	28 00 00 00 00 00 10 14 	lw $16,0($20)
  400f20:	a2 00 00 00 00 10 11 00 	lui $17,4096
  400f28:	43 00 00 00 60 00 11 11 	addiu $17,$17,96
  400f30:	42 00 00 00 00 04 10 00 	addu $4,$0,$16
  400f38:	02 00 00 00 cc 73 11 00 	jal 45cf30 <strlen>
  400f40:	42 00 00 00 00 05 02 00 	addu $5,$0,$2
  400f48:	5c 00 00 00 07 00 02 05 	slti $2,$5,7
  400f50:	05 00 00 00 04 00 00 02 	beq $2,$0,400f68 <pm_init+0x380>
  400f58:	42 00 00 00 00 02 00 00 	addu $2,$0,$0
  400f60:	01 00 00 00 5a 04 10 00 	j 401168 <pm_init+0x580>
  400f68:	43 00 00 00 ff ff 05 05 	addiu $5,$5,-1
  400f70:	09 00 00 00 7a 00 00 05 	bltz $5,401160 <pm_init+0x578>
  400f78:	28 00 00 00 30 82 08 1c 	lw $8,-32208($28)
  400f80:	28 00 00 00 34 82 07 1c 	lw $7,-32204($28)
  400f88:	54 00 00 00 00 02 05 00 	nor $2,$0,$5
  400f90:	4f 00 00 00 01 00 02 02 	andi $2,$2,1
  400f98:	05 00 00 00 36 00 00 02 	beq $2,$0,401078 <pm_init+0x490>
  400fa0:	22 00 00 00 00 00 04 10 	lbu $4,0($16)
  400fa8:	22 00 00 00 00 00 02 11 	lbu $2,0($17)
  400fb0:	43 00 00 00 01 00 10 10 	addiu $16,$16,1
  400fb8:	43 00 00 00 01 00 11 11 	addiu $17,$17,1
  400fc0:	55 00 00 00 18 02 02 00 	sll $2,$2,0x18
  400fc8:	59 00 00 00 18 06 02 00 	sra $6,$2,0x18
  400fd0:	05 00 00 00 e0 ff 00 06 	beq $6,$0,400f58 <pm_init+0x370>
  400fd8:	55 00 00 00 18 02 04 00 	sll $2,$4,0x18
  400fe0:	59 00 00 00 17 03 02 00 	sra $3,$2,0x17
  400fe8:	42 00 00 00 00 02 08 03 	addu $2,$3,$8
  400ff0:	26 00 00 00 00 00 02 02 	lhu $2,0($2)
  400ff8:	4f 00 00 00 01 00 02 02 	andi $2,$2,1
  401000:	05 00 00 00 04 00 00 02 	beq $2,$0,401018 <pm_init+0x430>
  401008:	42 00 00 00 00 02 07 03 	addu $2,$3,$7
  401010:	22 00 00 00 00 00 04 02 	lbu $4,0($2)
  401018:	55 00 00 00 01 03 06 00 	sll $3,$6,0x1
  401020:	42 00 00 00 00 02 08 03 	addu $2,$3,$8
  401028:	26 00 00 00 00 00 02 02 	lhu $2,0($2)
  401030:	4f 00 00 00 01 00 02 02 	andi $2,$2,1
  401038:	05 00 00 00 04 00 00 02 	beq $2,$0,401050 <pm_init+0x468>
  401040:	42 00 00 00 00 02 07 03 	addu $2,$3,$7
  401048:	22 00 00 00 00 00 04 02 	lbu $4,0($2)
  401050:	55 00 00 00 18 02 04 00 	sll $2,$4,0x18
  401058:	59 00 00 00 18 02 02 00 	sra $2,$2,0x18
  401060:	06 00 00 00 bc ff 06 02 	bne $2,$6,400f58 <pm_init+0x370>
  401068:	43 00 00 00 ff ff 05 05 	addiu $5,$5,-1
  401070:	09 00 00 00 3a 00 00 05 	bltz $5,401160 <pm_init+0x578>
  401078:	22 00 00 00 00 00 04 10 	lbu $4,0($16)
  401080:	22 00 00 00 00 00 02 11 	lbu $2,0($17)
  401088:	43 00 00 00 01 00 10 10 	addiu $16,$16,1
  401090:	43 00 00 00 01 00 11 11 	addiu $17,$17,1
  401098:	55 00 00 00 18 02 02 00 	sll $2,$2,0x18
  4010a0:	59 00 00 00 18 06 02 00 	sra $6,$2,0x18
  4010a8:	05 00 00 00 aa ff 00 06 	beq $6,$0,400f58 <pm_init+0x370>
  4010b0:	55 00 00 00 18 02 04 00 	sll $2,$4,0x18
  4010b8:	59 00 00 00 17 03 02 00 	sra $3,$2,0x17
  4010c0:	42 00 00 00 00 02 08 03 	addu $2,$3,$8
  4010c8:	26 00 00 00 00 00 02 02 	lhu $2,0($2)
  4010d0:	4f 00 00 00 01 00 02 02 	andi $2,$2,1
  4010d8:	05 00 00 00 04 00 00 02 	beq $2,$0,4010f0 <pm_init+0x508>
  4010e0:	42 00 00 00 00 02 07 03 	addu $2,$3,$7
  4010e8:	22 00 00 00 00 00 04 02 	lbu $4,0($2)
  4010f0:	55 00 00 00 01 03 06 00 	sll $3,$6,0x1
  4010f8:	42 00 00 00 00 02 08 03 	addu $2,$3,$8
  401100:	26 00 00 00 00 00 02 02 	lhu $2,0($2)
  401108:	4f 00 00 00 01 00 02 02 	andi $2,$2,1
  401110:	05 00 00 00 04 00 00 02 	beq $2,$0,401128 <pm_init+0x540>
  401118:	42 00 00 00 00 02 07 03 	addu $2,$3,$7
  401120:	22 00 00 00 00 00 04 02 	lbu $4,0($2)
  401128:	55 00 00 00 18 02 04 00 	sll $2,$4,0x18
  401130:	59 00 00 00 18 02 02 00 	sra $2,$2,0x18
  401138:	06 00 00 00 86 ff 06 02 	bne $2,$6,400f58 <pm_init+0x370>
  401140:	22 00 00 00 00 00 04 10 	lbu $4,0($16)
  401148:	22 00 00 00 00 00 02 11 	lbu $2,0($17)
  401150:	43 00 00 00 ff ff 05 05 	addiu $5,$5,-1
  401158:	01 00 00 00 ec 03 10 00 	j 400fb0 <pm_init+0x3c8>
  401160:	43 00 00 00 01 00 02 00 	addiu $2,$0,1
  401168:	05 00 00 00 32 00 00 02 	beq $2,$0,401238 <pm_init+0x650>
  401170:	a2 00 00 00 00 10 04 00 	lui $4,4096
  401178:	43 00 00 00 6c 00 04 04 	addiu $4,$4,108
  401180:	43 00 00 00 08 80 05 1c 	addiu $5,$28,-32760
  401188:	02 00 00 00 f8 04 10 00 	jal 4013e0 <pm_message>
  401190:	a2 00 00 00 00 10 04 00 	lui $4,4096
  401198:	43 00 00 00 7c 00 04 04 	addiu $4,$4,124
  4011a0:	02 00 00 00 f8 04 10 00 	jal 4013e0 <pm_message>
  4011a8:	42 00 00 00 00 04 00 00 	addu $4,$0,$0
  4011b0:	02 00 00 00 34 6d 11 00 	jal 45b4d0 <exit>
  4011b8:	28 00 00 00 00 00 02 12 	lw $2,0($18)
  4011c0:	43 00 00 00 01 00 04 13 	addiu $4,$19,1
  4011c8:	5b 00 00 00 00 02 04 02 	slt $2,$2,$4
  4011d0:	06 00 00 00 12 00 00 02 	bne $2,$0,401220 <pm_init+0x638>
  4011d8:	55 00 00 00 02 02 04 00 	sll $2,$4,0x2
  4011e0:	42 00 00 00 00 03 15 02 	addu $3,$2,$21
  4011e8:	28 00 00 00 00 00 02 03 	lw $2,0($3)
  4011f0:	34 00 00 00 fc ff 02 03 	sw $2,-4($3)
  4011f8:	28 00 00 00 00 00 02 12 	lw $2,0($18)
  401200:	43 00 00 00 01 00 04 04 	addiu $4,$4,1
  401208:	43 00 00 00 04 00 03 03 	addiu $3,$3,4
  401210:	5b 00 00 00 00 02 04 02 	slt $2,$2,$4
  401218:	05 00 00 00 f2 ff 00 02 	beq $2,$0,4011e8 <pm_init+0x600>
  401220:	28 00 00 00 00 00 02 12 	lw $2,0($18)
  401228:	43 00 00 00 ff ff 02 02 	addiu $2,$2,-1
  401230:	34 00 00 00 00 00 02 12 	sw $2,0($18)
  401238:	28 00 00 00 00 00 02 12 	lw $2,0($18)
  401240:	43 00 00 00 04 00 14 14 	addiu $20,$20,4
  401248:	43 00 00 00 01 00 13 13 	addiu $19,$19,1
  401250:	5b 00 00 00 00 02 02 13 	slt $2,$19,$2
  401258:	06 00 00 00 96 fe 00 02 	bne $2,$0,400cb8 <pm_init+0xd0>
  401260:	28 00 00 00 28 00 1f 1d 	lw $31,40($29)
  401268:	28 00 00 00 24 00 15 1d 	lw $21,36($29)
  401270:	28 00 00 00 20 00 14 1d 	lw $20,32($29)
  401278:	28 00 00 00 1c 00 13 1d 	lw $19,28($29)
  401280:	28 00 00 00 18 00 12 1d 	lw $18,24($29)
  401288:	28 00 00 00 14 00 11 1d 	lw $17,20($29)
  401290:	28 00 00 00 10 00 10 1d 	lw $16,16($29)
  401298:	43 00 00 00 30 00 1d 1d 	addiu $29,$29,48
  4012a0:	03 00 00 00 00 00 00 1f 	jr $31

004012a8 <pbm_init>:
  4012a8:	43 00 00 00 e8 ff 1d 1d 	addiu $29,$29,-24
  4012b0:	34 00 00 00 10 00 1f 1d 	sw $31,16($29)
  4012b8:	02 00 00 00 fa 02 10 00 	jal 400be8 <pm_init>
  4012c0:	28 00 00 00 10 00 1f 1d 	lw $31,16($29)
  4012c8:	43 00 00 00 18 00 1d 1d 	addiu $29,$29,24
  4012d0:	03 00 00 00 00 00 00 1f 	jr $31

004012d8 <pm_usage>:
  4012d8:	42 00 00 00 00 07 04 00 	addu $7,$0,$4
  4012e0:	28 00 00 00 28 82 04 1c 	lw $4,-32216($28)
  4012e8:	28 00 00 00 d0 85 06 1c 	lw $6,-31280($28)
  4012f0:	43 00 00 00 e8 ff 1d 1d 	addiu $29,$29,-24
  4012f8:	a2 00 00 00 00 10 05 00 	lui $5,4096
  401300:	43 00 00 00 94 00 05 05 	addiu $5,$5,148
  401308:	34 00 00 00 10 00 1f 1d 	sw $31,16($29)
  401310:	02 00 00 00 4c 74 11 00 	jal 45d130 <fprintf>
  401318:	43 00 00 00 01 00 04 00 	addiu $4,$0,1
  401320:	02 00 00 00 34 6d 11 00 	jal 45b4d0 <exit>
  401328:	28 00 00 00 10 00 1f 1d 	lw $31,16($29)
  401330:	43 00 00 00 18 00 1d 1d 	addiu $29,$29,24
  401338:	03 00 00 00 00 00 00 1f 	jr $31

00401340 <pm_perror>:
  401340:	28 00 00 00 10 86 02 1c 	lw $2,-31216($28)
  401348:	43 00 00 00 e8 ff 1d 1d 	addiu $29,$29,-24
  401350:	34 00 00 00 10 00 1f 1d 	sw $31,16($29)
  401358:	55 00 00 00 02 02 02 00 	sll $2,$2,0x2
  401360:	a2 00 00 00 00 10 06 00 	lui $6,4096
  401368:	42 00 00 00 00 06 02 06 	addu $6,$6,$2
  401370:	28 00 00 00 70 31 06 06 	lw $6,12656($6)
  401378:	42 00 00 00 00 05 04 00 	addu $5,$0,$4
  401380:	05 00 00 00 0a 00 00 05 	beq $5,$0,4013b0 <pm_perror+0x70>
  401388:	20 00 00 00 00 00 02 05 	lb $2,0($5)
  401390:	05 00 00 00 06 00 00 02 	beq $2,$0,4013b0 <pm_perror+0x70>
  401398:	43 00 00 00 10 80 04 1c 	addiu $4,$28,-32752
  4013a0:	02 00 00 00 30 05 10 00 	jal 4014c0 <pm_error>
  4013a8:	01 00 00 00 f2 04 10 00 	j 4013c8 <pm_perror+0x88>
  4013b0:	43 00 00 00 18 80 04 1c 	addiu $4,$28,-32744
  4013b8:	42 00 00 00 00 05 06 00 	addu $5,$0,$6
  4013c0:	02 00 00 00 30 05 10 00 	jal 4014c0 <pm_error>
  4013c8:	28 00 00 00 10 00 1f 1d 	lw $31,16($29)
  4013d0:	43 00 00 00 18 00 1d 1d 	addiu $29,$29,24
  4013d8:	03 00 00 00 00 00 00 1f 	jr $31

004013e0 <pm_message>:
  4013e0:	28 00 00 00 d4 85 02 1c 	lw $2,-31276($28)
  4013e8:	34 00 00 00 00 00 04 1d 	sw $4,0($29)
  4013f0:	34 00 00 00 04 00 05 1d 	sw $5,4($29)
  4013f8:	34 00 00 00 08 00 06 1d 	sw $6,8($29)
  401400:	34 00 00 00 0c 00 07 1d 	sw $7,12($29)
  401408:	43 00 00 00 e0 ff 1d 1d 	addiu $29,$29,-32
  401410:	34 00 00 00 10 00 10 1d 	sw $16,16($29)
  401418:	42 00 00 00 00 10 04 00 	addu $16,$0,$4
  401420:	34 00 00 00 14 00 11 1d 	sw $17,20($29)
  401428:	43 00 00 00 24 00 11 1d 	addiu $17,$29,36
  401430:	34 00 00 00 18 00 1f 1d 	sw $31,24($29)
  401438:	05 00 00 00 16 00 00 02 	beq $2,$0,401498 <pm_message+0xb8>
  401440:	28 00 00 00 28 82 04 1c 	lw $4,-32216($28)
  401448:	28 00 00 00 d0 85 06 1c 	lw $6,-31280($28)
  401450:	43 00 00 00 1c 80 05 1c 	addiu $5,$28,-32740
  401458:	02 00 00 00 4c 74 11 00 	jal 45d130 <fprintf>
  401460:	28 00 00 00 28 82 04 1c 	lw $4,-32216($28)
  401468:	42 00 00 00 00 05 10 00 	addu $5,$0,$16
  401470:	42 00 00 00 00 06 11 00 	addu $6,$0,$17
  401478:	02 00 00 00 60 74 11 00 	jal 45d180 <vfprintf>
  401480:	28 00 00 00 28 82 05 1c 	lw $5,-32216($28)
  401488:	43 00 00 00 0a 00 04 00 	addiu $4,$0,10
  401490:	02 00 00 00 bc 7f 11 00 	jal 45fef0 <fputc>
  401498:	28 00 00 00 18 00 1f 1d 	lw $31,24($29)
  4014a0:	28 00 00 00 14 00 11 1d 	lw $17,20($29)
  4014a8:	28 00 00 00 10 00 10 1d 	lw $16,16($29)
  4014b0:	43 00 00 00 20 00 1d 1d 	addiu $29,$29,32
  4014b8:	03 00 00 00 00 00 00 1f 	jr $31

004014c0 <pm_error>:
  4014c0:	34 00 00 00 00 00 04 1d 	sw $4,0($29)
  4014c8:	34 00 00 00 04 00 05 1d 	sw $5,4($29)
  4014d0:	34 00 00 00 08 00 06 1d 	sw $6,8($29)
  4014d8:	34 00 00 00 0c 00 07 1d 	sw $7,12($29)
  4014e0:	43 00 00 00 e0 ff 1d 1d 	addiu $29,$29,-32
  4014e8:	34 00 00 00 14 00 11 1d 	sw $17,20($29)
  4014f0:	42 00 00 00 00 11 04 00 	addu $17,$0,$4
  4014f8:	28 00 00 00 28 82 04 1c 	lw $4,-32216($28)
  401500:	28 00 00 00 d0 85 06 1c 	lw $6,-31280($28)
  401508:	43 00 00 00 1c 80 05 1c 	addiu $5,$28,-32740
  401510:	34 00 00 00 10 00 10 1d 	sw $16,16($29)
  401518:	43 00 00 00 24 00 10 1d 	addiu $16,$29,36
  401520:	34 00 00 00 18 00 1f 1d 	sw $31,24($29)
  401528:	02 00 00 00 4c 74 11 00 	jal 45d130 <fprintf>
  401530:	28 00 00 00 28 82 04 1c 	lw $4,-32216($28)
  401538:	42 00 00 00 00 05 11 00 	addu $5,$0,$17
  401540:	42 00 00 00 00 06 10 00 	addu $6,$0,$16
  401548:	02 00 00 00 60 74 11 00 	jal 45d180 <vfprintf>
  401550:	28 00 00 00 28 82 05 1c 	lw $5,-32216($28)
  401558:	43 00 00 00 0a 00 04 00 	addiu $4,$0,10
  401560:	02 00 00 00 bc 7f 11 00 	jal 45fef0 <fputc>
  401568:	43 00 00 00 01 00 04 00 	addiu $4,$0,1
  401570:	02 00 00 00 34 6d 11 00 	jal 45b4d0 <exit>
  401578:	28 00 00 00 18 00 1f 1d 	lw $31,24($29)
  401580:	28 00 00 00 14 00 11 1d 	lw $17,20($29)
  401588:	28 00 00 00 10 00 10 1d 	lw $16,16($29)
  401590:	43 00 00 00 20 00 1d 1d 	addiu $29,$29,32
  401598:	03 00 00 00 00 00 00 1f 	jr $31

004015a0 <pm_openr>:
  4015a0:	43 00 00 00 e8 ff 1d 1d 	addiu $29,$29,-24
  4015a8:	34 00 00 00 10 00 10 1d 	sw $16,16($29)
  4015b0:	42 00 00 00 00 10 04 00 	addu $16,$0,$4
  4015b8:	43 00 00 00 24 80 05 1c 	addiu $5,$28,-32732
  4015c0:	34 00 00 00 14 00 1f 1d 	sw $31,20($29)
  4015c8:	02 00 00 00 08 80 11 00 	jal 460020 <strcmp>
  4015d0:	06 00 00 00 04 00 00 02 	bne $2,$0,4015e8 <pm_openr+0x48>
  4015d8:	28 00 00 00 20 82 02 1c 	lw $2,-32224($28)
  4015e0:	01 00 00 00 a4 05 10 00 	j 401690 <pm_openr+0xf0>
  4015e8:	42 00 00 00 00 04 10 00 	addu $4,$0,$16
  4015f0:	43 00 00 00 28 80 05 1c 	addiu $5,$28,-32728
  4015f8:	02 00 00 00 ae 80 11 00 	jal 4602b8 <fopen>
  401600:	06 00 00 00 22 00 00 02 	bne $2,$0,401690 <pm_openr+0xf0>
  401608:	28 00 00 00 10 86 02 1c 	lw $2,-31216($28)
  401610:	55 00 00 00 02 02 02 00 	sll $2,$2,0x2
  401618:	a2 00 00 00 00 10 06 00 	lui $6,4096
  401620:	42 00 00 00 00 06 02 06 	addu $6,$6,$2
  401628:	28 00 00 00 70 31 06 06 	lw $6,12656($6)
  401630:	05 00 00 00 0c 00 00 10 	beq $16,$0,401668 <pm_openr+0xc8>
  401638:	20 00 00 00 00 00 02 10 	lb $2,0($16)
  401640:	05 00 00 00 08 00 00 02 	beq $2,$0,401668 <pm_openr+0xc8>
  401648:	43 00 00 00 10 80 04 1c 	addiu $4,$28,-32752
  401650:	42 00 00 00 00 05 10 00 	addu $5,$0,$16
  401658:	02 00 00 00 30 05 10 00 	jal 4014c0 <pm_error>
  401660:	01 00 00 00 a0 05 10 00 	j 401680 <pm_openr+0xe0>
  401668:	43 00 00 00 18 80 04 1c 	addiu $4,$28,-32744
  401670:	42 00 00 00 00 05 06 00 	addu $5,$0,$6
  401678:	02 00 00 00 30 05 10 00 	jal 4014c0 <pm_error>
  401680:	43 00 00 00 01 00 04 00 	addiu $4,$0,1
  401688:	02 00 00 00 34 6d 11 00 	jal 45b4d0 <exit>
  401690:	28 00 00 00 14 00 1f 1d 	lw $31,20($29)
  401698:	28 00 00 00 10 00 10 1d 	lw $16,16($29)
  4016a0:	43 00 00 00 18 00 1d 1d 	addiu $29,$29,24
  4016a8:	03 00 00 00 00 00 00 1f 	jr $31

004016b0 <pm_openw>:
  4016b0:	43 00 00 00 e8 ff 1d 1d 	addiu $29,$29,-24
  4016b8:	34 00 00 00 10 00 10 1d 	sw $16,16($29)
  4016c0:	42 00 00 00 00 10 04 00 	addu $16,$0,$4
  4016c8:	43 00 00 00 2c 80 05 1c 	addiu $5,$28,-32724
  4016d0:	34 00 00 00 14 00 1f 1d 	sw $31,20($29)
  4016d8:	02 00 00 00 ae 80 11 00 	jal 4602b8 <fopen>
  4016e0:	06 00 00 00 22 00 00 02 	bne $2,$0,401770 <pm_openw+0xc0>
  4016e8:	28 00 00 00 10 86 02 1c 	lw $2,-31216($28)
  4016f0:	55 00 00 00 02 02 02 00 	sll $2,$2,0x2
  4016f8:	a2 00 00 00 00 10 06 00 	lui $6,4096
  401700:	42 00 00 00 00 06 02 06 	addu $6,$6,$2
  401708:	28 00 00 00 70 31 06 06 	lw $6,12656($6)
  401710:	05 00 00 00 0c 00 00 10 	beq $16,$0,401748 <pm_openw+0x98>
  401718:	20 00 00 00 00 00 02 10 	lb $2,0($16)
  401720:	05 00 00 00 08 00 00 02 	beq $2,$0,401748 <pm_openw+0x98>
  401728:	43 00 00 00 10 80 04 1c 	addiu $4,$28,-32752
  401730:	42 00 00 00 00 05 10 00 	addu $5,$0,$16
  401738:	02 00 00 00 30 05 10 00 	jal 4014c0 <pm_error>
  401740:	01 00 00 00 d8 05 10 00 	j 401760 <pm_openw+0xb0>
  401748:	43 00 00 00 18 80 04 1c 	addiu $4,$28,-32744
  401750:	42 00 00 00 00 05 06 00 	addu $5,$0,$6
  401758:	02 00 00 00 30 05 10 00 	jal 4014c0 <pm_error>
  401760:	43 00 00 00 01 00 04 00 	addiu $4,$0,1
  401768:	02 00 00 00 34 6d 11 00 	jal 45b4d0 <exit>
  401770:	28 00 00 00 14 00 1f 1d 	lw $31,20($29)
  401778:	28 00 00 00 10 00 10 1d 	lw $16,16($29)
  401780:	43 00 00 00 18 00 1d 1d 	addiu $29,$29,24
  401788:	03 00 00 00 00 00 00 1f 	jr $31

00401790 <pm_close>:
  401790:	43 00 00 00 e8 ff 1d 1d 	addiu $29,$29,-24
  401798:	34 00 00 00 10 00 10 1d 	sw $16,16($29)
  4017a0:	42 00 00 00 00 10 04 00 	addu $16,$0,$4
  4017a8:	34 00 00 00 14 00 1f 1d 	sw $31,20($29)
  4017b0:	02 00 00 00 f8 80 11 00 	jal 4603e0 <fflush>
  4017b8:	28 00 00 00 4c 00 02 10 	lw $2,76($16)
  4017c0:	4f 00 00 00 00 04 02 02 	andi $2,$2,1024
  4017c8:	05 00 00 00 06 00 00 02 	beq $2,$0,4017e8 <pm_close+0x58>
  4017d0:	a2 00 00 00 00 10 04 00 	lui $4,4096
  4017d8:	43 00 00 00 a4 00 04 04 	addiu $4,$4,164
  4017e0:	02 00 00 00 f8 04 10 00 	jal 4013e0 <pm_message>
  4017e8:	28 00 00 00 20 82 02 1c 	lw $2,-32224($28)
  4017f0:	05 00 00 00 24 00 02 10 	beq $16,$2,401888 <pm_close+0xf8>
  4017f8:	42 00 00 00 00 04 10 00 	addu $4,$0,$16
  401800:	02 00 00 00 78 81 11 00 	jal 4605e0 <fclose>
  401808:	05 00 00 00 1e 00 00 02 	beq $2,$0,401888 <pm_close+0xf8>
  401810:	28 00 00 00 10 86 02 1c 	lw $2,-31216($28)
  401818:	55 00 00 00 02 02 02 00 	sll $2,$2,0x2
  401820:	a2 00 00 00 00 10 06 00 	lui $6,4096
  401828:	42 00 00 00 00 06 02 06 	addu $6,$6,$2
  401830:	28 00 00 00 70 31 06 06 	lw $6,12656($6)
  401838:	43 00 00 00 30 80 05 1c 	addiu $5,$28,-32720
  401840:	05 00 00 00 0a 00 00 05 	beq $5,$0,401870 <pm_close+0xe0>
  401848:	20 00 00 00 30 80 02 1c 	lb $2,-32720($28)
  401850:	05 00 00 00 06 00 00 02 	beq $2,$0,401870 <pm_close+0xe0>
  401858:	43 00 00 00 10 80 04 1c 	addiu $4,$28,-32752
  401860:	02 00 00 00 30 05 10 00 	jal 4014c0 <pm_error>
  401868:	01 00 00 00 22 06 10 00 	j 401888 <pm_close+0xf8>
  401870:	43 00 00 00 18 80 04 1c 	addiu $4,$28,-32744
  401878:	42 00 00 00 00 05 06 00 	addu $5,$0,$6
  401880:	02 00 00 00 30 05 10 00 	jal 4014c0 <pm_error>
  401888:	28 00 00 00 14 00 1f 1d 	lw $31,20($29)
  401890:	28 00 00 00 10 00 10 1d 	lw $16,16($29)
  401898:	43 00 00 00 18 00 1d 1d 	addiu $29,$29,24
  4018a0:	03 00 00 00 00 00 00 1f 	jr $31

004018a8 <pm_readbigshort>:
  4018a8:	43 00 00 00 e0 ff 1d 1d 	addiu $29,$29,-32
  4018b0:	34 00 00 00 10 00 10 1d 	sw $16,16($29)
  4018b8:	42 00 00 00 00 10 04 00 	addu $16,$0,$4
  4018c0:	34 00 00 00 18 00 1f 1d 	sw $31,24($29)
  4018c8:	34 00 00 00 14 00 11 1d 	sw $17,20($29)
  4018d0:	28 00 00 00 04 00 04 10 	lw $4,4($16)
  4018d8:	28 00 00 00 08 00 02 10 	lw $2,8($16)
  4018e0:	42 00 00 00 00 11 05 00 	addu $17,$0,$5
  4018e8:	5d 00 00 00 00 02 02 04 	sltu $2,$4,$2
  4018f0:	05 00 00 00 08 00 00 02 	beq $2,$0,401918 <pm_readbigshort+0x70>
  4018f8:	43 00 00 00 01 00 02 04 	addiu $2,$4,1
  401900:	34 00 00 00 04 00 02 10 	sw $2,4($16)
  401908:	22 00 00 00 00 00 04 04 	lbu $4,0($4)
  401910:	01 00 00 00 4c 06 10 00 	j 401930 <pm_readbigshort+0x88>
  401918:	42 00 00 00 00 04 10 00 	addu $4,$0,$16
  401920:	02 00 00 00 76 87 11 00 	jal 461dd8 <__fillbf>
  401928:	42 00 00 00 00 04 02 00 	addu $4,$0,$2
  401930:	43 00 00 00 ff ff 02 00 	addiu $2,$0,-1
  401938:	05 00 00 00 2e 00 02 04 	beq $4,$2,4019f8 <pm_readbigshort+0x150>
  401940:	4f 00 00 00 ff 00 02 04 	andi $2,$4,255
  401948:	55 00 00 00 08 02 02 00 	sll $2,$2,0x8
  401950:	32 00 00 00 00 00 02 11 	sh $2,0($17)
  401958:	28 00 00 00 04 00 04 10 	lw $4,4($16)
  401960:	28 00 00 00 08 00 02 10 	lw $2,8($16)
  401968:	5d 00 00 00 00 02 02 04 	sltu $2,$4,$2
  401970:	05 00 00 00 08 00 00 02 	beq $2,$0,401998 <pm_readbigshort+0xf0>
  401978:	43 00 00 00 01 00 02 04 	addiu $2,$4,1
  401980:	34 00 00 00 04 00 02 10 	sw $2,4($16)
  401988:	22 00 00 00 00 00 04 04 	lbu $4,0($4)
  401990:	01 00 00 00 6c 06 10 00 	j 4019b0 <pm_readbigshort+0x108>
  401998:	42 00 00 00 00 04 10 00 	addu $4,$0,$16
  4019a0:	02 00 00 00 76 87 11 00 	jal 461dd8 <__fillbf>
  4019a8:	42 00 00 00 00 04 02 00 	addu $4,$0,$2
  4019b0:	43 00 00 00 ff ff 02 00 	addiu $2,$0,-1
  4019b8:	05 00 00 00 0c 00 02 04 	beq $4,$2,4019f0 <pm_readbigshort+0x148>
  4019c0:	26 00 00 00 00 00 03 11 	lhu $3,0($17)
  4019c8:	42 00 00 00 00 02 00 00 	addu $2,$0,$0
  4019d0:	4f 00 00 00 ff 00 04 04 	andi $4,$4,255
  4019d8:	50 00 00 00 00 03 04 03 	or $3,$3,$4
  4019e0:	32 00 00 00 00 00 03 11 	sh $3,0($17)
  4019e8:	01 00 00 00 7e 06 10 00 	j 4019f8 <pm_readbigshort+0x150>
  4019f0:	43 00 00 00 ff ff 02 00 	addiu $2,$0,-1
  4019f8:	28 00 00 00 18 00 1f 1d 	lw $31,24($29)
  401a00:	28 00 00 00 14 00 11 1d 	lw $17,20($29)
  401a08:	28 00 00 00 10 00 10 1d 	lw $16,16($29)
  401a10:	43 00 00 00 20 00 1d 1d 	addiu $29,$29,32
  401a18:	03 00 00 00 00 00 00 1f 	jr $31

00401a20 <pm_writebigshort>:
  401a20:	43 00 00 00 e0 ff 1d 1d 	addiu $29,$29,-32
  401a28:	34 00 00 00 10 00 10 1d 	sw $16,16($29)
  401a30:	42 00 00 00 00 10 04 00 	addu $16,$0,$4
  401a38:	34 00 00 00 18 00 1f 1d 	sw $31,24($29)
  401a40:	34 00 00 00 14 00 11 1d 	sw $17,20($29)
  401a48:	28 00 00 00 04 00 04 10 	lw $4,4($16)
  401a50:	28 00 00 00 0c 00 02 10 	lw $2,12($16)
  401a58:	42 00 00 00 00 11 05 00 	addu $17,$0,$5
  401a60:	5d 00 00 00 00 02 02 04 	sltu $2,$4,$2
  401a68:	05 00 00 00 0a 00 00 02 	beq $2,$0,401a98 <pm_writebigshort+0x78>
  401a70:	57 00 00 00 08 03 05 00 	srl $3,$5,0x8
  401a78:	43 00 00 00 01 00 02 04 	addiu $2,$4,1
  401a80:	34 00 00 00 04 00 02 10 	sw $2,4($16)
  401a88:	30 00 00 00 00 00 03 04 	sb $3,0($4)
  401a90:	01 00 00 00 ae 06 10 00 	j 401ab8 <pm_writebigshort+0x98>
  401a98:	57 00 00 00 08 05 05 00 	srl $5,$5,0x8
  401aa0:	42 00 00 00 00 04 10 00 	addu $4,$0,$16
  401aa8:	4f 00 00 00 ff 00 05 05 	andi $5,$5,255
  401ab0:	02 00 00 00 28 86 11 00 	jal 4618a0 <__flshfp>
  401ab8:	28 00 00 00 04 00 03 10 	lw $3,4($16)
  401ac0:	28 00 00 00 0c 00 02 10 	lw $2,12($16)
  401ac8:	5d 00 00 00 00 02 02 03 	sltu $2,$3,$2
  401ad0:	05 00 00 00 08 00 00 02 	beq $2,$0,401af8 <pm_writebigshort+0xd8>
  401ad8:	43 00 00 00 01 00 02 03 	addiu $2,$3,1
  401ae0:	34 00 00 00 04 00 02 10 	sw $2,4($16)
  401ae8:	30 00 00 00 00 00 11 03 	sb $17,0($3)
  401af0:	01 00 00 00 c4 06 10 00 	j 401b10 <pm_writebigshort+0xf0>
  401af8:	42 00 00 00 00 04 10 00 	addu $4,$0,$16
  401b00:	4f 00 00 00 ff 00 05 11 	andi $5,$17,255
  401b08:	02 00 00 00 28 86 11 00 	jal 4618a0 <__flshfp>
  401b10:	42 00 00 00 00 02 00 00 	addu $2,$0,$0
  401b18:	28 00 00 00 18 00 1f 1d 	lw $31,24($29)
  401b20:	28 00 00 00 14 00 11 1d 	lw $17,20($29)
  401b28:	28 00 00 00 10 00 10 1d 	lw $16,16($29)
  401b30:	43 00 00 00 20 00 1d 1d 	addiu $29,$29,32
  401b38:	03 00 00 00 00 00 00 1f 	jr $31

00401b40 <pm_readbiglong>:
  401b40:	43 00 00 00 e0 ff 1d 1d 	addiu $29,$29,-32
  401b48:	34 00 00 00 10 00 10 1d 	sw $16,16($29)
  401b50:	42 00 00 00 00 10 04 00 	addu $16,$0,$4
  401b58:	34 00 00 00 18 00 1f 1d 	sw $31,24($29)
  401b60:	34 00 00 00 14 00 11 1d 	sw $17,20($29)
  401b68:	28 00 00 00 04 00 03 10 	lw $3,4($16)
  401b70:	28 00 00 00 08 00 02 10 	lw $2,8($16)
  401b78:	42 00 00 00 00 11 05 00 	addu $17,$0,$5
  401b80:	5d 00 00 00 00 02 02 03 	sltu $2,$3,$2
  401b88:	05 00 00 00 08 00 00 02 	beq $2,$0,401bb0 <pm_readbiglong+0x70>
  401b90:	43 00 00 00 01 00 02 03 	addiu $2,$3,1
  401b98:	34 00 00 00 04 00 02 10 	sw $2,4($16)
  401ba0:	22 00 00 00 00 00 04 03 	lbu $4,0($3)
  401ba8:	01 00 00 00 f2 06 10 00 	j 401bc8 <pm_readbiglong+0x88>
  401bb0:	42 00 00 00 00 04 10 00 	addu $4,$0,$16
  401bb8:	02 00 00 00 76 87 11 00 	jal 461dd8 <__fillbf>
  401bc0:	42 00 00 00 00 04 02 00 	addu $4,$0,$2
  401bc8:	43 00 00 00 ff ff 02 00 	addiu $2,$0,-1
  401bd0:	05 00 00 00 74 00 02 04 	beq $4,$2,401da8 <pm_readbiglong+0x268>
  401bd8:	55 00 00 00 18 02 04 00 	sll $2,$4,0x18
  401be0:	34 00 00 00 00 00 02 11 	sw $2,0($17)
  401be8:	28 00 00 00 04 00 03 10 	lw $3,4($16)
  401bf0:	28 00 00 00 08 00 02 10 	lw $2,8($16)
  401bf8:	5d 00 00 00 00 02 02 03 	sltu $2,$3,$2
  401c00:	05 00 00 00 08 00 00 02 	beq $2,$0,401c28 <pm_readbiglong+0xe8>
  401c08:	43 00 00 00 01 00 02 03 	addiu $2,$3,1
  401c10:	34 00 00 00 04 00 02 10 	sw $2,4($16)
  401c18:	22 00 00 00 00 00 04 03 	lbu $4,0($3)
  401c20:	01 00 00 00 10 07 10 00 	j 401c40 <pm_readbiglong+0x100>
  401c28:	42 00 00 00 00 04 10 00 	addu $4,$0,$16
  401c30:	02 00 00 00 76 87 11 00 	jal 461dd8 <__fillbf>
  401c38:	42 00 00 00 00 04 02 00 	addu $4,$0,$2
  401c40:	43 00 00 00 ff ff 02 00 	addiu $2,$0,-1
  401c48:	05 00 00 00 56 00 02 04 	beq $4,$2,401da8 <pm_readbiglong+0x268>
  401c50:	28 00 00 00 00 00 02 11 	lw $2,0($17)
  401c58:	4f 00 00 00 ff 00 03 04 	andi $3,$4,255
  401c60:	55 00 00 00 10 03 03 00 	sll $3,$3,0x10
  401c68:	50 00 00 00 00 02 03 02 	or $2,$2,$3
  401c70:	34 00 00 00 00 00 02 11 	sw $2,0($17)
  401c78:	28 00 00 00 04 00 03 10 	lw $3,4($16)
  401c80:	28 00 00 00 08 00 02 10 	lw $2,8($16)
  401c88:	5d 00 00 00 00 02 02 03 	sltu $2,$3,$2
  401c90:	05 00 00 00 08 00 00 02 	beq $2,$0,401cb8 <pm_readbiglong+0x178>
  401c98:	43 00 00 00 01 00 02 03 	addiu $2,$3,1
  401ca0:	34 00 00 00 04 00 02 10 	sw $2,4($16)
  401ca8:	22 00 00 00 00 00 04 03 	lbu $4,0($3)
  401cb0:	01 00 00 00 34 07 10 00 	j 401cd0 <pm_readbiglong+0x190>
  401cb8:	42 00 00 00 00 04 10 00 	addu $4,$0,$16
  401cc0:	02 00 00 00 76 87 11 00 	jal 461dd8 <__fillbf>
  401cc8:	42 00 00 00 00 04 02 00 	addu $4,$0,$2
  401cd0:	43 00 00 00 ff ff 02 00 	addiu $2,$0,-1
  401cd8:	05 00 00 00 32 00 02 04 	beq $4,$2,401da8 <pm_readbiglong+0x268>
  401ce0:	28 00 00 00 00 00 02 11 	lw $2,0($17)
  401ce8:	4f 00 00 00 ff 00 03 04 	andi $3,$4,255
  401cf0:	55 00 00 00 08 03 03 00 	sll $3,$3,0x8
  401cf8:	50 00 00 00 00 02 03 02 	or $2,$2,$3
  401d00:	34 00 00 00 00 00 02 11 	sw $2,0($17)
  401d08:	28 00 00 00 04 00 03 10 	lw $3,4($16)
  401d10:	28 00 00 00 08 00 02 10 	lw $2,8($16)
  401d18:	5d 00 00 00 00 02 02 03 	sltu $2,$3,$2
  401d20:	05 00 00 00 08 00 00 02 	beq $2,$0,401d48 <pm_readbiglong+0x208>
  401d28:	43 00 00 00 01 00 02 03 	addiu $2,$3,1
  401d30:	34 00 00 00 04 00 02 10 	sw $2,4($16)
  401d38:	22 00 00 00 00 00 04 03 	lbu $4,0($3)
  401d40:	01 00 00 00 58 07 10 00 	j 401d60 <pm_readbiglong+0x220>
  401d48:	42 00 00 00 00 04 10 00 	addu $4,$0,$16
  401d50:	02 00 00 00 76 87 11 00 	jal 461dd8 <__fillbf>
  401d58:	42 00 00 00 00 04 02 00 	addu $4,$0,$2
  401d60:	43 00 00 00 ff ff 02 00 	addiu $2,$0,-1
  401d68:	05 00 00 00 0c 00 02 04 	beq $4,$2,401da0 <pm_readbiglong+0x260>
  401d70:	28 00 00 00 00 00 03 11 	lw $3,0($17)
  401d78:	42 00 00 00 00 02 00 00 	addu $2,$0,$0
  401d80:	4f 00 00 00 ff 00 04 04 	andi $4,$4,255
  401d88:	50 00 00 00 00 03 04 03 	or $3,$3,$4
  401d90:	34 00 00 00 00 00 03 11 	sw $3,0($17)
  401d98:	01 00 00 00 6a 07 10 00 	j 401da8 <pm_readbiglong+0x268>
  401da0:	43 00 00 00 ff ff 02 00 	addiu $2,$0,-1
  401da8:	28 00 00 00 18 00 1f 1d 	lw $31,24($29)
  401db0:	28 00 00 00 14 00 11 1d 	lw $17,20($29)
  401db8:	28 00 00 00 10 00 10 1d 	lw $16,16($29)
  401dc0:	43 00 00 00 20 00 1d 1d 	addiu $29,$29,32
  401dc8:	03 00 00 00 00 00 00 1f 	jr $31

00401dd0 <pm_writebiglong>:
  401dd0:	43 00 00 00 e0 ff 1d 1d 	addiu $29,$29,-32
  401dd8:	34 00 00 00 10 00 10 1d 	sw $16,16($29)
  401de0:	42 00 00 00 00 10 04 00 	addu $16,$0,$4
  401de8:	34 00 00 00 18 00 1f 1d 	sw $31,24($29)
  401df0:	34 00 00 00 14 00 11 1d 	sw $17,20($29)
  401df8:	28 00 00 00 04 00 03 10 	lw $3,4($16)
  401e00:	28 00 00 00 0c 00 02 10 	lw $2,12($16)
  401e08:	42 00 00 00 00 11 05 00 	addu $17,$0,$5
  401e10:	5d 00 00 00 00 02 02 03 	sltu $2,$3,$2
  401e18:	05 00 00 00 0a 00 00 02 	beq $2,$0,401e48 <pm_writebiglong+0x78>
  401e20:	43 00 00 00 01 00 02 03 	addiu $2,$3,1
  401e28:	34 00 00 00 04 00 02 10 	sw $2,4($16)
  401e30:	59 00 00 00 18 02 11 00 	sra $2,$17,0x18
  401e38:	30 00 00 00 00 00 02 03 	sb $2,0($3)
  401e40:	01 00 00 00 98 07 10 00 	j 401e60 <pm_writebiglong+0x90>
  401e48:	42 00 00 00 00 04 10 00 	addu $4,$0,$16
  401e50:	57 00 00 00 18 05 11 00 	srl $5,$17,0x18
  401e58:	02 00 00 00 28 86 11 00 	jal 4618a0 <__flshfp>
  401e60:	28 00 00 00 04 00 03 10 	lw $3,4($16)
  401e68:	28 00 00 00 0c 00 02 10 	lw $2,12($16)
  401e70:	5d 00 00 00 00 02 02 03 	sltu $2,$3,$2
  401e78:	05 00 00 00 0a 00 00 02 	beq $2,$0,401ea8 <pm_writebiglong+0xd8>
  401e80:	43 00 00 00 01 00 02 03 	addiu $2,$3,1
  401e88:	34 00 00 00 04 00 02 10 	sw $2,4($16)
  401e90:	59 00 00 00 10 02 11 00 	sra $2,$17,0x10
  401e98:	30 00 00 00 00 00 02 03 	sb $2,0($3)
  401ea0:	01 00 00 00 b2 07 10 00 	j 401ec8 <pm_writebiglong+0xf8>
  401ea8:	42 00 00 00 00 04 10 00 	addu $4,$0,$16
  401eb0:	59 00 00 00 10 05 11 00 	sra $5,$17,0x10
  401eb8:	4f 00 00 00 ff 00 05 05 	andi $5,$5,255
  401ec0:	02 00 00 00 28 86 11 00 	jal 4618a0 <__flshfp>
  401ec8:	28 00 00 00 04 00 03 10 	lw $3,4($16)
  401ed0:	28 00 00 00 0c 00 02 10 	lw $2,12($16)
  401ed8:	5d 00 00 00 00 02 02 03 	sltu $2,$3,$2
  401ee0:	05 00 00 00 0a 00 00 02 	beq $2,$0,401f10 <pm_writebiglong+0x140>
  401ee8:	43 00 00 00 01 00 02 03 	addiu $2,$3,1
  401ef0:	34 00 00 00 04 00 02 10 	sw $2,4($16)
  401ef8:	59 00 00 00 08 02 11 00 	sra $2,$17,0x8
  401f00:	30 00 00 00 00 00 02 03 	sb $2,0($3)
  401f08:	01 00 00 00 cc 07 10 00 	j 401f30 <pm_writebiglong+0x160>
  401f10:	42 00 00 00 00 04 10 00 	addu $4,$0,$16
  401f18:	59 00 00 00 08 05 11 00 	sra $5,$17,0x8
  401f20:	4f 00 00 00 ff 00 05 05 	andi $5,$5,255
  401f28:	02 00 00 00 28 86 11 00 	jal 4618a0 <__flshfp>
  401f30:	28 00 00 00 04 00 03 10 	lw $3,4($16)
  401f38:	28 00 00 00 0c 00 02 10 	lw $2,12($16)
  401f40:	5d 00 00 00 00 02 02 03 	sltu $2,$3,$2
  401f48:	05 00 00 00 08 00 00 02 	beq $2,$0,401f70 <pm_writebiglong+0x1a0>
  401f50:	43 00 00 00 01 00 02 03 	addiu $2,$3,1
  401f58:	34 00 00 00 04 00 02 10 	sw $2,4($16)
  401f60:	30 00 00 00 00 00 11 03 	sb $17,0($3)
  401f68:	01 00 00 00 e2 07 10 00 	j 401f88 <pm_writebiglong+0x1b8>
  401f70:	42 00 00 00 00 04 10 00 	addu $4,$0,$16
  401f78:	4f 00 00 00 ff 00 05 11 	andi $5,$17,255
  401f80:	02 00 00 00 28 86 11 00 	jal 4618a0 <__flshfp>
  401f88:	42 00 00 00 00 02 00 00 	addu $2,$0,$0
  401f90:	28 00 00 00 18 00 1f 1d 	lw $31,24($29)
  401f98:	28 00 00 00 14 00 11 1d 	lw $17,20($29)
  401fa0:	28 00 00 00 10 00 10 1d 	lw $16,16($29)
  401fa8:	43 00 00 00 20 00 1d 1d 	addiu $29,$29,32
  401fb0:	03 00 00 00 00 00 00 1f 	jr $31

00401fb8 <pm_readlittleshort>:
  401fb8:	43 00 00 00 e0 ff 1d 1d 	addiu $29,$29,-32
  401fc0:	34 00 00 00 10 00 10 1d 	sw $16,16($29)
  401fc8:	42 00 00 00 00 10 04 00 	addu $16,$0,$4
  401fd0:	34 00 00 00 18 00 1f 1d 	sw $31,24($29)
  401fd8:	34 00 00 00 14 00 11 1d 	sw $17,20($29)
  401fe0:	28 00 00 00 04 00 03 10 	lw $3,4($16)
  401fe8:	28 00 00 00 08 00 02 10 	lw $2,8($16)
  401ff0:	42 00 00 00 00 11 05 00 	addu $17,$0,$5
  401ff8:	5d 00 00 00 00 02 02 03 	sltu $2,$3,$2
  402000:	05 00 00 00 08 00 00 02 	beq $2,$0,402028 <pm_readlittleshort+0x70>
  402008:	43 00 00 00 01 00 02 03 	addiu $2,$3,1
  402010:	34 00 00 00 04 00 02 10 	sw $2,4($16)
  402018:	22 00 00 00 00 00 03 03 	lbu $3,0($3)
  402020:	01 00 00 00 10 08 10 00 	j 402040 <pm_readlittleshort+0x88>
  402028:	42 00 00 00 00 04 10 00 	addu $4,$0,$16
  402030:	02 00 00 00 76 87 11 00 	jal 461dd8 <__fillbf>
  402038:	42 00 00 00 00 03 02 00 	addu $3,$0,$2
  402040:	43 00 00 00 ff ff 02 00 	addiu $2,$0,-1
  402048:	05 00 00 00 2e 00 02 03 	beq $3,$2,402108 <pm_readlittleshort+0x150>
  402050:	4f 00 00 00 ff 00 02 03 	andi $2,$3,255
  402058:	32 00 00 00 00 00 02 11 	sh $2,0($17)
  402060:	28 00 00 00 04 00 03 10 	lw $3,4($16)
  402068:	28 00 00 00 08 00 02 10 	lw $2,8($16)
  402070:	5d 00 00 00 00 02 02 03 	sltu $2,$3,$2
  402078:	05 00 00 00 08 00 00 02 	beq $2,$0,4020a0 <pm_readlittleshort+0xe8>
  402080:	43 00 00 00 01 00 02 03 	addiu $2,$3,1
  402088:	34 00 00 00 04 00 02 10 	sw $2,4($16)
  402090:	22 00 00 00 00 00 03 03 	lbu $3,0($3)
  402098:	01 00 00 00 2e 08 10 00 	j 4020b8 <pm_readlittleshort+0x100>
  4020a0:	42 00 00 00 00 04 10 00 	addu $4,$0,$16
  4020a8:	02 00 00 00 76 87 11 00 	jal 461dd8 <__fillbf>
  4020b0:	42 00 00 00 00 03 02 00 	addu $3,$0,$2
  4020b8:	43 00 00 00 ff ff 02 00 	addiu $2,$0,-1
  4020c0:	05 00 00 00 0e 00 02 03 	beq $3,$2,402100 <pm_readlittleshort+0x148>
  4020c8:	42 00 00 00 00 02 00 00 	addu $2,$0,$0
  4020d0:	26 00 00 00 00 00 04 11 	lhu $4,0($17)
  4020d8:	4f 00 00 00 ff 00 03 03 	andi $3,$3,255
  4020e0:	55 00 00 00 08 03 03 00 	sll $3,$3,0x8
  4020e8:	50 00 00 00 00 04 03 04 	or $4,$4,$3
  4020f0:	32 00 00 00 00 00 04 11 	sh $4,0($17)
  4020f8:	01 00 00 00 42 08 10 00 	j 402108 <pm_readlittleshort+0x150>
  402100:	43 00 00 00 ff ff 02 00 	addiu $2,$0,-1
  402108:	28 00 00 00 18 00 1f 1d 	lw $31,24($29)
  402110:	28 00 00 00 14 00 11 1d 	lw $17,20($29)
  402118:	28 00 00 00 10 00 10 1d 	lw $16,16($29)
  402120:	43 00 00 00 20 00 1d 1d 	addiu $29,$29,32
  402128:	03 00 00 00 00 00 00 1f 	jr $31

00402130 <pm_writelittleshort>:
  402130:	43 00 00 00 e0 ff 1d 1d 	addiu $29,$29,-32
  402138:	34 00 00 00 10 00 10 1d 	sw $16,16($29)
  402140:	42 00 00 00 00 10 04 00 	addu $16,$0,$4
  402148:	34 00 00 00 18 00 1f 1d 	sw $31,24($29)
  402150:	34 00 00 00 14 00 11 1d 	sw $17,20($29)
  402158:	28 00 00 00 04 00 03 10 	lw $3,4($16)
  402160:	28 00 00 00 0c 00 02 10 	lw $2,12($16)
  402168:	42 00 00 00 00 11 05 00 	addu $17,$0,$5
  402170:	5d 00 00 00 00 02 02 03 	sltu $2,$3,$2
  402178:	05 00 00 00 08 00 00 02 	beq $2,$0,4021a0 <pm_writelittleshort+0x70>
  402180:	43 00 00 00 01 00 02 03 	addiu $2,$3,1
  402188:	34 00 00 00 04 00 02 10 	sw $2,4($16)
  402190:	30 00 00 00 00 00 11 03 	sb $17,0($3)
  402198:	01 00 00 00 6e 08 10 00 	j 4021b8 <pm_writelittleshort+0x88>
  4021a0:	42 00 00 00 00 04 10 00 	addu $4,$0,$16
  4021a8:	4f 00 00 00 ff 00 05 11 	andi $5,$17,255
  4021b0:	02 00 00 00 28 86 11 00 	jal 4618a0 <__flshfp>
  4021b8:	28 00 00 00 04 00 04 10 	lw $4,4($16)
  4021c0:	28 00 00 00 0c 00 02 10 	lw $2,12($16)
  4021c8:	5d 00 00 00 00 02 02 04 	sltu $2,$4,$2
  4021d0:	05 00 00 00 0a 00 00 02 	beq $2,$0,402200 <pm_writelittleshort+0xd0>
  4021d8:	57 00 00 00 08 03 11 00 	srl $3,$17,0x8
  4021e0:	43 00 00 00 01 00 02 04 	addiu $2,$4,1
  4021e8:	34 00 00 00 04 00 02 10 	sw $2,4($16)
  4021f0:	30 00 00 00 00 00 03 04 	sb $3,0($4)
  4021f8:	01 00 00 00 88 08 10 00 	j 402220 <pm_writelittleshort+0xf0>
  402200:	57 00 00 00 08 05 11 00 	srl $5,$17,0x8
  402208:	42 00 00 00 00 04 10 00 	addu $4,$0,$16
  402210:	4f 00 00 00 ff 00 05 05 	andi $5,$5,255
  402218:	02 00 00 00 28 86 11 00 	jal 4618a0 <__flshfp>
  402220:	42 00 00 00 00 02 00 00 	addu $2,$0,$0
  402228:	28 00 00 00 18 00 1f 1d 	lw $31,24($29)
  402230:	28 00 00 00 14 00 11 1d 	lw $17,20($29)
  402238:	28 00 00 00 10 00 10 1d 	lw $16,16($29)
  402240:	43 00 00 00 20 00 1d 1d 	addiu $29,$29,32
  402248:	03 00 00 00 00 00 00 1f 	jr $31

00402250 <pm_readlittlelong>:
  402250:	43 00 00 00 e0 ff 1d 1d 	addiu $29,$29,-32
  402258:	34 00 00 00 10 00 10 1d 	sw $16,16($29)
  402260:	42 00 00 00 00 10 04 00 	addu $16,$0,$4
  402268:	34 00 00 00 18 00 1f 1d 	sw $31,24($29)
  402270:	34 00 00 00 14 00 11 1d 	sw $17,20($29)
  402278:	28 00 00 00 04 00 03 10 	lw $3,4($16)
  402280:	28 00 00 00 08 00 02 10 	lw $2,8($16)
  402288:	42 00 00 00 00 11 05 00 	addu $17,$0,$5
  402290:	5d 00 00 00 00 02 02 03 	sltu $2,$3,$2
  402298:	05 00 00 00 08 00 00 02 	beq $2,$0,4022c0 <pm_readlittlelong+0x70>
  4022a0:	43 00 00 00 01 00 02 03 	addiu $2,$3,1
  4022a8:	34 00 00 00 04 00 02 10 	sw $2,4($16)
  4022b0:	22 00 00 00 00 00 04 03 	lbu $4,0($3)
  4022b8:	01 00 00 00 b6 08 10 00 	j 4022d8 <pm_readlittlelong+0x88>
  4022c0:	42 00 00 00 00 04 10 00 	addu $4,$0,$16
  4022c8:	02 00 00 00 76 87 11 00 	jal 461dd8 <__fillbf>
  4022d0:	42 00 00 00 00 04 02 00 	addu $4,$0,$2
  4022d8:	43 00 00 00 ff ff 02 00 	addiu $2,$0,-1
  4022e0:	05 00 00 00 74 00 02 04 	beq $4,$2,4024b8 <pm_readlittlelong+0x268>
  4022e8:	4f 00 00 00 ff 00 02 04 	andi $2,$4,255
  4022f0:	34 00 00 00 00 00 02 11 	sw $2,0($17)
  4022f8:	28 00 00 00 04 00 03 10 	lw $3,4($16)
  402300:	28 00 00 00 08 00 02 10 	lw $2,8($16)
  402308:	5d 00 00 00 00 02 02 03 	sltu $2,$3,$2
  402310:	05 00 00 00 08 00 00 02 	beq $2,$0,402338 <pm_readlittlelong+0xe8>
  402318:	43 00 00 00 01 00 02 03 	addiu $2,$3,1
  402320:	34 00 00 00 04 00 02 10 	sw $2,4($16)
  402328:	22 00 00 00 00 00 04 03 	lbu $4,0($3)
  402330:	01 00 00 00 d4 08 10 00 	j 402350 <pm_readlittlelong+0x100>
  402338:	42 00 00 00 00 04 10 00 	addu $4,$0,$16
  402340:	02 00 00 00 76 87 11 00 	jal 461dd8 <__fillbf>
  402348:	42 00 00 00 00 04 02 00 	addu $4,$0,$2
  402350:	43 00 00 00 ff ff 02 00 	addiu $2,$0,-1
  402358:	05 00 00 00 56 00 02 04 	beq $4,$2,4024b8 <pm_readlittlelong+0x268>
  402360:	28 00 00 00 00 00 02 11 	lw $2,0($17)
  402368:	4f 00 00 00 ff 00 03 04 	andi $3,$4,255
  402370:	55 00 00 00 08 03 03 00 	sll $3,$3,0x8
  402378:	50 00 00 00 00 02 03 02 	or $2,$2,$3
  402380:	34 00 00 00 00 00 02 11 	sw $2,0($17)
  402388:	28 00 00 00 04 00 03 10 	lw $3,4($16)
  402390:	28 00 00 00 08 00 02 10 	lw $2,8($16)
  402398:	5d 00 00 00 00 02 02 03 	sltu $2,$3,$2
  4023a0:	05 00 00 00 08 00 00 02 	beq $2,$0,4023c8 <pm_readlittlelong+0x178>
  4023a8:	43 00 00 00 01 00 02 03 	addiu $2,$3,1
  4023b0:	34 00 00 00 04 00 02 10 	sw $2,4($16)
  4023b8:	22 00 00 00 00 00 04 03 	lbu $4,0($3)
  4023c0:	01 00 00 00 f8 08 10 00 	j 4023e0 <pm_readlittlelong+0x190>
  4023c8:	42 00 00 00 00 04 10 00 	addu $4,$0,$16
  4023d0:	02 00 00 00 76 87 11 00 	jal 461dd8 <__fillbf>
  4023d8:	42 00 00 00 00 04 02 00 	addu $4,$0,$2
  4023e0:	43 00 00 00 ff ff 02 00 	addiu $2,$0,-1
  4023e8:	05 00 00 00 32 00 02 04 	beq $4,$2,4024b8 <pm_readlittlelong+0x268>
  4023f0:	28 00 00 00 00 00 02 11 	lw $2,0($17)
  4023f8:	4f 00 00 00 ff 00 03 04 	andi $3,$4,255
  402400:	55 00 00 00 10 03 03 00 	sll $3,$3,0x10
  402408:	50 00 00 00 00 02 03 02 	or $2,$2,$3
  402410:	34 00 00 00 00 00 02 11 	sw $2,0($17)
  402418:	28 00 00 00 04 00 03 10 	lw $3,4($16)
  402420:	28 00 00 00 08 00 02 10 	lw $2,8($16)
  402428:	5d 00 00 00 00 02 02 03 	sltu $2,$3,$2
  402430:	05 00 00 00 08 00 00 02 	beq $2,$0,402458 <pm_readlittlelong+0x208>
  402438:	43 00 00 00 01 00 02 03 	addiu $2,$3,1
  402440:	34 00 00 00 04 00 02 10 	sw $2,4($16)
  402448:	22 00 00 00 00 00 04 03 	lbu $4,0($3)
  402450:	01 00 00 00 1c 09 10 00 	j 402470 <pm_readlittlelong+0x220>
  402458:	42 00 00 00 00 04 10 00 	addu $4,$0,$16
  402460:	02 00 00 00 76 87 11 00 	jal 461dd8 <__fillbf>
  402468:	42 00 00 00 00 04 02 00 	addu $4,$0,$2
  402470:	43 00 00 00 ff ff 02 00 	addiu $2,$0,-1
  402478:	05 00 00 00 0c 00 02 04 	beq $4,$2,4024b0 <pm_readlittlelong+0x260>
  402480:	28 00 00 00 00 00 03 11 	lw $3,0($17)
  402488:	42 00 00 00 00 02 00 00 	addu $2,$0,$0
  402490:	55 00 00 00 18 04 04 00 	sll $4,$4,0x18
  402498:	50 00 00 00 00 03 04 03 	or $3,$3,$4
  4024a0:	34 00 00 00 00 00 03 11 	sw $3,0($17)
  4024a8:	01 00 00 00 2e 09 10 00 	j 4024b8 <pm_readlittlelong+0x268>
  4024b0:	43 00 00 00 ff ff 02 00 	addiu $2,$0,-1
  4024b8:	28 00 00 00 18 00 1f 1d 	lw $31,24($29)
  4024c0:	28 00 00 00 14 00 11 1d 	lw $17,20($29)
  4024c8:	28 00 00 00 10 00 10 1d 	lw $16,16($29)
  4024d0:	43 00 00 00 20 00 1d 1d 	addiu $29,$29,32
  4024d8:	03 00 00 00 00 00 00 1f 	jr $31

004024e0 <pm_writelittlelong>:
  4024e0:	43 00 00 00 e0 ff 1d 1d 	addiu $29,$29,-32
  4024e8:	34 00 00 00 10 00 10 1d 	sw $16,16($29)
  4024f0:	42 00 00 00 00 10 04 00 	addu $16,$0,$4
  4024f8:	34 00 00 00 18 00 1f 1d 	sw $31,24($29)
  402500:	34 00 00 00 14 00 11 1d 	sw $17,20($29)
  402508:	28 00 00 00 04 00 03 10 	lw $3,4($16)
  402510:	28 00 00 00 0c 00 02 10 	lw $2,12($16)
  402518:	42 00 00 00 00 11 05 00 	addu $17,$0,$5
  402520:	5d 00 00 00 00 02 02 03 	sltu $2,$3,$2
  402528:	05 00 00 00 08 00 00 02 	beq $2,$0,402550 <pm_writelittlelong+0x70>
  402530:	43 00 00 00 01 00 02 03 	addiu $2,$3,1
  402538:	34 00 00 00 04 00 02 10 	sw $2,4($16)
  402540:	30 00 00 00 00 00 11 03 	sb $17,0($3)
  402548:	01 00 00 00 5a 09 10 00 	j 402568 <pm_writelittlelong+0x88>
  402550:	42 00 00 00 00 04 10 00 	addu $4,$0,$16
  402558:	4f 00 00 00 ff 00 05 11 	andi $5,$17,255
  402560:	02 00 00 00 28 86 11 00 	jal 4618a0 <__flshfp>
  402568:	28 00 00 00 04 00 03 10 	lw $3,4($16)
  402570:	28 00 00 00 0c 00 02 10 	lw $2,12($16)
  402578:	5d 00 00 00 00 02 02 03 	sltu $2,$3,$2
  402580:	05 00 00 00 0a 00 00 02 	beq $2,$0,4025b0 <pm_writelittlelong+0xd0>
  402588:	43 00 00 00 01 00 02 03 	addiu $2,$3,1
  402590:	34 00 00 00 04 00 02 10 	sw $2,4($16)
  402598:	59 00 00 00 08 02 11 00 	sra $2,$17,0x8
  4025a0:	30 00 00 00 00 00 02 03 	sb $2,0($3)
  4025a8:	01 00 00 00 74 09 10 00 	j 4025d0 <pm_writelittlelong+0xf0>
  4025b0:	42 00 00 00 00 04 10 00 	addu $4,$0,$16
  4025b8:	59 00 00 00 08 05 11 00 	sra $5,$17,0x8
  4025c0:	4f 00 00 00 ff 00 05 05 	andi $5,$5,255
  4025c8:	02 00 00 00 28 86 11 00 	jal 4618a0 <__flshfp>
  4025d0:	28 00 00 00 04 00 03 10 	lw $3,4($16)
  4025d8:	28 00 00 00 0c 00 02 10 	lw $2,12($16)
  4025e0:	5d 00 00 00 00 02 02 03 	sltu $2,$3,$2
  4025e8:	05 00 00 00 0a 00 00 02 	beq $2,$0,402618 <pm_writelittlelong+0x138>
  4025f0:	43 00 00 00 01 00 02 03 	addiu $2,$3,1
  4025f8:	34 00 00 00 04 00 02 10 	sw $2,4($16)
  402600:	59 00 00 00 10 02 11 00 	sra $2,$17,0x10
  402608:	30 00 00 00 00 00 02 03 	sb $2,0($3)
  402610:	01 00 00 00 8e 09 10 00 	j 402638 <pm_writelittlelong+0x158>
  402618:	42 00 00 00 00 04 10 00 	addu $4,$0,$16
  402620:	59 00 00 00 10 05 11 00 	sra $5,$17,0x10
  402628:	4f 00 00 00 ff 00 05 05 	andi $5,$5,255
  402630:	02 00 00 00 28 86 11 00 	jal 4618a0 <__flshfp>
  402638:	28 00 00 00 04 00 03 10 	lw $3,4($16)
  402640:	28 00 00 00 0c 00 02 10 	lw $2,12($16)
  402648:	5d 00 00 00 00 02 02 03 	sltu $2,$3,$2
  402650:	05 00 00 00 0a 00 00 02 	beq $2,$0,402680 <pm_writelittlelong+0x1a0>
  402658:	43 00 00 00 01 00 02 03 	addiu $2,$3,1
  402660:	34 00 00 00 04 00 02 10 	sw $2,4($16)
  402668:	59 00 00 00 18 02 11 00 	sra $2,$17,0x18
  402670:	30 00 00 00 00 00 02 03 	sb $2,0($3)
  402678:	01 00 00 00 a6 09 10 00 	j 402698 <pm_writelittlelong+0x1b8>
  402680:	42 00 00 00 00 04 10 00 	addu $4,$0,$16
  402688:	57 00 00 00 18 05 11 00 	srl $5,$17,0x18
  402690:	02 00 00 00 28 86 11 00 	jal 4618a0 <__flshfp>
  402698:	42 00 00 00 00 02 00 00 	addu $2,$0,$0
  4026a0:	28 00 00 00 18 00 1f 1d 	lw $31,24($29)
  4026a8:	28 00 00 00 14 00 11 1d 	lw $17,20($29)
  4026b0:	28 00 00 00 10 00 10 1d 	lw $16,16($29)
  4026b8:	43 00 00 00 20 00 1d 1d 	addiu $29,$29,32
  4026c0:	03 00 00 00 00 00 00 1f 	jr $31
	...

004026d0 <pbm_readmagicnumber>:
  4026d0:	43 00 00 00 e0 ff 1d 1d 	addiu $29,$29,-32
  4026d8:	34 00 00 00 10 00 10 1d 	sw $16,16($29)
  4026e0:	42 00 00 00 00 10 04 00 	addu $16,$0,$4
  4026e8:	34 00 00 00 18 00 1f 1d 	sw $31,24($29)
  4026f0:	34 00 00 00 14 00 11 1d 	sw $17,20($29)
  4026f8:	28 00 00 00 04 00 03 10 	lw $3,4($16)
  402700:	28 00 00 00 08 00 02 10 	lw $2,8($16)
  402708:	5d 00 00 00 00 02 02 03 	sltu $2,$3,$2
  402710:	05 00 00 00 08 00 00 02 	beq $2,$0,402738 <pbm_readmagicnumber+0x68>
  402718:	43 00 00 00 01 00 02 03 	addiu $2,$3,1
  402720:	34 00 00 00 04 00 02 10 	sw $2,4($16)
  402728:	22 00 00 00 00 00 11 03 	lbu $17,0($3)
  402730:	01 00 00 00 d4 09 10 00 	j 402750 <pbm_readmagicnumber+0x80>
  402738:	42 00 00 00 00 04 10 00 	addu $4,$0,$16
  402740:	02 00 00 00 76 87 11 00 	jal 461dd8 <__fillbf>
  402748:	42 00 00 00 00 11 02 00 	addu $17,$0,$2
  402750:	43 00 00 00 ff ff 02 00 	addiu $2,$0,-1
  402758:	06 00 00 00 06 00 02 11 	bne $17,$2,402778 <pbm_readmagicnumber+0xa8>
  402760:	a2 00 00 00 00 10 04 00 	lui $4,4096
  402768:	43 00 00 00 04 01 04 04 	addiu $4,$4,260
  402770:	02 00 00 00 30 05 10 00 	jal 4014c0 <pm_error>
  402778:	28 00 00 00 04 00 03 10 	lw $3,4($16)
  402780:	28 00 00 00 08 00 02 10 	lw $2,8($16)
  402788:	5d 00 00 00 00 02 02 03 	sltu $2,$3,$2
  402790:	05 00 00 00 08 00 00 02 	beq $2,$0,4027b8 <pbm_readmagicnumber+0xe8>
  402798:	43 00 00 00 01 00 02 03 	addiu $2,$3,1
  4027a0:	34 00 00 00 04 00 02 10 	sw $2,4($16)
  4027a8:	22 00 00 00 00 00 10 03 	lbu $16,0($3)
  4027b0:	01 00 00 00 f4 09 10 00 	j 4027d0 <pbm_readmagicnumber+0x100>
  4027b8:	42 00 00 00 00 04 10 00 	addu $4,$0,$16
  4027c0:	02 00 00 00 76 87 11 00 	jal 461dd8 <__fillbf>
  4027c8:	42 00 00 00 00 10 02 00 	addu $16,$0,$2
  4027d0:	43 00 00 00 ff ff 02 00 	addiu $2,$0,-1
  4027d8:	06 00 00 00 06 00 02 10 	bne $16,$2,4027f8 <pbm_readmagicnumber+0x128>
  4027e0:	a2 00 00 00 00 10 04 00 	lui $4,4096
  4027e8:	43 00 00 00 04 01 04 04 	addiu $4,$4,260
  4027f0:	02 00 00 00 30 05 10 00 	jal 4014c0 <pm_error>
  4027f8:	55 00 00 00 08 02 11 00 	sll $2,$17,0x8
  402800:	42 00 00 00 00 02 10 02 	addu $2,$2,$16
  402808:	28 00 00 00 18 00 1f 1d 	lw $31,24($29)
  402810:	28 00 00 00 14 00 11 1d 	lw $17,20($29)
  402818:	28 00 00 00 10 00 10 1d 	lw $16,16($29)
  402820:	43 00 00 00 20 00 1d 1d 	addiu $29,$29,32
  402828:	03 00 00 00 00 00 00 1f 	jr $31

00402830 <pbm_readpbminitrest>:
  402830:	43 00 00 00 e0 ff 1d 1d 	addiu $29,$29,-32
  402838:	34 00 00 00 10 00 10 1d 	sw $16,16($29)
  402840:	42 00 00 00 00 10 04 00 	addu $16,$0,$4
  402848:	34 00 00 00 14 00 11 1d 	sw $17,20($29)
  402850:	42 00 00 00 00 11 05 00 	addu $17,$0,$5
  402858:	34 00 00 00 18 00 12 1d 	sw $18,24($29)
  402860:	42 00 00 00 00 12 06 00 	addu $18,$0,$6
  402868:	34 00 00 00 1c 00 1f 1d 	sw $31,28($29)
  402870:	02 00 00 00 ca 11 10 00 	jal 404728 <pbm_getint>
  402878:	42 00 00 00 00 04 10 00 	addu $4,$0,$16
  402880:	34 00 00 00 00 00 02 11 	sw $2,0($17)
  402888:	02 00 00 00 ca 11 10 00 	jal 404728 <pbm_getint>
  402890:	34 00 00 00 00 00 02 12 	sw $2,0($18)
  402898:	28 00 00 00 1c 00 1f 1d 	lw $31,28($29)
  4028a0:	28 00 00 00 18 00 12 1d 	lw $18,24($29)
  4028a8:	28 00 00 00 14 00 11 1d 	lw $17,20($29)
  4028b0:	28 00 00 00 10 00 10 1d 	lw $16,16($29)
  4028b8:	43 00 00 00 20 00 1d 1d 	addiu $29,$29,32
  4028c0:	03 00 00 00 00 00 00 1f 	jr $31

004028c8 <pbm_readpbminit>:
  4028c8:	43 00 00 00 d0 ff 1d 1d 	addiu $29,$29,-48
  4028d0:	34 00 00 00 14 00 11 1d 	sw $17,20($29)
  4028d8:	42 00 00 00 00 11 04 00 	addu $17,$0,$4
  4028e0:	34 00 00 00 20 00 14 1d 	sw $20,32($29)
  4028e8:	42 00 00 00 00 14 05 00 	addu $20,$0,$5
  4028f0:	34 00 00 00 28 00 1f 1d 	sw $31,40($29)
  4028f8:	34 00 00 00 24 00 15 1d 	sw $21,36($29)
  402900:	34 00 00 00 1c 00 13 1d 	sw $19,28($29)
  402908:	34 00 00 00 18 00 12 1d 	sw $18,24($29)
  402910:	34 00 00 00 10 00 10 1d 	sw $16,16($29)
  402918:	28 00 00 00 04 00 03 11 	lw $3,4($17)
  402920:	28 00 00 00 08 00 02 11 	lw $2,8($17)
  402928:	42 00 00 00 00 15 06 00 	addu $21,$0,$6
  402930:	42 00 00 00 00 13 07 00 	addu $19,$0,$7
  402938:	5d 00 00 00 00 02 02 03 	sltu $2,$3,$2
  402940:	05 00 00 00 08 00 00 02 	beq $2,$0,402968 <pbm_readpbminit+0xa0>
  402948:	43 00 00 00 01 00 02 03 	addiu $2,$3,1
  402950:	34 00 00 00 04 00 02 11 	sw $2,4($17)
  402958:	22 00 00 00 00 00 12 03 	lbu $18,0($3)
  402960:	01 00 00 00 60 0a 10 00 	j 402980 <pbm_readpbminit+0xb8>
  402968:	42 00 00 00 00 04 11 00 	addu $4,$0,$17
  402970:	02 00 00 00 76 87 11 00 	jal 461dd8 <__fillbf>
  402978:	42 00 00 00 00 12 02 00 	addu $18,$0,$2
  402980:	43 00 00 00 ff ff 02 00 	addiu $2,$0,-1
  402988:	06 00 00 00 06 00 02 12 	bne $18,$2,4029a8 <pbm_readpbminit+0xe0>
  402990:	a2 00 00 00 00 10 04 00 	lui $4,4096
  402998:	43 00 00 00 04 01 04 04 	addiu $4,$4,260
  4029a0:	02 00 00 00 30 05 10 00 	jal 4014c0 <pm_error>
  4029a8:	28 00 00 00 04 00 03 11 	lw $3,4($17)
  4029b0:	28 00 00 00 08 00 02 11 	lw $2,8($17)
  4029b8:	5d 00 00 00 00 02 02 03 	sltu $2,$3,$2
  4029c0:	05 00 00 00 08 00 00 02 	beq $2,$0,4029e8 <pbm_readpbminit+0x120>
  4029c8:	43 00 00 00 01 00 02 03 	addiu $2,$3,1
  4029d0:	34 00 00 00 04 00 02 11 	sw $2,4($17)
  4029d8:	22 00 00 00 00 00 10 03 	lbu $16,0($3)
  4029e0:	01 00 00 00 80 0a 10 00 	j 402a00 <pbm_readpbminit+0x138>
  4029e8:	42 00 00 00 00 04 11 00 	addu $4,$0,$17
  4029f0:	02 00 00 00 76 87 11 00 	jal 461dd8 <__fillbf>
  4029f8:	42 00 00 00 00 10 02 00 	addu $16,$0,$2
  402a00:	43 00 00 00 ff ff 02 00 	addiu $2,$0,-1
  402a08:	06 00 00 00 06 00 02 10 	bne $16,$2,402a28 <pbm_readpbminit+0x160>
  402a10:	a2 00 00 00 00 10 04 00 	lui $4,4096
  402a18:	43 00 00 00 04 01 04 04 	addiu $4,$4,260
  402a20:	02 00 00 00 30 05 10 00 	jal 4014c0 <pm_error>
  402a28:	55 00 00 00 08 02 12 00 	sll $2,$18,0x8
  402a30:	42 00 00 00 00 03 10 02 	addu $3,$2,$16
  402a38:	34 00 00 00 00 00 03 13 	sw $3,0($19)
  402a40:	43 00 00 00 31 50 02 00 	addiu $2,$0,20529
  402a48:	05 00 00 00 04 00 02 03 	beq $3,$2,402a60 <pbm_readpbminit+0x198>
  402a50:	43 00 00 00 34 50 02 00 	addiu $2,$0,20532
  402a58:	06 00 00 00 04 00 02 03 	bne $3,$2,402a70 <pbm_readpbminit+0x1a8>
  402a60:	43 00 00 00 31 50 03 00 	addiu $3,$0,20529
  402a68:	01 00 00 00 9e 0a 10 00 	j 402a78 <pbm_readpbminit+0x1b0>
  402a70:	43 00 00 00 ff ff 03 00 	addiu $3,$0,-1
  402a78:	43 00 00 00 31 50 02 00 	addiu $2,$0,20529
  402a80:	06 00 00 00 0e 00 02 03 	bne $3,$2,402ac0 <pbm_readpbminit+0x1f8>
  402a88:	42 00 00 00 00 04 11 00 	addu $4,$0,$17
  402a90:	02 00 00 00 ca 11 10 00 	jal 404728 <pbm_getint>
  402a98:	42 00 00 00 00 04 11 00 	addu $4,$0,$17
  402aa0:	34 00 00 00 00 00 02 14 	sw $2,0($20)
  402aa8:	02 00 00 00 ca 11 10 00 	jal 404728 <pbm_getint>
  402ab0:	34 00 00 00 00 00 02 15 	sw $2,0($21)
  402ab8:	01 00 00 00 b6 0a 10 00 	j 402ad8 <pbm_readpbminit+0x210>
  402ac0:	a2 00 00 00 00 10 04 00 	lui $4,4096
  402ac8:	43 00 00 00 2c 01 04 04 	addiu $4,$4,300
  402ad0:	02 00 00 00 30 05 10 00 	jal 4014c0 <pm_error>
  402ad8:	28 00 00 00 28 00 1f 1d 	lw $31,40($29)
  402ae0:	28 00 00 00 24 00 15 1d 	lw $21,36($29)
  402ae8:	28 00 00 00 20 00 14 1d 	lw $20,32($29)
  402af0:	28 00 00 00 1c 00 13 1d 	lw $19,28($29)
  402af8:	28 00 00 00 18 00 12 1d 	lw $18,24($29)
  402b00:	28 00 00 00 14 00 11 1d 	lw $17,20($29)
  402b08:	28 00 00 00 10 00 10 1d 	lw $16,16($29)
  402b10:	43 00 00 00 30 00 1d 1d 	addiu $29,$29,48
  402b18:	03 00 00 00 00 00 00 1f 	jr $31

00402b20 <pbm_readpbmrow>:
  402b20:	43 00 00 00 a8 ff 1d 1d 	addiu $29,$29,-88
  402b28:	34 00 00 00 3c 00 13 1d 	sw $19,60($29)
  402b30:	42 00 00 00 00 13 04 00 	addu $19,$0,$4
  402b38:	34 00 00 00 44 00 15 1d 	sw $21,68($29)
  402b40:	42 00 00 00 00 15 06 00 	addu $21,$0,$6
  402b48:	43 00 00 00 31 50 02 00 	addiu $2,$0,20529
  402b50:	34 00 00 00 54 00 1f 1d 	sw $31,84($29)
  402b58:	34 00 00 00 50 00 1e 1d 	sw $30,80($29)
  402b60:	34 00 00 00 4c 00 17 1d 	sw $23,76($29)
  402b68:	34 00 00 00 48 00 16 1d 	sw $22,72($29)
  402b70:	34 00 00 00 40 00 14 1d 	sw $20,64($29)
  402b78:	34 00 00 00 38 00 12 1d 	sw $18,56($29)
  402b80:	34 00 00 00 34 00 11 1d 	sw $17,52($29)
  402b88:	34 00 00 00 30 00 10 1d 	sw $16,48($29)
  402b90:	05 00 00 00 06 00 02 07 	beq $7,$2,402bb0 <pbm_readpbmrow+0x90>
  402b98:	43 00 00 00 34 50 02 00 	addiu $2,$0,20532
  402ba0:	05 00 00 00 a2 00 02 07 	beq $7,$2,402e30 <pbm_readpbmrow+0x310>
  402ba8:	01 00 00 00 40 0c 10 00 	j 403100 <pbm_readpbmrow+0x5e0>
  402bb0:	42 00 00 00 00 11 05 00 	addu $17,$0,$5
  402bb8:	42 00 00 00 00 12 00 00 	addu $18,$0,$0
  402bc0:	07 00 00 00 54 01 00 15 	blez $21,403118 <pbm_readpbmrow+0x5f8>
  402bc8:	43 00 00 00 20 00 17 00 	addiu $23,$0,32
  402bd0:	43 00 00 00 0d 00 16 00 	addiu $22,$0,13
  402bd8:	4f 00 00 00 01 00 02 15 	andi $2,$21,1
  402be0:	05 00 00 00 32 00 00 02 	beq $2,$0,402cb0 <pbm_readpbmrow+0x190>
  402be8:	42 00 00 00 00 04 13 00 	addu $4,$0,$19
  402bf0:	02 00 00 00 20 11 10 00 	jal 404480 <pbm_getc>
  402bf8:	42 00 00 00 00 03 02 00 	addu $3,$0,$2
  402c00:	55 00 00 00 18 02 03 00 	sll $2,$3,0x18
  402c08:	59 00 00 00 18 10 02 00 	sra $16,$2,0x18
  402c10:	05 00 00 00 f4 ff 17 10 	beq $16,$23,402be8 <pbm_readpbmrow+0xc8>
  402c18:	43 00 00 00 f7 ff 02 03 	addiu $2,$3,-9
  402c20:	4f 00 00 00 ff 00 02 02 	andi $2,$2,255
  402c28:	5e 00 00 00 02 00 02 02 	sltiu $2,$2,2
  402c30:	06 00 00 00 ec ff 00 02 	bne $2,$0,402be8 <pbm_readpbmrow+0xc8>
  402c38:	05 00 00 00 ea ff 16 10 	beq $16,$22,402be8 <pbm_readpbmrow+0xc8>
  402c40:	43 00 00 00 d0 ff 02 03 	addiu $2,$3,-48
  402c48:	4f 00 00 00 ff 00 02 02 	andi $2,$2,255
  402c50:	5e 00 00 00 02 00 02 02 	sltiu $2,$2,2
  402c58:	06 00 00 00 06 00 00 02 	bne $2,$0,402c78 <pbm_readpbmrow+0x158>
  402c60:	a2 00 00 00 00 10 04 00 	lui $4,4096
  402c68:	43 00 00 00 e0 00 04 04 	addiu $4,$4,224
  402c70:	02 00 00 00 30 05 10 00 	jal 4014c0 <pm_error>
  402c78:	53 00 00 00 31 00 02 10 	xori $2,$16,49
  402c80:	5e 00 00 00 01 00 02 02 	sltiu $2,$2,1
  402c88:	30 00 00 00 00 00 02 11 	sb $2,0($17)
  402c90:	43 00 00 00 01 00 12 12 	addiu $18,$18,1
  402c98:	43 00 00 00 01 00 11 11 	addiu $17,$17,1
  402ca0:	5b 00 00 00 00 02 15 12 	slt $2,$18,$21
  402ca8:	05 00 00 00 1a 01 00 02 	beq $2,$0,403118 <pbm_readpbmrow+0x5f8>
  402cb0:	42 00 00 00 00 04 13 00 	addu $4,$0,$19
  402cb8:	02 00 00 00 20 11 10 00 	jal 404480 <pbm_getc>
  402cc0:	42 00 00 00 00 03 02 00 	addu $3,$0,$2
  402cc8:	55 00 00 00 18 02 03 00 	sll $2,$3,0x18
  402cd0:	59 00 00 00 18 10 02 00 	sra $16,$2,0x18
  402cd8:	05 00 00 00 f4 ff 17 10 	beq $16,$23,402cb0 <pbm_readpbmrow+0x190>
  402ce0:	43 00 00 00 f7 ff 02 03 	addiu $2,$3,-9
  402ce8:	4f 00 00 00 ff 00 02 02 	andi $2,$2,255
  402cf0:	5e 00 00 00 02 00 02 02 	sltiu $2,$2,2
  402cf8:	06 00 00 00 ec ff 00 02 	bne $2,$0,402cb0 <pbm_readpbmrow+0x190>
  402d00:	05 00 00 00 ea ff 16 10 	beq $16,$22,402cb0 <pbm_readpbmrow+0x190>
  402d08:	43 00 00 00 d0 ff 02 03 	addiu $2,$3,-48
  402d10:	4f 00 00 00 ff 00 02 02 	andi $2,$2,255
  402d18:	5e 00 00 00 02 00 02 02 	sltiu $2,$2,2
  402d20:	06 00 00 00 06 00 00 02 	bne $2,$0,402d40 <pbm_readpbmrow+0x220>
  402d28:	a2 00 00 00 00 10 04 00 	lui $4,4096
  402d30:	43 00 00 00 e0 00 04 04 	addiu $4,$4,224
  402d38:	02 00 00 00 30 05 10 00 	jal 4014c0 <pm_error>
  402d40:	53 00 00 00 31 00 02 10 	xori $2,$16,49
  402d48:	5e 00 00 00 01 00 02 02 	sltiu $2,$2,1
  402d50:	30 00 00 00 00 00 02 11 	sb $2,0($17)
  402d58:	43 00 00 00 01 00 14 11 	addiu $20,$17,1
  402d60:	42 00 00 00 00 04 13 00 	addu $4,$0,$19
  402d68:	02 00 00 00 20 11 10 00 	jal 404480 <pbm_getc>
  402d70:	42 00 00 00 00 03 02 00 	addu $3,$0,$2
  402d78:	55 00 00 00 18 02 03 00 	sll $2,$3,0x18
  402d80:	59 00 00 00 18 10 02 00 	sra $16,$2,0x18
  402d88:	05 00 00 00 f4 ff 17 10 	beq $16,$23,402d60 <pbm_readpbmrow+0x240>
  402d90:	43 00 00 00 f7 ff 02 03 	addiu $2,$3,-9
  402d98:	4f 00 00 00 ff 00 02 02 	andi $2,$2,255
  402da0:	5e 00 00 00 02 00 02 02 	sltiu $2,$2,2
  402da8:	06 00 00 00 ec ff 00 02 	bne $2,$0,402d60 <pbm_readpbmrow+0x240>
  402db0:	05 00 00 00 ea ff 16 10 	beq $16,$22,402d60 <pbm_readpbmrow+0x240>
  402db8:	43 00 00 00 d0 ff 02 03 	addiu $2,$3,-48
  402dc0:	4f 00 00 00 ff 00 02 02 	andi $2,$2,255
  402dc8:	5e 00 00 00 02 00 02 02 	sltiu $2,$2,2
  402dd0:	06 00 00 00 06 00 00 02 	bne $2,$0,402df0 <pbm_readpbmrow+0x2d0>
  402dd8:	a2 00 00 00 00 10 04 00 	lui $4,4096
  402de0:	43 00 00 00 e0 00 04 04 	addiu $4,$4,224
  402de8:	02 00 00 00 30 05 10 00 	jal 4014c0 <pm_error>
  402df0:	53 00 00 00 31 00 02 10 	xori $2,$16,49
  402df8:	5e 00 00 00 01 00 02 02 	sltiu $2,$2,1
  402e00:	30 00 00 00 00 00 02 14 	sb $2,0($20)
  402e08:	43 00 00 00 02 00 12 12 	addiu $18,$18,2
  402e10:	43 00 00 00 02 00 11 11 	addiu $17,$17,2
  402e18:	5b 00 00 00 00 02 15 12 	slt $2,$18,$21
  402e20:	06 00 00 00 a2 ff 00 02 	bne $2,$0,402cb0 <pbm_readpbmrow+0x190>
  402e28:	01 00 00 00 46 0c 10 00 	j 403118 <pbm_readpbmrow+0x5f8>
  402e30:	43 00 00 00 ff ff 03 00 	addiu $3,$0,-1
  402e38:	42 00 00 00 00 11 05 00 	addu $17,$0,$5
  402e40:	42 00 00 00 00 12 00 00 	addu $18,$0,$0
  402e48:	07 00 00 00 b2 00 00 15 	blez $21,403118 <pbm_readpbmrow+0x5f8>
  402e50:	43 00 00 00 ff ff 10 00 	addiu $16,$0,-1
  402e58:	4f 00 00 00 03 00 04 15 	andi $4,$21,3
  402e60:	05 00 00 00 4c 00 00 04 	beq $4,$0,402f98 <pbm_readpbmrow+0x478>
  402e68:	5c 00 00 00 02 00 02 04 	slti $2,$4,2
  402e70:	06 00 00 00 2c 00 00 02 	bne $2,$0,402f28 <pbm_readpbmrow+0x408>
  402e78:	5c 00 00 00 03 00 02 04 	slti $2,$4,3
  402e80:	06 00 00 00 10 00 00 02 	bne $2,$0,402ec8 <pbm_readpbmrow+0x3a8>
  402e88:	42 00 00 00 00 04 13 00 	addu $4,$0,$19
  402e90:	02 00 00 00 9c 11 10 00 	jal 404670 <pbm_getrawbyte>
  402e98:	4f 00 00 00 ff 00 02 02 	andi $2,$2,255
  402ea0:	57 00 00 00 07 02 02 00 	srl $2,$2,0x7
  402ea8:	30 00 00 00 00 00 02 11 	sb $2,0($17)
  402eb0:	43 00 00 00 06 00 03 00 	addiu $3,$0,6
  402eb8:	43 00 00 00 01 00 12 00 	addiu $18,$0,1
  402ec0:	43 00 00 00 01 00 11 11 	addiu $17,$17,1
  402ec8:	06 00 00 00 08 00 10 03 	bne $3,$16,402ef0 <pbm_readpbmrow+0x3d0>
  402ed0:	42 00 00 00 00 04 13 00 	addu $4,$0,$19
  402ed8:	02 00 00 00 9c 11 10 00 	jal 404670 <pbm_getrawbyte>
  402ee0:	30 00 00 00 20 00 02 1d 	sb $2,32($29)
  402ee8:	43 00 00 00 07 00 03 00 	addiu $3,$0,7
  402ef0:	22 00 00 00 20 00 02 1d 	lbu $2,32($29)
  402ef8:	43 00 00 00 01 00 12 12 	addiu $18,$18,1
  402f00:	5a 00 00 00 00 02 02 03 	srav $2,$2,$3
  402f08:	4f 00 00 00 01 00 02 02 	andi $2,$2,1
  402f10:	43 00 00 00 ff ff 03 03 	addiu $3,$3,-1
  402f18:	30 00 00 00 00 00 02 11 	sb $2,0($17)
  402f20:	43 00 00 00 01 00 11 11 	addiu $17,$17,1
  402f28:	06 00 00 00 08 00 10 03 	bne $3,$16,402f50 <pbm_readpbmrow+0x430>
  402f30:	42 00 00 00 00 04 13 00 	addu $4,$0,$19
  402f38:	02 00 00 00 9c 11 10 00 	jal 404670 <pbm_getrawbyte>
  402f40:	30 00 00 00 28 00 02 1d 	sb $2,40($29)
  402f48:	43 00 00 00 07 00 03 00 	addiu $3,$0,7
  402f50:	22 00 00 00 28 00 02 1d 	lbu $2,40($29)
  402f58:	43 00 00 00 01 00 12 12 	addiu $18,$18,1
  402f60:	5a 00 00 00 00 02 02 03 	srav $2,$2,$3
  402f68:	4f 00 00 00 01 00 02 02 	andi $2,$2,1
  402f70:	43 00 00 00 ff ff 03 03 	addiu $3,$3,-1
  402f78:	30 00 00 00 00 00 02 11 	sb $2,0($17)
  402f80:	43 00 00 00 01 00 11 11 	addiu $17,$17,1
  402f88:	5b 00 00 00 00 02 15 12 	slt $2,$18,$21
  402f90:	05 00 00 00 60 00 00 02 	beq $2,$0,403118 <pbm_readpbmrow+0x5f8>
  402f98:	06 00 00 00 08 00 10 03 	bne $3,$16,402fc0 <pbm_readpbmrow+0x4a0>
  402fa0:	42 00 00 00 00 04 13 00 	addu $4,$0,$19
  402fa8:	02 00 00 00 9c 11 10 00 	jal 404670 <pbm_getrawbyte>
  402fb0:	42 00 00 00 00 14 02 00 	addu $20,$0,$2
  402fb8:	43 00 00 00 07 00 03 00 	addiu $3,$0,7
  402fc0:	4f 00 00 00 ff 00 02 14 	andi $2,$20,255
  402fc8:	5a 00 00 00 00 02 02 03 	srav $2,$2,$3
  402fd0:	4f 00 00 00 01 00 02 02 	andi $2,$2,1
  402fd8:	30 00 00 00 00 00 02 11 	sb $2,0($17)
  402fe0:	43 00 00 00 ff ff 03 03 	addiu $3,$3,-1
  402fe8:	06 00 00 00 08 00 10 03 	bne $3,$16,403010 <pbm_readpbmrow+0x4f0>
  402ff0:	42 00 00 00 00 04 13 00 	addu $4,$0,$19
  402ff8:	02 00 00 00 9c 11 10 00 	jal 404670 <pbm_getrawbyte>
  403000:	42 00 00 00 00 16 02 00 	addu $22,$0,$2
  403008:	43 00 00 00 07 00 03 00 	addiu $3,$0,7
  403010:	4f 00 00 00 ff 00 02 16 	andi $2,$22,255
  403018:	5a 00 00 00 00 02 02 03 	srav $2,$2,$3
  403020:	4f 00 00 00 01 00 02 02 	andi $2,$2,1
  403028:	30 00 00 00 01 00 02 11 	sb $2,1($17)
  403030:	43 00 00 00 ff ff 03 03 	addiu $3,$3,-1
  403038:	06 00 00 00 08 00 10 03 	bne $3,$16,403060 <pbm_readpbmrow+0x540>
  403040:	42 00 00 00 00 04 13 00 	addu $4,$0,$19
  403048:	02 00 00 00 9c 11 10 00 	jal 404670 <pbm_getrawbyte>
  403050:	42 00 00 00 00 17 02 00 	addu $23,$0,$2
  403058:	43 00 00 00 07 00 03 00 	addiu $3,$0,7
  403060:	4f 00 00 00 ff 00 02 17 	andi $2,$23,255
  403068:	5a 00 00 00 00 02 02 03 	srav $2,$2,$3
  403070:	4f 00 00 00 01 00 02 02 	andi $2,$2,1
  403078:	30 00 00 00 02 00 02 11 	sb $2,2($17)
  403080:	43 00 00 00 ff ff 03 03 	addiu $3,$3,-1
  403088:	06 00 00 00 08 00 10 03 	bne $3,$16,4030b0 <pbm_readpbmrow+0x590>
  403090:	42 00 00 00 00 04 13 00 	addu $4,$0,$19
  403098:	02 00 00 00 9c 11 10 00 	jal 404670 <pbm_getrawbyte>
  4030a0:	42 00 00 00 00 1e 02 00 	addu $30,$0,$2
  4030a8:	43 00 00 00 07 00 03 00 	addiu $3,$0,7
  4030b0:	4f 00 00 00 ff 00 02 1e 	andi $2,$30,255
  4030b8:	5a 00 00 00 00 02 02 03 	srav $2,$2,$3
  4030c0:	4f 00 00 00 01 00 02 02 	andi $2,$2,1
  4030c8:	30 00 00 00 03 00 02 11 	sb $2,3($17)
  4030d0:	43 00 00 00 ff ff 03 03 	addiu $3,$3,-1
  4030d8:	43 00 00 00 04 00 12 12 	addiu $18,$18,4
  4030e0:	43 00 00 00 04 00 11 11 	addiu $17,$17,4
  4030e8:	5b 00 00 00 00 02 15 12 	slt $2,$18,$21
  4030f0:	06 00 00 00 a8 ff 00 02 	bne $2,$0,402f98 <pbm_readpbmrow+0x478>
  4030f8:	01 00 00 00 46 0c 10 00 	j 403118 <pbm_readpbmrow+0x5f8>
  403100:	a2 00 00 00 00 10 04 00 	lui $4,4096
  403108:	43 00 00 00 50 01 04 04 	addiu $4,$4,336
  403110:	02 00 00 00 30 05 10 00 	jal 4014c0 <pm_error>
  403118:	28 00 00 00 54 00 1f 1d 	lw $31,84($29)
  403120:	28 00 00 00 50 00 1e 1d 	lw $30,80($29)
  403128:	28 00 00 00 4c 00 17 1d 	lw $23,76($29)
  403130:	28 00 00 00 48 00 16 1d 	lw $22,72($29)
  403138:	28 00 00 00 44 00 15 1d 	lw $21,68($29)
  403140:	28 00 00 00 40 00 14 1d 	lw $20,64($29)
  403148:	28 00 00 00 3c 00 13 1d 	lw $19,60($29)
  403150:	28 00 00 00 38 00 12 1d 	lw $18,56($29)
  403158:	28 00 00 00 34 00 11 1d 	lw $17,52($29)
  403160:	28 00 00 00 30 00 10 1d 	lw $16,48($29)
  403168:	43 00 00 00 58 00 1d 1d 	addiu $29,$29,88
  403170:	03 00 00 00 00 00 00 1f 	jr $31

00403178 <pbm_readpbm>:
  403178:	43 00 00 00 58 ff 1d 1d 	addiu $29,$29,-168
  403180:	34 00 00 00 8c 00 13 1d 	sw $19,140($29)
  403188:	42 00 00 00 00 13 04 00 	addu $19,$0,$4
  403190:	34 00 00 00 a4 00 1f 1d 	sw $31,164($29)
  403198:	34 00 00 00 a0 00 1e 1d 	sw $30,160($29)
  4031a0:	34 00 00 00 9c 00 17 1d 	sw $23,156($29)
  4031a8:	34 00 00 00 98 00 16 1d 	sw $22,152($29)
  4031b0:	34 00 00 00 94 00 15 1d 	sw $21,148($29)
  4031b8:	34 00 00 00 90 00 14 1d 	sw $20,144($29)
  4031c0:	34 00 00 00 88 00 12 1d 	sw $18,136($29)
  4031c8:	34 00 00 00 84 00 11 1d 	sw $17,132($29)
  4031d0:	34 00 00 00 80 00 10 1d 	sw $16,128($29)
  4031d8:	34 00 00 00 18 00 05 1d 	sw $5,24($29)
  4031e0:	34 00 00 00 20 00 06 1d 	sw $6,32($29)
  4031e8:	28 00 00 00 04 00 03 13 	lw $3,4($19)
  4031f0:	28 00 00 00 08 00 02 13 	lw $2,8($19)
  4031f8:	43 00 00 00 10 00 12 1d 	addiu $18,$29,16
  403200:	5d 00 00 00 00 02 02 03 	sltu $2,$3,$2
  403208:	05 00 00 00 08 00 00 02 	beq $2,$0,403230 <pbm_readpbm+0xb8>
  403210:	43 00 00 00 01 00 02 03 	addiu $2,$3,1
  403218:	34 00 00 00 04 00 02 13 	sw $2,4($19)
  403220:	22 00 00 00 00 00 11 03 	lbu $17,0($3)
  403228:	01 00 00 00 92 0c 10 00 	j 403248 <pbm_readpbm+0xd0>
  403230:	42 00 00 00 00 04 13 00 	addu $4,$0,$19
  403238:	02 00 00 00 76 87 11 00 	jal 461dd8 <__fillbf>
  403240:	42 00 00 00 00 11 02 00 	addu $17,$0,$2
  403248:	43 00 00 00 ff ff 02 00 	addiu $2,$0,-1
  403250:	06 00 00 00 06 00 02 11 	bne $17,$2,403270 <pbm_readpbm+0xf8>
  403258:	a2 00 00 00 00 10 04 00 	lui $4,4096
  403260:	43 00 00 00 04 01 04 04 	addiu $4,$4,260
  403268:	02 00 00 00 30 05 10 00 	jal 4014c0 <pm_error>
  403270:	28 00 00 00 04 00 03 13 	lw $3,4($19)
  403278:	28 00 00 00 08 00 02 13 	lw $2,8($19)
  403280:	5d 00 00 00 00 02 02 03 	sltu $2,$3,$2
  403288:	05 00 00 00 08 00 00 02 	beq $2,$0,4032b0 <pbm_readpbm+0x138>
  403290:	43 00 00 00 01 00 02 03 	addiu $2,$3,1
  403298:	34 00 00 00 04 00 02 13 	sw $2,4($19)
  4032a0:	22 00 00 00 00 00 10 03 	lbu $16,0($3)
  4032a8:	01 00 00 00 b2 0c 10 00 	j 4032c8 <pbm_readpbm+0x150>
  4032b0:	42 00 00 00 00 04 13 00 	addu $4,$0,$19
  4032b8:	02 00 00 00 76 87 11 00 	jal 461dd8 <__fillbf>
  4032c0:	42 00 00 00 00 10 02 00 	addu $16,$0,$2
  4032c8:	43 00 00 00 ff ff 02 00 	addiu $2,$0,-1
  4032d0:	06 00 00 00 06 00 02 10 	bne $16,$2,4032f0 <pbm_readpbm+0x178>
  4032d8:	a2 00 00 00 00 10 04 00 	lui $4,4096
  4032e0:	43 00 00 00 04 01 04 04 	addiu $4,$4,260
  4032e8:	02 00 00 00 30 05 10 00 	jal 4014c0 <pm_error>
  4032f0:	55 00 00 00 08 02 11 00 	sll $2,$17,0x8
  4032f8:	42 00 00 00 00 03 10 02 	addu $3,$2,$16
  403300:	34 00 00 00 00 00 03 12 	sw $3,0($18)
  403308:	43 00 00 00 31 50 02 00 	addiu $2,$0,20529
  403310:	05 00 00 00 04 00 02 03 	beq $3,$2,403328 <pbm_readpbm+0x1b0>
  403318:	43 00 00 00 34 50 02 00 	addiu $2,$0,20532
  403320:	06 00 00 00 04 00 02 03 	bne $3,$2,403338 <pbm_readpbm+0x1c0>
  403328:	43 00 00 00 31 50 03 00 	addiu $3,$0,20529
  403330:	01 00 00 00 d0 0c 10 00 	j 403340 <pbm_readpbm+0x1c8>
  403338:	43 00 00 00 ff ff 03 00 	addiu $3,$0,-1
  403340:	43 00 00 00 31 50 02 00 	addiu $2,$0,20529
  403348:	06 00 00 00 12 00 02 03 	bne $3,$2,403398 <pbm_readpbm+0x220>
  403350:	42 00 00 00 00 04 13 00 	addu $4,$0,$19
  403358:	02 00 00 00 ca 11 10 00 	jal 404728 <pbm_getint>
  403360:	28 00 00 00 18 00 07 1d 	lw $7,24($29)
  403368:	42 00 00 00 00 04 13 00 	addu $4,$0,$19
  403370:	34 00 00 00 00 00 02 07 	sw $2,0($7)
  403378:	02 00 00 00 ca 11 10 00 	jal 404728 <pbm_getint>
  403380:	28 00 00 00 20 00 07 1d 	lw $7,32($29)
  403388:	34 00 00 00 00 00 02 07 	sw $2,0($7)
  403390:	01 00 00 00 ec 0c 10 00 	j 4033b0 <pbm_readpbm+0x238>
  403398:	a2 00 00 00 00 10 04 00 	lui $4,4096
  4033a0:	43 00 00 00 2c 01 04 04 	addiu $4,$4,300
  4033a8:	02 00 00 00 30 05 10 00 	jal 4014c0 <pm_error>
  4033b0:	28 00 00 00 18 00 07 1d 	lw $7,24($29)
  4033b8:	28 00 00 00 00 00 04 07 	lw $4,0($7)
  4033c0:	28 00 00 00 20 00 07 1d 	lw $7,32($29)
  4033c8:	28 00 00 00 00 00 05 07 	lw $5,0($7)
  4033d0:	43 00 00 00 01 00 06 00 	addiu $6,$0,1
  4033d8:	02 00 00 00 a8 00 10 00 	jal 4002a0 <pm_allocarray>
  4033e0:	28 00 00 00 20 00 07 1d 	lw $7,32($29)
  4033e8:	28 00 00 00 00 00 03 07 	lw $3,0($7)
  4033f0:	42 00 00 00 00 16 00 00 	addu $22,$0,$0
  4033f8:	34 00 00 00 28 00 02 1d 	sw $2,40($29)
  403400:	07 00 00 00 82 01 00 03 	blez $3,403a10 <pbm_readpbm+0x898>
  403408:	43 00 00 00 20 00 1e 00 	addiu $30,$0,32
  403410:	43 00 00 00 0d 00 17 00 	addiu $23,$0,13
  403418:	28 00 00 00 28 00 07 1d 	lw $7,40($29)
  403420:	34 00 00 00 78 00 07 1d 	sw $7,120($29)
  403428:	28 00 00 00 78 00 07 1d 	lw $7,120($29)
  403430:	28 00 00 00 00 00 04 07 	lw $4,0($7)
  403438:	28 00 00 00 18 00 07 1d 	lw $7,24($29)
  403440:	28 00 00 00 10 00 03 1d 	lw $3,16($29)
  403448:	28 00 00 00 00 00 15 07 	lw $21,0($7)
  403450:	43 00 00 00 31 50 02 00 	addiu $2,$0,20529
  403458:	05 00 00 00 06 00 02 03 	beq $3,$2,403478 <pbm_readpbm+0x300>
  403460:	43 00 00 00 34 50 02 00 	addiu $2,$0,20532
  403468:	05 00 00 00 9e 00 02 03 	beq $3,$2,4036e8 <pbm_readpbm+0x570>
  403470:	01 00 00 00 6e 0e 10 00 	j 4039b8 <pbm_readpbm+0x840>
  403478:	42 00 00 00 00 11 04 00 	addu $17,$0,$4
  403480:	42 00 00 00 00 12 00 00 	addu $18,$0,$0
  403488:	07 00 00 00 50 01 00 15 	blez $21,4039d0 <pbm_readpbm+0x858>
  403490:	4f 00 00 00 01 00 02 15 	andi $2,$21,1
  403498:	05 00 00 00 32 00 00 02 	beq $2,$0,403568 <pbm_readpbm+0x3f0>
  4034a0:	42 00 00 00 00 04 13 00 	addu $4,$0,$19
  4034a8:	02 00 00 00 20 11 10 00 	jal 404480 <pbm_getc>
  4034b0:	42 00 00 00 00 03 02 00 	addu $3,$0,$2
  4034b8:	55 00 00 00 18 02 03 00 	sll $2,$3,0x18
  4034c0:	59 00 00 00 18 10 02 00 	sra $16,$2,0x18
  4034c8:	05 00 00 00 f4 ff 1e 10 	beq $16,$30,4034a0 <pbm_readpbm+0x328>
  4034d0:	43 00 00 00 f7 ff 02 03 	addiu $2,$3,-9
  4034d8:	4f 00 00 00 ff 00 02 02 	andi $2,$2,255
  4034e0:	5e 00 00 00 02 00 02 02 	sltiu $2,$2,2
  4034e8:	06 00 00 00 ec ff 00 02 	bne $2,$0,4034a0 <pbm_readpbm+0x328>
  4034f0:	05 00 00 00 ea ff 17 10 	beq $16,$23,4034a0 <pbm_readpbm+0x328>
  4034f8:	43 00 00 00 d0 ff 02 03 	addiu $2,$3,-48
  403500:	4f 00 00 00 ff 00 02 02 	andi $2,$2,255
  403508:	5e 00 00 00 02 00 02 02 	sltiu $2,$2,2
  403510:	06 00 00 00 06 00 00 02 	bne $2,$0,403530 <pbm_readpbm+0x3b8>
  403518:	a2 00 00 00 00 10 04 00 	lui $4,4096
  403520:	43 00 00 00 e0 00 04 04 	addiu $4,$4,224
  403528:	02 00 00 00 30 05 10 00 	jal 4014c0 <pm_error>
  403530:	53 00 00 00 31 00 02 10 	xori $2,$16,49
  403538:	5e 00 00 00 01 00 02 02 	sltiu $2,$2,1
  403540:	30 00 00 00 00 00 02 11 	sb $2,0($17)
  403548:	43 00 00 00 01 00 12 12 	addiu $18,$18,1
  403550:	43 00 00 00 01 00 11 11 	addiu $17,$17,1
  403558:	5b 00 00 00 00 02 15 12 	slt $2,$18,$21
  403560:	05 00 00 00 1a 01 00 02 	beq $2,$0,4039d0 <pbm_readpbm+0x858>
  403568:	42 00 00 00 00 04 13 00 	addu $4,$0,$19
  403570:	02 00 00 00 20 11 10 00 	jal 404480 <pbm_getc>
  403578:	42 00 00 00 00 03 02 00 	addu $3,$0,$2
  403580:	55 00 00 00 18 02 03 00 	sll $2,$3,0x18
  403588:	59 00 00 00 18 10 02 00 	sra $16,$2,0x18
  403590:	05 00 00 00 f4 ff 1e 10 	beq $16,$30,403568 <pbm_readpbm+0x3f0>
  403598:	43 00 00 00 f7 ff 02 03 	addiu $2,$3,-9
  4035a0:	4f 00 00 00 ff 00 02 02 	andi $2,$2,255
  4035a8:	5e 00 00 00 02 00 02 02 	sltiu $2,$2,2
  4035b0:	06 00 00 00 ec ff 00 02 	bne $2,$0,403568 <pbm_readpbm+0x3f0>
  4035b8:	05 00 00 00 ea ff 17 10 	beq $16,$23,403568 <pbm_readpbm+0x3f0>
  4035c0:	43 00 00 00 d0 ff 02 03 	addiu $2,$3,-48
  4035c8:	4f 00 00 00 ff 00 02 02 	andi $2,$2,255
  4035d0:	5e 00 00 00 02 00 02 02 	sltiu $2,$2,2
  4035d8:	06 00 00 00 06 00 00 02 	bne $2,$0,4035f8 <pbm_readpbm+0x480>
  4035e0:	a2 00 00 00 00 10 04 00 	lui $4,4096
  4035e8:	43 00 00 00 e0 00 04 04 	addiu $4,$4,224
  4035f0:	02 00 00 00 30 05 10 00 	jal 4014c0 <pm_error>
  4035f8:	53 00 00 00 31 00 02 10 	xori $2,$16,49
  403600:	5e 00 00 00 01 00 02 02 	sltiu $2,$2,1
  403608:	30 00 00 00 00 00 02 11 	sb $2,0($17)
  403610:	43 00 00 00 01 00 14 11 	addiu $20,$17,1
  403618:	42 00 00 00 00 04 13 00 	addu $4,$0,$19
  403620:	02 00 00 00 20 11 10 00 	jal 404480 <pbm_getc>
  403628:	42 00 00 00 00 03 02 00 	addu $3,$0,$2
  403630:	55 00 00 00 18 02 03 00 	sll $2,$3,0x18
  403638:	59 00 00 00 18 10 02 00 	sra $16,$2,0x18
  403640:	05 00 00 00 f4 ff 1e 10 	beq $16,$30,403618 <pbm_readpbm+0x4a0>
  403648:	43 00 00 00 f7 ff 02 03 	addiu $2,$3,-9
  403650:	4f 00 00 00 ff 00 02 02 	andi $2,$2,255
  403658:	5e 00 00 00 02 00 02 02 	sltiu $2,$2,2
  403660:	06 00 00 00 ec ff 00 02 	bne $2,$0,403618 <pbm_readpbm+0x4a0>
  403668:	05 00 00 00 ea ff 17 10 	beq $16,$23,403618 <pbm_readpbm+0x4a0>
  403670:	43 00 00 00 d0 ff 02 03 	addiu $2,$3,-48
  403678:	4f 00 00 00 ff 00 02 02 	andi $2,$2,255
  403680:	5e 00 00 00 02 00 02 02 	sltiu $2,$2,2
  403688:	06 00 00 00 06 00 00 02 	bne $2,$0,4036a8 <pbm_readpbm+0x530>
  403690:	a2 00 00 00 00 10 04 00 	lui $4,4096
  403698:	43 00 00 00 e0 00 04 04 	addiu $4,$4,224
  4036a0:	02 00 00 00 30 05 10 00 	jal 4014c0 <pm_error>
  4036a8:	53 00 00 00 31 00 02 10 	xori $2,$16,49
  4036b0:	5e 00 00 00 01 00 02 02 	sltiu $2,$2,1
  4036b8:	30 00 00 00 00 00 02 14 	sb $2,0($20)
  4036c0:	43 00 00 00 02 00 12 12 	addiu $18,$18,2
  4036c8:	43 00 00 00 02 00 11 11 	addiu $17,$17,2
  4036d0:	5b 00 00 00 00 02 15 12 	slt $2,$18,$21
  4036d8:	06 00 00 00 a2 ff 00 02 	bne $2,$0,403568 <pbm_readpbm+0x3f0>
  4036e0:	01 00 00 00 74 0e 10 00 	j 4039d0 <pbm_readpbm+0x858>
  4036e8:	43 00 00 00 ff ff 03 00 	addiu $3,$0,-1
  4036f0:	42 00 00 00 00 11 04 00 	addu $17,$0,$4
  4036f8:	42 00 00 00 00 12 00 00 	addu $18,$0,$0
  403700:	07 00 00 00 b2 00 00 15 	blez $21,4039d0 <pbm_readpbm+0x858>
  403708:	43 00 00 00 ff ff 10 00 	addiu $16,$0,-1
  403710:	4f 00 00 00 03 00 04 15 	andi $4,$21,3
  403718:	05 00 00 00 4c 00 00 04 	beq $4,$0,403850 <pbm_readpbm+0x6d8>
  403720:	5c 00 00 00 02 00 02 04 	slti $2,$4,2
  403728:	06 00 00 00 2c 00 00 02 	bne $2,$0,4037e0 <pbm_readpbm+0x668>
  403730:	5c 00 00 00 03 00 02 04 	slti $2,$4,3
  403738:	06 00 00 00 10 00 00 02 	bne $2,$0,403780 <pbm_readpbm+0x608>
  403740:	42 00 00 00 00 04 13 00 	addu $4,$0,$19
  403748:	02 00 00 00 9c 11 10 00 	jal 404670 <pbm_getrawbyte>
  403750:	4f 00 00 00 ff 00 02 02 	andi $2,$2,255
  403758:	57 00 00 00 07 02 02 00 	srl $2,$2,0x7
  403760:	30 00 00 00 00 00 02 11 	sb $2,0($17)
  403768:	43 00 00 00 06 00 03 00 	addiu $3,$0,6
  403770:	43 00 00 00 01 00 12 00 	addiu $18,$0,1
  403778:	43 00 00 00 01 00 11 11 	addiu $17,$17,1
  403780:	06 00 00 00 08 00 10 03 	bne $3,$16,4037a8 <pbm_readpbm+0x630>
  403788:	42 00 00 00 00 04 13 00 	addu $4,$0,$19
  403790:	02 00 00 00 9c 11 10 00 	jal 404670 <pbm_getrawbyte>
  403798:	30 00 00 00 48 00 02 1d 	sb $2,72($29)
  4037a0:	43 00 00 00 07 00 03 00 	addiu $3,$0,7
  4037a8:	22 00 00 00 48 00 02 1d 	lbu $2,72($29)
  4037b0:	43 00 00 00 01 00 12 12 	addiu $18,$18,1
  4037b8:	5a 00 00 00 00 02 02 03 	srav $2,$2,$3
  4037c0:	4f 00 00 00 01 00 02 02 	andi $2,$2,1
  4037c8:	43 00 00 00 ff ff 03 03 	addiu $3,$3,-1
  4037d0:	30 00 00 00 00 00 02 11 	sb $2,0($17)
  4037d8:	43 00 00 00 01 00 11 11 	addiu $17,$17,1
  4037e0:	06 00 00 00 08 00 10 03 	bne $3,$16,403808 <pbm_readpbm+0x690>
  4037e8:	42 00 00 00 00 04 13 00 	addu $4,$0,$19
  4037f0:	02 00 00 00 9c 11 10 00 	jal 404670 <pbm_getrawbyte>
  4037f8:	30 00 00 00 50 00 02 1d 	sb $2,80($29)
  403800:	43 00 00 00 07 00 03 00 	addiu $3,$0,7
  403808:	22 00 00 00 50 00 02 1d 	lbu $2,80($29)
  403810:	43 00 00 00 01 00 12 12 	addiu $18,$18,1
  403818:	5a 00 00 00 00 02 02 03 	srav $2,$2,$3
  403820:	4f 00 00 00 01 00 02 02 	andi $2,$2,1
  403828:	43 00 00 00 ff ff 03 03 	addiu $3,$3,-1
  403830:	30 00 00 00 00 00 02 11 	sb $2,0($17)
  403838:	43 00 00 00 01 00 11 11 	addiu $17,$17,1
  403840:	5b 00 00 00 00 02 15 12 	slt $2,$18,$21
  403848:	05 00 00 00 60 00 00 02 	beq $2,$0,4039d0 <pbm_readpbm+0x858>
  403850:	06 00 00 00 08 00 10 03 	bne $3,$16,403878 <pbm_readpbm+0x700>
  403858:	42 00 00 00 00 04 13 00 	addu $4,$0,$19
  403860:	02 00 00 00 9c 11 10 00 	jal 404670 <pbm_getrawbyte>
  403868:	30 00 00 00 58 00 02 1d 	sb $2,88($29)
  403870:	43 00 00 00 07 00 03 00 	addiu $3,$0,7
  403878:	22 00 00 00 58 00 02 1d 	lbu $2,88($29)
  403880:	5a 00 00 00 00 02 02 03 	srav $2,$2,$3
  403888:	4f 00 00 00 01 00 02 02 	andi $2,$2,1
  403890:	43 00 00 00 ff ff 03 03 	addiu $3,$3,-1
  403898:	30 00 00 00 00 00 02 11 	sb $2,0($17)
  4038a0:	06 00 00 00 08 00 10 03 	bne $3,$16,4038c8 <pbm_readpbm+0x750>
  4038a8:	42 00 00 00 00 04 13 00 	addu $4,$0,$19
  4038b0:	02 00 00 00 9c 11 10 00 	jal 404670 <pbm_getrawbyte>
  4038b8:	30 00 00 00 60 00 02 1d 	sb $2,96($29)
  4038c0:	43 00 00 00 07 00 03 00 	addiu $3,$0,7
  4038c8:	22 00 00 00 60 00 02 1d 	lbu $2,96($29)
  4038d0:	5a 00 00 00 00 02 02 03 	srav $2,$2,$3
  4038d8:	4f 00 00 00 01 00 02 02 	andi $2,$2,1
  4038e0:	43 00 00 00 ff ff 03 03 	addiu $3,$3,-1
  4038e8:	30 00 00 00 01 00 02 11 	sb $2,1($17)
  4038f0:	06 00 00 00 08 00 10 03 	bne $3,$16,403918 <pbm_readpbm+0x7a0>
  4038f8:	42 00 00 00 00 04 13 00 	addu $4,$0,$19
  403900:	02 00 00 00 9c 11 10 00 	jal 404670 <pbm_getrawbyte>
  403908:	30 00 00 00 68 00 02 1d 	sb $2,104($29)
  403910:	43 00 00 00 07 00 03 00 	addiu $3,$0,7
  403918:	22 00 00 00 68 00 02 1d 	lbu $2,104($29)
  403920:	5a 00 00 00 00 02 02 03 	srav $2,$2,$3
  403928:	4f 00 00 00 01 00 02 02 	andi $2,$2,1
  403930:	43 00 00 00 ff ff 03 03 	addiu $3,$3,-1
  403938:	30 00 00 00 02 00 02 11 	sb $2,2($17)
  403940:	06 00 00 00 08 00 10 03 	bne $3,$16,403968 <pbm_readpbm+0x7f0>
  403948:	42 00 00 00 00 04 13 00 	addu $4,$0,$19
  403950:	02 00 00 00 9c 11 10 00 	jal 404670 <pbm_getrawbyte>
  403958:	30 00 00 00 70 00 02 1d 	sb $2,112($29)
  403960:	43 00 00 00 07 00 03 00 	addiu $3,$0,7
  403968:	22 00 00 00 70 00 02 1d 	lbu $2,112($29)
  403970:	43 00 00 00 04 00 12 12 	addiu $18,$18,4
  403978:	5a 00 00 00 00 02 02 03 	srav $2,$2,$3
  403980:	4f 00 00 00 01 00 02 02 	andi $2,$2,1
  403988:	43 00 00 00 ff ff 03 03 	addiu $3,$3,-1
  403990:	30 00 00 00 03 00 02 11 	sb $2,3($17)
  403998:	43 00 00 00 04 00 11 11 	addiu $17,$17,4
  4039a0:	5b 00 00 00 00 02 15 12 	slt $2,$18,$21
  4039a8:	06 00 00 00 a8 ff 00 02 	bne $2,$0,403850 <pbm_readpbm+0x6d8>
  4039b0:	01 00 00 00 74 0e 10 00 	j 4039d0 <pbm_readpbm+0x858>
  4039b8:	a2 00 00 00 00 10 04 00 	lui $4,4096
  4039c0:	43 00 00 00 50 01 04 04 	addiu $4,$4,336
  4039c8:	02 00 00 00 30 05 10 00 	jal 4014c0 <pm_error>
  4039d0:	28 00 00 00 20 00 07 1d 	lw $7,32($29)
  4039d8:	28 00 00 00 00 00 02 07 	lw $2,0($7)
  4039e0:	28 00 00 00 78 00 07 1d 	lw $7,120($29)
  4039e8:	43 00 00 00 01 00 16 16 	addiu $22,$22,1
  4039f0:	5b 00 00 00 00 02 02 16 	slt $2,$22,$2
  4039f8:	43 00 00 00 04 00 07 07 	addiu $7,$7,4
  403a00:	34 00 00 00 78 00 07 1d 	sw $7,120($29)
  403a08:	06 00 00 00 86 fe 00 02 	bne $2,$0,403428 <pbm_readpbm+0x2b0>
  403a10:	28 00 00 00 28 00 02 1d 	lw $2,40($29)
  403a18:	28 00 00 00 a4 00 1f 1d 	lw $31,164($29)
  403a20:	28 00 00 00 a0 00 1e 1d 	lw $30,160($29)
  403a28:	28 00 00 00 9c 00 17 1d 	lw $23,156($29)
  403a30:	28 00 00 00 98 00 16 1d 	lw $22,152($29)
  403a38:	28 00 00 00 94 00 15 1d 	lw $21,148($29)
  403a40:	28 00 00 00 90 00 14 1d 	lw $20,144($29)
  403a48:	28 00 00 00 8c 00 13 1d 	lw $19,140($29)
  403a50:	28 00 00 00 88 00 12 1d 	lw $18,136($29)
  403a58:	28 00 00 00 84 00 11 1d 	lw $17,132($29)
  403a60:	28 00 00 00 80 00 10 1d 	lw $16,128($29)
  403a68:	43 00 00 00 a8 00 1d 1d 	addiu $29,$29,168
  403a70:	03 00 00 00 00 00 00 1f 	jr $31
	...

00403a80 <pbm_writepbminit>:
  403a80:	43 00 00 00 e0 ff 1d 1d 	addiu $29,$29,-32
  403a88:	34 00 00 00 18 00 1f 1d 	sw $31,24($29)
  403a90:	42 00 00 00 00 02 05 00 	addu $2,$0,$5
  403a98:	42 00 00 00 00 03 06 00 	addu $3,$0,$6
  403aa0:	06 00 00 00 0a 00 00 07 	bne $7,$0,403ad0 <pbm_writepbminit+0x50>
  403aa8:	a2 00 00 00 00 10 05 00 	lui $5,4096
  403ab0:	43 00 00 00 60 01 05 05 	addiu $5,$5,352
  403ab8:	43 00 00 00 50 00 06 00 	addiu $6,$0,80
  403ac0:	43 00 00 00 34 00 07 00 	addiu $7,$0,52
  403ac8:	01 00 00 00 bc 0e 10 00 	j 403af0 <pbm_writepbminit+0x70>
  403ad0:	a2 00 00 00 00 10 05 00 	lui $5,4096
  403ad8:	43 00 00 00 60 01 05 05 	addiu $5,$5,352
  403ae0:	43 00 00 00 50 00 06 00 	addiu $6,$0,80
  403ae8:	43 00 00 00 31 00 07 00 	addiu $7,$0,49
  403af0:	34 00 00 00 10 00 02 1d 	sw $2,16($29)
  403af8:	34 00 00 00 14 00 03 1d 	sw $3,20($29)
  403b00:	02 00 00 00 4c 74 11 00 	jal 45d130 <fprintf>
  403b08:	28 00 00 00 18 00 1f 1d 	lw $31,24($29)
  403b10:	43 00 00 00 20 00 1d 1d 	addiu $29,$29,32
  403b18:	03 00 00 00 00 00 00 1f 	jr $31

00403b20 <pbm_writepbmrow>:
  403b20:	43 00 00 00 c0 ff 1d 1d 	addiu $29,$29,-64
  403b28:	34 00 00 00 20 00 10 1d 	sw $16,32($29)
  403b30:	42 00 00 00 00 10 04 00 	addu $16,$0,$4
  403b38:	42 00 00 00 00 04 05 00 	addu $4,$0,$5
  403b40:	34 00 00 00 34 00 15 1d 	sw $21,52($29)
  403b48:	42 00 00 00 00 15 06 00 	addu $21,$0,$6
  403b50:	34 00 00 00 3c 00 1f 1d 	sw $31,60($29)
  403b58:	34 00 00 00 38 00 16 1d 	sw $22,56($29)
  403b60:	34 00 00 00 30 00 14 1d 	sw $20,48($29)
  403b68:	34 00 00 00 2c 00 13 1d 	sw $19,44($29)
  403b70:	34 00 00 00 28 00 12 1d 	sw $18,40($29)
  403b78:	34 00 00 00 24 00 11 1d 	sw $17,36($29)
  403b80:	06 00 00 00 90 00 00 07 	bne $7,$0,403dc8 <pbm_writepbmrow+0x2a8>
  403b88:	43 00 00 00 07 00 03 00 	addiu $3,$0,7
  403b90:	42 00 00 00 00 05 00 00 	addu $5,$0,$0
  403b98:	42 00 00 00 00 12 04 00 	addu $18,$0,$4
  403ba0:	42 00 00 00 00 11 00 00 	addu $17,$0,$0
  403ba8:	07 00 00 00 6c 00 00 15 	blez $21,403d60 <pbm_writepbmrow+0x240>
  403bb0:	43 00 00 00 01 00 14 00 	addiu $20,$0,1
  403bb8:	43 00 00 00 ff ff 13 00 	addiu $19,$0,-1
  403bc0:	4f 00 00 00 01 00 02 15 	andi $2,$21,1
  403bc8:	05 00 00 00 10 00 00 02 	beq $2,$0,403c10 <pbm_writepbmrow+0xf0>
  403bd0:	22 00 00 00 00 00 02 04 	lbu $2,0($4)
  403bd8:	05 00 00 00 02 00 00 02 	beq $2,$0,403be8 <pbm_writepbmrow+0xc8>
  403be0:	43 00 00 00 80 00 05 00 	addiu $5,$0,128
  403be8:	43 00 00 00 06 00 03 00 	addiu $3,$0,6
  403bf0:	43 00 00 00 01 00 11 11 	addiu $17,$17,1
  403bf8:	43 00 00 00 01 00 12 12 	addiu $18,$18,1
  403c00:	5b 00 00 00 00 02 15 11 	slt $2,$17,$21
  403c08:	05 00 00 00 54 00 00 02 	beq $2,$0,403d60 <pbm_writepbmrow+0x240>
  403c10:	22 00 00 00 00 00 02 12 	lbu $2,0($18)
  403c18:	05 00 00 00 04 00 00 02 	beq $2,$0,403c30 <pbm_writepbmrow+0x110>
  403c20:	56 00 00 00 00 02 14 03 	sllv $2,$20,$3
  403c28:	42 00 00 00 00 05 02 05 	addu $5,$5,$2
  403c30:	43 00 00 00 ff ff 03 03 	addiu $3,$3,-1
  403c38:	06 00 00 00 1a 00 13 03 	bne $3,$19,403ca8 <pbm_writepbmrow+0x188>
  403c40:	28 00 00 00 04 00 03 10 	lw $3,4($16)
  403c48:	28 00 00 00 0c 00 02 10 	lw $2,12($16)
  403c50:	5d 00 00 00 00 02 02 03 	sltu $2,$3,$2
  403c58:	05 00 00 00 08 00 00 02 	beq $2,$0,403c80 <pbm_writepbmrow+0x160>
  403c60:	43 00 00 00 01 00 02 03 	addiu $2,$3,1
  403c68:	34 00 00 00 04 00 02 10 	sw $2,4($16)
  403c70:	30 00 00 00 00 00 05 03 	sb $5,0($3)
  403c78:	01 00 00 00 26 0f 10 00 	j 403c98 <pbm_writepbmrow+0x178>
  403c80:	42 00 00 00 00 04 10 00 	addu $4,$0,$16
  403c88:	4f 00 00 00 ff 00 05 05 	andi $5,$5,255
  403c90:	02 00 00 00 28 86 11 00 	jal 4618a0 <__flshfp>
  403c98:	43 00 00 00 07 00 03 00 	addiu $3,$0,7
  403ca0:	42 00 00 00 00 05 00 00 	addu $5,$0,$0
  403ca8:	22 00 00 00 01 00 02 12 	lbu $2,1($18)
  403cb0:	05 00 00 00 04 00 00 02 	beq $2,$0,403cc8 <pbm_writepbmrow+0x1a8>
  403cb8:	56 00 00 00 00 02 14 03 	sllv $2,$20,$3
  403cc0:	42 00 00 00 00 05 02 05 	addu $5,$5,$2
  403cc8:	43 00 00 00 ff ff 03 03 	addiu $3,$3,-1
  403cd0:	06 00 00 00 1a 00 13 03 	bne $3,$19,403d40 <pbm_writepbmrow+0x220>
  403cd8:	28 00 00 00 04 00 03 10 	lw $3,4($16)
  403ce0:	28 00 00 00 0c 00 02 10 	lw $2,12($16)
  403ce8:	5d 00 00 00 00 02 02 03 	sltu $2,$3,$2
  403cf0:	05 00 00 00 08 00 00 02 	beq $2,$0,403d18 <pbm_writepbmrow+0x1f8>
  403cf8:	43 00 00 00 01 00 02 03 	addiu $2,$3,1
  403d00:	34 00 00 00 04 00 02 10 	sw $2,4($16)
  403d08:	30 00 00 00 00 00 05 03 	sb $5,0($3)
  403d10:	01 00 00 00 4c 0f 10 00 	j 403d30 <pbm_writepbmrow+0x210>
  403d18:	42 00 00 00 00 04 10 00 	addu $4,$0,$16
  403d20:	4f 00 00 00 ff 00 05 05 	andi $5,$5,255
  403d28:	02 00 00 00 28 86 11 00 	jal 4618a0 <__flshfp>
  403d30:	43 00 00 00 07 00 03 00 	addiu $3,$0,7
  403d38:	42 00 00 00 00 05 00 00 	addu $5,$0,$0
  403d40:	43 00 00 00 02 00 11 11 	addiu $17,$17,2
  403d48:	43 00 00 00 02 00 12 12 	addiu $18,$18,2
  403d50:	5b 00 00 00 00 02 15 11 	slt $2,$17,$21
  403d58:	06 00 00 00 ac ff 00 02 	bne $2,$0,403c10 <pbm_writepbmrow+0xf0>
  403d60:	43 00 00 00 07 00 02 00 	addiu $2,$0,7
  403d68:	05 00 00 00 f8 00 02 03 	beq $3,$2,404150 <pbm_writepbmrow+0x630>
  403d70:	28 00 00 00 04 00 03 10 	lw $3,4($16)
  403d78:	28 00 00 00 0c 00 02 10 	lw $2,12($16)
  403d80:	5d 00 00 00 00 02 02 03 	sltu $2,$3,$2
  403d88:	05 00 00 00 08 00 00 02 	beq $2,$0,403db0 <pbm_writepbmrow+0x290>
  403d90:	43 00 00 00 01 00 02 03 	addiu $2,$3,1
  403d98:	34 00 00 00 04 00 02 10 	sw $2,4($16)
  403da0:	30 00 00 00 00 00 05 03 	sb $5,0($3)
  403da8:	01 00 00 00 54 10 10 00 	j 404150 <pbm_writepbmrow+0x630>
  403db0:	42 00 00 00 00 04 10 00 	addu $4,$0,$16
  403db8:	4f 00 00 00 ff 00 05 05 	andi $5,$5,255
  403dc0:	01 00 00 00 52 10 10 00 	j 404148 <pbm_writepbmrow+0x628>
  403dc8:	42 00 00 00 00 11 00 00 	addu $17,$0,$0
  403dd0:	42 00 00 00 00 13 04 00 	addu $19,$0,$4
  403dd8:	42 00 00 00 00 14 00 00 	addu $20,$0,$0
  403de0:	07 00 00 00 c2 00 00 15 	blez $21,4040f0 <pbm_writepbmrow+0x5d0>
  403de8:	43 00 00 00 0a 00 16 00 	addiu $22,$0,10
  403df0:	4f 00 00 00 01 00 02 15 	andi $2,$21,1
  403df8:	05 00 00 00 2e 00 00 02 	beq $2,$0,403eb8 <pbm_writepbmrow+0x398>
  403e00:	28 00 00 00 04 00 04 10 	lw $4,4($16)
  403e08:	28 00 00 00 0c 00 02 10 	lw $2,12($16)
  403e10:	5d 00 00 00 00 02 02 04 	sltu $2,$4,$2
  403e18:	05 00 00 00 10 00 00 02 	beq $2,$0,403e60 <pbm_writepbmrow+0x340>
  403e20:	43 00 00 00 01 00 02 04 	addiu $2,$4,1
  403e28:	34 00 00 00 04 00 02 10 	sw $2,4($16)
  403e30:	22 00 00 00 00 00 02 13 	lbu $2,0($19)
  403e38:	43 00 00 00 30 00 03 00 	addiu $3,$0,48
  403e40:	05 00 00 00 02 00 00 02 	beq $2,$0,403e50 <pbm_writepbmrow+0x330>
  403e48:	43 00 00 00 31 00 03 00 	addiu $3,$0,49
  403e50:	30 00 00 00 00 00 03 04 	sb $3,0($4)
  403e58:	01 00 00 00 a4 0f 10 00 	j 403e90 <pbm_writepbmrow+0x370>
  403e60:	22 00 00 00 00 00 02 13 	lbu $2,0($19)
  403e68:	43 00 00 00 30 00 05 00 	addiu $5,$0,48
  403e70:	05 00 00 00 02 00 00 02 	beq $2,$0,403e80 <pbm_writepbmrow+0x360>
  403e78:	43 00 00 00 31 00 05 00 	addiu $5,$0,49
  403e80:	42 00 00 00 00 04 10 00 	addu $4,$0,$16
  403e88:	02 00 00 00 28 86 11 00 	jal 4618a0 <__flshfp>
  403e90:	43 00 00 00 01 00 11 11 	addiu $17,$17,1
  403e98:	43 00 00 00 01 00 14 14 	addiu $20,$20,1
  403ea0:	43 00 00 00 01 00 13 13 	addiu $19,$19,1
  403ea8:	5b 00 00 00 00 02 15 14 	slt $2,$20,$21
  403eb0:	05 00 00 00 8e 00 00 02 	beq $2,$0,4040f0 <pbm_writepbmrow+0x5d0>
  403eb8:	5c 00 00 00 46 00 02 11 	slti $2,$17,70
  403ec0:	06 00 00 00 18 00 00 02 	bne $2,$0,403f28 <pbm_writepbmrow+0x408>
  403ec8:	28 00 00 00 04 00 03 10 	lw $3,4($16)
  403ed0:	28 00 00 00 0c 00 02 10 	lw $2,12($16)
  403ed8:	5d 00 00 00 00 02 02 03 	sltu $2,$3,$2
  403ee0:	05 00 00 00 08 00 00 02 	beq $2,$0,403f08 <pbm_writepbmrow+0x3e8>
  403ee8:	43 00 00 00 01 00 02 03 	addiu $2,$3,1
  403ef0:	34 00 00 00 04 00 02 10 	sw $2,4($16)
  403ef8:	30 00 00 00 00 00 16 03 	sb $22,0($3)
  403f00:	01 00 00 00 c8 0f 10 00 	j 403f20 <pbm_writepbmrow+0x400>
  403f08:	42 00 00 00 00 04 10 00 	addu $4,$0,$16
  403f10:	43 00 00 00 0a 00 05 00 	addiu $5,$0,10
  403f18:	02 00 00 00 28 86 11 00 	jal 4618a0 <__flshfp>
  403f20:	42 00 00 00 00 11 00 00 	addu $17,$0,$0
  403f28:	28 00 00 00 04 00 04 10 	lw $4,4($16)
  403f30:	28 00 00 00 0c 00 02 10 	lw $2,12($16)
  403f38:	5d 00 00 00 00 02 02 04 	sltu $2,$4,$2
  403f40:	05 00 00 00 10 00 00 02 	beq $2,$0,403f88 <pbm_writepbmrow+0x468>
  403f48:	43 00 00 00 01 00 02 04 	addiu $2,$4,1
  403f50:	34 00 00 00 04 00 02 10 	sw $2,4($16)
  403f58:	22 00 00 00 00 00 02 13 	lbu $2,0($19)
  403f60:	43 00 00 00 30 00 03 00 	addiu $3,$0,48
  403f68:	05 00 00 00 02 00 00 02 	beq $2,$0,403f78 <pbm_writepbmrow+0x458>
  403f70:	43 00 00 00 31 00 03 00 	addiu $3,$0,49
  403f78:	30 00 00 00 00 00 03 04 	sb $3,0($4)
  403f80:	01 00 00 00 ee 0f 10 00 	j 403fb8 <pbm_writepbmrow+0x498>
  403f88:	22 00 00 00 00 00 02 13 	lbu $2,0($19)
  403f90:	43 00 00 00 30 00 05 00 	addiu $5,$0,48
  403f98:	05 00 00 00 02 00 00 02 	beq $2,$0,403fa8 <pbm_writepbmrow+0x488>
  403fa0:	43 00 00 00 31 00 05 00 	addiu $5,$0,49
  403fa8:	42 00 00 00 00 04 10 00 	addu $4,$0,$16
  403fb0:	02 00 00 00 28 86 11 00 	jal 4618a0 <__flshfp>
  403fb8:	43 00 00 00 01 00 11 11 	addiu $17,$17,1
  403fc0:	43 00 00 00 01 00 12 13 	addiu $18,$19,1
  403fc8:	5c 00 00 00 46 00 02 11 	slti $2,$17,70
  403fd0:	06 00 00 00 18 00 00 02 	bne $2,$0,404038 <pbm_writepbmrow+0x518>
  403fd8:	28 00 00 00 04 00 03 10 	lw $3,4($16)
  403fe0:	28 00 00 00 0c 00 02 10 	lw $2,12($16)
  403fe8:	5d 00 00 00 00 02 02 03 	sltu $2,$3,$2
  403ff0:	05 00 00 00 08 00 00 02 	beq $2,$0,404018 <pbm_writepbmrow+0x4f8>
  403ff8:	43 00 00 00 01 00 02 03 	addiu $2,$3,1
  404000:	34 00 00 00 04 00 02 10 	sw $2,4($16)
  404008:	30 00 00 00 00 00 16 03 	sb $22,0($3)
  404010:	01 00 00 00 0c 10 10 00 	j 404030 <pbm_writepbmrow+0x510>
  404018:	42 00 00 00 00 04 10 00 	addu $4,$0,$16
  404020:	43 00 00 00 0a 00 05 00 	addiu $5,$0,10
  404028:	02 00 00 00 28 86 11 00 	jal 4618a0 <__flshfp>
  404030:	42 00 00 00 00 11 00 00 	addu $17,$0,$0
  404038:	28 00 00 00 04 00 04 10 	lw $4,4($16)
  404040:	28 00 00 00 0c 00 02 10 	lw $2,12($16)
  404048:	5d 00 00 00 00 02 02 04 	sltu $2,$4,$2
  404050:	05 00 00 00 10 00 00 02 	beq $2,$0,404098 <pbm_writepbmrow+0x578>
  404058:	43 00 00 00 01 00 02 04 	addiu $2,$4,1
  404060:	34 00 00 00 04 00 02 10 	sw $2,4($16)
  404068:	22 00 00 00 00 00 02 12 	lbu $2,0($18)
  404070:	43 00 00 00 30 00 03 00 	addiu $3,$0,48
  404078:	05 00 00 00 02 00 00 02 	beq $2,$0,404088 <pbm_writepbmrow+0x568>
  404080:	43 00 00 00 31 00 03 00 	addiu $3,$0,49
  404088:	30 00 00 00 00 00 03 04 	sb $3,0($4)
  404090:	01 00 00 00 32 10 10 00 	j 4040c8 <pbm_writepbmrow+0x5a8>
  404098:	22 00 00 00 00 00 02 12 	lbu $2,0($18)
  4040a0:	43 00 00 00 30 00 05 00 	addiu $5,$0,48
  4040a8:	05 00 00 00 02 00 00 02 	beq $2,$0,4040b8 <pbm_writepbmrow+0x598>
  4040b0:	43 00 00 00 31 00 05 00 	addiu $5,$0,49
  4040b8:	42 00 00 00 00 04 10 00 	addu $4,$0,$16
  4040c0:	02 00 00 00 28 86 11 00 	jal 4618a0 <__flshfp>
  4040c8:	43 00 00 00 01 00 11 11 	addiu $17,$17,1
  4040d0:	43 00 00 00 02 00 14 14 	addiu $20,$20,2
  4040d8:	43 00 00 00 02 00 13 13 	addiu $19,$19,2
  4040e0:	5b 00 00 00 00 02 15 14 	slt $2,$20,$21
  4040e8:	06 00 00 00 72 ff 00 02 	bne $2,$0,403eb8 <pbm_writepbmrow+0x398>
  4040f0:	28 00 00 00 04 00 03 10 	lw $3,4($16)
  4040f8:	28 00 00 00 0c 00 02 10 	lw $2,12($16)
  404100:	5d 00 00 00 00 02 02 03 	sltu $2,$3,$2
  404108:	05 00 00 00 0a 00 00 02 	beq $2,$0,404138 <pbm_writepbmrow+0x618>
  404110:	43 00 00 00 01 00 02 03 	addiu $2,$3,1
  404118:	34 00 00 00 04 00 02 10 	sw $2,4($16)
  404120:	43 00 00 00 0a 00 02 00 	addiu $2,$0,10
  404128:	30 00 00 00 00 00 02 03 	sb $2,0($3)
  404130:	01 00 00 00 54 10 10 00 	j 404150 <pbm_writepbmrow+0x630>
  404138:	42 00 00 00 00 04 10 00 	addu $4,$0,$16
  404140:	43 00 00 00 0a 00 05 00 	addiu $5,$0,10
  404148:	02 00 00 00 28 86 11 00 	jal 4618a0 <__flshfp>
  404150:	28 00 00 00 3c 00 1f 1d 	lw $31,60($29)
  404158:	28 00 00 00 38 00 16 1d 	lw $22,56($29)
  404160:	28 00 00 00 34 00 15 1d 	lw $21,52($29)
  404168:	28 00 00 00 30 00 14 1d 	lw $20,48($29)
  404170:	28 00 00 00 2c 00 13 1d 	lw $19,44($29)
  404178:	28 00 00 00 28 00 12 1d 	lw $18,40($29)
  404180:	28 00 00 00 24 00 11 1d 	lw $17,36($29)
  404188:	28 00 00 00 20 00 10 1d 	lw $16,32($29)
  404190:	43 00 00 00 40 00 1d 1d 	addiu $29,$29,64
  404198:	03 00 00 00 00 00 00 1f 	jr $31

004041a0 <pbm_writepbm>:
  4041a0:	43 00 00 00 c0 ff 1d 1d 	addiu $29,$29,-64
  4041a8:	34 00 00 00 34 00 15 1d 	sw $21,52($29)
  4041b0:	28 00 00 00 50 00 15 1d 	lw $21,80($29)
  4041b8:	34 00 00 00 28 00 12 1d 	sw $18,40($29)
  4041c0:	42 00 00 00 00 12 04 00 	addu $18,$0,$4
  4041c8:	34 00 00 00 20 00 10 1d 	sw $16,32($29)
  4041d0:	42 00 00 00 00 10 05 00 	addu $16,$0,$5
  4041d8:	34 00 00 00 2c 00 13 1d 	sw $19,44($29)
  4041e0:	42 00 00 00 00 13 06 00 	addu $19,$0,$6
  4041e8:	34 00 00 00 30 00 14 1d 	sw $20,48($29)
  4041f0:	42 00 00 00 00 14 07 00 	addu $20,$0,$7
  4041f8:	34 00 00 00 38 00 1f 1d 	sw $31,56($29)
  404200:	34 00 00 00 24 00 11 1d 	sw $17,36($29)
  404208:	06 00 00 00 0a 00 00 15 	bne $21,$0,404238 <pbm_writepbm+0x98>
  404210:	a2 00 00 00 00 10 05 00 	lui $5,4096
  404218:	43 00 00 00 60 01 05 05 	addiu $5,$5,352
  404220:	43 00 00 00 50 00 06 00 	addiu $6,$0,80
  404228:	43 00 00 00 34 00 07 00 	addiu $7,$0,52
  404230:	01 00 00 00 98 10 10 00 	j 404260 <pbm_writepbm+0xc0>
  404238:	42 00 00 00 00 04 12 00 	addu $4,$0,$18
  404240:	a2 00 00 00 00 10 05 00 	lui $5,4096
  404248:	43 00 00 00 60 01 05 05 	addiu $5,$5,352
  404250:	43 00 00 00 50 00 06 00 	addiu $6,$0,80
  404258:	43 00 00 00 31 00 07 00 	addiu $7,$0,49
  404260:	34 00 00 00 10 00 13 1d 	sw $19,16($29)
  404268:	34 00 00 00 14 00 14 1d 	sw $20,20($29)
  404270:	02 00 00 00 4c 74 11 00 	jal 45d130 <fprintf>
  404278:	42 00 00 00 00 11 00 00 	addu $17,$0,$0
  404280:	07 00 00 00 6a 00 00 14 	blez $20,404430 <pbm_writepbm+0x290>
  404288:	4f 00 00 00 03 00 03 14 	andi $3,$20,3
  404290:	05 00 00 00 36 00 00 03 	beq $3,$0,404370 <pbm_writepbm+0x1d0>
  404298:	5c 00 00 00 02 00 02 03 	slti $2,$3,2
  4042a0:	06 00 00 00 20 00 00 02 	bne $2,$0,404328 <pbm_writepbm+0x188>
  4042a8:	5c 00 00 00 03 00 02 03 	slti $2,$3,3
  4042b0:	06 00 00 00 0e 00 00 02 	bne $2,$0,4042f0 <pbm_writepbm+0x150>
  4042b8:	42 00 00 00 00 04 12 00 	addu $4,$0,$18
  4042c0:	28 00 00 00 00 00 05 10 	lw $5,0($16)
  4042c8:	42 00 00 00 00 06 13 00 	addu $6,$0,$19
  4042d0:	42 00 00 00 00 07 15 00 	addu $7,$0,$21
  4042d8:	43 00 00 00 01 00 11 00 	addiu $17,$0,1
  4042e0:	02 00 00 00 c8 0e 10 00 	jal 403b20 <pbm_writepbmrow>
  4042e8:	43 00 00 00 04 00 10 10 	addiu $16,$16,4
  4042f0:	42 00 00 00 00 04 12 00 	addu $4,$0,$18
  4042f8:	28 00 00 00 00 00 05 10 	lw $5,0($16)
  404300:	42 00 00 00 00 06 13 00 	addu $6,$0,$19
  404308:	42 00 00 00 00 07 15 00 	addu $7,$0,$21
  404310:	43 00 00 00 01 00 11 11 	addiu $17,$17,1
  404318:	02 00 00 00 c8 0e 10 00 	jal 403b20 <pbm_writepbmrow>
  404320:	43 00 00 00 04 00 10 10 	addiu $16,$16,4
  404328:	42 00 00 00 00 04 12 00 	addu $4,$0,$18
  404330:	28 00 00 00 00 00 05 10 	lw $5,0($16)
  404338:	42 00 00 00 00 06 13 00 	addu $6,$0,$19
  404340:	42 00 00 00 00 07 15 00 	addu $7,$0,$21
  404348:	43 00 00 00 01 00 11 11 	addiu $17,$17,1
  404350:	02 00 00 00 c8 0e 10 00 	jal 403b20 <pbm_writepbmrow>
  404358:	43 00 00 00 04 00 10 10 	addiu $16,$16,4
  404360:	5b 00 00 00 00 02 14 11 	slt $2,$17,$20
  404368:	05 00 00 00 30 00 00 02 	beq $2,$0,404430 <pbm_writepbm+0x290>
  404370:	42 00 00 00 00 04 12 00 	addu $4,$0,$18
  404378:	28 00 00 00 00 00 05 10 	lw $5,0($16)
  404380:	42 00 00 00 00 06 13 00 	addu $6,$0,$19
  404388:	42 00 00 00 00 07 15 00 	addu $7,$0,$21
  404390:	43 00 00 00 04 00 11 11 	addiu $17,$17,4
  404398:	02 00 00 00 c8 0e 10 00 	jal 403b20 <pbm_writepbmrow>
  4043a0:	42 00 00 00 00 04 12 00 	addu $4,$0,$18
  4043a8:	28 00 00 00 04 00 05 10 	lw $5,4($16)
  4043b0:	42 00 00 00 00 06 13 00 	addu $6,$0,$19
  4043b8:	42 00 00 00 00 07 15 00 	addu $7,$0,$21
  4043c0:	02 00 00 00 c8 0e 10 00 	jal 403b20 <pbm_writepbmrow>
  4043c8:	42 00 00 00 00 04 12 00 	addu $4,$0,$18
  4043d0:	28 00 00 00 08 00 05 10 	lw $5,8($16)
  4043d8:	42 00 00 00 00 06 13 00 	addu $6,$0,$19
  4043e0:	42 00 00 00 00 07 15 00 	addu $7,$0,$21
  4043e8:	02 00 00 00 c8 0e 10 00 	jal 403b20 <pbm_writepbmrow>
  4043f0:	42 00 00 00 00 04 12 00 	addu $4,$0,$18
  4043f8:	28 00 00 00 0c 00 05 10 	lw $5,12($16)
  404400:	42 00 00 00 00 06 13 00 	addu $6,$0,$19
  404408:	42 00 00 00 00 07 15 00 	addu $7,$0,$21
  404410:	02 00 00 00 c8 0e 10 00 	jal 403b20 <pbm_writepbmrow>
  404418:	43 00 00 00 10 00 10 10 	addiu $16,$16,16
  404420:	5b 00 00 00 00 02 14 11 	slt $2,$17,$20
  404428:	06 00 00 00 d0 ff 00 02 	bne $2,$0,404370 <pbm_writepbm+0x1d0>
  404430:	28 00 00 00 38 00 1f 1d 	lw $31,56($29)
  404438:	28 00 00 00 34 00 15 1d 	lw $21,52($29)
  404440:	28 00 00 00 30 00 14 1d 	lw $20,48($29)
  404448:	28 00 00 00 2c 00 13 1d 	lw $19,44($29)
  404450:	28 00 00 00 28 00 12 1d 	lw $18,40($29)
  404458:	28 00 00 00 24 00 11 1d 	lw $17,36($29)
  404460:	28 00 00 00 20 00 10 1d 	lw $16,32($29)
  404468:	43 00 00 00 40 00 1d 1d 	addiu $29,$29,64
  404470:	03 00 00 00 00 00 00 1f 	jr $31
	...

00404480 <pbm_getc>:
  404480:	43 00 00 00 d8 ff 1d 1d 	addiu $29,$29,-40
  404488:	34 00 00 00 14 00 11 1d 	sw $17,20($29)
  404490:	42 00 00 00 00 11 04 00 	addu $17,$0,$4
  404498:	34 00 00 00 24 00 1f 1d 	sw $31,36($29)
  4044a0:	34 00 00 00 20 00 14 1d 	sw $20,32($29)
  4044a8:	34 00 00 00 1c 00 13 1d 	sw $19,28($29)
  4044b0:	34 00 00 00 18 00 12 1d 	sw $18,24($29)
  4044b8:	34 00 00 00 10 00 10 1d 	sw $16,16($29)
  4044c0:	28 00 00 00 04 00 03 11 	lw $3,4($17)
  4044c8:	28 00 00 00 08 00 02 11 	lw $2,8($17)
  4044d0:	5d 00 00 00 00 02 02 03 	sltu $2,$3,$2
  4044d8:	05 00 00 00 08 00 00 02 	beq $2,$0,404500 <pbm_getc+0x80>
  4044e0:	43 00 00 00 01 00 02 03 	addiu $2,$3,1
  4044e8:	34 00 00 00 04 00 02 11 	sw $2,4($17)
  4044f0:	22 00 00 00 00 00 10 03 	lbu $16,0($3)
  4044f8:	01 00 00 00 46 11 10 00 	j 404518 <pbm_getc+0x98>
  404500:	42 00 00 00 00 04 11 00 	addu $4,$0,$17
  404508:	02 00 00 00 76 87 11 00 	jal 461dd8 <__fillbf>
  404510:	42 00 00 00 00 10 02 00 	addu $16,$0,$2
  404518:	43 00 00 00 ff ff 02 00 	addiu $2,$0,-1
  404520:	06 00 00 00 06 00 02 10 	bne $16,$2,404540 <pbm_getc+0xc0>
  404528:	a2 00 00 00 00 10 04 00 	lui $4,4096
  404530:	43 00 00 00 70 01 04 04 	addiu $4,$4,368
  404538:	02 00 00 00 30 05 10 00 	jal 4014c0 <pm_error>
  404540:	42 00 00 00 00 04 10 00 	addu $4,$0,$16
  404548:	55 00 00 00 18 02 10 00 	sll $2,$16,0x18
  404550:	59 00 00 00 18 02 02 00 	sra $2,$2,0x18
  404558:	43 00 00 00 23 00 03 00 	addiu $3,$0,35
  404560:	06 00 00 00 2e 00 03 02 	bne $2,$3,404620 <pbm_getc+0x1a0>
  404568:	43 00 00 00 ff ff 14 00 	addiu $20,$0,-1
  404570:	43 00 00 00 0a 00 13 00 	addiu $19,$0,10
  404578:	43 00 00 00 0d 00 12 00 	addiu $18,$0,13
  404580:	28 00 00 00 04 00 03 11 	lw $3,4($17)
  404588:	28 00 00 00 08 00 02 11 	lw $2,8($17)
  404590:	5d 00 00 00 00 02 02 03 	sltu $2,$3,$2
  404598:	05 00 00 00 08 00 00 02 	beq $2,$0,4045c0 <pbm_getc+0x140>
  4045a0:	43 00 00 00 01 00 02 03 	addiu $2,$3,1
  4045a8:	34 00 00 00 04 00 02 11 	sw $2,4($17)
  4045b0:	22 00 00 00 00 00 10 03 	lbu $16,0($3)
  4045b8:	01 00 00 00 76 11 10 00 	j 4045d8 <pbm_getc+0x158>
  4045c0:	42 00 00 00 00 04 11 00 	addu $4,$0,$17
  4045c8:	02 00 00 00 76 87 11 00 	jal 461dd8 <__fillbf>
  4045d0:	42 00 00 00 00 10 02 00 	addu $16,$0,$2
  4045d8:	06 00 00 00 06 00 14 10 	bne $16,$20,4045f8 <pbm_getc+0x178>
  4045e0:	a2 00 00 00 00 10 04 00 	lui $4,4096
  4045e8:	43 00 00 00 70 01 04 04 	addiu $4,$4,368
  4045f0:	02 00 00 00 30 05 10 00 	jal 4014c0 <pm_error>
  4045f8:	42 00 00 00 00 04 10 00 	addu $4,$0,$16
  404600:	55 00 00 00 18 02 10 00 	sll $2,$16,0x18
  404608:	59 00 00 00 18 02 02 00 	sra $2,$2,0x18
  404610:	05 00 00 00 02 00 13 02 	beq $2,$19,404620 <pbm_getc+0x1a0>
  404618:	06 00 00 00 d8 ff 12 02 	bne $2,$18,404580 <pbm_getc+0x100>
  404620:	55 00 00 00 18 02 04 00 	sll $2,$4,0x18
  404628:	59 00 00 00 18 02 02 00 	sra $2,$2,0x18
  404630:	28 00 00 00 24 00 1f 1d 	lw $31,36($29)
  404638:	28 00 00 00 20 00 14 1d 	lw $20,32($29)
  404640:	28 00 00 00 1c 00 13 1d 	lw $19,28($29)
  404648:	28 00 00 00 18 00 12 1d 	lw $18,24($29)
  404650:	28 00 00 00 14 00 11 1d 	lw $17,20($29)
  404658:	28 00 00 00 10 00 10 1d 	lw $16,16($29)
  404660:	43 00 00 00 28 00 1d 1d 	addiu $29,$29,40
  404668:	03 00 00 00 00 00 00 1f 	jr $31

00404670 <pbm_getrawbyte>:
  404670:	43 00 00 00 e8 ff 1d 1d 	addiu $29,$29,-24
  404678:	34 00 00 00 14 00 1f 1d 	sw $31,20($29)
  404680:	34 00 00 00 10 00 10 1d 	sw $16,16($29)
  404688:	28 00 00 00 04 00 03 04 	lw $3,4($4)
  404690:	28 00 00 00 08 00 02 04 	lw $2,8($4)
  404698:	5d 00 00 00 00 02 02 03 	sltu $2,$3,$2
  4046a0:	05 00 00 00 08 00 00 02 	beq $2,$0,4046c8 <pbm_getrawbyte+0x58>
  4046a8:	43 00 00 00 01 00 02 03 	addiu $2,$3,1
  4046b0:	34 00 00 00 04 00 02 04 	sw $2,4($4)
  4046b8:	22 00 00 00 00 00 10 03 	lbu $16,0($3)
  4046c0:	01 00 00 00 b6 11 10 00 	j 4046d8 <pbm_getrawbyte+0x68>
  4046c8:	02 00 00 00 76 87 11 00 	jal 461dd8 <__fillbf>
  4046d0:	42 00 00 00 00 10 02 00 	addu $16,$0,$2
  4046d8:	43 00 00 00 ff ff 02 00 	addiu $2,$0,-1
  4046e0:	06 00 00 00 06 00 02 10 	bne $16,$2,404700 <pbm_getrawbyte+0x90>
  4046e8:	a2 00 00 00 00 10 04 00 	lui $4,4096
  4046f0:	43 00 00 00 70 01 04 04 	addiu $4,$4,368
  4046f8:	02 00 00 00 30 05 10 00 	jal 4014c0 <pm_error>
  404700:	4f 00 00 00 ff 00 02 10 	andi $2,$16,255
  404708:	28 00 00 00 14 00 1f 1d 	lw $31,20($29)
  404710:	28 00 00 00 10 00 10 1d 	lw $16,16($29)
  404718:	43 00 00 00 18 00 1d 1d 	addiu $29,$29,24
  404720:	03 00 00 00 00 00 00 1f 	jr $31

00404728 <pbm_getint>:
  404728:	43 00 00 00 d0 ff 1d 1d 	addiu $29,$29,-48
  404730:	34 00 00 00 14 00 11 1d 	sw $17,20($29)
  404738:	42 00 00 00 00 11 04 00 	addu $17,$0,$4
  404740:	34 00 00 00 1c 00 13 1d 	sw $19,28($29)
  404748:	43 00 00 00 ff ff 13 00 	addiu $19,$0,-1
  404750:	34 00 00 00 24 00 15 1d 	sw $21,36($29)
  404758:	43 00 00 00 23 00 15 00 	addiu $21,$0,35
  404760:	34 00 00 00 20 00 14 1d 	sw $20,32($29)
  404768:	43 00 00 00 0a 00 14 00 	addiu $20,$0,10
  404770:	34 00 00 00 18 00 12 1d 	sw $18,24($29)
  404778:	43 00 00 00 0d 00 12 00 	addiu $18,$0,13
  404780:	34 00 00 00 28 00 1f 1d 	sw $31,40($29)
  404788:	34 00 00 00 10 00 10 1d 	sw $16,16($29)
  404790:	28 00 00 00 04 00 03 11 	lw $3,4($17)
  404798:	28 00 00 00 08 00 02 11 	lw $2,8($17)
  4047a0:	5d 00 00 00 00 02 02 03 	sltu $2,$3,$2
  4047a8:	05 00 00 00 08 00 00 02 	beq $2,$0,4047d0 <pbm_getint+0xa8>
  4047b0:	43 00 00 00 01 00 02 03 	addiu $2,$3,1
  4047b8:	34 00 00 00 04 00 02 11 	sw $2,4($17)
  4047c0:	22 00 00 00 00 00 10 03 	lbu $16,0($3)
  4047c8:	01 00 00 00 fa 11 10 00 	j 4047e8 <pbm_getint+0xc0>
  4047d0:	42 00 00 00 00 04 11 00 	addu $4,$0,$17
  4047d8:	02 00 00 00 76 87 11 00 	jal 461dd8 <__fillbf>
  4047e0:	42 00 00 00 00 10 02 00 	addu $16,$0,$2
  4047e8:	06 00 00 00 06 00 13 10 	bne $16,$19,404808 <pbm_getint+0xe0>
  4047f0:	a2 00 00 00 00 10 04 00 	lui $4,4096
  4047f8:	43 00 00 00 70 01 04 04 	addiu $4,$4,368
  404800:	02 00 00 00 30 05 10 00 	jal 4014c0 <pm_error>
  404808:	42 00 00 00 00 03 10 00 	addu $3,$0,$16
  404810:	55 00 00 00 18 02 10 00 	sll $2,$16,0x18
  404818:	59 00 00 00 18 02 02 00 	sra $2,$2,0x18
  404820:	06 00 00 00 28 00 15 02 	bne $2,$21,4048c8 <pbm_getint+0x1a0>
  404828:	28 00 00 00 04 00 03 11 	lw $3,4($17)
  404830:	28 00 00 00 08 00 02 11 	lw $2,8($17)
  404838:	5d 00 00 00 00 02 02 03 	sltu $2,$3,$2
  404840:	05 00 00 00 08 00 00 02 	beq $2,$0,404868 <pbm_getint+0x140>
  404848:	43 00 00 00 01 00 02 03 	addiu $2,$3,1
  404850:	34 00 00 00 04 00 02 11 	sw $2,4($17)
  404858:	22 00 00 00 00 00 10 03 	lbu $16,0($3)
  404860:	01 00 00 00 20 12 10 00 	j 404880 <pbm_getint+0x158>
  404868:	42 00 00 00 00 04 11 00 	addu $4,$0,$17
  404870:	02 00 00 00 76 87 11 00 	jal 461dd8 <__fillbf>
  404878:	42 00 00 00 00 10 02 00 	addu $16,$0,$2
  404880:	06 00 00 00 06 00 13 10 	bne $16,$19,4048a0 <pbm_getint+0x178>
  404888:	a2 00 00 00 00 10 04 00 	lui $4,4096
  404890:	43 00 00 00 70 01 04 04 	addiu $4,$4,368
  404898:	02 00 00 00 30 05 10 00 	jal 4014c0 <pm_error>
  4048a0:	42 00 00 00 00 03 10 00 	addu $3,$0,$16
  4048a8:	55 00 00 00 18 02 10 00 	sll $2,$16,0x18
  4048b0:	59 00 00 00 18 02 02 00 	sra $2,$2,0x18
  4048b8:	05 00 00 00 02 00 14 02 	beq $2,$20,4048c8 <pbm_getint+0x1a0>
  4048c0:	06 00 00 00 d8 ff 12 02 	bne $2,$18,404828 <pbm_getint+0x100>
  4048c8:	55 00 00 00 18 02 03 00 	sll $2,$3,0x18
  4048d0:	59 00 00 00 18 03 02 00 	sra $3,$2,0x18
  4048d8:	42 00 00 00 00 10 03 00 	addu $16,$0,$3
  4048e0:	43 00 00 00 20 00 02 00 	addiu $2,$0,32
  4048e8:	05 00 00 00 a8 ff 02 03 	beq $3,$2,404790 <pbm_getint+0x68>
  4048f0:	43 00 00 00 f7 ff 02 10 	addiu $2,$16,-9
  4048f8:	4f 00 00 00 ff 00 02 02 	andi $2,$2,255
  404900:	5e 00 00 00 02 00 02 02 	sltiu $2,$2,2
  404908:	06 00 00 00 a0 ff 00 02 	bne $2,$0,404790 <pbm_getint+0x68>
  404910:	05 00 00 00 9e ff 12 03 	beq $3,$18,404790 <pbm_getint+0x68>
  404918:	43 00 00 00 d0 ff 02 10 	addiu $2,$16,-48
  404920:	4f 00 00 00 ff 00 02 02 	andi $2,$2,255
  404928:	5e 00 00 00 0a 00 02 02 	sltiu $2,$2,10
  404930:	06 00 00 00 06 00 00 02 	bne $2,$0,404950 <pbm_getint+0x228>
  404938:	a2 00 00 00 00 10 04 00 	lui $4,4096
  404940:	43 00 00 00 84 01 04 04 	addiu $4,$4,388
  404948:	02 00 00 00 30 05 10 00 	jal 4014c0 <pm_error>
  404950:	42 00 00 00 00 12 00 00 	addu $18,$0,$0
  404958:	43 00 00 00 ff ff 13 00 	addiu $19,$0,-1
  404960:	43 00 00 00 0a 00 15 00 	addiu $21,$0,10
  404968:	43 00 00 00 0d 00 14 00 	addiu $20,$0,13
  404970:	55 00 00 00 02 02 12 00 	sll $2,$18,0x2
  404978:	42 00 00 00 00 02 12 02 	addu $2,$2,$18
  404980:	55 00 00 00 01 02 02 00 	sll $2,$2,0x1
  404988:	55 00 00 00 18 03 10 00 	sll $3,$16,0x18
  404990:	59 00 00 00 18 03 03 00 	sra $3,$3,0x18
  404998:	28 00 00 00 04 00 05 11 	lw $5,4($17)
  4049a0:	28 00 00 00 08 00 04 11 	lw $4,8($17)
  4049a8:	42 00 00 00 00 02 03 02 	addu $2,$2,$3
  4049b0:	43 00 00 00 d0 ff 12 02 	addiu $18,$2,-48
  4049b8:	5d 00 00 00 00 04 04 05 	sltu $4,$5,$4
  4049c0:	05 00 00 00 08 00 00 04 	beq $4,$0,4049e8 <pbm_getint+0x2c0>
  4049c8:	43 00 00 00 01 00 02 05 	addiu $2,$5,1
  4049d0:	34 00 00 00 04 00 02 11 	sw $2,4($17)
  4049d8:	22 00 00 00 00 00 10 05 	lbu $16,0($5)
  4049e0:	01 00 00 00 80 12 10 00 	j 404a00 <pbm_getint+0x2d8>
  4049e8:	42 00 00 00 00 04 11 00 	addu $4,$0,$17
  4049f0:	02 00 00 00 76 87 11 00 	jal 461dd8 <__fillbf>
  4049f8:	42 00 00 00 00 10 02 00 	addu $16,$0,$2
  404a00:	06 00 00 00 06 00 13 10 	bne $16,$19,404a20 <pbm_getint+0x2f8>
  404a08:	a2 00 00 00 00 10 04 00 	lui $4,4096
  404a10:	43 00 00 00 70 01 04 04 	addiu $4,$4,368
  404a18:	02 00 00 00 30 05 10 00 	jal 4014c0 <pm_error>
  404a20:	42 00 00 00 00 04 10 00 	addu $4,$0,$16
  404a28:	55 00 00 00 18 02 10 00 	sll $2,$16,0x18
  404a30:	59 00 00 00 18 02 02 00 	sra $2,$2,0x18
  404a38:	43 00 00 00 23 00 03 00 	addiu $3,$0,35
  404a40:	06 00 00 00 28 00 03 02 	bne $2,$3,404ae8 <pbm_getint+0x3c0>
  404a48:	28 00 00 00 04 00 04 11 	lw $4,4($17)
  404a50:	28 00 00 00 08 00 02 11 	lw $2,8($17)
  404a58:	5d 00 00 00 00 02 02 04 	sltu $2,$4,$2
  404a60:	05 00 00 00 08 00 00 02 	beq $2,$0,404a88 <pbm_getint+0x360>
  404a68:	43 00 00 00 01 00 02 04 	addiu $2,$4,1
  404a70:	34 00 00 00 04 00 02 11 	sw $2,4($17)
  404a78:	22 00 00 00 00 00 10 04 	lbu $16,0($4)
  404a80:	01 00 00 00 a8 12 10 00 	j 404aa0 <pbm_getint+0x378>
  404a88:	42 00 00 00 00 04 11 00 	addu $4,$0,$17
  404a90:	02 00 00 00 76 87 11 00 	jal 461dd8 <__fillbf>
  404a98:	42 00 00 00 00 10 02 00 	addu $16,$0,$2
  404aa0:	06 00 00 00 06 00 13 10 	bne $16,$19,404ac0 <pbm_getint+0x398>
  404aa8:	a2 00 00 00 00 10 04 00 	lui $4,4096
  404ab0:	43 00 00 00 70 01 04 04 	addiu $4,$4,368
  404ab8:	02 00 00 00 30 05 10 00 	jal 4014c0 <pm_error>
  404ac0:	42 00 00 00 00 04 10 00 	addu $4,$0,$16
  404ac8:	55 00 00 00 18 02 10 00 	sll $2,$16,0x18
  404ad0:	59 00 00 00 18 02 02 00 	sra $2,$2,0x18
  404ad8:	05 00 00 00 02 00 15 02 	beq $2,$21,404ae8 <pbm_getint+0x3c0>
  404ae0:	06 00 00 00 d8 ff 14 02 	bne $2,$20,404a48 <pbm_getint+0x320>
  404ae8:	42 00 00 00 00 10 04 00 	addu $16,$0,$4
  404af0:	43 00 00 00 d0 ff 02 10 	addiu $2,$16,-48
  404af8:	4f 00 00 00 ff 00 02 02 	andi $2,$2,255
  404b00:	5e 00 00 00 0a 00 02 02 	sltiu $2,$2,10
  404b08:	06 00 00 00 98 ff 00 02 	bne $2,$0,404970 <pbm_getint+0x248>
  404b10:	42 00 00 00 00 02 12 00 	addu $2,$0,$18
  404b18:	28 00 00 00 28 00 1f 1d 	lw $31,40($29)
  404b20:	28 00 00 00 24 00 15 1d 	lw $21,36($29)
  404b28:	28 00 00 00 20 00 14 1d 	lw $20,32($29)
  404b30:	28 00 00 00 1c 00 13 1d 	lw $19,28($29)
  404b38:	28 00 00 00 18 00 12 1d 	lw $18,24($29)
  404b40:	28 00 00 00 14 00 11 1d 	lw $17,20($29)
  404b48:	28 00 00 00 10 00 10 1d 	lw $16,16($29)
  404b50:	43 00 00 00 30 00 1d 1d 	addiu $29,$29,48
  404b58:	03 00 00 00 00 00 00 1f 	jr $31

00404b60 <pbm_defaultfont>:
  404b60:	43 00 00 00 e0 ff 1d 1d 	addiu $29,$29,-32
  404b68:	34 00 00 00 10 00 10 1d 	sw $16,16($29)
  404b70:	42 00 00 00 00 10 04 00 	addu $16,$0,$4
  404b78:	34 00 00 00 14 00 11 1d 	sw $17,20($29)
  404b80:	42 00 00 00 00 11 05 00 	addu $17,$0,$5
  404b88:	43 00 00 00 70 00 04 00 	addiu $4,$0,112
  404b90:	43 00 00 00 9b 00 05 00 	addiu $5,$0,155
  404b98:	43 00 00 00 01 00 06 00 	addiu $6,$0,1
  404ba0:	34 00 00 00 18 00 1f 1d 	sw $31,24($29)
  404ba8:	02 00 00 00 a8 00 10 00 	jal 4002a0 <pm_allocarray>
  404bb0:	42 00 00 00 00 0b 00 00 	addu $11,$0,$0
  404bb8:	43 00 00 00 01 00 09 00 	addiu $9,$0,1
  404bc0:	42 00 00 00 00 0c 02 00 	addu $12,$0,$2
  404bc8:	42 00 00 00 00 07 0c 00 	addu $7,$0,$12
  404bd0:	a2 00 00 00 00 10 0a 00 	lui $10,4096
  404bd8:	43 00 00 00 20 46 0a 0a 	addiu $10,$10,17952
  404be0:	42 00 00 00 00 08 00 00 	addu $8,$0,$0
  404be8:	42 00 00 00 00 02 08 00 	addu $2,$0,$8
  404bf0:	0a 00 00 00 02 00 00 08 	bgez $8,404c00 <pbm_defaultfont+0xa0>
  404bf8:	43 00 00 00 1f 00 02 08 	addiu $2,$8,31
  404c00:	59 00 00 00 05 02 02 00 	sra $2,$2,0x5
  404c08:	55 00 00 00 02 02 02 00 	sll $2,$2,0x2
  404c10:	42 00 00 00 00 02 0a 02 	addu $2,$2,$10
  404c18:	28 00 00 00 00 00 06 02 	lw $6,0($2)
  404c20:	43 00 00 00 20 00 03 08 	addiu $3,$8,32
  404c28:	5c 00 00 00 71 00 02 03 	slti $2,$3,113
  404c30:	06 00 00 00 02 00 00 02 	bne $2,$0,404c40 <pbm_defaultfont+0xe0>
  404c38:	43 00 00 00 70 00 03 00 	addiu $3,$0,112
  404c40:	43 00 00 00 ff ff 04 03 	addiu $4,$3,-1
  404c48:	5b 00 00 00 00 02 08 04 	slt $2,$4,$8
  404c50:	06 00 00 00 b6 00 00 02 	bne $2,$0,404f30 <pbm_defaultfont+0x3d0>
  404c58:	43 00 00 00 ff ff 03 08 	addiu $3,$8,-1
  404c60:	45 00 00 00 00 02 04 03 	subu $2,$3,$4
  404c68:	4f 00 00 00 03 00 05 02 	andi $5,$2,3
  404c70:	5b 00 00 00 00 03 04 03 	slt $3,$3,$4
  404c78:	05 00 00 00 36 00 00 03 	beq $3,$0,404d58 <pbm_defaultfont+0x1f8>
  404c80:	05 00 00 00 4e 00 00 05 	beq $5,$0,404dc0 <pbm_defaultfont+0x260>
  404c88:	5c 00 00 00 03 00 02 05 	slti $2,$5,3
  404c90:	05 00 00 00 30 00 00 02 	beq $2,$0,404d58 <pbm_defaultfont+0x1f8>
  404c98:	5c 00 00 00 02 00 02 05 	slti $2,$5,2
  404ca0:	05 00 00 00 16 00 00 02 	beq $2,$0,404d00 <pbm_defaultfont+0x1a0>
  404ca8:	4f 00 00 00 01 00 02 06 	andi $2,$6,1
  404cb0:	05 00 00 00 08 00 00 02 	beq $2,$0,404cd8 <pbm_defaultfont+0x178>
  404cb8:	28 00 00 00 00 00 02 07 	lw $2,0($7)
  404cc0:	42 00 00 00 00 02 04 02 	addu $2,$2,$4
  404cc8:	30 00 00 00 00 00 09 02 	sb $9,0($2)
  404cd0:	01 00 00 00 3c 13 10 00 	j 404cf0 <pbm_defaultfont+0x190>
  404cd8:	28 00 00 00 00 00 02 07 	lw $2,0($7)
  404ce0:	42 00 00 00 00 02 04 02 	addu $2,$2,$4
  404ce8:	30 00 00 00 00 00 00 02 	sb $0,0($2)
  404cf0:	57 00 00 00 01 06 06 00 	srl $6,$6,0x1
  404cf8:	43 00 00 00 ff ff 04 04 	addiu $4,$4,-1
  404d00:	4f 00 00 00 01 00 02 06 	andi $2,$6,1
  404d08:	05 00 00 00 08 00 00 02 	beq $2,$0,404d30 <pbm_defaultfont+0x1d0>
  404d10:	28 00 00 00 00 00 02 07 	lw $2,0($7)
  404d18:	42 00 00 00 00 02 04 02 	addu $2,$2,$4
  404d20:	30 00 00 00 00 00 09 02 	sb $9,0($2)
  404d28:	01 00 00 00 52 13 10 00 	j 404d48 <pbm_defaultfont+0x1e8>
  404d30:	28 00 00 00 00 00 02 07 	lw $2,0($7)
  404d38:	42 00 00 00 00 02 04 02 	addu $2,$2,$4
  404d40:	30 00 00 00 00 00 00 02 	sb $0,0($2)
  404d48:	57 00 00 00 01 06 06 00 	srl $6,$6,0x1
  404d50:	43 00 00 00 ff ff 04 04 	addiu $4,$4,-1
  404d58:	4f 00 00 00 01 00 02 06 	andi $2,$6,1
  404d60:	05 00 00 00 08 00 00 02 	beq $2,$0,404d88 <pbm_defaultfont+0x228>
  404d68:	28 00 00 00 00 00 02 07 	lw $2,0($7)
  404d70:	42 00 00 00 00 02 04 02 	addu $2,$2,$4
  404d78:	30 00 00 00 00 00 09 02 	sb $9,0($2)
  404d80:	01 00 00 00 68 13 10 00 	j 404da0 <pbm_defaultfont+0x240>
  404d88:	28 00 00 00 00 00 02 07 	lw $2,0($7)
  404d90:	42 00 00 00 00 02 04 02 	addu $2,$2,$4
  404d98:	30 00 00 00 00 00 00 02 	sb $0,0($2)
  404da0:	57 00 00 00 01 06 06 00 	srl $6,$6,0x1
  404da8:	43 00 00 00 ff ff 04 04 	addiu $4,$4,-1
  404db0:	5b 00 00 00 00 02 08 04 	slt $2,$4,$8
  404db8:	06 00 00 00 5c 00 00 02 	bne $2,$0,404f30 <pbm_defaultfont+0x3d0>
  404dc0:	4f 00 00 00 01 00 02 06 	andi $2,$6,1
  404dc8:	05 00 00 00 08 00 00 02 	beq $2,$0,404df0 <pbm_defaultfont+0x290>
  404dd0:	28 00 00 00 00 00 02 07 	lw $2,0($7)
  404dd8:	42 00 00 00 00 02 04 02 	addu $2,$2,$4
  404de0:	30 00 00 00 00 00 09 02 	sb $9,0($2)
  404de8:	01 00 00 00 82 13 10 00 	j 404e08 <pbm_defaultfont+0x2a8>
  404df0:	28 00 00 00 00 00 02 07 	lw $2,0($7)
  404df8:	42 00 00 00 00 02 04 02 	addu $2,$2,$4
  404e00:	30 00 00 00 00 00 00 02 	sb $0,0($2)
  404e08:	57 00 00 00 01 06 06 00 	srl $6,$6,0x1
  404e10:	43 00 00 00 ff ff 03 04 	addiu $3,$4,-1
  404e18:	4f 00 00 00 01 00 02 06 	andi $2,$6,1
  404e20:	05 00 00 00 08 00 00 02 	beq $2,$0,404e48 <pbm_defaultfont+0x2e8>
  404e28:	28 00 00 00 00 00 02 07 	lw $2,0($7)
  404e30:	42 00 00 00 00 02 03 02 	addu $2,$2,$3
  404e38:	30 00 00 00 00 00 09 02 	sb $9,0($2)
  404e40:	01 00 00 00 98 13 10 00 	j 404e60 <pbm_defaultfont+0x300>
  404e48:	28 00 00 00 00 00 02 07 	lw $2,0($7)
  404e50:	42 00 00 00 00 02 03 02 	addu $2,$2,$3
  404e58:	30 00 00 00 00 00 00 02 	sb $0,0($2)
  404e60:	57 00 00 00 01 06 06 00 	srl $6,$6,0x1
  404e68:	43 00 00 00 fe ff 03 04 	addiu $3,$4,-2
  404e70:	4f 00 00 00 01 00 02 06 	andi $2,$6,1
  404e78:	05 00 00 00 08 00 00 02 	beq $2,$0,404ea0 <pbm_defaultfont+0x340>
  404e80:	28 00 00 00 00 00 02 07 	lw $2,0($7)
  404e88:	42 00 00 00 00 02 03 02 	addu $2,$2,$3
  404e90:	30 00 00 00 00 00 09 02 	sb $9,0($2)
  404e98:	01 00 00 00 ae 13 10 00 	j 404eb8 <pbm_defaultfont+0x358>
  404ea0:	28 00 00 00 00 00 02 07 	lw $2,0($7)
  404ea8:	42 00 00 00 00 02 03 02 	addu $2,$2,$3
  404eb0:	30 00 00 00 00 00 00 02 	sb $0,0($2)
  404eb8:	57 00 00 00 01 06 06 00 	srl $6,$6,0x1
  404ec0:	43 00 00 00 fd ff 03 04 	addiu $3,$4,-3
  404ec8:	4f 00 00 00 01 00 02 06 	andi $2,$6,1
  404ed0:	05 00 00 00 08 00 00 02 	beq $2,$0,404ef8 <pbm_defaultfont+0x398>
  404ed8:	28 00 00 00 00 00 02 07 	lw $2,0($7)
  404ee0:	42 00 00 00 00 02 03 02 	addu $2,$2,$3
  404ee8:	30 00 00 00 00 00 09 02 	sb $9,0($2)
  404ef0:	01 00 00 00 c4 13 10 00 	j 404f10 <pbm_defaultfont+0x3b0>
  404ef8:	28 00 00 00 00 00 02 07 	lw $2,0($7)
  404f00:	42 00 00 00 00 02 03 02 	addu $2,$2,$3
  404f08:	30 00 00 00 00 00 00 02 	sb $0,0($2)
  404f10:	57 00 00 00 01 06 06 00 	srl $6,$6,0x1
  404f18:	43 00 00 00 fc ff 04 04 	addiu $4,$4,-4
  404f20:	5b 00 00 00 00 02 08 04 	slt $2,$4,$8
  404f28:	05 00 00 00 a4 ff 00 02 	beq $2,$0,404dc0 <pbm_defaultfont+0x260>
  404f30:	43 00 00 00 20 00 08 08 	addiu $8,$8,32
  404f38:	5c 00 00 00 70 00 02 08 	slti $2,$8,112
  404f40:	06 00 00 00 28 ff 00 02 	bne $2,$0,404be8 <pbm_defaultfont+0x88>
  404f48:	43 00 00 00 04 00 07 07 	addiu $7,$7,4
  404f50:	43 00 00 00 10 00 0a 0a 	addiu $10,$10,16
  404f58:	43 00 00 00 01 00 0b 0b 	addiu $11,$11,1
  404f60:	5c 00 00 00 9b 00 02 0b 	slti $2,$11,155
  404f68:	06 00 00 00 1c ff 00 02 	bne $2,$0,404be0 <pbm_defaultfont+0x80>
  404f70:	42 00 00 00 00 02 0c 00 	addu $2,$0,$12
  404f78:	43 00 00 00 70 00 03 00 	addiu $3,$0,112
  404f80:	34 00 00 00 00 00 03 10 	sw $3,0($16)
  404f88:	43 00 00 00 9b 00 03 00 	addiu $3,$0,155
  404f90:	34 00 00 00 00 00 03 11 	sw $3,0($17)
  404f98:	28 00 00 00 18 00 1f 1d 	lw $31,24($29)
  404fa0:	28 00 00 00 14 00 11 1d 	lw $17,20($29)
  404fa8:	28 00 00 00 10 00 10 1d 	lw $16,16($29)
  404fb0:	43 00 00 00 20 00 1d 1d 	addiu $29,$29,32
  404fb8:	03 00 00 00 00 00 00 1f 	jr $31

00404fc0 <pbm_dissectfont>:
  404fc0:	43 00 00 00 c0 ff 1d 1d 	addiu $29,$29,-64
  404fc8:	34 00 00 00 24 00 13 1d 	sw $19,36($29)
  404fd0:	42 00 00 00 00 13 05 00 	addu $19,$0,$5
  404fd8:	34 00 00 00 30 00 16 1d 	sw $22,48($29)
  404fe0:	28 00 00 00 50 00 16 1d 	lw $22,80($29)
  404fe8:	a2 00 00 00 aa 2a 02 00 	lui $2,10922
  404ff0:	51 00 00 00 ab aa 02 02 	ori $2,$2,43691
  404ff8:	34 00 00 00 34 00 17 1d 	sw $23,52($29)
  405000:	28 00 00 00 54 00 17 1d 	lw $23,84($29)
  405008:	46 00 00 00 00 00 02 13 	mult $19,$2
  405010:	4a 00 00 00 00 03 00 00 	mfhi $3
  405018:	4c 00 00 00 00 02 00 00 	mflo $2
  405020:	34 00 00 00 38 00 1e 1d 	sw $30,56($29)
  405028:	28 00 00 00 58 00 1e 1d 	lw $30,88($29)
  405030:	34 00 00 00 2c 00 15 1d 	sw $21,44($29)
  405038:	42 00 00 00 00 15 04 00 	addu $21,$0,$4
  405040:	34 00 00 00 18 00 10 1d 	sw $16,24($29)
  405048:	42 00 00 00 00 10 06 00 	addu $16,$0,$6
  405050:	34 00 00 00 28 00 14 1d 	sw $20,40($29)
  405058:	42 00 00 00 00 14 07 00 	addu $20,$0,$7
  405060:	34 00 00 00 20 00 12 1d 	sw $18,32($29)
  405068:	42 00 00 00 00 12 00 00 	addu $18,$0,$0
  405070:	34 00 00 00 3c 00 1f 1d 	sw $31,60($29)
  405078:	34 00 00 00 1c 00 11 1d 	sw $17,28($29)
  405080:	57 00 00 00 00 02 03 00 	srl $2,$3,0x0
  405088:	42 00 00 00 00 03 00 00 	addu $3,$0,$0
  405090:	59 00 00 00 1f 04 13 00 	sra $4,$19,0x1f
  405098:	45 00 00 00 00 02 04 02 	subu $2,$2,$4
  4050a0:	07 00 00 00 76 00 00 02 	blez $2,405280 <pbm_dissectfont+0x2c0>
  4050a8:	42 00 00 00 00 07 15 00 	addu $7,$0,$21
  4050b0:	42 00 00 00 00 08 02 00 	addu $8,$0,$2
  4050b8:	4f 00 00 00 01 00 02 08 	andi $2,$8,1
  4050c0:	05 00 00 00 24 00 00 02 	beq $2,$0,405158 <pbm_dissectfont+0x198>
  4050c8:	28 00 00 00 00 00 05 15 	lw $5,0($21)
  4050d0:	22 00 00 00 00 00 04 05 	lbu $4,0($5)
  4050d8:	43 00 00 00 01 00 03 00 	addiu $3,$0,1
  4050e0:	5b 00 00 00 00 02 10 03 	slt $2,$3,$16
  4050e8:	05 00 00 00 6a 00 00 02 	beq $2,$0,405298 <pbm_dissectfont+0x2d8>
  4050f0:	4f 00 00 00 ff 00 06 04 	andi $6,$4,255
  4050f8:	43 00 00 00 01 00 04 05 	addiu $4,$5,1
  405100:	22 00 00 00 00 00 02 04 	lbu $2,0($4)
  405108:	06 00 00 00 0a 00 06 02 	bne $2,$6,405138 <pbm_dissectfont+0x178>
  405110:	43 00 00 00 01 00 04 04 	addiu $4,$4,1
  405118:	43 00 00 00 01 00 03 03 	addiu $3,$3,1
  405120:	5b 00 00 00 00 02 10 03 	slt $2,$3,$16
  405128:	06 00 00 00 f4 ff 00 02 	bne $2,$0,405100 <pbm_dissectfont+0x140>
  405130:	01 00 00 00 a6 14 10 00 	j 405298 <pbm_dissectfont+0x2d8>
  405138:	43 00 00 00 04 00 07 07 	addiu $7,$7,4
  405140:	43 00 00 00 01 00 12 12 	addiu $18,$18,1
  405148:	5b 00 00 00 00 02 08 12 	slt $2,$18,$8
  405150:	05 00 00 00 4a 00 00 02 	beq $2,$0,405280 <pbm_dissectfont+0x2c0>
  405158:	42 00 00 00 00 06 07 00 	addu $6,$0,$7
  405160:	28 00 00 00 00 00 02 07 	lw $2,0($7)
  405168:	22 00 00 00 00 00 04 02 	lbu $4,0($2)
  405170:	43 00 00 00 01 00 03 00 	addiu $3,$0,1
  405178:	5b 00 00 00 00 02 10 03 	slt $2,$3,$16
  405180:	05 00 00 00 44 00 00 02 	beq $2,$0,405298 <pbm_dissectfont+0x2d8>
  405188:	28 00 00 00 00 00 02 06 	lw $2,0($6)
  405190:	4f 00 00 00 ff 00 05 04 	andi $5,$4,255
  405198:	43 00 00 00 01 00 04 02 	addiu $4,$2,1
  4051a0:	22 00 00 00 00 00 02 04 	lbu $2,0($4)
  4051a8:	06 00 00 00 0a 00 05 02 	bne $2,$5,4051d8 <pbm_dissectfont+0x218>
  4051b0:	43 00 00 00 01 00 04 04 	addiu $4,$4,1
  4051b8:	43 00 00 00 01 00 03 03 	addiu $3,$3,1
  4051c0:	5b 00 00 00 00 02 10 03 	slt $2,$3,$16
  4051c8:	06 00 00 00 f4 ff 00 02 	bne $2,$0,4051a0 <pbm_dissectfont+0x1e0>
  4051d0:	01 00 00 00 a6 14 10 00 	j 405298 <pbm_dissectfont+0x2d8>
  4051d8:	28 00 00 00 04 00 02 07 	lw $2,4($7)
  4051e0:	22 00 00 00 00 00 04 02 	lbu $4,0($2)
  4051e8:	43 00 00 00 01 00 12 12 	addiu $18,$18,1
  4051f0:	43 00 00 00 01 00 03 00 	addiu $3,$0,1
  4051f8:	5b 00 00 00 00 02 10 03 	slt $2,$3,$16
  405200:	05 00 00 00 24 00 00 02 	beq $2,$0,405298 <pbm_dissectfont+0x2d8>
  405208:	28 00 00 00 04 00 02 06 	lw $2,4($6)
  405210:	4f 00 00 00 ff 00 05 04 	andi $5,$4,255
  405218:	43 00 00 00 01 00 04 02 	addiu $4,$2,1
  405220:	22 00 00 00 00 00 02 04 	lbu $2,0($4)
  405228:	06 00 00 00 0a 00 05 02 	bne $2,$5,405258 <pbm_dissectfont+0x298>
  405230:	43 00 00 00 01 00 04 04 	addiu $4,$4,1
  405238:	43 00 00 00 01 00 03 03 	addiu $3,$3,1
  405240:	5b 00 00 00 00 02 10 03 	slt $2,$3,$16
  405248:	06 00 00 00 f4 ff 00 02 	bne $2,$0,405220 <pbm_dissectfont+0x260>
  405250:	01 00 00 00 a6 14 10 00 	j 405298 <pbm_dissectfont+0x2d8>
  405258:	43 00 00 00 08 00 06 06 	addiu $6,$6,8
  405260:	43 00 00 00 08 00 07 07 	addiu $7,$7,8
  405268:	43 00 00 00 01 00 12 12 	addiu $18,$18,1
  405270:	5b 00 00 00 00 02 08 12 	slt $2,$18,$8
  405278:	06 00 00 00 b8 ff 00 02 	bne $2,$0,405160 <pbm_dissectfont+0x1a0>
  405280:	a2 00 00 00 00 10 04 00 	lui $4,4096
  405288:	43 00 00 00 b0 01 04 04 	addiu $4,$4,432
  405290:	02 00 00 00 30 05 10 00 	jal 4014c0 <pm_error>
  405298:	42 00 00 00 00 11 00 00 	addu $17,$0,$0
  4052a0:	42 00 00 00 00 02 10 00 	addu $2,$0,$16
  4052a8:	0a 00 00 00 02 00 00 10 	bgez $16,4052b8 <pbm_dissectfont+0x2f8>
  4052b0:	43 00 00 00 07 00 02 10 	addiu $2,$16,7
  4052b8:	59 00 00 00 03 02 02 00 	sra $2,$2,0x3
  4052c0:	5b 00 00 00 00 02 02 11 	slt $2,$17,$2
  4052c8:	05 00 00 00 26 00 00 02 	beq $2,$0,405368 <pbm_dissectfont+0x3a8>
  4052d0:	28 00 00 00 00 00 02 15 	lw $2,0($21)
  4052d8:	42 00 00 00 00 02 11 02 	addu $2,$2,$17
  4052e0:	22 00 00 00 00 00 04 02 	lbu $4,0($2)
  4052e8:	43 00 00 00 01 00 05 00 	addiu $5,$0,1
  4052f0:	5b 00 00 00 00 02 13 05 	slt $2,$5,$19
  4052f8:	05 00 00 00 20 00 00 02 	beq $2,$0,405380 <pbm_dissectfont+0x3c0>
  405300:	4f 00 00 00 ff 00 04 04 	andi $4,$4,255
  405308:	43 00 00 00 04 00 03 15 	addiu $3,$21,4
  405310:	28 00 00 00 00 00 02 03 	lw $2,0($3)
  405318:	42 00 00 00 00 02 11 02 	addu $2,$2,$17
  405320:	22 00 00 00 00 00 02 02 	lbu $2,0($2)
  405328:	06 00 00 00 0a 00 04 02 	bne $2,$4,405358 <pbm_dissectfont+0x398>
  405330:	43 00 00 00 04 00 03 03 	addiu $3,$3,4
  405338:	43 00 00 00 01 00 05 05 	addiu $5,$5,1
  405340:	5b 00 00 00 00 02 13 05 	slt $2,$5,$19
  405348:	06 00 00 00 f0 ff 00 02 	bne $2,$0,405310 <pbm_dissectfont+0x350>
  405350:	01 00 00 00 e0 14 10 00 	j 405380 <pbm_dissectfont+0x3c0>
  405358:	43 00 00 00 01 00 11 11 	addiu $17,$17,1
  405360:	01 00 00 00 a8 14 10 00 	j 4052a0 <pbm_dissectfont+0x2e0>
  405368:	a2 00 00 00 00 10 04 00 	lui $4,4096
  405370:	43 00 00 00 d0 01 04 04 	addiu $4,$4,464
  405378:	02 00 00 00 30 05 10 00 	jal 4014c0 <pm_error>
  405380:	45 00 00 00 00 05 12 13 	subu $5,$19,$18
  405388:	a2 00 00 00 8b 2e 02 00 	lui $2,11915
  405390:	51 00 00 00 e9 a2 02 02 	ori $2,$2,41705
  405398:	46 00 00 00 00 00 02 05 	mult $5,$2
  4053a0:	4a 00 00 00 00 03 00 00 	mfhi $3
  4053a8:	4c 00 00 00 00 02 00 00 	mflo $2
  4053b0:	57 00 00 00 00 02 03 00 	srl $2,$3,0x0
  4053b8:	42 00 00 00 00 03 00 00 	addu $3,$0,$0
  4053c0:	59 00 00 00 01 02 02 00 	sra $2,$2,0x1
  4053c8:	59 00 00 00 1f 04 05 00 	sra $4,$5,0x1f
  4053d0:	45 00 00 00 00 02 04 02 	subu $2,$2,$4
  4053d8:	34 00 00 00 00 00 02 14 	sw $2,0($20)
  4053e0:	55 00 00 00 01 04 02 00 	sll $4,$2,0x1
  4053e8:	42 00 00 00 00 04 02 04 	addu $4,$4,$2
  4053f0:	55 00 00 00 02 04 04 00 	sll $4,$4,0x2
  4053f8:	45 00 00 00 00 04 02 04 	subu $4,$4,$2
  405400:	05 00 00 00 06 00 05 04 	beq $4,$5,405420 <pbm_dissectfont+0x460>
  405408:	a2 00 00 00 00 10 04 00 	lui $4,4096
  405410:	43 00 00 00 f0 01 04 04 	addiu $4,$4,496
  405418:	02 00 00 00 30 05 10 00 	jal 4014c0 <pm_error>
  405420:	45 00 00 00 00 05 11 10 	subu $5,$16,$17
  405428:	a2 00 00 00 88 88 02 00 	lui $2,34952
  405430:	51 00 00 00 89 88 02 02 	ori $2,$2,34953
  405438:	46 00 00 00 00 00 02 05 	mult $5,$2
  405440:	4a 00 00 00 00 03 00 00 	mfhi $3
  405448:	4c 00 00 00 00 02 00 00 	mflo $2
  405450:	57 00 00 00 00 02 03 00 	srl $2,$3,0x0
  405458:	42 00 00 00 00 03 00 00 	addu $3,$0,$0
  405460:	42 00 00 00 00 02 02 05 	addu $2,$5,$2
  405468:	59 00 00 00 03 02 02 00 	sra $2,$2,0x3
  405470:	59 00 00 00 1f 04 05 00 	sra $4,$5,0x1f
  405478:	45 00 00 00 00 02 04 02 	subu $2,$2,$4
  405480:	34 00 00 00 00 00 02 16 	sw $2,0($22)
  405488:	55 00 00 00 04 04 02 00 	sll $4,$2,0x4
  405490:	45 00 00 00 00 04 02 04 	subu $4,$4,$2
  405498:	05 00 00 00 06 00 05 04 	beq $4,$5,4054b8 <pbm_dissectfont+0x4f8>
  4054a0:	a2 00 00 00 00 10 04 00 	lui $4,4096
  4054a8:	43 00 00 00 18 02 04 04 	addiu $4,$4,536
  4054b0:	02 00 00 00 30 05 10 00 	jal 4014c0 <pm_error>
  4054b8:	28 00 00 00 60 00 07 1d 	lw $7,96($29)
  4054c0:	42 00 00 00 00 08 00 00 	addu $8,$0,$0
  4054c8:	34 00 00 00 00 00 12 17 	sw $18,0($23)
  4054d0:	34 00 00 00 00 00 11 1e 	sw $17,0($30)
  4054d8:	28 00 00 00 00 00 02 14 	lw $2,0($20)
  4054e0:	28 00 00 00 00 00 03 16 	lw $3,0($22)
  4054e8:	28 00 00 00 5c 00 06 1d 	lw $6,92($29)
  4054f0:	55 00 00 00 01 05 02 00 	sll $5,$2,0x1
  4054f8:	55 00 00 00 01 03 03 00 	sll $3,$3,0x1
  405500:	34 00 00 00 00 00 05 06 	sw $5,0($6)
  405508:	34 00 00 00 00 00 03 07 	sw $3,0($7)
  405510:	28 00 00 00 00 00 04 16 	lw $4,0($22)
  405518:	42 00 00 00 00 03 04 03 	addu $3,$3,$4
  405520:	55 00 00 00 03 02 04 00 	sll $2,$4,0x3
  405528:	45 00 00 00 00 02 04 02 	subu $2,$2,$4
  405530:	55 00 00 00 01 02 02 00 	sll $2,$2,0x1
  405538:	5b 00 00 00 00 02 02 03 	slt $2,$3,$2
  405540:	06 00 00 00 06 00 00 02 	bne $2,$0,405560 <pbm_dissectfont+0x5a0>
  405548:	28 00 00 00 00 00 02 14 	lw $2,0($20)
  405550:	55 00 00 00 01 03 04 00 	sll $3,$4,0x1
  405558:	42 00 00 00 00 05 02 05 	addu $5,$5,$2
  405560:	34 00 00 00 04 00 05 06 	sw $5,4($6)
  405568:	34 00 00 00 04 00 03 07 	sw $3,4($7)
  405570:	28 00 00 00 00 00 04 16 	lw $4,0($22)
  405578:	42 00 00 00 00 03 04 03 	addu $3,$3,$4
  405580:	55 00 00 00 03 02 04 00 	sll $2,$4,0x3
  405588:	45 00 00 00 00 02 04 02 	subu $2,$2,$4
  405590:	55 00 00 00 01 02 02 00 	sll $2,$2,0x1
  405598:	5b 00 00 00 00 02 02 03 	slt $2,$3,$2
  4055a0:	06 00 00 00 06 00 00 02 	bne $2,$0,4055c0 <pbm_dissectfont+0x600>
  4055a8:	28 00 00 00 00 00 02 14 	lw $2,0($20)
  4055b0:	55 00 00 00 01 03 04 00 	sll $3,$4,0x1
  4055b8:	42 00 00 00 00 05 02 05 	addu $5,$5,$2
  4055c0:	34 00 00 00 08 00 05 06 	sw $5,8($6)
  4055c8:	34 00 00 00 08 00 03 07 	sw $3,8($7)
  4055d0:	28 00 00 00 00 00 04 16 	lw $4,0($22)
  4055d8:	42 00 00 00 00 03 04 03 	addu $3,$3,$4
  4055e0:	55 00 00 00 03 02 04 00 	sll $2,$4,0x3
  4055e8:	45 00 00 00 00 02 04 02 	subu $2,$2,$4
  4055f0:	55 00 00 00 01 02 02 00 	sll $2,$2,0x1
  4055f8:	5b 00 00 00 00 02 02 03 	slt $2,$3,$2
  405600:	06 00 00 00 06 00 00 02 	bne $2,$0,405620 <pbm_dissectfont+0x660>
  405608:	28 00 00 00 00 00 02 14 	lw $2,0($20)
  405610:	55 00 00 00 01 03 04 00 	sll $3,$4,0x1
  405618:	42 00 00 00 00 05 02 05 	addu $5,$5,$2
  405620:	34 00 00 00 0c 00 05 06 	sw $5,12($6)
  405628:	34 00 00 00 0c 00 03 07 	sw $3,12($7)
  405630:	28 00 00 00 00 00 04 16 	lw $4,0($22)
  405638:	42 00 00 00 00 03 04 03 	addu $3,$3,$4
  405640:	55 00 00 00 03 02 04 00 	sll $2,$4,0x3
  405648:	45 00 00 00 00 02 04 02 	subu $2,$2,$4
  405650:	55 00 00 00 01 02 02 00 	sll $2,$2,0x1
  405658:	5b 00 00 00 00 02 02 03 	slt $2,$3,$2
  405660:	06 00 00 00 06 00 00 02 	bne $2,$0,405680 <pbm_dissectfont+0x6c0>
  405668:	28 00 00 00 00 00 02 14 	lw $2,0($20)
  405670:	55 00 00 00 01 03 04 00 	sll $3,$4,0x1
  405678:	42 00 00 00 00 05 02 05 	addu $5,$5,$2
  405680:	34 00 00 00 10 00 05 06 	sw $5,16($6)
  405688:	34 00 00 00 10 00 03 07 	sw $3,16($7)
  405690:	28 00 00 00 00 00 04 16 	lw $4,0($22)
  405698:	42 00 00 00 00 03 04 03 	addu $3,$3,$4
  4056a0:	55 00 00 00 03 02 04 00 	sll $2,$4,0x3
  4056a8:	45 00 00 00 00 02 04 02 	subu $2,$2,$4
  4056b0:	55 00 00 00 01 02 02 00 	sll $2,$2,0x1
  4056b8:	5b 00 00 00 00 02 02 03 	slt $2,$3,$2
  4056c0:	06 00 00 00 06 00 00 02 	bne $2,$0,4056e0 <pbm_dissectfont+0x720>
  4056c8:	28 00 00 00 00 00 02 14 	lw $2,0($20)
  4056d0:	55 00 00 00 01 03 04 00 	sll $3,$4,0x1
  4056d8:	42 00 00 00 00 05 02 05 	addu $5,$5,$2
  4056e0:	43 00 00 00 14 00 07 07 	addiu $7,$7,20
  4056e8:	43 00 00 00 14 00 06 06 	addiu $6,$6,20
  4056f0:	43 00 00 00 05 00 08 08 	addiu $8,$8,5
  4056f8:	5c 00 00 00 5f 00 02 08 	slti $2,$8,95
  405700:	06 00 00 00 7e ff 00 02 	bne $2,$0,405500 <pbm_dissectfont+0x540>
  405708:	28 00 00 00 3c 00 1f 1d 	lw $31,60($29)
  405710:	28 00 00 00 38 00 1e 1d 	lw $30,56($29)
  405718:	28 00 00 00 34 00 17 1d 	lw $23,52($29)
  405720:	28 00 00 00 30 00 16 1d 	lw $22,48($29)
  405728:	28 00 00 00 2c 00 15 1d 	lw $21,44($29)
  405730:	28 00 00 00 28 00 14 1d 	lw $20,40($29)
  405738:	28 00 00 00 24 00 13 1d 	lw $19,36($29)
  405740:	28 00 00 00 20 00 12 1d 	lw $18,32($29)
  405748:	28 00 00 00 1c 00 11 1d 	lw $17,28($29)
  405750:	28 00 00 00 18 00 10 1d 	lw $16,24($29)
  405758:	43 00 00 00 40 00 1d 1d 	addiu $29,$29,64
  405760:	03 00 00 00 00 00 00 1f 	jr $31

00405768 <pbm_dumpfont>:
  405768:	43 00 00 00 b8 ff 1d 1d 	addiu $29,$29,-72
  405770:	34 00 00 00 20 00 10 1d 	sw $16,32($29)
  405778:	42 00 00 00 00 10 04 00 	addu $16,$0,$4
  405780:	34 00 00 00 28 00 12 1d 	sw $18,40($29)
  405788:	42 00 00 00 00 12 05 00 	addu $18,$0,$5
  405790:	34 00 00 00 40 00 1e 1d 	sw $30,64($29)
  405798:	42 00 00 00 00 1e 06 00 	addu $30,$0,$6
  4057a0:	a2 00 00 00 00 10 04 00 	lui $4,4096
  4057a8:	43 00 00 00 40 02 04 04 	addiu $4,$4,576
  4057b0:	42 00 00 00 00 05 1e 00 	addu $5,$0,$30
  4057b8:	34 00 00 00 44 00 1f 1d 	sw $31,68($29)
  4057c0:	34 00 00 00 3c 00 17 1d 	sw $23,60($29)
  4057c8:	34 00 00 00 38 00 16 1d 	sw $22,56($29)
  4057d0:	34 00 00 00 34 00 15 1d 	sw $21,52($29)
  4057d8:	34 00 00 00 30 00 14 1d 	sw $20,48($29)
  4057e0:	34 00 00 00 2c 00 13 1d 	sw $19,44($29)
  4057e8:	34 00 00 00 24 00 11 1d 	sw $17,36($29)
  4057f0:	02 00 00 00 f8 88 11 00 	jal 4623e0 <printf>
  4057f8:	a2 00 00 00 00 10 04 00 	lui $4,4096
  405800:	43 00 00 00 60 02 04 04 	addiu $4,$4,608
  405808:	42 00 00 00 00 05 12 00 	addu $5,$0,$18
  405810:	02 00 00 00 f8 88 11 00 	jal 4623e0 <printf>
  405818:	a2 00 00 00 00 10 04 00 	lui $4,4096
  405820:	43 00 00 00 80 02 04 04 	addiu $4,$4,640
  405828:	02 00 00 00 f8 88 11 00 	jal 4623e0 <printf>
  405830:	42 00 00 00 00 15 00 00 	addu $21,$0,$0
  405838:	07 00 00 00 04 01 00 1e 	blez $30,405c50 <pbm_dumpfont+0x4e8>
  405840:	a2 00 00 00 aa 2a 17 00 	lui $23,10922
  405848:	51 00 00 00 ab aa 17 17 	ori $23,$23,43691
  405850:	42 00 00 00 00 16 10 00 	addu $22,$0,$16
  405858:	42 00 00 00 00 10 00 00 	addu $16,$0,$0
  405860:	42 00 00 00 00 11 00 00 	addu $17,$0,$0
  405868:	07 00 00 00 e4 00 00 12 	blez $18,405c00 <pbm_dumpfont+0x498>
  405870:	42 00 00 00 00 14 16 00 	addu $20,$0,$22
  405878:	4f 00 00 00 3f 00 02 12 	andi $2,$18,63
  405880:	05 00 00 00 36 00 00 02 	beq $2,$0,405960 <pbm_dumpfont+0x1f8>
  405888:	5c 00 00 00 21 00 02 02 	slti $2,$2,33
  405890:	05 00 00 00 32 00 00 02 	beq $2,$0,405960 <pbm_dumpfont+0x1f8>
  405898:	43 00 00 00 40 80 04 1c 	addiu $4,$28,-32704
  4058a0:	02 00 00 00 f8 88 11 00 	jal 4623e0 <printf>
  4058a8:	42 00 00 00 00 05 00 00 	addu $5,$0,$0
  4058b0:	42 00 00 00 00 04 11 00 	addu $4,$0,$17
  4058b8:	43 00 00 00 20 00 03 11 	addiu $3,$17,32
  4058c0:	5b 00 00 00 00 02 03 12 	slt $2,$18,$3
  4058c8:	05 00 00 00 02 00 00 02 	beq $2,$0,4058d8 <pbm_dumpfont+0x170>
  4058d0:	42 00 00 00 00 03 12 00 	addu $3,$0,$18
  4058d8:	5b 00 00 00 00 02 03 04 	slt $2,$4,$3
  4058e0:	05 00 00 00 10 00 00 02 	beq $2,$0,405928 <pbm_dumpfont+0x1c0>
  4058e8:	28 00 00 00 00 00 02 14 	lw $2,0($20)
  4058f0:	42 00 00 00 00 02 04 02 	addu $2,$2,$4
  4058f8:	22 00 00 00 00 00 02 02 	lbu $2,0($2)
  405900:	55 00 00 00 01 05 05 00 	sll $5,$5,0x1
  405908:	05 00 00 00 02 00 00 02 	beq $2,$0,405918 <pbm_dumpfont+0x1b0>
  405910:	51 00 00 00 01 00 05 05 	ori $5,$5,1
  405918:	43 00 00 00 01 00 04 04 	addiu $4,$4,1
  405920:	01 00 00 00 2e 16 10 00 	j 4058b8 <pbm_dumpfont+0x150>
  405928:	a2 00 00 00 00 10 04 00 	lui $4,4096
  405930:	43 00 00 00 d8 02 04 04 	addiu $4,$4,728
  405938:	02 00 00 00 f8 88 11 00 	jal 4623e0 <printf>
  405940:	43 00 00 00 01 00 10 10 	addiu $16,$16,1
  405948:	43 00 00 00 20 00 11 11 	addiu $17,$17,32
  405950:	5b 00 00 00 00 02 12 11 	slt $2,$17,$18
  405958:	05 00 00 00 a8 00 00 02 	beq $2,$0,405c00 <pbm_dumpfont+0x498>
  405960:	06 00 00 00 04 00 00 10 	bne $16,$0,405978 <pbm_dumpfont+0x210>
  405968:	43 00 00 00 40 80 04 1c 	addiu $4,$28,-32704
  405970:	01 00 00 00 7e 16 10 00 	j 4059f8 <pbm_dumpfont+0x290>
  405978:	46 00 00 00 00 00 17 10 	mult $16,$23
  405980:	4a 00 00 00 00 03 00 00 	mfhi $3
  405988:	4c 00 00 00 00 02 00 00 	mflo $2
  405990:	57 00 00 00 00 02 03 00 	srl $2,$3,0x0
  405998:	42 00 00 00 00 03 00 00 	addu $3,$0,$0
  4059a0:	59 00 00 00 1f 04 10 00 	sra $4,$16,0x1f
  4059a8:	45 00 00 00 00 02 04 02 	subu $2,$2,$4
  4059b0:	55 00 00 00 01 04 02 00 	sll $4,$2,0x1
  4059b8:	42 00 00 00 00 04 02 04 	addu $4,$4,$2
  4059c0:	55 00 00 00 01 04 04 00 	sll $4,$4,0x1
  4059c8:	06 00 00 00 08 00 04 10 	bne $16,$4,4059f0 <pbm_dumpfont+0x288>
  4059d0:	43 00 00 00 48 80 04 1c 	addiu $4,$28,-32696
  4059d8:	02 00 00 00 f8 88 11 00 	jal 4623e0 <printf>
  4059e0:	42 00 00 00 00 10 00 00 	addu $16,$0,$0
  4059e8:	01 00 00 00 80 16 10 00 	j 405a00 <pbm_dumpfont+0x298>
  4059f0:	43 00 00 00 50 80 04 1c 	addiu $4,$28,-32688
  4059f8:	02 00 00 00 f8 88 11 00 	jal 4623e0 <printf>
  405a00:	42 00 00 00 00 05 00 00 	addu $5,$0,$0
  405a08:	42 00 00 00 00 04 11 00 	addu $4,$0,$17
  405a10:	43 00 00 00 20 00 03 11 	addiu $3,$17,32
  405a18:	5b 00 00 00 00 02 03 12 	slt $2,$18,$3
  405a20:	05 00 00 00 02 00 00 02 	beq $2,$0,405a30 <pbm_dumpfont+0x2c8>
  405a28:	42 00 00 00 00 03 12 00 	addu $3,$0,$18
  405a30:	5b 00 00 00 00 02 03 04 	slt $2,$4,$3
  405a38:	05 00 00 00 10 00 00 02 	beq $2,$0,405a80 <pbm_dumpfont+0x318>
  405a40:	28 00 00 00 00 00 02 14 	lw $2,0($20)
  405a48:	42 00 00 00 00 02 04 02 	addu $2,$2,$4
  405a50:	22 00 00 00 00 00 02 02 	lbu $2,0($2)
  405a58:	55 00 00 00 01 05 05 00 	sll $5,$5,0x1
  405a60:	05 00 00 00 02 00 00 02 	beq $2,$0,405a70 <pbm_dumpfont+0x308>
  405a68:	51 00 00 00 01 00 05 05 	ori $5,$5,1
  405a70:	43 00 00 00 01 00 04 04 	addiu $4,$4,1
  405a78:	01 00 00 00 84 16 10 00 	j 405a10 <pbm_dumpfont+0x2a8>
  405a80:	a2 00 00 00 00 10 04 00 	lui $4,4096
  405a88:	43 00 00 00 d8 02 04 04 	addiu $4,$4,728
  405a90:	02 00 00 00 f8 88 11 00 	jal 4623e0 <printf>
  405a98:	43 00 00 00 01 00 10 10 	addiu $16,$16,1
  405aa0:	43 00 00 00 20 00 13 11 	addiu $19,$17,32
  405aa8:	06 00 00 00 04 00 00 10 	bne $16,$0,405ac0 <pbm_dumpfont+0x358>
  405ab0:	43 00 00 00 40 80 04 1c 	addiu $4,$28,-32704
  405ab8:	01 00 00 00 d0 16 10 00 	j 405b40 <pbm_dumpfont+0x3d8>
  405ac0:	46 00 00 00 00 00 17 10 	mult $16,$23
  405ac8:	4a 00 00 00 00 03 00 00 	mfhi $3
  405ad0:	4c 00 00 00 00 02 00 00 	mflo $2
  405ad8:	57 00 00 00 00 02 03 00 	srl $2,$3,0x0
  405ae0:	42 00 00 00 00 03 00 00 	addu $3,$0,$0
  405ae8:	59 00 00 00 1f 04 10 00 	sra $4,$16,0x1f
  405af0:	45 00 00 00 00 02 04 02 	subu $2,$2,$4
  405af8:	55 00 00 00 01 04 02 00 	sll $4,$2,0x1
  405b00:	42 00 00 00 00 04 02 04 	addu $4,$4,$2
  405b08:	55 00 00 00 01 04 04 00 	sll $4,$4,0x1
  405b10:	06 00 00 00 08 00 04 10 	bne $16,$4,405b38 <pbm_dumpfont+0x3d0>
  405b18:	43 00 00 00 48 80 04 1c 	addiu $4,$28,-32696
  405b20:	02 00 00 00 f8 88 11 00 	jal 4623e0 <printf>
  405b28:	42 00 00 00 00 10 00 00 	addu $16,$0,$0
  405b30:	01 00 00 00 d2 16 10 00 	j 405b48 <pbm_dumpfont+0x3e0>
  405b38:	43 00 00 00 50 80 04 1c 	addiu $4,$28,-32688
  405b40:	02 00 00 00 f8 88 11 00 	jal 4623e0 <printf>
  405b48:	42 00 00 00 00 05 00 00 	addu $5,$0,$0
  405b50:	42 00 00 00 00 04 13 00 	addu $4,$0,$19
  405b58:	43 00 00 00 20 00 03 13 	addiu $3,$19,32
  405b60:	5b 00 00 00 00 02 03 12 	slt $2,$18,$3
  405b68:	05 00 00 00 02 00 00 02 	beq $2,$0,405b78 <pbm_dumpfont+0x410>
  405b70:	42 00 00 00 00 03 12 00 	addu $3,$0,$18
  405b78:	5b 00 00 00 00 02 03 04 	slt $2,$4,$3
  405b80:	05 00 00 00 10 00 00 02 	beq $2,$0,405bc8 <pbm_dumpfont+0x460>
  405b88:	28 00 00 00 00 00 02 14 	lw $2,0($20)
  405b90:	42 00 00 00 00 02 04 02 	addu $2,$2,$4
  405b98:	22 00 00 00 00 00 02 02 	lbu $2,0($2)
  405ba0:	55 00 00 00 01 05 05 00 	sll $5,$5,0x1
  405ba8:	05 00 00 00 02 00 00 02 	beq $2,$0,405bb8 <pbm_dumpfont+0x450>
  405bb0:	51 00 00 00 01 00 05 05 	ori $5,$5,1
  405bb8:	43 00 00 00 01 00 04 04 	addiu $4,$4,1
  405bc0:	01 00 00 00 d6 16 10 00 	j 405b58 <pbm_dumpfont+0x3f0>
  405bc8:	a2 00 00 00 00 10 04 00 	lui $4,4096
  405bd0:	43 00 00 00 d8 02 04 04 	addiu $4,$4,728
  405bd8:	02 00 00 00 f8 88 11 00 	jal 4623e0 <printf>
  405be0:	43 00 00 00 01 00 10 10 	addiu $16,$16,1
  405be8:	43 00 00 00 40 00 11 11 	addiu $17,$17,64
  405bf0:	5b 00 00 00 00 02 12 11 	slt $2,$17,$18
  405bf8:	06 00 00 00 58 ff 00 02 	bne $2,$0,405960 <pbm_dumpfont+0x1f8>
  405c00:	43 00 00 00 50 80 05 1c 	addiu $5,$28,-32688
  405c08:	43 00 00 00 ff ff 02 1e 	addiu $2,$30,-1
  405c10:	06 00 00 00 02 00 02 15 	bne $21,$2,405c20 <pbm_dumpfont+0x4b8>
  405c18:	43 00 00 00 5c 80 05 1c 	addiu $5,$28,-32676
  405c20:	43 00 00 00 54 80 04 1c 	addiu $4,$28,-32684
  405c28:	02 00 00 00 f8 88 11 00 	jal 4623e0 <printf>
  405c30:	43 00 00 00 04 00 16 16 	addiu $22,$22,4
  405c38:	43 00 00 00 01 00 15 15 	addiu $21,$21,1
  405c40:	5b 00 00 00 00 02 1e 15 	slt $2,$21,$30
  405c48:	06 00 00 00 02 ff 00 02 	bne $2,$0,405858 <pbm_dumpfont+0xf0>
  405c50:	43 00 00 00 60 80 04 1c 	addiu $4,$28,-32672
  405c58:	02 00 00 00 f8 88 11 00 	jal 4623e0 <printf>
  405c60:	28 00 00 00 44 00 1f 1d 	lw $31,68($29)
  405c68:	28 00 00 00 40 00 1e 1d 	lw $30,64($29)
  405c70:	28 00 00 00 3c 00 17 1d 	lw $23,60($29)
  405c78:	28 00 00 00 38 00 16 1d 	lw $22,56($29)
  405c80:	28 00 00 00 34 00 15 1d 	lw $21,52($29)
  405c88:	28 00 00 00 30 00 14 1d 	lw $20,48($29)
  405c90:	28 00 00 00 2c 00 13 1d 	lw $19,44($29)
  405c98:	28 00 00 00 28 00 12 1d 	lw $18,40($29)
  405ca0:	28 00 00 00 24 00 11 1d 	lw $17,36($29)
  405ca8:	28 00 00 00 20 00 10 1d 	lw $16,32($29)
  405cb0:	43 00 00 00 48 00 1d 1d 	addiu $29,$29,72
  405cb8:	03 00 00 00 00 00 00 1f 	jr $31

00405cc0 <pgm_init>:
  405cc0:	43 00 00 00 e8 ff 1d 1d 	addiu $29,$29,-24
  405cc8:	34 00 00 00 10 00 1f 1d 	sw $31,16($29)
  405cd0:	02 00 00 00 aa 04 10 00 	jal 4012a8 <pbm_init>
  405cd8:	28 00 00 00 10 00 1f 1d 	lw $31,16($29)
  405ce0:	43 00 00 00 18 00 1d 1d 	addiu $29,$29,24
  405ce8:	03 00 00 00 00 00 00 1f 	jr $31

00405cf0 <pgm_readpgminitrest>:
  405cf0:	43 00 00 00 d8 ff 1d 1d 	addiu $29,$29,-40
  405cf8:	34 00 00 00 10 00 10 1d 	sw $16,16($29)
  405d00:	42 00 00 00 00 10 04 00 	addu $16,$0,$4
  405d08:	34 00 00 00 14 00 11 1d 	sw $17,20($29)
  405d10:	42 00 00 00 00 11 05 00 	addu $17,$0,$5
  405d18:	34 00 00 00 18 00 12 1d 	sw $18,24($29)
  405d20:	42 00 00 00 00 12 06 00 	addu $18,$0,$6
  405d28:	34 00 00 00 1c 00 13 1d 	sw $19,28($29)
  405d30:	42 00 00 00 00 13 07 00 	addu $19,$0,$7
  405d38:	34 00 00 00 20 00 1f 1d 	sw $31,32($29)
  405d40:	02 00 00 00 ca 11 10 00 	jal 404728 <pbm_getint>
  405d48:	42 00 00 00 00 04 10 00 	addu $4,$0,$16
  405d50:	34 00 00 00 00 00 02 11 	sw $2,0($17)
  405d58:	02 00 00 00 ca 11 10 00 	jal 404728 <pbm_getint>
  405d60:	42 00 00 00 00 04 10 00 	addu $4,$0,$16
  405d68:	34 00 00 00 00 00 02 12 	sw $2,0($18)
  405d70:	02 00 00 00 ca 11 10 00 	jal 404728 <pbm_getint>
  405d78:	42 00 00 00 00 10 02 00 	addu $16,$0,$2
  405d80:	5c 00 00 00 00 01 02 10 	slti $2,$16,256
  405d88:	06 00 00 00 06 00 00 02 	bne $2,$0,405da8 <pgm_readpgminitrest+0xb8>
  405d90:	a2 00 00 00 00 10 04 00 	lui $4,4096
  405d98:	43 00 00 00 f0 02 04 04 	addiu $4,$4,752
  405da0:	02 00 00 00 30 05 10 00 	jal 4014c0 <pm_error>
  405da8:	30 00 00 00 00 00 10 13 	sb $16,0($19)
  405db0:	28 00 00 00 20 00 1f 1d 	lw $31,32($29)
  405db8:	28 00 00 00 1c 00 13 1d 	lw $19,28($29)
  405dc0:	28 00 00 00 18 00 12 1d 	lw $18,24($29)
  405dc8:	28 00 00 00 14 00 11 1d 	lw $17,20($29)
  405dd0:	28 00 00 00 10 00 10 1d 	lw $16,16($29)
  405dd8:	43 00 00 00 28 00 1d 1d 	addiu $29,$29,40
  405de0:	03 00 00 00 00 00 00 1f 	jr $31

00405de8 <pgm_readpgminit>:
  405de8:	43 00 00 00 d8 ff 1d 1d 	addiu $29,$29,-40
  405df0:	34 00 00 00 10 00 10 1d 	sw $16,16($29)
  405df8:	28 00 00 00 38 00 10 1d 	lw $16,56($29)
  405e00:	34 00 00 00 14 00 11 1d 	sw $17,20($29)
  405e08:	42 00 00 00 00 11 04 00 	addu $17,$0,$4
  405e10:	34 00 00 00 18 00 12 1d 	sw $18,24($29)
  405e18:	42 00 00 00 00 12 05 00 	addu $18,$0,$5
  405e20:	34 00 00 00 1c 00 13 1d 	sw $19,28($29)
  405e28:	42 00 00 00 00 13 06 00 	addu $19,$0,$6
  405e30:	34 00 00 00 20 00 14 1d 	sw $20,32($29)
  405e38:	42 00 00 00 00 14 07 00 	addu $20,$0,$7
  405e40:	34 00 00 00 24 00 1f 1d 	sw $31,36($29)
  405e48:	02 00 00 00 b4 09 10 00 	jal 4026d0 <pbm_readmagicnumber>
  405e50:	42 00 00 00 00 03 02 00 	addu $3,$0,$2
  405e58:	43 00 00 00 32 50 02 00 	addiu $2,$0,20530
  405e60:	34 00 00 00 00 00 03 10 	sw $3,0($16)
  405e68:	05 00 00 00 14 00 02 03 	beq $3,$2,405ec0 <pgm_readpgminit+0xd8>
  405e70:	43 00 00 00 35 50 02 00 	addiu $2,$0,20533
  405e78:	05 00 00 00 10 00 02 03 	beq $3,$2,405ec0 <pgm_readpgminit+0xd8>
  405e80:	43 00 00 00 31 50 02 00 	addiu $2,$0,20529
  405e88:	05 00 00 00 04 00 02 03 	beq $3,$2,405ea0 <pgm_readpgminit+0xb8>
  405e90:	43 00 00 00 34 50 02 00 	addiu $2,$0,20532
  405e98:	06 00 00 00 04 00 02 03 	bne $3,$2,405eb0 <pgm_readpgminit+0xc8>
  405ea0:	43 00 00 00 31 50 03 00 	addiu $3,$0,20529
  405ea8:	01 00 00 00 b2 17 10 00 	j 405ec8 <pgm_readpgminit+0xe0>
  405eb0:	43 00 00 00 ff ff 03 00 	addiu $3,$0,-1
  405eb8:	01 00 00 00 b2 17 10 00 	j 405ec8 <pgm_readpgminit+0xe0>
  405ec0:	43 00 00 00 32 50 03 00 	addiu $3,$0,20530
  405ec8:	43 00 00 00 31 50 02 00 	addiu $2,$0,20529
  405ed0:	05 00 00 00 24 00 02 03 	beq $3,$2,405f68 <pgm_readpgminit+0x180>
  405ed8:	43 00 00 00 32 50 02 00 	addiu $2,$0,20530
  405ee0:	06 00 00 00 2e 00 02 03 	bne $3,$2,405fa0 <pgm_readpgminit+0x1b8>
  405ee8:	42 00 00 00 00 04 11 00 	addu $4,$0,$17
  405ef0:	02 00 00 00 ca 11 10 00 	jal 404728 <pbm_getint>
  405ef8:	42 00 00 00 00 04 11 00 	addu $4,$0,$17
  405f00:	34 00 00 00 00 00 02 12 	sw $2,0($18)
  405f08:	02 00 00 00 ca 11 10 00 	jal 404728 <pbm_getint>
  405f10:	42 00 00 00 00 04 11 00 	addu $4,$0,$17
  405f18:	34 00 00 00 00 00 02 13 	sw $2,0($19)
  405f20:	02 00 00 00 ca 11 10 00 	jal 404728 <pbm_getint>
  405f28:	42 00 00 00 00 10 02 00 	addu $16,$0,$2
  405f30:	5c 00 00 00 00 01 02 10 	slti $2,$16,256
  405f38:	06 00 00 00 06 00 00 02 	bne $2,$0,405f58 <pgm_readpgminit+0x170>
  405f40:	a2 00 00 00 00 10 04 00 	lui $4,4096
  405f48:	43 00 00 00 f0 02 04 04 	addiu $4,$4,752
  405f50:	02 00 00 00 30 05 10 00 	jal 4014c0 <pm_error>
  405f58:	30 00 00 00 00 00 10 14 	sb $16,0($20)
  405f60:	01 00 00 00 ee 17 10 00 	j 405fb8 <pgm_readpgminit+0x1d0>
  405f68:	42 00 00 00 00 04 11 00 	addu $4,$0,$17
  405f70:	42 00 00 00 00 05 12 00 	addu $5,$0,$18
  405f78:	42 00 00 00 00 06 13 00 	addu $6,$0,$19
  405f80:	02 00 00 00 0c 0a 10 00 	jal 402830 <pbm_readpbminitrest>
  405f88:	22 00 00 00 70 80 02 1c 	lbu $2,-32656($28)
  405f90:	30 00 00 00 00 00 02 14 	sb $2,0($20)
  405f98:	01 00 00 00 ee 17 10 00 	j 405fb8 <pgm_readpgminit+0x1d0>
  405fa0:	a2 00 00 00 00 10 04 00 	lui $4,4096
  405fa8:	43 00 00 00 2c 03 04 04 	addiu $4,$4,812
  405fb0:	02 00 00 00 30 05 10 00 	jal 4014c0 <pm_error>
  405fb8:	28 00 00 00 24 00 1f 1d 	lw $31,36($29)
  405fc0:	28 00 00 00 20 00 14 1d 	lw $20,32($29)
  405fc8:	28 00 00 00 1c 00 13 1d 	lw $19,28($29)
  405fd0:	28 00 00 00 18 00 12 1d 	lw $18,24($29)
  405fd8:	28 00 00 00 14 00 11 1d 	lw $17,20($29)
  405fe0:	28 00 00 00 10 00 10 1d 	lw $16,16($29)
  405fe8:	43 00 00 00 28 00 1d 1d 	addiu $29,$29,40
  405ff0:	03 00 00 00 00 00 00 1f 	jr $31

00405ff8 <pgm_readpgmrow>:
  405ff8:	43 00 00 00 c0 ff 1d 1d 	addiu $29,$29,-64
  406000:	34 00 00 00 28 00 10 1d 	sw $16,40($29)
  406008:	28 00 00 00 50 00 10 1d 	lw $16,80($29)
  406010:	34 00 00 00 30 00 12 1d 	sw $18,48($29)
  406018:	42 00 00 00 00 12 04 00 	addu $18,$0,$4
  406020:	34 00 00 00 2c 00 11 1d 	sw $17,44($29)
  406028:	42 00 00 00 00 11 05 00 	addu $17,$0,$5
  406030:	34 00 00 00 38 00 14 1d 	sw $20,56($29)
  406038:	42 00 00 00 00 14 06 00 	addu $20,$0,$6
  406040:	34 00 00 00 34 00 13 1d 	sw $19,52($29)
  406048:	42 00 00 00 00 13 07 00 	addu $19,$0,$7
  406050:	43 00 00 00 32 50 02 00 	addiu $2,$0,20530
  406058:	34 00 00 00 3c 00 1f 1d 	sw $31,60($29)
  406060:	05 00 00 00 14 00 02 10 	beq $16,$2,4060b8 <pgm_readpgmrow+0xc0>
  406068:	5c 00 00 00 33 50 02 10 	slti $2,$16,20531
  406070:	05 00 00 00 06 00 00 02 	beq $2,$0,406090 <pgm_readpgmrow+0x98>
  406078:	43 00 00 00 31 50 02 00 	addiu $2,$0,20529
  406080:	05 00 00 00 b8 00 02 10 	beq $16,$2,406368 <pgm_readpgmrow+0x370>
  406088:	01 00 00 00 6c 19 10 00 	j 4065b0 <pgm_readpgmrow+0x5b8>
  406090:	43 00 00 00 34 50 02 00 	addiu $2,$0,20532
  406098:	05 00 00 00 b2 00 02 10 	beq $16,$2,406368 <pgm_readpgmrow+0x370>
  4060a0:	43 00 00 00 35 50 02 00 	addiu $2,$0,20533
  4060a8:	05 00 00 00 58 00 02 10 	beq $16,$2,406210 <pgm_readpgmrow+0x218>
  4060b0:	01 00 00 00 6c 19 10 00 	j 4065b0 <pgm_readpgmrow+0x5b8>
  4060b8:	42 00 00 00 00 10 11 00 	addu $16,$0,$17
  4060c0:	42 00 00 00 00 11 00 00 	addu $17,$0,$0
  4060c8:	07 00 00 00 3e 01 00 14 	blez $20,4065c8 <pgm_readpgmrow+0x5d0>
  4060d0:	4f 00 00 00 03 00 03 14 	andi $3,$20,3
  4060d8:	05 00 00 00 2a 00 00 03 	beq $3,$0,406188 <pgm_readpgmrow+0x190>
  4060e0:	5c 00 00 00 02 00 02 03 	slti $2,$3,2
  4060e8:	06 00 00 00 18 00 00 02 	bne $2,$0,406150 <pgm_readpgmrow+0x158>
  4060f0:	5c 00 00 00 03 00 02 03 	slti $2,$3,3
  4060f8:	06 00 00 00 0a 00 00 02 	bne $2,$0,406128 <pgm_readpgmrow+0x130>
  406100:	42 00 00 00 00 04 12 00 	addu $4,$0,$18
  406108:	02 00 00 00 ca 11 10 00 	jal 404728 <pbm_getint>
  406110:	30 00 00 00 00 00 02 10 	sb $2,0($16)
  406118:	43 00 00 00 01 00 11 00 	addiu $17,$0,1
  406120:	43 00 00 00 01 00 10 10 	addiu $16,$16,1
  406128:	42 00 00 00 00 04 12 00 	addu $4,$0,$18
  406130:	02 00 00 00 ca 11 10 00 	jal 404728 <pbm_getint>
  406138:	30 00 00 00 00 00 02 10 	sb $2,0($16)
  406140:	43 00 00 00 01 00 11 11 	addiu $17,$17,1
  406148:	43 00 00 00 01 00 10 10 	addiu $16,$16,1
  406150:	42 00 00 00 00 04 12 00 	addu $4,$0,$18
  406158:	02 00 00 00 ca 11 10 00 	jal 404728 <pbm_getint>
  406160:	30 00 00 00 00 00 02 10 	sb $2,0($16)
  406168:	43 00 00 00 01 00 11 11 	addiu $17,$17,1
  406170:	43 00 00 00 01 00 10 10 	addiu $16,$16,1
  406178:	5b 00 00 00 00 02 14 11 	slt $2,$17,$20
  406180:	05 00 00 00 10 01 00 02 	beq $2,$0,4065c8 <pgm_readpgmrow+0x5d0>
  406188:	42 00 00 00 00 04 12 00 	addu $4,$0,$18
  406190:	02 00 00 00 ca 11 10 00 	jal 404728 <pbm_getint>
  406198:	42 00 00 00 00 04 12 00 	addu $4,$0,$18
  4061a0:	30 00 00 00 00 00 02 10 	sb $2,0($16)
  4061a8:	02 00 00 00 ca 11 10 00 	jal 404728 <pbm_getint>
  4061b0:	42 00 00 00 00 04 12 00 	addu $4,$0,$18
  4061b8:	30 00 00 00 01 00 02 10 	sb $2,1($16)
  4061c0:	02 00 00 00 ca 11 10 00 	jal 404728 <pbm_getint>
  4061c8:	42 00 00 00 00 04 12 00 	addu $4,$0,$18
  4061d0:	30 00 00 00 02 00 02 10 	sb $2,2($16)
  4061d8:	02 00 00 00 ca 11 10 00 	jal 404728 <pbm_getint>
  4061e0:	43 00 00 00 04 00 11 11 	addiu $17,$17,4
  4061e8:	30 00 00 00 03 00 02 10 	sb $2,3($16)
  4061f0:	43 00 00 00 04 00 10 10 	addiu $16,$16,4
  4061f8:	5b 00 00 00 00 02 14 11 	slt $2,$17,$20
  406200:	06 00 00 00 e0 ff 00 02 	bne $2,$0,406188 <pgm_readpgmrow+0x190>
  406208:	01 00 00 00 72 19 10 00 	j 4065c8 <pgm_readpgmrow+0x5d0>
  406210:	42 00 00 00 00 10 11 00 	addu $16,$0,$17
  406218:	42 00 00 00 00 11 00 00 	addu $17,$0,$0
  406220:	07 00 00 00 e8 00 00 14 	blez $20,4065c8 <pgm_readpgmrow+0x5d0>
  406228:	4f 00 00 00 03 00 03 14 	andi $3,$20,3
  406230:	05 00 00 00 2a 00 00 03 	beq $3,$0,4062e0 <pgm_readpgmrow+0x2e8>
  406238:	5c 00 00 00 02 00 02 03 	slti $2,$3,2
  406240:	06 00 00 00 18 00 00 02 	bne $2,$0,4062a8 <pgm_readpgmrow+0x2b0>
  406248:	5c 00 00 00 03 00 02 03 	slti $2,$3,3
  406250:	06 00 00 00 0a 00 00 02 	bne $2,$0,406280 <pgm_readpgmrow+0x288>
  406258:	42 00 00 00 00 04 12 00 	addu $4,$0,$18
  406260:	02 00 00 00 9c 11 10 00 	jal 404670 <pbm_getrawbyte>
  406268:	30 00 00 00 00 00 02 10 	sb $2,0($16)
  406270:	43 00 00 00 01 00 11 00 	addiu $17,$0,1
  406278:	43 00 00 00 01 00 10 10 	addiu $16,$16,1
  406280:	42 00 00 00 00 04 12 00 	addu $4,$0,$18
  406288:	02 00 00 00 9c 11 10 00 	jal 404670 <pbm_getrawbyte>
  406290:	30 00 00 00 00 00 02 10 	sb $2,0($16)
  406298:	43 00 00 00 01 00 11 11 	addiu $17,$17,1
  4062a0:	43 00 00 00 01 00 10 10 	addiu $16,$16,1
  4062a8:	42 00 00 00 00 04 12 00 	addu $4,$0,$18
  4062b0:	02 00 00 00 9c 11 10 00 	jal 404670 <pbm_getrawbyte>
  4062b8:	30 00 00 00 00 00 02 10 	sb $2,0($16)
  4062c0:	43 00 00 00 01 00 11 11 	addiu $17,$17,1
  4062c8:	43 00 00 00 01 00 10 10 	addiu $16,$16,1
  4062d0:	5b 00 00 00 00 02 14 11 	slt $2,$17,$20
  4062d8:	05 00 00 00 ba 00 00 02 	beq $2,$0,4065c8 <pgm_readpgmrow+0x5d0>
  4062e0:	42 00 00 00 00 04 12 00 	addu $4,$0,$18
  4062e8:	02 00 00 00 9c 11 10 00 	jal 404670 <pbm_getrawbyte>
  4062f0:	42 00 00 00 00 04 12 00 	addu $4,$0,$18
  4062f8:	30 00 00 00 00 00 02 10 	sb $2,0($16)
  406300:	02 00 00 00 9c 11 10 00 	jal 404670 <pbm_getrawbyte>
  406308:	42 00 00 00 00 04 12 00 	addu $4,$0,$18
  406310:	30 00 00 00 01 00 02 10 	sb $2,1($16)
  406318:	02 00 00 00 9c 11 10 00 	jal 404670 <pbm_getrawbyte>
  406320:	42 00 00 00 00 04 12 00 	addu $4,$0,$18
  406328:	30 00 00 00 02 00 02 10 	sb $2,2($16)
  406330:	02 00 00 00 9c 11 10 00 	jal 404670 <pbm_getrawbyte>
  406338:	43 00 00 00 04 00 11 11 	addiu $17,$17,4
  406340:	30 00 00 00 03 00 02 10 	sb $2,3($16)
  406348:	43 00 00 00 04 00 10 10 	addiu $16,$16,4
  406350:	5b 00 00 00 00 02 14 11 	slt $2,$17,$20
  406358:	06 00 00 00 e0 ff 00 02 	bne $2,$0,4062e0 <pgm_readpgmrow+0x2e8>
  406360:	01 00 00 00 72 19 10 00 	j 4065c8 <pgm_readpgmrow+0x5d0>
  406368:	42 00 00 00 00 04 14 00 	addu $4,$0,$20
  406370:	43 00 00 00 01 00 05 00 	addiu $5,$0,1
  406378:	02 00 00 00 7c 00 10 00 	jal 4001f0 <pm_allocrow>
  406380:	42 00 00 00 00 04 12 00 	addu $4,$0,$18
  406388:	42 00 00 00 00 12 02 00 	addu $18,$0,$2
  406390:	42 00 00 00 00 05 12 00 	addu $5,$0,$18
  406398:	42 00 00 00 00 06 14 00 	addu $6,$0,$20
  4063a0:	42 00 00 00 00 07 10 00 	addu $7,$0,$16
  4063a8:	02 00 00 00 c8 0a 10 00 	jal 402b20 <pbm_readpbmrow>
  4063b0:	42 00 00 00 00 10 11 00 	addu $16,$0,$17
  4063b8:	42 00 00 00 00 04 12 00 	addu $4,$0,$18
  4063c0:	42 00 00 00 00 11 00 00 	addu $17,$0,$0
  4063c8:	07 00 00 00 72 00 00 14 	blez $20,406598 <pgm_readpgmrow+0x5a0>
  4063d0:	4f 00 00 00 03 00 03 14 	andi $3,$20,3
  4063d8:	05 00 00 00 3c 00 00 03 	beq $3,$0,4064d0 <pgm_readpgmrow+0x4d8>
  4063e0:	5c 00 00 00 02 00 02 03 	slti $2,$3,2
  4063e8:	06 00 00 00 24 00 00 02 	bne $2,$0,406480 <pgm_readpgmrow+0x488>
  4063f0:	5c 00 00 00 03 00 02 03 	slti $2,$3,3
  4063f8:	06 00 00 00 10 00 00 02 	bne $2,$0,406440 <pgm_readpgmrow+0x448>
  406400:	22 00 00 00 00 00 02 12 	lbu $2,0($18)
  406408:	42 00 00 00 00 03 00 00 	addu $3,$0,$0
  406410:	06 00 00 00 02 00 00 02 	bne $2,$0,406420 <pgm_readpgmrow+0x428>
  406418:	42 00 00 00 00 03 13 00 	addu $3,$0,$19
  406420:	30 00 00 00 00 00 03 10 	sb $3,0($16)
  406428:	43 00 00 00 01 00 11 00 	addiu $17,$0,1
  406430:	43 00 00 00 01 00 10 10 	addiu $16,$16,1
  406438:	43 00 00 00 01 00 04 12 	addiu $4,$18,1
  406440:	22 00 00 00 00 00 02 04 	lbu $2,0($4)
  406448:	42 00 00 00 00 03 00 00 	addu $3,$0,$0
  406450:	06 00 00 00 02 00 00 02 	bne $2,$0,406460 <pgm_readpgmrow+0x468>
  406458:	42 00 00 00 00 03 13 00 	addu $3,$0,$19
  406460:	30 00 00 00 00 00 03 10 	sb $3,0($16)
  406468:	43 00 00 00 01 00 11 11 	addiu $17,$17,1
  406470:	43 00 00 00 01 00 10 10 	addiu $16,$16,1
  406478:	43 00 00 00 01 00 04 04 	addiu $4,$4,1
  406480:	22 00 00 00 00 00 02 04 	lbu $2,0($4)
  406488:	42 00 00 00 00 03 00 00 	addu $3,$0,$0
  406490:	06 00 00 00 02 00 00 02 	bne $2,$0,4064a0 <pgm_readpgmrow+0x4a8>
  406498:	42 00 00 00 00 03 13 00 	addu $3,$0,$19
  4064a0:	30 00 00 00 00 00 03 10 	sb $3,0($16)
  4064a8:	43 00 00 00 01 00 11 11 	addiu $17,$17,1
  4064b0:	43 00 00 00 01 00 10 10 	addiu $16,$16,1
  4064b8:	43 00 00 00 01 00 04 04 	addiu $4,$4,1
  4064c0:	5b 00 00 00 00 02 14 11 	slt $2,$17,$20
  4064c8:	05 00 00 00 32 00 00 02 	beq $2,$0,406598 <pgm_readpgmrow+0x5a0>
  4064d0:	22 00 00 00 00 00 02 04 	lbu $2,0($4)
  4064d8:	42 00 00 00 00 03 00 00 	addu $3,$0,$0
  4064e0:	06 00 00 00 02 00 00 02 	bne $2,$0,4064f0 <pgm_readpgmrow+0x4f8>
  4064e8:	42 00 00 00 00 03 13 00 	addu $3,$0,$19
  4064f0:	30 00 00 00 00 00 03 10 	sb $3,0($16)
  4064f8:	22 00 00 00 01 00 02 04 	lbu $2,1($4)
  406500:	42 00 00 00 00 03 00 00 	addu $3,$0,$0
  406508:	06 00 00 00 02 00 00 02 	bne $2,$0,406518 <pgm_readpgmrow+0x520>
  406510:	42 00 00 00 00 03 13 00 	addu $3,$0,$19
  406518:	30 00 00 00 01 00 03 10 	sb $3,1($16)
  406520:	22 00 00 00 02 00 02 04 	lbu $2,2($4)
  406528:	42 00 00 00 00 03 00 00 	addu $3,$0,$0
  406530:	06 00 00 00 02 00 00 02 	bne $2,$0,406540 <pgm_readpgmrow+0x548>
  406538:	42 00 00 00 00 03 13 00 	addu $3,$0,$19
  406540:	30 00 00 00 02 00 03 10 	sb $3,2($16)
  406548:	22 00 00 00 03 00 02 04 	lbu $2,3($4)
  406550:	42 00 00 00 00 03 00 00 	addu $3,$0,$0
  406558:	06 00 00 00 02 00 00 02 	bne $2,$0,406568 <pgm_readpgmrow+0x570>
  406560:	42 00 00 00 00 03 13 00 	addu $3,$0,$19
  406568:	30 00 00 00 03 00 03 10 	sb $3,3($16)
  406570:	43 00 00 00 04 00 11 11 	addiu $17,$17,4
  406578:	43 00 00 00 04 00 10 10 	addiu $16,$16,4
  406580:	43 00 00 00 04 00 04 04 	addiu $4,$4,4
  406588:	5b 00 00 00 00 02 14 11 	slt $2,$17,$20
  406590:	06 00 00 00 ce ff 00 02 	bne $2,$0,4064d0 <pgm_readpgmrow+0x4d8>
  406598:	42 00 00 00 00 04 12 00 	addu $4,$0,$18
  4065a0:	02 00 00 00 9c 00 10 00 	jal 400270 <pm_freerow>
  4065a8:	01 00 00 00 72 19 10 00 	j 4065c8 <pgm_readpgmrow+0x5d0>
  4065b0:	a2 00 00 00 00 10 04 00 	lui $4,4096
  4065b8:	43 00 00 00 58 03 04 04 	addiu $4,$4,856
  4065c0:	02 00 00 00 30 05 10 00 	jal 4014c0 <pm_error>
  4065c8:	28 00 00 00 3c 00 1f 1d 	lw $31,60($29)
  4065d0:	28 00 00 00 38 00 14 1d 	lw $20,56($29)
  4065d8:	28 00 00 00 34 00 13 1d 	lw $19,52($29)
  4065e0:	28 00 00 00 30 00 12 1d 	lw $18,48($29)
  4065e8:	28 00 00 00 2c 00 11 1d 	lw $17,44($29)
  4065f0:	28 00 00 00 28 00 10 1d 	lw $16,40($29)
  4065f8:	43 00 00 00 40 00 1d 1d 	addiu $29,$29,64
  406600:	03 00 00 00 00 00 00 1f 	jr $31

00406608 <pgm_readpgm>:
  406608:	43 00 00 00 88 ff 1d 1d 	addiu $29,$29,-120
  406610:	34 00 00 00 60 00 14 1d 	sw $20,96($29)
  406618:	42 00 00 00 00 14 04 00 	addu $20,$0,$4
  406620:	34 00 00 00 70 00 1e 1d 	sw $30,112($29)
  406628:	42 00 00 00 00 1e 06 00 	addu $30,$0,$6
  406630:	34 00 00 00 74 00 1f 1d 	sw $31,116($29)
  406638:	34 00 00 00 6c 00 17 1d 	sw $23,108($29)
  406640:	34 00 00 00 68 00 16 1d 	sw $22,104($29)
  406648:	34 00 00 00 64 00 15 1d 	sw $21,100($29)
  406650:	34 00 00 00 5c 00 13 1d 	sw $19,92($29)
  406658:	34 00 00 00 58 00 12 1d 	sw $18,88($29)
  406660:	34 00 00 00 54 00 11 1d 	sw $17,84($29)
  406668:	34 00 00 00 50 00 10 1d 	sw $16,80($29)
  406670:	34 00 00 00 18 00 05 1d 	sw $5,24($29)
  406678:	34 00 00 00 20 00 07 1d 	sw $7,32($29)
  406680:	02 00 00 00 b4 09 10 00 	jal 4026d0 <pbm_readmagicnumber>
  406688:	42 00 00 00 00 03 02 00 	addu $3,$0,$2
  406690:	43 00 00 00 32 50 02 00 	addiu $2,$0,20530
  406698:	34 00 00 00 10 00 03 1d 	sw $3,16($29)
  4066a0:	05 00 00 00 14 00 02 03 	beq $3,$2,4066f8 <pgm_readpgm+0xf0>
  4066a8:	43 00 00 00 35 50 02 00 	addiu $2,$0,20533
  4066b0:	05 00 00 00 10 00 02 03 	beq $3,$2,4066f8 <pgm_readpgm+0xf0>
  4066b8:	43 00 00 00 31 50 02 00 	addiu $2,$0,20529
  4066c0:	05 00 00 00 04 00 02 03 	beq $3,$2,4066d8 <pgm_readpgm+0xd0>
  4066c8:	43 00 00 00 34 50 02 00 	addiu $2,$0,20532
  4066d0:	06 00 00 00 04 00 02 03 	bne $3,$2,4066e8 <pgm_readpgm+0xe0>
  4066d8:	43 00 00 00 31 50 03 00 	addiu $3,$0,20529
  4066e0:	01 00 00 00 c0 19 10 00 	j 406700 <pgm_readpgm+0xf8>
  4066e8:	43 00 00 00 ff ff 03 00 	addiu $3,$0,-1
  4066f0:	01 00 00 00 c0 19 10 00 	j 406700 <pgm_readpgm+0xf8>
  4066f8:	43 00 00 00 32 50 03 00 	addiu $3,$0,20530
  406700:	43 00 00 00 31 50 02 00 	addiu $2,$0,20529
  406708:	05 00 00 00 28 00 02 03 	beq $3,$2,4067b0 <pgm_readpgm+0x1a8>
  406710:	43 00 00 00 32 50 02 00 	addiu $2,$0,20530
  406718:	06 00 00 00 34 00 02 03 	bne $3,$2,4067f0 <pgm_readpgm+0x1e8>
  406720:	42 00 00 00 00 04 14 00 	addu $4,$0,$20
  406728:	02 00 00 00 ca 11 10 00 	jal 404728 <pbm_getint>
  406730:	28 00 00 00 18 00 08 1d 	lw $8,24($29)
  406738:	42 00 00 00 00 04 14 00 	addu $4,$0,$20
  406740:	34 00 00 00 00 00 02 08 	sw $2,0($8)
  406748:	02 00 00 00 ca 11 10 00 	jal 404728 <pbm_getint>
  406750:	42 00 00 00 00 04 14 00 	addu $4,$0,$20
  406758:	34 00 00 00 00 00 02 1e 	sw $2,0($30)
  406760:	02 00 00 00 ca 11 10 00 	jal 404728 <pbm_getint>
  406768:	42 00 00 00 00 10 02 00 	addu $16,$0,$2
  406770:	5c 00 00 00 00 01 02 10 	slti $2,$16,256
  406778:	06 00 00 00 06 00 00 02 	bne $2,$0,406798 <pgm_readpgm+0x190>
  406780:	a2 00 00 00 00 10 04 00 	lui $4,4096
  406788:	43 00 00 00 f0 02 04 04 	addiu $4,$4,752
  406790:	02 00 00 00 30 05 10 00 	jal 4014c0 <pm_error>
  406798:	28 00 00 00 20 00 08 1d 	lw $8,32($29)
  4067a0:	30 00 00 00 00 00 10 08 	sb $16,0($8)
  4067a8:	01 00 00 00 02 1a 10 00 	j 406808 <pgm_readpgm+0x200>
  4067b0:	28 00 00 00 18 00 05 1d 	lw $5,24($29)
  4067b8:	42 00 00 00 00 04 14 00 	addu $4,$0,$20
  4067c0:	42 00 00 00 00 06 1e 00 	addu $6,$0,$30
  4067c8:	02 00 00 00 0c 0a 10 00 	jal 402830 <pbm_readpbminitrest>
  4067d0:	22 00 00 00 70 80 02 1c 	lbu $2,-32656($28)
  4067d8:	28 00 00 00 20 00 08 1d 	lw $8,32($29)
  4067e0:	30 00 00 00 00 00 02 08 	sb $2,0($8)
  4067e8:	01 00 00 00 02 1a 10 00 	j 406808 <pgm_readpgm+0x200>
  4067f0:	a2 00 00 00 00 10 04 00 	lui $4,4096
  4067f8:	43 00 00 00 2c 03 04 04 	addiu $4,$4,812
  406800:	02 00 00 00 30 05 10 00 	jal 4014c0 <pm_error>
  406808:	28 00 00 00 18 00 08 1d 	lw $8,24($29)
  406810:	28 00 00 00 00 00 05 1e 	lw $5,0($30)
  406818:	28 00 00 00 00 00 04 08 	lw $4,0($8)
  406820:	43 00 00 00 01 00 06 00 	addiu $6,$0,1
  406828:	02 00 00 00 a8 00 10 00 	jal 4002a0 <pm_allocarray>
  406830:	28 00 00 00 00 00 03 1e 	lw $3,0($30)
  406838:	42 00 00 00 00 16 00 00 	addu $22,$0,$0
  406840:	34 00 00 00 28 00 02 1d 	sw $2,40($29)
  406848:	07 00 00 00 74 01 00 03 	blez $3,406e20 <pgm_readpgm+0x818>
  406850:	28 00 00 00 28 00 17 1d 	lw $23,40($29)
  406858:	28 00 00 00 18 00 08 1d 	lw $8,24($29)
  406860:	28 00 00 00 00 00 13 08 	lw $19,0($8)
  406868:	28 00 00 00 20 00 08 1d 	lw $8,32($29)
  406870:	28 00 00 00 00 00 11 17 	lw $17,0($23)
  406878:	28 00 00 00 10 00 10 1d 	lw $16,16($29)
  406880:	22 00 00 00 00 00 12 08 	lbu $18,0($8)
  406888:	43 00 00 00 32 50 02 00 	addiu $2,$0,20530
  406890:	05 00 00 00 14 00 02 10 	beq $16,$2,4068e8 <pgm_readpgm+0x2e0>
  406898:	5c 00 00 00 33 50 02 10 	slti $2,$16,20531
  4068a0:	05 00 00 00 06 00 00 02 	beq $2,$0,4068c0 <pgm_readpgm+0x2b8>
  4068a8:	43 00 00 00 31 50 02 00 	addiu $2,$0,20529
  4068b0:	05 00 00 00 b8 00 02 10 	beq $16,$2,406b98 <pgm_readpgm+0x590>
  4068b8:	01 00 00 00 78 1b 10 00 	j 406de0 <pgm_readpgm+0x7d8>
  4068c0:	43 00 00 00 34 50 02 00 	addiu $2,$0,20532
  4068c8:	05 00 00 00 b2 00 02 10 	beq $16,$2,406b98 <pgm_readpgm+0x590>
  4068d0:	43 00 00 00 35 50 02 00 	addiu $2,$0,20533
  4068d8:	05 00 00 00 58 00 02 10 	beq $16,$2,406a40 <pgm_readpgm+0x438>
  4068e0:	01 00 00 00 78 1b 10 00 	j 406de0 <pgm_readpgm+0x7d8>
  4068e8:	42 00 00 00 00 10 11 00 	addu $16,$0,$17
  4068f0:	42 00 00 00 00 11 00 00 	addu $17,$0,$0
  4068f8:	07 00 00 00 3e 01 00 13 	blez $19,406df8 <pgm_readpgm+0x7f0>
  406900:	4f 00 00 00 03 00 03 13 	andi $3,$19,3
  406908:	05 00 00 00 2a 00 00 03 	beq $3,$0,4069b8 <pgm_readpgm+0x3b0>
  406910:	5c 00 00 00 02 00 02 03 	slti $2,$3,2
  406918:	06 00 00 00 18 00 00 02 	bne $2,$0,406980 <pgm_readpgm+0x378>
  406920:	5c 00 00 00 03 00 02 03 	slti $2,$3,3
  406928:	06 00 00 00 0a 00 00 02 	bne $2,$0,406958 <pgm_readpgm+0x350>
  406930:	42 00 00 00 00 04 14 00 	addu $4,$0,$20
  406938:	02 00 00 00 ca 11 10 00 	jal 404728 <pbm_getint>
  406940:	30 00 00 00 00 00 02 10 	sb $2,0($16)
  406948:	43 00 00 00 01 00 11 00 	addiu $17,$0,1
  406950:	43 00 00 00 01 00 10 10 	addiu $16,$16,1
  406958:	42 00 00 00 00 04 14 00 	addu $4,$0,$20
  406960:	02 00 00 00 ca 11 10 00 	jal 404728 <pbm_getint>
  406968:	30 00 00 00 00 00 02 10 	sb $2,0($16)
  406970:	43 00 00 00 01 00 11 11 	addiu $17,$17,1
  406978:	43 00 00 00 01 00 10 10 	addiu $16,$16,1
  406980:	42 00 00 00 00 04 14 00 	addu $4,$0,$20
  406988:	02 00 00 00 ca 11 10 00 	jal 404728 <pbm_getint>
  406990:	30 00 00 00 00 00 02 10 	sb $2,0($16)
  406998:	43 00 00 00 01 00 11 11 	addiu $17,$17,1
  4069a0:	43 00 00 00 01 00 10 10 	addiu $16,$16,1
  4069a8:	5b 00 00 00 00 02 13 11 	slt $2,$17,$19
  4069b0:	05 00 00 00 10 01 00 02 	beq $2,$0,406df8 <pgm_readpgm+0x7f0>
  4069b8:	42 00 00 00 00 04 14 00 	addu $4,$0,$20
  4069c0:	02 00 00 00 ca 11 10 00 	jal 404728 <pbm_getint>
  4069c8:	42 00 00 00 00 04 14 00 	addu $4,$0,$20
  4069d0:	30 00 00 00 00 00 02 10 	sb $2,0($16)
  4069d8:	02 00 00 00 ca 11 10 00 	jal 404728 <pbm_getint>
  4069e0:	42 00 00 00 00 04 14 00 	addu $4,$0,$20
  4069e8:	30 00 00 00 01 00 02 10 	sb $2,1($16)
  4069f0:	02 00 00 00 ca 11 10 00 	jal 404728 <pbm_getint>
  4069f8:	42 00 00 00 00 04 14 00 	addu $4,$0,$20
  406a00:	30 00 00 00 02 00 02 10 	sb $2,2($16)
  406a08:	02 00 00 00 ca 11 10 00 	jal 404728 <pbm_getint>
  406a10:	43 00 00 00 04 00 11 11 	addiu $17,$17,4
  406a18:	30 00 00 00 03 00 02 10 	sb $2,3($16)
  406a20:	43 00 00 00 04 00 10 10 	addiu $16,$16,4
  406a28:	5b 00 00 00 00 02 13 11 	slt $2,$17,$19
  406a30:	06 00 00 00 e0 ff 00 02 	bne $2,$0,4069b8 <pgm_readpgm+0x3b0>
  406a38:	01 00 00 00 7e 1b 10 00 	j 406df8 <pgm_readpgm+0x7f0>
  406a40:	42 00 00 00 00 10 11 00 	addu $16,$0,$17
  406a48:	42 00 00 00 00 11 00 00 	addu $17,$0,$0
  406a50:	07 00 00 00 e8 00 00 13 	blez $19,406df8 <pgm_readpgm+0x7f0>
  406a58:	4f 00 00 00 03 00 03 13 	andi $3,$19,3
  406a60:	05 00 00 00 2a 00 00 03 	beq $3,$0,406b10 <pgm_readpgm+0x508>
  406a68:	5c 00 00 00 02 00 02 03 	slti $2,$3,2
  406a70:	06 00 00 00 18 00 00 02 	bne $2,$0,406ad8 <pgm_readpgm+0x4d0>
  406a78:	5c 00 00 00 03 00 02 03 	slti $2,$3,3
  406a80:	06 00 00 00 0a 00 00 02 	bne $2,$0,406ab0 <pgm_readpgm+0x4a8>
  406a88:	42 00 00 00 00 04 14 00 	addu $4,$0,$20
  406a90:	02 00 00 00 9c 11 10 00 	jal 404670 <pbm_getrawbyte>
  406a98:	30 00 00 00 00 00 02 10 	sb $2,0($16)
  406aa0:	43 00 00 00 01 00 11 00 	addiu $17,$0,1
  406aa8:	43 00 00 00 01 00 10 10 	addiu $16,$16,1
  406ab0:	42 00 00 00 00 04 14 00 	addu $4,$0,$20
  406ab8:	02 00 00 00 9c 11 10 00 	jal 404670 <pbm_getrawbyte>
  406ac0:	30 00 00 00 00 00 02 10 	sb $2,0($16)
  406ac8:	43 00 00 00 01 00 11 11 	addiu $17,$17,1
  406ad0:	43 00 00 00 01 00 10 10 	addiu $16,$16,1
  406ad8:	42 00 00 00 00 04 14 00 	addu $4,$0,$20
  406ae0:	02 00 00 00 9c 11 10 00 	jal 404670 <pbm_getrawbyte>
  406ae8:	30 00 00 00 00 00 02 10 	sb $2,0($16)
  406af0:	43 00 00 00 01 00 11 11 	addiu $17,$17,1
  406af8:	43 00 00 00 01 00 10 10 	addiu $16,$16,1
  406b00:	5b 00 00 00 00 02 13 11 	slt $2,$17,$19
  406b08:	05 00 00 00 ba 00 00 02 	beq $2,$0,406df8 <pgm_readpgm+0x7f0>
  406b10:	42 00 00 00 00 04 14 00 	addu $4,$0,$20
  406b18:	02 00 00 00 9c 11 10 00 	jal 404670 <pbm_getrawbyte>
  406b20:	42 00 00 00 00 04 14 00 	addu $4,$0,$20
  406b28:	30 00 00 00 00 00 02 10 	sb $2,0($16)
  406b30:	02 00 00 00 9c 11 10 00 	jal 404670 <pbm_getrawbyte>
  406b38:	42 00 00 00 00 04 14 00 	addu $4,$0,$20
  406b40:	30 00 00 00 01 00 02 10 	sb $2,1($16)
  406b48:	02 00 00 00 9c 11 10 00 	jal 404670 <pbm_getrawbyte>
  406b50:	42 00 00 00 00 04 14 00 	addu $4,$0,$20
  406b58:	30 00 00 00 02 00 02 10 	sb $2,2($16)
  406b60:	02 00 00 00 9c 11 10 00 	jal 404670 <pbm_getrawbyte>
  406b68:	43 00 00 00 04 00 11 11 	addiu $17,$17,4
  406b70:	30 00 00 00 03 00 02 10 	sb $2,3($16)
  406b78:	43 00 00 00 04 00 10 10 	addiu $16,$16,4
  406b80:	5b 00 00 00 00 02 13 11 	slt $2,$17,$19
  406b88:	06 00 00 00 e0 ff 00 02 	bne $2,$0,406b10 <pgm_readpgm+0x508>
  406b90:	01 00 00 00 7e 1b 10 00 	j 406df8 <pgm_readpgm+0x7f0>
  406b98:	42 00 00 00 00 04 13 00 	addu $4,$0,$19
  406ba0:	43 00 00 00 01 00 05 00 	addiu $5,$0,1
  406ba8:	02 00 00 00 7c 00 10 00 	jal 4001f0 <pm_allocrow>
  406bb0:	42 00 00 00 00 04 14 00 	addu $4,$0,$20
  406bb8:	42 00 00 00 00 15 02 00 	addu $21,$0,$2
  406bc0:	42 00 00 00 00 05 15 00 	addu $5,$0,$21
  406bc8:	42 00 00 00 00 06 13 00 	addu $6,$0,$19
  406bd0:	42 00 00 00 00 07 10 00 	addu $7,$0,$16
  406bd8:	02 00 00 00 c8 0a 10 00 	jal 402b20 <pbm_readpbmrow>
  406be0:	42 00 00 00 00 10 11 00 	addu $16,$0,$17
  406be8:	42 00 00 00 00 04 15 00 	addu $4,$0,$21
  406bf0:	42 00 00 00 00 11 00 00 	addu $17,$0,$0
  406bf8:	07 00 00 00 72 00 00 13 	blez $19,406dc8 <pgm_readpgm+0x7c0>
  406c00:	4f 00 00 00 03 00 03 13 	andi $3,$19,3
  406c08:	05 00 00 00 3c 00 00 03 	beq $3,$0,406d00 <pgm_readpgm+0x6f8>
  406c10:	5c 00 00 00 02 00 02 03 	slti $2,$3,2
  406c18:	06 00 00 00 24 00 00 02 	bne $2,$0,406cb0 <pgm_readpgm+0x6a8>
  406c20:	5c 00 00 00 03 00 02 03 	slti $2,$3,3
  406c28:	06 00 00 00 10 00 00 02 	bne $2,$0,406c70 <pgm_readpgm+0x668>
  406c30:	22 00 00 00 00 00 02 15 	lbu $2,0($21)
  406c38:	42 00 00 00 00 03 00 00 	addu $3,$0,$0
  406c40:	06 00 00 00 02 00 00 02 	bne $2,$0,406c50 <pgm_readpgm+0x648>
  406c48:	42 00 00 00 00 03 12 00 	addu $3,$0,$18
  406c50:	30 00 00 00 00 00 03 10 	sb $3,0($16)
  406c58:	43 00 00 00 01 00 11 00 	addiu $17,$0,1
  406c60:	43 00 00 00 01 00 10 10 	addiu $16,$16,1
  406c68:	43 00 00 00 01 00 04 15 	addiu $4,$21,1
  406c70:	22 00 00 00 00 00 02 04 	lbu $2,0($4)
  406c78:	42 00 00 00 00 03 00 00 	addu $3,$0,$0
  406c80:	06 00 00 00 02 00 00 02 	bne $2,$0,406c90 <pgm_readpgm+0x688>
  406c88:	42 00 00 00 00 03 12 00 	addu $3,$0,$18
  406c90:	30 00 00 00 00 00 03 10 	sb $3,0($16)
  406c98:	43 00 00 00 01 00 11 11 	addiu $17,$17,1
  406ca0:	43 00 00 00 01 00 10 10 	addiu $16,$16,1
  406ca8:	43 00 00 00 01 00 04 04 	addiu $4,$4,1
  406cb0:	22 00 00 00 00 00 02 04 	lbu $2,0($4)
  406cb8:	42 00 00 00 00 03 00 00 	addu $3,$0,$0
  406cc0:	06 00 00 00 02 00 00 02 	bne $2,$0,406cd0 <pgm_readpgm+0x6c8>
  406cc8:	42 00 00 00 00 03 12 00 	addu $3,$0,$18
  406cd0:	30 00 00 00 00 00 03 10 	sb $3,0($16)
  406cd8:	43 00 00 00 01 00 11 11 	addiu $17,$17,1
  406ce0:	43 00 00 00 01 00 10 10 	addiu $16,$16,1
  406ce8:	43 00 00 00 01 00 04 04 	addiu $4,$4,1
  406cf0:	5b 00 00 00 00 02 13 11 	slt $2,$17,$19
  406cf8:	05 00 00 00 32 00 00 02 	beq $2,$0,406dc8 <pgm_readpgm+0x7c0>
  406d00:	22 00 00 00 00 00 02 04 	lbu $2,0($4)
  406d08:	42 00 00 00 00 03 00 00 	addu $3,$0,$0
  406d10:	06 00 00 00 02 00 00 02 	bne $2,$0,406d20 <pgm_readpgm+0x718>
  406d18:	42 00 00 00 00 03 12 00 	addu $3,$0,$18
  406d20:	30 00 00 00 00 00 03 10 	sb $3,0($16)
  406d28:	22 00 00 00 01 00 02 04 	lbu $2,1($4)
  406d30:	42 00 00 00 00 03 00 00 	addu $3,$0,$0
  406d38:	06 00 00 00 02 00 00 02 	bne $2,$0,406d48 <pgm_readpgm+0x740>
  406d40:	42 00 00 00 00 03 12 00 	addu $3,$0,$18
  406d48:	30 00 00 00 01 00 03 10 	sb $3,1($16)
  406d50:	22 00 00 00 02 00 02 04 	lbu $2,2($4)
  406d58:	42 00 00 00 00 03 00 00 	addu $3,$0,$0
  406d60:	06 00 00 00 02 00 00 02 	bne $2,$0,406d70 <pgm_readpgm+0x768>
  406d68:	42 00 00 00 00 03 12 00 	addu $3,$0,$18
  406d70:	30 00 00 00 02 00 03 10 	sb $3,2($16)
  406d78:	22 00 00 00 03 00 02 04 	lbu $2,3($4)
  406d80:	42 00 00 00 00 03 00 00 	addu $3,$0,$0
  406d88:	06 00 00 00 02 00 00 02 	bne $2,$0,406d98 <pgm_readpgm+0x790>
  406d90:	42 00 00 00 00 03 12 00 	addu $3,$0,$18
  406d98:	30 00 00 00 03 00 03 10 	sb $3,3($16)
  406da0:	43 00 00 00 04 00 11 11 	addiu $17,$17,4
  406da8:	43 00 00 00 04 00 10 10 	addiu $16,$16,4
  406db0:	43 00 00 00 04 00 04 04 	addiu $4,$4,4
  406db8:	5b 00 00 00 00 02 13 11 	slt $2,$17,$19
  406dc0:	06 00 00 00 ce ff 00 02 	bne $2,$0,406d00 <pgm_readpgm+0x6f8>
  406dc8:	42 00 00 00 00 04 15 00 	addu $4,$0,$21
  406dd0:	02 00 00 00 9c 00 10 00 	jal 400270 <pm_freerow>
  406dd8:	01 00 00 00 7e 1b 10 00 	j 406df8 <pgm_readpgm+0x7f0>
  406de0:	a2 00 00 00 00 10 04 00 	lui $4,4096
  406de8:	43 00 00 00 58 03 04 04 	addiu $4,$4,856
  406df0:	02 00 00 00 30 05 10 00 	jal 4014c0 <pm_error>
  406df8:	28 00 00 00 00 00 02 1e 	lw $2,0($30)
  406e00:	43 00 00 00 04 00 17 17 	addiu $23,$23,4
  406e08:	43 00 00 00 01 00 16 16 	addiu $22,$22,1
  406e10:	5b 00 00 00 00 02 02 16 	slt $2,$22,$2
  406e18:	06 00 00 00 8e fe 00 02 	bne $2,$0,406858 <pgm_readpgm+0x250>
  406e20:	28 00 00 00 28 00 02 1d 	lw $2,40($29)
  406e28:	28 00 00 00 74 00 1f 1d 	lw $31,116($29)
  406e30:	28 00 00 00 70 00 1e 1d 	lw $30,112($29)
  406e38:	28 00 00 00 6c 00 17 1d 	lw $23,108($29)
  406e40:	28 00 00 00 68 00 16 1d 	lw $22,104($29)
  406e48:	28 00 00 00 64 00 15 1d 	lw $21,100($29)
  406e50:	28 00 00 00 60 00 14 1d 	lw $20,96($29)
  406e58:	28 00 00 00 5c 00 13 1d 	lw $19,92($29)
  406e60:	28 00 00 00 58 00 12 1d 	lw $18,88($29)
  406e68:	28 00 00 00 54 00 11 1d 	lw $17,84($29)
  406e70:	28 00 00 00 50 00 10 1d 	lw $16,80($29)
  406e78:	43 00 00 00 78 00 1d 1d 	addiu $29,$29,120
  406e80:	03 00 00 00 00 00 00 1f 	jr $31
	...

00406e90 <pgm_writepgminit>:
  406e90:	43 00 00 00 d8 ff 1d 1d 	addiu $29,$29,-40
  406e98:	42 00 00 00 00 03 05 00 	addu $3,$0,$5
  406ea0:	28 00 00 00 38 00 02 1d 	lw $2,56($29)
  406ea8:	42 00 00 00 00 08 06 00 	addu $8,$0,$6
  406eb0:	42 00 00 00 00 09 07 00 	addu $9,$0,$7
  406eb8:	34 00 00 00 20 00 1f 1d 	sw $31,32($29)
  406ec0:	06 00 00 00 0a 00 00 02 	bne $2,$0,406ef0 <pgm_writepgminit+0x60>
  406ec8:	a2 00 00 00 00 10 05 00 	lui $5,4096
  406ed0:	43 00 00 00 70 03 05 05 	addiu $5,$5,880
  406ed8:	43 00 00 00 50 00 06 00 	addiu $6,$0,80
  406ee0:	43 00 00 00 35 00 07 00 	addiu $7,$0,53
  406ee8:	01 00 00 00 c4 1b 10 00 	j 406f10 <pgm_writepgminit+0x80>
  406ef0:	a2 00 00 00 00 10 05 00 	lui $5,4096
  406ef8:	43 00 00 00 70 03 05 05 	addiu $5,$5,880
  406f00:	43 00 00 00 50 00 06 00 	addiu $6,$0,80
  406f08:	43 00 00 00 32 00 07 00 	addiu $7,$0,50
  406f10:	4f 00 00 00 ff 00 02 09 	andi $2,$9,255
  406f18:	34 00 00 00 10 00 03 1d 	sw $3,16($29)
  406f20:	34 00 00 00 14 00 08 1d 	sw $8,20($29)
  406f28:	34 00 00 00 18 00 02 1d 	sw $2,24($29)
  406f30:	02 00 00 00 4c 74 11 00 	jal 45d130 <fprintf>
  406f38:	28 00 00 00 20 00 1f 1d 	lw $31,32($29)
  406f40:	43 00 00 00 28 00 1d 1d 	addiu $29,$29,40
  406f48:	03 00 00 00 00 00 00 1f 	jr $31

00406f50 <putus>:
  406f50:	43 00 00 00 e0 ff 1d 1d 	addiu $29,$29,-32
  406f58:	34 00 00 00 10 00 10 1d 	sw $16,16($29)
  406f60:	42 00 00 00 00 10 05 00 	addu $16,$0,$5
  406f68:	34 00 00 00 14 00 11 1d 	sw $17,20($29)
  406f70:	4f 00 00 00 ff ff 11 04 	andi $17,$4,65535
  406f78:	5e 00 00 00 0a 00 02 11 	sltiu $2,$17,10
  406f80:	34 00 00 00 18 00 1f 1d 	sw $31,24($29)
  406f88:	06 00 00 00 12 00 00 02 	bne $2,$0,406fd8 <putus+0x88>
  406f90:	29 00 00 00 80 80 02 1c 	dlw $2,-32640($28)
  406f98:	47 00 00 00 00 00 02 11 	multu $17,$2
  406fa0:	4a 00 00 00 00 03 00 00 	mfhi $3
  406fa8:	4c 00 00 00 00 02 00 00 	mflo $2
  406fb0:	57 00 00 00 00 02 03 00 	srl $2,$3,0x0
  406fb8:	42 00 00 00 00 03 00 00 	addu $3,$0,$0
  406fc0:	57 00 00 00 03 02 02 00 	srl $2,$2,0x3
  406fc8:	4f 00 00 00 ff ff 04 02 	andi $4,$2,65535
  406fd0:	02 00 00 00 d4 1b 10 00 	jal 406f50 <putus>
  406fd8:	28 00 00 00 04 00 05 10 	lw $5,4($16)
  406fe0:	28 00 00 00 0c 00 02 10 	lw $2,12($16)
  406fe8:	5d 00 00 00 00 02 02 05 	sltu $2,$5,$2
  406ff0:	05 00 00 00 20 00 00 02 	beq $2,$0,407078 <putus+0x128>
  406ff8:	29 00 00 00 80 80 02 1c 	dlw $2,-32640($28)
  407000:	47 00 00 00 00 00 02 11 	multu $17,$2
  407008:	4a 00 00 00 00 03 00 00 	mfhi $3
  407010:	4c 00 00 00 00 02 00 00 	mflo $2
  407018:	43 00 00 00 01 00 04 05 	addiu $4,$5,1
  407020:	34 00 00 00 04 00 04 10 	sw $4,4($16)
  407028:	57 00 00 00 00 02 03 00 	srl $2,$3,0x0
  407030:	42 00 00 00 00 03 00 00 	addu $3,$0,$0
  407038:	57 00 00 00 03 02 02 00 	srl $2,$2,0x3
  407040:	55 00 00 00 02 04 02 00 	sll $4,$2,0x2
  407048:	42 00 00 00 00 04 02 04 	addu $4,$4,$2
  407050:	55 00 00 00 01 04 04 00 	sll $4,$4,0x1
  407058:	45 00 00 00 00 04 04 11 	subu $4,$17,$4
  407060:	43 00 00 00 30 00 04 04 	addiu $4,$4,48
  407068:	30 00 00 00 00 00 04 05 	sb $4,0($5)
  407070:	01 00 00 00 3c 1c 10 00 	j 4070f0 <putus+0x1a0>
  407078:	29 00 00 00 80 80 02 1c 	dlw $2,-32640($28)
  407080:	47 00 00 00 00 00 02 11 	multu $17,$2
  407088:	4a 00 00 00 00 03 00 00 	mfhi $3
  407090:	4c 00 00 00 00 02 00 00 	mflo $2
  407098:	42 00 00 00 00 04 10 00 	addu $4,$0,$16
  4070a0:	57 00 00 00 00 02 03 00 	srl $2,$3,0x0
  4070a8:	42 00 00 00 00 03 00 00 	addu $3,$0,$0
  4070b0:	57 00 00 00 03 02 02 00 	srl $2,$2,0x3
  4070b8:	55 00 00 00 02 05 02 00 	sll $5,$2,0x2
  4070c0:	42 00 00 00 00 05 02 05 	addu $5,$5,$2
  4070c8:	55 00 00 00 01 05 05 00 	sll $5,$5,0x1
  4070d0:	45 00 00 00 00 05 05 11 	subu $5,$17,$5
  4070d8:	43 00 00 00 30 00 05 05 	addiu $5,$5,48
  4070e0:	4f 00 00 00 ff 00 05 05 	andi $5,$5,255
  4070e8:	02 00 00 00 28 86 11 00 	jal 4618a0 <__flshfp>
  4070f0:	28 00 00 00 18 00 1f 1d 	lw $31,24($29)
  4070f8:	28 00 00 00 14 00 11 1d 	lw $17,20($29)
  407100:	28 00 00 00 10 00 10 1d 	lw $16,16($29)
  407108:	43 00 00 00 20 00 1d 1d 	addiu $29,$29,32
  407110:	03 00 00 00 00 00 00 1f 	jr $31

00407118 <pgm_writepgmrowplain>:
  407118:	43 00 00 00 c0 ff 1d 1d 	addiu $29,$29,-64
  407120:	34 00 00 00 18 00 10 1d 	sw $16,24($29)
  407128:	42 00 00 00 00 10 04 00 	addu $16,$0,$4
  407130:	34 00 00 00 30 00 16 1d 	sw $22,48($29)
  407138:	42 00 00 00 00 16 00 00 	addu $22,$0,$0
  407140:	34 00 00 00 24 00 13 1d 	sw $19,36($29)
  407148:	42 00 00 00 00 13 05 00 	addu $19,$0,$5
  407150:	34 00 00 00 20 00 12 1d 	sw $18,32($29)
  407158:	42 00 00 00 00 12 00 00 	addu $18,$0,$0
  407160:	34 00 00 00 34 00 17 1d 	sw $23,52($29)
  407168:	42 00 00 00 00 17 06 00 	addu $23,$0,$6
  407170:	34 00 00 00 38 00 1f 1d 	sw $31,56($29)
  407178:	34 00 00 00 2c 00 15 1d 	sw $21,44($29)
  407180:	34 00 00 00 28 00 14 1d 	sw $20,40($29)
  407188:	34 00 00 00 1c 00 11 1d 	sw $17,28($29)
  407190:	07 00 00 00 a2 00 00 17 	blez $23,407420 <pgm_writepgmrowplain+0x308>
  407198:	29 00 00 00 88 80 14 1c 	dlw $20,-32632($28)
  4071a0:	5c 00 00 00 41 00 02 12 	slti $2,$18,65
  4071a8:	06 00 00 00 1c 00 00 02 	bne $2,$0,407220 <pgm_writepgmrowplain+0x108>
  4071b0:	28 00 00 00 04 00 03 10 	lw $3,4($16)
  4071b8:	28 00 00 00 0c 00 02 10 	lw $2,12($16)
  4071c0:	5d 00 00 00 00 02 02 03 	sltu $2,$3,$2
  4071c8:	05 00 00 00 0a 00 00 02 	beq $2,$0,4071f8 <pgm_writepgmrowplain+0xe0>
  4071d0:	43 00 00 00 01 00 02 03 	addiu $2,$3,1
  4071d8:	34 00 00 00 04 00 02 10 	sw $2,4($16)
  4071e0:	43 00 00 00 0a 00 02 00 	addiu $2,$0,10
  4071e8:	30 00 00 00 00 00 02 03 	sb $2,0($3)
  4071f0:	01 00 00 00 84 1c 10 00 	j 407210 <pgm_writepgmrowplain+0xf8>
  4071f8:	42 00 00 00 00 04 10 00 	addu $4,$0,$16
  407200:	43 00 00 00 0a 00 05 00 	addiu $5,$0,10
  407208:	02 00 00 00 28 86 11 00 	jal 4618a0 <__flshfp>
  407210:	42 00 00 00 00 12 00 00 	addu $18,$0,$0
  407218:	01 00 00 00 a4 1c 10 00 	j 407290 <pgm_writepgmrowplain+0x178>
  407220:	07 00 00 00 1a 00 00 12 	blez $18,407290 <pgm_writepgmrowplain+0x178>
  407228:	28 00 00 00 04 00 03 10 	lw $3,4($16)
  407230:	28 00 00 00 0c 00 02 10 	lw $2,12($16)
  407238:	5d 00 00 00 00 02 02 03 	sltu $2,$3,$2
  407240:	05 00 00 00 0a 00 00 02 	beq $2,$0,407270 <pgm_writepgmrowplain+0x158>
  407248:	43 00 00 00 01 00 02 03 	addiu $2,$3,1
  407250:	34 00 00 00 04 00 02 10 	sw $2,4($16)
  407258:	43 00 00 00 20 00 02 00 	addiu $2,$0,32
  407260:	30 00 00 00 00 00 02 03 	sb $2,0($3)
  407268:	01 00 00 00 a2 1c 10 00 	j 407288 <pgm_writepgmrowplain+0x170>
  407270:	42 00 00 00 00 04 10 00 	addu $4,$0,$16
  407278:	43 00 00 00 20 00 05 00 	addiu $5,$0,32
  407280:	02 00 00 00 28 86 11 00 	jal 4618a0 <__flshfp>
  407288:	43 00 00 00 01 00 12 12 	addiu $18,$18,1
  407290:	22 00 00 00 00 00 11 13 	lbu $17,0($19)
  407298:	5e 00 00 00 0a 00 02 11 	sltiu $2,$17,10
  4072a0:	06 00 00 00 12 00 00 02 	bne $2,$0,4072f0 <pgm_writepgmrowplain+0x1d8>
  4072a8:	47 00 00 00 00 00 14 11 	multu $17,$20
  4072b0:	4a 00 00 00 00 03 00 00 	mfhi $3
  4072b8:	4c 00 00 00 00 02 00 00 	mflo $2
  4072c0:	42 00 00 00 00 05 10 00 	addu $5,$0,$16
  4072c8:	57 00 00 00 00 02 03 00 	srl $2,$3,0x0
  4072d0:	42 00 00 00 00 03 00 00 	addu $3,$0,$0
  4072d8:	57 00 00 00 03 02 02 00 	srl $2,$2,0x3
  4072e0:	4f 00 00 00 ff ff 04 02 	andi $4,$2,65535
  4072e8:	02 00 00 00 d4 1b 10 00 	jal 406f50 <putus>
  4072f0:	28 00 00 00 04 00 03 10 	lw $3,4($16)
  4072f8:	28 00 00 00 0c 00 02 10 	lw $2,12($16)
  407300:	5d 00 00 00 00 02 02 03 	sltu $2,$3,$2
  407308:	05 00 00 00 1e 00 00 02 	beq $2,$0,407388 <pgm_writepgmrowplain+0x270>
  407310:	47 00 00 00 00 00 14 11 	multu $17,$20
  407318:	4a 00 00 00 00 05 00 00 	mfhi $5
  407320:	4c 00 00 00 00 04 00 00 	mflo $4
  407328:	43 00 00 00 01 00 02 03 	addiu $2,$3,1
  407330:	34 00 00 00 04 00 02 10 	sw $2,4($16)
  407338:	57 00 00 00 00 04 05 00 	srl $4,$5,0x0
  407340:	42 00 00 00 00 05 00 00 	addu $5,$0,$0
  407348:	57 00 00 00 03 04 04 00 	srl $4,$4,0x3
  407350:	55 00 00 00 02 02 04 00 	sll $2,$4,0x2
  407358:	42 00 00 00 00 02 04 02 	addu $2,$2,$4
  407360:	55 00 00 00 01 02 02 00 	sll $2,$2,0x1
  407368:	45 00 00 00 00 02 02 11 	subu $2,$17,$2
  407370:	43 00 00 00 30 00 02 02 	addiu $2,$2,48
  407378:	30 00 00 00 00 00 02 03 	sb $2,0($3)
  407380:	01 00 00 00 fe 1c 10 00 	j 4073f8 <pgm_writepgmrowplain+0x2e0>
  407388:	47 00 00 00 00 00 14 11 	multu $17,$20
  407390:	4a 00 00 00 00 03 00 00 	mfhi $3
  407398:	4c 00 00 00 00 02 00 00 	mflo $2
  4073a0:	42 00 00 00 00 04 10 00 	addu $4,$0,$16
  4073a8:	57 00 00 00 00 02 03 00 	srl $2,$3,0x0
  4073b0:	42 00 00 00 00 03 00 00 	addu $3,$0,$0
  4073b8:	57 00 00 00 03 02 02 00 	srl $2,$2,0x3
  4073c0:	55 00 00 00 02 05 02 00 	sll $5,$2,0x2
  4073c8:	42 00 00 00 00 05 02 05 	addu $5,$5,$2
  4073d0:	55 00 00 00 01 05 05 00 	sll $5,$5,0x1
  4073d8:	45 00 00 00 00 05 05 11 	subu $5,$17,$5
  4073e0:	43 00 00 00 30 00 05 05 	addiu $5,$5,48
  4073e8:	4f 00 00 00 ff 00 05 05 	andi $5,$5,255
  4073f0:	02 00 00 00 28 86 11 00 	jal 4618a0 <__flshfp>
  4073f8:	43 00 00 00 03 00 12 12 	addiu $18,$18,3
  407400:	43 00 00 00 01 00 16 16 	addiu $22,$22,1
  407408:	43 00 00 00 01 00 13 13 	addiu $19,$19,1
  407410:	5b 00 00 00 00 02 17 16 	slt $2,$22,$23
  407418:	06 00 00 00 60 ff 00 02 	bne $2,$0,4071a0 <pgm_writepgmrowplain+0x88>
  407420:	07 00 00 00 18 00 00 12 	blez $18,407488 <pgm_writepgmrowplain+0x370>
  407428:	28 00 00 00 04 00 03 10 	lw $3,4($16)
  407430:	28 00 00 00 0c 00 02 10 	lw $2,12($16)
  407438:	5d 00 00 00 00 02 02 03 	sltu $2,$3,$2
  407440:	05 00 00 00 0a 00 00 02 	beq $2,$0,407470 <pgm_writepgmrowplain+0x358>
  407448:	43 00 00 00 01 00 02 03 	addiu $2,$3,1
  407450:	34 00 00 00 04 00 02 10 	sw $2,4($16)
  407458:	43 00 00 00 0a 00 02 00 	addiu $2,$0,10
  407460:	30 00 00 00 00 00 02 03 	sb $2,0($3)
  407468:	01 00 00 00 22 1d 10 00 	j 407488 <pgm_writepgmrowplain+0x370>
  407470:	42 00 00 00 00 04 10 00 	addu $4,$0,$16
  407478:	43 00 00 00 0a 00 05 00 	addiu $5,$0,10
  407480:	02 00 00 00 28 86 11 00 	jal 4618a0 <__flshfp>
  407488:	28 00 00 00 38 00 1f 1d 	lw $31,56($29)
  407490:	28 00 00 00 34 00 17 1d 	lw $23,52($29)
  407498:	28 00 00 00 30 00 16 1d 	lw $22,48($29)
  4074a0:	28 00 00 00 2c 00 15 1d 	lw $21,44($29)
  4074a8:	28 00 00 00 28 00 14 1d 	lw $20,40($29)
  4074b0:	28 00 00 00 24 00 13 1d 	lw $19,36($29)
  4074b8:	28 00 00 00 20 00 12 1d 	lw $18,32($29)
  4074c0:	28 00 00 00 1c 00 11 1d 	lw $17,28($29)
  4074c8:	28 00 00 00 18 00 10 1d 	lw $16,24($29)
  4074d0:	43 00 00 00 40 00 1d 1d 	addiu $29,$29,64
  4074d8:	03 00 00 00 00 00 00 1f 	jr $31

004074e0 <pgm_writepgmrow>:
  4074e0:	43 00 00 00 d0 ff 1d 1d 	addiu $29,$29,-48
  4074e8:	28 00 00 00 40 00 02 1d 	lw $2,64($29)
  4074f0:	34 00 00 00 18 00 10 1d 	sw $16,24($29)
  4074f8:	42 00 00 00 00 10 04 00 	addu $16,$0,$4
  407500:	34 00 00 00 24 00 13 1d 	sw $19,36($29)
  407508:	42 00 00 00 00 13 06 00 	addu $19,$0,$6
  407510:	34 00 00 00 28 00 1f 1d 	sw $31,40($29)
  407518:	34 00 00 00 20 00 12 1d 	sw $18,32($29)
  407520:	34 00 00 00 1c 00 11 1d 	sw $17,28($29)
  407528:	06 00 00 00 d4 00 00 02 	bne $2,$0,407880 <pgm_writepgmrow+0x3a0>
  407530:	42 00 00 00 00 11 05 00 	addu $17,$0,$5
  407538:	42 00 00 00 00 12 00 00 	addu $18,$0,$0
  407540:	07 00 00 00 d6 00 00 13 	blez $19,4078a0 <pgm_writepgmrow+0x3c0>
  407548:	4f 00 00 00 03 00 03 13 	andi $3,$19,3
  407550:	05 00 00 00 60 00 00 03 	beq $3,$0,4076d8 <pgm_writepgmrow+0x1f8>
  407558:	5c 00 00 00 02 00 02 03 	slti $2,$3,2
  407560:	06 00 00 00 3c 00 00 02 	bne $2,$0,407658 <pgm_writepgmrow+0x178>
  407568:	5c 00 00 00 03 00 02 03 	slti $2,$3,3
  407570:	06 00 00 00 1c 00 00 02 	bne $2,$0,4075e8 <pgm_writepgmrow+0x108>
  407578:	28 00 00 00 04 00 03 10 	lw $3,4($16)
  407580:	28 00 00 00 0c 00 02 10 	lw $2,12($16)
  407588:	5d 00 00 00 00 02 02 03 	sltu $2,$3,$2
  407590:	05 00 00 00 0a 00 00 02 	beq $2,$0,4075c0 <pgm_writepgmrow+0xe0>
  407598:	43 00 00 00 01 00 02 03 	addiu $2,$3,1
  4075a0:	34 00 00 00 04 00 02 10 	sw $2,4($16)
  4075a8:	22 00 00 00 00 00 02 05 	lbu $2,0($5)
  4075b0:	30 00 00 00 00 00 02 03 	sb $2,0($3)
  4075b8:	01 00 00 00 76 1d 10 00 	j 4075d8 <pgm_writepgmrow+0xf8>
  4075c0:	22 00 00 00 00 00 05 05 	lbu $5,0($5)
  4075c8:	42 00 00 00 00 04 10 00 	addu $4,$0,$16
  4075d0:	02 00 00 00 28 86 11 00 	jal 4618a0 <__flshfp>
  4075d8:	43 00 00 00 01 00 12 12 	addiu $18,$18,1
  4075e0:	43 00 00 00 01 00 11 11 	addiu $17,$17,1
  4075e8:	28 00 00 00 04 00 03 10 	lw $3,4($16)
  4075f0:	28 00 00 00 0c 00 02 10 	lw $2,12($16)
  4075f8:	5d 00 00 00 00 02 02 03 	sltu $2,$3,$2
  407600:	05 00 00 00 0a 00 00 02 	beq $2,$0,407630 <pgm_writepgmrow+0x150>
  407608:	43 00 00 00 01 00 02 03 	addiu $2,$3,1
  407610:	34 00 00 00 04 00 02 10 	sw $2,4($16)
  407618:	22 00 00 00 00 00 02 11 	lbu $2,0($17)
  407620:	30 00 00 00 00 00 02 03 	sb $2,0($3)
  407628:	01 00 00 00 92 1d 10 00 	j 407648 <pgm_writepgmrow+0x168>
  407630:	22 00 00 00 00 00 05 11 	lbu $5,0($17)
  407638:	42 00 00 00 00 04 10 00 	addu $4,$0,$16
  407640:	02 00 00 00 28 86 11 00 	jal 4618a0 <__flshfp>
  407648:	43 00 00 00 01 00 12 12 	addiu $18,$18,1
  407650:	43 00 00 00 01 00 11 11 	addiu $17,$17,1
  407658:	28 00 00 00 04 00 03 10 	lw $3,4($16)
  407660:	28 00 00 00 0c 00 02 10 	lw $2,12($16)
  407668:	5d 00 00 00 00 02 02 03 	sltu $2,$3,$2
  407670:	05 00 00 00 0a 00 00 02 	beq $2,$0,4076a0 <pgm_writepgmrow+0x1c0>
  407678:	43 00 00 00 01 00 02 03 	addiu $2,$3,1
  407680:	34 00 00 00 04 00 02 10 	sw $2,4($16)
  407688:	22 00 00 00 00 00 02 11 	lbu $2,0($17)
  407690:	30 00 00 00 00 00 02 03 	sb $2,0($3)
  407698:	01 00 00 00 ae 1d 10 00 	j 4076b8 <pgm_writepgmrow+0x1d8>
  4076a0:	22 00 00 00 00 00 05 11 	lbu $5,0($17)
  4076a8:	42 00 00 00 00 04 10 00 	addu $4,$0,$16
  4076b0:	02 00 00 00 28 86 11 00 	jal 4618a0 <__flshfp>
  4076b8:	43 00 00 00 01 00 12 12 	addiu $18,$18,1
  4076c0:	43 00 00 00 01 00 11 11 	addiu $17,$17,1
  4076c8:	5b 00 00 00 00 02 13 12 	slt $2,$18,$19
  4076d0:	05 00 00 00 72 00 00 02 	beq $2,$0,4078a0 <pgm_writepgmrow+0x3c0>
  4076d8:	28 00 00 00 04 00 03 10 	lw $3,4($16)
  4076e0:	28 00 00 00 0c 00 02 10 	lw $2,12($16)
  4076e8:	5d 00 00 00 00 02 02 03 	sltu $2,$3,$2
  4076f0:	05 00 00 00 0a 00 00 02 	beq $2,$0,407720 <pgm_writepgmrow+0x240>
  4076f8:	43 00 00 00 01 00 02 03 	addiu $2,$3,1
  407700:	34 00 00 00 04 00 02 10 	sw $2,4($16)
  407708:	22 00 00 00 00 00 02 11 	lbu $2,0($17)
  407710:	30 00 00 00 00 00 02 03 	sb $2,0($3)
  407718:	01 00 00 00 ce 1d 10 00 	j 407738 <pgm_writepgmrow+0x258>
  407720:	22 00 00 00 00 00 05 11 	lbu $5,0($17)
  407728:	42 00 00 00 00 04 10 00 	addu $4,$0,$16
  407730:	02 00 00 00 28 86 11 00 	jal 4618a0 <__flshfp>
  407738:	28 00 00 00 04 00 03 10 	lw $3,4($16)
  407740:	28 00 00 00 0c 00 02 10 	lw $2,12($16)
  407748:	5d 00 00 00 00 02 02 03 	sltu $2,$3,$2
  407750:	05 00 00 00 0a 00 00 02 	beq $2,$0,407780 <pgm_writepgmrow+0x2a0>
  407758:	43 00 00 00 01 00 02 03 	addiu $2,$3,1
  407760:	34 00 00 00 04 00 02 10 	sw $2,4($16)
  407768:	22 00 00 00 01 00 02 11 	lbu $2,1($17)
  407770:	30 00 00 00 00 00 02 03 	sb $2,0($3)
  407778:	01 00 00 00 e6 1d 10 00 	j 407798 <pgm_writepgmrow+0x2b8>
  407780:	22 00 00 00 01 00 05 11 	lbu $5,1($17)
  407788:	42 00 00 00 00 04 10 00 	addu $4,$0,$16
  407790:	02 00 00 00 28 86 11 00 	jal 4618a0 <__flshfp>
  407798:	28 00 00 00 04 00 03 10 	lw $3,4($16)
  4077a0:	28 00 00 00 0c 00 02 10 	lw $2,12($16)
  4077a8:	5d 00 00 00 00 02 02 03 	sltu $2,$3,$2
  4077b0:	05 00 00 00 0a 00 00 02 	beq $2,$0,4077e0 <pgm_writepgmrow+0x300>
  4077b8:	43 00 00 00 01 00 02 03 	addiu $2,$3,1
  4077c0:	34 00 00 00 04 00 02 10 	sw $2,4($16)
  4077c8:	22 00 00 00 02 00 02 11 	lbu $2,2($17)
  4077d0:	30 00 00 00 00 00 02 03 	sb $2,0($3)
  4077d8:	01 00 00 00 fe 1d 10 00 	j 4077f8 <pgm_writepgmrow+0x318>
  4077e0:	22 00 00 00 02 00 05 11 	lbu $5,2($17)
  4077e8:	42 00 00 00 00 04 10 00 	addu $4,$0,$16
  4077f0:	02 00 00 00 28 86 11 00 	jal 4618a0 <__flshfp>
  4077f8:	28 00 00 00 04 00 03 10 	lw $3,4($16)
  407800:	28 00 00 00 0c 00 02 10 	lw $2,12($16)
  407808:	5d 00 00 00 00 02 02 03 	sltu $2,$3,$2
  407810:	05 00 00 00 0a 00 00 02 	beq $2,$0,407840 <pgm_writepgmrow+0x360>
  407818:	43 00 00 00 01 00 02 03 	addiu $2,$3,1
  407820:	34 00 00 00 04 00 02 10 	sw $2,4($16)
  407828:	22 00 00 00 03 00 02 11 	lbu $2,3($17)
  407830:	30 00 00 00 00 00 02 03 	sb $2,0($3)
  407838:	01 00 00 00 16 1e 10 00 	j 407858 <pgm_writepgmrow+0x378>
  407840:	22 00 00 00 03 00 05 11 	lbu $5,3($17)
  407848:	42 00 00 00 00 04 10 00 	addu $4,$0,$16
  407850:	02 00 00 00 28 86 11 00 	jal 4618a0 <__flshfp>
  407858:	43 00 00 00 04 00 12 12 	addiu $18,$18,4
  407860:	43 00 00 00 04 00 11 11 	addiu $17,$17,4
  407868:	5b 00 00 00 00 02 13 12 	slt $2,$18,$19
  407870:	06 00 00 00 98 ff 00 02 	bne $2,$0,4076d8 <pgm_writepgmrow+0x1f8>
  407878:	01 00 00 00 28 1e 10 00 	j 4078a0 <pgm_writepgmrow+0x3c0>
  407880:	42 00 00 00 00 04 10 00 	addu $4,$0,$16
  407888:	42 00 00 00 00 06 13 00 	addu $6,$0,$19
  407890:	4f 00 00 00 ff 00 07 07 	andi $7,$7,255
  407898:	02 00 00 00 46 1c 10 00 	jal 407118 <pgm_writepgmrowplain>
  4078a0:	28 00 00 00 28 00 1f 1d 	lw $31,40($29)
  4078a8:	28 00 00 00 24 00 13 1d 	lw $19,36($29)
  4078b0:	28 00 00 00 20 00 12 1d 	lw $18,32($29)
  4078b8:	28 00 00 00 1c 00 11 1d 	lw $17,28($29)
  4078c0:	28 00 00 00 18 00 10 1d 	lw $16,24($29)
  4078c8:	43 00 00 00 30 00 1d 1d 	addiu $29,$29,48
  4078d0:	03 00 00 00 00 00 00 1f 	jr $31

004078d8 <pgm_writepgm>:
  4078d8:	43 00 00 00 a8 ff 1d 1d 	addiu $29,$29,-88
  4078e0:	34 00 00 00 50 00 1e 1d 	sw $30,80($29)
  4078e8:	28 00 00 00 6c 00 1e 1d 	lw $30,108($29)
  4078f0:	34 00 00 00 4c 00 17 1d 	sw $23,76($29)
  4078f8:	22 00 00 00 68 00 17 1d 	lbu $23,104($29)
  407900:	34 00 00 00 30 00 10 1d 	sw $16,48($29)
  407908:	42 00 00 00 00 10 04 00 	addu $16,$0,$4
  407910:	34 00 00 00 34 00 11 1d 	sw $17,52($29)
  407918:	42 00 00 00 00 11 05 00 	addu $17,$0,$5
  407920:	34 00 00 00 3c 00 13 1d 	sw $19,60($29)
  407928:	42 00 00 00 00 13 06 00 	addu $19,$0,$6
  407930:	34 00 00 00 48 00 16 1d 	sw $22,72($29)
  407938:	42 00 00 00 00 16 07 00 	addu $22,$0,$7
  407940:	34 00 00 00 54 00 1f 1d 	sw $31,84($29)
  407948:	34 00 00 00 44 00 15 1d 	sw $21,68($29)
  407950:	34 00 00 00 40 00 14 1d 	sw $20,64($29)
  407958:	34 00 00 00 38 00 12 1d 	sw $18,56($29)
  407960:	06 00 00 00 0a 00 00 1e 	bne $30,$0,407990 <pgm_writepgm+0xb8>
  407968:	a2 00 00 00 00 10 05 00 	lui $5,4096
  407970:	43 00 00 00 70 03 05 05 	addiu $5,$5,880
  407978:	43 00 00 00 50 00 06 00 	addiu $6,$0,80
  407980:	43 00 00 00 35 00 07 00 	addiu $7,$0,53
  407988:	01 00 00 00 6e 1e 10 00 	j 4079b8 <pgm_writepgm+0xe0>
  407990:	42 00 00 00 00 04 10 00 	addu $4,$0,$16
  407998:	a2 00 00 00 00 10 05 00 	lui $5,4096
  4079a0:	43 00 00 00 70 03 05 05 	addiu $5,$5,880
  4079a8:	43 00 00 00 50 00 06 00 	addiu $6,$0,80
  4079b0:	43 00 00 00 32 00 07 00 	addiu $7,$0,50
  4079b8:	34 00 00 00 10 00 13 1d 	sw $19,16($29)
  4079c0:	34 00 00 00 14 00 16 1d 	sw $22,20($29)
  4079c8:	34 00 00 00 18 00 17 1d 	sw $23,24($29)
  4079d0:	02 00 00 00 4c 74 11 00 	jal 45d130 <fprintf>
  4079d8:	42 00 00 00 00 14 00 00 	addu $20,$0,$0
  4079e0:	07 00 00 00 ea 00 00 16 	blez $22,407d90 <pgm_writepgm+0x4b8>
  4079e8:	42 00 00 00 00 15 11 00 	addu $21,$0,$17
  4079f0:	28 00 00 00 00 00 05 15 	lw $5,0($21)
  4079f8:	06 00 00 00 d4 00 00 1e 	bne $30,$0,407d50 <pgm_writepgm+0x478>
  407a00:	42 00 00 00 00 11 05 00 	addu $17,$0,$5
  407a08:	42 00 00 00 00 12 00 00 	addu $18,$0,$0
  407a10:	07 00 00 00 d6 00 00 13 	blez $19,407d70 <pgm_writepgm+0x498>
  407a18:	4f 00 00 00 03 00 03 13 	andi $3,$19,3
  407a20:	05 00 00 00 60 00 00 03 	beq $3,$0,407ba8 <pgm_writepgm+0x2d0>
  407a28:	5c 00 00 00 02 00 02 03 	slti $2,$3,2
  407a30:	06 00 00 00 3c 00 00 02 	bne $2,$0,407b28 <pgm_writepgm+0x250>
  407a38:	5c 00 00 00 03 00 02 03 	slti $2,$3,3
  407a40:	06 00 00 00 1c 00 00 02 	bne $2,$0,407ab8 <pgm_writepgm+0x1e0>
  407a48:	28 00 00 00 04 00 03 10 	lw $3,4($16)
  407a50:	28 00 00 00 0c 00 02 10 	lw $2,12($16)
  407a58:	5d 00 00 00 00 02 02 03 	sltu $2,$3,$2
  407a60:	05 00 00 00 0a 00 00 02 	beq $2,$0,407a90 <pgm_writepgm+0x1b8>
  407a68:	43 00 00 00 01 00 02 03 	addiu $2,$3,1
  407a70:	34 00 00 00 04 00 02 10 	sw $2,4($16)
  407a78:	22 00 00 00 00 00 02 05 	lbu $2,0($5)
  407a80:	30 00 00 00 00 00 02 03 	sb $2,0($3)
  407a88:	01 00 00 00 aa 1e 10 00 	j 407aa8 <pgm_writepgm+0x1d0>
  407a90:	22 00 00 00 00 00 05 05 	lbu $5,0($5)
  407a98:	42 00 00 00 00 04 10 00 	addu $4,$0,$16
  407aa0:	02 00 00 00 28 86 11 00 	jal 4618a0 <__flshfp>
  407aa8:	43 00 00 00 01 00 12 12 	addiu $18,$18,1
  407ab0:	43 00 00 00 01 00 11 11 	addiu $17,$17,1
  407ab8:	28 00 00 00 04 00 03 10 	lw $3,4($16)
  407ac0:	28 00 00 00 0c 00 02 10 	lw $2,12($16)
  407ac8:	5d 00 00 00 00 02 02 03 	sltu $2,$3,$2
  407ad0:	05 00 00 00 0a 00 00 02 	beq $2,$0,407b00 <pgm_writepgm+0x228>
  407ad8:	43 00 00 00 01 00 02 03 	addiu $2,$3,1
  407ae0:	34 00 00 00 04 00 02 10 	sw $2,4($16)
  407ae8:	22 00 00 00 00 00 02 11 	lbu $2,0($17)
  407af0:	30 00 00 00 00 00 02 03 	sb $2,0($3)
  407af8:	01 00 00 00 c6 1e 10 00 	j 407b18 <pgm_writepgm+0x240>
  407b00:	22 00 00 00 00 00 05 11 	lbu $5,0($17)
  407b08:	42 00 00 00 00 04 10 00 	addu $4,$0,$16
  407b10:	02 00 00 00 28 86 11 00 	jal 4618a0 <__flshfp>
  407b18:	43 00 00 00 01 00 12 12 	addiu $18,$18,1
  407b20:	43 00 00 00 01 00 11 11 	addiu $17,$17,1
  407b28:	28 00 00 00 04 00 03 10 	lw $3,4($16)
  407b30:	28 00 00 00 0c 00 02 10 	lw $2,12($16)
  407b38:	5d 00 00 00 00 02 02 03 	sltu $2,$3,$2
  407b40:	05 00 00 00 0a 00 00 02 	beq $2,$0,407b70 <pgm_writepgm+0x298>
  407b48:	43 00 00 00 01 00 02 03 	addiu $2,$3,1
  407b50:	34 00 00 00 04 00 02 10 	sw $2,4($16)
  407b58:	22 00 00 00 00 00 02 11 	lbu $2,0($17)
  407b60:	30 00 00 00 00 00 02 03 	sb $2,0($3)
  407b68:	01 00 00 00 e2 1e 10 00 	j 407b88 <pgm_writepgm+0x2b0>
  407b70:	22 00 00 00 00 00 05 11 	lbu $5,0($17)
  407b78:	42 00 00 00 00 04 10 00 	addu $4,$0,$16
  407b80:	02 00 00 00 28 86 11 00 	jal 4618a0 <__flshfp>
  407b88:	43 00 00 00 01 00 12 12 	addiu $18,$18,1
  407b90:	43 00 00 00 01 00 11 11 	addiu $17,$17,1
  407b98:	5b 00 00 00 00 02 13 12 	slt $2,$18,$19
  407ba0:	05 00 00 00 72 00 00 02 	beq $2,$0,407d70 <pgm_writepgm+0x498>
  407ba8:	28 00 00 00 04 00 03 10 	lw $3,4($16)
  407bb0:	28 00 00 00 0c 00 02 10 	lw $2,12($16)
  407bb8:	5d 00 00 00 00 02 02 03 	sltu $2,$3,$2
  407bc0:	05 00 00 00 0a 00 00 02 	beq $2,$0,407bf0 <pgm_writepgm+0x318>
  407bc8:	43 00 00 00 01 00 02 03 	addiu $2,$3,1
  407bd0:	34 00 00 00 04 00 02 10 	sw $2,4($16)
  407bd8:	22 00 00 00 00 00 02 11 	lbu $2,0($17)
  407be0:	30 00 00 00 00 00 02 03 	sb $2,0($3)
  407be8:	01 00 00 00 02 1f 10 00 	j 407c08 <pgm_writepgm+0x330>
  407bf0:	22 00 00 00 00 00 05 11 	lbu $5,0($17)
  407bf8:	42 00 00 00 00 04 10 00 	addu $4,$0,$16
  407c00:	02 00 00 00 28 86 11 00 	jal 4618a0 <__flshfp>
  407c08:	28 00 00 00 04 00 03 10 	lw $3,4($16)
  407c10:	28 00 00 00 0c 00 02 10 	lw $2,12($16)
  407c18:	5d 00 00 00 00 02 02 03 	sltu $2,$3,$2
  407c20:	05 00 00 00 0a 00 00 02 	beq $2,$0,407c50 <pgm_writepgm+0x378>
  407c28:	43 00 00 00 01 00 02 03 	addiu $2,$3,1
  407c30:	34 00 00 00 04 00 02 10 	sw $2,4($16)
  407c38:	22 00 00 00 01 00 02 11 	lbu $2,1($17)
  407c40:	30 00 00 00 00 00 02 03 	sb $2,0($3)
  407c48:	01 00 00 00 1a 1f 10 00 	j 407c68 <pgm_writepgm+0x390>
  407c50:	22 00 00 00 01 00 05 11 	lbu $5,1($17)
  407c58:	42 00 00 00 00 04 10 00 	addu $4,$0,$16
  407c60:	02 00 00 00 28 86 11 00 	jal 4618a0 <__flshfp>
  407c68:	28 00 00 00 04 00 03 10 	lw $3,4($16)
  407c70:	28 00 00 00 0c 00 02 10 	lw $2,12($16)
  407c78:	5d 00 00 00 00 02 02 03 	sltu $2,$3,$2
  407c80:	05 00 00 00 0a 00 00 02 	beq $2,$0,407cb0 <pgm_writepgm+0x3d8>
  407c88:	43 00 00 00 01 00 02 03 	addiu $2,$3,1
  407c90:	34 00 00 00 04 00 02 10 	sw $2,4($16)
  407c98:	22 00 00 00 02 00 02 11 	lbu $2,2($17)
  407ca0:	30 00 00 00 00 00 02 03 	sb $2,0($3)
  407ca8:	01 00 00 00 32 1f 10 00 	j 407cc8 <pgm_writepgm+0x3f0>
  407cb0:	22 00 00 00 02 00 05 11 	lbu $5,2($17)
  407cb8:	42 00 00 00 00 04 10 00 	addu $4,$0,$16
  407cc0:	02 00 00 00 28 86 11 00 	jal 4618a0 <__flshfp>
  407cc8:	28 00 00 00 04 00 03 10 	lw $3,4($16)
  407cd0:	28 00 00 00 0c 00 02 10 	lw $2,12($16)
  407cd8:	5d 00 00 00 00 02 02 03 	sltu $2,$3,$2
  407ce0:	05 00 00 00 0a 00 00 02 	beq $2,$0,407d10 <pgm_writepgm+0x438>
  407ce8:	43 00 00 00 01 00 02 03 	addiu $2,$3,1
  407cf0:	34 00 00 00 04 00 02 10 	sw $2,4($16)
  407cf8:	22 00 00 00 03 00 02 11 	lbu $2,3($17)
  407d00:	30 00 00 00 00 00 02 03 	sb $2,0($3)
  407d08:	01 00 00 00 4a 1f 10 00 	j 407d28 <pgm_writepgm+0x450>
  407d10:	22 00 00 00 03 00 05 11 	lbu $5,3($17)
  407d18:	42 00 00 00 00 04 10 00 	addu $4,$0,$16
  407d20:	02 00 00 00 28 86 11 00 	jal 4618a0 <__flshfp>
  407d28:	43 00 00 00 04 00 12 12 	addiu $18,$18,4
  407d30:	43 00 00 00 04 00 11 11 	addiu $17,$17,4
  407d38:	5b 00 00 00 00 02 13 12 	slt $2,$18,$19
  407d40:	06 00 00 00 98 ff 00 02 	bne $2,$0,407ba8 <pgm_writepgm+0x2d0>
  407d48:	01 00 00 00 5c 1f 10 00 	j 407d70 <pgm_writepgm+0x498>
  407d50:	42 00 00 00 00 04 10 00 	addu $4,$0,$16
  407d58:	42 00 00 00 00 06 13 00 	addu $6,$0,$19
  407d60:	4f 00 00 00 ff 00 07 17 	andi $7,$23,255
  407d68:	02 00 00 00 46 1c 10 00 	jal 407118 <pgm_writepgmrowplain>
  407d70:	43 00 00 00 04 00 15 15 	addiu $21,$21,4
  407d78:	43 00 00 00 01 00 14 14 	addiu $20,$20,1
  407d80:	5b 00 00 00 00 02 16 14 	slt $2,$20,$22
  407d88:	06 00 00 00 18 ff 00 02 	bne $2,$0,4079f0 <pgm_writepgm+0x118>
  407d90:	28 00 00 00 54 00 1f 1d 	lw $31,84($29)
  407d98:	28 00 00 00 50 00 1e 1d 	lw $30,80($29)
  407da0:	28 00 00 00 4c 00 17 1d 	lw $23,76($29)
  407da8:	28 00 00 00 48 00 16 1d 	lw $22,72($29)
  407db0:	28 00 00 00 44 00 15 1d 	lw $21,68($29)
  407db8:	28 00 00 00 40 00 14 1d 	lw $20,64($29)
  407dc0:	28 00 00 00 3c 00 13 1d 	lw $19,60($29)
  407dc8:	28 00 00 00 38 00 12 1d 	lw $18,56($29)
  407dd0:	28 00 00 00 34 00 11 1d 	lw $17,52($29)
  407dd8:	28 00 00 00 30 00 10 1d 	lw $16,48($29)
  407de0:	43 00 00 00 58 00 1d 1d 	addiu $29,$29,88
  407de8:	03 00 00 00 00 00 00 1f 	jr $31

00407df0 <ppm_init>:
  407df0:	43 00 00 00 e8 ff 1d 1d 	addiu $29,$29,-24
  407df8:	34 00 00 00 10 00 1f 1d 	sw $31,16($29)
  407e00:	02 00 00 00 30 17 10 00 	jal 405cc0 <pgm_init>
  407e08:	28 00 00 00 10 00 1f 1d 	lw $31,16($29)
  407e10:	43 00 00 00 18 00 1d 1d 	addiu $29,$29,24
  407e18:	03 00 00 00 00 00 00 1f 	jr $31

00407e20 <ppm_readppminitrest>:
  407e20:	43 00 00 00 d8 ff 1d 1d 	addiu $29,$29,-40
  407e28:	34 00 00 00 10 00 10 1d 	sw $16,16($29)
  407e30:	42 00 00 00 00 10 04 00 	addu $16,$0,$4
  407e38:	34 00 00 00 14 00 11 1d 	sw $17,20($29)
  407e40:	42 00 00 00 00 11 05 00 	addu $17,$0,$5
  407e48:	34 00 00 00 18 00 12 1d 	sw $18,24($29)
  407e50:	42 00 00 00 00 12 06 00 	addu $18,$0,$6
  407e58:	34 00 00 00 1c 00 13 1d 	sw $19,28($29)
  407e60:	42 00 00 00 00 13 07 00 	addu $19,$0,$7
  407e68:	34 00 00 00 20 00 1f 1d 	sw $31,32($29)
  407e70:	02 00 00 00 ca 11 10 00 	jal 404728 <pbm_getint>
  407e78:	42 00 00 00 00 04 10 00 	addu $4,$0,$16
  407e80:	34 00 00 00 00 00 02 11 	sw $2,0($17)
  407e88:	02 00 00 00 ca 11 10 00 	jal 404728 <pbm_getint>
  407e90:	42 00 00 00 00 04 10 00 	addu $4,$0,$16
  407e98:	34 00 00 00 00 00 02 12 	sw $2,0($18)
  407ea0:	02 00 00 00 ca 11 10 00 	jal 404728 <pbm_getint>
  407ea8:	42 00 00 00 00 10 02 00 	addu $16,$0,$2
  407eb0:	5c 00 00 00 00 01 02 10 	slti $2,$16,256
  407eb8:	06 00 00 00 06 00 00 02 	bne $2,$0,407ed8 <ppm_readppminitrest+0xb8>
  407ec0:	a2 00 00 00 00 10 04 00 	lui $4,4096
  407ec8:	43 00 00 00 80 03 04 04 	addiu $4,$4,896
  407ed0:	02 00 00 00 30 05 10 00 	jal 4014c0 <pm_error>
  407ed8:	30 00 00 00 00 00 10 13 	sb $16,0($19)
  407ee0:	28 00 00 00 20 00 1f 1d 	lw $31,32($29)
  407ee8:	28 00 00 00 1c 00 13 1d 	lw $19,28($29)
  407ef0:	28 00 00 00 18 00 12 1d 	lw $18,24($29)
  407ef8:	28 00 00 00 14 00 11 1d 	lw $17,20($29)
  407f00:	28 00 00 00 10 00 10 1d 	lw $16,16($29)
  407f08:	43 00 00 00 28 00 1d 1d 	addiu $29,$29,40
  407f10:	03 00 00 00 00 00 00 1f 	jr $31

00407f18 <ppm_readppminit>:
  407f18:	43 00 00 00 d8 ff 1d 1d 	addiu $29,$29,-40
  407f20:	34 00 00 00 10 00 10 1d 	sw $16,16($29)
  407f28:	28 00 00 00 38 00 10 1d 	lw $16,56($29)
  407f30:	34 00 00 00 14 00 11 1d 	sw $17,20($29)
  407f38:	42 00 00 00 00 11 04 00 	addu $17,$0,$4
  407f40:	34 00 00 00 18 00 12 1d 	sw $18,24($29)
  407f48:	42 00 00 00 00 12 05 00 	addu $18,$0,$5
  407f50:	34 00 00 00 1c 00 13 1d 	sw $19,28($29)
  407f58:	42 00 00 00 00 13 06 00 	addu $19,$0,$6
  407f60:	34 00 00 00 20 00 14 1d 	sw $20,32($29)
  407f68:	42 00 00 00 00 14 07 00 	addu $20,$0,$7
  407f70:	34 00 00 00 24 00 1f 1d 	sw $31,36($29)
  407f78:	02 00 00 00 b4 09 10 00 	jal 4026d0 <pbm_readmagicnumber>
  407f80:	42 00 00 00 00 03 02 00 	addu $3,$0,$2
  407f88:	43 00 00 00 33 50 02 00 	addiu $2,$0,20531
  407f90:	34 00 00 00 00 00 03 10 	sw $3,0($16)
  407f98:	05 00 00 00 20 00 02 03 	beq $3,$2,408020 <ppm_readppminit+0x108>
  407fa0:	43 00 00 00 36 50 02 00 	addiu $2,$0,20534
  407fa8:	05 00 00 00 1c 00 02 03 	beq $3,$2,408020 <ppm_readppminit+0x108>
  407fb0:	43 00 00 00 32 50 02 00 	addiu $2,$0,20530
  407fb8:	05 00 00 00 14 00 02 03 	beq $3,$2,408010 <ppm_readppminit+0xf8>
  407fc0:	43 00 00 00 35 50 02 00 	addiu $2,$0,20533
  407fc8:	05 00 00 00 10 00 02 03 	beq $3,$2,408010 <ppm_readppminit+0xf8>
  407fd0:	43 00 00 00 31 50 02 00 	addiu $2,$0,20529
  407fd8:	05 00 00 00 04 00 02 03 	beq $3,$2,407ff0 <ppm_readppminit+0xd8>
  407fe0:	43 00 00 00 34 50 02 00 	addiu $2,$0,20532
  407fe8:	06 00 00 00 04 00 02 03 	bne $3,$2,408000 <ppm_readppminit+0xe8>
  407ff0:	43 00 00 00 31 50 03 00 	addiu $3,$0,20529
  407ff8:	01 00 00 00 0a 20 10 00 	j 408028 <ppm_readppminit+0x110>
  408000:	43 00 00 00 ff ff 03 00 	addiu $3,$0,-1
  408008:	01 00 00 00 0a 20 10 00 	j 408028 <ppm_readppminit+0x110>
  408010:	43 00 00 00 32 50 03 00 	addiu $3,$0,20530
  408018:	01 00 00 00 0a 20 10 00 	j 408028 <ppm_readppminit+0x110>
  408020:	43 00 00 00 33 50 03 00 	addiu $3,$0,20531
  408028:	43 00 00 00 32 50 02 00 	addiu $2,$0,20530
  408030:	05 00 00 00 2e 00 02 03 	beq $3,$2,4080f0 <ppm_readppminit+0x1d8>
  408038:	5c 00 00 00 33 50 02 03 	slti $2,$3,20531
  408040:	05 00 00 00 06 00 00 02 	beq $2,$0,408060 <ppm_readppminit+0x148>
  408048:	43 00 00 00 31 50 02 00 	addiu $2,$0,20529
  408050:	05 00 00 00 32 00 02 03 	beq $3,$2,408120 <ppm_readppminit+0x208>
  408058:	01 00 00 00 56 20 10 00 	j 408158 <ppm_readppminit+0x240>
  408060:	43 00 00 00 33 50 02 00 	addiu $2,$0,20531
  408068:	06 00 00 00 3a 00 02 03 	bne $3,$2,408158 <ppm_readppminit+0x240>
  408070:	42 00 00 00 00 04 11 00 	addu $4,$0,$17
  408078:	02 00 00 00 ca 11 10 00 	jal 404728 <pbm_getint>
  408080:	42 00 00 00 00 04 11 00 	addu $4,$0,$17
  408088:	34 00 00 00 00 00 02 12 	sw $2,0($18)
  408090:	02 00 00 00 ca 11 10 00 	jal 404728 <pbm_getint>
  408098:	42 00 00 00 00 04 11 00 	addu $4,$0,$17
  4080a0:	34 00 00 00 00 00 02 13 	sw $2,0($19)
  4080a8:	02 00 00 00 ca 11 10 00 	jal 404728 <pbm_getint>
  4080b0:	42 00 00 00 00 10 02 00 	addu $16,$0,$2
  4080b8:	5c 00 00 00 00 01 02 10 	slti $2,$16,256
  4080c0:	06 00 00 00 06 00 00 02 	bne $2,$0,4080e0 <ppm_readppminit+0x1c8>
  4080c8:	a2 00 00 00 00 10 04 00 	lui $4,4096
  4080d0:	43 00 00 00 80 03 04 04 	addiu $4,$4,896
  4080d8:	02 00 00 00 30 05 10 00 	jal 4014c0 <pm_error>
  4080e0:	30 00 00 00 00 00 10 14 	sb $16,0($20)
  4080e8:	01 00 00 00 5c 20 10 00 	j 408170 <ppm_readppminit+0x258>
  4080f0:	42 00 00 00 00 04 11 00 	addu $4,$0,$17
  4080f8:	42 00 00 00 00 05 12 00 	addu $5,$0,$18
  408100:	42 00 00 00 00 06 13 00 	addu $6,$0,$19
  408108:	42 00 00 00 00 07 14 00 	addu $7,$0,$20
  408110:	02 00 00 00 3c 17 10 00 	jal 405cf0 <pgm_readpgminitrest>
  408118:	01 00 00 00 5c 20 10 00 	j 408170 <ppm_readppminit+0x258>
  408120:	42 00 00 00 00 04 11 00 	addu $4,$0,$17
  408128:	42 00 00 00 00 05 12 00 	addu $5,$0,$18
  408130:	42 00 00 00 00 06 13 00 	addu $6,$0,$19
  408138:	02 00 00 00 0c 0a 10 00 	jal 402830 <pbm_readpbminitrest>
  408140:	22 00 00 00 90 80 02 1c 	lbu $2,-32624($28)
  408148:	30 00 00 00 00 00 02 14 	sb $2,0($20)
  408150:	01 00 00 00 5c 20 10 00 	j 408170 <ppm_readppminit+0x258>
  408158:	a2 00 00 00 00 10 04 00 	lui $4,4096
  408160:	43 00 00 00 d8 03 04 04 	addiu $4,$4,984
  408168:	02 00 00 00 30 05 10 00 	jal 4014c0 <pm_error>
  408170:	28 00 00 00 24 00 1f 1d 	lw $31,36($29)
  408178:	28 00 00 00 20 00 14 1d 	lw $20,32($29)
  408180:	28 00 00 00 1c 00 13 1d 	lw $19,28($29)
  408188:	28 00 00 00 18 00 12 1d 	lw $18,24($29)
  408190:	28 00 00 00 14 00 11 1d 	lw $17,20($29)
  408198:	28 00 00 00 10 00 10 1d 	lw $16,16($29)
  4081a0:	43 00 00 00 28 00 1d 1d 	addiu $29,$29,40
  4081a8:	03 00 00 00 00 00 00 1f 	jr $31

004081b0 <ppm_readppmrow>:
  4081b0:	43 00 00 00 a0 ff 1d 1d 	addiu $29,$29,-96
  4081b8:	34 00 00 00 40 00 12 1d 	sw $18,64($29)
  4081c0:	28 00 00 00 70 00 12 1d 	lw $18,112($29)
  4081c8:	34 00 00 00 44 00 13 1d 	sw $19,68($29)
  4081d0:	42 00 00 00 00 13 04 00 	addu $19,$0,$4
  4081d8:	34 00 00 00 38 00 10 1d 	sw $16,56($29)
  4081e0:	42 00 00 00 00 10 05 00 	addu $16,$0,$5
  4081e8:	34 00 00 00 54 00 17 1d 	sw $23,84($29)
  4081f0:	42 00 00 00 00 17 06 00 	addu $23,$0,$6
  4081f8:	34 00 00 00 3c 00 11 1d 	sw $17,60($29)
  408200:	42 00 00 00 00 11 07 00 	addu $17,$0,$7
  408208:	34 00 00 00 58 00 1f 1d 	sw $31,88($29)
  408210:	34 00 00 00 50 00 16 1d 	sw $22,80($29)
  408218:	34 00 00 00 4c 00 15 1d 	sw $21,76($29)
  408220:	34 00 00 00 48 00 14 1d 	sw $20,72($29)
  408228:	43 00 00 00 cf af 03 12 	addiu $3,$18,-20529
  408230:	5e 00 00 00 06 00 02 03 	sltiu $2,$3,6
  408238:	05 00 00 00 00 03 00 02 	beq $2,$0,408e40 <ppm_readppmrow+0xc90>
  408240:	55 00 00 00 02 02 03 00 	sll $2,$3,0x2
  408248:	a2 00 00 00 00 10 01 00 	lui $1,4096
  408250:	42 00 00 00 00 01 02 01 	addu $1,$1,$2
  408258:	28 00 00 00 18 04 02 01 	lw $2,1048($1)
  408260:	03 00 00 00 00 00 00 02 	jr $2
  408268:	42 00 00 00 00 12 10 00 	addu $18,$0,$16
  408270:	42 00 00 00 00 16 00 00 	addu $22,$0,$0
  408278:	07 00 00 00 f6 02 00 17 	blez $23,408e58 <ppm_readppmrow+0xca8>
  408280:	43 00 00 00 02 00 14 12 	addiu $20,$18,2
  408288:	4f 00 00 00 03 00 03 17 	andi $3,$23,3
  408290:	05 00 00 00 60 00 00 03 	beq $3,$0,408418 <ppm_readppmrow+0x268>
  408298:	5c 00 00 00 02 00 02 03 	slti $2,$3,2
  4082a0:	06 00 00 00 3c 00 00 02 	bne $2,$0,408398 <ppm_readppmrow+0x1e8>
  4082a8:	5c 00 00 00 03 00 02 03 	slti $2,$3,3
  4082b0:	06 00 00 00 1c 00 00 02 	bne $2,$0,408328 <ppm_readppmrow+0x178>
  4082b8:	42 00 00 00 00 04 13 00 	addu $4,$0,$19
  4082c0:	02 00 00 00 ca 11 10 00 	jal 404728 <pbm_getint>
  4082c8:	42 00 00 00 00 10 02 00 	addu $16,$0,$2
  4082d0:	42 00 00 00 00 04 13 00 	addu $4,$0,$19
  4082d8:	02 00 00 00 ca 11 10 00 	jal 404728 <pbm_getint>
  4082e0:	42 00 00 00 00 11 02 00 	addu $17,$0,$2
  4082e8:	42 00 00 00 00 04 13 00 	addu $4,$0,$19
  4082f0:	02 00 00 00 ca 11 10 00 	jal 404728 <pbm_getint>
  4082f8:	30 00 00 00 00 00 10 12 	sb $16,0($18)
  408300:	30 00 00 00 01 00 11 12 	sb $17,1($18)
  408308:	30 00 00 00 02 00 02 12 	sb $2,2($18)
  408310:	43 00 00 00 01 00 16 00 	addiu $22,$0,1
  408318:	43 00 00 00 05 00 14 12 	addiu $20,$18,5
  408320:	43 00 00 00 03 00 12 12 	addiu $18,$18,3
  408328:	42 00 00 00 00 04 13 00 	addu $4,$0,$19
  408330:	02 00 00 00 ca 11 10 00 	jal 404728 <pbm_getint>
  408338:	42 00 00 00 00 10 02 00 	addu $16,$0,$2
  408340:	42 00 00 00 00 04 13 00 	addu $4,$0,$19
  408348:	02 00 00 00 ca 11 10 00 	jal 404728 <pbm_getint>
  408350:	42 00 00 00 00 11 02 00 	addu $17,$0,$2
  408358:	42 00 00 00 00 04 13 00 	addu $4,$0,$19
  408360:	02 00 00 00 ca 11 10 00 	jal 404728 <pbm_getint>
  408368:	30 00 00 00 00 00 10 12 	sb $16,0($18)
  408370:	30 00 00 00 ff ff 11 14 	sb $17,-1($20)
  408378:	30 00 00 00 00 00 02 14 	sb $2,0($20)
  408380:	43 00 00 00 01 00 16 16 	addiu $22,$22,1
  408388:	43 00 00 00 03 00 14 14 	addiu $20,$20,3
  408390:	43 00 00 00 03 00 12 12 	addiu $18,$18,3
  408398:	42 00 00 00 00 04 13 00 	addu $4,$0,$19
  4083a0:	02 00 00 00 ca 11 10 00 	jal 404728 <pbm_getint>
  4083a8:	42 00 00 00 00 10 02 00 	addu $16,$0,$2
  4083b0:	42 00 00 00 00 04 13 00 	addu $4,$0,$19
  4083b8:	02 00 00 00 ca 11 10 00 	jal 404728 <pbm_getint>
  4083c0:	42 00 00 00 00 11 02 00 	addu $17,$0,$2
  4083c8:	42 00 00 00 00 04 13 00 	addu $4,$0,$19
  4083d0:	02 00 00 00 ca 11 10 00 	jal 404728 <pbm_getint>
  4083d8:	30 00 00 00 00 00 10 12 	sb $16,0($18)
  4083e0:	30 00 00 00 ff ff 11 14 	sb $17,-1($20)
  4083e8:	30 00 00 00 00 00 02 14 	sb $2,0($20)
  4083f0:	43 00 00 00 01 00 16 16 	addiu $22,$22,1
  4083f8:	43 00 00 00 03 00 14 14 	addiu $20,$20,3
  408400:	43 00 00 00 03 00 12 12 	addiu $18,$18,3
  408408:	5b 00 00 00 00 02 17 16 	slt $2,$22,$23
  408410:	05 00 00 00 90 02 00 02 	beq $2,$0,408e58 <ppm_readppmrow+0xca8>
  408418:	43 00 00 00 ff ff 15 14 	addiu $21,$20,-1
  408420:	42 00 00 00 00 04 13 00 	addu $4,$0,$19
  408428:	02 00 00 00 ca 11 10 00 	jal 404728 <pbm_getint>
  408430:	42 00 00 00 00 10 02 00 	addu $16,$0,$2
  408438:	42 00 00 00 00 04 13 00 	addu $4,$0,$19
  408440:	02 00 00 00 ca 11 10 00 	jal 404728 <pbm_getint>
  408448:	42 00 00 00 00 11 02 00 	addu $17,$0,$2
  408450:	42 00 00 00 00 04 13 00 	addu $4,$0,$19
  408458:	02 00 00 00 ca 11 10 00 	jal 404728 <pbm_getint>
  408460:	30 00 00 00 00 00 10 12 	sb $16,0($18)
  408468:	30 00 00 00 00 00 11 15 	sb $17,0($21)
  408470:	30 00 00 00 00 00 02 14 	sb $2,0($20)
  408478:	42 00 00 00 00 04 13 00 	addu $4,$0,$19
  408480:	02 00 00 00 ca 11 10 00 	jal 404728 <pbm_getint>
  408488:	42 00 00 00 00 10 02 00 	addu $16,$0,$2
  408490:	42 00 00 00 00 04 13 00 	addu $4,$0,$19
  408498:	02 00 00 00 ca 11 10 00 	jal 404728 <pbm_getint>
  4084a0:	42 00 00 00 00 11 02 00 	addu $17,$0,$2
  4084a8:	42 00 00 00 00 04 13 00 	addu $4,$0,$19
  4084b0:	02 00 00 00 ca 11 10 00 	jal 404728 <pbm_getint>
  4084b8:	30 00 00 00 03 00 10 12 	sb $16,3($18)
  4084c0:	30 00 00 00 03 00 11 15 	sb $17,3($21)
  4084c8:	30 00 00 00 03 00 02 14 	sb $2,3($20)
  4084d0:	42 00 00 00 00 04 13 00 	addu $4,$0,$19
  4084d8:	02 00 00 00 ca 11 10 00 	jal 404728 <pbm_getint>
  4084e0:	42 00 00 00 00 10 02 00 	addu $16,$0,$2
  4084e8:	42 00 00 00 00 04 13 00 	addu $4,$0,$19
  4084f0:	02 00 00 00 ca 11 10 00 	jal 404728 <pbm_getint>
  4084f8:	42 00 00 00 00 11 02 00 	addu $17,$0,$2
  408500:	42 00 00 00 00 04 13 00 	addu $4,$0,$19
  408508:	02 00 00 00 ca 11 10 00 	jal 404728 <pbm_getint>
  408510:	30 00 00 00 06 00 10 12 	sb $16,6($18)
  408518:	30 00 00 00 06 00 11 15 	sb $17,6($21)
  408520:	30 00 00 00 06 00 02 14 	sb $2,6($20)
  408528:	42 00 00 00 00 04 13 00 	addu $4,$0,$19
  408530:	02 00 00 00 ca 11 10 00 	jal 404728 <pbm_getint>
  408538:	42 00 00 00 00 10 02 00 	addu $16,$0,$2
  408540:	42 00 00 00 00 04 13 00 	addu $4,$0,$19
  408548:	02 00 00 00 ca 11 10 00 	jal 404728 <pbm_getint>
  408550:	42 00 00 00 00 11 02 00 	addu $17,$0,$2
  408558:	42 00 00 00 00 04 13 00 	addu $4,$0,$19
  408560:	02 00 00 00 ca 11 10 00 	jal 404728 <pbm_getint>
  408568:	30 00 00 00 09 00 10 12 	sb $16,9($18)
  408570:	30 00 00 00 09 00 11 15 	sb $17,9($21)
  408578:	30 00 00 00 09 00 02 14 	sb $2,9($20)
  408580:	43 00 00 00 04 00 16 16 	addiu $22,$22,4
  408588:	43 00 00 00 0c 00 14 14 	addiu $20,$20,12
  408590:	43 00 00 00 0c 00 15 15 	addiu $21,$21,12
  408598:	43 00 00 00 0c 00 12 12 	addiu $18,$18,12
  4085a0:	5b 00 00 00 00 02 17 16 	slt $2,$22,$23
  4085a8:	06 00 00 00 9c ff 00 02 	bne $2,$0,408420 <ppm_readppmrow+0x270>
  4085b0:	01 00 00 00 96 23 10 00 	j 408e58 <ppm_readppmrow+0xca8>
  4085b8:	42 00 00 00 00 12 10 00 	addu $18,$0,$16
  4085c0:	42 00 00 00 00 16 00 00 	addu $22,$0,$0
  4085c8:	07 00 00 00 22 02 00 17 	blez $23,408e58 <ppm_readppmrow+0xca8>
  4085d0:	43 00 00 00 02 00 14 12 	addiu $20,$18,2
  4085d8:	4f 00 00 00 03 00 03 17 	andi $3,$23,3
  4085e0:	05 00 00 00 60 00 00 03 	beq $3,$0,408768 <ppm_readppmrow+0x5b8>
  4085e8:	5c 00 00 00 02 00 02 03 	slti $2,$3,2
  4085f0:	06 00 00 00 3c 00 00 02 	bne $2,$0,4086e8 <ppm_readppmrow+0x538>
  4085f8:	5c 00 00 00 03 00 02 03 	slti $2,$3,3
  408600:	06 00 00 00 1c 00 00 02 	bne $2,$0,408678 <ppm_readppmrow+0x4c8>
  408608:	42 00 00 00 00 04 13 00 	addu $4,$0,$19
  408610:	02 00 00 00 9c 11 10 00 	jal 404670 <pbm_getrawbyte>
  408618:	42 00 00 00 00 10 02 00 	addu $16,$0,$2
  408620:	42 00 00 00 00 04 13 00 	addu $4,$0,$19
  408628:	02 00 00 00 9c 11 10 00 	jal 404670 <pbm_getrawbyte>
  408630:	42 00 00 00 00 11 02 00 	addu $17,$0,$2
  408638:	42 00 00 00 00 04 13 00 	addu $4,$0,$19
  408640:	02 00 00 00 9c 11 10 00 	jal 404670 <pbm_getrawbyte>
  408648:	30 00 00 00 00 00 10 12 	sb $16,0($18)
  408650:	30 00 00 00 01 00 11 12 	sb $17,1($18)
  408658:	30 00 00 00 02 00 02 12 	sb $2,2($18)
  408660:	43 00 00 00 01 00 16 00 	addiu $22,$0,1
  408668:	43 00 00 00 05 00 14 12 	addiu $20,$18,5
  408670:	43 00 00 00 03 00 12 12 	addiu $18,$18,3
  408678:	42 00 00 00 00 04 13 00 	addu $4,$0,$19
  408680:	02 00 00 00 9c 11 10 00 	jal 404670 <pbm_getrawbyte>
  408688:	42 00 00 00 00 10 02 00 	addu $16,$0,$2
  408690:	42 00 00 00 00 04 13 00 	addu $4,$0,$19
  408698:	02 00 00 00 9c 11 10 00 	jal 404670 <pbm_getrawbyte>
  4086a0:	42 00 00 00 00 11 02 00 	addu $17,$0,$2
  4086a8:	42 00 00 00 00 04 13 00 	addu $4,$0,$19
  4086b0:	02 00 00 00 9c 11 10 00 	jal 404670 <pbm_getrawbyte>
  4086b8:	30 00 00 00 00 00 10 12 	sb $16,0($18)
  4086c0:	30 00 00 00 ff ff 11 14 	sb $17,-1($20)
  4086c8:	30 00 00 00 00 00 02 14 	sb $2,0($20)
  4086d0:	43 00 00 00 01 00 16 16 	addiu $22,$22,1
  4086d8:	43 00 00 00 03 00 14 14 	addiu $20,$20,3
  4086e0:	43 00 00 00 03 00 12 12 	addiu $18,$18,3
  4086e8:	42 00 00 00 00 04 13 00 	addu $4,$0,$19
  4086f0:	02 00 00 00 9c 11 10 00 	jal 404670 <pbm_getrawbyte>
  4086f8:	42 00 00 00 00 10 02 00 	addu $16,$0,$2
  408700:	42 00 00 00 00 04 13 00 	addu $4,$0,$19
  408708:	02 00 00 00 9c 11 10 00 	jal 404670 <pbm_getrawbyte>
  408710:	42 00 00 00 00 11 02 00 	addu $17,$0,$2
  408718:	42 00 00 00 00 04 13 00 	addu $4,$0,$19
  408720:	02 00 00 00 9c 11 10 00 	jal 404670 <pbm_getrawbyte>
  408728:	30 00 00 00 00 00 10 12 	sb $16,0($18)
  408730:	30 00 00 00 ff ff 11 14 	sb $17,-1($20)
  408738:	30 00 00 00 00 00 02 14 	sb $2,0($20)
  408740:	43 00 00 00 01 00 16 16 	addiu $22,$22,1
  408748:	43 00 00 00 03 00 14 14 	addiu $20,$20,3
  408750:	43 00 00 00 03 00 12 12 	addiu $18,$18,3
  408758:	5b 00 00 00 00 02 17 16 	slt $2,$22,$23
  408760:	05 00 00 00 bc 01 00 02 	beq $2,$0,408e58 <ppm_readppmrow+0xca8>
  408768:	43 00 00 00 ff ff 15 14 	addiu $21,$20,-1
  408770:	42 00 00 00 00 04 13 00 	addu $4,$0,$19
  408778:	02 00 00 00 9c 11 10 00 	jal 404670 <pbm_getrawbyte>
  408780:	42 00 00 00 00 10 02 00 	addu $16,$0,$2
  408788:	42 00 00 00 00 04 13 00 	addu $4,$0,$19
  408790:	02 00 00 00 9c 11 10 00 	jal 404670 <pbm_getrawbyte>
  408798:	42 00 00 00 00 11 02 00 	addu $17,$0,$2
  4087a0:	42 00 00 00 00 04 13 00 	addu $4,$0,$19
  4087a8:	02 00 00 00 9c 11 10 00 	jal 404670 <pbm_getrawbyte>
  4087b0:	30 00 00 00 00 00 10 12 	sb $16,0($18)
  4087b8:	30 00 00 00 00 00 11 15 	sb $17,0($21)
  4087c0:	30 00 00 00 00 00 02 14 	sb $2,0($20)
  4087c8:	42 00 00 00 00 04 13 00 	addu $4,$0,$19
  4087d0:	02 00 00 00 9c 11 10 00 	jal 404670 <pbm_getrawbyte>
  4087d8:	42 00 00 00 00 10 02 00 	addu $16,$0,$2
  4087e0:	42 00 00 00 00 04 13 00 	addu $4,$0,$19
  4087e8:	02 00 00 00 9c 11 10 00 	jal 404670 <pbm_getrawbyte>
  4087f0:	42 00 00 00 00 11 02 00 	addu $17,$0,$2
  4087f8:	42 00 00 00 00 04 13 00 	addu $4,$0,$19
  408800:	02 00 00 00 9c 11 10 00 	jal 404670 <pbm_getrawbyte>
  408808:	30 00 00 00 03 00 10 12 	sb $16,3($18)
  408810:	30 00 00 00 03 00 11 15 	sb $17,3($21)
  408818:	30 00 00 00 03 00 02 14 	sb $2,3($20)
  408820:	42 00 00 00 00 04 13 00 	addu $4,$0,$19
  408828:	02 00 00 00 9c 11 10 00 	jal 404670 <pbm_getrawbyte>
  408830:	42 00 00 00 00 10 02 00 	addu $16,$0,$2
  408838:	42 00 00 00 00 04 13 00 	addu $4,$0,$19
  408840:	02 00 00 00 9c 11 10 00 	jal 404670 <pbm_getrawbyte>
  408848:	42 00 00 00 00 11 02 00 	addu $17,$0,$2
  408850:	42 00 00 00 00 04 13 00 	addu $4,$0,$19
  408858:	02 00 00 00 9c 11 10 00 	jal 404670 <pbm_getrawbyte>
  408860:	30 00 00 00 06 00 10 12 	sb $16,6($18)
  408868:	30 00 00 00 06 00 11 15 	sb $17,6($21)
  408870:	30 00 00 00 06 00 02 14 	sb $2,6($20)
  408878:	42 00 00 00 00 04 13 00 	addu $4,$0,$19
  408880:	02 00 00 00 9c 11 10 00 	jal 404670 <pbm_getrawbyte>
  408888:	42 00 00 00 00 10 02 00 	addu $16,$0,$2
  408890:	42 00 00 00 00 04 13 00 	addu $4,$0,$19
  408898:	02 00 00 00 9c 11 10 00 	jal 404670 <pbm_getrawbyte>
  4088a0:	42 00 00 00 00 11 02 00 	addu $17,$0,$2
  4088a8:	42 00 00 00 00 04 13 00 	addu $4,$0,$19
  4088b0:	02 00 00 00 9c 11 10 00 	jal 404670 <pbm_getrawbyte>
  4088b8:	30 00 00 00 09 00 10 12 	sb $16,9($18)
  4088c0:	30 00 00 00 09 00 11 15 	sb $17,9($21)
  4088c8:	30 00 00 00 09 00 02 14 	sb $2,9($20)
  4088d0:	43 00 00 00 04 00 16 16 	addiu $22,$22,4
  4088d8:	43 00 00 00 0c 00 14 14 	addiu $20,$20,12
  4088e0:	43 00 00 00 0c 00 15 15 	addiu $21,$21,12
  4088e8:	43 00 00 00 0c 00 12 12 	addiu $18,$18,12
  4088f0:	5b 00 00 00 00 02 17 16 	slt $2,$22,$23
  4088f8:	06 00 00 00 9c ff 00 02 	bne $2,$0,408770 <ppm_readppmrow+0x5c0>
  408900:	01 00 00 00 96 23 10 00 	j 408e58 <ppm_readppmrow+0xca8>
  408908:	42 00 00 00 00 04 17 00 	addu $4,$0,$23
  408910:	43 00 00 00 01 00 05 00 	addiu $5,$0,1
  408918:	02 00 00 00 7c 00 10 00 	jal 4001f0 <pm_allocrow>
  408920:	34 00 00 00 10 00 12 1d 	sw $18,16($29)
  408928:	42 00 00 00 00 04 13 00 	addu $4,$0,$19
  408930:	42 00 00 00 00 13 02 00 	addu $19,$0,$2
  408938:	42 00 00 00 00 05 13 00 	addu $5,$0,$19
  408940:	42 00 00 00 00 06 17 00 	addu $6,$0,$23
  408948:	4f 00 00 00 ff 00 07 11 	andi $7,$17,255
  408950:	02 00 00 00 fe 17 10 00 	jal 405ff8 <pgm_readpgmrow>
  408958:	42 00 00 00 00 05 13 00 	addu $5,$0,$19
  408960:	42 00 00 00 00 12 10 00 	addu $18,$0,$16
  408968:	42 00 00 00 00 16 00 00 	addu $22,$0,$0
  408970:	07 00 00 00 2c 01 00 17 	blez $23,408e28 <ppm_readppmrow+0xc78>
  408978:	43 00 00 00 02 00 03 12 	addiu $3,$18,2
  408980:	4f 00 00 00 03 00 04 17 	andi $4,$23,3
  408988:	05 00 00 00 3c 00 00 04 	beq $4,$0,408a80 <ppm_readppmrow+0x8d0>
  408990:	5c 00 00 00 02 00 02 04 	slti $2,$4,2
  408998:	06 00 00 00 24 00 00 02 	bne $2,$0,408a30 <ppm_readppmrow+0x880>
  4089a0:	5c 00 00 00 03 00 02 04 	slti $2,$4,3
  4089a8:	06 00 00 00 10 00 00 02 	bne $2,$0,4089f0 <ppm_readppmrow+0x840>
  4089b0:	22 00 00 00 00 00 10 13 	lbu $16,0($19)
  4089b8:	30 00 00 00 00 00 10 12 	sb $16,0($18)
  4089c0:	30 00 00 00 01 00 10 12 	sb $16,1($18)
  4089c8:	30 00 00 00 02 00 10 12 	sb $16,2($18)
  4089d0:	43 00 00 00 01 00 16 00 	addiu $22,$0,1
  4089d8:	43 00 00 00 01 00 05 13 	addiu $5,$19,1
  4089e0:	43 00 00 00 05 00 03 12 	addiu $3,$18,5
  4089e8:	43 00 00 00 03 00 12 12 	addiu $18,$18,3
  4089f0:	22 00 00 00 00 00 10 05 	lbu $16,0($5)
  4089f8:	30 00 00 00 00 00 10 12 	sb $16,0($18)
  408a00:	30 00 00 00 ff ff 10 03 	sb $16,-1($3)
  408a08:	30 00 00 00 00 00 10 03 	sb $16,0($3)
  408a10:	43 00 00 00 01 00 16 16 	addiu $22,$22,1
  408a18:	43 00 00 00 01 00 05 05 	addiu $5,$5,1
  408a20:	43 00 00 00 03 00 03 03 	addiu $3,$3,3
  408a28:	43 00 00 00 03 00 12 12 	addiu $18,$18,3
  408a30:	22 00 00 00 00 00 10 05 	lbu $16,0($5)
  408a38:	30 00 00 00 00 00 10 12 	sb $16,0($18)
  408a40:	30 00 00 00 ff ff 10 03 	sb $16,-1($3)
  408a48:	30 00 00 00 00 00 10 03 	sb $16,0($3)
  408a50:	43 00 00 00 01 00 16 16 	addiu $22,$22,1
  408a58:	43 00 00 00 01 00 05 05 	addiu $5,$5,1
  408a60:	43 00 00 00 03 00 03 03 	addiu $3,$3,3
  408a68:	43 00 00 00 03 00 12 12 	addiu $18,$18,3
  408a70:	5b 00 00 00 00 02 17 16 	slt $2,$22,$23
  408a78:	05 00 00 00 ea 00 00 02 	beq $2,$0,408e28 <ppm_readppmrow+0xc78>
  408a80:	43 00 00 00 ff ff 04 03 	addiu $4,$3,-1
  408a88:	22 00 00 00 00 00 10 05 	lbu $16,0($5)
  408a90:	30 00 00 00 00 00 10 12 	sb $16,0($18)
  408a98:	30 00 00 00 00 00 10 04 	sb $16,0($4)
  408aa0:	30 00 00 00 00 00 10 03 	sb $16,0($3)
  408aa8:	22 00 00 00 01 00 10 05 	lbu $16,1($5)
  408ab0:	30 00 00 00 03 00 10 12 	sb $16,3($18)
  408ab8:	30 00 00 00 03 00 10 04 	sb $16,3($4)
  408ac0:	30 00 00 00 03 00 10 03 	sb $16,3($3)
  408ac8:	22 00 00 00 02 00 10 05 	lbu $16,2($5)
  408ad0:	30 00 00 00 06 00 10 12 	sb $16,6($18)
  408ad8:	30 00 00 00 06 00 10 04 	sb $16,6($4)
  408ae0:	30 00 00 00 06 00 10 03 	sb $16,6($3)
  408ae8:	22 00 00 00 03 00 10 05 	lbu $16,3($5)
  408af0:	30 00 00 00 09 00 10 12 	sb $16,9($18)
  408af8:	30 00 00 00 09 00 10 04 	sb $16,9($4)
  408b00:	30 00 00 00 09 00 10 03 	sb $16,9($3)
  408b08:	43 00 00 00 04 00 16 16 	addiu $22,$22,4
  408b10:	43 00 00 00 04 00 05 05 	addiu $5,$5,4
  408b18:	43 00 00 00 0c 00 03 03 	addiu $3,$3,12
  408b20:	43 00 00 00 0c 00 04 04 	addiu $4,$4,12
  408b28:	43 00 00 00 0c 00 12 12 	addiu $18,$18,12
  408b30:	5b 00 00 00 00 02 17 16 	slt $2,$22,$23
  408b38:	06 00 00 00 d2 ff 00 02 	bne $2,$0,408a88 <ppm_readppmrow+0x8d8>
  408b40:	01 00 00 00 8a 23 10 00 	j 408e28 <ppm_readppmrow+0xc78>
  408b48:	42 00 00 00 00 04 17 00 	addu $4,$0,$23
  408b50:	43 00 00 00 01 00 05 00 	addiu $5,$0,1
  408b58:	02 00 00 00 7c 00 10 00 	jal 4001f0 <pm_allocrow>
  408b60:	42 00 00 00 00 04 13 00 	addu $4,$0,$19
  408b68:	42 00 00 00 00 13 02 00 	addu $19,$0,$2
  408b70:	42 00 00 00 00 05 13 00 	addu $5,$0,$19
  408b78:	42 00 00 00 00 06 17 00 	addu $6,$0,$23
  408b80:	42 00 00 00 00 07 12 00 	addu $7,$0,$18
  408b88:	02 00 00 00 c8 0a 10 00 	jal 402b20 <pbm_readpbmrow>
  408b90:	42 00 00 00 00 05 13 00 	addu $5,$0,$19
  408b98:	42 00 00 00 00 12 10 00 	addu $18,$0,$16
  408ba0:	42 00 00 00 00 16 00 00 	addu $22,$0,$0
  408ba8:	07 00 00 00 9e 00 00 17 	blez $23,408e28 <ppm_readppmrow+0xc78>
  408bb0:	43 00 00 00 02 00 04 12 	addiu $4,$18,2
  408bb8:	4f 00 00 00 03 00 03 17 	andi $3,$23,3
  408bc0:	05 00 00 00 4e 00 00 03 	beq $3,$0,408d00 <ppm_readppmrow+0xb50>
  408bc8:	5c 00 00 00 02 00 02 03 	slti $2,$3,2
  408bd0:	06 00 00 00 30 00 00 02 	bne $2,$0,408c98 <ppm_readppmrow+0xae8>
  408bd8:	5c 00 00 00 03 00 02 03 	slti $2,$3,3
  408be0:	06 00 00 00 16 00 00 02 	bne $2,$0,408c40 <ppm_readppmrow+0xa90>
  408be8:	22 00 00 00 00 00 02 13 	lbu $2,0($19)
  408bf0:	42 00 00 00 00 10 00 00 	addu $16,$0,$0
  408bf8:	06 00 00 00 02 00 00 02 	bne $2,$0,408c08 <ppm_readppmrow+0xa58>
  408c00:	42 00 00 00 00 10 11 00 	addu $16,$0,$17
  408c08:	30 00 00 00 00 00 10 12 	sb $16,0($18)
  408c10:	30 00 00 00 01 00 10 12 	sb $16,1($18)
  408c18:	30 00 00 00 02 00 10 12 	sb $16,2($18)
  408c20:	43 00 00 00 01 00 16 00 	addiu $22,$0,1
  408c28:	43 00 00 00 01 00 05 13 	addiu $5,$19,1
  408c30:	43 00 00 00 05 00 04 12 	addiu $4,$18,5
  408c38:	43 00 00 00 03 00 12 12 	addiu $18,$18,3
  408c40:	22 00 00 00 00 00 02 05 	lbu $2,0($5)
  408c48:	42 00 00 00 00 10 00 00 	addu $16,$0,$0
  408c50:	06 00 00 00 02 00 00 02 	bne $2,$0,408c60 <ppm_readppmrow+0xab0>
  408c58:	42 00 00 00 00 10 11 00 	addu $16,$0,$17
  408c60:	30 00 00 00 00 00 10 12 	sb $16,0($18)
  408c68:	30 00 00 00 ff ff 10 04 	sb $16,-1($4)
  408c70:	30 00 00 00 00 00 10 04 	sb $16,0($4)
  408c78:	43 00 00 00 01 00 16 16 	addiu $22,$22,1
  408c80:	43 00 00 00 01 00 05 05 	addiu $5,$5,1
  408c88:	43 00 00 00 03 00 04 04 	addiu $4,$4,3
  408c90:	43 00 00 00 03 00 12 12 	addiu $18,$18,3
  408c98:	22 00 00 00 00 00 02 05 	lbu $2,0($5)
  408ca0:	42 00 00 00 00 10 00 00 	addu $16,$0,$0
  408ca8:	06 00 00 00 02 00 00 02 	bne $2,$0,408cb8 <ppm_readppmrow+0xb08>
  408cb0:	42 00 00 00 00 10 11 00 	addu $16,$0,$17
  408cb8:	30 00 00 00 00 00 10 12 	sb $16,0($18)
  408cc0:	30 00 00 00 ff ff 10 04 	sb $16,-1($4)
  408cc8:	30 00 00 00 00 00 10 04 	sb $16,0($4)
  408cd0:	43 00 00 00 01 00 16 16 	addiu $22,$22,1
  408cd8:	43 00 00 00 01 00 05 05 	addiu $5,$5,1
  408ce0:	43 00 00 00 03 00 04 04 	addiu $4,$4,3
  408ce8:	43 00 00 00 03 00 12 12 	addiu $18,$18,3
  408cf0:	5b 00 00 00 00 02 17 16 	slt $2,$22,$23
  408cf8:	05 00 00 00 4a 00 00 02 	beq $2,$0,408e28 <ppm_readppmrow+0xc78>
  408d00:	42 00 00 00 00 03 04 00 	addu $3,$0,$4
  408d08:	43 00 00 00 ff ff 04 03 	addiu $4,$3,-1
  408d10:	22 00 00 00 00 00 02 05 	lbu $2,0($5)
  408d18:	42 00 00 00 00 10 00 00 	addu $16,$0,$0
  408d20:	06 00 00 00 02 00 00 02 	bne $2,$0,408d30 <ppm_readppmrow+0xb80>
  408d28:	42 00 00 00 00 10 11 00 	addu $16,$0,$17
  408d30:	30 00 00 00 00 00 10 12 	sb $16,0($18)
  408d38:	30 00 00 00 00 00 10 04 	sb $16,0($4)
  408d40:	30 00 00 00 00 00 10 03 	sb $16,0($3)
  408d48:	22 00 00 00 01 00 02 05 	lbu $2,1($5)
  408d50:	42 00 00 00 00 10 00 00 	addu $16,$0,$0
  408d58:	06 00 00 00 02 00 00 02 	bne $2,$0,408d68 <ppm_readppmrow+0xbb8>
  408d60:	42 00 00 00 00 10 11 00 	addu $16,$0,$17
  408d68:	30 00 00 00 03 00 10 12 	sb $16,3($18)
  408d70:	30 00 00 00 03 00 10 04 	sb $16,3($4)
  408d78:	30 00 00 00 03 00 10 03 	sb $16,3($3)
  408d80:	22 00 00 00 02 00 02 05 	lbu $2,2($5)
  408d88:	42 00 00 00 00 10 00 00 	addu $16,$0,$0
  408d90:	06 00 00 00 02 00 00 02 	bne $2,$0,408da0 <ppm_readppmrow+0xbf0>
  408d98:	42 00 00 00 00 10 11 00 	addu $16,$0,$17
  408da0:	30 00 00 00 06 00 10 12 	sb $16,6($18)
  408da8:	30 00 00 00 06 00 10 04 	sb $16,6($4)
  408db0:	30 00 00 00 06 00 10 03 	sb $16,6($3)
  408db8:	22 00 00 00 03 00 02 05 	lbu $2,3($5)
  408dc0:	42 00 00 00 00 10 00 00 	addu $16,$0,$0
  408dc8:	06 00 00 00 02 00 00 02 	bne $2,$0,408dd8 <ppm_readppmrow+0xc28>
  408dd0:	42 00 00 00 00 10 11 00 	addu $16,$0,$17
  408dd8:	30 00 00 00 09 00 10 12 	sb $16,9($18)
  408de0:	30 00 00 00 09 00 10 04 	sb $16,9($4)
  408de8:	30 00 00 00 09 00 10 03 	sb $16,9($3)
  408df0:	43 00 00 00 04 00 16 16 	addiu $22,$22,4
  408df8:	43 00 00 00 04 00 05 05 	addiu $5,$5,4
  408e00:	43 00 00 00 0c 00 03 03 	addiu $3,$3,12
  408e08:	43 00 00 00 0c 00 04 04 	addiu $4,$4,12
  408e10:	43 00 00 00 0c 00 12 12 	addiu $18,$18,12
  408e18:	5b 00 00 00 00 02 17 16 	slt $2,$22,$23
  408e20:	06 00 00 00 ba ff 00 02 	bne $2,$0,408d10 <ppm_readppmrow+0xb60>
  408e28:	42 00 00 00 00 04 13 00 	addu $4,$0,$19
  408e30:	02 00 00 00 9c 00 10 00 	jal 400270 <pm_freerow>
  408e38:	01 00 00 00 96 23 10 00 	j 408e58 <ppm_readppmrow+0xca8>
  408e40:	a2 00 00 00 00 10 04 00 	lui $4,4096
  408e48:	43 00 00 00 08 04 04 04 	addiu $4,$4,1032
  408e50:	02 00 00 00 30 05 10 00 	jal 4014c0 <pm_error>
  408e58:	28 00 00 00 58 00 1f 1d 	lw $31,88($29)
  408e60:	28 00 00 00 54 00 17 1d 	lw $23,84($29)
  408e68:	28 00 00 00 50 00 16 1d 	lw $22,80($29)
  408e70:	28 00 00 00 4c 00 15 1d 	lw $21,76($29)
  408e78:	28 00 00 00 48 00 14 1d 	lw $20,72($29)
  408e80:	28 00 00 00 44 00 13 1d 	lw $19,68($29)
  408e88:	28 00 00 00 40 00 12 1d 	lw $18,64($29)
  408e90:	28 00 00 00 3c 00 11 1d 	lw $17,60($29)
  408e98:	28 00 00 00 38 00 10 1d 	lw $16,56($29)
  408ea0:	43 00 00 00 60 00 1d 1d 	addiu $29,$29,96
  408ea8:	03 00 00 00 00 00 00 1f 	jr $31

00408eb0 <ppm_readppm>:
  408eb0:	43 00 00 00 b8 ff 1d 1d 	addiu $29,$29,-72
  408eb8:	34 00 00 00 30 00 12 1d 	sw $18,48($29)
  408ec0:	42 00 00 00 00 12 04 00 	addu $18,$0,$4
  408ec8:	34 00 00 00 3c 00 15 1d 	sw $21,60($29)
  408ed0:	42 00 00 00 00 15 05 00 	addu $21,$0,$5
  408ed8:	34 00 00 00 34 00 13 1d 	sw $19,52($29)
  408ee0:	42 00 00 00 00 13 06 00 	addu $19,$0,$6
  408ee8:	34 00 00 00 40 00 16 1d 	sw $22,64($29)
  408ef0:	42 00 00 00 00 16 07 00 	addu $22,$0,$7
  408ef8:	34 00 00 00 44 00 1f 1d 	sw $31,68($29)
  408f00:	34 00 00 00 38 00 14 1d 	sw $20,56($29)
  408f08:	34 00 00 00 2c 00 11 1d 	sw $17,44($29)
  408f10:	34 00 00 00 28 00 10 1d 	sw $16,40($29)
  408f18:	02 00 00 00 b4 09 10 00 	jal 4026d0 <pbm_readmagicnumber>
  408f20:	42 00 00 00 00 03 02 00 	addu $3,$0,$2
  408f28:	43 00 00 00 33 50 02 00 	addiu $2,$0,20531
  408f30:	34 00 00 00 18 00 03 1d 	sw $3,24($29)
  408f38:	05 00 00 00 20 00 02 03 	beq $3,$2,408fc0 <ppm_readppm+0x110>
  408f40:	43 00 00 00 36 50 02 00 	addiu $2,$0,20534
  408f48:	05 00 00 00 1c 00 02 03 	beq $3,$2,408fc0 <ppm_readppm+0x110>
  408f50:	43 00 00 00 32 50 02 00 	addiu $2,$0,20530
  408f58:	05 00 00 00 14 00 02 03 	beq $3,$2,408fb0 <ppm_readppm+0x100>
  408f60:	43 00 00 00 35 50 02 00 	addiu $2,$0,20533
  408f68:	05 00 00 00 10 00 02 03 	beq $3,$2,408fb0 <ppm_readppm+0x100>
  408f70:	43 00 00 00 31 50 02 00 	addiu $2,$0,20529
  408f78:	05 00 00 00 04 00 02 03 	beq $3,$2,408f90 <ppm_readppm+0xe0>
  408f80:	43 00 00 00 34 50 02 00 	addiu $2,$0,20532
  408f88:	06 00 00 00 04 00 02 03 	bne $3,$2,408fa0 <ppm_readppm+0xf0>
  408f90:	43 00 00 00 31 50 03 00 	addiu $3,$0,20529
  408f98:	01 00 00 00 f2 23 10 00 	j 408fc8 <ppm_readppm+0x118>
  408fa0:	43 00 00 00 ff ff 03 00 	addiu $3,$0,-1
  408fa8:	01 00 00 00 f2 23 10 00 	j 408fc8 <ppm_readppm+0x118>
  408fb0:	43 00 00 00 32 50 03 00 	addiu $3,$0,20530
  408fb8:	01 00 00 00 f2 23 10 00 	j 408fc8 <ppm_readppm+0x118>
  408fc0:	43 00 00 00 33 50 03 00 	addiu $3,$0,20531
  408fc8:	43 00 00 00 32 50 02 00 	addiu $2,$0,20530
  408fd0:	05 00 00 00 2e 00 02 03 	beq $3,$2,409090 <ppm_readppm+0x1e0>
  408fd8:	5c 00 00 00 33 50 02 03 	slti $2,$3,20531
  408fe0:	05 00 00 00 06 00 00 02 	beq $2,$0,409000 <ppm_readppm+0x150>
  408fe8:	43 00 00 00 31 50 02 00 	addiu $2,$0,20529
  408ff0:	05 00 00 00 32 00 02 03 	beq $3,$2,4090c0 <ppm_readppm+0x210>
  408ff8:	01 00 00 00 3e 24 10 00 	j 4090f8 <ppm_readppm+0x248>
  409000:	43 00 00 00 33 50 02 00 	addiu $2,$0,20531
  409008:	06 00 00 00 3a 00 02 03 	bne $3,$2,4090f8 <ppm_readppm+0x248>
  409010:	42 00 00 00 00 04 12 00 	addu $4,$0,$18
  409018:	02 00 00 00 ca 11 10 00 	jal 404728 <pbm_getint>
  409020:	42 00 00 00 00 04 12 00 	addu $4,$0,$18
  409028:	34 00 00 00 00 00 02 15 	sw $2,0($21)
  409030:	02 00 00 00 ca 11 10 00 	jal 404728 <pbm_getint>
  409038:	42 00 00 00 00 04 12 00 	addu $4,$0,$18
  409040:	34 00 00 00 00 00 02 13 	sw $2,0($19)
  409048:	02 00 00 00 ca 11 10 00 	jal 404728 <pbm_getint>
  409050:	42 00 00 00 00 10 02 00 	addu $16,$0,$2
  409058:	5c 00 00 00 00 01 02 10 	slti $2,$16,256
  409060:	06 00 00 00 06 00 00 02 	bne $2,$0,409080 <ppm_readppm+0x1d0>
  409068:	a2 00 00 00 00 10 04 00 	lui $4,4096
  409070:	43 00 00 00 80 03 04 04 	addiu $4,$4,896
  409078:	02 00 00 00 30 05 10 00 	jal 4014c0 <pm_error>
  409080:	30 00 00 00 00 00 10 16 	sb $16,0($22)
  409088:	01 00 00 00 44 24 10 00 	j 409110 <ppm_readppm+0x260>
  409090:	42 00 00 00 00 04 12 00 	addu $4,$0,$18
  409098:	42 00 00 00 00 05 15 00 	addu $5,$0,$21
  4090a0:	42 00 00 00 00 06 13 00 	addu $6,$0,$19
  4090a8:	42 00 00 00 00 07 16 00 	addu $7,$0,$22
  4090b0:	02 00 00 00 3c 17 10 00 	jal 405cf0 <pgm_readpgminitrest>
  4090b8:	01 00 00 00 44 24 10 00 	j 409110 <ppm_readppm+0x260>
  4090c0:	42 00 00 00 00 04 12 00 	addu $4,$0,$18
  4090c8:	42 00 00 00 00 05 15 00 	addu $5,$0,$21
  4090d0:	42 00 00 00 00 06 13 00 	addu $6,$0,$19
  4090d8:	02 00 00 00 0c 0a 10 00 	jal 402830 <pbm_readpbminitrest>
  4090e0:	22 00 00 00 90 80 02 1c 	lbu $2,-32624($28)
  4090e8:	30 00 00 00 00 00 02 16 	sb $2,0($22)
  4090f0:	01 00 00 00 44 24 10 00 	j 409110 <ppm_readppm+0x260>
  4090f8:	a2 00 00 00 00 10 04 00 	lui $4,4096
  409100:	43 00 00 00 d8 03 04 04 	addiu $4,$4,984
  409108:	02 00 00 00 30 05 10 00 	jal 4014c0 <pm_error>
  409110:	28 00 00 00 00 00 04 15 	lw $4,0($21)
  409118:	28 00 00 00 00 00 05 13 	lw $5,0($19)
  409120:	43 00 00 00 03 00 06 00 	addiu $6,$0,3
  409128:	02 00 00 00 a8 00 10 00 	jal 4002a0 <pm_allocarray>
  409130:	28 00 00 00 00 00 03 13 	lw $3,0($19)
  409138:	42 00 00 00 00 10 00 00 	addu $16,$0,$0
  409140:	42 00 00 00 00 14 02 00 	addu $20,$0,$2
  409148:	07 00 00 00 1a 00 00 03 	blez $3,4091b8 <ppm_readppm+0x308>
  409150:	42 00 00 00 00 11 14 00 	addu $17,$0,$20
  409158:	28 00 00 00 18 00 02 1d 	lw $2,24($29)
  409160:	22 00 00 00 00 00 07 16 	lbu $7,0($22)
  409168:	34 00 00 00 10 00 02 1d 	sw $2,16($29)
  409170:	28 00 00 00 00 00 05 11 	lw $5,0($17)
  409178:	28 00 00 00 00 00 06 15 	lw $6,0($21)
  409180:	42 00 00 00 00 04 12 00 	addu $4,$0,$18
  409188:	02 00 00 00 6c 20 10 00 	jal 4081b0 <ppm_readppmrow>
  409190:	28 00 00 00 00 00 02 13 	lw $2,0($19)
  409198:	43 00 00 00 01 00 10 10 	addiu $16,$16,1
  4091a0:	43 00 00 00 04 00 11 11 	addiu $17,$17,4
  4091a8:	5b 00 00 00 00 02 02 10 	slt $2,$16,$2
  4091b0:	06 00 00 00 e8 ff 00 02 	bne $2,$0,409158 <ppm_readppm+0x2a8>
  4091b8:	42 00 00 00 00 02 14 00 	addu $2,$0,$20
  4091c0:	28 00 00 00 44 00 1f 1d 	lw $31,68($29)
  4091c8:	28 00 00 00 40 00 16 1d 	lw $22,64($29)
  4091d0:	28 00 00 00 3c 00 15 1d 	lw $21,60($29)
  4091d8:	28 00 00 00 38 00 14 1d 	lw $20,56($29)
  4091e0:	28 00 00 00 34 00 13 1d 	lw $19,52($29)
  4091e8:	28 00 00 00 30 00 12 1d 	lw $18,48($29)
  4091f0:	28 00 00 00 2c 00 11 1d 	lw $17,44($29)
  4091f8:	28 00 00 00 28 00 10 1d 	lw $16,40($29)
  409200:	43 00 00 00 48 00 1d 1d 	addiu $29,$29,72
  409208:	03 00 00 00 00 00 00 1f 	jr $31

00409210 <ppm_writeppminit>:
  409210:	43 00 00 00 d8 ff 1d 1d 	addiu $29,$29,-40
  409218:	42 00 00 00 00 03 05 00 	addu $3,$0,$5
  409220:	28 00 00 00 38 00 02 1d 	lw $2,56($29)
  409228:	42 00 00 00 00 08 06 00 	addu $8,$0,$6
  409230:	42 00 00 00 00 09 07 00 	addu $9,$0,$7
  409238:	34 00 00 00 20 00 1f 1d 	sw $31,32($29)
  409240:	06 00 00 00 0a 00 00 02 	bne $2,$0,409270 <ppm_writeppminit+0x60>
  409248:	a2 00 00 00 00 10 05 00 	lui $5,4096
  409250:	43 00 00 00 30 04 05 05 	addiu $5,$5,1072
  409258:	43 00 00 00 50 00 06 00 	addiu $6,$0,80
  409260:	43 00 00 00 36 00 07 00 	addiu $7,$0,54
  409268:	01 00 00 00 a4 24 10 00 	j 409290 <ppm_writeppminit+0x80>
  409270:	a2 00 00 00 00 10 05 00 	lui $5,4096
  409278:	43 00 00 00 30 04 05 05 	addiu $5,$5,1072
  409280:	43 00 00 00 50 00 06 00 	addiu $6,$0,80
  409288:	43 00 00 00 33 00 07 00 	addiu $7,$0,51
  409290:	4f 00 00 00 ff 00 02 09 	andi $2,$9,255
  409298:	34 00 00 00 10 00 03 1d 	sw $3,16($29)
  4092a0:	34 00 00 00 14 00 08 1d 	sw $8,20($29)
