
/export/capc5/SPEC_TRACE/SimpleScalar/bin/su2cor.ss:     file format ss-coff-little

Disassembly of section .text:

00400140 <__start>:
  400140:	28 00 00 00 00 00 10 1d 	lw $16,0($29)
  400148:	a2 00 00 00 01 10 1c 00 	lui $28,4097
  400150:	43 00 00 00 50 fe 1c 1c 	addiu $28,$28,-432
  400158:	43 00 00 00 04 00 11 1d 	addiu $17,$29,4
  400160:	43 00 00 00 04 00 03 11 	addiu $3,$17,4
  400168:	55 00 00 00 02 02 10 00 	sll $2,$16,0x2
  400170:	42 00 00 00 00 03 02 03 	addu $3,$3,$2
  400178:	42 00 00 00 00 12 03 00 	addu $18,$0,$3
  400180:	34 00 00 00 04 89 12 1c 	sw $18,-30460($28)
  400188:	43 00 00 00 e8 ff 1d 1d 	addiu $29,$29,-24
  400190:	42 00 00 00 00 04 10 00 	addu $4,$0,$16
  400198:	42 00 00 00 00 05 11 00 	addu $5,$0,$17
  4001a0:	42 00 00 00 00 06 12 00 	addu $6,$0,$18
  4001a8:	02 00 00 00 04 7d 10 00 	jal 41f410 <__libc_init>
  4001b0:	34 00 00 00 00 89 00 1c 	sw $0,-30464($28)
  4001b8:	42 00 00 00 00 04 10 00 	addu $4,$0,$16
  4001c0:	42 00 00 00 00 05 11 00 	addu $5,$0,$17
  4001c8:	42 00 00 00 00 06 12 00 	addu $6,$0,$18
  4001d0:	02 00 00 00 10 7d 10 00 	jal 41f440 <main>
  4001d8:	42 00 00 00 00 04 02 00 	addu $4,$0,$2
  4001e0:	02 00 00 00 e8 7d 10 00 	jal 41f7a0 <exit>
	...

004001f0 <MAIN__>:
  4001f0:	43 00 00 00 e0 f7 1d 1d 	addiu $29,$29,-2080
  4001f8:	a2 00 00 00 00 10 04 00 	lui $4,4096
  400200:	43 00 00 00 38 6d 04 04 	addiu $4,$4,27960
  400208:	34 00 00 00 18 08 1f 1d 	sw $31,2072($29)
  400210:	34 00 00 00 14 08 17 1d 	sw $23,2068($29)
  400218:	34 00 00 00 10 08 16 1d 	sw $22,2064($29)
  400220:	34 00 00 00 0c 08 15 1d 	sw $21,2060($29)
  400228:	34 00 00 00 08 08 14 1d 	sw $20,2056($29)
  400230:	34 00 00 00 04 08 13 1d 	sw $19,2052($29)
  400238:	34 00 00 00 00 08 12 1d 	sw $18,2048($29)
  400240:	34 00 00 00 fc 07 11 1d 	sw $17,2044($29)
  400248:	34 00 00 00 f8 07 10 1d 	sw $16,2040($29)
  400250:	02 00 00 00 50 7e 10 00 	jal 41f940 <s_wsle>
  400258:	43 00 00 00 00 80 04 1c 	addiu $4,$28,-32768
  400260:	43 00 00 00 04 80 05 1c 	addiu $5,$28,-32764
  400268:	a2 00 00 00 00 10 06 00 	lui $6,4096
  400270:	43 00 00 00 00 00 06 06 	addiu $6,$6,0
  400278:	43 00 00 00 19 00 07 00 	addiu $7,$0,25
  400280:	02 00 00 00 c8 7e 10 00 	jal 41fb20 <do_lio>
  400288:	02 00 00 00 a8 7e 10 00 	jal 41faa0 <e_wsle>
  400290:	a2 00 00 00 00 10 04 00 	lui $4,4096
  400298:	43 00 00 00 4c 6d 04 04 	addiu $4,$4,27980
  4002a0:	02 00 00 00 50 7e 10 00 	jal 41f940 <s_wsle>
  4002a8:	43 00 00 00 00 80 04 1c 	addiu $4,$28,-32768
  4002b0:	43 00 00 00 04 80 05 1c 	addiu $5,$28,-32764
  4002b8:	43 00 00 00 6c 80 06 1c 	addiu $6,$28,-32660
  4002c0:	43 00 00 00 01 00 07 00 	addiu $7,$0,1
  4002c8:	02 00 00 00 c8 7e 10 00 	jal 41fb20 <do_lio>
  4002d0:	02 00 00 00 a8 7e 10 00 	jal 41faa0 <e_wsle>
  4002d8:	a2 00 00 00 00 10 04 00 	lui $4,4096
  4002e0:	43 00 00 00 60 6d 04 04 	addiu $4,$4,28000
  4002e8:	43 00 00 00 ff ff 02 00 	addiu $2,$0,-1
  4002f0:	34 00 00 00 d0 07 02 1d 	sw $2,2000($29)
  4002f8:	02 00 00 00 1a 88 10 00 	jal 422068 <s_rsle>
  400300:	43 00 00 00 08 80 04 1c 	addiu $4,$28,-32760
  400308:	43 00 00 00 04 80 05 1c 	addiu $5,$28,-32764
  400310:	a2 00 00 00 85 10 11 00 	lui $17,4229
  400318:	43 00 00 00 c0 3c 11 11 	addiu $17,$17,15552
  400320:	42 00 00 00 00 06 11 00 	addu $6,$0,$17
  400328:	43 00 00 00 04 00 07 00 	addiu $7,$0,4
  400330:	02 00 00 00 c8 7e 10 00 	jal 41fb20 <do_lio>
  400338:	28 00 00 00 00 00 02 11 	lw $2,0($17)
  400340:	43 00 00 00 01 00 10 00 	addiu $16,$0,1
  400348:	34 00 00 00 e8 07 02 1d 	sw $2,2024($29)
  400350:	07 00 00 00 16 00 00 02 	blez $2,4003b0 <MAIN__+0x1c0>
  400358:	43 00 00 00 04 00 11 11 	addiu $17,$17,4
  400360:	43 00 00 00 08 80 04 1c 	addiu $4,$28,-32760
  400368:	43 00 00 00 04 80 05 1c 	addiu $5,$28,-32764
  400370:	42 00 00 00 00 06 11 00 	addu $6,$0,$17
  400378:	43 00 00 00 04 00 07 00 	addiu $7,$0,4
  400380:	02 00 00 00 c8 7e 10 00 	jal 41fb20 <do_lio>
  400388:	28 00 00 00 e8 07 02 1d 	lw $2,2024($29)
  400390:	43 00 00 00 04 00 11 11 	addiu $17,$17,4
  400398:	43 00 00 00 01 00 10 10 	addiu $16,$16,1
  4003a0:	5b 00 00 00 00 02 10 02 	slt $2,$2,$16
  4003a8:	05 00 00 00 ec ff 00 02 	beq $2,$0,400360 <MAIN__+0x170>
  4003b0:	02 00 00 00 20 7f 10 00 	jal 41fc80 <e_rsle>
  4003b8:	a2 00 00 00 85 10 11 00 	lui $17,4229
  4003c0:	43 00 00 00 c0 3c 11 11 	addiu $17,$17,15552
  4003c8:	28 00 00 00 00 00 03 11 	lw $3,0($17)
  4003d0:	43 00 00 00 04 00 02 00 	addiu $2,$0,4
  4003d8:	05 00 00 00 06 00 02 03 	beq $3,$2,4003f8 <MAIN__+0x208>
  4003e0:	43 00 00 00 70 80 04 1c 	addiu $4,$28,-32656
  4003e8:	42 00 00 00 00 05 00 00 	addu $5,$0,$0
  4003f0:	02 00 00 00 ec 88 10 00 	jal 4223b0 <s_stop>
  4003f8:	a2 00 00 00 00 10 04 00 	lui $4,4096
  400400:	43 00 00 00 74 6d 04 04 	addiu $4,$4,28020
  400408:	02 00 00 00 d8 89 10 00 	jal 422760 <s_wsfe>
  400410:	02 00 00 00 1e 8b 10 00 	jal 422c78 <e_wsfe>
  400418:	a2 00 00 00 00 10 04 00 	lui $4,4096
  400420:	43 00 00 00 88 6d 04 04 	addiu $4,$4,28040
  400428:	02 00 00 00 d8 89 10 00 	jal 422760 <s_wsfe>
  400430:	43 00 00 00 04 80 04 1c 	addiu $4,$28,-32764
  400438:	42 00 00 00 00 05 11 00 	addu $5,$0,$17
  400440:	43 00 00 00 04 00 06 00 	addiu $6,$0,4
  400448:	02 00 00 00 2c 97 10 00 	jal 425cb0 <do_fio>
  400450:	28 00 00 00 00 00 02 11 	lw $2,0($17)
  400458:	43 00 00 00 01 00 10 00 	addiu $16,$0,1
  400460:	34 00 00 00 e8 07 02 1d 	sw $2,2024($29)
  400468:	07 00 00 00 14 00 00 02 	blez $2,4004c0 <MAIN__+0x2d0>
  400470:	43 00 00 00 04 00 11 11 	addiu $17,$17,4
  400478:	43 00 00 00 04 80 04 1c 	addiu $4,$28,-32764
  400480:	42 00 00 00 00 05 11 00 	addu $5,$0,$17
  400488:	43 00 00 00 04 00 06 00 	addiu $6,$0,4
  400490:	02 00 00 00 2c 97 10 00 	jal 425cb0 <do_fio>
  400498:	28 00 00 00 e8 07 02 1d 	lw $2,2024($29)
  4004a0:	43 00 00 00 04 00 11 11 	addiu $17,$17,4
  4004a8:	43 00 00 00 01 00 10 10 	addiu $16,$16,1
  4004b0:	5b 00 00 00 00 02 10 02 	slt $2,$2,$16
  4004b8:	05 00 00 00 ee ff 00 02 	beq $2,$0,400478 <MAIN__+0x288>
  4004c0:	02 00 00 00 1e 8b 10 00 	jal 422c78 <e_wsfe>
  4004c8:	02 00 00 00 9a 16 10 00 	jal 405a68 <geom_>
  4004d0:	a2 00 00 00 00 10 04 00 	lui $4,4096
  4004d8:	43 00 00 00 9c 6d 04 04 	addiu $4,$4,28060
  4004e0:	02 00 00 00 d8 89 10 00 	jal 422760 <s_wsfe>
  4004e8:	43 00 00 00 04 80 04 1c 	addiu $4,$28,-32764
  4004f0:	a2 00 00 00 85 10 10 00 	lui $16,4229
  4004f8:	43 00 00 00 d4 3c 10 10 	addiu $16,$16,15572
  400500:	42 00 00 00 00 05 10 00 	addu $5,$0,$16
  400508:	43 00 00 00 04 00 06 00 	addiu $6,$0,4
  400510:	02 00 00 00 2c 97 10 00 	jal 425cb0 <do_fio>
  400518:	43 00 00 00 04 80 04 1c 	addiu $4,$28,-32764
  400520:	43 00 00 00 0c 80 05 1c 	addiu $5,$28,-32756
  400528:	43 00 00 00 04 00 06 00 	addiu $6,$0,4
  400530:	02 00 00 00 2c 97 10 00 	jal 425cb0 <do_fio>
  400538:	43 00 00 00 04 80 04 1c 	addiu $4,$28,-32764
  400540:	43 00 00 00 10 80 05 1c 	addiu $5,$28,-32752
  400548:	43 00 00 00 04 00 06 00 	addiu $6,$0,4
  400550:	02 00 00 00 2c 97 10 00 	jal 425cb0 <do_fio>
  400558:	43 00 00 00 04 80 04 1c 	addiu $4,$28,-32764
  400560:	43 00 00 00 14 80 05 1c 	addiu $5,$28,-32748
  400568:	43 00 00 00 04 00 06 00 	addiu $6,$0,4
  400570:	02 00 00 00 2c 97 10 00 	jal 425cb0 <do_fio>
  400578:	43 00 00 00 04 80 04 1c 	addiu $4,$28,-32764
  400580:	43 00 00 00 18 80 05 1c 	addiu $5,$28,-32744
  400588:	43 00 00 00 04 00 06 00 	addiu $6,$0,4
  400590:	02 00 00 00 2c 97 10 00 	jal 425cb0 <do_fio>
  400598:	43 00 00 00 04 80 04 1c 	addiu $4,$28,-32764
  4005a0:	43 00 00 00 1c 80 05 1c 	addiu $5,$28,-32740
  4005a8:	43 00 00 00 04 00 06 00 	addiu $6,$0,4
  4005b0:	02 00 00 00 2c 97 10 00 	jal 425cb0 <do_fio>
  4005b8:	43 00 00 00 04 80 04 1c 	addiu $4,$28,-32764
  4005c0:	43 00 00 00 20 80 05 1c 	addiu $5,$28,-32736
  4005c8:	43 00 00 00 04 00 06 00 	addiu $6,$0,4
  4005d0:	02 00 00 00 2c 97 10 00 	jal 425cb0 <do_fio>
  4005d8:	43 00 00 00 04 80 04 1c 	addiu $4,$28,-32764
  4005e0:	43 00 00 00 1c 80 05 1c 	addiu $5,$28,-32740
  4005e8:	43 00 00 00 04 00 06 00 	addiu $6,$0,4
  4005f0:	02 00 00 00 2c 97 10 00 	jal 425cb0 <do_fio>
  4005f8:	02 00 00 00 1e 8b 10 00 	jal 422c78 <e_wsfe>
  400600:	28 00 00 00 00 00 02 10 	lw $2,0($16)
  400608:	5c 00 00 00 08 10 02 02 	slti $2,$2,4104
  400610:	06 00 00 00 22 00 00 02 	bne $2,$0,4006a0 <MAIN__+0x4b0>
  400618:	a2 00 00 00 00 10 04 00 	lui $4,4096
  400620:	43 00 00 00 b0 6d 04 04 	addiu $4,$4,28080
  400628:	02 00 00 00 50 7e 10 00 	jal 41f940 <s_wsle>
  400630:	43 00 00 00 00 80 04 1c 	addiu $4,$28,-32768
  400638:	43 00 00 00 04 80 05 1c 	addiu $5,$28,-32764
  400640:	43 00 00 00 74 80 06 1c 	addiu $6,$28,-32652
  400648:	43 00 00 00 05 00 07 00 	addiu $7,$0,5
  400650:	02 00 00 00 c8 7e 10 00 	jal 41fb20 <do_lio>
  400658:	43 00 00 00 08 80 04 1c 	addiu $4,$28,-32760
  400660:	43 00 00 00 04 80 05 1c 	addiu $5,$28,-32764
  400668:	42 00 00 00 00 06 10 00 	addu $6,$0,$16
  400670:	43 00 00 00 04 00 07 00 	addiu $7,$0,4
  400678:	02 00 00 00 c8 7e 10 00 	jal 41fb20 <do_lio>
  400680:	02 00 00 00 a8 7e 10 00 	jal 41faa0 <e_wsle>
  400688:	43 00 00 00 70 80 04 1c 	addiu $4,$28,-32656
  400690:	42 00 00 00 00 05 00 00 	addu $5,$0,$0
  400698:	02 00 00 00 ec 88 10 00 	jal 4223b0 <s_stop>
  4006a0:	28 00 00 00 00 00 02 10 	lw $2,0($16)
  4006a8:	4f 00 00 00 01 00 02 02 	andi $2,$2,1
  4006b0:	05 00 00 00 24 00 00 02 	beq $2,$0,400748 <MAIN__+0x558>
  4006b8:	a2 00 00 00 00 10 04 00 	lui $4,4096
  4006c0:	43 00 00 00 c4 6d 04 04 	addiu $4,$4,28100
  4006c8:	02 00 00 00 50 7e 10 00 	jal 41f940 <s_wsle>
  4006d0:	43 00 00 00 00 80 04 1c 	addiu $4,$28,-32768
  4006d8:	43 00 00 00 04 80 05 1c 	addiu $5,$28,-32764
  4006e0:	a2 00 00 00 00 10 06 00 	lui $6,4096
  4006e8:	43 00 00 00 1c 00 06 06 	addiu $6,$6,28
  4006f0:	43 00 00 00 0b 00 07 00 	addiu $7,$0,11
  4006f8:	02 00 00 00 c8 7e 10 00 	jal 41fb20 <do_lio>
  400700:	43 00 00 00 08 80 04 1c 	addiu $4,$28,-32760
  400708:	43 00 00 00 04 80 05 1c 	addiu $5,$28,-32764
  400710:	42 00 00 00 00 06 10 00 	addu $6,$0,$16
  400718:	43 00 00 00 04 00 07 00 	addiu $7,$0,4
  400720:	02 00 00 00 c8 7e 10 00 	jal 41fb20 <do_lio>
  400728:	02 00 00 00 a8 7e 10 00 	jal 41faa0 <e_wsle>
  400730:	43 00 00 00 70 80 04 1c 	addiu $4,$28,-32656
  400738:	42 00 00 00 00 05 00 00 	addu $5,$0,$0
  400740:	02 00 00 00 ec 88 10 00 	jal 4223b0 <s_stop>
  400748:	a2 00 00 00 85 10 02 00 	lui $2,4229
  400750:	28 00 00 00 c0 3c 02 02 	lw $2,15552($2)
  400758:	43 00 00 00 ec ff 11 10 	addiu $17,$16,-20
  400760:	55 00 00 00 02 02 02 00 	sll $2,$2,0x2
  400768:	42 00 00 00 00 02 11 02 	addu $2,$2,$17
  400770:	28 00 00 00 00 00 02 02 	lw $2,0($2)
  400778:	5c 00 00 00 15 00 02 02 	slti $2,$2,21
  400780:	06 00 00 00 28 00 00 02 	bne $2,$0,400828 <MAIN__+0x638>
  400788:	a2 00 00 00 00 10 04 00 	lui $4,4096
  400790:	43 00 00 00 d8 6d 04 04 	addiu $4,$4,28120
  400798:	02 00 00 00 50 7e 10 00 	jal 41f940 <s_wsle>
  4007a0:	43 00 00 00 00 80 04 1c 	addiu $4,$28,-32768
  4007a8:	43 00 00 00 04 80 05 1c 	addiu $5,$28,-32764
  4007b0:	a2 00 00 00 00 10 06 00 	lui $6,4096
  4007b8:	43 00 00 00 28 00 06 06 	addiu $6,$6,40
  4007c0:	43 00 00 00 0c 00 07 00 	addiu $7,$0,12
  4007c8:	02 00 00 00 c8 7e 10 00 	jal 41fb20 <do_lio>
  4007d0:	43 00 00 00 08 80 04 1c 	addiu $4,$28,-32760
  4007d8:	28 00 00 00 ec ff 06 10 	lw $6,-20($16)
  4007e0:	43 00 00 00 04 80 05 1c 	addiu $5,$28,-32764
  4007e8:	43 00 00 00 04 00 07 00 	addiu $7,$0,4
  4007f0:	55 00 00 00 02 06 06 00 	sll $6,$6,0x2
  4007f8:	42 00 00 00 00 06 11 06 	addu $6,$6,$17
  400800:	02 00 00 00 c8 7e 10 00 	jal 41fb20 <do_lio>
  400808:	02 00 00 00 a8 7e 10 00 	jal 41faa0 <e_wsle>
  400810:	43 00 00 00 70 80 04 1c 	addiu $4,$28,-32656
  400818:	42 00 00 00 00 05 00 00 	addu $5,$0,$0
  400820:	02 00 00 00 ec 88 10 00 	jal 4223b0 <s_stop>
  400828:	43 00 00 00 d0 07 04 1d 	addiu $4,$29,2000
  400830:	02 00 00 00 78 79 10 00 	jal 41e5e0 <init_>
  400838:	43 00 00 00 28 00 04 1d 	addiu $4,$29,40
  400840:	43 00 00 00 0b 00 02 00 	addiu $2,$0,11
  400848:	34 00 00 00 2c 00 02 1d 	sw $2,44($29)
  400850:	43 00 00 00 0c 00 02 00 	addiu $2,$0,12
  400858:	34 00 00 00 34 00 02 1d 	sw $2,52($29)
  400860:	a2 00 00 00 00 10 02 00 	lui $2,4096
  400868:	43 00 00 00 60 00 02 02 	addiu $2,$2,96
  400870:	34 00 00 00 30 00 02 1d 	sw $2,48($29)
  400878:	43 00 00 00 7c 80 02 1c 	addiu $2,$28,-32644
  400880:	34 00 00 00 28 00 00 1d 	sw $0,40($29)
  400888:	34 00 00 00 44 00 00 1d 	sw $0,68($29)
  400890:	34 00 00 00 38 00 02 1d 	sw $2,56($29)
  400898:	34 00 00 00 3c 00 00 1d 	sw $0,60($29)
  4008a0:	34 00 00 00 40 00 00 1d 	sw $0,64($29)
  4008a8:	34 00 00 00 48 00 00 1d 	sw $0,72($29)
  4008b0:	02 00 00 00 34 99 10 00 	jal 4264d0 <f_open>
  4008b8:	a2 00 00 00 00 10 04 00 	lui $4,4096
  4008c0:	43 00 00 00 00 6e 04 04 	addiu $4,$4,28160
  4008c8:	02 00 00 00 d6 9c 10 00 	jal 427358 <s_rsfe>
  4008d0:	43 00 00 00 01 00 15 00 	addiu $21,$0,1
  4008d8:	a2 00 00 00 e1 0f 16 00 	lui $22,4065
  4008e0:	43 00 00 00 88 cd 16 16 	addiu $22,$22,-12920
  4008e8:	43 00 00 00 01 00 13 00 	addiu $19,$0,1
  4008f0:	55 00 00 00 04 17 15 00 	sll $23,$21,0x4
  4008f8:	42 00 00 00 00 12 00 00 	addu $18,$0,$0
  400900:	42 00 00 00 00 02 17 13 	addu $2,$19,$23
  400908:	55 00 00 00 02 14 02 00 	sll $20,$2,0x2
  400910:	a2 00 00 00 85 10 02 00 	lui $2,4229
  400918:	28 00 00 00 d4 3c 02 02 	lw $2,15572($2)
  400920:	43 00 00 00 01 00 10 00 	addiu $16,$0,1
  400928:	34 00 00 00 e8 07 02 1d 	sw $2,2024($29)
  400930:	07 00 00 00 1e 00 00 02 	blez $2,4009b0 <MAIN__+0x7c0>
  400938:	42 00 00 00 00 03 14 12 	addu $3,$18,$20
  400940:	55 00 00 00 09 02 03 00 	sll $2,$3,0x9
  400948:	42 00 00 00 00 02 03 02 	addu $2,$2,$3
  400950:	55 00 00 00 03 02 02 00 	sll $2,$2,0x3
  400958:	45 00 00 00 00 11 03 02 	subu $17,$2,$3
  400960:	43 00 00 00 04 80 04 1c 	addiu $4,$28,-32764
  400968:	42 00 00 00 00 05 11 10 	addu $5,$16,$17
  400970:	55 00 00 00 03 05 05 00 	sll $5,$5,0x3
  400978:	42 00 00 00 00 05 16 05 	addu $5,$5,$22
  400980:	43 00 00 00 08 00 06 00 	addiu $6,$0,8
  400988:	02 00 00 00 2c 97 10 00 	jal 425cb0 <do_fio>
  400990:	28 00 00 00 e8 07 02 1d 	lw $2,2024($29)
  400998:	43 00 00 00 01 00 10 10 	addiu $16,$16,1
  4009a0:	5b 00 00 00 00 02 10 02 	slt $2,$2,$16
  4009a8:	05 00 00 00 ec ff 00 02 	beq $2,$0,400960 <MAIN__+0x770>
  4009b0:	a2 00 00 00 85 10 02 00 	lui $2,4229
  4009b8:	28 00 00 00 d4 3c 02 02 	lw $2,15572($2)
  4009c0:	43 00 00 00 01 00 10 00 	addiu $16,$0,1
  4009c8:	43 00 00 00 01 00 03 12 	addiu $3,$18,1
  4009d0:	34 00 00 00 e8 07 02 1d 	sw $2,2024($29)
  4009d8:	07 00 00 00 1e 00 00 02 	blez $2,400a58 <MAIN__+0x868>
  4009e0:	42 00 00 00 00 03 14 03 	addu $3,$3,$20
  4009e8:	55 00 00 00 09 02 03 00 	sll $2,$3,0x9
  4009f0:	42 00 00 00 00 02 03 02 	addu $2,$2,$3
  4009f8:	55 00 00 00 03 02 02 00 	sll $2,$2,0x3
  400a00:	45 00 00 00 00 11 03 02 	subu $17,$2,$3
  400a08:	43 00 00 00 04 80 04 1c 	addiu $4,$28,-32764
  400a10:	42 00 00 00 00 05 11 10 	addu $5,$16,$17
  400a18:	55 00 00 00 03 05 05 00 	sll $5,$5,0x3
  400a20:	42 00 00 00 00 05 16 05 	addu $5,$5,$22
  400a28:	43 00 00 00 08 00 06 00 	addiu $6,$0,8
  400a30:	02 00 00 00 2c 97 10 00 	jal 425cb0 <do_fio>
  400a38:	28 00 00 00 e8 07 02 1d 	lw $2,2024($29)
  400a40:	43 00 00 00 01 00 10 10 	addiu $16,$16,1
  400a48:	5b 00 00 00 00 02 10 02 	slt $2,$2,$16
  400a50:	05 00 00 00 ec ff 00 02 	beq $2,$0,400a08 <MAIN__+0x818>
  400a58:	43 00 00 00 02 00 12 12 	addiu $18,$18,2
  400a60:	5c 00 00 00 04 00 02 12 	slti $2,$18,4
  400a68:	06 00 00 00 a8 ff 00 02 	bne $2,$0,400910 <MAIN__+0x720>
  400a70:	43 00 00 00 01 00 13 13 	addiu $19,$19,1
  400a78:	5c 00 00 00 11 00 02 13 	slti $2,$19,17
  400a80:	06 00 00 00 9c ff 00 02 	bne $2,$0,4008f8 <MAIN__+0x708>
  400a88:	43 00 00 00 01 00 15 15 	addiu $21,$21,1
  400a90:	5c 00 00 00 05 00 02 15 	slti $2,$21,5
  400a98:	06 00 00 00 92 ff 00 02 	bne $2,$0,4008e8 <MAIN__+0x6f8>
  400aa0:	02 00 00 00 88 8a 10 00 	jal 422a20 <e_rsfe>
  400aa8:	a2 00 00 00 00 10 04 00 	lui $4,4096
  400ab0:	43 00 00 00 14 6e 04 04 	addiu $4,$4,28180
  400ab8:	02 00 00 00 1a 88 10 00 	jal 422068 <s_rsle>
  400ac0:	34 00 00 00 e8 07 02 1d 	sw $2,2024($29)
  400ac8:	06 00 00 00 88 03 00 02 	bne $2,$0,4018f0 <MAIN__+0x1700>
  400ad0:	43 00 00 00 24 80 04 1c 	addiu $4,$28,-32732
  400ad8:	43 00 00 00 04 80 05 1c 	addiu $5,$28,-32764
  400ae0:	a2 00 00 00 85 10 10 00 	lui $16,4229
  400ae8:	43 00 00 00 a0 3c 10 10 	addiu $16,$16,15520
  400af0:	42 00 00 00 00 06 10 00 	addu $6,$0,$16
  400af8:	43 00 00 00 04 00 07 00 	addiu $7,$0,4
  400b00:	02 00 00 00 c8 7e 10 00 	jal 41fb20 <do_lio>
  400b08:	34 00 00 00 e8 07 02 1d 	sw $2,2024($29)
  400b10:	06 00 00 00 76 03 00 02 	bne $2,$0,4018f0 <MAIN__+0x1700>
  400b18:	43 00 00 00 08 80 04 1c 	addiu $4,$28,-32760
  400b20:	43 00 00 00 04 80 05 1c 	addiu $5,$28,-32764
  400b28:	43 00 00 00 d4 07 12 1d 	addiu $18,$29,2004
  400b30:	42 00 00 00 00 06 12 00 	addu $6,$0,$18
  400b38:	43 00 00 00 04 00 07 00 	addiu $7,$0,4
  400b40:	02 00 00 00 c8 7e 10 00 	jal 41fb20 <do_lio>
  400b48:	34 00 00 00 e8 07 02 1d 	sw $2,2024($29)
  400b50:	06 00 00 00 66 03 00 02 	bne $2,$0,4018f0 <MAIN__+0x1700>
  400b58:	43 00 00 00 08 80 04 1c 	addiu $4,$28,-32760
  400b60:	43 00 00 00 04 80 05 1c 	addiu $5,$28,-32764
  400b68:	43 00 00 00 d8 07 06 1d 	addiu $6,$29,2008
  400b70:	43 00 00 00 04 00 07 00 	addiu $7,$0,4
  400b78:	02 00 00 00 c8 7e 10 00 	jal 41fb20 <do_lio>
  400b80:	34 00 00 00 e8 07 02 1d 	sw $2,2024($29)
  400b88:	06 00 00 00 58 03 00 02 	bne $2,$0,4018f0 <MAIN__+0x1700>
  400b90:	43 00 00 00 08 80 04 1c 	addiu $4,$28,-32760
  400b98:	43 00 00 00 04 80 05 1c 	addiu $5,$28,-32764
  400ba0:	43 00 00 00 dc 07 06 1d 	addiu $6,$29,2012
  400ba8:	43 00 00 00 04 00 07 00 	addiu $7,$0,4
  400bb0:	02 00 00 00 c8 7e 10 00 	jal 41fb20 <do_lio>
  400bb8:	34 00 00 00 e8 07 02 1d 	sw $2,2024($29)
  400bc0:	06 00 00 00 4a 03 00 02 	bne $2,$0,4018f0 <MAIN__+0x1700>
  400bc8:	43 00 00 00 08 80 04 1c 	addiu $4,$28,-32760
  400bd0:	43 00 00 00 04 80 05 1c 	addiu $5,$28,-32764
  400bd8:	43 00 00 00 10 00 06 10 	addiu $6,$16,16
  400be0:	43 00 00 00 04 00 07 00 	addiu $7,$0,4
  400be8:	02 00 00 00 c8 7e 10 00 	jal 41fb20 <do_lio>
  400bf0:	34 00 00 00 e8 07 02 1d 	sw $2,2024($29)
  400bf8:	06 00 00 00 3c 03 00 02 	bne $2,$0,4018f0 <MAIN__+0x1700>
  400c00:	43 00 00 00 08 80 04 1c 	addiu $4,$28,-32760
  400c08:	43 00 00 00 04 80 05 1c 	addiu $5,$28,-32764
  400c10:	43 00 00 00 e0 07 06 1d 	addiu $6,$29,2016
  400c18:	43 00 00 00 04 00 07 00 	addiu $7,$0,4
  400c20:	02 00 00 00 c8 7e 10 00 	jal 41fb20 <do_lio>
  400c28:	34 00 00 00 e8 07 02 1d 	sw $2,2024($29)
  400c30:	06 00 00 00 2e 03 00 02 	bne $2,$0,4018f0 <MAIN__+0x1700>
  400c38:	43 00 00 00 08 80 04 1c 	addiu $4,$28,-32760
  400c40:	43 00 00 00 04 80 05 1c 	addiu $5,$28,-32764
  400c48:	43 00 00 00 e4 07 06 1d 	addiu $6,$29,2020
  400c50:	43 00 00 00 04 00 07 00 	addiu $7,$0,4
  400c58:	02 00 00 00 c8 7e 10 00 	jal 41fb20 <do_lio>
  400c60:	34 00 00 00 e8 07 02 1d 	sw $2,2024($29)
  400c68:	06 00 00 00 20 03 00 02 	bne $2,$0,4018f0 <MAIN__+0x1700>
  400c70:	02 00 00 00 20 7f 10 00 	jal 41fc80 <e_rsle>
  400c78:	2a 00 00 00 00 00 00 10 	l.s $f0,0($16)
  400c80:	a5 00 00 00 00 00 00 02 	mtc1 $0,$f2
  400c88:	94 00 00 00 00 00 02 00 	c.le.s $f0,$f2
  400c90:	34 00 00 00 e8 07 02 1d 	sw $2,2024($29)
  400c98:	0c 00 00 00 14 03 00 00 	bc1t 4018f0 <MAIN__+0x1700>
  400ca0:	a2 00 00 00 00 10 04 00 	lui $4,4096
  400ca8:	43 00 00 00 28 6e 04 04 	addiu $4,$4,28200
  400cb0:	a2 00 00 00 85 10 01 00 	lui $1,4229
  400cb8:	36 00 00 00 a4 3c 02 01 	s.s $f2,15524($1)
  400cc0:	02 00 00 00 d8 89 10 00 	jal 422760 <s_wsfe>
  400cc8:	43 00 00 00 04 80 04 1c 	addiu $4,$28,-32764
  400cd0:	42 00 00 00 00 05 10 00 	addu $5,$0,$16
  400cd8:	43 00 00 00 04 00 06 00 	addiu $6,$0,4
  400ce0:	02 00 00 00 2c 97 10 00 	jal 425cb0 <do_fio>
  400ce8:	02 00 00 00 1e 8b 10 00 	jal 422c78 <e_wsfe>
  400cf0:	42 00 00 00 00 04 10 00 	addu $4,$0,$16
  400cf8:	a2 00 00 00 85 10 11 00 	lui $17,4229
  400d00:	43 00 00 00 c0 3c 11 11 	addiu $17,$17,15552
  400d08:	42 00 00 00 00 05 11 00 	addu $5,$0,$17
  400d10:	02 00 00 00 be 28 10 00 	jal 40a2f8 <bestab_>
  400d18:	28 00 00 00 d4 07 02 1d 	lw $2,2004($29)
  400d20:	09 00 00 00 60 00 00 02 	bltz $2,400ea8 <MAIN__+0xcb8>
  400d28:	a2 00 00 00 00 10 04 00 	lui $4,4096
  400d30:	43 00 00 00 3c 6e 04 04 	addiu $4,$4,28220
  400d38:	02 00 00 00 d8 89 10 00 	jal 422760 <s_wsfe>
  400d40:	43 00 00 00 04 80 04 1c 	addiu $4,$28,-32764
  400d48:	42 00 00 00 00 05 12 00 	addu $5,$0,$18
  400d50:	43 00 00 00 04 00 06 00 	addiu $6,$0,4
  400d58:	02 00 00 00 2c 97 10 00 	jal 425cb0 <do_fio>
  400d60:	02 00 00 00 1e 8b 10 00 	jal 422c78 <e_wsfe>
  400d68:	a2 00 00 00 85 10 02 00 	lui $2,4229
  400d70:	28 00 00 00 c0 3c 02 02 	lw $2,15552($2)
  400d78:	43 00 00 00 e8 07 10 1d 	addiu $16,$29,2024
  400d80:	42 00 00 00 00 04 10 00 	addu $4,$0,$16
  400d88:	a2 00 00 00 85 10 01 00 	lui $1,4229
  400d90:	34 00 00 00 a8 3c 00 01 	sw $0,15528($1)
  400d98:	a2 00 00 00 85 10 01 00 	lui $1,4229
  400da0:	34 00 00 00 ac 3c 00 01 	sw $0,15532($1)
  400da8:	a2 00 00 00 03 10 01 00 	lui $1,4099
  400db0:	34 00 00 00 6c dc 00 01 	sw $0,-9108($1)
  400db8:	a2 00 00 00 03 10 01 00 	lui $1,4099
  400dc0:	34 00 00 00 68 dc 00 01 	sw $0,-9112($1)
  400dc8:	28 00 00 00 00 00 06 11 	lw $6,0($17)
  400dd0:	55 00 00 00 02 02 02 00 	sll $2,$2,0x2
  400dd8:	42 00 00 00 00 02 11 02 	addu $2,$2,$17
  400de0:	28 00 00 00 00 00 02 02 	lw $2,0($2)
  400de8:	43 00 00 00 20 80 05 1c 	addiu $5,$28,-32736
  400df0:	55 00 00 00 01 06 06 00 	sll $6,$6,0x1
  400df8:	57 00 00 00 1f 03 02 00 	srl $3,$2,0x1f
  400e00:	42 00 00 00 00 02 03 02 	addu $2,$2,$3
  400e08:	59 00 00 00 01 02 02 00 	sra $2,$2,0x1
  400e10:	55 00 00 00 03 02 02 00 	sll $2,$2,0x3
  400e18:	43 00 00 00 11 00 02 02 	addiu $2,$2,17
  400e20:	42 00 00 00 00 06 02 06 	addu $6,$6,$2
  400e28:	34 00 00 00 e8 07 06 1d 	sw $6,2024($29)
  400e30:	02 00 00 00 4e 6a 10 00 	jal 41a938 <clear2_>
  400e38:	a2 00 00 00 85 10 02 00 	lui $2,4229
  400e40:	28 00 00 00 c0 3c 02 02 	lw $2,15552($2)
  400e48:	55 00 00 00 02 02 02 00 	sll $2,$2,0x2
  400e50:	42 00 00 00 00 02 11 02 	addu $2,$2,$17
  400e58:	28 00 00 00 00 00 02 02 	lw $2,0($2)
  400e60:	43 00 00 00 18 80 04 1c 	addiu $4,$28,-32744
  400e68:	42 00 00 00 00 05 10 00 	addu $5,$0,$16
  400e70:	57 00 00 00 1f 03 02 00 	srl $3,$2,0x1f
  400e78:	42 00 00 00 00 02 03 02 	addu $2,$2,$3
  400e80:	59 00 00 00 01 02 02 00 	sra $2,$2,0x1
  400e88:	43 00 00 00 02 00 02 02 	addiu $2,$2,2
  400e90:	34 00 00 00 e8 07 02 1d 	sw $2,2024($29)
  400e98:	02 00 00 00 9c 72 10 00 	jal 41ca70 <clear4_>
  400ea0:	01 00 00 00 ba 03 10 00 	j 400ee8 <MAIN__+0xcf8>
  400ea8:	a2 00 00 00 00 10 04 00 	lui $4,4096
  400eb0:	43 00 00 00 50 6e 04 04 	addiu $4,$4,28240
  400eb8:	02 00 00 00 d8 89 10 00 	jal 422760 <s_wsfe>
  400ec0:	43 00 00 00 04 80 04 1c 	addiu $4,$28,-32764
  400ec8:	43 00 00 00 08 00 05 10 	addiu $5,$16,8
  400ed0:	43 00 00 00 04 00 06 00 	addiu $6,$0,4
  400ed8:	02 00 00 00 2c 97 10 00 	jal 425cb0 <do_fio>
  400ee0:	02 00 00 00 1e 8b 10 00 	jal 422c78 <e_wsfe>
  400ee8:	a2 00 00 00 00 10 04 00 	lui $4,4096
  400ef0:	43 00 00 00 64 6e 04 04 	addiu $4,$4,28260
  400ef8:	02 00 00 00 d8 89 10 00 	jal 422760 <s_wsfe>
  400f00:	43 00 00 00 04 80 04 1c 	addiu $4,$28,-32764
  400f08:	43 00 00 00 d8 07 05 1d 	addiu $5,$29,2008
  400f10:	43 00 00 00 04 00 06 00 	addiu $6,$0,4
  400f18:	02 00 00 00 2c 97 10 00 	jal 425cb0 <do_fio>
  400f20:	43 00 00 00 04 80 04 1c 	addiu $4,$28,-32764
  400f28:	a2 00 00 00 85 10 05 00 	lui $5,4229
  400f30:	43 00 00 00 b0 3c 05 05 	addiu $5,$5,15536
  400f38:	43 00 00 00 04 00 06 00 	addiu $6,$0,4
  400f40:	02 00 00 00 2c 97 10 00 	jal 425cb0 <do_fio>
  400f48:	02 00 00 00 1e 8b 10 00 	jal 422c78 <e_wsfe>
  400f50:	28 00 00 00 e4 07 02 1d 	lw $2,2020($29)
  400f58:	07 00 00 00 18 00 00 02 	blez $2,400fc0 <MAIN__+0xdd0>
  400f60:	a2 00 00 00 00 10 04 00 	lui $4,4096
  400f68:	43 00 00 00 78 6e 04 04 	addiu $4,$4,28280
  400f70:	02 00 00 00 d8 89 10 00 	jal 422760 <s_wsfe>
  400f78:	43 00 00 00 04 80 04 1c 	addiu $4,$28,-32764
  400f80:	43 00 00 00 e0 07 05 1d 	addiu $5,$29,2016
  400f88:	43 00 00 00 04 00 06 00 	addiu $6,$0,4
  400f90:	02 00 00 00 2c 97 10 00 	jal 425cb0 <do_fio>
  400f98:	43 00 00 00 04 80 04 1c 	addiu $4,$28,-32764
  400fa0:	43 00 00 00 e4 07 05 1d 	addiu $5,$29,2020
  400fa8:	43 00 00 00 04 00 06 00 	addiu $6,$0,4
  400fb0:	02 00 00 00 2c 97 10 00 	jal 425cb0 <do_fio>
  400fb8:	01 00 00 00 00 04 10 00 	j 401000 <MAIN__+0xe10>
  400fc0:	43 00 00 00 10 00 04 1d 	addiu $4,$29,16
  400fc8:	43 00 00 00 06 00 02 00 	addiu $2,$0,6
  400fd0:	34 00 00 00 14 00 02 1d 	sw $2,20($29)
  400fd8:	a2 00 00 00 00 10 02 00 	lui $2,4096
  400fe0:	43 00 00 00 70 00 02 02 	addiu $2,$2,112
  400fe8:	34 00 00 00 10 00 00 1d 	sw $0,16($29)
  400ff0:	34 00 00 00 1c 00 02 1d 	sw $2,28($29)
  400ff8:	02 00 00 00 d8 89 10 00 	jal 422760 <s_wsfe>
  401000:	02 00 00 00 1e 8b 10 00 	jal 422c78 <e_wsfe>
  401008:	28 00 00 00 d4 07 02 1d 	lw $2,2004($29)
  401010:	07 00 00 00 14 01 00 02 	blez $2,401468 <MAIN__+0x1278>
  401018:	42 00 00 00 00 11 00 00 	addu $17,$0,$0
  401020:	a2 00 00 00 00 10 04 00 	lui $4,4096
  401028:	43 00 00 00 8c 6e 04 04 	addiu $4,$4,28300
  401030:	02 00 00 00 d8 89 10 00 	jal 422760 <s_wsfe>
  401038:	a2 00 00 00 85 10 03 00 	lui $3,4229
  401040:	28 00 00 00 c0 3c 03 03 	lw $3,15552($3)
  401048:	42 00 00 00 00 12 00 00 	addu $18,$0,$0
  401050:	43 00 00 00 01 00 02 00 	addiu $2,$0,1
  401058:	34 00 00 00 ec 07 02 1d 	sw $2,2028($29)
  401060:	34 00 00 00 e8 07 03 1d 	sw $3,2024($29)
  401068:	07 00 00 00 14 00 00 03 	blez $3,4010c0 <MAIN__+0xed0>
  401070:	43 00 00 00 04 80 04 1c 	addiu $4,$28,-32764
  401078:	43 00 00 00 ec 07 05 1d 	addiu $5,$29,2028
  401080:	43 00 00 00 04 00 06 00 	addiu $6,$0,4
  401088:	02 00 00 00 2c 97 10 00 	jal 425cb0 <do_fio>
  401090:	28 00 00 00 ec 07 02 1d 	lw $2,2028($29)
  401098:	28 00 00 00 e8 07 03 1d 	lw $3,2024($29)
  4010a0:	43 00 00 00 01 00 02 02 	addiu $2,$2,1
  4010a8:	5b 00 00 00 00 03 02 03 	slt $3,$3,$2
  4010b0:	34 00 00 00 ec 07 02 1d 	sw $2,2028($29)
  4010b8:	05 00 00 00 ec ff 00 03 	beq $3,$0,401070 <MAIN__+0xe80>
  4010c0:	02 00 00 00 1e 8b 10 00 	jal 422c78 <e_wsfe>
  4010c8:	28 00 00 00 d4 07 03 1d 	lw $3,2004($29)
  4010d0:	a2 00 00 00 85 10 04 00 	lui $4,4229
  4010d8:	43 00 00 00 a8 3c 04 04 	addiu $4,$4,15528
  4010e0:	43 00 00 00 01 00 02 00 	addiu $2,$0,1
  4010e8:	34 00 00 00 00 00 02 04 	sw $2,0($4)
  4010f0:	34 00 00 00 e8 07 03 1d 	sw $3,2024($29)
  4010f8:	07 00 00 00 88 00 00 03 	blez $3,401320 <MAIN__+0x1130>
  401100:	a2 00 00 00 85 10 14 00 	lui $20,4229
  401108:	43 00 00 00 20 3f 14 14 	addiu $20,$20,16160
  401110:	42 00 00 00 00 13 04 00 	addu $19,$0,$4
  401118:	02 00 00 00 3a 0a 10 00 	jal 4028e8 <sweep_>
  401120:	28 00 00 00 dc 07 02 1d 	lw $2,2012($29)
  401128:	43 00 00 00 01 00 11 11 	addiu $17,$17,1
  401130:	05 00 00 00 08 00 02 11 	beq $17,$2,401158 <MAIN__+0xf68>
  401138:	a2 00 00 00 85 10 03 00 	lui $3,4229
  401140:	28 00 00 00 a8 3c 03 03 	lw $3,15528($3)
  401148:	28 00 00 00 d4 07 02 1d 	lw $2,2004($29)
  401150:	06 00 00 00 58 00 02 03 	bne $3,$2,4012b8 <MAIN__+0x10c8>
  401158:	a2 00 00 00 00 10 04 00 	lui $4,4096
  401160:	43 00 00 00 a0 6e 04 04 	addiu $4,$4,28320
  401168:	02 00 00 00 d8 89 10 00 	jal 422760 <s_wsfe>
  401170:	43 00 00 00 04 80 04 1c 	addiu $4,$28,-32764
  401178:	a2 00 00 00 85 10 05 00 	lui $5,4229
  401180:	43 00 00 00 a8 3c 05 05 	addiu $5,$5,15528
  401188:	43 00 00 00 04 00 06 00 	addiu $6,$0,4
  401190:	02 00 00 00 2c 97 10 00 	jal 425cb0 <do_fio>
  401198:	43 00 00 00 04 80 04 1c 	addiu $4,$28,-32764
  4011a0:	42 00 00 00 00 05 14 00 	addu $5,$0,$20
  4011a8:	43 00 00 00 08 00 06 00 	addiu $6,$0,8
  4011b0:	02 00 00 00 2c 97 10 00 	jal 425cb0 <do_fio>
  4011b8:	43 00 00 00 04 80 04 1c 	addiu $4,$28,-32764
  4011c0:	43 00 00 00 08 00 05 14 	addiu $5,$20,8
  4011c8:	43 00 00 00 08 00 06 00 	addiu $6,$0,8
  4011d0:	02 00 00 00 2c 97 10 00 	jal 425cb0 <do_fio>
  4011d8:	43 00 00 00 04 80 04 1c 	addiu $4,$28,-32764
  4011e0:	02 00 00 00 4e 6d 10 00 	jal 41b538 <aver2_>
  4011e8:	43 00 00 00 04 80 04 1c 	addiu $4,$28,-32764
  4011f0:	43 00 00 00 f0 07 05 1d 	addiu $5,$29,2032
  4011f8:	43 00 00 00 04 00 06 00 	addiu $6,$0,4
  401200:	36 00 00 00 f0 07 00 1d 	s.s $f0,2032($29)
  401208:	02 00 00 00 2c 97 10 00 	jal 425cb0 <do_fio>
  401210:	a2 00 00 00 85 10 02 00 	lui $2,4229
  401218:	28 00 00 00 c0 3c 02 02 	lw $2,15552($2)
  401220:	43 00 00 00 02 00 03 00 	addiu $3,$0,2
  401228:	34 00 00 00 ec 07 03 1d 	sw $3,2028($29)
  401230:	55 00 00 00 01 10 02 00 	sll $16,$2,0x1
  401238:	5c 00 00 00 02 00 02 10 	slti $2,$16,2
  401240:	06 00 00 00 18 00 00 02 	bne $2,$0,4012a8 <MAIN__+0x10b8>
  401248:	43 00 00 00 ec 07 04 1d 	addiu $4,$29,2028
  401250:	02 00 00 00 4e 6d 10 00 	jal 41b538 <aver2_>
  401258:	43 00 00 00 04 80 04 1c 	addiu $4,$28,-32764
  401260:	43 00 00 00 f4 07 05 1d 	addiu $5,$29,2036
  401268:	43 00 00 00 04 00 06 00 	addiu $6,$0,4
  401270:	36 00 00 00 f4 07 00 1d 	s.s $f0,2036($29)
  401278:	02 00 00 00 2c 97 10 00 	jal 425cb0 <do_fio>
  401280:	28 00 00 00 ec 07 02 1d 	lw $2,2028($29)
  401288:	43 00 00 00 02 00 02 02 	addiu $2,$2,2
  401290:	34 00 00 00 ec 07 02 1d 	sw $2,2028($29)
  401298:	5b 00 00 00 00 02 02 10 	slt $2,$16,$2
  4012a0:	05 00 00 00 e8 ff 00 02 	beq $2,$0,401248 <MAIN__+0x1058>
  4012a8:	02 00 00 00 1e 8b 10 00 	jal 422c78 <e_wsfe>
  4012b0:	42 00 00 00 00 11 00 00 	addu $17,$0,$0
  4012b8:	28 00 00 00 e0 07 02 1d 	lw $2,2016($29)
  4012c0:	43 00 00 00 01 00 12 12 	addiu $18,$18,1
  4012c8:	5b 00 00 00 00 02 02 12 	slt $2,$18,$2
  4012d0:	06 00 00 00 06 00 00 02 	bne $2,$0,4012f0 <MAIN__+0x1100>
  4012d8:	28 00 00 00 e4 07 02 1d 	lw $2,2020($29)
  4012e0:	07 00 00 00 02 00 00 02 	blez $2,4012f0 <MAIN__+0x1100>
  4012e8:	42 00 00 00 00 12 00 00 	addu $18,$0,$0
  4012f0:	28 00 00 00 00 00 02 13 	lw $2,0($19)
  4012f8:	28 00 00 00 e8 07 03 1d 	lw $3,2024($29)
  401300:	43 00 00 00 01 00 02 02 	addiu $2,$2,1
  401308:	5b 00 00 00 00 03 02 03 	slt $3,$3,$2
  401310:	34 00 00 00 00 00 02 13 	sw $2,0($19)
  401318:	05 00 00 00 7e ff 00 03 	beq $3,$0,401118 <MAIN__+0xf28>
  401320:	43 00 00 00 e8 07 11 1d 	addiu $17,$29,2024
  401328:	a2 00 00 00 85 10 02 00 	lui $2,4229
  401330:	28 00 00 00 c0 3c 02 02 	lw $2,15552($2)
  401338:	42 00 00 00 00 04 11 00 	addu $4,$0,$17
  401340:	a2 00 00 00 85 10 10 00 	lui $16,4229
  401348:	43 00 00 00 c0 3c 10 10 	addiu $16,$16,15552
  401350:	a2 00 00 00 85 10 01 00 	lui $1,4229
  401358:	34 00 00 00 a8 3c 00 01 	sw $0,15528($1)
  401360:	a2 00 00 00 85 10 01 00 	lui $1,4229
  401368:	34 00 00 00 ac 3c 00 01 	sw $0,15532($1)
  401370:	a2 00 00 00 03 10 01 00 	lui $1,4099
  401378:	34 00 00 00 6c dc 00 01 	sw $0,-9108($1)
  401380:	a2 00 00 00 03 10 01 00 	lui $1,4099
  401388:	34 00 00 00 68 dc 00 01 	sw $0,-9112($1)
  401390:	28 00 00 00 00 00 06 10 	lw $6,0($16)
  401398:	55 00 00 00 02 02 02 00 	sll $2,$2,0x2
  4013a0:	42 00 00 00 00 02 10 02 	addu $2,$2,$16
  4013a8:	28 00 00 00 00 00 02 02 	lw $2,0($2)
  4013b0:	43 00 00 00 20 80 05 1c 	addiu $5,$28,-32736
  4013b8:	55 00 00 00 01 06 06 00 	sll $6,$6,0x1
  4013c0:	57 00 00 00 1f 03 02 00 	srl $3,$2,0x1f
  4013c8:	42 00 00 00 00 02 03 02 	addu $2,$2,$3
  4013d0:	59 00 00 00 01 02 02 00 	sra $2,$2,0x1
  4013d8:	55 00 00 00 03 02 02 00 	sll $2,$2,0x3
  4013e0:	43 00 00 00 11 00 02 02 	addiu $2,$2,17
  4013e8:	42 00 00 00 00 06 02 06 	addu $6,$6,$2
  4013f0:	34 00 00 00 e8 07 06 1d 	sw $6,2024($29)
  4013f8:	02 00 00 00 4e 6a 10 00 	jal 41a938 <clear2_>
  401400:	a2 00 00 00 85 10 02 00 	lui $2,4229
  401408:	28 00 00 00 c0 3c 02 02 	lw $2,15552($2)
  401410:	55 00 00 00 02 02 02 00 	sll $2,$2,0x2
  401418:	42 00 00 00 00 02 10 02 	addu $2,$2,$16
  401420:	28 00 00 00 00 00 02 02 	lw $2,0($2)
  401428:	43 00 00 00 18 80 04 1c 	addiu $4,$28,-32744
  401430:	42 00 00 00 00 05 11 00 	addu $5,$0,$17
  401438:	57 00 00 00 1f 03 02 00 	srl $3,$2,0x1f
  401440:	42 00 00 00 00 02 03 02 	addu $2,$2,$3
  401448:	59 00 00 00 01 02 02 00 	sra $2,$2,0x1
  401450:	43 00 00 00 02 00 02 02 	addiu $2,$2,2
  401458:	34 00 00 00 e8 07 02 1d 	sw $2,2024($29)
  401460:	02 00 00 00 9c 72 10 00 	jal 41ca70 <clear4_>
  401468:	42 00 00 00 00 11 00 00 	addu $17,$0,$0
  401470:	a2 00 00 00 00 10 04 00 	lui $4,4096
  401478:	43 00 00 00 b4 6e 04 04 	addiu $4,$4,28340
  401480:	02 00 00 00 d8 89 10 00 	jal 422760 <s_wsfe>
  401488:	a2 00 00 00 85 10 03 00 	lui $3,4229
  401490:	28 00 00 00 c0 3c 03 03 	lw $3,15552($3)
  401498:	42 00 00 00 00 12 00 00 	addu $18,$0,$0
  4014a0:	43 00 00 00 01 00 02 00 	addiu $2,$0,1
  4014a8:	34 00 00 00 ec 07 02 1d 	sw $2,2028($29)
  4014b0:	34 00 00 00 e8 07 03 1d 	sw $3,2024($29)
  4014b8:	07 00 00 00 14 00 00 03 	blez $3,401510 <MAIN__+0x1320>
  4014c0:	43 00 00 00 04 80 04 1c 	addiu $4,$28,-32764
  4014c8:	43 00 00 00 ec 07 05 1d 	addiu $5,$29,2028
  4014d0:	43 00 00 00 04 00 06 00 	addiu $6,$0,4
  4014d8:	02 00 00 00 2c 97 10 00 	jal 425cb0 <do_fio>
  4014e0:	28 00 00 00 ec 07 02 1d 	lw $2,2028($29)
  4014e8:	28 00 00 00 e8 07 03 1d 	lw $3,2024($29)
  4014f0:	43 00 00 00 01 00 02 02 	addiu $2,$2,1
  4014f8:	5b 00 00 00 00 03 02 03 	slt $3,$3,$2
  401500:	34 00 00 00 ec 07 02 1d 	sw $2,2028($29)
  401508:	05 00 00 00 ec ff 00 03 	beq $3,$0,4014c0 <MAIN__+0x12d0>
  401510:	02 00 00 00 1e 8b 10 00 	jal 422c78 <e_wsfe>
  401518:	28 00 00 00 d8 07 02 1d 	lw $2,2008($29)
  401520:	43 00 00 00 01 00 13 00 	addiu $19,$0,1
  401528:	34 00 00 00 e8 07 02 1d 	sw $2,2024($29)
  401530:	07 00 00 00 e4 00 00 02 	blez $2,4018c8 <MAIN__+0x16d8>
  401538:	a2 00 00 00 85 10 16 00 	lui $22,4229
  401540:	43 00 00 00 20 3f 16 16 	addiu $22,$22,16160
  401548:	a2 00 00 00 85 10 15 00 	lui $21,4229
  401550:	43 00 00 00 a8 3c 15 15 	addiu $21,$21,15528
  401558:	43 00 00 00 04 00 14 15 	addiu $20,$21,4
  401560:	a2 00 00 00 85 10 17 00 	lui $23,4229
  401568:	43 00 00 00 c0 3c 17 17 	addiu $23,$23,15552
  401570:	28 00 00 00 00 00 02 15 	lw $2,0($21)
  401578:	43 00 00 00 01 00 02 02 	addiu $2,$2,1
  401580:	34 00 00 00 00 00 02 15 	sw $2,0($21)
  401588:	02 00 00 00 3a 0a 10 00 	jal 4028e8 <sweep_>
  401590:	28 00 00 00 dc 07 02 1d 	lw $2,2012($29)
  401598:	43 00 00 00 01 00 11 11 	addiu $17,$17,1
  4015a0:	05 00 00 00 04 00 02 11 	beq $17,$2,4015b8 <MAIN__+0x13c8>
  4015a8:	28 00 00 00 d8 07 02 1d 	lw $2,2008($29)
  4015b0:	06 00 00 00 56 00 02 13 	bne $19,$2,401710 <MAIN__+0x1520>
  4015b8:	a2 00 00 00 00 10 04 00 	lui $4,4096
  4015c0:	43 00 00 00 c8 6e 04 04 	addiu $4,$4,28360
  4015c8:	02 00 00 00 d8 89 10 00 	jal 422760 <s_wsfe>
  4015d0:	43 00 00 00 04 80 04 1c 	addiu $4,$28,-32764
  4015d8:	42 00 00 00 00 05 15 00 	addu $5,$0,$21
  4015e0:	43 00 00 00 04 00 06 00 	addiu $6,$0,4
  4015e8:	02 00 00 00 2c 97 10 00 	jal 425cb0 <do_fio>
  4015f0:	43 00 00 00 04 80 04 1c 	addiu $4,$28,-32764
  4015f8:	42 00 00 00 00 05 16 00 	addu $5,$0,$22
  401600:	43 00 00 00 08 00 06 00 	addiu $6,$0,8
  401608:	02 00 00 00 2c 97 10 00 	jal 425cb0 <do_fio>
  401610:	43 00 00 00 04 80 04 1c 	addiu $4,$28,-32764
  401618:	43 00 00 00 08 00 05 16 	addiu $5,$22,8
  401620:	43 00 00 00 08 00 06 00 	addiu $6,$0,8
  401628:	02 00 00 00 2c 97 10 00 	jal 425cb0 <do_fio>
  401630:	43 00 00 00 04 80 04 1c 	addiu $4,$28,-32764
  401638:	02 00 00 00 4e 6d 10 00 	jal 41b538 <aver2_>
  401640:	43 00 00 00 04 80 04 1c 	addiu $4,$28,-32764
  401648:	43 00 00 00 f0 07 05 1d 	addiu $5,$29,2032
  401650:	43 00 00 00 04 00 06 00 	addiu $6,$0,4
  401658:	36 00 00 00 f0 07 00 1d 	s.s $f0,2032($29)
  401660:	02 00 00 00 2c 97 10 00 	jal 425cb0 <do_fio>
  401668:	a2 00 00 00 85 10 02 00 	lui $2,4229
  401670:	28 00 00 00 c0 3c 02 02 	lw $2,15552($2)
  401678:	43 00 00 00 02 00 03 00 	addiu $3,$0,2
  401680:	34 00 00 00 ec 07 03 1d 	sw $3,2028($29)
  401688:	55 00 00 00 01 10 02 00 	sll $16,$2,0x1
  401690:	5c 00 00 00 02 00 02 10 	slti $2,$16,2
  401698:	06 00 00 00 18 00 00 02 	bne $2,$0,401700 <MAIN__+0x1510>
  4016a0:	43 00 00 00 ec 07 04 1d 	addiu $4,$29,2028
  4016a8:	02 00 00 00 4e 6d 10 00 	jal 41b538 <aver2_>
  4016b0:	43 00 00 00 04 80 04 1c 	addiu $4,$28,-32764
  4016b8:	43 00 00 00 f4 07 05 1d 	addiu $5,$29,2036
  4016c0:	43 00 00 00 04 00 06 00 	addiu $6,$0,4
  4016c8:	36 00 00 00 f4 07 00 1d 	s.s $f0,2036($29)
  4016d0:	02 00 00 00 2c 97 10 00 	jal 425cb0 <do_fio>
  4016d8:	28 00 00 00 ec 07 02 1d 	lw $2,2028($29)
  4016e0:	43 00 00 00 02 00 02 02 	addiu $2,$2,2
  4016e8:	34 00 00 00 ec 07 02 1d 	sw $2,2028($29)
  4016f0:	5b 00 00 00 00 02 02 10 	slt $2,$16,$2
  4016f8:	05 00 00 00 e8 ff 00 02 	beq $2,$0,4016a0 <MAIN__+0x14b0>
  401700:	02 00 00 00 1e 8b 10 00 	jal 422c78 <e_wsfe>
  401708:	42 00 00 00 00 11 00 00 	addu $17,$0,$0
  401710:	28 00 00 00 00 00 02 14 	lw $2,0($20)
  401718:	28 00 00 00 04 00 03 14 	lw $3,4($20)
  401720:	43 00 00 00 01 00 02 02 	addiu $2,$2,1
  401728:	34 00 00 00 00 00 02 14 	sw $2,0($20)
  401730:	5b 00 00 00 00 02 03 02 	slt $2,$2,$3
  401738:	06 00 00 00 04 00 00 02 	bne $2,$0,401750 <MAIN__+0x1560>
  401740:	02 00 00 00 ec 37 10 00 	jal 40dfb0 <corr_>
  401748:	34 00 00 00 00 00 00 14 	sw $0,0($20)
  401750:	28 00 00 00 e0 07 02 1d 	lw $2,2016($29)
  401758:	43 00 00 00 01 00 12 12 	addiu $18,$18,1
  401760:	5b 00 00 00 00 02 02 12 	slt $2,$18,$2
  401768:	05 00 00 00 04 00 00 02 	beq $2,$0,401780 <MAIN__+0x1590>
  401770:	28 00 00 00 d8 07 02 1d 	lw $2,2008($29)
  401778:	06 00 00 00 4a 00 02 13 	bne $19,$2,4018a8 <MAIN__+0x16b8>
  401780:	28 00 00 00 e4 07 02 1d 	lw $2,2020($29)
  401788:	07 00 00 00 46 00 00 02 	blez $2,4018a8 <MAIN__+0x16b8>
  401790:	43 00 00 00 10 04 04 1d 	addiu $4,$29,1040
  401798:	43 00 00 00 50 00 05 1d 	addiu $5,$29,80
  4017a0:	43 00 00 00 f0 05 06 1d 	addiu $6,$29,1520
  4017a8:	43 00 00 00 30 02 07 1d 	addiu $7,$29,560
  4017b0:	02 00 00 00 e4 3c 10 00 	jal 40f390 <loops_>
  4017b8:	a2 00 00 00 85 10 02 00 	lui $2,4229
  4017c0:	28 00 00 00 c0 3c 02 02 	lw $2,15552($2)
  4017c8:	55 00 00 00 02 02 02 00 	sll $2,$2,0x2
  4017d0:	42 00 00 00 00 02 17 02 	addu $2,$2,$23
  4017d8:	28 00 00 00 00 00 10 02 	lw $16,0($2)
  4017e0:	42 00 00 00 00 12 00 00 	addu $18,$0,$0
  4017e8:	43 00 00 00 01 00 05 00 	addiu $5,$0,1
  4017f0:	5c 00 00 00 01 00 06 10 	slti $6,$16,1
  4017f8:	43 00 00 00 01 00 03 00 	addiu $3,$0,1
  401800:	06 00 00 00 22 00 00 06 	bne $6,$0,401890 <MAIN__+0x16a0>
  401808:	43 00 00 00 01 00 02 10 	addiu $2,$16,1
  401810:	4f 00 00 00 03 00 04 10 	andi $4,$16,3
  401818:	5b 00 00 00 00 02 02 03 	slt $2,$3,$2
  401820:	05 00 00 00 0e 00 00 02 	beq $2,$0,401860 <MAIN__+0x1670>
  401828:	05 00 00 00 12 00 00 04 	beq $4,$0,401878 <MAIN__+0x1688>
  401830:	5c 00 00 00 02 00 02 04 	slti $2,$4,2
  401838:	06 00 00 00 08 00 00 02 	bne $2,$0,401860 <MAIN__+0x1670>
  401840:	5c 00 00 00 03 00 02 04 	slti $2,$4,3
  401848:	06 00 00 00 02 00 00 02 	bne $2,$0,401858 <MAIN__+0x1668>
  401850:	43 00 00 00 02 00 03 00 	addiu $3,$0,2
  401858:	43 00 00 00 01 00 03 03 	addiu $3,$3,1
  401860:	43 00 00 00 01 00 03 03 	addiu $3,$3,1
  401868:	5b 00 00 00 00 02 03 10 	slt $2,$16,$3
  401870:	06 00 00 00 06 00 00 02 	bne $2,$0,401890 <MAIN__+0x16a0>
  401878:	43 00 00 00 04 00 03 03 	addiu $3,$3,4
  401880:	5b 00 00 00 00 02 03 10 	slt $2,$16,$3
  401888:	05 00 00 00 fa ff 00 02 	beq $2,$0,401878 <MAIN__+0x1688>
  401890:	43 00 00 00 01 00 05 05 	addiu $5,$5,1
  401898:	5c 00 00 00 04 00 02 05 	slti $2,$5,4
  4018a0:	06 00 00 00 d4 ff 00 02 	bne $2,$0,4017f8 <MAIN__+0x1608>
  4018a8:	28 00 00 00 e8 07 02 1d 	lw $2,2024($29)
  4018b0:	43 00 00 00 01 00 13 13 	addiu $19,$19,1
  4018b8:	5b 00 00 00 00 02 13 02 	slt $2,$2,$19
  4018c0:	05 00 00 00 2a ff 00 02 	beq $2,$0,401570 <MAIN__+0x1380>
  4018c8:	a2 00 00 00 85 10 02 00 	lui $2,4229
  4018d0:	28 00 00 00 a8 3c 02 02 	lw $2,15528($2)
  4018d8:	07 00 00 00 72 fc 00 02 	blez $2,400aa8 <MAIN__+0x8b8>
  4018e0:	02 00 00 00 5a 06 10 00 	jal 401968 <eval_>
  4018e8:	01 00 00 00 aa 02 10 00 	j 400aa8 <MAIN__+0x8b8>
  4018f0:	43 00 00 00 70 80 04 1c 	addiu $4,$28,-32656
  4018f8:	42 00 00 00 00 05 00 00 	addu $5,$0,$0
  401900:	02 00 00 00 ec 88 10 00 	jal 4223b0 <s_stop>
  401908:	42 00 00 00 00 02 00 00 	addu $2,$0,$0
  401910:	28 00 00 00 18 08 1f 1d 	lw $31,2072($29)
  401918:	28 00 00 00 14 08 17 1d 	lw $23,2068($29)
  401920:	28 00 00 00 10 08 16 1d 	lw $22,2064($29)
  401928:	28 00 00 00 0c 08 15 1d 	lw $21,2060($29)
  401930:	28 00 00 00 08 08 14 1d 	lw $20,2056($29)
  401938:	28 00 00 00 04 08 13 1d 	lw $19,2052($29)
  401940:	28 00 00 00 00 08 12 1d 	lw $18,2048($29)
  401948:	28 00 00 00 fc 07 11 1d 	lw $17,2044($29)
  401950:	28 00 00 00 f8 07 10 1d 	lw $16,2040($29)
  401958:	43 00 00 00 20 08 1d 1d 	addiu $29,$29,2080
  401960:	03 00 00 00 00 00 00 1f 	jr $31

00401968 <eval_>:
  401968:	43 00 00 00 40 fe 1d 1d 	addiu $29,$29,-448
  401970:	43 00 00 00 04 80 04 1c 	addiu $4,$28,-32764
  401978:	43 00 00 00 18 00 05 1d 	addiu $5,$29,24
  401980:	43 00 00 00 20 00 06 1d 	addiu $6,$29,32
  401988:	43 00 00 00 24 00 07 1d 	addiu $7,$29,36
  401990:	34 00 00 00 84 01 13 1d 	sw $19,388($29)
  401998:	43 00 00 00 28 80 13 1c 	addiu $19,$28,-32728
  4019a0:	34 00 00 00 9c 01 1f 1d 	sw $31,412($29)
  4019a8:	34 00 00 00 98 01 1e 1d 	sw $30,408($29)
  4019b0:	34 00 00 00 94 01 17 1d 	sw $23,404($29)
  4019b8:	34 00 00 00 90 01 16 1d 	sw $22,400($29)
  4019c0:	34 00 00 00 8c 01 15 1d 	sw $21,396($29)
  4019c8:	34 00 00 00 88 01 14 1d 	sw $20,392($29)
  4019d0:	34 00 00 00 80 01 12 1d 	sw $18,384($29)
  4019d8:	34 00 00 00 7c 01 11 1d 	sw $17,380($29)
  4019e0:	34 00 00 00 78 01 10 1d 	sw $16,376($29)
  4019e8:	37 00 00 00 b8 01 1a 1d 	s.d $f26,440($29)
  4019f0:	37 00 00 00 b0 01 18 1d 	s.d $f24,432($29)
  4019f8:	37 00 00 00 a8 01 16 1d 	s.d $f22,424($29)
  401a00:	37 00 00 00 a0 01 14 1d 	s.d $f20,416($29)
  401a08:	34 00 00 00 10 00 13 1d 	sw $19,16($29)
  401a10:	02 00 00 00 7e 6d 10 00 	jal 41b5f8 <stat2_>
  401a18:	a2 00 00 00 85 10 16 00 	lui $22,4229
  401a20:	28 00 00 00 c0 3c 16 16 	lw $22,15552($22)
  401a28:	43 00 00 00 01 00 10 00 	addiu $16,$0,1
  401a30:	07 00 00 00 7c 00 00 16 	blez $22,401c28 <eval_+0x2c0>
  401a38:	43 00 00 00 03 00 11 00 	addiu $17,$0,3
  401a40:	43 00 00 00 28 00 12 1d 	addiu $18,$29,40
  401a48:	43 00 00 00 01 00 02 16 	addiu $2,$22,1
  401a50:	4f 00 00 00 01 00 03 16 	andi $3,$22,1
  401a58:	5b 00 00 00 00 02 02 10 	slt $2,$16,$2
  401a60:	05 00 00 00 02 00 00 02 	beq $2,$0,401a70 <eval_+0x108>
  401a68:	05 00 00 00 26 00 00 03 	beq $3,$0,401b08 <eval_+0x1a0>
  401a70:	42 00 00 00 00 04 12 00 	addu $4,$0,$18
  401a78:	43 00 00 00 30 00 05 1d 	addiu $5,$29,48
  401a80:	43 00 00 00 38 00 06 1d 	addiu $6,$29,56
  401a88:	43 00 00 00 3c 00 07 1d 	addiu $7,$29,60
  401a90:	43 00 00 00 02 00 02 00 	addiu $2,$0,2
  401a98:	34 00 00 00 28 00 02 1d 	sw $2,40($29)
  401aa0:	34 00 00 00 10 00 13 1d 	sw $19,16($29)
  401aa8:	02 00 00 00 7e 6d 10 00 	jal 41b5f8 <stat2_>
  401ab0:	42 00 00 00 00 04 12 00 	addu $4,$0,$18
  401ab8:	43 00 00 00 40 00 05 1d 	addiu $5,$29,64
  401ac0:	43 00 00 00 48 00 06 1d 	addiu $6,$29,72
  401ac8:	43 00 00 00 4c 00 07 1d 	addiu $7,$29,76
  401ad0:	34 00 00 00 28 00 11 1d 	sw $17,40($29)
  401ad8:	34 00 00 00 10 00 13 1d 	sw $19,16($29)
  401ae0:	02 00 00 00 7e 6d 10 00 	jal 41b5f8 <stat2_>
  401ae8:	43 00 00 00 05 00 11 00 	addiu $17,$0,5
  401af0:	43 00 00 00 02 00 10 00 	addiu $16,$0,2
  401af8:	5c 00 00 00 02 00 02 16 	slti $2,$22,2
  401b00:	06 00 00 00 48 00 00 02 	bne $2,$0,401c28 <eval_+0x2c0>
  401b08:	42 00 00 00 00 04 12 00 	addu $4,$0,$18
  401b10:	43 00 00 00 30 00 05 1d 	addiu $5,$29,48
  401b18:	43 00 00 00 38 00 06 1d 	addiu $6,$29,56
  401b20:	43 00 00 00 3c 00 07 1d 	addiu $7,$29,60
  401b28:	55 00 00 00 01 02 10 00 	sll $2,$16,0x1
  401b30:	34 00 00 00 28 00 02 1d 	sw $2,40($29)
  401b38:	34 00 00 00 10 00 13 1d 	sw $19,16($29)
  401b40:	02 00 00 00 7e 6d 10 00 	jal 41b5f8 <stat2_>
  401b48:	42 00 00 00 00 04 12 00 	addu $4,$0,$18
  401b50:	43 00 00 00 40 00 05 1d 	addiu $5,$29,64
  401b58:	43 00 00 00 48 00 06 1d 	addiu $6,$29,72
  401b60:	43 00 00 00 4c 00 07 1d 	addiu $7,$29,76
  401b68:	34 00 00 00 28 00 11 1d 	sw $17,40($29)
  401b70:	34 00 00 00 10 00 13 1d 	sw $19,16($29)
  401b78:	02 00 00 00 7e 6d 10 00 	jal 41b5f8 <stat2_>
  401b80:	42 00 00 00 00 04 12 00 	addu $4,$0,$18
  401b88:	43 00 00 00 30 00 05 1d 	addiu $5,$29,48
  401b90:	43 00 00 00 38 00 06 1d 	addiu $6,$29,56
  401b98:	43 00 00 00 3c 00 07 1d 	addiu $7,$29,60
  401ba0:	43 00 00 00 01 00 02 10 	addiu $2,$16,1
  401ba8:	55 00 00 00 01 02 02 00 	sll $2,$2,0x1
  401bb0:	34 00 00 00 28 00 02 1d 	sw $2,40($29)
  401bb8:	34 00 00 00 10 00 13 1d 	sw $19,16($29)
  401bc0:	02 00 00 00 7e 6d 10 00 	jal 41b5f8 <stat2_>
  401bc8:	42 00 00 00 00 04 12 00 	addu $4,$0,$18
  401bd0:	43 00 00 00 40 00 05 1d 	addiu $5,$29,64
  401bd8:	43 00 00 00 48 00 06 1d 	addiu $6,$29,72
  401be0:	43 00 00 00 4c 00 07 1d 	addiu $7,$29,76
  401be8:	43 00 00 00 02 00 02 11 	addiu $2,$17,2
  401bf0:	34 00 00 00 28 00 02 1d 	sw $2,40($29)
  401bf8:	34 00 00 00 10 00 13 1d 	sw $19,16($29)
  401c00:	02 00 00 00 7e 6d 10 00 	jal 41b5f8 <stat2_>
  401c08:	43 00 00 00 04 00 11 11 	addiu $17,$17,4
  401c10:	43 00 00 00 02 00 10 10 	addiu $16,$16,2
  401c18:	5b 00 00 00 00 02 10 16 	slt $2,$22,$16
  401c20:	05 00 00 00 b8 ff 00 02 	beq $2,$0,401b08 <eval_+0x1a0>
  401c28:	43 00 00 00 20 80 04 1c 	addiu $4,$28,-32736
  401c30:	43 00 00 00 50 00 05 1d 	addiu $5,$29,80
  401c38:	43 00 00 00 58 00 06 1d 	addiu $6,$29,88
  401c40:	43 00 00 00 5c 00 07 1d 	addiu $7,$29,92
  401c48:	43 00 00 00 28 80 10 1c 	addiu $16,$28,-32728
  401c50:	34 00 00 00 10 00 10 1d 	sw $16,16($29)
  401c58:	02 00 00 00 7e 6d 10 00 	jal 41b5f8 <stat2_>
  401c60:	43 00 00 00 2c 80 04 1c 	addiu $4,$28,-32724
  401c68:	43 00 00 00 60 00 05 1d 	addiu $5,$29,96
  401c70:	43 00 00 00 68 00 06 1d 	addiu $6,$29,104
  401c78:	43 00 00 00 6c 00 07 1d 	addiu $7,$29,108
  401c80:	34 00 00 00 10 00 10 1d 	sw $16,16($29)
  401c88:	02 00 00 00 7e 6d 10 00 	jal 41b5f8 <stat2_>
  401c90:	43 00 00 00 30 80 04 1c 	addiu $4,$28,-32720
  401c98:	43 00 00 00 70 00 05 1d 	addiu $5,$29,112
  401ca0:	43 00 00 00 78 00 06 1d 	addiu $6,$29,120
  401ca8:	43 00 00 00 7c 00 07 1d 	addiu $7,$29,124
  401cb0:	34 00 00 00 10 00 10 1d 	sw $16,16($29)
  401cb8:	02 00 00 00 7e 6d 10 00 	jal 41b5f8 <stat2_>
  401cc0:	43 00 00 00 34 80 04 1c 	addiu $4,$28,-32716
  401cc8:	43 00 00 00 80 00 05 1d 	addiu $5,$29,128
  401cd0:	43 00 00 00 88 00 06 1d 	addiu $6,$29,136
  401cd8:	43 00 00 00 8c 00 07 1d 	addiu $7,$29,140
  401ce0:	34 00 00 00 10 00 10 1d 	sw $16,16($29)
  401ce8:	02 00 00 00 7e 6d 10 00 	jal 41b5f8 <stat2_>
  401cf0:	43 00 00 00 38 80 04 1c 	addiu $4,$28,-32712
  401cf8:	43 00 00 00 90 00 05 1d 	addiu $5,$29,144
  401d00:	43 00 00 00 98 00 06 1d 	addiu $6,$29,152
  401d08:	43 00 00 00 9c 00 07 1d 	addiu $7,$29,156
  401d10:	34 00 00 00 10 00 10 1d 	sw $16,16($29)
  401d18:	02 00 00 00 7e 6d 10 00 	jal 41b5f8 <stat2_>
  401d20:	43 00 00 00 3c 80 04 1c 	addiu $4,$28,-32708
  401d28:	43 00 00 00 a0 00 05 1d 	addiu $5,$29,160
  401d30:	43 00 00 00 a8 00 06 1d 	addiu $6,$29,168
  401d38:	43 00 00 00 ac 00 07 1d 	addiu $7,$29,172
  401d40:	34 00 00 00 10 00 10 1d 	sw $16,16($29)
  401d48:	02 00 00 00 7e 6d 10 00 	jal 41b5f8 <stat2_>
  401d50:	43 00 00 00 40 80 04 1c 	addiu $4,$28,-32704
  401d58:	43 00 00 00 b0 00 05 1d 	addiu $5,$29,176
  401d60:	43 00 00 00 b8 00 06 1d 	addiu $6,$29,184
  401d68:	43 00 00 00 bc 00 07 1d 	addiu $7,$29,188
  401d70:	34 00 00 00 10 00 10 1d 	sw $16,16($29)
  401d78:	02 00 00 00 7e 6d 10 00 	jal 41b5f8 <stat2_>
  401d80:	43 00 00 00 44 80 04 1c 	addiu $4,$28,-32700
  401d88:	43 00 00 00 c0 00 05 1d 	addiu $5,$29,192
  401d90:	43 00 00 00 c8 00 06 1d 	addiu $6,$29,200
  401d98:	43 00 00 00 cc 00 07 1d 	addiu $7,$29,204
  401da0:	34 00 00 00 10 00 10 1d 	sw $16,16($29)
  401da8:	02 00 00 00 7e 6d 10 00 	jal 41b5f8 <stat2_>
  401db0:	a2 00 00 00 85 10 02 00 	lui $2,4229
  401db8:	28 00 00 00 c0 3c 02 02 	lw $2,15552($2)
  401dc0:	55 00 00 00 02 02 02 00 	sll $2,$2,0x2
  401dc8:	a2 00 00 00 85 10 01 00 	lui $1,4229
  401dd0:	42 00 00 00 00 01 02 01 	addu $1,$1,$2
  401dd8:	28 00 00 00 c0 3c 02 01 	lw $2,15552($1)
  401de0:	42 00 00 00 00 17 00 00 	addu $23,$0,$0
  401de8:	57 00 00 00 1f 03 02 00 	srl $3,$2,0x1f
  401df0:	42 00 00 00 00 02 03 02 	addu $2,$2,$3
  401df8:	59 00 00 00 01 02 02 00 	sra $2,$2,0x1
  401e00:	42 00 00 00 00 16 02 00 	addu $22,$0,$2
  401e08:	43 00 00 00 01 00 15 16 	addiu $21,$22,1
  401e10:	09 00 00 00 92 02 00 16 	bltz $22,402860 <eval_+0xef8>
  401e18:	42 00 00 00 00 14 10 00 	addu $20,$0,$16
  401e20:	43 00 00 00 e0 00 10 1d 	addiu $16,$29,224
  401e28:	2b 00 00 00 88 80 18 1c 	l.d $f24,-32632($28)
  401e30:	a2 00 00 00 85 10 12 00 	lui $18,4229
  401e38:	43 00 00 00 90 3c 12 12 	addiu $18,$18,15504
  401e40:	43 00 00 00 28 00 13 1d 	addiu $19,$29,40
  401e48:	55 00 00 00 02 08 15 00 	sll $8,$21,0x2
  401e50:	34 00 00 00 58 01 08 1d 	sw $8,344($29)
  401e58:	42 00 00 00 00 08 15 08 	addu $8,$8,$21
  401e60:	34 00 00 00 60 01 08 1d 	sw $8,352($29)
  401e68:	55 00 00 00 01 08 15 00 	sll $8,$21,0x1
  401e70:	42 00 00 00 00 1e 15 08 	addu $30,$8,$21
  401e78:	34 00 00 00 68 01 08 1d 	sw $8,360($29)
  401e80:	55 00 00 00 01 08 1e 00 	sll $8,$30,0x1
  401e88:	a5 00 00 00 00 00 00 1a 	mtc1 $0,$f26
  401e90:	43 00 00 00 12 00 11 00 	addiu $17,$0,18
  401e98:	34 00 00 00 70 01 08 1d 	sw $8,368($29)
  401ea0:	43 00 00 00 28 00 04 1d 	addiu $4,$29,40
  401ea8:	43 00 00 00 d0 00 05 1d 	addiu $5,$29,208
  401eb0:	43 00 00 00 d8 00 06 1d 	addiu $6,$29,216
  401eb8:	43 00 00 00 dc 00 07 1d 	addiu $7,$29,220
  401ec0:	43 00 00 00 02 00 02 17 	addiu $2,$23,2
  401ec8:	34 00 00 00 e0 00 02 1d 	sw $2,224($29)
  401ed0:	34 00 00 00 28 00 11 1d 	sw $17,40($29)
  401ed8:	34 00 00 00 10 00 14 1d 	sw $20,16($29)
  401ee0:	02 00 00 00 7e 6d 10 00 	jal 41b5f8 <stat2_>
  401ee8:	2b 00 00 00 50 00 00 1d 	l.d $f0,80($29)
  401ef0:	75 00 00 00 00 00 00 00 	mul.d $f0,$f0,$f0
  401ef8:	2b 00 00 00 d0 00 02 1d 	l.d $f2,208($29)
  401f00:	73 00 00 00 00 02 00 02 	sub.d $f2,$f2,$f0
  401f08:	a2 00 00 00 85 10 01 00 	lui $1,4229
  401f10:	2a 00 00 00 90 3c 00 01 	l.s $f0,15504($1)
  401f18:	83 00 00 00 00 00 00 00 	cvt.d.w $f0,$f0
  401f20:	77 00 00 00 00 02 00 02 	div.d $f2,$f2,$f0
  401f28:	43 00 00 00 04 80 04 1c 	addiu $4,$28,-32764
  401f30:	42 00 00 00 00 05 10 00 	addu $5,$0,$16
  401f38:	42 00 00 00 00 06 10 00 	addu $6,$0,$16
  401f40:	37 00 00 00 d0 00 02 1d 	s.d $f2,208($29)
  401f48:	02 00 00 00 94 75 10 00 	jal 41d650 <covar4_>
  401f50:	43 00 00 00 04 80 04 1c 	addiu $4,$28,-32764
  401f58:	42 00 00 00 00 05 04 00 	addu $5,$0,$4
  401f60:	42 00 00 00 00 06 04 00 	addu $6,$0,$4
  401f68:	7b 00 00 00 00 16 00 00 	mov.d $f22,$f0
  401f70:	02 00 00 00 94 75 10 00 	jal 41d650 <covar4_>
  401f78:	43 00 00 00 04 80 04 1c 	addiu $4,$28,-32764
  401f80:	42 00 00 00 00 05 04 00 	addu $5,$0,$4
  401f88:	42 00 00 00 00 06 10 00 	addu $6,$0,$16
  401f90:	7b 00 00 00 00 14 00 00 	mov.d $f20,$f0
  401f98:	02 00 00 00 94 75 10 00 	jal 41d650 <covar4_>
  401fa0:	2b 00 00 00 50 00 02 1d 	l.d $f2,80($29)
  401fa8:	75 00 00 00 00 14 14 02 	mul.d $f20,$f2,$f20
  401fb0:	75 00 00 00 00 02 18 02 	mul.d $f2,$f2,$f24
  401fb8:	73 00 00 00 00 14 00 14 	sub.d $f20,$f20,$f0
  401fc0:	75 00 00 00 00 02 14 02 	mul.d $f2,$f2,$f20
  401fc8:	71 00 00 00 00 16 02 16 	add.d $f22,$f22,$f2
  401fd0:	80 00 00 00 00 0c 00 16 	cvt.s.d $f12,$f22
  401fd8:	94 00 00 00 00 00 1a 0c 	c.le.s $f12,$f26
  401fe0:	36 00 00 00 d8 00 0c 1d 	s.s $f12,216($29)
  401fe8:	0b 00 00 00 06 00 00 00 	bc1f 402008 <eval_+0x6a0>
  401ff0:	a5 00 00 00 00 00 00 0c 	mtc1 $0,$f12
  401ff8:	a5 00 00 00 00 00 00 0d 	mtc1 $0,$f13
  402000:	01 00 00 00 04 08 10 00 	j 402010 <eval_+0x6a8>
  402008:	82 00 00 00 00 0c 00 0c 	cvt.d.s $f12,$f12
  402010:	97 00 00 00 00 00 00 0c 	sqrt.d $f0,$f12
  402018:	91 00 00 00 00 00 00 00 	c.eq.d $f0,$f0
  402020:	0c 00 00 00 02 00 00 00 	bc1t 402030 <eval_+0x6c8>
  402028:	02 00 00 00 80 9d 10 00 	jal 427600 <sqrt>
  402030:	2a 00 00 00 dc 00 02 1d 	l.s $f2,220($29)
  402038:	82 00 00 00 00 02 00 02 	cvt.d.s $f2,$f2
  402040:	75 00 00 00 00 02 02 00 	mul.d $f2,$f0,$f2
  402048:	2a 00 00 00 00 00 00 12 	l.s $f0,0($18)
  402050:	83 00 00 00 00 00 00 00 	cvt.d.w $f0,$f0
  402058:	77 00 00 00 00 02 00 02 	div.d $f2,$f2,$f0
  402060:	42 00 00 00 00 04 13 00 	addu $4,$0,$19
  402068:	43 00 00 00 e8 00 05 1d 	addiu $5,$29,232
  402070:	43 00 00 00 f0 00 06 1d 	addiu $6,$29,240
  402078:	43 00 00 00 f4 00 07 1d 	addiu $7,$29,244
  402080:	42 00 00 00 00 02 11 15 	addu $2,$21,$17
  402088:	34 00 00 00 28 00 02 1d 	sw $2,40($29)
  402090:	80 00 00 00 00 02 00 02 	cvt.s.d $f2,$f2
  402098:	36 00 00 00 d8 00 02 1d 	s.s $f2,216($29)
  4020a0:	34 00 00 00 10 00 14 1d 	sw $20,16($29)
  4020a8:	02 00 00 00 7e 6d 10 00 	jal 41b5f8 <stat2_>
  4020b0:	28 00 00 00 00 00 02 12 	lw $2,0($18)
  4020b8:	2b 00 00 00 e8 00 02 1d 	l.d $f2,232($29)
  4020c0:	a5 00 00 00 00 00 02 00 	mtc1 $2,$f0
  4020c8:	83 00 00 00 00 00 00 00 	cvt.d.w $f0,$f0
  4020d0:	77 00 00 00 00 02 00 02 	div.d $f2,$f2,$f0
  4020d8:	2a 00 00 00 f0 00 04 1d 	l.s $f4,240($29)
  4020e0:	a5 00 00 00 00 00 02 00 	mtc1 $2,$f0
  4020e8:	81 00 00 00 00 00 00 00 	cvt.s.w $f0,$f0
  4020f0:	76 00 00 00 00 04 00 04 	div.s $f4,$f4,$f0
  4020f8:	42 00 00 00 00 04 13 00 	addu $4,$0,$19
  402100:	43 00 00 00 f8 00 05 1d 	addiu $5,$29,248
  402108:	28 00 00 00 58 01 08 1d 	lw $8,344($29)
  402110:	43 00 00 00 00 01 06 1d 	addiu $6,$29,256
  402118:	43 00 00 00 04 01 07 1d 	addiu $7,$29,260
  402120:	42 00 00 00 00 02 11 08 	addu $2,$8,$17
  402128:	34 00 00 00 28 00 02 1d 	sw $2,40($29)
  402130:	37 00 00 00 e8 00 02 1d 	s.d $f2,232($29)
  402138:	36 00 00 00 f0 00 04 1d 	s.s $f4,240($29)
  402140:	34 00 00 00 10 00 14 1d 	sw $20,16($29)
  402148:	02 00 00 00 7e 6d 10 00 	jal 41b5f8 <stat2_>
  402150:	2b 00 00 00 90 00 00 1d 	l.d $f0,144($29)
  402158:	75 00 00 00 00 00 00 00 	mul.d $f0,$f0,$f0
  402160:	2b 00 00 00 f8 00 02 1d 	l.d $f2,248($29)
  402168:	73 00 00 00 00 02 00 02 	sub.d $f2,$f2,$f0
  402170:	2a 00 00 00 00 00 00 12 	l.s $f0,0($18)
  402178:	83 00 00 00 00 00 00 00 	cvt.d.w $f0,$f0
  402180:	77 00 00 00 00 02 00 02 	div.d $f2,$f2,$f0
  402188:	43 00 00 00 0c 80 04 1c 	addiu $4,$28,-32756
  402190:	42 00 00 00 00 05 10 00 	addu $5,$0,$16
  402198:	42 00 00 00 00 06 10 00 	addu $6,$0,$16
  4021a0:	37 00 00 00 f8 00 02 1d 	s.d $f2,248($29)
  4021a8:	02 00 00 00 94 75 10 00 	jal 41d650 <covar4_>
  4021b0:	43 00 00 00 0c 80 04 1c 	addiu $4,$28,-32756
  4021b8:	43 00 00 00 04 80 05 1c 	addiu $5,$28,-32764
  4021c0:	42 00 00 00 00 06 05 00 	addu $6,$0,$5
  4021c8:	7b 00 00 00 00 16 00 00 	mov.d $f22,$f0
  4021d0:	02 00 00 00 94 75 10 00 	jal 41d650 <covar4_>
  4021d8:	43 00 00 00 0c 80 04 1c 	addiu $4,$28,-32756
  4021e0:	43 00 00 00 04 80 05 1c 	addiu $5,$28,-32764
  4021e8:	42 00 00 00 00 06 10 00 	addu $6,$0,$16
  4021f0:	7b 00 00 00 00 14 00 00 	mov.d $f20,$f0
  4021f8:	02 00 00 00 94 75 10 00 	jal 41d650 <covar4_>
  402200:	2b 00 00 00 90 00 02 1d 	l.d $f2,144($29)
  402208:	75 00 00 00 00 14 14 02 	mul.d $f20,$f2,$f20
  402210:	75 00 00 00 00 02 18 02 	mul.d $f2,$f2,$f24
  402218:	73 00 00 00 00 14 00 14 	sub.d $f20,$f20,$f0
  402220:	75 00 00 00 00 02 14 02 	mul.d $f2,$f2,$f20
  402228:	71 00 00 00 00 16 02 16 	add.d $f22,$f22,$f2
  402230:	80 00 00 00 00 0c 00 16 	cvt.s.d $f12,$f22
  402238:	94 00 00 00 00 00 1a 0c 	c.le.s $f12,$f26
  402240:	36 00 00 00 00 01 0c 1d 	s.s $f12,256($29)
  402248:	0b 00 00 00 06 00 00 00 	bc1f 402268 <eval_+0x900>
  402250:	a5 00 00 00 00 00 00 0c 	mtc1 $0,$f12
  402258:	a5 00 00 00 00 00 00 0d 	mtc1 $0,$f13
  402260:	01 00 00 00 9c 08 10 00 	j 402270 <eval_+0x908>
  402268:	82 00 00 00 00 0c 00 0c 	cvt.d.s $f12,$f12
  402270:	97 00 00 00 00 00 00 0c 	sqrt.d $f0,$f12
  402278:	91 00 00 00 00 00 00 00 	c.eq.d $f0,$f0
  402280:	0c 00 00 00 02 00 00 00 	bc1t 402290 <eval_+0x928>
  402288:	02 00 00 00 80 9d 10 00 	jal 427600 <sqrt>
  402290:	2a 00 00 00 04 01 02 1d 	l.s $f2,260($29)
  402298:	82 00 00 00 00 02 00 02 	cvt.d.s $f2,$f2
  4022a0:	75 00 00 00 00 02 02 00 	mul.d $f2,$f0,$f2
  4022a8:	2a 00 00 00 00 00 00 12 	l.s $f0,0($18)
  4022b0:	83 00 00 00 00 00 00 00 	cvt.d.w $f0,$f0
  4022b8:	77 00 00 00 00 02 00 02 	div.d $f2,$f2,$f0
  4022c0:	42 00 00 00 00 04 13 00 	addu $4,$0,$19
  4022c8:	43 00 00 00 08 01 05 1d 	addiu $5,$29,264
  4022d0:	28 00 00 00 60 01 08 1d 	lw $8,352($29)
  4022d8:	43 00 00 00 10 01 06 1d 	addiu $6,$29,272
  4022e0:	43 00 00 00 14 01 07 1d 	addiu $7,$29,276
  4022e8:	42 00 00 00 00 02 11 08 	addu $2,$8,$17
  4022f0:	34 00 00 00 28 00 02 1d 	sw $2,40($29)
  4022f8:	80 00 00 00 00 02 00 02 	cvt.s.d $f2,$f2
  402300:	36 00 00 00 00 01 02 1d 	s.s $f2,256($29)
  402308:	34 00 00 00 10 00 14 1d 	sw $20,16($29)
  402310:	02 00 00 00 7e 6d 10 00 	jal 41b5f8 <stat2_>
  402318:	28 00 00 00 00 00 02 12 	lw $2,0($18)
  402320:	2b 00 00 00 08 01 02 1d 	l.d $f2,264($29)
  402328:	a5 00 00 00 00 00 02 00 	mtc1 $2,$f0
  402330:	83 00 00 00 00 00 00 00 	cvt.d.w $f0,$f0
  402338:	77 00 00 00 00 02 00 02 	div.d $f2,$f2,$f0
  402340:	2a 00 00 00 10 01 04 1d 	l.s $f4,272($29)
  402348:	a5 00 00 00 00 00 02 00 	mtc1 $2,$f0
  402350:	81 00 00 00 00 00 00 00 	cvt.s.w $f0,$f0
  402358:	76 00 00 00 00 04 00 04 	div.s $f4,$f4,$f0
  402360:	42 00 00 00 00 04 13 00 	addu $4,$0,$19
  402368:	43 00 00 00 18 01 05 1d 	addiu $5,$29,280
  402370:	28 00 00 00 68 01 08 1d 	lw $8,360($29)
  402378:	43 00 00 00 20 01 06 1d 	addiu $6,$29,288
  402380:	43 00 00 00 24 01 07 1d 	addiu $7,$29,292
  402388:	42 00 00 00 00 02 11 08 	addu $2,$8,$17
  402390:	34 00 00 00 28 00 02 1d 	sw $2,40($29)
  402398:	37 00 00 00 08 01 02 1d 	s.d $f2,264($29)
  4023a0:	36 00 00 00 10 01 04 1d 	s.s $f4,272($29)
  4023a8:	34 00 00 00 10 00 14 1d 	sw $20,16($29)
  4023b0:	02 00 00 00 7e 6d 10 00 	jal 41b5f8 <stat2_>
  4023b8:	2b 00 00 00 70 00 00 1d 	l.d $f0,112($29)
  4023c0:	75 00 00 00 00 00 00 00 	mul.d $f0,$f0,$f0
  4023c8:	2b 00 00 00 18 01 02 1d 	l.d $f2,280($29)
  4023d0:	73 00 00 00 00 02 00 02 	sub.d $f2,$f2,$f0
  4023d8:	2a 00 00 00 00 00 00 12 	l.s $f0,0($18)
  4023e0:	83 00 00 00 00 00 00 00 	cvt.d.w $f0,$f0
  4023e8:	77 00 00 00 00 02 00 02 	div.d $f2,$f2,$f0
  4023f0:	43 00 00 00 08 80 04 1c 	addiu $4,$28,-32760
  4023f8:	42 00 00 00 00 05 10 00 	addu $5,$0,$16
  402400:	42 00 00 00 00 06 10 00 	addu $6,$0,$16
  402408:	37 00 00 00 18 01 02 1d 	s.d $f2,280($29)
  402410:	02 00 00 00 94 75 10 00 	jal 41d650 <covar4_>
  402418:	43 00 00 00 08 80 04 1c 	addiu $4,$28,-32760
  402420:	43 00 00 00 04 80 05 1c 	addiu $5,$28,-32764
  402428:	42 00 00 00 00 06 05 00 	addu $6,$0,$5
  402430:	7b 00 00 00 00 16 00 00 	mov.d $f22,$f0
  402438:	02 00 00 00 94 75 10 00 	jal 41d650 <covar4_>
  402440:	43 00 00 00 08 80 04 1c 	addiu $4,$28,-32760
  402448:	43 00 00 00 04 80 05 1c 	addiu $5,$28,-32764
  402450:	42 00 00 00 00 06 10 00 	addu $6,$0,$16
  402458:	7b 00 00 00 00 14 00 00 	mov.d $f20,$f0
  402460:	02 00 00 00 94 75 10 00 	jal 41d650 <covar4_>
  402468:	2b 00 00 00 70 00 02 1d 	l.d $f2,112($29)
  402470:	75 00 00 00 00 14 14 02 	mul.d $f20,$f2,$f20
  402478:	75 00 00 00 00 02 18 02 	mul.d $f2,$f2,$f24
  402480:	73 00 00 00 00 14 00 14 	sub.d $f20,$f20,$f0
  402488:	75 00 00 00 00 02 14 02 	mul.d $f2,$f2,$f20
  402490:	71 00 00 00 00 16 02 16 	add.d $f22,$f22,$f2
  402498:	80 00 00 00 00 0c 00 16 	cvt.s.d $f12,$f22
  4024a0:	94 00 00 00 00 00 1a 0c 	c.le.s $f12,$f26
  4024a8:	36 00 00 00 20 01 0c 1d 	s.s $f12,288($29)
  4024b0:	0b 00 00 00 06 00 00 00 	bc1f 4024d0 <eval_+0xb68>
  4024b8:	a5 00 00 00 00 00 00 0c 	mtc1 $0,$f12
  4024c0:	a5 00 00 00 00 00 00 0d 	mtc1 $0,$f13
  4024c8:	01 00 00 00 36 09 10 00 	j 4024d8 <eval_+0xb70>
  4024d0:	82 00 00 00 00 0c 00 0c 	cvt.d.s $f12,$f12
  4024d8:	97 00 00 00 00 00 00 0c 	sqrt.d $f0,$f12
  4024e0:	91 00 00 00 00 00 00 00 	c.eq.d $f0,$f0
  4024e8:	0c 00 00 00 02 00 00 00 	bc1t 4024f8 <eval_+0xb90>
  4024f0:	02 00 00 00 80 9d 10 00 	jal 427600 <sqrt>
  4024f8:	2a 00 00 00 24 01 02 1d 	l.s $f2,292($29)
  402500:	82 00 00 00 00 02 00 02 	cvt.d.s $f2,$f2
  402508:	75 00 00 00 00 02 02 00 	mul.d $f2,$f0,$f2
  402510:	2a 00 00 00 00 00 00 12 	l.s $f0,0($18)
  402518:	83 00 00 00 00 00 00 00 	cvt.d.w $f0,$f0
  402520:	77 00 00 00 00 02 00 02 	div.d $f2,$f2,$f0
  402528:	42 00 00 00 00 04 13 00 	addu $4,$0,$19
  402530:	43 00 00 00 28 01 05 1d 	addiu $5,$29,296
  402538:	43 00 00 00 30 01 06 1d 	addiu $6,$29,304
  402540:	43 00 00 00 34 01 07 1d 	addiu $7,$29,308
  402548:	42 00 00 00 00 02 11 1e 	addu $2,$30,$17
  402550:	34 00 00 00 28 00 02 1d 	sw $2,40($29)
  402558:	80 00 00 00 00 02 00 02 	cvt.s.d $f2,$f2
  402560:	36 00 00 00 20 01 02 1d 	s.s $f2,288($29)
  402568:	34 00 00 00 10 00 14 1d 	sw $20,16($29)
  402570:	02 00 00 00 7e 6d 10 00 	jal 41b5f8 <stat2_>
  402578:	28 00 00 00 00 00 02 12 	lw $2,0($18)
  402580:	2b 00 00 00 28 01 02 1d 	l.d $f2,296($29)
  402588:	a5 00 00 00 00 00 02 00 	mtc1 $2,$f0
  402590:	83 00 00 00 00 00 00 00 	cvt.d.w $f0,$f0
  402598:	77 00 00 00 00 02 00 02 	div.d $f2,$f2,$f0
  4025a0:	2a 00 00 00 30 01 04 1d 	l.s $f4,304($29)
  4025a8:	a5 00 00 00 00 00 02 00 	mtc1 $2,$f0
  4025b0:	81 00 00 00 00 00 00 00 	cvt.s.w $f0,$f0
  4025b8:	76 00 00 00 00 04 00 04 	div.s $f4,$f4,$f0
  4025c0:	42 00 00 00 00 04 13 00 	addu $4,$0,$19
  4025c8:	43 00 00 00 38 01 05 1d 	addiu $5,$29,312
  4025d0:	28 00 00 00 70 01 08 1d 	lw $8,368($29)
  4025d8:	43 00 00 00 40 01 06 1d 	addiu $6,$29,320
  4025e0:	43 00 00 00 44 01 07 1d 	addiu $7,$29,324
  4025e8:	42 00 00 00 00 02 11 08 	addu $2,$8,$17
  4025f0:	34 00 00 00 28 00 02 1d 	sw $2,40($29)
  4025f8:	37 00 00 00 28 01 02 1d 	s.d $f2,296($29)
  402600:	36 00 00 00 30 01 04 1d 	s.s $f4,304($29)
  402608:	34 00 00 00 10 00 14 1d 	sw $20,16($29)
  402610:	02 00 00 00 7e 6d 10 00 	jal 41b5f8 <stat2_>
  402618:	2b 00 00 00 b0 00 00 1d 	l.d $f0,176($29)
  402620:	75 00 00 00 00 00 00 00 	mul.d $f0,$f0,$f0
  402628:	2b 00 00 00 38 01 02 1d 	l.d $f2,312($29)
  402630:	73 00 00 00 00 02 00 02 	sub.d $f2,$f2,$f0
  402638:	2a 00 00 00 00 00 00 12 	l.s $f0,0($18)
  402640:	83 00 00 00 00 00 00 00 	cvt.d.w $f0,$f0
  402648:	77 00 00 00 00 02 00 02 	div.d $f2,$f2,$f0
  402650:	43 00 00 00 48 80 04 1c 	addiu $4,$28,-32696
  402658:	42 00 00 00 00 05 10 00 	addu $5,$0,$16
  402660:	42 00 00 00 00 06 10 00 	addu $6,$0,$16
  402668:	37 00 00 00 38 01 02 1d 	s.d $f2,312($29)
  402670:	02 00 00 00 94 75 10 00 	jal 41d650 <covar4_>
  402678:	43 00 00 00 48 80 04 1c 	addiu $4,$28,-32696
  402680:	43 00 00 00 04 80 05 1c 	addiu $5,$28,-32764
  402688:	42 00 00 00 00 06 05 00 	addu $6,$0,$5
  402690:	7b 00 00 00 00 16 00 00 	mov.d $f22,$f0
  402698:	02 00 00 00 94 75 10 00 	jal 41d650 <covar4_>
  4026a0:	43 00 00 00 48 80 04 1c 	addiu $4,$28,-32696
  4026a8:	43 00 00 00 04 80 05 1c 	addiu $5,$28,-32764
  4026b0:	42 00 00 00 00 06 10 00 	addu $6,$0,$16
  4026b8:	7b 00 00 00 00 14 00 00 	mov.d $f20,$f0
  4026c0:	02 00 00 00 94 75 10 00 	jal 41d650 <covar4_>
  4026c8:	2b 00 00 00 b0 00 02 1d 	l.d $f2,176($29)
  4026d0:	75 00 00 00 00 14 14 02 	mul.d $f20,$f2,$f20
  4026d8:	75 00 00 00 00 02 18 02 	mul.d $f2,$f2,$f24
  4026e0:	73 00 00 00 00 14 00 14 	sub.d $f20,$f20,$f0
  4026e8:	75 00 00 00 00 02 14 02 	mul.d $f2,$f2,$f20
  4026f0:	71 00 00 00 00 16 02 16 	add.d $f22,$f22,$f2
  4026f8:	80 00 00 00 00 0c 00 16 	cvt.s.d $f12,$f22
  402700:	94 00 00 00 00 00 1a 0c 	c.le.s $f12,$f26
  402708:	36 00 00 00 40 01 0c 1d 	s.s $f12,320($29)
  402710:	0b 00 00 00 06 00 00 00 	bc1f 402730 <eval_+0xdc8>
  402718:	a5 00 00 00 00 00 00 0c 	mtc1 $0,$f12
  402720:	a5 00 00 00 00 00 00 0d 	mtc1 $0,$f13
  402728:	01 00 00 00 ce 09 10 00 	j 402738 <eval_+0xdd0>
  402730:	82 00 00 00 00 0c 00 0c 	cvt.d.s $f12,$f12
  402738:	97 00 00 00 00 00 00 0c 	sqrt.d $f0,$f12
  402740:	91 00 00 00 00 00 00 00 	c.eq.d $f0,$f0
  402748:	0c 00 00 00 02 00 00 00 	bc1t 402758 <eval_+0xdf0>
  402750:	02 00 00 00 80 9d 10 00 	jal 427600 <sqrt>
  402758:	2a 00 00 00 44 01 02 1d 	l.s $f2,324($29)
  402760:	82 00 00 00 00 02 00 02 	cvt.d.s $f2,$f2
  402768:	75 00 00 00 00 02 02 00 	mul.d $f2,$f0,$f2
  402770:	2a 00 00 00 00 00 00 12 	l.s $f0,0($18)
  402778:	83 00 00 00 00 00 00 00 	cvt.d.w $f0,$f0
  402780:	77 00 00 00 00 02 00 02 	div.d $f2,$f2,$f0
  402788:	43 00 00 00 28 00 04 1d 	addiu $4,$29,40
  402790:	43 00 00 00 48 01 05 1d 	addiu $5,$29,328
  402798:	43 00 00 00 50 01 06 1d 	addiu $6,$29,336
  4027a0:	43 00 00 00 54 01 07 1d 	addiu $7,$29,340
  4027a8:	55 00 00 00 03 02 15 00 	sll $2,$21,0x3
  4027b0:	45 00 00 00 00 02 15 02 	subu $2,$2,$21
  4027b8:	42 00 00 00 00 02 11 02 	addu $2,$2,$17
  4027c0:	34 00 00 00 28 00 02 1d 	sw $2,40($29)
  4027c8:	80 00 00 00 00 02 00 02 	cvt.s.d $f2,$f2
  4027d0:	36 00 00 00 40 01 02 1d 	s.s $f2,320($29)
  4027d8:	34 00 00 00 10 00 14 1d 	sw $20,16($29)
  4027e0:	02 00 00 00 7e 6d 10 00 	jal 41b5f8 <stat2_>
  4027e8:	28 00 00 00 00 00 02 12 	lw $2,0($18)
  4027f0:	2b 00 00 00 48 01 02 1d 	l.d $f2,328($29)
  4027f8:	a5 00 00 00 00 00 02 00 	mtc1 $2,$f0
  402800:	83 00 00 00 00 00 00 00 	cvt.d.w $f0,$f0
  402808:	77 00 00 00 00 02 00 02 	div.d $f2,$f2,$f0
  402810:	2a 00 00 00 50 01 04 1d 	l.s $f4,336($29)
  402818:	a5 00 00 00 00 00 02 00 	mtc1 $2,$f0
  402820:	81 00 00 00 00 00 00 00 	cvt.s.w $f0,$f0
  402828:	76 00 00 00 00 04 00 04 	div.s $f4,$f4,$f0
  402830:	43 00 00 00 01 00 11 11 	addiu $17,$17,1
  402838:	43 00 00 00 01 00 17 17 	addiu $23,$23,1
  402840:	5b 00 00 00 00 02 17 16 	slt $2,$22,$23
  402848:	37 00 00 00 48 01 02 1d 	s.d $f2,328($29)
  402850:	36 00 00 00 50 01 04 1d 	s.s $f4,336($29)
  402858:	05 00 00 00 90 fd 00 02 	beq $2,$0,401ea0 <eval_+0x538>
  402860:	42 00 00 00 00 02 00 00 	addu $2,$0,$0
  402868:	28 00 00 00 9c 01 1f 1d 	lw $31,412($29)
  402870:	28 00 00 00 98 01 1e 1d 	lw $30,408($29)
  402878:	28 00 00 00 94 01 17 1d 	lw $23,404($29)
  402880:	28 00 00 00 90 01 16 1d 	lw $22,400($29)
  402888:	28 00 00 00 8c 01 15 1d 	lw $21,396($29)
  402890:	28 00 00 00 88 01 14 1d 	lw $20,392($29)
  402898:	28 00 00 00 84 01 13 1d 	lw $19,388($29)
  4028a0:	28 00 00 00 80 01 12 1d 	lw $18,384($29)
  4028a8:	28 00 00 00 7c 01 11 1d 	lw $17,380($29)
  4028b0:	28 00 00 00 78 01 10 1d 	lw $16,376($29)
  4028b8:	2b 00 00 00 b8 01 1a 1d 	l.d $f26,440($29)
  4028c0:	2b 00 00 00 b0 01 18 1d 	l.d $f24,432($29)
  4028c8:	2b 00 00 00 a8 01 16 1d 	l.d $f22,424($29)
  4028d0:	2b 00 00 00 a0 01 14 1d 	l.d $f20,416($29)
  4028d8:	43 00 00 00 c0 01 1d 1d 	addiu $29,$29,448
  4028e0:	03 00 00 00 00 00 00 1f 	jr $31

004028e8 <sweep_>:
  4028e8:	a2 00 00 00 0a 00 08 00 	lui $8,10
  4028f0:	51 00 00 00 b8 45 08 08 	ori $8,$8,17848
  4028f8:	45 00 00 00 00 1d 08 1d 	subu $29,$29,$8
  402900:	42 00 00 00 00 09 1d 08 	addu $9,$8,$29
  402908:	34 00 00 00 d4 ff 1f 09 	sw $31,-44($9)
  402910:	34 00 00 00 d0 ff 1e 09 	sw $30,-48($9)
  402918:	34 00 00 00 cc ff 17 09 	sw $23,-52($9)
  402920:	34 00 00 00 c8 ff 16 09 	sw $22,-56($9)
  402928:	34 00 00 00 c4 ff 15 09 	sw $21,-60($9)
  402930:	34 00 00 00 c0 ff 14 09 	sw $20,-64($9)
  402938:	34 00 00 00 bc ff 13 09 	sw $19,-68($9)
  402940:	34 00 00 00 b8 ff 12 09 	sw $18,-72($9)
  402948:	34 00 00 00 b4 ff 11 09 	sw $17,-76($9)
  402950:	34 00 00 00 b0 ff 10 09 	sw $16,-80($9)
  402958:	37 00 00 00 f8 ff 1c 09 	s.d $f28,-8($9)
  402960:	37 00 00 00 f0 ff 1a 09 	s.d $f26,-16($9)
  402968:	37 00 00 00 e8 ff 18 09 	s.d $f24,-24($9)
  402970:	37 00 00 00 e0 ff 16 09 	s.d $f22,-32($9)
  402978:	37 00 00 00 d8 ff 14 09 	s.d $f20,-40($9)
  402980:	a2 00 00 00 85 10 01 00 	lui $1,4229
  402988:	2a 00 00 00 a0 3c 00 01 	l.s $f0,15520($1)
  402990:	2b 00 00 00 90 80 02 1c 	l.d $f2,-32624($28)
  402998:	82 00 00 00 00 00 00 00 	cvt.d.s $f0,$f0
  4029a0:	77 00 00 00 00 18 00 02 	div.d $f24,$f2,$f0
  4029a8:	a5 00 00 00 00 00 00 16 	mtc1 $0,$f22
  4029b0:	a5 00 00 00 00 00 00 17 	mtc1 $0,$f23
  4029b8:	a2 00 00 00 0a 00 18 00 	lui $24,10
  4029c0:	51 00 00 00 c8 44 18 18 	ori $24,$24,17608
  4029c8:	42 00 00 00 00 18 1d 18 	addu $24,$24,$29
  4029d0:	43 00 00 00 4c 80 04 1c 	addiu $4,$28,-32692
  4029d8:	a2 00 00 00 85 10 05 00 	lui $5,4229
  4029e0:	43 00 00 00 c0 3c 05 05 	addiu $5,$5,15552
  4029e8:	34 00 00 00 00 00 00 18 	sw $0,0($24)
  4029f0:	a2 00 00 00 85 10 01 00 	lui $1,4229
  4029f8:	37 00 00 00 28 3f 16 01 	s.d $f22,16168($1)
  402a00:	02 00 00 00 90 9e 10 00 	jal 427a40 <pow_ii>
  402a08:	a2 00 00 00 0a 00 04 00 	lui $4,10
  402a10:	51 00 00 00 80 44 04 04 	ori $4,$4,17536
  402a18:	43 00 00 00 18 00 06 1d 	addiu $6,$29,24
  402a20:	42 00 00 00 00 04 04 06 	addu $4,$6,$4
  402a28:	43 00 00 00 01 00 03 00 	addiu $3,$0,1
  402a30:	a2 00 00 00 0a 00 19 00 	lui $25,10
  402a38:	51 00 00 00 b0 44 19 19 	ori $25,$25,17584
  402a40:	42 00 00 00 00 19 1d 19 	addu $25,$25,$29
  402a48:	34 00 00 00 00 00 03 04 	sw $3,0($4)
  402a50:	34 00 00 00 00 00 02 19 	sw $2,0($25)
  402a58:	a2 00 00 00 0a 00 18 00 	lui $24,10
  402a60:	51 00 00 00 b0 44 18 18 	ori $24,$24,17584
  402a68:	42 00 00 00 00 18 1d 18 	addu $24,$24,$29
  402a70:	28 00 00 00 00 00 18 18 	lw $24,0($24)
  402a78:	42 00 00 00 00 05 06 00 	addu $5,$0,$6
  402a80:	07 00 00 00 9a 0b 00 18 	blez $24,4058f0 <sweep_+0x3008>
  402a88:	42 00 00 00 00 0d 05 00 	addu $13,$0,$5
  402a90:	a2 00 00 00 01 00 18 00 	lui $24,1
  402a98:	a2 00 00 00 0a 00 19 00 	lui $25,10
  402aa0:	51 00 00 00 d0 44 19 19 	ori $25,$25,17616
  402aa8:	42 00 00 00 00 19 1d 19 	addu $25,$25,$29
  402ab0:	34 00 00 00 00 00 18 19 	sw $24,0($25)
  402ab8:	a2 00 00 00 0a 00 19 00 	lui $25,10
  402ac0:	51 00 00 00 d0 44 19 19 	ori $25,$25,17616
  402ac8:	42 00 00 00 00 19 1d 19 	addu $25,$25,$29
  402ad0:	28 00 00 00 00 00 18 19 	lw $24,0($25)
  402ad8:	a2 00 00 00 09 00 02 00 	lui $2,9
  402ae0:	51 00 00 00 24 84 02 02 	ori $2,$2,33828
  402ae8:	42 00 00 00 00 02 02 0d 	addu $2,$13,$2
  402af0:	2b 00 00 00 a0 80 1c 1c 	l.d $f28,-32608($28)
  402af8:	51 00 00 00 68 00 18 18 	ori $24,$24,104
  402b00:	a2 00 00 00 0a 00 19 00 	lui $25,10
  402b08:	51 00 00 00 d0 44 19 19 	ori $25,$25,17616
  402b10:	42 00 00 00 00 19 1d 19 	addu $25,$25,$29
  402b18:	34 00 00 00 00 00 18 19 	sw $24,0($25)
  402b20:	a2 00 00 00 0a 00 19 00 	lui $25,10
  402b28:	51 00 00 00 d8 44 19 19 	ori $25,$25,17624
  402b30:	42 00 00 00 00 19 1d 19 	addu $25,$25,$29
  402b38:	34 00 00 00 00 00 02 19 	sw $2,0($25)
  402b40:	a2 00 00 00 09 00 02 00 	lui $2,9
  402b48:	51 00 00 00 40 c4 02 02 	ori $2,$2,50240
  402b50:	42 00 00 00 00 02 02 0d 	addu $2,$13,$2
  402b58:	a2 00 00 00 0a 00 18 00 	lui $24,10
  402b60:	51 00 00 00 e0 44 18 18 	ori $24,$24,17632
  402b68:	42 00 00 00 00 18 1d 18 	addu $24,$24,$29
  402b70:	34 00 00 00 00 00 02 18 	sw $2,0($24)
  402b78:	a2 00 00 00 09 00 18 00 	lui $24,9
  402b80:	a2 00 00 00 0a 00 19 00 	lui $25,10
  402b88:	51 00 00 00 e8 44 19 19 	ori $25,$25,17640
  402b90:	42 00 00 00 00 19 1d 19 	addu $25,$25,$29
  402b98:	34 00 00 00 00 00 18 19 	sw $24,0($25)
  402ba0:	a2 00 00 00 0a 00 19 00 	lui $25,10
  402ba8:	51 00 00 00 e8 44 19 19 	ori $25,$25,17640
  402bb0:	42 00 00 00 00 19 1d 19 	addu $25,$25,$29
  402bb8:	28 00 00 00 00 00 18 19 	lw $24,0($25)
  402bc0:	a2 00 00 00 02 00 02 00 	lui $2,2
  402bc8:	51 00 00 00 d8 00 02 02 	ori $2,$2,216
  402bd0:	42 00 00 00 00 02 02 0d 	addu $2,$13,$2
  402bd8:	51 00 00 00 e8 03 18 18 	ori $24,$24,1000
  402be0:	a2 00 00 00 0a 00 19 00 	lui $25,10
  402be8:	51 00 00 00 e8 44 19 19 	ori $25,$25,17640
  402bf0:	42 00 00 00 00 19 1d 19 	addu $25,$25,$29
  402bf8:	34 00 00 00 00 00 18 19 	sw $24,0($25)
  402c00:	a2 00 00 00 0a 00 19 00 	lui $25,10
  402c08:	51 00 00 00 f0 44 19 19 	ori $25,$25,17648
  402c10:	42 00 00 00 00 19 1d 19 	addu $25,$25,$29
  402c18:	34 00 00 00 00 00 02 19 	sw $2,0($25)
  402c20:	a2 00 00 00 04 00 02 00 	lui $2,4
  402c28:	51 00 00 00 b8 01 02 02 	ori $2,$2,440
  402c30:	42 00 00 00 00 02 02 0d 	addu $2,$13,$2
  402c38:	a2 00 00 00 0a 00 18 00 	lui $24,10
  402c40:	51 00 00 00 20 45 18 18 	ori $24,$24,17696
  402c48:	42 00 00 00 00 18 1d 18 	addu $24,$24,$29
  402c50:	34 00 00 00 00 00 02 18 	sw $2,0($24)
  402c58:	a2 00 00 00 02 00 02 00 	lui $2,2
  402c60:	51 00 00 00 10 81 02 02 	ori $2,$2,33040
  402c68:	42 00 00 00 00 02 02 0d 	addu $2,$13,$2
  402c70:	a2 00 00 00 0a 00 19 00 	lui $25,10
  402c78:	51 00 00 00 30 45 19 19 	ori $25,$25,17712
  402c80:	42 00 00 00 00 19 1d 19 	addu $25,$25,$29
  402c88:	34 00 00 00 00 00 02 19 	sw $2,0($25)
  402c90:	a2 00 00 00 0a 00 03 00 	lui $3,10
  402c98:	51 00 00 00 84 44 03 03 	ori $3,$3,17540
  402ca0:	a2 00 00 00 85 10 19 00 	lui $25,4229
  402ca8:	28 00 00 00 c0 3c 19 19 	lw $25,15552($25)
  402cb0:	a2 00 00 00 0a 00 18 00 	lui $24,10
  402cb8:	51 00 00 00 b8 44 18 18 	ori $24,$24,17592
  402cc0:	42 00 00 00 00 18 1d 18 	addu $24,$24,$29
  402cc8:	42 00 00 00 00 03 03 06 	addu $3,$6,$3
  402cd0:	43 00 00 00 01 00 02 00 	addiu $2,$0,1
  402cd8:	34 00 00 00 00 00 19 18 	sw $25,0($24)
  402ce0:	a2 00 00 00 0a 00 18 00 	lui $24,10
  402ce8:	51 00 00 00 b8 44 18 18 	ori $24,$24,17592
  402cf0:	42 00 00 00 00 18 1d 18 	addu $24,$24,$29
  402cf8:	34 00 00 00 00 00 02 03 	sw $2,0($3)
  402d00:	28 00 00 00 00 00 18 18 	lw $24,0($24)
  402d08:	07 00 00 00 d6 0a 00 18 	blez $24,405868 <sweep_+0x2f80>
  402d10:	a2 00 00 00 03 00 18 00 	lui $24,3
  402d18:	a2 00 00 00 0a 00 19 00 	lui $25,10
  402d20:	51 00 00 00 f8 44 19 19 	ori $25,$25,17656
  402d28:	42 00 00 00 00 19 1d 19 	addu $25,$25,$29
  402d30:	34 00 00 00 00 00 18 19 	sw $24,0($25)
  402d38:	a2 00 00 00 0a 00 19 00 	lui $25,10
  402d40:	51 00 00 00 f8 44 19 19 	ori $25,$25,17656
  402d48:	42 00 00 00 00 19 1d 19 	addu $25,$25,$29
  402d50:	28 00 00 00 00 00 18 19 	lw $24,0($25)
  402d58:	2b 00 00 00 98 80 1a 1c 	l.d $f26,-32616($28)
  402d60:	a2 00 00 00 08 00 02 00 	lui $2,8
  402d68:	51 00 00 00 50 01 18 18 	ori $24,$24,336
  402d70:	a2 00 00 00 0a 00 19 00 	lui $25,10
  402d78:	51 00 00 00 f8 44 19 19 	ori $25,$25,17656
  402d80:	42 00 00 00 00 19 1d 19 	addu $25,$25,$29
  402d88:	34 00 00 00 00 00 18 19 	sw $24,0($25)
  402d90:	a2 00 00 00 03 00 18 00 	lui $24,3
  402d98:	a2 00 00 00 0a 00 19 00 	lui $25,10
  402da0:	51 00 00 00 00 45 19 19 	ori $25,$25,17664
  402da8:	42 00 00 00 00 19 1d 19 	addu $25,$25,$29
  402db0:	34 00 00 00 00 00 18 19 	sw $24,0($25)
  402db8:	a2 00 00 00 0a 00 19 00 	lui $25,10
  402dc0:	51 00 00 00 00 45 19 19 	ori $25,$25,17664
  402dc8:	42 00 00 00 00 19 1d 19 	addu $25,$25,$29
  402dd0:	28 00 00 00 00 00 18 19 	lw $24,0($25)
  402dd8:	51 00 00 00 b0 83 02 02 	ori $2,$2,33712
  402de0:	42 00 00 00 00 02 02 0d 	addu $2,$13,$2
  402de8:	51 00 00 00 88 81 18 18 	ori $24,$24,33160
  402df0:	a2 00 00 00 0a 00 19 00 	lui $25,10
  402df8:	51 00 00 00 00 45 19 19 	ori $25,$25,17664
  402e00:	42 00 00 00 00 19 1d 19 	addu $25,$25,$29
  402e08:	34 00 00 00 00 00 18 19 	sw $24,0($25)
  402e10:	a2 00 00 00 0a 00 19 00 	lui $25,10
  402e18:	51 00 00 00 10 45 19 19 	ori $25,$25,17680
  402e20:	42 00 00 00 00 19 1d 19 	addu $25,$25,$29
  402e28:	34 00 00 00 00 00 02 19 	sw $2,0($25)
  402e30:	a2 00 00 00 03 00 02 00 	lui $2,3
  402e38:	51 00 00 00 80 81 02 02 	ori $2,$2,33152
  402e40:	42 00 00 00 00 02 02 0d 	addu $2,$13,$2
  402e48:	a2 00 00 00 0a 00 18 00 	lui $24,10
  402e50:	51 00 00 00 18 45 18 18 	ori $24,$24,17688
  402e58:	42 00 00 00 00 18 1d 18 	addu $24,$24,$29
  402e60:	34 00 00 00 00 00 02 18 	sw $2,0($24)
  402e68:	a2 00 00 00 85 10 0e 00 	lui $14,4229
  402e70:	28 00 00 00 d4 3c 0e 0e 	lw $14,15572($14)
  402e78:	43 00 00 00 01 00 13 00 	addiu $19,$0,1
  402e80:	07 00 00 00 04 01 00 0e 	blez $14,403298 <sweep_+0x9b0>
  402e88:	a2 00 00 00 01 00 07 00 	lui $7,1
  402e90:	51 00 00 00 a0 80 07 07 	ori $7,$7,32928
  402e98:	a2 00 00 00 0a 00 19 00 	lui $25,10
  402ea0:	51 00 00 00 d8 44 19 19 	ori $25,$25,17624
  402ea8:	42 00 00 00 00 19 1d 19 	addu $25,$25,$29
  402eb0:	28 00 00 00 00 00 19 19 	lw $25,0($25)
  402eb8:	43 00 00 00 08 00 05 0d 	addiu $5,$13,8
  402ec0:	43 00 00 00 01 00 02 0e 	addiu $2,$14,1
  402ec8:	4f 00 00 00 03 00 03 0e 	andi $3,$14,3
  402ed0:	5b 00 00 00 00 02 02 13 	slt $2,$19,$2
  402ed8:	43 00 00 00 04 00 06 19 	addiu $6,$25,4
  402ee0:	05 00 00 00 52 00 00 02 	beq $2,$0,403030 <sweep_+0x748>
  402ee8:	05 00 00 00 74 00 00 03 	beq $3,$0,4030c0 <sweep_+0x7d8>
  402ef0:	5c 00 00 00 02 00 02 03 	slti $2,$3,2
  402ef8:	06 00 00 00 4c 00 00 02 	bne $2,$0,403030 <sweep_+0x748>
  402f00:	5c 00 00 00 03 00 02 03 	slti $2,$3,3
  402f08:	06 00 00 00 28 00 00 02 	bne $2,$0,402fb0 <sweep_+0x6c8>
  402f10:	43 00 00 00 04 00 06 06 	addiu $6,$6,4
  402f18:	51 00 00 00 30 80 18 00 	ori $24,$0,32816
  402f20:	42 00 00 00 00 02 18 05 	addu $2,$5,$24
  402f28:	a2 00 00 00 0a 00 19 00 	lui $25,10
  402f30:	51 00 00 00 d0 44 19 19 	ori $25,$25,17616
  402f38:	42 00 00 00 00 19 1d 19 	addu $25,$25,$29
  402f40:	28 00 00 00 00 00 19 19 	lw $25,0($25)
  402f48:	42 00 00 00 00 04 07 05 	addu $4,$5,$7
  402f50:	a2 00 00 00 0a 00 18 00 	lui $24,10
  402f58:	51 00 00 00 d8 44 18 18 	ori $24,$24,17624
  402f60:	42 00 00 00 00 18 1d 18 	addu $24,$24,$29
  402f68:	42 00 00 00 00 03 19 05 	addu $3,$5,$25
  402f70:	38 00 00 00 00 00 00 0d 	dsz 0($13)
  402f78:	38 00 00 00 00 00 00 02 	dsz 0($2)
  402f80:	38 00 00 00 00 00 00 03 	dsz 0($3)
  402f88:	38 00 00 00 00 00 00 04 	dsz 0($4)
  402f90:	28 00 00 00 00 00 19 18 	lw $25,0($24)
  402f98:	43 00 00 00 02 00 13 00 	addiu $19,$0,2
  402fa0:	43 00 00 00 08 00 05 05 	addiu $5,$5,8
  402fa8:	34 00 00 00 04 00 00 19 	sw $0,4($25)
  402fb0:	51 00 00 00 30 80 18 00 	ori $24,$0,32816
  402fb8:	42 00 00 00 00 02 18 05 	addu $2,$5,$24
  402fc0:	a2 00 00 00 0a 00 19 00 	lui $25,10
  402fc8:	51 00 00 00 d0 44 19 19 	ori $25,$25,17616
  402fd0:	42 00 00 00 00 19 1d 19 	addu $25,$25,$29
  402fd8:	38 00 00 00 f8 ff 00 05 	dsz -8($5)
  402fe0:	38 00 00 00 00 00 00 02 	dsz 0($2)
  402fe8:	28 00 00 00 00 00 19 19 	lw $25,0($25)
  402ff0:	43 00 00 00 01 00 13 13 	addiu $19,$19,1
  402ff8:	42 00 00 00 00 02 19 05 	addu $2,$5,$25
  403000:	38 00 00 00 00 00 00 02 	dsz 0($2)
  403008:	42 00 00 00 00 02 07 05 	addu $2,$5,$7
  403010:	38 00 00 00 00 00 00 02 	dsz 0($2)
  403018:	34 00 00 00 00 00 00 06 	sw $0,0($6)
  403020:	43 00 00 00 04 00 06 06 	addiu $6,$6,4
  403028:	43 00 00 00 08 00 05 05 	addiu $5,$5,8
  403030:	51 00 00 00 30 80 18 00 	ori $24,$0,32816
  403038:	42 00 00 00 00 02 18 05 	addu $2,$5,$24
  403040:	a2 00 00 00 0a 00 19 00 	lui $25,10
  403048:	51 00 00 00 d0 44 19 19 	ori $25,$25,17616
  403050:	42 00 00 00 00 19 1d 19 	addu $25,$25,$29
  403058:	38 00 00 00 f8 ff 00 05 	dsz -8($5)
  403060:	38 00 00 00 00 00 00 02 	dsz 0($2)
  403068:	28 00 00 00 00 00 19 19 	lw $25,0($25)
  403070:	43 00 00 00 01 00 13 13 	addiu $19,$19,1
  403078:	42 00 00 00 00 02 19 05 	addu $2,$5,$25
  403080:	38 00 00 00 00 00 00 02 	dsz 0($2)
  403088:	42 00 00 00 00 02 07 05 	addu $2,$5,$7
  403090:	38 00 00 00 00 00 00 02 	dsz 0($2)
  403098:	34 00 00 00 00 00 00 06 	sw $0,0($6)
  4030a0:	43 00 00 00 04 00 06 06 	addiu $6,$6,4
  4030a8:	43 00 00 00 08 00 05 05 	addiu $5,$5,8
  4030b0:	5b 00 00 00 00 02 13 0e 	slt $2,$14,$19
  4030b8:	06 00 00 00 76 00 00 02 	bne $2,$0,403298 <sweep_+0x9b0>
  4030c0:	42 00 00 00 00 04 06 00 	addu $4,$0,$6
  4030c8:	51 00 00 00 30 80 18 00 	ori $24,$0,32816
  4030d0:	42 00 00 00 00 02 18 05 	addu $2,$5,$24
  4030d8:	a2 00 00 00 0a 00 19 00 	lui $25,10
  4030e0:	51 00 00 00 d0 44 19 19 	ori $25,$25,17616
  4030e8:	42 00 00 00 00 19 1d 19 	addu $25,$25,$29
  4030f0:	38 00 00 00 f8 ff 00 05 	dsz -8($5)
  4030f8:	38 00 00 00 00 00 00 02 	dsz 0($2)
  403100:	28 00 00 00 00 00 19 19 	lw $25,0($25)
  403108:	43 00 00 00 08 00 03 05 	addiu $3,$5,8
  403110:	42 00 00 00 00 02 19 05 	addu $2,$5,$25
  403118:	38 00 00 00 00 00 00 02 	dsz 0($2)
  403120:	42 00 00 00 00 02 07 05 	addu $2,$5,$7
  403128:	38 00 00 00 00 00 00 02 	dsz 0($2)
  403130:	42 00 00 00 00 02 18 03 	addu $2,$3,$24
  403138:	a2 00 00 00 0a 00 18 00 	lui $24,10
  403140:	51 00 00 00 d0 44 18 18 	ori $24,$24,17616
  403148:	42 00 00 00 00 18 1d 18 	addu $24,$24,$29
  403150:	34 00 00 00 00 00 00 04 	sw $0,0($4)
  403158:	38 00 00 00 00 00 00 05 	dsz 0($5)
  403160:	38 00 00 00 00 00 00 02 	dsz 0($2)
  403168:	28 00 00 00 00 00 18 18 	lw $24,0($24)
  403170:	51 00 00 00 30 80 19 00 	ori $25,$0,32816
  403178:	42 00 00 00 00 02 18 03 	addu $2,$3,$24
  403180:	42 00 00 00 00 03 07 03 	addu $3,$3,$7
  403188:	38 00 00 00 00 00 00 02 	dsz 0($2)
  403190:	38 00 00 00 00 00 00 03 	dsz 0($3)
  403198:	43 00 00 00 10 00 03 05 	addiu $3,$5,16
  4031a0:	42 00 00 00 00 02 19 03 	addu $2,$3,$25
  4031a8:	a2 00 00 00 0a 00 18 00 	lui $24,10
  4031b0:	51 00 00 00 d0 44 18 18 	ori $24,$24,17616
  4031b8:	42 00 00 00 00 18 1d 18 	addu $24,$24,$29
  4031c0:	34 00 00 00 04 00 00 04 	sw $0,4($4)
  4031c8:	38 00 00 00 08 00 00 05 	dsz 8($5)
  4031d0:	38 00 00 00 00 00 00 02 	dsz 0($2)
  4031d8:	28 00 00 00 00 00 18 18 	lw $24,0($24)
  4031e0:	42 00 00 00 00 02 18 03 	addu $2,$3,$24
  4031e8:	42 00 00 00 00 03 07 03 	addu $3,$3,$7
  4031f0:	38 00 00 00 00 00 00 02 	dsz 0($2)
  4031f8:	38 00 00 00 00 00 00 03 	dsz 0($3)
  403200:	43 00 00 00 18 00 03 05 	addiu $3,$5,24
  403208:	42 00 00 00 00 02 19 03 	addu $2,$3,$25
  403210:	a2 00 00 00 0a 00 19 00 	lui $25,10
  403218:	51 00 00 00 d0 44 19 19 	ori $25,$25,17616
  403220:	42 00 00 00 00 19 1d 19 	addu $25,$25,$29
  403228:	34 00 00 00 08 00 00 04 	sw $0,8($4)
  403230:	38 00 00 00 10 00 00 05 	dsz 16($5)
  403238:	38 00 00 00 00 00 00 02 	dsz 0($2)
  403240:	28 00 00 00 00 00 19 19 	lw $25,0($25)
  403248:	43 00 00 00 04 00 13 13 	addiu $19,$19,4
  403250:	43 00 00 00 20 00 05 05 	addiu $5,$5,32
  403258:	42 00 00 00 00 02 19 03 	addu $2,$3,$25
  403260:	42 00 00 00 00 03 07 03 	addu $3,$3,$7
  403268:	38 00 00 00 00 00 00 02 	dsz 0($2)
  403270:	38 00 00 00 00 00 00 03 	dsz 0($3)
  403278:	34 00 00 00 0c 00 00 04 	sw $0,12($4)
  403280:	43 00 00 00 10 00 04 04 	addiu $4,$4,16
  403288:	5b 00 00 00 00 02 13 0e 	slt $2,$14,$19
  403290:	05 00 00 00 8c ff 00 02 	beq $2,$0,4030c8 <sweep_+0x7e0>
  403298:	a2 00 00 00 85 10 0e 00 	lui $14,4229
  4032a0:	28 00 00 00 c0 3c 0e 0e 	lw $14,15552($14)
  4032a8:	a2 00 00 00 0a 00 03 00 	lui $3,10
  4032b0:	51 00 00 00 88 44 03 03 	ori $3,$3,17544
  4032b8:	42 00 00 00 00 11 0d 00 	addu $17,$0,$13
  4032c0:	42 00 00 00 00 03 03 0d 	addu $3,$13,$3
  4032c8:	43 00 00 00 01 00 02 00 	addiu $2,$0,1
  4032d0:	34 00 00 00 00 00 02 03 	sw $2,0($3)
  4032d8:	07 00 00 00 18 01 00 0e 	blez $14,403740 <sweep_+0xe58>
  4032e0:	a2 00 00 00 04 00 02 00 	lui $2,4
  4032e8:	51 00 00 00 f0 81 02 02 	ori $2,$2,33264
  4032f0:	42 00 00 00 00 17 02 0d 	addu $23,$13,$2
  4032f8:	a2 00 00 00 06 00 16 00 	lui $22,6
  403300:	51 00 00 00 d0 82 16 16 	ori $22,$22,33488
  403308:	a2 00 00 00 0a 00 15 00 	lui $21,10
  403310:	42 00 00 00 00 14 15 0d 	addu $20,$13,$21
  403318:	a2 00 00 00 0a 00 02 00 	lui $2,10
  403320:	51 00 00 00 84 44 02 02 	ori $2,$2,17540
  403328:	a2 00 00 00 0a 00 04 00 	lui $4,10
  403330:	51 00 00 00 88 44 04 04 	ori $4,$4,17544
  403338:	42 00 00 00 00 12 02 11 	addu $18,$17,$2
  403340:	28 00 00 00 00 00 03 12 	lw $3,0($18)
  403348:	42 00 00 00 00 06 04 11 	addu $6,$17,$4
  403350:	28 00 00 00 00 00 02 06 	lw $2,0($6)
  403358:	05 00 00 00 e4 00 02 03 	beq $3,$2,4036f0 <sweep_+0xe08>
  403360:	a2 00 00 00 0a 00 10 00 	lui $16,10
  403368:	51 00 00 00 80 44 10 10 	ori $16,$16,17536
  403370:	a2 00 00 00 04 00 07 00 	lui $7,4
  403378:	51 00 00 00 f8 81 07 07 	ori $7,$7,33272
  403380:	42 00 00 00 00 10 10 11 	addu $16,$17,$16
  403388:	42 00 00 00 00 04 10 00 	addu $4,$0,$16
  403390:	42 00 00 00 00 05 12 00 	addu $5,$0,$18
  403398:	42 00 00 00 00 07 07 11 	addu $7,$17,$7
  4033a0:	a2 00 00 00 0a 00 18 00 	lui $24,10
  4033a8:	51 00 00 00 5c 45 18 18 	ori $24,$24,17756
  4033b0:	42 00 00 00 00 18 1d 18 	addu $24,$24,$29
  4033b8:	a2 00 00 00 0a 00 19 00 	lui $25,10
  4033c0:	51 00 00 00 60 45 19 19 	ori $25,$25,17760
  4033c8:	42 00 00 00 00 19 1d 19 	addu $25,$25,$29
  4033d0:	34 00 00 00 00 00 0d 18 	sw $13,0($24)
  4033d8:	34 00 00 00 00 00 0e 19 	sw $14,0($25)
  4033e0:	02 00 00 00 04 26 10 00 	jal 409810 <intact_>
  4033e8:	a2 00 00 00 0a 00 06 00 	lui $6,10
  4033f0:	51 00 00 00 8c 44 06 06 	ori $6,$6,17548
  4033f8:	a2 00 00 00 06 00 07 00 	lui $7,6
  403400:	51 00 00 00 d8 82 07 07 	ori $7,$7,33496
  403408:	42 00 00 00 00 04 10 00 	addu $4,$0,$16
  403410:	42 00 00 00 00 05 12 00 	addu $5,$0,$18
  403418:	42 00 00 00 00 10 15 11 	addu $16,$17,$21
  403420:	28 00 00 00 88 44 02 10 	lw $2,17544($16)
  403428:	42 00 00 00 00 06 06 11 	addu $6,$17,$6
  403430:	42 00 00 00 00 07 07 11 	addu $7,$17,$7
  403438:	45 00 00 00 00 02 02 00 	subu $2,$0,$2
  403440:	34 00 00 00 00 00 02 06 	sw $2,0($6)
  403448:	02 00 00 00 04 26 10 00 	jal 409810 <intact_>
  403450:	a2 00 00 00 85 10 02 00 	lui $2,4229
  403458:	28 00 00 00 d4 3c 02 02 	lw $2,15572($2)
  403460:	a2 00 00 00 0a 00 18 00 	lui $24,10
  403468:	51 00 00 00 5c 45 18 18 	ori $24,$24,17756
  403470:	42 00 00 00 00 18 1d 18 	addu $24,$24,$29
  403478:	a2 00 00 00 0a 00 19 00 	lui $25,10
  403480:	51 00 00 00 60 45 19 19 	ori $25,$25,17760
  403488:	42 00 00 00 00 19 1d 19 	addu $25,$25,$29
  403490:	34 00 00 00 8c 44 02 10 	sw $2,17548($16)
  403498:	28 00 00 00 00 00 0d 18 	lw $13,0($24)
  4034a0:	28 00 00 00 00 00 0e 19 	lw $14,0($25)
  4034a8:	43 00 00 00 01 00 13 00 	addiu $19,$0,1
  4034b0:	07 00 00 00 8e 00 00 02 	blez $2,4036f0 <sweep_+0xe08>
  4034b8:	a2 00 00 00 05 00 08 00 	lui $8,5
  4034c0:	51 00 00 00 30 02 08 08 	ori $8,$8,560
  4034c8:	a2 00 00 00 07 00 07 00 	lui $7,7
  4034d0:	51 00 00 00 10 03 07 07 	ori $7,$7,784
  4034d8:	a2 00 00 00 05 00 06 00 	lui $6,5
  4034e0:	51 00 00 00 68 82 06 06 	ori $6,$6,33384
  4034e8:	a2 00 00 00 07 00 05 00 	lui $5,7
  4034f0:	51 00 00 00 48 83 05 05 	ori $5,$5,33608
  4034f8:	a2 00 00 00 01 00 10 00 	lui $16,1
  403500:	51 00 00 00 a0 80 10 10 	ori $16,$16,32928
  403508:	a2 00 00 00 06 00 04 00 	lui $4,6
  403510:	51 00 00 00 a0 02 04 04 	ori $4,$4,672
  403518:	a2 00 00 00 08 00 03 00 	lui $3,8
  403520:	51 00 00 00 80 03 03 03 	ori $3,$3,896
  403528:	a2 00 00 00 0a 00 02 00 	lui $2,10
  403530:	42 00 00 00 00 0f 02 0d 	addu $15,$13,$2
  403538:	42 00 00 00 00 0c 03 0d 	addu $12,$13,$3
  403540:	42 00 00 00 00 0b 04 0d 	addu $11,$13,$4
  403548:	42 00 00 00 00 0a 05 0d 	addu $10,$13,$5
  403550:	42 00 00 00 00 09 06 0d 	addu $9,$13,$6
  403558:	42 00 00 00 00 07 07 0d 	addu $7,$13,$7
  403560:	42 00 00 00 00 06 08 0d 	addu $6,$13,$8
  403568:	42 00 00 00 00 02 16 0d 	addu $2,$13,$22
  403570:	43 00 00 00 08 00 05 02 	addiu $5,$2,8
  403578:	43 00 00 00 08 00 04 17 	addiu $4,$23,8
  403580:	43 00 00 00 08 00 03 0d 	addiu $3,$13,8
  403588:	2b 00 00 00 f8 ff 02 03 	l.d $f2,-8($3)
  403590:	2b 00 00 00 00 00 00 04 	l.d $f0,0($4)
  403598:	71 00 00 00 00 02 00 02 	add.d $f2,$f2,$f0
  4035a0:	2b 00 00 00 00 00 00 05 	l.d $f0,0($5)
  4035a8:	71 00 00 00 00 02 00 02 	add.d $f2,$f2,$f0
  4035b0:	51 00 00 00 30 80 18 00 	ori $24,$0,32816
  4035b8:	42 00 00 00 00 02 18 03 	addu $2,$3,$24
  4035c0:	37 00 00 00 f8 ff 02 03 	s.d $f2,-8($3)
  4035c8:	2b 00 00 00 00 00 02 02 	l.d $f2,0($2)
  4035d0:	2b 00 00 00 00 00 00 06 	l.d $f0,0($6)
  4035d8:	71 00 00 00 00 02 00 02 	add.d $f2,$f2,$f0
  4035e0:	2b 00 00 00 00 00 00 07 	l.d $f0,0($7)
  4035e8:	71 00 00 00 00 02 00 02 	add.d $f2,$f2,$f0
  4035f0:	a2 00 00 00 0a 00 19 00 	lui $25,10
  4035f8:	51 00 00 00 d0 44 19 19 	ori $25,$25,17616
  403600:	42 00 00 00 00 19 1d 19 	addu $25,$25,$29
  403608:	37 00 00 00 00 00 02 02 	s.d $f2,0($2)
  403610:	28 00 00 00 00 00 19 19 	lw $25,0($25)
  403618:	2b 00 00 00 00 00 00 09 	l.d $f0,0($9)
  403620:	42 00 00 00 00 02 19 03 	addu $2,$3,$25
  403628:	2b 00 00 00 00 00 02 02 	l.d $f2,0($2)
  403630:	71 00 00 00 00 02 00 02 	add.d $f2,$f2,$f0
  403638:	2b 00 00 00 00 00 00 0a 	l.d $f0,0($10)
  403640:	71 00 00 00 00 02 00 02 	add.d $f2,$f2,$f0
  403648:	37 00 00 00 00 00 02 02 	s.d $f2,0($2)
  403650:	42 00 00 00 00 02 10 03 	addu $2,$3,$16
  403658:	2b 00 00 00 00 00 00 02 	l.d $f0,0($2)
  403660:	2b 00 00 00 00 00 02 0b 	l.d $f2,0($11)
  403668:	71 00 00 00 00 00 02 00 	add.d $f0,$f0,$f2
  403670:	43 00 00 00 01 00 13 13 	addiu $19,$19,1
  403678:	43 00 00 00 08 00 04 04 	addiu $4,$4,8
  403680:	43 00 00 00 08 00 05 05 	addiu $5,$5,8
  403688:	2b 00 00 00 00 00 02 0c 	l.d $f2,0($12)
  403690:	43 00 00 00 08 00 06 06 	addiu $6,$6,8
  403698:	43 00 00 00 08 00 07 07 	addiu $7,$7,8
  4036a0:	71 00 00 00 00 00 02 00 	add.d $f0,$f0,$f2
  4036a8:	43 00 00 00 08 00 09 09 	addiu $9,$9,8
  4036b0:	43 00 00 00 08 00 0a 0a 	addiu $10,$10,8
  4036b8:	43 00 00 00 08 00 03 03 	addiu $3,$3,8
  4036c0:	37 00 00 00 00 00 00 02 	s.d $f0,0($2)
  4036c8:	28 00 00 00 8c 44 02 0f 	lw $2,17548($15)
  4036d0:	43 00 00 00 08 00 0b 0b 	addiu $11,$11,8
  4036d8:	43 00 00 00 08 00 0c 0c 	addiu $12,$12,8
  4036e0:	5b 00 00 00 00 02 13 02 	slt $2,$2,$19
  4036e8:	05 00 00 00 a6 ff 00 02 	beq $2,$0,403588 <sweep_+0xca0>
  4036f0:	28 00 00 00 88 44 02 14 	lw $2,17544($20)
  4036f8:	a2 00 00 00 0a 00 03 00 	lui $3,10
  403700:	51 00 00 00 88 44 03 03 	ori $3,$3,17544
  403708:	42 00 00 00 00 03 03 0d 	addu $3,$13,$3
  403710:	43 00 00 00 01 00 02 02 	addiu $2,$2,1
  403718:	34 00 00 00 88 44 02 14 	sw $2,17544($20)
  403720:	28 00 00 00 00 00 02 03 	lw $2,0($3)
  403728:	42 00 00 00 00 11 0d 00 	addu $17,$0,$13
  403730:	5b 00 00 00 00 02 02 0e 	slt $2,$14,$2
  403738:	05 00 00 00 f6 fe 00 02 	beq $2,$0,403318 <sweep_+0xa30>
  403740:	a2 00 00 00 85 10 0e 00 	lui $14,4229
  403748:	28 00 00 00 d4 3c 0e 0e 	lw $14,15572($14)
  403750:	43 00 00 00 01 00 13 00 	addiu $19,$0,1
  403758:	07 00 00 00 74 01 00 0e 	blez $14,403d30 <sweep_+0x1448>
  403760:	a2 00 00 00 0a 00 02 00 	lui $2,10
  403768:	51 00 00 00 90 44 02 02 	ori $2,$2,17552
  403770:	a2 00 00 00 0a 00 18 00 	lui $24,10
  403778:	51 00 00 00 f0 44 18 18 	ori $24,$24,17648
  403780:	42 00 00 00 00 18 1d 18 	addu $24,$24,$29
  403788:	28 00 00 00 00 00 18 18 	lw $24,0($24)
  403790:	a2 00 00 00 0a 00 19 00 	lui $25,10
  403798:	51 00 00 00 e8 44 19 19 	ori $25,$25,17640
  4037a0:	42 00 00 00 00 19 1d 19 	addu $25,$25,$29
  4037a8:	28 00 00 00 00 00 19 19 	lw $25,0($25)
  4037b0:	43 00 00 00 08 00 10 0d 	addiu $16,$13,8
  4037b8:	42 00 00 00 00 17 02 0d 	addu $23,$13,$2
  4037c0:	43 00 00 00 01 00 02 0e 	addiu $2,$14,1
  4037c8:	4f 00 00 00 01 00 03 0e 	andi $3,$14,1
  4037d0:	5b 00 00 00 00 02 02 13 	slt $2,$19,$2
  4037d8:	43 00 00 00 08 00 14 18 	addiu $20,$24,8
  4037e0:	a2 00 00 00 0a 00 18 00 	lui $24,10
  4037e8:	51 00 00 00 e0 44 18 18 	ori $24,$24,17632
  4037f0:	42 00 00 00 00 18 1d 18 	addu $24,$24,$29
  4037f8:	28 00 00 00 00 00 18 18 	lw $24,0($24)
  403800:	42 00 00 00 00 15 19 0d 	addu $21,$13,$25
  403808:	43 00 00 00 08 00 11 15 	addiu $17,$21,8
  403810:	43 00 00 00 08 00 12 18 	addiu $18,$24,8
  403818:	05 00 00 00 02 00 00 02 	beq $2,$0,403828 <sweep_+0xf40>
  403820:	05 00 00 00 7c 00 00 03 	beq $3,$0,403a18 <sweep_+0x1130>
  403828:	2b 00 00 00 00 00 00 0d 	l.d $f0,0($13)
  403830:	75 00 00 00 00 04 00 00 	mul.d $f4,$f0,$f0
  403838:	51 00 00 00 30 80 19 00 	ori $25,$0,32816
  403840:	42 00 00 00 00 02 19 10 	addu $2,$16,$25
  403848:	37 00 00 00 00 00 00 17 	s.d $f0,0($23)
  403850:	2b 00 00 00 00 00 06 02 	l.d $f6,0($2)
  403858:	75 00 00 00 00 06 06 06 	mul.d $f6,$f6,$f6
  403860:	a2 00 00 00 01 00 02 00 	lui $2,1
  403868:	51 00 00 00 68 00 02 02 	ori $2,$2,104
  403870:	42 00 00 00 00 02 02 10 	addu $2,$16,$2
  403878:	2b 00 00 00 00 00 02 02 	l.d $f2,0($2)
  403880:	75 00 00 00 00 02 02 02 	mul.d $f2,$f2,$f2
  403888:	a2 00 00 00 01 00 02 00 	lui $2,1
  403890:	51 00 00 00 a0 80 02 02 	ori $2,$2,32928
  403898:	42 00 00 00 00 02 02 10 	addu $2,$16,$2
  4038a0:	2b 00 00 00 00 00 00 02 	l.d $f0,0($2)
  4038a8:	71 00 00 00 00 04 06 04 	add.d $f4,$f4,$f6
  4038b0:	75 00 00 00 00 00 00 00 	mul.d $f0,$f0,$f0
  4038b8:	71 00 00 00 00 04 02 04 	add.d $f4,$f4,$f2
  4038c0:	71 00 00 00 00 0c 00 04 	add.d $f12,$f4,$f0
  4038c8:	97 00 00 00 00 04 00 0c 	sqrt.d $f4,$f12
  4038d0:	91 00 00 00 00 00 04 04 	c.eq.d $f4,$f4
  4038d8:	0c 00 00 00 24 00 00 00 	bc1t 403970 <sweep_+0x1088>
  4038e0:	a2 00 00 00 0a 00 18 00 	lui $24,10
  4038e8:	51 00 00 00 5c 45 18 18 	ori $24,$24,17756
  4038f0:	42 00 00 00 00 18 1d 18 	addu $24,$24,$29
  4038f8:	a2 00 00 00 0a 00 19 00 	lui $25,10
  403900:	51 00 00 00 60 45 19 19 	ori $25,$25,17760
  403908:	42 00 00 00 00 19 1d 19 	addu $25,$25,$29
  403910:	34 00 00 00 00 00 0d 18 	sw $13,0($24)
  403918:	34 00 00 00 00 00 0e 19 	sw $14,0($25)
  403920:	02 00 00 00 80 9d 10 00 	jal 427600 <sqrt>
  403928:	7b 00 00 00 00 04 00 00 	mov.d $f4,$f0
  403930:	a2 00 00 00 0a 00 18 00 	lui $24,10
  403938:	51 00 00 00 60 45 18 18 	ori $24,$24,17760
  403940:	42 00 00 00 00 18 1d 18 	addu $24,$24,$29
  403948:	28 00 00 00 00 00 0e 18 	lw $14,0($24)
  403950:	a2 00 00 00 0a 00 19 00 	lui $25,10
  403958:	51 00 00 00 5c 45 19 19 	ori $25,$25,17756
  403960:	42 00 00 00 00 19 1d 19 	addu $25,$25,$29
  403968:	28 00 00 00 00 00 0d 19 	lw $13,0($25)
  403970:	2b 00 00 00 90 80 00 1c 	l.d $f0,-32624($28)
  403978:	77 00 00 00 00 00 04 00 	div.d $f0,$f0,$f4
  403980:	43 00 00 00 08 00 14 14 	addiu $20,$20,8
  403988:	43 00 00 00 08 00 11 11 	addiu $17,$17,8
  403990:	43 00 00 00 08 00 12 12 	addiu $18,$18,8
  403998:	a2 00 00 00 0a 00 18 00 	lui $24,10
  4039a0:	51 00 00 00 e0 44 18 18 	ori $24,$24,17632
  4039a8:	42 00 00 00 00 18 1d 18 	addu $24,$24,$29
  4039b0:	28 00 00 00 00 00 19 18 	lw $25,0($24)
  4039b8:	43 00 00 00 08 00 10 10 	addiu $16,$16,8
  4039c0:	75 00 00 00 00 02 00 18 	mul.d $f2,$f24,$f0
  4039c8:	a2 00 00 00 0a 00 18 00 	lui $24,10
  4039d0:	51 00 00 00 f0 44 18 18 	ori $24,$24,17648
  4039d8:	42 00 00 00 00 18 1d 18 	addu $24,$24,$29
  4039e0:	37 00 00 00 08 00 04 19 	s.d $f4,8($25)
  4039e8:	37 00 00 00 08 00 00 15 	s.d $f0,8($21)
  4039f0:	28 00 00 00 00 00 19 18 	lw $25,0($24)
  4039f8:	43 00 00 00 02 00 13 00 	addiu $19,$0,2
  403a00:	5c 00 00 00 02 00 02 0e 	slti $2,$14,2
  403a08:	37 00 00 00 08 00 02 19 	s.d $f2,8($25)
  403a10:	06 00 00 00 c6 00 00 02 	bne $2,$0,403d30 <sweep_+0x1448>
  403a18:	42 00 00 00 00 15 14 00 	addu $21,$0,$20
  403a20:	42 00 00 00 00 14 11 00 	addu $20,$0,$17
  403a28:	2b 00 00 00 f8 ff 00 10 	l.d $f0,-8($16)
  403a30:	75 00 00 00 00 04 00 00 	mul.d $f4,$f0,$f0
  403a38:	51 00 00 00 30 80 18 00 	ori $24,$0,32816
  403a40:	42 00 00 00 00 02 18 10 	addu $2,$16,$24
  403a48:	37 00 00 00 00 00 00 17 	s.d $f0,0($23)
  403a50:	2b 00 00 00 00 00 06 02 	l.d $f6,0($2)
  403a58:	75 00 00 00 00 06 06 06 	mul.d $f6,$f6,$f6
  403a60:	a2 00 00 00 01 00 16 00 	lui $22,1
  403a68:	51 00 00 00 68 00 16 16 	ori $22,$22,104
  403a70:	42 00 00 00 00 02 16 10 	addu $2,$16,$22
  403a78:	2b 00 00 00 00 00 02 02 	l.d $f2,0($2)
  403a80:	75 00 00 00 00 02 02 02 	mul.d $f2,$f2,$f2
  403a88:	a2 00 00 00 01 00 11 00 	lui $17,1
  403a90:	51 00 00 00 a0 80 11 11 	ori $17,$17,32928
  403a98:	42 00 00 00 00 02 11 10 	addu $2,$16,$17
  403aa0:	2b 00 00 00 00 00 00 02 	l.d $f0,0($2)
  403aa8:	71 00 00 00 00 04 06 04 	add.d $f4,$f4,$f6
  403ab0:	75 00 00 00 00 00 00 00 	mul.d $f0,$f0,$f0
  403ab8:	71 00 00 00 00 04 02 04 	add.d $f4,$f4,$f2
  403ac0:	71 00 00 00 00 0c 00 04 	add.d $f12,$f4,$f0
  403ac8:	97 00 00 00 00 06 00 0c 	sqrt.d $f6,$f12
  403ad0:	91 00 00 00 00 00 06 06 	c.eq.d $f6,$f6
  403ad8:	0c 00 00 00 24 00 00 00 	bc1t 403b70 <sweep_+0x1288>
  403ae0:	a2 00 00 00 0a 00 19 00 	lui $25,10
  403ae8:	51 00 00 00 5c 45 19 19 	ori $25,$25,17756
  403af0:	42 00 00 00 00 19 1d 19 	addu $25,$25,$29
  403af8:	a2 00 00 00 0a 00 18 00 	lui $24,10
  403b00:	51 00 00 00 60 45 18 18 	ori $24,$24,17760
  403b08:	42 00 00 00 00 18 1d 18 	addu $24,$24,$29
  403b10:	34 00 00 00 00 00 0d 19 	sw $13,0($25)
  403b18:	34 00 00 00 00 00 0e 18 	sw $14,0($24)
  403b20:	02 00 00 00 80 9d 10 00 	jal 427600 <sqrt>
  403b28:	7b 00 00 00 00 06 00 00 	mov.d $f6,$f0
  403b30:	a2 00 00 00 0a 00 19 00 	lui $25,10
  403b38:	51 00 00 00 60 45 19 19 	ori $25,$25,17760
  403b40:	42 00 00 00 00 19 1d 19 	addu $25,$25,$29
  403b48:	28 00 00 00 00 00 0e 19 	lw $14,0($25)
  403b50:	a2 00 00 00 0a 00 18 00 	lui $24,10
  403b58:	51 00 00 00 5c 45 18 18 	ori $24,$24,17756
  403b60:	42 00 00 00 00 18 1d 18 	addu $24,$24,$29
  403b68:	28 00 00 00 00 00 0d 18 	lw $13,0($24)
  403b70:	2b 00 00 00 90 80 14 1c 	l.d $f20,-32624($28)
  403b78:	77 00 00 00 00 00 06 14 	div.d $f0,$f20,$f6
  403b80:	75 00 00 00 00 02 00 18 	mul.d $f2,$f24,$f0
  403b88:	37 00 00 00 00 00 06 12 	s.d $f6,0($18)
  403b90:	37 00 00 00 00 00 00 14 	s.d $f0,0($20)
  403b98:	37 00 00 00 00 00 02 15 	s.d $f2,0($21)
  403ba0:	2b 00 00 00 00 00 00 10 	l.d $f0,0($16)
  403ba8:	75 00 00 00 00 04 00 00 	mul.d $f4,$f0,$f0
  403bb0:	43 00 00 00 08 00 03 10 	addiu $3,$16,8
  403bb8:	51 00 00 00 30 80 19 00 	ori $25,$0,32816
  403bc0:	42 00 00 00 00 02 19 03 	addu $2,$3,$25
  403bc8:	37 00 00 00 00 00 00 17 	s.d $f0,0($23)
  403bd0:	2b 00 00 00 00 00 06 02 	l.d $f6,0($2)
  403bd8:	75 00 00 00 00 06 06 06 	mul.d $f6,$f6,$f6
  403be0:	42 00 00 00 00 02 16 03 	addu $2,$3,$22
  403be8:	2b 00 00 00 00 00 02 02 	l.d $f2,0($2)
  403bf0:	75 00 00 00 00 02 02 02 	mul.d $f2,$f2,$f2
  403bf8:	42 00 00 00 00 03 11 03 	addu $3,$3,$17
  403c00:	2b 00 00 00 00 00 00 03 	l.d $f0,0($3)
  403c08:	71 00 00 00 00 04 06 04 	add.d $f4,$f4,$f6
  403c10:	75 00 00 00 00 00 00 00 	mul.d $f0,$f0,$f0
  403c18:	71 00 00 00 00 04 02 04 	add.d $f4,$f4,$f2
  403c20:	71 00 00 00 00 0c 00 04 	add.d $f12,$f4,$f0
  403c28:	97 00 00 00 00 06 00 0c 	sqrt.d $f6,$f12
  403c30:	91 00 00 00 00 00 06 06 	c.eq.d $f6,$f6
  403c38:	0c 00 00 00 24 00 00 00 	bc1t 403cd0 <sweep_+0x13e8>
  403c40:	a2 00 00 00 0a 00 18 00 	lui $24,10
  403c48:	51 00 00 00 5c 45 18 18 	ori $24,$24,17756
  403c50:	42 00 00 00 00 18 1d 18 	addu $24,$24,$29
  403c58:	a2 00 00 00 0a 00 19 00 	lui $25,10
  403c60:	51 00 00 00 60 45 19 19 	ori $25,$25,17760
  403c68:	42 00 00 00 00 19 1d 19 	addu $25,$25,$29
  403c70:	34 00 00 00 00 00 0d 18 	sw $13,0($24)
  403c78:	34 00 00 00 00 00 0e 19 	sw $14,0($25)
  403c80:	02 00 00 00 80 9d 10 00 	jal 427600 <sqrt>
  403c88:	7b 00 00 00 00 06 00 00 	mov.d $f6,$f0
  403c90:	a2 00 00 00 0a 00 18 00 	lui $24,10
  403c98:	51 00 00 00 60 45 18 18 	ori $24,$24,17760
  403ca0:	42 00 00 00 00 18 1d 18 	addu $24,$24,$29
  403ca8:	28 00 00 00 00 00 0e 18 	lw $14,0($24)
  403cb0:	a2 00 00 00 0a 00 19 00 	lui $25,10
  403cb8:	51 00 00 00 5c 45 19 19 	ori $25,$25,17756
  403cc0:	42 00 00 00 00 19 1d 19 	addu $25,$25,$29
  403cc8:	28 00 00 00 00 00 0d 19 	lw $13,0($25)
  403cd0:	77 00 00 00 00 00 06 14 	div.d $f0,$f20,$f6
  403cd8:	75 00 00 00 00 02 00 18 	mul.d $f2,$f24,$f0
  403ce0:	37 00 00 00 08 00 06 12 	s.d $f6,8($18)
  403ce8:	43 00 00 00 10 00 12 12 	addiu $18,$18,16
  403cf0:	43 00 00 00 10 00 10 10 	addiu $16,$16,16
  403cf8:	43 00 00 00 02 00 13 13 	addiu $19,$19,2
  403d00:	5b 00 00 00 00 02 13 0e 	slt $2,$14,$19
  403d08:	37 00 00 00 08 00 00 14 	s.d $f0,8($20)
  403d10:	43 00 00 00 10 00 14 14 	addiu $20,$20,16
  403d18:	37 00 00 00 08 00 02 15 	s.d $f2,8($21)
  403d20:	43 00 00 00 10 00 15 15 	addiu $21,$21,16
  403d28:	05 00 00 00 3e ff 00 02 	beq $2,$0,403a28 <sweep_+0x1140>
  403d30:	43 00 00 00 01 00 19 00 	addiu $25,$0,1
  403d38:	a2 00 00 00 0a 00 18 00 	lui $24,10
  403d40:	51 00 00 00 c0 44 18 18 	ori $24,$24,17600
  403d48:	42 00 00 00 00 18 1d 18 	addu $24,$24,$29
  403d50:	34 00 00 00 00 00 19 18 	sw $25,0($24)
  403d58:	a2 00 00 00 03 00 02 00 	lui $2,3
  403d60:	51 00 00 00 48 01 02 02 	ori $2,$2,328
  403d68:	42 00 00 00 00 02 02 0d 	addu $2,$13,$2
  403d70:	a2 00 00 00 0a 00 18 00 	lui $24,10
  403d78:	51 00 00 00 08 45 18 18 	ori $24,$24,17672
  403d80:	42 00 00 00 00 18 1d 18 	addu $24,$24,$29
  403d88:	34 00 00 00 00 00 02 18 	sw $2,0($24)
  403d90:	a2 00 00 00 0a 00 19 00 	lui $25,10
  403d98:	51 00 00 00 f8 44 19 19 	ori $25,$25,17656
  403da0:	42 00 00 00 00 19 1d 19 	addu $25,$25,$29
  403da8:	28 00 00 00 00 00 19 19 	lw $25,0($25)
  403db0:	a2 00 00 00 85 10 05 00 	lui $5,4229
  403db8:	43 00 00 00 d4 3c 05 05 	addiu $5,$5,15572
  403dc0:	43 00 00 00 50 80 06 1c 	addiu $6,$28,-32688
  403dc8:	a2 00 00 00 0a 00 18 00 	lui $24,10
  403dd0:	51 00 00 00 5c 45 18 18 	ori $24,$24,17756
  403dd8:	42 00 00 00 00 18 1d 18 	addu $24,$24,$29
  403de0:	42 00 00 00 00 04 19 0d 	addu $4,$13,$25
  403de8:	34 00 00 00 00 00 0d 18 	sw $13,0($24)
  403df0:	02 00 00 00 32 79 10 00 	jal 41e4c8 <trngv_>
  403df8:	a2 00 00 00 0a 00 19 00 	lui $25,10
  403e00:	51 00 00 00 5c 45 19 19 	ori $25,$25,17756
  403e08:	42 00 00 00 00 19 1d 19 	addu $25,$25,$29
  403e10:	28 00 00 00 00 00 0d 19 	lw $13,0($25)
  403e18:	a2 00 00 00 0a 00 18 00 	lui $24,10
  403e20:	51 00 00 00 00 45 18 18 	ori $24,$24,17664
  403e28:	42 00 00 00 00 18 1d 18 	addu $24,$24,$29
  403e30:	28 00 00 00 00 00 18 18 	lw $24,0($24)
  403e38:	a2 00 00 00 85 10 05 00 	lui $5,4229
  403e40:	43 00 00 00 d4 3c 05 05 	addiu $5,$5,15572
  403e48:	43 00 00 00 50 80 06 1c 	addiu $6,$28,-32688
  403e50:	42 00 00 00 00 04 18 0d 	addu $4,$13,$24
  403e58:	02 00 00 00 32 79 10 00 	jal 41e4c8 <trngv_>
  403e60:	a2 00 00 00 85 10 0e 00 	lui $14,4229
  403e68:	28 00 00 00 d4 3c 0e 0e 	lw $14,15572($14)
  403e70:	a2 00 00 00 0a 00 19 00 	lui $25,10
  403e78:	51 00 00 00 5c 45 19 19 	ori $25,$25,17756
  403e80:	42 00 00 00 00 19 1d 19 	addu $25,$25,$29
  403e88:	28 00 00 00 00 00 0d 19 	lw $13,0($25)
  403e90:	43 00 00 00 01 00 13 00 	addiu $19,$0,1
  403e98:	07 00 00 00 cc 01 00 0e 	blez $14,4045d0 <sweep_+0x1ce8>
  403ea0:	a2 00 00 00 0a 00 02 00 	lui $2,10
  403ea8:	51 00 00 00 90 44 02 02 	ori $2,$2,17552
  403eb0:	a2 00 00 00 0a 00 18 00 	lui $24,10
  403eb8:	51 00 00 00 d8 44 18 18 	ori $24,$24,17624
  403ec0:	42 00 00 00 00 18 1d 18 	addu $24,$24,$29
  403ec8:	28 00 00 00 00 00 18 18 	lw $24,0($24)
  403ed0:	a2 00 00 00 0a 00 19 00 	lui $25,10
  403ed8:	51 00 00 00 20 45 19 19 	ori $25,$25,17696
  403ee0:	42 00 00 00 00 19 1d 19 	addu $25,$25,$29
  403ee8:	28 00 00 00 00 00 19 19 	lw $25,0($25)
  403ef0:	2b 00 00 00 90 80 14 1c 	l.d $f20,-32624($28)
  403ef8:	42 00 00 00 00 05 02 0d 	addu $5,$13,$2
  403f00:	43 00 00 00 01 00 02 0e 	addiu $2,$14,1
  403f08:	43 00 00 00 04 00 10 18 	addiu $16,$24,4
  403f10:	43 00 00 00 08 00 11 19 	addiu $17,$25,8
  403f18:	a2 00 00 00 0a 00 18 00 	lui $24,10
  403f20:	51 00 00 00 10 45 18 18 	ori $24,$24,17680
  403f28:	42 00 00 00 00 18 1d 18 	addu $24,$24,$29
  403f30:	28 00 00 00 00 00 18 18 	lw $24,0($24)
  403f38:	a2 00 00 00 0a 00 19 00 	lui $25,10
  403f40:	51 00 00 00 18 45 19 19 	ori $25,$25,17688
  403f48:	42 00 00 00 00 19 1d 19 	addu $25,$25,$29
  403f50:	28 00 00 00 00 00 19 19 	lw $25,0($25)
  403f58:	4f 00 00 00 01 00 03 0e 	andi $3,$14,1
  403f60:	43 00 00 00 08 00 12 18 	addiu $18,$24,8
  403f68:	43 00 00 00 08 00 14 19 	addiu $20,$25,8
  403f70:	a2 00 00 00 0a 00 18 00 	lui $24,10
  403f78:	51 00 00 00 f0 44 18 18 	ori $24,$24,17648
  403f80:	42 00 00 00 00 18 1d 18 	addu $24,$24,$29
  403f88:	28 00 00 00 00 00 18 18 	lw $24,0($24)
  403f90:	a2 00 00 00 0a 00 19 00 	lui $25,10
  403f98:	51 00 00 00 08 45 19 19 	ori $25,$25,17672
  403fa0:	42 00 00 00 00 19 1d 19 	addu $25,$25,$29
  403fa8:	28 00 00 00 00 00 19 19 	lw $25,0($25)
  403fb0:	5b 00 00 00 00 02 02 13 	slt $2,$19,$2
  403fb8:	43 00 00 00 08 00 1e 18 	addiu $30,$24,8
  403fc0:	43 00 00 00 08 00 04 19 	addiu $4,$25,8
  403fc8:	05 00 00 00 02 00 00 02 	beq $2,$0,403fd8 <sweep_+0x16f0>
  403fd0:	05 00 00 00 b4 00 00 03 	beq $3,$0,4042a8 <sweep_+0x19c0>
  403fd8:	a2 00 00 00 0a 00 18 00 	lui $24,10
  403fe0:	51 00 00 00 08 45 18 18 	ori $24,$24,17672
  403fe8:	42 00 00 00 00 18 1d 18 	addu $24,$24,$29
  403ff0:	28 00 00 00 00 00 19 18 	lw $25,0($24)
  403ff8:	2b 00 00 00 08 00 08 19 	l.d $f8,8($25)
  404000:	a2 00 00 00 0a 00 18 00 	lui $24,10
  404008:	51 00 00 00 48 45 18 18 	ori $24,$24,17736
  404010:	42 00 00 00 00 18 1d 18 	addu $24,$24,$29
  404018:	7b 00 00 00 00 0c 00 08 	mov.d $f12,$f8
  404020:	a2 00 00 00 0a 00 19 00 	lui $25,10
  404028:	51 00 00 00 4c 45 19 19 	ori $25,$25,17740
  404030:	42 00 00 00 00 19 1d 19 	addu $25,$25,$29
  404038:	34 00 00 00 00 00 04 18 	sw $4,0($24)
  404040:	a2 00 00 00 0a 00 18 00 	lui $24,10
  404048:	51 00 00 00 5c 45 18 18 	ori $24,$24,17756
  404050:	42 00 00 00 00 18 1d 18 	addu $24,$24,$29
  404058:	34 00 00 00 00 00 05 19 	sw $5,0($25)
  404060:	a2 00 00 00 0a 00 19 00 	lui $25,10
  404068:	51 00 00 00 60 45 19 19 	ori $25,$25,17760
  404070:	71 00 00 00 00 0c 1a 0c 	add.d $f12,$f12,$f26
  404078:	42 00 00 00 00 19 1d 19 	addu $25,$25,$29
  404080:	34 00 00 00 00 00 0d 18 	sw $13,0($24)
  404088:	34 00 00 00 00 00 0e 19 	sw $14,0($25)
  404090:	02 00 00 00 dc 9e 10 00 	jal 427b70 <log>
  404098:	a2 00 00 00 0a 00 18 00 	lui $24,10
  4040a0:	51 00 00 00 f0 44 18 18 	ori $24,$24,17648
  4040a8:	42 00 00 00 00 18 1d 18 	addu $24,$24,$29
  4040b0:	28 00 00 00 00 00 19 18 	lw $25,0($24)
  4040b8:	2b 00 00 00 08 00 08 19 	l.d $f8,8($25)
  4040c0:	7b 00 00 00 00 02 00 08 	mov.d $f2,$f8
  4040c8:	75 00 00 00 00 02 00 02 	mul.d $f2,$f2,$f0
  4040d0:	a2 00 00 00 0a 00 18 00 	lui $24,10
  4040d8:	51 00 00 00 10 45 18 18 	ori $24,$24,17680
  4040e0:	42 00 00 00 00 18 1d 18 	addu $24,$24,$29
  4040e8:	28 00 00 00 00 00 19 18 	lw $25,0($24)
  4040f0:	71 00 00 00 00 02 14 02 	add.d $f2,$f2,$f20
  4040f8:	a2 00 00 00 0a 00 18 00 	lui $24,10
  404100:	51 00 00 00 18 45 18 18 	ori $24,$24,17688
  404108:	42 00 00 00 00 18 1d 18 	addu $24,$24,$29
  404110:	37 00 00 00 08 00 02 19 	s.d $f2,8($25)
  404118:	28 00 00 00 00 00 19 18 	lw $25,0($24)
  404120:	2b 00 00 00 08 00 08 19 	l.d $f8,8($25)
  404128:	a2 00 00 00 0a 00 18 00 	lui $24,10
  404130:	51 00 00 00 4c 45 18 18 	ori $24,$24,17740
  404138:	42 00 00 00 00 18 1d 18 	addu $24,$24,$29
  404140:	28 00 00 00 00 00 05 18 	lw $5,0($24)
  404148:	7b 00 00 00 00 02 00 08 	mov.d $f2,$f8
  404150:	a2 00 00 00 0a 00 18 00 	lui $24,10
  404158:	51 00 00 00 10 45 18 18 	ori $24,$24,17680
  404160:	42 00 00 00 00 18 1d 18 	addu $24,$24,$29
  404168:	37 00 00 00 00 00 02 05 	s.d $f2,0($5)
  404170:	28 00 00 00 00 00 19 18 	lw $25,0($24)
  404178:	2b 00 00 00 08 00 08 19 	l.d $f8,8($25)
  404180:	7b 00 00 00 00 06 00 08 	mov.d $f6,$f8
  404188:	75 00 00 00 00 00 06 06 	mul.d $f0,$f6,$f6
  404190:	75 00 00 00 00 02 02 02 	mul.d $f2,$f2,$f2
  404198:	a2 00 00 00 0a 00 18 00 	lui $24,10
  4041a0:	51 00 00 00 48 45 18 18 	ori $24,$24,17736
  4041a8:	42 00 00 00 00 18 1d 18 	addu $24,$24,$29
  4041b0:	28 00 00 00 00 00 04 18 	lw $4,0($24)
  4041b8:	a2 00 00 00 0a 00 19 00 	lui $25,10
  4041c0:	51 00 00 00 5c 45 19 19 	ori $25,$25,17756
  4041c8:	42 00 00 00 00 19 1d 19 	addu $25,$25,$29
  4041d0:	28 00 00 00 00 00 0d 19 	lw $13,0($25)
  4041d8:	73 00 00 00 00 00 00 14 	sub.d $f0,$f20,$f0
  4041e0:	a2 00 00 00 0a 00 18 00 	lui $24,10
  4041e8:	51 00 00 00 60 45 18 18 	ori $24,$24,17760
  4041f0:	42 00 00 00 00 18 1d 18 	addu $24,$24,$29
  4041f8:	28 00 00 00 00 00 0e 18 	lw $14,0($24)
  404200:	95 00 00 00 00 00 00 02 	c.le.d $f2,$f0
  404208:	0b 00 00 00 14 00 00 00 	bc1f 404260 <sweep_+0x1978>
  404210:	a2 00 00 00 0a 00 19 00 	lui $25,10
  404218:	51 00 00 00 20 45 19 19 	ori $25,$25,17696
  404220:	42 00 00 00 00 19 1d 19 	addu $25,$25,$29
  404228:	28 00 00 00 00 00 18 19 	lw $24,0($25)
  404230:	a2 00 00 00 0a 00 19 00 	lui $25,10
  404238:	51 00 00 00 d8 44 19 19 	ori $25,$25,17624
  404240:	42 00 00 00 00 19 1d 19 	addu $25,$25,$29
  404248:	37 00 00 00 08 00 06 18 	s.d $f6,8($24)
  404250:	28 00 00 00 00 00 18 19 	lw $24,0($25)
  404258:	34 00 00 00 04 00 13 18 	sw $19,4($24)
  404260:	43 00 00 00 04 00 10 10 	addiu $16,$16,4
  404268:	43 00 00 00 08 00 11 11 	addiu $17,$17,8
  404270:	43 00 00 00 08 00 12 12 	addiu $18,$18,8
  404278:	43 00 00 00 08 00 14 14 	addiu $20,$20,8
  404280:	43 00 00 00 08 00 1e 1e 	addiu $30,$30,8
  404288:	43 00 00 00 08 00 04 04 	addiu $4,$4,8
  404290:	43 00 00 00 02 00 13 00 	addiu $19,$0,2
  404298:	5c 00 00 00 02 00 02 0e 	slti $2,$14,2
  4042a0:	06 00 00 00 ca 00 00 02 	bne $2,$0,4045d0 <sweep_+0x1ce8>
  4042a8:	42 00 00 00 00 17 10 00 	addu $23,$0,$16
  4042b0:	42 00 00 00 00 16 11 00 	addu $22,$0,$17
  4042b8:	42 00 00 00 00 10 12 00 	addu $16,$0,$18
  4042c0:	42 00 00 00 00 15 14 00 	addu $21,$0,$20
  4042c8:	42 00 00 00 00 14 10 00 	addu $20,$0,$16
  4042d0:	42 00 00 00 00 12 1e 00 	addu $18,$0,$30
  4042d8:	42 00 00 00 00 11 04 00 	addu $17,$0,$4
  4042e0:	2b 00 00 00 00 00 0c 11 	l.d $f12,0($17)
  4042e8:	a2 00 00 00 0a 00 19 00 	lui $25,10
  4042f0:	51 00 00 00 4c 45 19 19 	ori $25,$25,17740
  4042f8:	42 00 00 00 00 19 1d 19 	addu $25,$25,$29
  404300:	a2 00 00 00 0a 00 18 00 	lui $24,10
  404308:	51 00 00 00 5c 45 18 18 	ori $24,$24,17756
  404310:	42 00 00 00 00 18 1d 18 	addu $24,$24,$29
  404318:	34 00 00 00 00 00 05 19 	sw $5,0($25)
  404320:	a2 00 00 00 0a 00 19 00 	lui $25,10
  404328:	51 00 00 00 60 45 19 19 	ori $25,$25,17760
  404330:	71 00 00 00 00 0c 1a 0c 	add.d $f12,$f12,$f26
  404338:	42 00 00 00 00 19 1d 19 	addu $25,$25,$29
  404340:	34 00 00 00 00 00 0d 18 	sw $13,0($24)
  404348:	34 00 00 00 00 00 0e 19 	sw $14,0($25)
  404350:	02 00 00 00 dc 9e 10 00 	jal 427b70 <log>
  404358:	2b 00 00 00 00 00 02 12 	l.d $f2,0($18)
  404360:	75 00 00 00 00 02 00 02 	mul.d $f2,$f2,$f0
  404368:	71 00 00 00 00 02 14 02 	add.d $f2,$f2,$f20
  404370:	a2 00 00 00 0a 00 18 00 	lui $24,10
  404378:	51 00 00 00 4c 45 18 18 	ori $24,$24,17740
  404380:	42 00 00 00 00 18 1d 18 	addu $24,$24,$29
  404388:	37 00 00 00 00 00 02 14 	s.d $f2,0($20)
  404390:	2b 00 00 00 00 00 02 15 	l.d $f2,0($21)
  404398:	28 00 00 00 00 00 05 18 	lw $5,0($24)
  4043a0:	37 00 00 00 00 00 02 05 	s.d $f2,0($5)
  4043a8:	2b 00 00 00 00 00 06 10 	l.d $f6,0($16)
  4043b0:	75 00 00 00 00 00 06 06 	mul.d $f0,$f6,$f6
  4043b8:	75 00 00 00 00 02 02 02 	mul.d $f2,$f2,$f2
  4043c0:	a2 00 00 00 0a 00 19 00 	lui $25,10
  4043c8:	51 00 00 00 5c 45 19 19 	ori $25,$25,17756
  4043d0:	42 00 00 00 00 19 1d 19 	addu $25,$25,$29
  4043d8:	28 00 00 00 00 00 0d 19 	lw $13,0($25)
  4043e0:	73 00 00 00 00 00 00 14 	sub.d $f0,$f20,$f0
  4043e8:	a2 00 00 00 0a 00 18 00 	lui $24,10
  4043f0:	51 00 00 00 60 45 18 18 	ori $24,$24,17760
  4043f8:	42 00 00 00 00 18 1d 18 	addu $24,$24,$29
  404400:	28 00 00 00 00 00 0e 18 	lw $14,0($24)
  404408:	95 00 00 00 00 00 00 02 	c.le.d $f2,$f0
  404410:	0b 00 00 00 06 00 00 00 	bc1f 404430 <sweep_+0x1b48>
  404418:	43 00 00 00 01 00 02 00 	addiu $2,$0,1
  404420:	37 00 00 00 00 00 06 16 	s.d $f6,0($22)
  404428:	34 00 00 00 00 00 02 17 	sw $2,0($23)
  404430:	2b 00 00 00 08 00 0c 11 	l.d $f12,8($17)
  404438:	a2 00 00 00 0a 00 19 00 	lui $25,10
  404440:	51 00 00 00 4c 45 19 19 	ori $25,$25,17740
  404448:	42 00 00 00 00 19 1d 19 	addu $25,$25,$29
  404450:	a2 00 00 00 0a 00 18 00 	lui $24,10
  404458:	51 00 00 00 5c 45 18 18 	ori $24,$24,17756
  404460:	42 00 00 00 00 18 1d 18 	addu $24,$24,$29
  404468:	34 00 00 00 00 00 05 19 	sw $5,0($25)
  404470:	a2 00 00 00 0a 00 19 00 	lui $25,10
  404478:	51 00 00 00 60 45 19 19 	ori $25,$25,17760
  404480:	71 00 00 00 00 0c 1a 0c 	add.d $f12,$f12,$f26
  404488:	42 00 00 00 00 19 1d 19 	addu $25,$25,$29
  404490:	34 00 00 00 00 00 0d 18 	sw $13,0($24)
  404498:	34 00 00 00 00 00 0e 19 	sw $14,0($25)
  4044a0:	02 00 00 00 dc 9e 10 00 	jal 427b70 <log>
  4044a8:	2b 00 00 00 08 00 02 12 	l.d $f2,8($18)
  4044b0:	75 00 00 00 00 02 00 02 	mul.d $f2,$f2,$f0
  4044b8:	71 00 00 00 00 02 14 02 	add.d $f2,$f2,$f20
  4044c0:	a2 00 00 00 0a 00 18 00 	lui $24,10
  4044c8:	51 00 00 00 4c 45 18 18 	ori $24,$24,17740
  4044d0:	42 00 00 00 00 18 1d 18 	addu $24,$24,$29
  4044d8:	37 00 00 00 08 00 02 14 	s.d $f2,8($20)
  4044e0:	2b 00 00 00 08 00 02 15 	l.d $f2,8($21)
  4044e8:	28 00 00 00 00 00 05 18 	lw $5,0($24)
  4044f0:	37 00 00 00 00 00 02 05 	s.d $f2,0($5)
  4044f8:	2b 00 00 00 08 00 06 10 	l.d $f6,8($16)
  404500:	75 00 00 00 00 00 06 06 	mul.d $f0,$f6,$f6
  404508:	75 00 00 00 00 02 02 02 	mul.d $f2,$f2,$f2
  404510:	a2 00 00 00 0a 00 19 00 	lui $25,10
  404518:	51 00 00 00 5c 45 19 19 	ori $25,$25,17756
  404520:	42 00 00 00 00 19 1d 19 	addu $25,$25,$29
  404528:	28 00 00 00 00 00 0d 19 	lw $13,0($25)
  404530:	73 00 00 00 00 00 00 14 	sub.d $f0,$f20,$f0
  404538:	a2 00 00 00 0a 00 18 00 	lui $24,10
  404540:	51 00 00 00 60 45 18 18 	ori $24,$24,17760
  404548:	42 00 00 00 00 18 1d 18 	addu $24,$24,$29
  404550:	28 00 00 00 00 00 0e 18 	lw $14,0($24)
  404558:	95 00 00 00 00 00 00 02 	c.le.d $f2,$f0
  404560:	0b 00 00 00 06 00 00 00 	bc1f 404580 <sweep_+0x1c98>
  404568:	43 00 00 00 01 00 02 00 	addiu $2,$0,1
  404570:	37 00 00 00 08 00 06 16 	s.d $f6,8($22)
  404578:	34 00 00 00 04 00 02 17 	sw $2,4($23)
  404580:	43 00 00 00 08 00 17 17 	addiu $23,$23,8
  404588:	43 00 00 00 10 00 16 16 	addiu $22,$22,16
  404590:	43 00 00 00 10 00 10 10 	addiu $16,$16,16
  404598:	43 00 00 00 10 00 14 14 	addiu $20,$20,16
  4045a0:	43 00 00 00 10 00 15 15 	addiu $21,$21,16
  4045a8:	43 00 00 00 10 00 12 12 	addiu $18,$18,16
  4045b0:	43 00 00 00 10 00 11 11 	addiu $17,$17,16
  4045b8:	43 00 00 00 02 00 13 13 	addiu $19,$19,2
  4045c0:	5b 00 00 00 00 02 13 0e 	slt $2,$14,$19
  4045c8:	05 00 00 00 44 ff 00 02 	beq $2,$0,4042e0 <sweep_+0x19f8>
  4045d0:	a2 00 00 00 0a 00 19 00 	lui $25,10
  4045d8:	51 00 00 00 c0 44 19 19 	ori $25,$25,17600
  4045e0:	42 00 00 00 00 19 1d 19 	addu $25,$25,$29
  4045e8:	28 00 00 00 00 00 18 19 	lw $24,0($25)
  4045f0:	43 00 00 00 01 00 18 18 	addiu $24,$24,1
  4045f8:	a2 00 00 00 0a 00 19 00 	lui $25,10
  404600:	51 00 00 00 c0 44 19 19 	ori $25,$25,17600
  404608:	42 00 00 00 00 19 1d 19 	addu $25,$25,$29
  404610:	34 00 00 00 00 00 18 19 	sw $24,0($25)
  404618:	a2 00 00 00 0a 00 19 00 	lui $25,10
  404620:	51 00 00 00 c0 44 19 19 	ori $25,$25,17600
  404628:	42 00 00 00 00 19 1d 19 	addu $25,$25,$29
  404630:	28 00 00 00 00 00 19 19 	lw $25,0($25)
  404638:	5c 00 00 00 06 00 02 19 	slti $2,$25,6
  404640:	06 00 00 00 d2 fd 00 02 	bne $2,$0,403d90 <sweep_+0x14a8>
  404648:	a2 00 00 00 0a 00 18 00 	lui $24,10
  404650:	51 00 00 00 f8 44 18 18 	ori $24,$24,17656
  404658:	42 00 00 00 00 18 1d 18 	addu $24,$24,$29
  404660:	28 00 00 00 00 00 18 18 	lw $24,0($24)
  404668:	a2 00 00 00 85 10 10 00 	lui $16,4229
  404670:	43 00 00 00 d4 3c 10 10 	addiu $16,$16,15572
  404678:	42 00 00 00 00 05 10 00 	addu $5,$0,$16
  404680:	43 00 00 00 58 80 06 1c 	addiu $6,$28,-32680
  404688:	a2 00 00 00 0a 00 19 00 	lui $25,10
  404690:	51 00 00 00 5c 45 19 19 	ori $25,$25,17756
  404698:	42 00 00 00 00 19 1d 19 	addu $25,$25,$29
  4046a0:	42 00 00 00 00 04 18 0d 	addu $4,$13,$24
  4046a8:	34 00 00 00 00 00 0d 19 	sw $13,0($25)
  4046b0:	02 00 00 00 32 79 10 00 	jal 41e4c8 <trngv_>
  4046b8:	a2 00 00 00 0a 00 18 00 	lui $24,10
  4046c0:	51 00 00 00 5c 45 18 18 	ori $24,$24,17756
  4046c8:	42 00 00 00 00 18 1d 18 	addu $24,$24,$29
  4046d0:	28 00 00 00 00 00 0d 18 	lw $13,0($24)
  4046d8:	a2 00 00 00 0a 00 19 00 	lui $25,10
  4046e0:	51 00 00 00 00 45 19 19 	ori $25,$25,17664
  4046e8:	42 00 00 00 00 19 1d 19 	addu $25,$25,$29
  4046f0:	28 00 00 00 00 00 19 19 	lw $25,0($25)
  4046f8:	42 00 00 00 00 05 10 00 	addu $5,$0,$16
  404700:	43 00 00 00 60 80 06 1c 	addiu $6,$28,-32672
  404708:	42 00 00 00 00 04 19 0d 	addu $4,$13,$25
  404710:	02 00 00 00 32 79 10 00 	jal 41e4c8 <trngv_>
  404718:	28 00 00 00 00 00 0e 10 	lw $14,0($16)
  404720:	a2 00 00 00 0a 00 18 00 	lui $24,10
  404728:	51 00 00 00 5c 45 18 18 	ori $24,$24,17756
  404730:	42 00 00 00 00 18 1d 18 	addu $24,$24,$29
  404738:	28 00 00 00 00 00 0d 18 	lw $13,0($24)
  404740:	43 00 00 00 01 00 13 00 	addiu $19,$0,1
  404748:	07 00 00 00 38 03 00 0e 	blez $14,405430 <sweep_+0x2b48>
  404750:	a2 00 00 00 04 00 06 00 	lui $6,4
  404758:	51 00 00 00 f8 81 06 06 	ori $6,$6,33272
  404760:	a2 00 00 00 0a 00 02 00 	lui $2,10
  404768:	51 00 00 00 90 44 02 02 	ori $2,$2,17552
  404770:	42 00 00 00 00 09 02 0d 	addu $9,$13,$2
  404778:	2b 00 00 00 90 80 14 1c 	l.d $f20,-32624($28)
  404780:	a2 00 00 00 06 00 04 00 	lui $4,6
  404788:	51 00 00 00 98 02 04 04 	ori $4,$4,664
  404790:	a2 00 00 00 05 00 05 00 	lui $5,5
  404798:	51 00 00 00 28 02 05 05 	ori $5,$5,552
  4047a0:	a2 00 00 00 05 00 03 00 	lui $3,5
  4047a8:	51 00 00 00 60 82 03 03 	ori $3,$3,33376
  4047b0:	a2 00 00 00 0a 00 02 00 	lui $2,10
  4047b8:	42 00 00 00 00 16 02 0d 	addu $22,$13,$2
  4047c0:	42 00 00 00 00 04 04 0d 	addu $4,$13,$4
  4047c8:	a2 00 00 00 0a 00 19 00 	lui $25,10
  4047d0:	51 00 00 00 28 45 19 19 	ori $25,$25,17704
  4047d8:	42 00 00 00 00 19 1d 19 	addu $25,$25,$29
  4047e0:	34 00 00 00 00 00 04 19 	sw $4,0($25)
  4047e8:	a2 00 00 00 0a 00 18 00 	lui $24,10
  4047f0:	51 00 00 00 28 45 18 18 	ori $24,$24,17704
  4047f8:	42 00 00 00 00 18 1d 18 	addu $24,$24,$29
  404800:	28 00 00 00 00 00 18 18 	lw $24,0($24)
  404808:	42 00 00 00 00 03 03 0d 	addu $3,$13,$3
  404810:	a2 00 00 00 0a 00 19 00 	lui $25,10
  404818:	51 00 00 00 40 45 19 19 	ori $25,$25,17728
  404820:	42 00 00 00 00 19 1d 19 	addu $25,$25,$29
  404828:	42 00 00 00 00 05 05 0d 	addu $5,$13,$5
  404830:	42 00 00 00 00 17 06 0d 	addu $23,$13,$6
  404838:	43 00 00 00 08 00 08 18 	addiu $8,$24,8
  404840:	34 00 00 00 00 00 03 19 	sw $3,0($25)
  404848:	a2 00 00 00 0a 00 18 00 	lui $24,10
  404850:	51 00 00 00 40 45 18 18 	ori $24,$24,17728
  404858:	42 00 00 00 00 18 1d 18 	addu $24,$24,$29
  404860:	28 00 00 00 00 00 18 18 	lw $24,0($24)
  404868:	a2 00 00 00 0a 00 19 00 	lui $25,10
  404870:	51 00 00 00 38 45 19 19 	ori $25,$25,17720
  404878:	42 00 00 00 00 19 1d 19 	addu $25,$25,$29
  404880:	43 00 00 00 08 00 07 18 	addiu $7,$24,8
  404888:	34 00 00 00 00 00 05 19 	sw $5,0($25)
  404890:	a2 00 00 00 0a 00 18 00 	lui $24,10
  404898:	51 00 00 00 38 45 18 18 	ori $24,$24,17720
  4048a0:	42 00 00 00 00 18 1d 18 	addu $24,$24,$29
  4048a8:	28 00 00 00 00 00 18 18 	lw $24,0($24)
  4048b0:	a2 00 00 00 0a 00 19 00 	lui $25,10
  4048b8:	51 00 00 00 e0 44 19 19 	ori $25,$25,17632
  4048c0:	42 00 00 00 00 19 1d 19 	addu $25,$25,$29
  4048c8:	28 00 00 00 00 00 19 19 	lw $25,0($25)
  4048d0:	43 00 00 00 08 00 05 18 	addiu $5,$24,8
  4048d8:	a2 00 00 00 0a 00 18 00 	lui $24,10
  4048e0:	51 00 00 00 d8 44 18 18 	ori $24,$24,17624
  4048e8:	42 00 00 00 00 18 1d 18 	addu $24,$24,$29
  4048f0:	28 00 00 00 00 00 18 18 	lw $24,0($24)
  4048f8:	43 00 00 00 08 00 14 00 	addiu $20,$0,8
  404900:	43 00 00 00 08 00 04 19 	addiu $4,$25,8
  404908:	43 00 00 00 04 00 1e 18 	addiu $30,$24,4
  404910:	28 00 00 00 00 00 02 1e 	lw $2,0($30)
  404918:	05 00 00 00 2a 02 00 02 	beq $2,$0,4051c8 <sweep_+0x28e0>
  404920:	a2 00 00 00 0a 00 19 00 	lui $25,10
  404928:	51 00 00 00 20 45 19 19 	ori $25,$25,17696
  404930:	42 00 00 00 00 19 1d 19 	addu $25,$25,$29
  404938:	28 00 00 00 00 00 19 19 	lw $25,0($25)
  404940:	a2 00 00 00 0a 00 18 00 	lui $24,10
  404948:	51 00 00 00 e8 44 18 18 	ori $24,$24,17640
  404950:	42 00 00 00 00 18 1d 18 	addu $24,$24,$29
  404958:	28 00 00 00 00 00 18 18 	lw $24,0($24)
  404960:	42 00 00 00 00 03 14 19 	addu $3,$25,$20
  404968:	2b 00 00 00 00 00 04 03 	l.d $f4,0($3)
  404970:	42 00 00 00 00 02 18 0d 	addu $2,$13,$24
  404978:	42 00 00 00 00 12 14 02 	addu $18,$2,$20
  404980:	2b 00 00 00 00 00 00 12 	l.d $f0,0($18)
  404988:	75 00 00 00 00 00 04 00 	mul.d $f0,$f0,$f4
  404990:	2b 00 00 00 00 00 02 04 	l.d $f2,0($4)
  404998:	75 00 00 00 00 02 04 02 	mul.d $f2,$f2,$f4
  4049a0:	37 00 00 00 00 00 00 17 	s.d $f0,0($23)
  4049a8:	2b 00 00 00 00 00 04 03 	l.d $f4,0($3)
  4049b0:	75 00 00 00 00 00 04 04 	mul.d $f0,$f4,$f4
  4049b8:	a2 00 00 00 0a 00 19 00 	lui $25,10
  4049c0:	51 00 00 00 c8 44 19 19 	ori $25,$25,17608
  4049c8:	42 00 00 00 00 19 1d 19 	addu $25,$25,$29
  4049d0:	28 00 00 00 00 00 18 19 	lw $24,0($25)
  4049d8:	71 00 00 00 00 16 02 16 	add.d $f22,$f22,$f2
  4049e0:	43 00 00 00 01 00 18 18 	addiu $24,$24,1
  4049e8:	73 00 00 00 00 0c 00 14 	sub.d $f12,$f20,$f0
  4049f0:	a2 00 00 00 0a 00 19 00 	lui $25,10
  4049f8:	51 00 00 00 c8 44 19 19 	ori $25,$25,17608
  404a00:	42 00 00 00 00 19 1d 19 	addu $25,$25,$29
  404a08:	34 00 00 00 00 00 18 19 	sw $24,0($25)
  404a10:	97 00 00 00 00 02 00 0c 	sqrt.d $f2,$f12
  404a18:	91 00 00 00 00 00 02 02 	c.eq.d $f2,$f2
  404a20:	37 00 00 00 00 00 04 09 	s.d $f4,0($9)
  404a28:	0c 00 00 00 74 00 00 00 	bc1t 404c00 <sweep_+0x2318>
  404a30:	a2 00 00 00 0a 00 19 00 	lui $25,10
  404a38:	51 00 00 00 48 45 19 19 	ori $25,$25,17736
  404a40:	42 00 00 00 00 19 1d 19 	addu $25,$25,$29
  404a48:	a2 00 00 00 0a 00 18 00 	lui $24,10
  404a50:	51 00 00 00 4c 45 18 18 	ori $24,$24,17740
  404a58:	42 00 00 00 00 18 1d 18 	addu $24,$24,$29
  404a60:	34 00 00 00 00 00 04 19 	sw $4,0($25)
  404a68:	a2 00 00 00 0a 00 19 00 	lui $25,10
  404a70:	51 00 00 00 50 45 19 19 	ori $25,$25,17744
  404a78:	42 00 00 00 00 19 1d 19 	addu $25,$25,$29
  404a80:	34 00 00 00 00 00 05 18 	sw $5,0($24)
  404a88:	a2 00 00 00 0a 00 18 00 	lui $24,10
  404a90:	51 00 00 00 54 45 18 18 	ori $24,$24,17748
  404a98:	42 00 00 00 00 18 1d 18 	addu $24,$24,$29
  404aa0:	34 00 00 00 00 00 07 19 	sw $7,0($25)
  404aa8:	a2 00 00 00 0a 00 19 00 	lui $25,10
  404ab0:	51 00 00 00 58 45 19 19 	ori $25,$25,17752
  404ab8:	42 00 00 00 00 19 1d 19 	addu $25,$25,$29
  404ac0:	34 00 00 00 00 00 08 18 	sw $8,0($24)
  404ac8:	a2 00 00 00 0a 00 18 00 	lui $24,10
  404ad0:	51 00 00 00 5c 45 18 18 	ori $24,$24,17756
  404ad8:	42 00 00 00 00 18 1d 18 	addu $24,$24,$29
  404ae0:	34 00 00 00 00 00 09 19 	sw $9,0($25)
  404ae8:	a2 00 00 00 0a 00 19 00 	lui $25,10
  404af0:	51 00 00 00 60 45 19 19 	ori $25,$25,17760
  404af8:	42 00 00 00 00 19 1d 19 	addu $25,$25,$29
  404b00:	34 00 00 00 00 00 0d 18 	sw $13,0($24)
  404b08:	34 00 00 00 00 00 0e 19 	sw $14,0($25)
  404b10:	02 00 00 00 80 9d 10 00 	jal 427600 <sqrt>
  404b18:	7b 00 00 00 00 02 00 00 	mov.d $f2,$f0
  404b20:	a2 00 00 00 0a 00 18 00 	lui $24,10
  404b28:	51 00 00 00 60 45 18 18 	ori $24,$24,17760
  404b30:	42 00 00 00 00 18 1d 18 	addu $24,$24,$29
  404b38:	28 00 00 00 00 00 0e 18 	lw $14,0($24)
  404b40:	a2 00 00 00 0a 00 19 00 	lui $25,10
  404b48:	51 00 00 00 5c 45 19 19 	ori $25,$25,17756
  404b50:	42 00 00 00 00 19 1d 19 	addu $25,$25,$29
  404b58:	28 00 00 00 00 00 0d 19 	lw $13,0($25)
  404b60:	a2 00 00 00 0a 00 18 00 	lui $24,10
  404b68:	51 00 00 00 58 45 18 18 	ori $24,$24,17752
  404b70:	42 00 00 00 00 18 1d 18 	addu $24,$24,$29
  404b78:	28 00 00 00 00 00 09 18 	lw $9,0($24)
  404b80:	a2 00 00 00 0a 00 19 00 	lui $25,10
  404b88:	51 00 00 00 54 45 19 19 	ori $25,$25,17748
  404b90:	42 00 00 00 00 19 1d 19 	addu $25,$25,$29
  404b98:	28 00 00 00 00 00 08 19 	lw $8,0($25)
  404ba0:	a2 00 00 00 0a 00 18 00 	lui $24,10
  404ba8:	51 00 00 00 50 45 18 18 	ori $24,$24,17744
  404bb0:	42 00 00 00 00 18 1d 18 	addu $24,$24,$29
  404bb8:	28 00 00 00 00 00 07 18 	lw $7,0($24)
  404bc0:	a2 00 00 00 0a 00 19 00 	lui $25,10
  404bc8:	51 00 00 00 4c 45 19 19 	ori $25,$25,17740
  404bd0:	42 00 00 00 00 19 1d 19 	addu $25,$25,$29
  404bd8:	28 00 00 00 00 00 05 19 	lw $5,0($25)
  404be0:	a2 00 00 00 0a 00 18 00 	lui $24,10
  404be8:	51 00 00 00 48 45 18 18 	ori $24,$24,17736
  404bf0:	42 00 00 00 00 18 1d 18 	addu $24,$24,$29
  404bf8:	28 00 00 00 00 00 04 18 	lw $4,0($24)
  404c00:	2b 00 00 00 00 00 00 12 	l.d $f0,0($18)
  404c08:	75 00 00 00 00 00 02 00 	mul.d $f0,$f0,$f2
  404c10:	a2 00 00 00 03 00 10 00 	lui $16,3
  404c18:	51 00 00 00 48 01 10 10 	ori $16,$16,328
  404c20:	42 00 00 00 00 10 10 0d 	addu $16,$13,$16
  404c28:	42 00 00 00 00 10 14 10 	addu $16,$16,$20
  404c30:	37 00 00 00 00 00 00 12 	s.d $f0,0($18)
  404c38:	2b 00 00 00 00 00 02 10 	l.d $f2,0($16)
  404c40:	71 00 00 00 00 02 1c 02 	add.d $f2,$f2,$f28
  404c48:	37 00 00 00 00 00 02 10 	s.d $f2,0($16)
  404c50:	2b 00 00 00 00 00 00 12 	l.d $f0,0($18)
  404c58:	75 00 00 00 00 00 02 00 	mul.d $f0,$f0,$f2
  404c60:	a2 00 00 00 0a 00 19 00 	lui $25,10
  404c68:	51 00 00 00 28 45 19 19 	ori $25,$25,17704
  404c70:	42 00 00 00 00 19 1d 19 	addu $25,$25,$29
  404c78:	28 00 00 00 00 00 19 19 	lw $25,0($25)
  404c80:	a2 00 00 00 0a 00 18 00 	lui $24,10
  404c88:	51 00 00 00 18 45 18 18 	ori $24,$24,17688
  404c90:	42 00 00 00 00 18 1d 18 	addu $24,$24,$29
  404c98:	42 00 00 00 00 02 14 19 	addu $2,$25,$20
  404ca0:	37 00 00 00 00 00 00 02 	s.d $f0,0($2)
  404ca8:	28 00 00 00 00 00 18 18 	lw $24,0($24)
  404cb0:	a2 00 00 00 0a 00 19 00 	lui $25,10
  404cb8:	51 00 00 00 48 45 19 19 	ori $25,$25,17736
  404cc0:	42 00 00 00 00 19 1d 19 	addu $25,$25,$29
  404cc8:	42 00 00 00 00 02 14 18 	addu $2,$24,$20
  404cd0:	2b 00 00 00 00 00 0c 02 	l.d $f12,0($2)
  404cd8:	a2 00 00 00 0a 00 18 00 	lui $24,10
  404ce0:	51 00 00 00 4c 45 18 18 	ori $24,$24,17740
  404ce8:	42 00 00 00 00 18 1d 18 	addu $24,$24,$29
  404cf0:	34 00 00 00 00 00 04 19 	sw $4,0($25)
  404cf8:	a2 00 00 00 0a 00 19 00 	lui $25,10
  404d00:	51 00 00 00 50 45 19 19 	ori $25,$25,17744
  404d08:	42 00 00 00 00 19 1d 19 	addu $25,$25,$29
  404d10:	34 00 00 00 00 00 05 18 	sw $5,0($24)
  404d18:	a2 00 00 00 0a 00 18 00 	lui $24,10
  404d20:	51 00 00 00 54 45 18 18 	ori $24,$24,17748
  404d28:	42 00 00 00 00 18 1d 18 	addu $24,$24,$29
  404d30:	34 00 00 00 00 00 07 19 	sw $7,0($25)
  404d38:	a2 00 00 00 0a 00 19 00 	lui $25,10
  404d40:	51 00 00 00 58 45 19 19 	ori $25,$25,17752
  404d48:	42 00 00 00 00 19 1d 19 	addu $25,$25,$29
  404d50:	34 00 00 00 00 00 08 18 	sw $8,0($24)
  404d58:	a2 00 00 00 0a 00 18 00 	lui $24,10
  404d60:	51 00 00 00 5c 45 18 18 	ori $24,$24,17756
  404d68:	42 00 00 00 00 18 1d 18 	addu $24,$24,$29
  404d70:	34 00 00 00 00 00 09 19 	sw $9,0($25)
  404d78:	a2 00 00 00 0a 00 19 00 	lui $25,10
  404d80:	51 00 00 00 60 45 19 19 	ori $25,$25,17760
  404d88:	42 00 00 00 00 19 1d 19 	addu $25,$25,$29
  404d90:	34 00 00 00 00 00 0d 18 	sw $13,0($24)
  404d98:	34 00 00 00 00 00 0e 19 	sw $14,0($25)
  404da0:	02 00 00 00 70 a1 10 00 	jal 4285c0 <tan>
  404da8:	a2 00 00 00 0a 00 18 00 	lui $24,10
  404db0:	51 00 00 00 f0 44 18 18 	ori $24,$24,17648
  404db8:	42 00 00 00 00 18 1d 18 	addu $24,$24,$29
  404dc0:	28 00 00 00 00 00 18 18 	lw $24,0($24)
  404dc8:	a2 00 00 00 0a 00 19 00 	lui $25,10
  404dd0:	51 00 00 00 58 45 19 19 	ori $25,$25,17752
  404dd8:	42 00 00 00 00 19 1d 19 	addu $25,$25,$29
  404de0:	75 00 00 00 00 02 00 00 	mul.d $f2,$f0,$f0
  404de8:	42 00 00 00 00 15 14 18 	addu $21,$24,$20
  404df0:	37 00 00 00 00 00 00 15 	s.d $f0,0($21)
  404df8:	28 00 00 00 00 00 09 19 	lw $9,0($25)
  404e00:	a2 00 00 00 0a 00 18 00 	lui $24,10
  404e08:	51 00 00 00 30 45 18 18 	ori $24,$24,17712
  404e10:	42 00 00 00 00 18 1d 18 	addu $24,$24,$29
  404e18:	37 00 00 00 00 00 00 09 	s.d $f0,0($9)
  404e20:	28 00 00 00 00 00 18 18 	lw $24,0($24)
  404e28:	a2 00 00 00 0a 00 19 00 	lui $25,10
  404e30:	51 00 00 00 48 45 19 19 	ori $25,$25,17736
  404e38:	42 00 00 00 00 19 1d 19 	addu $25,$25,$29
  404e40:	42 00 00 00 00 11 14 18 	addu $17,$24,$20
  404e48:	37 00 00 00 00 00 02 11 	s.d $f2,0($17)
  404e50:	2b 00 00 00 00 00 02 10 	l.d $f2,0($16)
  404e58:	a2 00 00 00 0a 00 18 00 	lui $24,10
  404e60:	51 00 00 00 4c 45 18 18 	ori $24,$24,17740
  404e68:	42 00 00 00 00 18 1d 18 	addu $24,$24,$29
  404e70:	37 00 00 00 00 00 02 09 	s.d $f2,0($9)
  404e78:	28 00 00 00 00 00 04 19 	lw $4,0($25)
  404e80:	28 00 00 00 00 00 05 18 	lw $5,0($24)
  404e88:	75 00 00 00 00 00 02 02 	mul.d $f0,$f2,$f2
  404e90:	a2 00 00 00 0a 00 19 00 	lui $25,10
  404e98:	51 00 00 00 50 45 19 19 	ori $25,$25,17744
  404ea0:	42 00 00 00 00 19 1d 19 	addu $25,$25,$29
  404ea8:	28 00 00 00 00 00 07 19 	lw $7,0($25)
  404eb0:	a2 00 00 00 0a 00 18 00 	lui $24,10
  404eb8:	51 00 00 00 54 45 18 18 	ori $24,$24,17748
  404ec0:	42 00 00 00 00 18 1d 18 	addu $24,$24,$29
  404ec8:	28 00 00 00 00 00 08 18 	lw $8,0($24)
  404ed0:	a2 00 00 00 0a 00 19 00 	lui $25,10
  404ed8:	51 00 00 00 5c 45 19 19 	ori $25,$25,17756
  404ee0:	42 00 00 00 00 19 1d 19 	addu $25,$25,$29
  404ee8:	73 00 00 00 00 0c 00 14 	sub.d $f12,$f20,$f0
  404ef0:	28 00 00 00 00 00 0d 19 	lw $13,0($25)
  404ef8:	a2 00 00 00 0a 00 18 00 	lui $24,10
  404f00:	51 00 00 00 60 45 18 18 	ori $24,$24,17760
  404f08:	42 00 00 00 00 18 1d 18 	addu $24,$24,$29
  404f10:	97 00 00 00 00 00 00 0c 	sqrt.d $f0,$f12
  404f18:	28 00 00 00 00 00 0e 18 	lw $14,0($24)
  404f20:	91 00 00 00 00 00 00 00 	c.eq.d $f0,$f0
  404f28:	0c 00 00 00 72 00 00 00 	bc1t 4050f8 <sweep_+0x2810>
  404f30:	a2 00 00 00 0a 00 19 00 	lui $25,10
  404f38:	51 00 00 00 48 45 19 19 	ori $25,$25,17736
  404f40:	42 00 00 00 00 19 1d 19 	addu $25,$25,$29
  404f48:	a2 00 00 00 0a 00 18 00 	lui $24,10
  404f50:	51 00 00 00 4c 45 18 18 	ori $24,$24,17740
  404f58:	42 00 00 00 00 18 1d 18 	addu $24,$24,$29
  404f60:	34 00 00 00 00 00 04 19 	sw $4,0($25)
  404f68:	a2 00 00 00 0a 00 19 00 	lui $25,10
  404f70:	51 00 00 00 50 45 19 19 	ori $25,$25,17744
  404f78:	42 00 00 00 00 19 1d 19 	addu $25,$25,$29
  404f80:	34 00 00 00 00 00 05 18 	sw $5,0($24)
  404f88:	a2 00 00 00 0a 00 18 00 	lui $24,10
  404f90:	51 00 00 00 54 45 18 18 	ori $24,$24,17748
  404f98:	42 00 00 00 00 18 1d 18 	addu $24,$24,$29
  404fa0:	34 00 00 00 00 00 07 19 	sw $7,0($25)
  404fa8:	a2 00 00 00 0a 00 19 00 	lui $25,10
  404fb0:	51 00 00 00 58 45 19 19 	ori $25,$25,17752
  404fb8:	42 00 00 00 00 19 1d 19 	addu $25,$25,$29
  404fc0:	34 00 00 00 00 00 08 18 	sw $8,0($24)
  404fc8:	a2 00 00 00 0a 00 18 00 	lui $24,10
  404fd0:	51 00 00 00 5c 45 18 18 	ori $24,$24,17756
  404fd8:	42 00 00 00 00 18 1d 18 	addu $24,$24,$29
  404fe0:	34 00 00 00 00 00 09 19 	sw $9,0($25)
  404fe8:	a2 00 00 00 0a 00 19 00 	lui $25,10
  404ff0:	51 00 00 00 60 45 19 19 	ori $25,$25,17760
  404ff8:	42 00 00 00 00 19 1d 19 	addu $25,$25,$29
  405000:	34 00 00 00 00 00 0d 18 	sw $13,0($24)
  405008:	34 00 00 00 00 00 0e 19 	sw $14,0($25)
  405010:	02 00 00 00 80 9d 10 00 	jal 427600 <sqrt>
  405018:	a2 00 00 00 0a 00 18 00 	lui $24,10
  405020:	51 00 00 00 60 45 18 18 	ori $24,$24,17760
  405028:	42 00 00 00 00 18 1d 18 	addu $24,$24,$29
  405030:	28 00 00 00 00 00 0e 18 	lw $14,0($24)
  405038:	a2 00 00 00 0a 00 19 00 	lui $25,10
  405040:	51 00 00 00 5c 45 19 19 	ori $25,$25,17756
  405048:	42 00 00 00 00 19 1d 19 	addu $25,$25,$29
  405050:	28 00 00 00 00 00 0d 19 	lw $13,0($25)
  405058:	a2 00 00 00 0a 00 18 00 	lui $24,10
  405060:	51 00 00 00 58 45 18 18 	ori $24,$24,17752
  405068:	42 00 00 00 00 18 1d 18 	addu $24,$24,$29
  405070:	28 00 00 00 00 00 09 18 	lw $9,0($24)
  405078:	a2 00 00 00 0a 00 19 00 	lui $25,10
  405080:	51 00 00 00 54 45 19 19 	ori $25,$25,17748
  405088:	42 00 00 00 00 19 1d 19 	addu $25,$25,$29
  405090:	28 00 00 00 00 00 08 19 	lw $8,0($25)
  405098:	a2 00 00 00 0a 00 18 00 	lui $24,10
  4050a0:	51 00 00 00 50 45 18 18 	ori $24,$24,17744
  4050a8:	42 00 00 00 00 18 1d 18 	addu $24,$24,$29
  4050b0:	28 00 00 00 00 00 07 18 	lw $7,0($24)
  4050b8:	a2 00 00 00 0a 00 19 00 	lui $25,10
  4050c0:	51 00 00 00 4c 45 19 19 	ori $25,$25,17740
  4050c8:	42 00 00 00 00 19 1d 19 	addu $25,$25,$29
  4050d0:	28 00 00 00 00 00 05 19 	lw $5,0($25)
  4050d8:	a2 00 00 00 0a 00 18 00 	lui $24,10
  4050e0:	51 00 00 00 48 45 18 18 	ori $24,$24,17736
  4050e8:	42 00 00 00 00 18 1d 18 	addu $24,$24,$29
  4050f0:	28 00 00 00 00 00 04 18 	lw $4,0($24)
  4050f8:	2b 00 00 00 00 00 02 12 	l.d $f2,0($18)
  405100:	75 00 00 00 00 02 00 02 	mul.d $f2,$f2,$f0
  405108:	2b 00 00 00 00 00 00 11 	l.d $f0,0($17)
  405110:	71 00 00 00 00 00 14 00 	add.d $f0,$f0,$f20
  405118:	77 00 00 00 00 02 00 02 	div.d $f2,$f2,$f0
  405120:	37 00 00 00 00 00 02 12 	s.d $f2,0($18)
  405128:	2b 00 00 00 00 00 00 11 	l.d $f0,0($17)
  405130:	73 00 00 00 00 00 00 14 	sub.d $f0,$f20,$f0
  405138:	75 00 00 00 00 02 00 02 	mul.d $f2,$f2,$f0
  405140:	a2 00 00 00 0a 00 19 00 	lui $25,10
  405148:	51 00 00 00 38 45 19 19 	ori $25,$25,17720
  405150:	42 00 00 00 00 19 1d 19 	addu $25,$25,$29
  405158:	28 00 00 00 00 00 19 19 	lw $25,0($25)
  405160:	42 00 00 00 00 02 14 19 	addu $2,$25,$20
  405168:	37 00 00 00 00 00 02 02 	s.d $f2,0($2)
  405170:	2b 00 00 00 00 00 02 12 	l.d $f2,0($18)
  405178:	71 00 00 00 00 02 02 02 	add.d $f2,$f2,$f2
  405180:	2b 00 00 00 00 00 00 15 	l.d $f0,0($21)
  405188:	75 00 00 00 00 02 00 02 	mul.d $f2,$f2,$f0
  405190:	a2 00 00 00 0a 00 18 00 	lui $24,10
  405198:	51 00 00 00 40 45 18 18 	ori $24,$24,17728
  4051a0:	42 00 00 00 00 18 1d 18 	addu $24,$24,$29
  4051a8:	28 00 00 00 00 00 18 18 	lw $24,0($24)
  4051b0:	42 00 00 00 00 02 14 18 	addu $2,$24,$20
  4051b8:	37 00 00 00 00 00 02 02 	s.d $f2,0($2)
  4051c0:	01 00 00 00 f8 14 10 00 	j 4053e0 <sweep_+0x2af8>
  4051c8:	28 00 00 00 84 44 02 16 	lw $2,17540($22)
  4051d0:	28 00 00 00 80 44 03 16 	lw $3,17536($22)
  4051d8:	a2 00 00 00 e1 0f 19 00 	lui $25,4065
  4051e0:	43 00 00 00 88 cd 19 19 	addiu $25,$25,-12920
  4051e8:	55 00 00 00 04 02 02 00 	sll $2,$2,0x4
  4051f0:	42 00 00 00 00 03 02 03 	addu $3,$3,$2
  4051f8:	55 00 00 00 09 02 03 00 	sll $2,$3,0x9
  405200:	42 00 00 00 00 02 03 02 	addu $2,$2,$3
  405208:	55 00 00 00 03 02 02 00 	sll $2,$2,0x3
  405210:	45 00 00 00 00 02 03 02 	subu $2,$2,$3
  405218:	55 00 00 00 02 02 02 00 	sll $2,$2,0x2
  405220:	42 00 00 00 00 02 13 02 	addu $2,$2,$19
  405228:	55 00 00 00 03 02 02 00 	sll $2,$2,0x3
  405230:	42 00 00 00 00 02 19 02 	addu $2,$2,$25
  405238:	2b 00 00 00 00 00 00 02 	l.d $f0,0($2)
  405240:	37 00 00 00 00 00 00 17 	s.d $f0,0($23)
  405248:	28 00 00 00 84 44 03 16 	lw $3,17540($22)
  405250:	28 00 00 00 80 44 02 16 	lw $2,17536($22)
  405258:	a2 00 00 00 e1 0f 18 00 	lui $24,4065
  405260:	43 00 00 00 c0 4d 18 18 	addiu $24,$24,19904
  405268:	55 00 00 00 04 03 03 00 	sll $3,$3,0x4
  405270:	42 00 00 00 00 02 03 02 	addu $2,$2,$3
  405278:	55 00 00 00 02 03 02 00 	sll $3,$2,0x2
  405280:	55 00 00 00 0b 02 02 00 	sll $2,$2,0xb
  405288:	42 00 00 00 00 02 03 02 	addu $2,$2,$3
  405290:	55 00 00 00 03 02 02 00 	sll $2,$2,0x3
  405298:	45 00 00 00 00 02 03 02 	subu $2,$2,$3
  4052a0:	42 00 00 00 00 02 13 02 	addu $2,$2,$19
  4052a8:	55 00 00 00 03 02 02 00 	sll $2,$2,0x3
  4052b0:	42 00 00 00 00 02 18 02 	addu $2,$2,$24
  4052b8:	2b 00 00 00 00 00 00 02 	l.d $f0,0($2)
  4052c0:	7d 00 00 00 00 00 00 00 	neg.d $f0,$f0
  4052c8:	37 00 00 00 00 00 00 05 	s.d $f0,0($5)
  4052d0:	28 00 00 00 84 44 03 16 	lw $3,17540($22)
  4052d8:	28 00 00 00 80 44 02 16 	lw $2,17536($22)
  4052e0:	a2 00 00 00 e2 0f 19 00 	lui $25,4066
  4052e8:	43 00 00 00 f8 cd 19 19 	addiu $25,$25,-12808
  4052f0:	55 00 00 00 04 03 03 00 	sll $3,$3,0x4
  4052f8:	42 00 00 00 00 02 03 02 	addu $2,$2,$3
  405300:	55 00 00 00 02 03 02 00 	sll $3,$2,0x2
  405308:	55 00 00 00 0b 02 02 00 	sll $2,$2,0xb
  405310:	42 00 00 00 00 02 03 02 	addu $2,$2,$3
  405318:	55 00 00 00 03 02 02 00 	sll $2,$2,0x3
  405320:	45 00 00 00 00 02 03 02 	subu $2,$2,$3
  405328:	42 00 00 00 00 02 13 02 	addu $2,$2,$19
  405330:	55 00 00 00 03 02 02 00 	sll $2,$2,0x3
  405338:	42 00 00 00 00 02 19 02 	addu $2,$2,$25
  405340:	2b 00 00 00 00 00 00 02 	l.d $f0,0($2)
  405348:	7d 00 00 00 00 00 00 00 	neg.d $f0,$f0
  405350:	37 00 00 00 00 00 00 07 	s.d $f0,0($7)
  405358:	28 00 00 00 84 44 03 16 	lw $3,17540($22)
  405360:	28 00 00 00 80 44 02 16 	lw $2,17536($22)
  405368:	a2 00 00 00 e2 0f 18 00 	lui $24,4066
  405370:	43 00 00 00 30 4e 18 18 	addiu $24,$24,20016
  405378:	55 00 00 00 04 03 03 00 	sll $3,$3,0x4
  405380:	42 00 00 00 00 02 03 02 	addu $2,$2,$3
  405388:	55 00 00 00 02 03 02 00 	sll $3,$2,0x2
  405390:	55 00 00 00 0b 02 02 00 	sll $2,$2,0xb
  405398:	42 00 00 00 00 02 03 02 	addu $2,$2,$3
  4053a0:	55 00 00 00 03 02 02 00 	sll $2,$2,0x3
  4053a8:	45 00 00 00 00 02 03 02 	subu $2,$2,$3
  4053b0:	42 00 00 00 00 02 13 02 	addu $2,$2,$19
  4053b8:	55 00 00 00 03 02 02 00 	sll $2,$2,0x3
  4053c0:	42 00 00 00 00 02 18 02 	addu $2,$2,$24
  4053c8:	2b 00 00 00 00 00 00 02 	l.d $f0,0($2)
  4053d0:	7d 00 00 00 00 00 00 00 	neg.d $f0,$f0
  4053d8:	37 00 00 00 00 00 00 08 	s.d $f0,0($8)
  4053e0:	43 00 00 00 08 00 08 08 	addiu $8,$8,8
  4053e8:	43 00 00 00 08 00 07 07 	addiu $7,$7,8
  4053f0:	43 00 00 00 08 00 05 05 	addiu $5,$5,8
  4053f8:	43 00 00 00 08 00 17 17 	addiu $23,$23,8
  405400:	43 00 00 00 08 00 14 14 	addiu $20,$20,8
  405408:	43 00 00 00 08 00 04 04 	addiu $4,$4,8
  405410:	43 00 00 00 04 00 1e 1e 	addiu $30,$30,4
  405418:	43 00 00 00 01 00 13 13 	addiu $19,$19,1
  405420:	5b 00 00 00 00 02 13 0e 	slt $2,$14,$19
  405428:	05 00 00 00 38 fd 00 02 	beq $2,$0,404910 <sweep_+0x2028>
  405430:	a2 00 00 00 04 00 04 00 	lui $4,4
  405438:	51 00 00 00 f8 81 04 04 	ori $4,$4,33272
  405440:	a2 00 00 00 06 00 06 00 	lui $6,6
  405448:	51 00 00 00 d8 82 06 06 	ori $6,$6,33496
  405450:	42 00 00 00 00 04 04 0d 	addu $4,$13,$4
  405458:	42 00 00 00 00 05 0d 00 	addu $5,$0,$13
  405460:	42 00 00 00 00 06 06 0d 	addu $6,$13,$6
  405468:	a2 00 00 00 85 10 10 00 	lui $16,4229
  405470:	43 00 00 00 d4 3c 10 10 	addiu $16,$16,15572
  405478:	42 00 00 00 00 07 10 00 	addu $7,$0,$16
  405480:	43 00 00 00 68 80 19 1c 	addiu $25,$28,-32664
  405488:	a2 00 00 00 0a 00 18 00 	lui $24,10
  405490:	51 00 00 00 5c 45 18 18 	ori $24,$24,17756
  405498:	42 00 00 00 00 18 1d 18 	addu $24,$24,$29
  4054a0:	34 00 00 00 10 00 19 1d 	sw $25,16($29)
  4054a8:	34 00 00 00 00 00 0d 18 	sw $13,0($24)
  4054b0:	02 00 00 00 e8 23 10 00 	jal 408fa0 <matmat_>
  4054b8:	28 00 00 00 00 00 0e 10 	lw $14,0($16)
  4054c0:	a2 00 00 00 0a 00 19 00 	lui $25,10
  4054c8:	51 00 00 00 5c 45 19 19 	ori $25,$25,17756
  4054d0:	42 00 00 00 00 19 1d 19 	addu $25,$25,$29
  4054d8:	28 00 00 00 00 00 0d 19 	lw $13,0($25)
  4054e0:	43 00 00 00 01 00 13 00 	addiu $19,$0,1
  4054e8:	07 00 00 00 c0 00 00 0e 	blez $14,4057f0 <sweep_+0x2f08>
  4054f0:	a2 00 00 00 0a 00 02 00 	lui $2,10
  4054f8:	42 00 00 00 00 06 02 0d 	addu $6,$13,$2
  405500:	a2 00 00 00 06 00 04 00 	lui $4,6
  405508:	51 00 00 00 d8 82 04 04 	ori $4,$4,33496
  405510:	a2 00 00 00 07 00 05 00 	lui $5,7
  405518:	51 00 00 00 10 03 05 05 	ori $5,$5,784
  405520:	a2 00 00 00 07 00 03 00 	lui $3,7
  405528:	51 00 00 00 48 83 03 03 	ori $3,$3,33608
  405530:	a2 00 00 00 08 00 02 00 	lui $2,8
  405538:	51 00 00 00 80 03 02 02 	ori $2,$2,896
  405540:	42 00 00 00 00 04 04 0d 	addu $4,$13,$4
  405548:	42 00 00 00 00 09 02 0d 	addu $9,$13,$2
  405550:	a2 00 00 00 0a 00 18 00 	lui $24,10
  405558:	51 00 00 00 d8 44 18 18 	ori $24,$24,17624
  405560:	42 00 00 00 00 18 1d 18 	addu $24,$24,$29
  405568:	28 00 00 00 00 00 18 18 	lw $24,0($24)
  405570:	42 00 00 00 00 08 03 0d 	addu $8,$13,$3
  405578:	42 00 00 00 00 07 05 0d 	addu $7,$13,$5
  405580:	43 00 00 00 04 00 05 18 	addiu $5,$24,4
  405588:	28 00 00 00 00 00 02 05 	lw $2,0($5)
  405590:	05 00 00 00 82 00 00 02 	beq $2,$0,4057a0 <sweep_+0x2eb8>
  405598:	28 00 00 00 84 44 02 06 	lw $2,17540($6)
  4055a0:	28 00 00 00 80 44 03 06 	lw $3,17536($6)
  4055a8:	2b 00 00 00 00 00 00 04 	l.d $f0,0($4)
  4055b0:	a2 00 00 00 e1 0f 19 00 	lui $25,4065
  4055b8:	43 00 00 00 88 cd 19 19 	addiu $25,$25,-12920
  4055c0:	a2 00 00 00 e1 0f 18 00 	lui $24,4065
  4055c8:	43 00 00 00 c0 4d 18 18 	addiu $24,$24,19904
  4055d0:	55 00 00 00 04 02 02 00 	sll $2,$2,0x4
  4055d8:	42 00 00 00 00 03 02 03 	addu $3,$3,$2
  4055e0:	55 00 00 00 09 02 03 00 	sll $2,$3,0x9
  4055e8:	42 00 00 00 00 02 03 02 	addu $2,$2,$3
  4055f0:	55 00 00 00 03 02 02 00 	sll $2,$2,0x3
  4055f8:	45 00 00 00 00 02 03 02 	subu $2,$2,$3
  405600:	55 00 00 00 02 02 02 00 	sll $2,$2,0x2
  405608:	42 00 00 00 00 02 13 02 	addu $2,$2,$19
  405610:	55 00 00 00 03 02 02 00 	sll $2,$2,0x3
  405618:	42 00 00 00 00 02 19 02 	addu $2,$2,$25
  405620:	37 00 00 00 00 00 00 02 	s.d $f0,0($2)
  405628:	28 00 00 00 84 44 03 06 	lw $3,17540($6)
  405630:	28 00 00 00 80 44 02 06 	lw $2,17536($6)
  405638:	2b 00 00 00 00 00 00 07 	l.d $f0,0($7)
  405640:	a2 00 00 00 e2 0f 19 00 	lui $25,4066
  405648:	43 00 00 00 f8 cd 19 19 	addiu $25,$25,-12808
  405650:	55 00 00 00 04 03 03 00 	sll $3,$3,0x4
  405658:	42 00 00 00 00 02 03 02 	addu $2,$2,$3
  405660:	55 00 00 00 02 03 02 00 	sll $3,$2,0x2
  405668:	55 00 00 00 0b 02 02 00 	sll $2,$2,0xb
  405670:	42 00 00 00 00 02 03 02 	addu $2,$2,$3
  405678:	55 00 00 00 03 02 02 00 	sll $2,$2,0x3
  405680:	45 00 00 00 00 02 03 02 	subu $2,$2,$3
  405688:	42 00 00 00 00 02 13 02 	addu $2,$2,$19
  405690:	55 00 00 00 03 02 02 00 	sll $2,$2,0x3
  405698:	42 00 00 00 00 02 18 02 	addu $2,$2,$24
  4056a0:	37 00 00 00 00 00 00 02 	s.d $f0,0($2)
  4056a8:	28 00 00 00 84 44 03 06 	lw $3,17540($6)
  4056b0:	28 00 00 00 80 44 02 06 	lw $2,17536($6)
  4056b8:	2b 00 00 00 00 00 00 08 	l.d $f0,0($8)
  4056c0:	a2 00 00 00 e2 0f 18 00 	lui $24,4066
  4056c8:	43 00 00 00 30 4e 18 18 	addiu $24,$24,20016
  4056d0:	55 00 00 00 04 03 03 00 	sll $3,$3,0x4
  4056d8:	42 00 00 00 00 02 03 02 	addu $2,$2,$3
  4056e0:	55 00 00 00 02 03 02 00 	sll $3,$2,0x2
  4056e8:	55 00 00 00 0b 02 02 00 	sll $2,$2,0xb
  4056f0:	42 00 00 00 00 02 03 02 	addu $2,$2,$3
  4056f8:	55 00 00 00 03 02 02 00 	sll $2,$2,0x3
  405700:	45 00 00 00 00 02 03 02 	subu $2,$2,$3
  405708:	42 00 00 00 00 02 13 02 	addu $2,$2,$19
  405710:	55 00 00 00 03 02 02 00 	sll $2,$2,0x3
  405718:	42 00 00 00 00 02 19 02 	addu $2,$2,$25
  405720:	37 00 00 00 00 00 00 02 	s.d $f0,0($2)
  405728:	28 00 00 00 84 44 03 06 	lw $3,17540($6)
  405730:	28 00 00 00 80 44 02 06 	lw $2,17536($6)
  405738:	2b 00 00 00 00 00 00 09 	l.d $f0,0($9)
  405740:	55 00 00 00 04 03 03 00 	sll $3,$3,0x4
  405748:	42 00 00 00 00 02 03 02 	addu $2,$2,$3
  405750:	55 00 00 00 02 03 02 00 	sll $3,$2,0x2
  405758:	55 00 00 00 0b 02 02 00 	sll $2,$2,0xb
  405760:	42 00 00 00 00 02 03 02 	addu $2,$2,$3
  405768:	55 00 00 00 03 02 02 00 	sll $2,$2,0x3
  405770:	45 00 00 00 00 02 03 02 	subu $2,$2,$3
  405778:	42 00 00 00 00 02 13 02 	addu $2,$2,$19
  405780:	55 00 00 00 03 02 02 00 	sll $2,$2,0x3
  405788:	42 00 00 00 00 02 18 02 	addu $2,$2,$24
  405790:	37 00 00 00 00 00 00 02 	s.d $f0,0($2)
  405798:	01 00 00 00 ec 15 10 00 	j 4057b0 <sweep_+0x2ec8>
  4057a0:	2b 00 00 00 00 00 00 04 	l.d $f0,0($4)
  4057a8:	71 00 00 00 00 16 00 16 	add.d $f22,$f22,$f0
  4057b0:	43 00 00 00 08 00 04 04 	addiu $4,$4,8
  4057b8:	43 00 00 00 08 00 09 09 	addiu $9,$9,8
  4057c0:	43 00 00 00 08 00 08 08 	addiu $8,$8,8
  4057c8:	43 00 00 00 08 00 07 07 	addiu $7,$7,8
  4057d0:	43 00 00 00 04 00 05 05 	addiu $5,$5,4
  4057d8:	43 00 00 00 01 00 13 13 	addiu $19,$19,1
  4057e0:	5b 00 00 00 00 02 13 0e 	slt $2,$14,$19
  4057e8:	05 00 00 00 66 ff 00 02 	beq $2,$0,405588 <sweep_+0x2ca0>
  4057f0:	a2 00 00 00 0a 00 03 00 	lui $3,10
  4057f8:	42 00 00 00 00 03 03 0d 	addu $3,$13,$3
  405800:	28 00 00 00 84 44 02 03 	lw $2,17540($3)
  405808:	a2 00 00 00 0a 00 04 00 	lui $4,10
  405810:	51 00 00 00 84 44 04 04 	ori $4,$4,17540
  405818:	42 00 00 00 00 04 04 0d 	addu $4,$13,$4
  405820:	a2 00 00 00 0a 00 19 00 	lui $25,10
  405828:	51 00 00 00 b8 44 19 19 	ori $25,$25,17592
  405830:	42 00 00 00 00 19 1d 19 	addu $25,$25,$29
  405838:	43 00 00 00 01 00 02 02 	addiu $2,$2,1
  405840:	34 00 00 00 84 44 02 03 	sw $2,17540($3)
  405848:	28 00 00 00 00 00 02 04 	lw $2,0($4)
  405850:	28 00 00 00 00 00 19 19 	lw $25,0($25)
  405858:	5b 00 00 00 00 02 02 19 	slt $2,$25,$2
  405860:	05 00 00 00 80 f5 00 02 	beq $2,$0,402e68 <sweep_+0x580>
  405868:	a2 00 00 00 0a 00 04 00 	lui $4,10
  405870:	a2 00 00 00 0a 00 03 00 	lui $3,10
  405878:	42 00 00 00 00 03 03 0d 	addu $3,$13,$3
  405880:	28 00 00 00 80 44 02 03 	lw $2,17536($3)
  405888:	51 00 00 00 80 44 04 04 	ori $4,$4,17536
  405890:	42 00 00 00 00 05 0d 00 	addu $5,$0,$13
  405898:	42 00 00 00 00 04 04 05 	addu $4,$5,$4
  4058a0:	a2 00 00 00 0a 00 18 00 	lui $24,10
  4058a8:	51 00 00 00 b0 44 18 18 	ori $24,$24,17584
  4058b0:	42 00 00 00 00 18 1d 18 	addu $24,$24,$29
  4058b8:	43 00 00 00 01 00 02 02 	addiu $2,$2,1
  4058c0:	34 00 00 00 80 44 02 03 	sw $2,17536($3)
  4058c8:	28 00 00 00 00 00 02 04 	lw $2,0($4)
  4058d0:	28 00 00 00 00 00 18 18 	lw $24,0($24)
  4058d8:	42 00 00 00 00 06 05 00 	addu $6,$0,$5
  4058e0:	5b 00 00 00 00 02 02 18 	slt $2,$24,$2
  4058e8:	05 00 00 00 e8 f4 00 02 	beq $2,$0,402c90 <sweep_+0x3a8>
  4058f0:	a2 00 00 00 85 10 02 00 	lui $2,4229
  4058f8:	28 00 00 00 88 3c 02 02 	lw $2,15496($2)
  405900:	55 00 00 00 02 02 02 00 	sll $2,$2,0x2
  405908:	a5 00 00 00 00 00 02 00 	mtc1 $2,$f0
  405910:	83 00 00 00 00 00 00 00 	cvt.d.w $f0,$f0
  405918:	77 00 00 00 00 00 00 16 	div.d $f0,$f22,$f0
  405920:	43 00 00 00 04 80 04 1c 	addiu $4,$28,-32764
  405928:	a2 00 00 00 0a 00 02 00 	lui $2,10
  405930:	51 00 00 00 a8 44 02 02 	ori $2,$2,17576
  405938:	42 00 00 00 00 05 02 1d 	addu $5,$29,$2
  405940:	a2 00 00 00 85 10 01 00 	lui $1,4229
  405948:	37 00 00 00 28 3f 00 01 	s.d $f0,16168($1)
  405950:	37 00 00 00 00 00 00 05 	s.d $f0,0($5)
  405958:	02 00 00 00 62 6b 10 00 	jal 41ad88 <accum2_>
  405960:	a2 00 00 00 0a 00 19 00 	lui $25,10
  405968:	51 00 00 00 c8 44 19 19 	ori $25,$25,17608
  405970:	42 00 00 00 00 19 1d 19 	addu $25,$25,$29
  405978:	2a 00 00 00 00 00 00 19 	l.s $f0,0($25)
  405980:	81 00 00 00 00 00 00 00 	cvt.s.w $f0,$f0
  405988:	a2 00 00 00 85 10 01 00 	lui $1,4229
  405990:	2a 00 00 00 84 3c 02 01 	l.s $f2,15492($1)
  405998:	81 00 00 00 00 02 00 02 	cvt.s.w $f2,$f2
  4059a0:	76 00 00 00 00 00 02 00 	div.s $f0,$f0,$f2
  4059a8:	42 00 00 00 00 02 00 00 	addu $2,$0,$0
  4059b0:	82 00 00 00 00 00 00 00 	cvt.d.s $f0,$f0
  4059b8:	a2 00 00 00 85 10 01 00 	lui $1,4229
  4059c0:	37 00 00 00 20 3f 00 01 	s.d $f0,16160($1)
  4059c8:	a2 00 00 00 0a 00 08 00 	lui $8,10
  4059d0:	51 00 00 00 b8 45 08 08 	ori $8,$8,17848
  4059d8:	42 00 00 00 00 09 1d 08 	addu $9,$8,$29
  4059e0:	28 00 00 00 d4 ff 1f 09 	lw $31,-44($9)
  4059e8:	28 00 00 00 d0 ff 1e 09 	lw $30,-48($9)
  4059f0:	28 00 00 00 cc ff 17 09 	lw $23,-52($9)
  4059f8:	28 00 00 00 c8 ff 16 09 	lw $22,-56($9)
  405a00:	28 00 00 00 c4 ff 15 09 	lw $21,-60($9)
  405a08:	28 00 00 00 c0 ff 14 09 	lw $20,-64($9)
  405a10:	28 00 00 00 bc ff 13 09 	lw $19,-68($9)
  405a18:	28 00 00 00 b8 ff 12 09 	lw $18,-72($9)
  405a20:	28 00 00 00 b4 ff 11 09 	lw $17,-76($9)
  405a28:	28 00 00 00 b0 ff 10 09 	lw $16,-80($9)
  405a30:	2b 00 00 00 f8 ff 1c 09 	l.d $f28,-8($9)
  405a38:	2b 00 00 00 f0 ff 1a 09 	l.d $f26,-16($9)
  405a40:	2b 00 00 00 e8 ff 18 09 	l.d $f24,-24($9)
  405a48:	2b 00 00 00 e0 ff 16 09 	l.d $f22,-32($9)
  405a50:	2b 00 00 00 d8 ff 14 09 	l.d $f20,-40($9)
  405a58:	42 00 00 00 00 1d 08 1d 	addu $29,$29,$8
  405a60:	03 00 00 00 00 00 00 1f 	jr $31

00405a68 <geom_>:
  405a68:	a2 00 00 00 85 10 03 00 	lui $3,4229
  405a70:	28 00 00 00 c0 3c 03 03 	lw $3,15552($3)
  405a78:	43 00 00 00 30 ff 1d 1d 	addiu $29,$29,-208
  405a80:	34 00 00 00 b0 00 12 1d 	sw $18,176($29)
  405a88:	43 00 00 00 01 00 12 00 	addiu $18,$0,1
  405a90:	34 00 00 00 ac 00 11 1d 	sw $17,172($29)
  405a98:	a2 00 00 00 85 10 11 00 	lui $17,4229
  405aa0:	43 00 00 00 80 3c 11 11 	addiu $17,$17,15488
  405aa8:	43 00 00 00 01 00 02 00 	addiu $2,$0,1
  405ab0:	34 00 00 00 a8 00 10 1d 	sw $16,168($29)
  405ab8:	a2 00 00 00 85 10 10 00 	lui $16,4229
  405ac0:	43 00 00 00 d8 3c 10 10 	addiu $16,$16,15576
  405ac8:	34 00 00 00 c8 00 1f 1d 	sw $31,200($29)
  405ad0:	34 00 00 00 c4 00 17 1d 	sw $23,196($29)
  405ad8:	34 00 00 00 c0 00 16 1d 	sw $22,192($29)
  405ae0:	34 00 00 00 bc 00 15 1d 	sw $21,188($29)
  405ae8:	34 00 00 00 b8 00 14 1d 	sw $20,184($29)
  405af0:	34 00 00 00 b4 00 13 1d 	sw $19,180($29)
  405af8:	42 00 00 00 00 15 03 00 	addu $21,$0,$3
  405b00:	34 00 00 00 00 00 02 11 	sw $2,0($17)
  405b08:	a2 00 00 00 85 10 01 00 	lui $1,4229
  405b10:	34 00 00 00 d4 3c 02 01 	sw $2,15572($1)
  405b18:	43 00 00 00 ff ff 02 15 	addiu $2,$21,-1
  405b20:	34 00 00 00 00 00 02 10 	sw $2,0($16)
  405b28:	07 00 00 00 ae 00 00 15 	blez $21,405de8 <geom_+0x380>
  405b30:	43 00 00 00 70 00 07 1d 	addiu $7,$29,112
  405b38:	43 00 00 00 ec ff 06 10 	addiu $6,$16,-20
  405b40:	43 00 00 00 e8 ff 17 10 	addiu $23,$16,-24
  405b48:	43 00 00 00 10 00 16 11 	addiu $22,$17,16
  405b50:	43 00 00 00 01 00 02 15 	addiu $2,$21,1
  405b58:	4f 00 00 00 01 00 03 15 	andi $3,$21,1
  405b60:	5b 00 00 00 00 02 02 12 	slt $2,$18,$2
  405b68:	05 00 00 00 02 00 00 02 	beq $2,$0,405b78 <geom_+0x110>
  405b70:	05 00 00 00 32 00 00 03 	beq $3,$0,405c40 <geom_+0x1d8>
  405b78:	28 00 00 00 ec ff 02 10 	lw $2,-20($16)
  405b80:	4f 00 00 00 01 00 02 02 	andi $2,$2,1
  405b88:	05 00 00 00 06 00 00 02 	beq $2,$0,405ba8 <geom_+0x140>
  405b90:	43 00 00 00 70 80 04 1c 	addiu $4,$28,-32656
  405b98:	42 00 00 00 00 05 00 00 	addu $5,$0,$0
  405ba0:	02 00 00 00 ec 88 10 00 	jal 4223b0 <s_stop>
  405ba8:	28 00 00 00 00 00 05 11 	lw $5,0($17)
  405bb0:	28 00 00 00 ec ff 02 10 	lw $2,-20($16)
  405bb8:	46 00 00 00 00 00 02 05 	mult $5,$2
  405bc0:	28 00 00 00 fc ff 04 10 	lw $4,-4($16)
  405bc8:	57 00 00 00 1f 03 02 00 	srl $3,$2,0x1f
  405bd0:	4c 00 00 00 00 08 00 00 	mflo $8
  405bd8:	42 00 00 00 00 02 03 02 	addu $2,$2,$3
  405be0:	59 00 00 00 01 02 02 00 	sra $2,$2,0x1
  405be8:	46 00 00 00 00 00 02 04 	mult $4,$2
  405bf0:	43 00 00 00 74 00 07 1d 	addiu $7,$29,116
  405bf8:	4c 00 00 00 00 04 00 00 	mflo $4
  405c00:	43 00 00 00 f0 ff 06 10 	addiu $6,$16,-16
  405c08:	43 00 00 00 02 00 12 00 	addiu $18,$0,2
  405c10:	34 00 00 00 10 00 05 11 	sw $5,16($17)
  405c18:	5c 00 00 00 02 00 03 15 	slti $3,$21,2
  405c20:	34 00 00 00 70 00 02 1d 	sw $2,112($29)
  405c28:	34 00 00 00 00 00 08 11 	sw $8,0($17)
  405c30:	34 00 00 00 fc ff 04 10 	sw $4,-4($16)
  405c38:	06 00 00 00 6a 00 00 03 	bne $3,$0,405de8 <geom_+0x380>
  405c40:	42 00 00 00 00 14 07 00 	addu $20,$0,$7
  405c48:	42 00 00 00 00 10 06 00 	addu $16,$0,$6
  405c50:	42 00 00 00 00 13 10 00 	addu $19,$0,$16
  405c58:	42 00 00 00 00 11 10 00 	addu $17,$0,$16
  405c60:	28 00 00 00 00 00 02 11 	lw $2,0($17)
  405c68:	4f 00 00 00 01 00 02 02 	andi $2,$2,1
  405c70:	05 00 00 00 06 00 00 02 	beq $2,$0,405c90 <geom_+0x228>
  405c78:	43 00 00 00 70 80 04 1c 	addiu $4,$28,-32656
  405c80:	42 00 00 00 00 05 00 00 	addu $5,$0,$0
  405c88:	02 00 00 00 ec 88 10 00 	jal 4223b0 <s_stop>
  405c90:	28 00 00 00 f0 ff 03 16 	lw $3,-16($22)
  405c98:	34 00 00 00 00 00 03 16 	sw $3,0($22)
  405ca0:	28 00 00 00 00 00 02 13 	lw $2,0($19)
  405ca8:	46 00 00 00 00 00 02 03 	mult $3,$2
  405cb0:	4c 00 00 00 00 02 00 00 	mflo $2
  405cb8:	34 00 00 00 f0 ff 02 16 	sw $2,-16($22)
  405cc0:	28 00 00 00 00 00 02 10 	lw $2,0($16)
  405cc8:	57 00 00 00 1f 03 02 00 	srl $3,$2,0x1f
  405cd0:	42 00 00 00 00 02 03 02 	addu $2,$2,$3
  405cd8:	59 00 00 00 01 02 02 00 	sra $2,$2,0x1
  405ce0:	34 00 00 00 00 00 02 14 	sw $2,0($20)
  405ce8:	28 00 00 00 14 00 03 17 	lw $3,20($23)
  405cf0:	46 00 00 00 00 00 02 03 	mult $3,$2
  405cf8:	4c 00 00 00 00 02 00 00 	mflo $2
  405d00:	34 00 00 00 14 00 02 17 	sw $2,20($23)
  405d08:	28 00 00 00 04 00 02 11 	lw $2,4($17)
  405d10:	4f 00 00 00 01 00 02 02 	andi $2,$2,1
  405d18:	05 00 00 00 06 00 00 02 	beq $2,$0,405d38 <geom_+0x2d0>
  405d20:	43 00 00 00 70 80 04 1c 	addiu $4,$28,-32656
  405d28:	42 00 00 00 00 05 00 00 	addu $5,$0,$0
  405d30:	02 00 00 00 ec 88 10 00 	jal 4223b0 <s_stop>
  405d38:	28 00 00 00 f0 ff 03 16 	lw $3,-16($22)
  405d40:	34 00 00 00 00 00 03 16 	sw $3,0($22)
  405d48:	28 00 00 00 04 00 02 13 	lw $2,4($19)
  405d50:	46 00 00 00 00 00 02 03 	mult $3,$2
  405d58:	4c 00 00 00 00 02 00 00 	mflo $2
  405d60:	34 00 00 00 f0 ff 02 16 	sw $2,-16($22)
  405d68:	28 00 00 00 04 00 02 10 	lw $2,4($16)
  405d70:	57 00 00 00 1f 03 02 00 	srl $3,$2,0x1f
  405d78:	42 00 00 00 00 02 03 02 	addu $2,$2,$3
  405d80:	59 00 00 00 01 02 02 00 	sra $2,$2,0x1
  405d88:	34 00 00 00 04 00 02 14 	sw $2,4($20)
  405d90:	28 00 00 00 14 00 03 17 	lw $3,20($23)
  405d98:	46 00 00 00 00 00 02 03 	mult $3,$2
  405da0:	43 00 00 00 08 00 11 11 	addiu $17,$17,8
  405da8:	43 00 00 00 02 00 12 12 	addiu $18,$18,2
  405db0:	43 00 00 00 08 00 13 13 	addiu $19,$19,8
  405db8:	43 00 00 00 08 00 14 14 	addiu $20,$20,8
  405dc0:	4c 00 00 00 00 02 00 00 	mflo $2
  405dc8:	43 00 00 00 08 00 10 10 	addiu $16,$16,8
  405dd0:	5b 00 00 00 00 03 12 15 	slt $3,$21,$18
  405dd8:	34 00 00 00 14 00 02 17 	sw $2,20($23)
  405de0:	05 00 00 00 9e ff 00 03 	beq $3,$0,405c60 <geom_+0x1f8>
  405de8:	a2 00 00 00 85 10 05 00 	lui $5,4229
  405df0:	28 00 00 00 80 3c 05 05 	lw $5,15488($5)
  405df8:	a2 00 00 00 85 10 04 00 	lui $4,4229
  405e00:	28 00 00 00 c0 3c 04 04 	lw $4,15552($4)
  405e08:	46 00 00 00 00 00 04 05 	mult $5,$4
  405e10:	4c 00 00 00 00 06 00 00 	mflo $6
  405e18:	43 00 00 00 ff ff 02 04 	addiu $2,$4,-1
  405e20:	46 00 00 00 00 00 02 04 	mult $4,$2
  405e28:	4c 00 00 00 00 02 00 00 	mflo $2
  405e30:	57 00 00 00 1f 03 02 00 	srl $3,$2,0x1f
  405e38:	42 00 00 00 00 02 03 02 	addu $2,$2,$3
  405e40:	59 00 00 00 01 02 02 00 	sra $2,$2,0x1
  405e48:	46 00 00 00 00 00 02 05 	mult $5,$2
  405e50:	4c 00 00 00 00 03 00 00 	mflo $3
  405e58:	43 00 00 00 01 00 12 00 	addiu $18,$0,1
  405e60:	42 00 00 00 00 15 04 00 	addu $21,$0,$4
  405e68:	a2 00 00 00 85 10 01 00 	lui $1,4229
  405e70:	34 00 00 00 84 3c 06 01 	sw $6,15492($1)
  405e78:	a2 00 00 00 85 10 01 00 	lui $1,4229
  405e80:	34 00 00 00 8c 3c 02 01 	sw $2,15500($1)
  405e88:	a2 00 00 00 85 10 01 00 	lui $1,4229
  405e90:	34 00 00 00 88 3c 03 01 	sw $3,15496($1)
  405e98:	07 00 00 00 94 00 00 15 	blez $21,4060f0 <geom_+0x688>
  405ea0:	43 00 00 00 20 00 11 1d 	addiu $17,$29,32
  405ea8:	43 00 00 00 80 00 10 1d 	addiu $16,$29,128
  405eb0:	43 00 00 00 01 00 02 15 	addiu $2,$21,1
  405eb8:	4f 00 00 00 03 00 03 15 	andi $3,$21,3
  405ec0:	5b 00 00 00 00 02 02 12 	slt $2,$18,$2
  405ec8:	05 00 00 00 30 00 00 02 	beq $2,$0,405f90 <geom_+0x528>
  405ed0:	05 00 00 00 46 00 00 03 	beq $3,$0,405ff0 <geom_+0x588>
  405ed8:	5c 00 00 00 02 00 02 03 	slti $2,$3,2
  405ee0:	06 00 00 00 2a 00 00 02 	bne $2,$0,405f90 <geom_+0x528>
  405ee8:	5c 00 00 00 03 00 02 03 	slti $2,$3,3
  405ef0:	06 00 00 00 12 00 00 02 	bne $2,$0,405f40 <geom_+0x4d8>
  405ef8:	43 00 00 00 4c 80 04 1c 	addiu $4,$28,-32692
  405f00:	43 00 00 00 90 00 05 1d 	addiu $5,$29,144
  405f08:	34 00 00 00 90 00 00 1d 	sw $0,144($29)
  405f10:	02 00 00 00 90 9e 10 00 	jal 427a40 <pow_ii>
  405f18:	43 00 00 00 24 00 11 1d 	addiu $17,$29,36
  405f20:	43 00 00 00 84 00 10 1d 	addiu $16,$29,132
  405f28:	43 00 00 00 02 00 12 00 	addiu $18,$0,2
  405f30:	34 00 00 00 80 00 02 1d 	sw $2,128($29)
  405f38:	34 00 00 00 20 00 00 1d 	sw $0,32($29)
  405f40:	43 00 00 00 4c 80 04 1c 	addiu $4,$28,-32692
  405f48:	43 00 00 00 90 00 05 1d 	addiu $5,$29,144
  405f50:	43 00 00 00 ff ff 02 12 	addiu $2,$18,-1
  405f58:	34 00 00 00 90 00 02 1d 	sw $2,144($29)
  405f60:	02 00 00 00 90 9e 10 00 	jal 427a40 <pow_ii>
  405f68:	34 00 00 00 00 00 02 10 	sw $2,0($16)
  405f70:	34 00 00 00 00 00 00 11 	sw $0,0($17)
  405f78:	43 00 00 00 04 00 11 11 	addiu $17,$17,4
  405f80:	43 00 00 00 04 00 10 10 	addiu $16,$16,4
  405f88:	43 00 00 00 01 00 12 12 	addiu $18,$18,1
  405f90:	43 00 00 00 4c 80 04 1c 	addiu $4,$28,-32692
  405f98:	43 00 00 00 90 00 05 1d 	addiu $5,$29,144
  405fa0:	43 00 00 00 ff ff 02 12 	addiu $2,$18,-1
  405fa8:	34 00 00 00 90 00 02 1d 	sw $2,144($29)
  405fb0:	02 00 00 00 90 9e 10 00 	jal 427a40 <pow_ii>
  405fb8:	34 00 00 00 00 00 02 10 	sw $2,0($16)
  405fc0:	34 00 00 00 00 00 00 11 	sw $0,0($17)
  405fc8:	43 00 00 00 04 00 11 11 	addiu $17,$17,4
  405fd0:	43 00 00 00 04 00 10 10 	addiu $16,$16,4
  405fd8:	43 00 00 00 01 00 12 12 	addiu $18,$18,1
  405fe0:	5b 00 00 00 00 02 12 15 	slt $2,$21,$18
  405fe8:	06 00 00 00 40 00 00 02 	bne $2,$0,4060f0 <geom_+0x688>
  405ff0:	43 00 00 00 4c 80 04 1c 	addiu $4,$28,-32692
  405ff8:	43 00 00 00 90 00 05 1d 	addiu $5,$29,144
  406000:	43 00 00 00 ff ff 02 12 	addiu $2,$18,-1
  406008:	34 00 00 00 90 00 02 1d 	sw $2,144($29)
  406010:	02 00 00 00 90 9e 10 00 	jal 427a40 <pow_ii>
  406018:	43 00 00 00 4c 80 04 1c 	addiu $4,$28,-32692
  406020:	43 00 00 00 90 00 05 1d 	addiu $5,$29,144
  406028:	34 00 00 00 00 00 02 10 	sw $2,0($16)
  406030:	34 00 00 00 00 00 00 11 	sw $0,0($17)
  406038:	34 00 00 00 90 00 12 1d 	sw $18,144($29)
  406040:	02 00 00 00 90 9e 10 00 	jal 427a40 <pow_ii>
  406048:	43 00 00 00 4c 80 04 1c 	addiu $4,$28,-32692
  406050:	43 00 00 00 90 00 05 1d 	addiu $5,$29,144
  406058:	34 00 00 00 04 00 02 10 	sw $2,4($16)
  406060:	43 00 00 00 01 00 02 12 	addiu $2,$18,1
  406068:	34 00 00 00 04 00 00 11 	sw $0,4($17)
  406070:	34 00 00 00 90 00 02 1d 	sw $2,144($29)
  406078:	02 00 00 00 90 9e 10 00 	jal 427a40 <pow_ii>
  406080:	43 00 00 00 4c 80 04 1c 	addiu $4,$28,-32692
  406088:	43 00 00 00 90 00 05 1d 	addiu $5,$29,144
  406090:	34 00 00 00 08 00 02 10 	sw $2,8($16)
  406098:	43 00 00 00 02 00 02 12 	addiu $2,$18,2
  4060a0:	34 00 00 00 08 00 00 11 	sw $0,8($17)
  4060a8:	34 00 00 00 90 00 02 1d 	sw $2,144($29)
  4060b0:	02 00 00 00 90 9e 10 00 	jal 427a40 <pow_ii>
  4060b8:	34 00 00 00 0c 00 02 10 	sw $2,12($16)
  4060c0:	34 00 00 00 0c 00 00 11 	sw $0,12($17)
  4060c8:	43 00 00 00 10 00 11 11 	addiu $17,$17,16
  4060d0:	43 00 00 00 10 00 10 10 	addiu $16,$16,16
  4060d8:	43 00 00 00 04 00 12 12 	addiu $18,$18,4
  4060e0:	5b 00 00 00 00 02 12 15 	slt $2,$21,$18
  4060e8:	05 00 00 00 c0 ff 00 02 	beq $2,$0,405ff0 <geom_+0x588>
  4060f0:	42 00 00 00 00 09 00 00 	addu $9,$0,$0
  4060f8:	43 00 00 00 01 00 09 09 	addiu $9,$9,1
  406100:	55 00 00 00 02 03 09 00 	sll $3,$9,0x2
  406108:	43 00 00 00 ff ff 02 00 	addiu $2,$0,-1
  406110:	a2 00 00 00 03 10 01 00 	lui $1,4099
  406118:	42 00 00 00 00 01 03 01 	addu $1,$1,$3
  406120:	34 00 00 00 1c db 02 01 	sw $2,-9444($1)
  406128:	a2 00 00 00 85 10 01 00 	lui $1,4229
  406130:	42 00 00 00 00 01 03 01 	addu $1,$1,$3
  406138:	34 00 00 00 dc 3d 02 01 	sw $2,15836($1)
  406140:	a2 00 00 00 85 10 02 00 	lui $2,4229
  406148:	43 00 00 00 c0 3c 02 02 	addiu $2,$2,15552
  406150:	28 00 00 00 00 00 15 02 	lw $21,0($2)
  406158:	43 00 00 00 01 00 07 00 	addiu $7,$0,1
  406160:	a2 00 00 00 03 10 03 00 	lui $3,4099
  406168:	43 00 00 00 1c db 03 03 	addiu $3,$3,-9444
  406170:	a2 00 00 00 85 10 04 00 	lui $4,4229
  406178:	43 00 00 00 dc 3d 04 04 	addiu $4,$4,15836
  406180:	07 00 00 00 ca 00 00 15 	blez $21,4064b0 <geom_+0xa48>
  406188:	43 00 00 00 20 00 06 1d 	addiu $6,$29,32
  406190:	43 00 00 00 80 00 08 1d 	addiu $8,$29,128
  406198:	43 00 00 00 f0 ff 0e 09 	addiu $14,$9,-16
  4061a0:	43 00 00 00 10 00 0d 09 	addiu $13,$9,16
  4061a8:	42 00 00 00 00 0f 03 00 	addu $15,$0,$3
  4061b0:	42 00 00 00 00 0c 04 00 	addu $12,$0,$4
  4061b8:	42 00 00 00 00 10 02 00 	addu $16,$0,$2
  4061c0:	43 00 00 00 01 00 02 15 	addiu $2,$21,1
  4061c8:	4f 00 00 00 01 00 03 15 	andi $3,$21,1
  4061d0:	5b 00 00 00 00 02 02 07 	slt $2,$7,$2
  4061d8:	05 00 00 00 02 00 00 02 	beq $2,$0,4061e8 <geom_+0x780>
  4061e0:	05 00 00 00 3c 00 00 03 	beq $3,$0,4062d8 <geom_+0x870>
  4061e8:	28 00 00 00 80 00 02 1d 	lw $2,128($29)
  4061f0:	55 00 00 00 02 04 0d 00 	sll $4,$13,0x2
  4061f8:	42 00 00 00 00 03 0f 04 	addu $3,$4,$15
  406200:	42 00 00 00 00 02 02 09 	addu $2,$9,$2
  406208:	34 00 00 00 00 00 02 03 	sw $2,0($3)
  406210:	28 00 00 00 80 00 02 1d 	lw $2,128($29)
  406218:	55 00 00 00 02 05 0e 00 	sll $5,$14,0x2
  406220:	42 00 00 00 00 03 0f 05 	addu $3,$5,$15
  406228:	42 00 00 00 00 02 02 09 	addu $2,$9,$2
  406230:	34 00 00 00 00 00 02 03 	sw $2,0($3)
  406238:	28 00 00 00 20 00 02 1d 	lw $2,32($29)
  406240:	05 00 00 00 0a 00 00 02 	beq $2,$0,406270 <geom_+0x808>
  406248:	42 00 00 00 00 02 0c 04 	addu $2,$4,$12
  406250:	34 00 00 00 00 00 07 02 	sw $7,0($2)
  406258:	42 00 00 00 00 02 0c 05 	addu $2,$5,$12
  406260:	34 00 00 00 00 00 00 02 	sw $0,0($2)
  406268:	01 00 00 00 a8 18 10 00 	j 4062a0 <geom_+0x838>
  406270:	42 00 00 00 00 02 0c 04 	addu $2,$4,$12
  406278:	34 00 00 00 00 00 00 02 	sw $0,0($2)
  406280:	28 00 00 00 00 00 02 10 	lw $2,0($16)
  406288:	42 00 00 00 00 03 0c 05 	addu $3,$5,$12
  406290:	43 00 00 00 01 00 02 02 	addiu $2,$2,1
  406298:	34 00 00 00 00 00 02 03 	sw $2,0($3)
  4062a0:	43 00 00 00 04 00 06 06 	addiu $6,$6,4
  4062a8:	43 00 00 00 04 00 08 08 	addiu $8,$8,4
  4062b0:	43 00 00 00 f0 ff 0e 0e 	addiu $14,$14,-16
  4062b8:	43 00 00 00 10 00 0d 0d 	addiu $13,$13,16
  4062c0:	43 00 00 00 01 00 07 07 	addiu $7,$7,1
  4062c8:	5b 00 00 00 00 02 07 15 	slt $2,$21,$7
  4062d0:	06 00 00 00 76 00 00 02 	bne $2,$0,4064b0 <geom_+0xa48>
  4062d8:	42 00 00 00 00 0b 06 00 	addu $11,$0,$6
  4062e0:	42 00 00 00 00 0a 08 00 	addu $10,$0,$8
  4062e8:	28 00 00 00 00 00 02 0a 	lw $2,0($10)
  4062f0:	55 00 00 00 02 04 0d 00 	sll $4,$13,0x2
  4062f8:	42 00 00 00 00 03 0f 04 	addu $3,$4,$15
  406300:	42 00 00 00 00 02 02 09 	addu $2,$9,$2
  406308:	34 00 00 00 00 00 02 03 	sw $2,0($3)
  406310:	28 00 00 00 00 00 02 08 	lw $2,0($8)
  406318:	55 00 00 00 02 05 0e 00 	sll $5,$14,0x2
  406320:	42 00 00 00 00 03 0f 05 	addu $3,$5,$15
  406328:	42 00 00 00 00 02 02 09 	addu $2,$9,$2
  406330:	34 00 00 00 00 00 02 03 	sw $2,0($3)
  406338:	28 00 00 00 00 00 02 0b 	lw $2,0($11)
  406340:	05 00 00 00 0a 00 00 02 	beq $2,$0,406370 <geom_+0x908>
  406348:	42 00 00 00 00 02 0c 04 	addu $2,$4,$12
  406350:	34 00 00 00 00 00 07 02 	sw $7,0($2)
  406358:	42 00 00 00 00 02 0c 05 	addu $2,$5,$12
  406360:	34 00 00 00 00 00 00 02 	sw $0,0($2)
  406368:	01 00 00 00 e8 18 10 00 	j 4063a0 <geom_+0x938>
  406370:	42 00 00 00 00 02 0c 04 	addu $2,$4,$12
  406378:	34 00 00 00 00 00 00 02 	sw $0,0($2)
  406380:	28 00 00 00 00 00 02 10 	lw $2,0($16)
  406388:	42 00 00 00 00 03 0c 05 	addu $3,$5,$12
  406390:	42 00 00 00 00 02 07 02 	addu $2,$2,$7
  406398:	34 00 00 00 00 00 02 03 	sw $2,0($3)
  4063a0:	43 00 00 00 10 00 03 0d 	addiu $3,$13,16
  4063a8:	28 00 00 00 04 00 02 0a 	lw $2,4($10)
  4063b0:	55 00 00 00 02 05 03 00 	sll $5,$3,0x2
  4063b8:	42 00 00 00 00 03 0f 05 	addu $3,$5,$15
  4063c0:	42 00 00 00 00 02 02 09 	addu $2,$9,$2
  4063c8:	34 00 00 00 00 00 02 03 	sw $2,0($3)
  4063d0:	43 00 00 00 f0 ff 03 0e 	addiu $3,$14,-16
  4063d8:	28 00 00 00 04 00 02 08 	lw $2,4($8)
  4063e0:	55 00 00 00 02 04 03 00 	sll $4,$3,0x2
  4063e8:	42 00 00 00 00 03 0f 04 	addu $3,$4,$15
  4063f0:	42 00 00 00 00 02 02 09 	addu $2,$9,$2
  4063f8:	34 00 00 00 00 00 02 03 	sw $2,0($3)
  406400:	28 00 00 00 04 00 02 0b 	lw $2,4($11)
  406408:	43 00 00 00 01 00 06 07 	addiu $6,$7,1
  406410:	05 00 00 00 0a 00 00 02 	beq $2,$0,406440 <geom_+0x9d8>
  406418:	42 00 00 00 00 02 0c 05 	addu $2,$5,$12
  406420:	34 00 00 00 00 00 06 02 	sw $6,0($2)
  406428:	42 00 00 00 00 02 0c 04 	addu $2,$4,$12
  406430:	34 00 00 00 00 00 00 02 	sw $0,0($2)
  406438:	01 00 00 00 1c 19 10 00 	j 406470 <geom_+0xa08>
  406440:	42 00 00 00 00 02 0c 05 	addu $2,$5,$12
  406448:	34 00 00 00 00 00 00 02 	sw $0,0($2)
  406450:	28 00 00 00 00 00 02 10 	lw $2,0($16)
  406458:	42 00 00 00 00 03 0c 04 	addu $3,$4,$12
  406460:	42 00 00 00 00 02 06 02 	addu $2,$2,$6
  406468:	34 00 00 00 00 00 02 03 	sw $2,0($3)
  406470:	43 00 00 00 08 00 0b 0b 	addiu $11,$11,8
  406478:	43 00 00 00 08 00 08 08 	addiu $8,$8,8
  406480:	43 00 00 00 08 00 0a 0a 	addiu $10,$10,8
  406488:	43 00 00 00 e0 ff 0e 0e 	addiu $14,$14,-32
  406490:	43 00 00 00 20 00 0d 0d 	addiu $13,$13,32
  406498:	43 00 00 00 02 00 07 07 	addiu $7,$7,2
  4064a0:	5b 00 00 00 00 02 07 15 	slt $2,$21,$7
  4064a8:	05 00 00 00 8e ff 00 02 	beq $2,$0,4062e8 <geom_+0x880>
  4064b0:	a2 00 00 00 85 10 15 00 	lui $21,4229
  4064b8:	28 00 00 00 c0 3c 15 15 	lw $21,15552($21)
  4064c0:	43 00 00 00 01 00 12 00 	addiu $18,$0,1
  4064c8:	07 00 00 00 1e 00 00 15 	blez $21,406548 <geom_+0xae0>
  4064d0:	43 00 00 00 20 00 03 1d 	addiu $3,$29,32
  4064d8:	43 00 00 00 80 00 04 1d 	addiu $4,$29,128
  4064e0:	28 00 00 00 00 00 02 03 	lw $2,0($3)
  4064e8:	5e 00 00 00 01 00 02 02 	sltiu $2,$2,1
  4064f0:	34 00 00 00 00 00 02 03 	sw $2,0($3)
  4064f8:	28 00 00 00 00 00 02 04 	lw $2,0($4)
  406500:	45 00 00 00 00 02 02 00 	subu $2,$0,$2
  406508:	34 00 00 00 00 00 02 04 	sw $2,0($4)
  406510:	28 00 00 00 00 00 02 03 	lw $2,0($3)
  406518:	06 00 00 00 f6 fe 00 02 	bne $2,$0,4060f8 <geom_+0x690>
  406520:	43 00 00 00 04 00 03 03 	addiu $3,$3,4
  406528:	43 00 00 00 04 00 04 04 	addiu $4,$4,4
  406530:	43 00 00 00 01 00 12 12 	addiu $18,$18,1
  406538:	5b 00 00 00 00 02 12 15 	slt $2,$21,$18
  406540:	05 00 00 00 e6 ff 00 02 	beq $2,$0,4064e0 <geom_+0xa78>
  406548:	a2 00 00 00 85 10 15 00 	lui $21,4229
  406550:	28 00 00 00 c0 3c 15 15 	lw $21,15552($21)
  406558:	43 00 00 00 02 00 12 00 	addiu $18,$0,2
  406560:	43 00 00 00 01 00 02 00 	addiu $2,$0,1
  406568:	34 00 00 00 60 00 02 1d 	sw $2,96($29)
  406570:	5c 00 00 00 02 00 02 15 	slti $2,$21,2
  406578:	06 00 00 00 be 00 00 02 	bne $2,$0,406878 <geom_+0xe10>
  406580:	43 00 00 00 50 00 07 1d 	addiu $7,$29,80
  406588:	43 00 00 00 60 00 04 1d 	addiu $4,$29,96
  406590:	43 00 00 00 64 00 06 1d 	addiu $6,$29,100
  406598:	43 00 00 00 70 00 05 1d 	addiu $5,$29,112
  4065a0:	43 00 00 00 01 00 02 15 	addiu $2,$21,1
  4065a8:	43 00 00 00 ff ff 03 15 	addiu $3,$21,-1
  4065b0:	4f 00 00 00 03 00 03 03 	andi $3,$3,3
  4065b8:	5b 00 00 00 00 02 02 12 	slt $2,$18,$2
  4065c0:	05 00 00 00 36 00 00 02 	beq $2,$0,4066a0 <geom_+0xc38>
  4065c8:	05 00 00 00 52 00 00 03 	beq $3,$0,406718 <geom_+0xcb0>
  4065d0:	5c 00 00 00 02 00 02 03 	slti $2,$3,2
  4065d8:	06 00 00 00 30 00 00 02 	bne $2,$0,4066a0 <geom_+0xc38>
  4065e0:	5c 00 00 00 03 00 02 03 	slti $2,$3,3
  4065e8:	06 00 00 00 12 00 00 02 	bne $2,$0,406638 <geom_+0xbd0>
  4065f0:	43 00 00 00 54 00 07 1d 	addiu $7,$29,84
  4065f8:	43 00 00 00 64 00 04 1d 	addiu $4,$29,100
  406600:	43 00 00 00 68 00 06 1d 	addiu $6,$29,104
  406608:	28 00 00 00 70 00 02 1d 	lw $2,112($29)
  406610:	43 00 00 00 74 00 05 1d 	addiu $5,$29,116
  406618:	43 00 00 00 03 00 12 00 	addiu $18,$0,3
  406620:	34 00 00 00 64 00 02 1d 	sw $2,100($29)
  406628:	43 00 00 00 ff ff 02 02 	addiu $2,$2,-1
  406630:	34 00 00 00 50 00 02 1d 	sw $2,80($29)
  406638:	28 00 00 00 00 00 03 04 	lw $3,0($4)
  406640:	28 00 00 00 00 00 02 05 	lw $2,0($5)
  406648:	46 00 00 00 00 00 02 03 	mult $3,$2
  406650:	4c 00 00 00 00 02 00 00 	mflo $2
  406658:	43 00 00 00 01 00 12 12 	addiu $18,$18,1
  406660:	34 00 00 00 00 00 02 06 	sw $2,0($6)
  406668:	28 00 00 00 00 00 03 04 	lw $3,0($4)
  406670:	43 00 00 00 04 00 05 05 	addiu $5,$5,4
  406678:	43 00 00 00 04 00 06 06 	addiu $6,$6,4
  406680:	45 00 00 00 00 02 03 02 	subu $2,$2,$3
  406688:	34 00 00 00 00 00 02 07 	sw $2,0($7)
  406690:	43 00 00 00 04 00 07 07 	addiu $7,$7,4
  406698:	43 00 00 00 04 00 04 04 	addiu $4,$4,4
  4066a0:	28 00 00 00 00 00 03 04 	lw $3,0($4)
  4066a8:	28 00 00 00 00 00 02 05 	lw $2,0($5)
  4066b0:	46 00 00 00 00 00 02 03 	mult $3,$2
  4066b8:	4c 00 00 00 00 02 00 00 	mflo $2
  4066c0:	43 00 00 00 01 00 12 12 	addiu $18,$18,1
  4066c8:	5b 00 00 00 00 09 12 15 	slt $9,$21,$18
  4066d0:	34 00 00 00 00 00 02 06 	sw $2,0($6)
  4066d8:	28 00 00 00 00 00 03 04 	lw $3,0($4)
  4066e0:	43 00 00 00 04 00 05 05 	addiu $5,$5,4
  4066e8:	43 00 00 00 04 00 06 06 	addiu $6,$6,4
  4066f0:	45 00 00 00 00 02 03 02 	subu $2,$2,$3
  4066f8:	34 00 00 00 00 00 02 07 	sw $2,0($7)
  406700:	43 00 00 00 04 00 07 07 	addiu $7,$7,4
  406708:	43 00 00 00 04 00 04 04 	addiu $4,$4,4
  406710:	06 00 00 00 58 00 00 09 	bne $9,$0,406878 <geom_+0xe10>
  406718:	42 00 00 00 00 08 07 00 	addu $8,$0,$7
  406720:	42 00 00 00 00 07 06 00 	addu $7,$0,$6
  406728:	42 00 00 00 00 06 05 00 	addu $6,$0,$5
  406730:	42 00 00 00 00 05 04 00 	addu $5,$0,$4
  406738:	28 00 00 00 00 00 03 05 	lw $3,0($5)
  406740:	28 00 00 00 00 00 02 06 	lw $2,0($6)
  406748:	46 00 00 00 00 00 02 03 	mult $3,$2
  406750:	4c 00 00 00 00 03 00 00 	mflo $3
  406758:	34 00 00 00 00 00 03 07 	sw $3,0($7)
  406760:	28 00 00 00 00 00 02 04 	lw $2,0($4)
  406768:	45 00 00 00 00 03 02 03 	subu $3,$3,$2
  406770:	34 00 00 00 00 00 03 08 	sw $3,0($8)
  406778:	28 00 00 00 04 00 03 05 	lw $3,4($5)
  406780:	28 00 00 00 04 00 02 06 	lw $2,4($6)
  406788:	46 00 00 00 00 00 02 03 	mult $3,$2
  406790:	4c 00 00 00 00 03 00 00 	mflo $3
  406798:	34 00 00 00 04 00 03 07 	sw $3,4($7)
  4067a0:	28 00 00 00 04 00 02 04 	lw $2,4($4)
  4067a8:	45 00 00 00 00 03 02 03 	subu $3,$3,$2
  4067b0:	34 00 00 00 04 00 03 08 	sw $3,4($8)
  4067b8:	28 00 00 00 08 00 03 05 	lw $3,8($5)
  4067c0:	28 00 00 00 08 00 02 06 	lw $2,8($6)
  4067c8:	46 00 00 00 00 00 02 03 	mult $3,$2
  4067d0:	4c 00 00 00 00 03 00 00 	mflo $3
  4067d8:	34 00 00 00 08 00 03 07 	sw $3,8($7)
  4067e0:	28 00 00 00 08 00 02 04 	lw $2,8($4)
  4067e8:	45 00 00 00 00 03 02 03 	subu $3,$3,$2
  4067f0:	34 00 00 00 08 00 03 08 	sw $3,8($8)
  4067f8:	28 00 00 00 0c 00 03 05 	lw $3,12($5)
  406800:	28 00 00 00 0c 00 02 06 	lw $2,12($6)
  406808:	46 00 00 00 00 00 02 03 	mult $3,$2
  406810:	43 00 00 00 04 00 12 12 	addiu $18,$18,4
  406818:	4c 00 00 00 00 02 00 00 	mflo $2
  406820:	5b 00 00 00 00 09 12 15 	slt $9,$21,$18
  406828:	43 00 00 00 10 00 05 05 	addiu $5,$5,16
  406830:	34 00 00 00 0c 00 02 07 	sw $2,12($7)
  406838:	28 00 00 00 0c 00 03 04 	lw $3,12($4)
  406840:	43 00 00 00 10 00 06 06 	addiu $6,$6,16
  406848:	43 00 00 00 10 00 07 07 	addiu $7,$7,16
  406850:	45 00 00 00 00 02 03 02 	subu $2,$2,$3
  406858:	34 00 00 00 0c 00 02 08 	sw $2,12($8)
  406860:	43 00 00 00 10 00 08 08 	addiu $8,$8,16
  406868:	43 00 00 00 10 00 04 04 	addiu $4,$4,16
  406870:	05 00 00 00 b0 ff 00 09 	beq $9,$0,406738 <geom_+0xcd0>
  406878:	a2 00 00 00 85 10 03 00 	lui $3,4229
  406880:	28 00 00 00 c0 3c 03 03 	lw $3,15552($3)
  406888:	55 00 00 00 02 03 03 00 	sll $3,$3,0x2
  406890:	42 00 00 00 00 04 03 1d 	addu $4,$29,$3
  406898:	42 00 00 00 00 02 03 1d 	addu $2,$29,$3
  4068a0:	28 00 00 00 6c 00 02 02 	lw $2,108($2)
  4068a8:	28 00 00 00 5c 00 04 04 	lw $4,92($4)
  4068b0:	43 00 00 00 ff ff 02 02 	addiu $2,$2,-1
  4068b8:	46 00 00 00 00 00 02 04 	mult $4,$2
  4068c0:	4c 00 00 00 00 04 00 00 	mflo $4
  4068c8:	43 00 00 00 4c 00 02 1d 	addiu $2,$29,76
  4068d0:	42 00 00 00 00 02 03 02 	addu $2,$2,$3
  4068d8:	34 00 00 00 00 00 04 02 	sw $4,0($2)
  4068e0:	a2 00 00 00 85 10 15 00 	lui $21,4229
  4068e8:	28 00 00 00 c0 3c 15 15 	lw $21,15552($21)
  4068f0:	43 00 00 00 01 00 12 00 	addiu $18,$0,1
  4068f8:	07 00 00 00 9e 00 00 15 	blez $21,406b78 <geom_+0x1110>
  406900:	43 00 00 00 14 00 07 1d 	addiu $7,$29,20
  406908:	43 00 00 00 30 00 06 1d 	addiu $6,$29,48
  406910:	43 00 00 00 50 00 05 1d 	addiu $5,$29,80
  406918:	43 00 00 00 40 00 04 1d 	addiu $4,$29,64
  406920:	43 00 00 00 60 00 08 1d 	addiu $8,$29,96
  406928:	43 00 00 00 01 00 0a 00 	addiu $10,$0,1
  406930:	43 00 00 00 01 00 02 15 	addiu $2,$21,1
  406938:	4f 00 00 00 03 00 03 15 	andi $3,$21,3
  406940:	5b 00 00 00 00 02 02 12 	slt $2,$18,$2
  406948:	05 00 00 00 36 00 00 02 	beq $2,$0,406a28 <geom_+0xfc0>
  406950:	05 00 00 00 4e 00 00 03 	beq $3,$0,406a90 <geom_+0x1028>
  406958:	5c 00 00 00 02 00 02 03 	slti $2,$3,2
  406960:	06 00 00 00 30 00 00 02 	bne $2,$0,406a28 <geom_+0xfc0>
  406968:	5c 00 00 00 03 00 02 03 	slti $2,$3,3
  406970:	06 00 00 00 16 00 00 02 	bne $2,$0,4069d0 <geom_+0xf68>
  406978:	43 00 00 00 18 00 07 1d 	addiu $7,$29,24
  406980:	43 00 00 00 34 00 06 1d 	addiu $6,$29,52
  406988:	43 00 00 00 54 00 05 1d 	addiu $5,$29,84
  406990:	28 00 00 00 60 00 02 1d 	lw $2,96($29)
  406998:	28 00 00 00 50 00 03 1d 	lw $3,80($29)
  4069a0:	43 00 00 00 44 00 04 1d 	addiu $4,$29,68
  4069a8:	43 00 00 00 64 00 08 1d 	addiu $8,$29,100
  4069b0:	34 00 00 00 10 00 12 1d 	sw $18,16($29)
  4069b8:	43 00 00 00 02 00 12 00 	addiu $18,$0,2
  4069c0:	34 00 00 00 40 00 02 1d 	sw $2,64($29)
  4069c8:	34 00 00 00 30 00 03 1d 	sw $3,48($29)
  4069d0:	28 00 00 00 00 00 02 08 	lw $2,0($8)
  4069d8:	43 00 00 00 01 00 12 12 	addiu $18,$18,1
  4069e0:	34 00 00 00 00 00 02 04 	sw $2,0($4)
  4069e8:	28 00 00 00 00 00 02 05 	lw $2,0($5)
  4069f0:	43 00 00 00 04 00 04 04 	addiu $4,$4,4
  4069f8:	43 00 00 00 04 00 08 08 	addiu $8,$8,4
  406a00:	34 00 00 00 00 00 02 06 	sw $2,0($6)
  406a08:	34 00 00 00 fc ff 0a 07 	sw $10,-4($7)
  406a10:	43 00 00 00 04 00 07 07 	addiu $7,$7,4
  406a18:	43 00 00 00 04 00 06 06 	addiu $6,$6,4
  406a20:	43 00 00 00 04 00 05 05 	addiu $5,$5,4
  406a28:	28 00 00 00 00 00 02 08 	lw $2,0($8)
  406a30:	43 00 00 00 01 00 12 12 	addiu $18,$18,1
  406a38:	5b 00 00 00 00 09 12 15 	slt $9,$21,$18
  406a40:	34 00 00 00 00 00 02 04 	sw $2,0($4)
  406a48:	28 00 00 00 00 00 02 05 	lw $2,0($5)
  406a50:	43 00 00 00 04 00 04 04 	addiu $4,$4,4
  406a58:	43 00 00 00 04 00 08 08 	addiu $8,$8,4
  406a60:	34 00 00 00 00 00 02 06 	sw $2,0($6)
  406a68:	34 00 00 00 fc ff 0a 07 	sw $10,-4($7)
  406a70:	43 00 00 00 04 00 07 07 	addiu $7,$7,4
  406a78:	43 00 00 00 04 00 06 06 	addiu $6,$6,4
  406a80:	43 00 00 00 04 00 05 05 	addiu $5,$5,4
  406a88:	06 00 00 00 3a 00 00 09 	bne $9,$0,406b78 <geom_+0x1110>
  406a90:	42 00 00 00 00 03 08 00 	addu $3,$0,$8
  406a98:	28 00 00 00 00 00 02 03 	lw $2,0($3)
  406aa0:	34 00 00 00 00 00 02 04 	sw $2,0($4)
  406aa8:	28 00 00 00 00 00 02 05 	lw $2,0($5)
  406ab0:	34 00 00 00 00 00 02 06 	sw $2,0($6)
  406ab8:	34 00 00 00 fc ff 0a 07 	sw $10,-4($7)
  406ac0:	28 00 00 00 04 00 02 03 	lw $2,4($3)
  406ac8:	34 00 00 00 04 00 02 04 	sw $2,4($4)
  406ad0:	28 00 00 00 04 00 02 05 	lw $2,4($5)
  406ad8:	34 00 00 00 04 00 02 06 	sw $2,4($6)
  406ae0:	34 00 00 00 00 00 0a 07 	sw $10,0($7)
  406ae8:	28 00 00 00 08 00 02 03 	lw $2,8($3)
  406af0:	34 00 00 00 08 00 02 04 	sw $2,8($4)
  406af8:	28 00 00 00 08 00 02 05 	lw $2,8($5)
  406b00:	34 00 00 00 08 00 02 06 	sw $2,8($6)
  406b08:	34 00 00 00 04 00 0a 07 	sw $10,4($7)
  406b10:	28 00 00 00 0c 00 02 03 	lw $2,12($3)
  406b18:	43 00 00 00 04 00 12 12 	addiu $18,$18,4
  406b20:	5b 00 00 00 00 09 12 15 	slt $9,$21,$18
  406b28:	34 00 00 00 0c 00 02 04 	sw $2,12($4)
  406b30:	28 00 00 00 0c 00 02 05 	lw $2,12($5)
  406b38:	43 00 00 00 10 00 04 04 	addiu $4,$4,16
  406b40:	43 00 00 00 10 00 03 03 	addiu $3,$3,16
  406b48:	34 00 00 00 0c 00 02 06 	sw $2,12($6)
  406b50:	34 00 00 00 08 00 0a 07 	sw $10,8($7)
  406b58:	43 00 00 00 10 00 07 07 	addiu $7,$7,16
  406b60:	43 00 00 00 10 00 06 06 	addiu $6,$6,16
  406b68:	43 00 00 00 10 00 05 05 	addiu $5,$5,16
  406b70:	05 00 00 00 c8 ff 00 09 	beq $9,$0,406a98 <geom_+0x1030>
  406b78:	42 00 00 00 00 0f 00 00 	addu $15,$0,$0
  406b80:	a2 00 00 00 85 10 15 00 	lui $21,4229
  406b88:	28 00 00 00 c0 3c 15 15 	lw $21,15552($21)
  406b90:	43 00 00 00 01 00 0f 0f 	addiu $15,$15,1
  406b98:	43 00 00 00 01 00 07 00 	addiu $7,$0,1
  406ba0:	07 00 00 00 a0 00 00 15 	blez $21,406e28 <geom_+0x13c0>
  406ba8:	43 00 00 00 30 00 05 1d 	addiu $5,$29,48
  406bb0:	43 00 00 00 40 00 04 1d 	addiu $4,$29,64
  406bb8:	43 00 00 00 07 10 09 0f 	addiu $9,$15,4103
  406bc0:	a2 00 00 00 83 10 0b 00 	lui $11,4227
  406bc8:	43 00 00 00 50 d4 0b 0b 	addiu $11,$11,-11184
  406bd0:	43 00 00 00 01 00 02 15 	addiu $2,$21,1
  406bd8:	4f 00 00 00 01 00 03 15 	andi $3,$21,1
  406be0:	5b 00 00 00 00 02 02 07 	slt $2,$7,$2
  406be8:	05 00 00 00 02 00 00 02 	beq $2,$0,406bf8 <geom_+0x1190>
  406bf0:	05 00 00 00 30 00 00 03 	beq $3,$0,406cb8 <geom_+0x1250>
  406bf8:	43 00 00 00 34 00 05 1d 	addiu $5,$29,52
  406c00:	43 00 00 00 44 00 04 1d 	addiu $4,$29,68
  406c08:	55 00 00 00 02 03 09 00 	sll $3,$9,0x2
  406c10:	28 00 00 00 40 00 02 1d 	lw $2,64($29)
  406c18:	43 00 00 00 0e 20 09 0f 	addiu $9,$15,8206
  406c20:	42 00 00 00 00 03 0b 03 	addu $3,$3,$11
  406c28:	42 00 00 00 00 02 02 0f 	addu $2,$15,$2
  406c30:	34 00 00 00 00 00 02 03 	sw $2,0($3)
  406c38:	a2 00 00 00 85 10 03 00 	lui $3,4229
  406c40:	28 00 00 00 c0 3c 03 03 	lw $3,15552($3)
  406c48:	43 00 00 00 02 00 07 00 	addiu $7,$0,2
  406c50:	5c 00 00 00 02 00 0a 15 	slti $10,$21,2
  406c58:	43 00 00 00 01 00 03 03 	addiu $3,$3,1
  406c60:	55 00 00 00 09 02 03 00 	sll $2,$3,0x9
  406c68:	42 00 00 00 00 02 03 02 	addu $2,$2,$3
  406c70:	55 00 00 00 03 02 02 00 	sll $2,$2,0x3
  406c78:	45 00 00 00 00 02 03 02 	subu $2,$2,$3
  406c80:	42 00 00 00 00 02 0f 02 	addu $2,$2,$15
  406c88:	28 00 00 00 30 00 03 1d 	lw $3,48($29)
  406c90:	55 00 00 00 02 02 02 00 	sll $2,$2,0x2
  406c98:	42 00 00 00 00 02 0b 02 	addu $2,$2,$11
  406ca0:	42 00 00 00 00 03 03 0f 	addu $3,$15,$3
  406ca8:	34 00 00 00 00 00 03 02 	sw $3,0($2)
  406cb0:	06 00 00 00 5c 00 00 0a 	bne $10,$0,406e28 <geom_+0x13c0>
  406cb8:	42 00 00 00 00 08 05 00 	addu $8,$0,$5
  406cc0:	42 00 00 00 00 06 04 00 	addu $6,$0,$4
  406cc8:	28 00 00 00 00 00 03 06 	lw $3,0($6)
  406cd0:	55 00 00 00 02 02 09 00 	sll $2,$9,0x2
  406cd8:	42 00 00 00 00 02 0b 02 	addu $2,$2,$11
  406ce0:	43 00 00 00 07 10 04 09 	addiu $4,$9,4103
  406ce8:	43 00 00 00 0e 20 09 09 	addiu $9,$9,8206
  406cf0:	43 00 00 00 01 00 05 07 	addiu $5,$7,1
  406cf8:	42 00 00 00 00 03 03 0f 	addu $3,$15,$3
  406d00:	34 00 00 00 00 00 03 02 	sw $3,0($2)
  406d08:	a2 00 00 00 85 10 03 00 	lui $3,4229
  406d10:	28 00 00 00 c0 3c 03 03 	lw $3,15552($3)
  406d18:	55 00 00 00 02 04 04 00 	sll $4,$4,0x2
  406d20:	42 00 00 00 00 04 0b 04 	addu $4,$4,$11
  406d28:	42 00 00 00 00 03 07 03 	addu $3,$3,$7
  406d30:	55 00 00 00 09 02 03 00 	sll $2,$3,0x9
  406d38:	42 00 00 00 00 02 03 02 	addu $2,$2,$3
  406d40:	55 00 00 00 03 02 02 00 	sll $2,$2,0x3
  406d48:	45 00 00 00 00 02 03 02 	subu $2,$2,$3
  406d50:	42 00 00 00 00 02 0f 02 	addu $2,$2,$15
  406d58:	28 00 00 00 00 00 03 08 	lw $3,0($8)
  406d60:	55 00 00 00 02 02 02 00 	sll $2,$2,0x2
  406d68:	42 00 00 00 00 02 0b 02 	addu $2,$2,$11
  406d70:	42 00 00 00 00 03 03 0f 	addu $3,$15,$3
  406d78:	34 00 00 00 00 00 03 02 	sw $3,0($2)
  406d80:	28 00 00 00 04 00 02 06 	lw $2,4($6)
  406d88:	43 00 00 00 02 00 07 07 	addiu $7,$7,2
  406d90:	5b 00 00 00 00 0a 07 15 	slt $10,$21,$7
  406d98:	42 00 00 00 00 02 02 0f 	addu $2,$15,$2
  406da0:	34 00 00 00 00 00 02 04 	sw $2,0($4)
  406da8:	28 00 00 00 04 00 04 08 	lw $4,4($8)
  406db0:	a2 00 00 00 85 10 03 00 	lui $3,4229
  406db8:	28 00 00 00 c0 3c 03 03 	lw $3,15552($3)
  406dc0:	43 00 00 00 08 00 06 06 	addiu $6,$6,8
  406dc8:	43 00 00 00 08 00 08 08 	addiu $8,$8,8
  406dd0:	42 00 00 00 00 03 05 03 	addu $3,$3,$5
  406dd8:	55 00 00 00 09 02 03 00 	sll $2,$3,0x9
  406de0:	42 00 00 00 00 02 03 02 	addu $2,$2,$3
  406de8:	55 00 00 00 03 02 02 00 	sll $2,$2,0x3
  406df0:	45 00 00 00 00 02 03 02 	subu $2,$2,$3
  406df8:	42 00 00 00 00 02 0f 02 	addu $2,$2,$15
  406e00:	55 00 00 00 02 02 02 00 	sll $2,$2,0x2
  406e08:	42 00 00 00 00 02 0b 02 	addu $2,$2,$11
  406e10:	42 00 00 00 00 04 04 0f 	addu $4,$15,$4
  406e18:	34 00 00 00 00 00 04 02 	sw $4,0($2)
  406e20:	05 00 00 00 a8 ff 00 0a 	beq $10,$0,406cc8 <geom_+0x1260>
  406e28:	a2 00 00 00 85 10 15 00 	lui $21,4229
  406e30:	28 00 00 00 c0 3c 15 15 	lw $21,15552($21)
  406e38:	43 00 00 00 01 00 12 00 	addiu $18,$0,1
  406e40:	07 00 00 00 cc 00 00 15 	blez $21,407178 <geom_+0x1710>
  406e48:	43 00 00 00 30 00 0a 1d 	addiu $10,$29,48
  406e50:	43 00 00 00 50 00 08 1d 	addiu $8,$29,80
  406e58:	43 00 00 00 40 00 07 1d 	addiu $7,$29,64
  406e60:	43 00 00 00 60 00 04 1d 	addiu $4,$29,96
  406e68:	43 00 00 00 70 00 09 1d 	addiu $9,$29,112
  406e70:	43 00 00 00 14 00 05 1d 	addiu $5,$29,20
  406e78:	43 00 00 00 01 00 10 00 	addiu $16,$0,1
  406e80:	43 00 00 00 01 00 02 15 	addiu $2,$21,1
  406e88:	4f 00 00 00 01 00 03 15 	andi $3,$21,1
  406e90:	5b 00 00 00 00 02 02 12 	slt $2,$18,$2
  406e98:	05 00 00 00 02 00 00 02 	beq $2,$0,406ea8 <geom_+0x1440>
  406ea0:	05 00 00 00 36 00 00 03 	beq $3,$0,406f80 <geom_+0x1518>
  406ea8:	28 00 00 00 10 00 02 1d 	lw $2,16($29)
  406eb0:	28 00 00 00 60 00 06 1d 	lw $6,96($29)
  406eb8:	28 00 00 00 70 00 04 1d 	lw $4,112($29)
  406ec0:	43 00 00 00 01 00 03 02 	addiu $3,$2,1
  406ec8:	45 00 00 00 00 02 06 00 	subu $2,$0,$6
  406ed0:	34 00 00 00 30 00 02 1d 	sw $2,48($29)
  406ed8:	5b 00 00 00 00 02 04 03 	slt $2,$3,$4
  406ee0:	34 00 00 00 10 00 03 1d 	sw $3,16($29)
  406ee8:	06 00 00 00 24 ff 00 02 	bne $2,$0,406b80 <geom_+0x1118>
  406ef0:	06 00 00 00 08 00 04 03 	bne $3,$4,406f18 <geom_+0x14b0>
  406ef8:	28 00 00 00 50 00 02 1d 	lw $2,80($29)
  406f00:	45 00 00 00 00 02 02 00 	subu $2,$0,$2
  406f08:	34 00 00 00 40 00 02 1d 	sw $2,64($29)
  406f10:	01 00 00 00 e0 1a 10 00 	j 406b80 <geom_+0x1118>
  406f18:	43 00 00 00 34 00 0a 1d 	addiu $10,$29,52
  406f20:	43 00 00 00 54 00 08 1d 	addiu $8,$29,84
  406f28:	43 00 00 00 44 00 07 1d 	addiu $7,$29,68
  406f30:	43 00 00 00 64 00 04 1d 	addiu $4,$29,100
  406f38:	28 00 00 00 50 00 02 1d 	lw $2,80($29)
  406f40:	43 00 00 00 74 00 09 1d 	addiu $9,$29,116
  406f48:	43 00 00 00 18 00 05 1d 	addiu $5,$29,24
  406f50:	34 00 00 00 10 00 12 1d 	sw $18,16($29)
  406f58:	43 00 00 00 02 00 12 00 	addiu $18,$0,2
  406f60:	5c 00 00 00 02 00 03 15 	slti $3,$21,2
  406f68:	34 00 00 00 40 00 06 1d 	sw $6,64($29)
  406f70:	34 00 00 00 30 00 02 1d 	sw $2,48($29)
  406f78:	06 00 00 00 7e 00 00 03 	bne $3,$0,407178 <geom_+0x1710>
  406f80:	42 00 00 00 00 0c 0a 00 	addu $12,$0,$10
  406f88:	42 00 00 00 00 0a 08 00 	addu $10,$0,$8
  406f90:	42 00 00 00 00 08 07 00 	addu $8,$0,$7
  406f98:	42 00 00 00 00 06 04 00 	addu $6,$0,$4
  406fa0:	42 00 00 00 00 0e 08 00 	addu $14,$0,$8
  406fa8:	42 00 00 00 00 0d 0a 00 	addu $13,$0,$10
  406fb0:	42 00 00 00 00 0b 09 00 	addu $11,$0,$9
  406fb8:	42 00 00 00 00 09 0c 00 	addu $9,$0,$12
  406fc0:	42 00 00 00 00 07 06 00 	addu $7,$0,$6
  406fc8:	28 00 00 00 fc ff 02 05 	lw $2,-4($5)
  406fd0:	43 00 00 00 01 00 02 02 	addiu $2,$2,1
  406fd8:	34 00 00 00 fc ff 02 05 	sw $2,-4($5)
  406fe0:	28 00 00 00 00 00 02 07 	lw $2,0($7)
  406fe8:	45 00 00 00 00 02 02 00 	subu $2,$0,$2
  406ff0:	34 00 00 00 00 00 02 09 	sw $2,0($9)
  406ff8:	28 00 00 00 fc ff 04 05 	lw $4,-4($5)
  407000:	28 00 00 00 00 00 03 0b 	lw $3,0($11)
  407008:	5b 00 00 00 00 02 03 04 	slt $2,$4,$3
  407010:	06 00 00 00 da fe 00 02 	bne $2,$0,406b80 <geom_+0x1118>
  407018:	06 00 00 00 08 00 03 04 	bne $4,$3,407040 <geom_+0x15d8>
  407020:	28 00 00 00 00 00 02 0d 	lw $2,0($13)
  407028:	45 00 00 00 00 02 02 00 	subu $2,$0,$2
  407030:	34 00 00 00 00 00 02 0e 	sw $2,0($14)
  407038:	01 00 00 00 e0 1a 10 00 	j 406b80 <geom_+0x1118>
  407040:	34 00 00 00 fc ff 10 05 	sw $16,-4($5)
  407048:	28 00 00 00 00 00 02 06 	lw $2,0($6)
  407050:	34 00 00 00 00 00 02 08 	sw $2,0($8)
  407058:	28 00 00 00 00 00 02 0a 	lw $2,0($10)
  407060:	34 00 00 00 00 00 02 0c 	sw $2,0($12)
  407068:	28 00 00 00 00 00 02 05 	lw $2,0($5)
  407070:	43 00 00 00 01 00 02 02 	addiu $2,$2,1
  407078:	34 00 00 00 00 00 02 05 	sw $2,0($5)
  407080:	28 00 00 00 04 00 02 07 	lw $2,4($7)
  407088:	45 00 00 00 00 02 02 00 	subu $2,$0,$2
  407090:	34 00 00 00 04 00 02 09 	sw $2,4($9)
  407098:	28 00 00 00 00 00 04 05 	lw $4,0($5)
  4070a0:	28 00 00 00 04 00 03 0b 	lw $3,4($11)
  4070a8:	43 00 00 00 01 00 12 12 	addiu $18,$18,1
  4070b0:	5b 00 00 00 00 02 03 04 	slt $2,$4,$3
  4070b8:	06 00 00 00 b0 fe 00 02 	bne $2,$0,406b80 <geom_+0x1118>
  4070c0:	06 00 00 00 08 00 03 04 	bne $4,$3,4070e8 <geom_+0x1680>
  4070c8:	28 00 00 00 04 00 02 0d 	lw $2,4($13)
  4070d0:	45 00 00 00 00 02 02 00 	subu $2,$0,$2
  4070d8:	34 00 00 00 04 00 02 0e 	sw $2,4($14)
  4070e0:	01 00 00 00 e0 1a 10 00 	j 406b80 <geom_+0x1118>
  4070e8:	43 00 00 00 08 00 09 09 	addiu $9,$9,8
  4070f0:	43 00 00 00 08 00 0d 0d 	addiu $13,$13,8
  4070f8:	43 00 00 00 08 00 0e 0e 	addiu $14,$14,8
  407100:	43 00 00 00 08 00 07 07 	addiu $7,$7,8
  407108:	43 00 00 00 08 00 0b 0b 	addiu $11,$11,8
  407110:	34 00 00 00 00 00 10 05 	sw $16,0($5)
  407118:	43 00 00 00 08 00 05 05 	addiu $5,$5,8
  407120:	28 00 00 00 04 00 02 06 	lw $2,4($6)
  407128:	43 00 00 00 01 00 12 12 	addiu $18,$18,1
  407130:	5b 00 00 00 00 03 12 15 	slt $3,$21,$18
  407138:	34 00 00 00 04 00 02 08 	sw $2,4($8)
  407140:	28 00 00 00 04 00 02 0a 	lw $2,4($10)
  407148:	43 00 00 00 08 00 08 08 	addiu $8,$8,8
  407150:	43 00 00 00 08 00 06 06 	addiu $6,$6,8
  407158:	34 00 00 00 04 00 02 0c 	sw $2,4($12)
  407160:	43 00 00 00 08 00 0c 0c 	addiu $12,$12,8
  407168:	43 00 00 00 08 00 0a 0a 	addiu $10,$10,8
  407170:	05 00 00 00 94 ff 00 03 	beq $3,$0,406fc8 <geom_+0x1560>
  407178:	42 00 00 00 00 02 00 00 	addu $2,$0,$0
  407180:	28 00 00 00 c8 00 1f 1d 	lw $31,200($29)
  407188:	28 00 00 00 c4 00 17 1d 	lw $23,196($29)
  407190:	28 00 00 00 c0 00 16 1d 	lw $22,192($29)
  407198:	28 00 00 00 bc 00 15 1d 	lw $21,188($29)
  4071a0:	28 00 00 00 b8 00 14 1d 	lw $20,184($29)
  4071a8:	28 00 00 00 b4 00 13 1d 	lw $19,180($29)
  4071b0:	28 00 00 00 b0 00 12 1d 	lw $18,176($29)
  4071b8:	28 00 00 00 ac 00 11 1d 	lw $17,172($29)
  4071c0:	28 00 00 00 a8 00 10 1d 	lw $16,168($29)
  4071c8:	43 00 00 00 d0 00 1d 1d 	addiu $29,$29,208
  4071d0:	03 00 00 00 00 00 00 1f 	jr $31

004071d8 <matmat_0_>:
  4071d8:	43 00 00 00 e0 ff 1d 1d 	addiu $29,$29,-32
  4071e0:	28 00 00 00 34 00 02 1d 	lw $2,52($29)
  4071e8:	28 00 00 00 30 00 03 1d 	lw $3,48($29)
  4071f0:	43 00 00 00 f8 ff 0e 05 	addiu $14,$5,-8
  4071f8:	43 00 00 00 f8 ff 0d 06 	addiu $13,$6,-8
  407200:	34 00 00 00 1c 00 17 1d 	sw $23,28($29)
  407208:	34 00 00 00 18 00 16 1d 	sw $22,24($29)
  407210:	34 00 00 00 14 00 15 1d 	sw $21,20($29)
  407218:	34 00 00 00 10 00 14 1d 	sw $20,16($29)
  407220:	34 00 00 00 0c 00 13 1d 	sw $19,12($29)
  407228:	34 00 00 00 08 00 12 1d 	sw $18,8($29)
  407230:	34 00 00 00 04 00 11 1d 	sw $17,4($29)
  407238:	34 00 00 00 00 00 10 1d 	sw $16,0($29)
  407240:	28 00 00 00 00 00 11 02 	lw $17,0($2)
  407248:	43 00 00 00 f8 ff 0c 07 	addiu $12,$7,-8
  407250:	43 00 00 00 ff ff 04 04 	addiu $4,$4,-1
  407258:	42 00 00 00 00 10 11 00 	addu $16,$0,$17
  407260:	42 00 00 00 00 18 10 00 	addu $24,$0,$16
  407268:	5e 00 00 00 07 00 02 04 	sltiu $2,$4,7
  407270:	05 00 00 00 0a 00 00 02 	beq $2,$0,4072a0 <matmat_0_+0xc8>
  407278:	55 00 00 00 02 02 04 00 	sll $2,$4,0x2
  407280:	a2 00 00 00 00 10 01 00 	lui $1,4096
  407288:	42 00 00 00 00 01 02 01 	addu $1,$1,$2
  407290:	28 00 00 00 58 01 02 01 	lw $2,344($1)
  407298:	03 00 00 00 00 00 00 02 	jr $2
  4072a0:	28 00 00 00 00 00 19 03 	lw $25,0($3)
  4072a8:	43 00 00 00 01 00 09 00 	addiu $9,$0,1
  4072b0:	07 00 00 00 24 07 00 19 	blez $25,408f48 <matmat_0_+0x1d70>
  4072b8:	55 00 00 00 01 12 18 00 	sll $18,$24,0x1
  4072c0:	42 00 00 00 00 17 12 00 	addu $23,$0,$18
  4072c8:	42 00 00 00 00 13 18 12 	addu $19,$18,$24
  4072d0:	42 00 00 00 00 16 13 00 	addu $22,$0,$19
  4072d8:	42 00 00 00 00 15 12 00 	addu $21,$0,$18
  4072e0:	42 00 00 00 00 14 13 00 	addu $20,$0,$19
  4072e8:	43 00 00 00 08 00 0b 0d 	addiu $11,$13,8
  4072f0:	43 00 00 00 08 00 0a 0e 	addiu $10,$14,8
  4072f8:	43 00 00 00 08 00 0f 0c 	addiu $15,$12,8
  407300:	2b 00 00 00 00 00 04 0a 	l.d $f4,0($10)
  407308:	2b 00 00 00 00 00 00 0b 	l.d $f0,0($11)
  407310:	75 00 00 00 00 04 00 04 	mul.d $f4,$f4,$f0
  407318:	42 00 00 00 00 07 11 09 	addu $7,$9,$17
  407320:	55 00 00 00 03 07 07 00 	sll $7,$7,0x3
  407328:	42 00 00 00 00 07 0e 07 	addu $7,$7,$14
  407330:	42 00 00 00 00 08 10 09 	addu $8,$9,$16
  407338:	55 00 00 00 03 08 08 00 	sll $8,$8,0x3
  407340:	42 00 00 00 00 08 0d 08 	addu $8,$8,$13
  407348:	2b 00 00 00 00 00 08 07 	l.d $f8,0($7)
  407350:	2b 00 00 00 00 00 00 08 	l.d $f0,0($8)
  407358:	75 00 00 00 00 08 00 08 	mul.d $f8,$f8,$f0
  407360:	42 00 00 00 00 06 17 09 	addu $6,$9,$23
  407368:	55 00 00 00 03 06 06 00 	sll $6,$6,0x3
  407370:	42 00 00 00 00 06 0e 06 	addu $6,$6,$14
  407378:	42 00 00 00 00 05 12 09 	addu $5,$9,$18
  407380:	55 00 00 00 03 05 05 00 	sll $5,$5,0x3
  407388:	42 00 00 00 00 05 0d 05 	addu $5,$5,$13
  407390:	2b 00 00 00 00 00 06 06 	l.d $f6,0($6)
  407398:	2b 00 00 00 00 00 00 05 	l.d $f0,0($5)
  4073a0:	75 00 00 00 00 06 00 06 	mul.d $f6,$f6,$f0
  4073a8:	42 00 00 00 00 04 09 16 	addu $4,$22,$9
  4073b0:	55 00 00 00 03 04 04 00 	sll $4,$4,0x3
  4073b8:	42 00 00 00 00 04 0e 04 	addu $4,$4,$14
  4073c0:	42 00 00 00 00 03 09 13 	addu $3,$19,$9
  4073c8:	55 00 00 00 03 03 03 00 	sll $3,$3,0x3
  4073d0:	42 00 00 00 00 03 0d 03 	addu $3,$3,$13
  4073d8:	2b 00 00 00 00 00 02 03 	l.d $f2,0($3)
  4073e0:	2b 00 00 00 00 00 00 04 	l.d $f0,0($4)
  4073e8:	73 00 00 00 00 04 08 04 	sub.d $f4,$f4,$f8
  4073f0:	75 00 00 00 00 00 02 00 	mul.d $f0,$f0,$f2
  4073f8:	73 00 00 00 00 04 06 04 	sub.d $f4,$f4,$f6
  407400:	73 00 00 00 00 04 00 04 	sub.d $f4,$f4,$f0
  407408:	37 00 00 00 00 00 04 0f 	s.d $f4,0($15)
  407410:	2b 00 00 00 00 00 02 0a 	l.d $f2,0($10)
  407418:	2b 00 00 00 00 00 00 08 	l.d $f0,0($8)
  407420:	75 00 00 00 00 02 00 02 	mul.d $f2,$f2,$f0
  407428:	2b 00 00 00 00 00 08 07 	l.d $f8,0($7)
  407430:	2b 00 00 00 00 00 00 0b 	l.d $f0,0($11)
  407438:	75 00 00 00 00 08 00 08 	mul.d $f8,$f8,$f0
  407440:	2b 00 00 00 00 00 06 06 	l.d $f6,0($6)
  407448:	2b 00 00 00 00 00 00 03 	l.d $f0,0($3)
  407450:	75 00 00 00 00 06 00 06 	mul.d $f6,$f6,$f0
  407458:	2b 00 00 00 00 00 04 05 	l.d $f4,0($5)
  407460:	2b 00 00 00 00 00 00 04 	l.d $f0,0($4)
  407468:	71 00 00 00 00 02 08 02 	add.d $f2,$f2,$f8
  407470:	75 00 00 00 00 00 04 00 	mul.d $f0,$f0,$f4
  407478:	71 00 00 00 00 02 06 02 	add.d $f2,$f2,$f6
  407480:	73 00 00 00 00 02 00 02 	sub.d $f2,$f2,$f0
  407488:	42 00 00 00 00 02 18 09 	addu $2,$9,$24
  407490:	55 00 00 00 03 02 02 00 	sll $2,$2,0x3
  407498:	42 00 00 00 00 02 0c 02 	addu $2,$2,$12
  4074a0:	37 00 00 00 00 00 02 02 	s.d $f2,0($2)
  4074a8:	2b 00 00 00 00 00 02 0a 	l.d $f2,0($10)
  4074b0:	2b 00 00 00 00 00 00 05 	l.d $f0,0($5)
  4074b8:	75 00 00 00 00 02 00 02 	mul.d $f2,$f2,$f0
  4074c0:	2b 00 00 00 00 00 08 07 	l.d $f8,0($7)
  4074c8:	2b 00 00 00 00 00 00 03 	l.d $f0,0($3)
  4074d0:	75 00 00 00 00 08 00 08 	mul.d $f8,$f8,$f0
  4074d8:	2b 00 00 00 00 00 06 06 	l.d $f6,0($6)
  4074e0:	2b 00 00 00 00 00 00 0b 	l.d $f0,0($11)
  4074e8:	75 00 00 00 00 06 00 06 	mul.d $f6,$f6,$f0
  4074f0:	2b 00 00 00 00 00 04 08 	l.d $f4,0($8)
  4074f8:	2b 00 00 00 00 00 00 04 	l.d $f0,0($4)
  407500:	73 00 00 00 00 02 08 02 	sub.d $f2,$f2,$f8
  407508:	75 00 00 00 00 00 04 00 	mul.d $f0,$f0,$f4
  407510:	71 00 00 00 00 02 06 02 	add.d $f2,$f2,$f6
  407518:	71 00 00 00 00 02 00 02 	add.d $f2,$f2,$f0
  407520:	42 00 00 00 00 02 15 09 	addu $2,$9,$21
  407528:	55 00 00 00 03 02 02 00 	sll $2,$2,0x3
  407530:	42 00 00 00 00 02 0c 02 	addu $2,$2,$12
  407538:	37 00 00 00 00 00 02 02 	s.d $f2,0($2)
  407540:	2b 00 00 00 00 00 02 0a 	l.d $f2,0($10)
  407548:	2b 00 00 00 00 00 00 03 	l.d $f0,0($3)
  407550:	75 00 00 00 00 02 00 02 	mul.d $f2,$f2,$f0
  407558:	2b 00 00 00 00 00 04 07 	l.d $f4,0($7)
  407560:	2b 00 00 00 00 00 00 05 	l.d $f0,0($5)
  407568:	75 00 00 00 00 04 00 04 	mul.d $f4,$f4,$f0
  407570:	2b 00 00 00 00 00 06 06 	l.d $f6,0($6)
  407578:	2b 00 00 00 00 00 00 08 	l.d $f0,0($8)
  407580:	75 00 00 00 00 06 00 06 	mul.d $f6,$f6,$f0
  407588:	2b 00 00 00 00 00 08 04 	l.d $f8,0($4)
  407590:	2b 00 00 00 00 00 00 0b 	l.d $f0,0($11)
  407598:	71 00 00 00 00 02 04 02 	add.d $f2,$f2,$f4
  4075a0:	75 00 00 00 00 08 00 08 	mul.d $f8,$f8,$f0
  4075a8:	43 00 00 00 08 00 0f 0f 	addiu $15,$15,8
  4075b0:	73 00 00 00 00 02 06 02 	sub.d $f2,$f2,$f6
  4075b8:	42 00 00 00 00 02 09 14 	addu $2,$20,$9
  4075c0:	43 00 00 00 01 00 09 09 	addiu $9,$9,1
  4075c8:	55 00 00 00 03 02 02 00 	sll $2,$2,0x3
  4075d0:	71 00 00 00 00 02 08 02 	add.d $f2,$f2,$f8
  4075d8:	42 00 00 00 00 02 0c 02 	addu $2,$2,$12
  4075e0:	43 00 00 00 08 00 0a 0a 	addiu $10,$10,8
  4075e8:	43 00 00 00 08 00 0b 0b 	addiu $11,$11,8
  4075f0:	37 00 00 00 00 00 02 02 	s.d $f2,0($2)
  4075f8:	5b 00 00 00 00 02 09 19 	slt $2,$25,$9
  407600:	05 00 00 00 3e ff 00 02 	beq $2,$0,407300 <matmat_0_+0x128>
  407608:	01 00 00 00 d2 23 10 00 	j 408f48 <matmat_0_+0x1d70>
  407610:	28 00 00 00 00 00 19 03 	lw $25,0($3)
  407618:	43 00 00 00 01 00 09 00 	addiu $9,$0,1
  407620:	07 00 00 00 48 06 00 19 	blez $25,408f48 <matmat_0_+0x1d70>
  407628:	55 00 00 00 01 14 11 00 	sll $20,$17,0x1
  407630:	42 00 00 00 00 17 11 14 	addu $23,$20,$17
  407638:	55 00 00 00 01 13 10 00 	sll $19,$16,0x1
  407640:	42 00 00 00 00 16 10 13 	addu $22,$19,$16
  407648:	55 00 00 00 01 12 18 00 	sll $18,$24,0x1
  407650:	42 00 00 00 00 15 18 12 	addu $21,$18,$24
  407658:	43 00 00 00 08 00 0b 0d 	addiu $11,$13,8
  407660:	43 00 00 00 08 00 0a 0e 	addiu $10,$14,8
  407668:	43 00 00 00 08 00 0f 0c 	addiu $15,$12,8
  407670:	2b 00 00 00 00 00 02 0a 	l.d $f2,0($10)
  407678:	2b 00 00 00 00 00 00 0b 	l.d $f0,0($11)
  407680:	75 00 00 00 00 02 00 02 	mul.d $f2,$f2,$f0
  407688:	42 00 00 00 00 07 11 09 	addu $7,$9,$17
  407690:	55 00 00 00 03 07 07 00 	sll $7,$7,0x3
  407698:	42 00 00 00 00 07 0e 07 	addu $7,$7,$14
  4076a0:	42 00 00 00 00 08 10 09 	addu $8,$9,$16
  4076a8:	55 00 00 00 03 08 08 00 	sll $8,$8,0x3
  4076b0:	42 00 00 00 00 08 0d 08 	addu $8,$8,$13
  4076b8:	2b 00 00 00 00 00 08 07 	l.d $f8,0($7)
  4076c0:	2b 00 00 00 00 00 00 08 	l.d $f0,0($8)
  4076c8:	75 00 00 00 00 08 00 08 	mul.d $f8,$f8,$f0
  4076d0:	42 00 00 00 00 06 14 09 	addu $6,$9,$20
  4076d8:	55 00 00 00 03 06 06 00 	sll $6,$6,0x3
  4076e0:	42 00 00 00 00 06 0e 06 	addu $6,$6,$14
  4076e8:	42 00 00 00 00 04 13 09 	addu $4,$9,$19
  4076f0:	55 00 00 00 03 04 04 00 	sll $4,$4,0x3
  4076f8:	42 00 00 00 00 04 0d 04 	addu $4,$4,$13
  407700:	2b 00 00 00 00 00 06 06 	l.d $f6,0($6)
  407708:	2b 00 00 00 00 00 00 04 	l.d $f0,0($4)
  407710:	2b 00 00 00 00 00 04 0f 	l.d $f4,0($15)
  407718:	42 00 00 00 00 05 09 17 	addu $5,$23,$9
  407720:	75 00 00 00 00 06 00 06 	mul.d $f6,$f6,$f0
  407728:	55 00 00 00 03 05 05 00 	sll $5,$5,0x3
  407730:	42 00 00 00 00 05 0e 05 	addu $5,$5,$14
  407738:	71 00 00 00 00 04 02 04 	add.d $f4,$f4,$f2
  407740:	42 00 00 00 00 03 09 16 	addu $3,$22,$9
  407748:	55 00 00 00 03 03 03 00 	sll $3,$3,0x3
  407750:	42 00 00 00 00 03 0d 03 	addu $3,$3,$13
  407758:	2b 00 00 00 00 00 02 03 	l.d $f2,0($3)
  407760:	2b 00 00 00 00 00 00 05 	l.d $f0,0($5)
  407768:	73 00 00 00 00 04 08 04 	sub.d $f4,$f4,$f8
  407770:	75 00 00 00 00 00 02 00 	mul.d $f0,$f0,$f2
  407778:	73 00 00 00 00 04 06 04 	sub.d $f4,$f4,$f6
  407780:	73 00 00 00 00 04 00 04 	sub.d $f4,$f4,$f0
  407788:	37 00 00 00 00 00 04 0f 	s.d $f4,0($15)
  407790:	2b 00 00 00 00 00 04 0a 	l.d $f4,0($10)
  407798:	2b 00 00 00 00 00 00 08 	l.d $f0,0($8)
  4077a0:	75 00 00 00 00 04 00 04 	mul.d $f4,$f4,$f0
  4077a8:	2b 00 00 00 00 00 08 07 	l.d $f8,0($7)
  4077b0:	2b 00 00 00 00 00 00 0b 	l.d $f0,0($11)
  4077b8:	75 00 00 00 00 08 00 08 	mul.d $f8,$f8,$f0
  4077c0:	2b 00 00 00 00 00 06 06 	l.d $f6,0($6)
  4077c8:	2b 00 00 00 00 00 02 03 	l.d $f2,0($3)
  4077d0:	42 00 00 00 00 02 18 09 	addu $2,$9,$24
  4077d8:	55 00 00 00 03 02 02 00 	sll $2,$2,0x3
  4077e0:	75 00 00 00 00 06 02 06 	mul.d $f6,$f6,$f2
  4077e8:	42 00 00 00 00 02 0c 02 	addu $2,$2,$12
  4077f0:	2b 00 00 00 00 00 00 02 	l.d $f0,0($2)
  4077f8:	71 00 00 00 00 00 04 00 	add.d $f0,$f0,$f4
  407800:	2b 00 00 00 00 00 02 05 	l.d $f2,0($5)
  407808:	2b 00 00 00 00 00 04 04 	l.d $f4,0($4)
  407810:	71 00 00 00 00 00 08 00 	add.d $f0,$f0,$f8
  407818:	75 00 00 00 00 02 04 02 	mul.d $f2,$f2,$f4
  407820:	71 00 00 00 00 00 06 00 	add.d $f0,$f0,$f6
  407828:	73 00 00 00 00 00 02 00 	sub.d $f0,$f0,$f2
  407830:	37 00 00 00 00 00 00 02 	s.d $f0,0($2)
  407838:	2b 00 00 00 00 00 04 0a 	l.d $f4,0($10)
  407840:	2b 00 00 00 00 00 00 04 	l.d $f0,0($4)
  407848:	75 00 00 00 00 04 00 04 	mul.d $f4,$f4,$f0
  407850:	2b 00 00 00 00 00 08 07 	l.d $f8,0($7)
  407858:	2b 00 00 00 00 00 00 03 	l.d $f0,0($3)
  407860:	75 00 00 00 00 08 00 08 	mul.d $f8,$f8,$f0
  407868:	2b 00 00 00 00 00 06 06 	l.d $f6,0($6)
  407870:	2b 00 00 00 00 00 02 0b 	l.d $f2,0($11)
  407878:	42 00 00 00 00 02 12 09 	addu $2,$9,$18
  407880:	55 00 00 00 03 02 02 00 	sll $2,$2,0x3
  407888:	75 00 00 00 00 06 02 06 	mul.d $f6,$f6,$f2
  407890:	42 00 00 00 00 02 0c 02 	addu $2,$2,$12
  407898:	2b 00 00 00 00 00 00 02 	l.d $f0,0($2)
  4078a0:	71 00 00 00 00 00 04 00 	add.d $f0,$f0,$f4
  4078a8:	2b 00 00 00 00 00 02 05 	l.d $f2,0($5)
  4078b0:	2b 00 00 00 00 00 04 08 	l.d $f4,0($8)
  4078b8:	73 00 00 00 00 00 08 00 	sub.d $f0,$f0,$f8
  4078c0:	75 00 00 00 00 02 04 02 	mul.d $f2,$f2,$f4
  4078c8:	71 00 00 00 00 00 06 00 	add.d $f0,$f0,$f6
  4078d0:	71 00 00 00 00 00 02 00 	add.d $f0,$f0,$f2
  4078d8:	37 00 00 00 00 00 00 02 	s.d $f0,0($2)
  4078e0:	2b 00 00 00 00 00 04 0a 	l.d $f4,0($10)
  4078e8:	2b 00 00 00 00 00 00 03 	l.d $f0,0($3)
  4078f0:	75 00 00 00 00 04 00 04 	mul.d $f4,$f4,$f0
  4078f8:	2b 00 00 00 00 00 08 07 	l.d $f8,0($7)
  407900:	2b 00 00 00 00 00 00 04 	l.d $f0,0($4)
  407908:	75 00 00 00 00 08 00 08 	mul.d $f8,$f8,$f0
  407910:	2b 00 00 00 00 00 06 06 	l.d $f6,0($6)
  407918:	2b 00 00 00 00 00 02 08 	l.d $f2,0($8)
  407920:	42 00 00 00 00 02 09 15 	addu $2,$21,$9
  407928:	55 00 00 00 03 02 02 00 	sll $2,$2,0x3
  407930:	75 00 00 00 00 06 02 06 	mul.d $f6,$f6,$f2
  407938:	42 00 00 00 00 02 0c 02 	addu $2,$2,$12
  407940:	2b 00 00 00 00 00 00 02 	l.d $f0,0($2)
  407948:	71 00 00 00 00 00 04 00 	add.d $f0,$f0,$f4
  407950:	2b 00 00 00 00 00 02 05 	l.d $f2,0($5)
  407958:	2b 00 00 00 00 00 04 0b 	l.d $f4,0($11)
  407960:	71 00 00 00 00 00 08 00 	add.d $f0,$f0,$f8
  407968:	75 00 00 00 00 02 04 02 	mul.d $f2,$f2,$f4
  407970:	73 00 00 00 00 00 06 00 	sub.d $f0,$f0,$f6
  407978:	43 00 00 00 08 00 0f 0f 	addiu $15,$15,8
  407980:	71 00 00 00 00 00 02 00 	add.d $f0,$f0,$f2
  407988:	43 00 00 00 01 00 09 09 	addiu $9,$9,1
  407990:	43 00 00 00 08 00 0a 0a 	addiu $10,$10,8
  407998:	43 00 00 00 08 00 0b 0b 	addiu $11,$11,8
  4079a0:	37 00 00 00 00 00 00 02 	s.d $f0,0($2)
  4079a8:	5b 00 00 00 00 02 09 19 	slt $2,$25,$9
  4079b0:	05 00 00 00 2e ff 00 02 	beq $2,$0,407670 <matmat_0_+0x498>
  4079b8:	01 00 00 00 d2 23 10 00 	j 408f48 <matmat_0_+0x1d70>
  4079c0:	28 00 00 00 00 00 19 03 	lw $25,0($3)
  4079c8:	43 00 00 00 01 00 09 00 	addiu $9,$0,1
  4079d0:	07 00 00 00 5c 05 00 19 	blez $25,408f48 <matmat_0_+0x1d70>
  4079d8:	55 00 00 00 01 14 11 00 	sll $20,$17,0x1
  4079e0:	42 00 00 00 00 17 11 14 	addu $23,$20,$17
  4079e8:	55 00 00 00 01 13 10 00 	sll $19,$16,0x1
  4079f0:	42 00 00 00 00 16 10 13 	addu $22,$19,$16
  4079f8:	55 00 00 00 01 12 18 00 	sll $18,$24,0x1
  407a00:	42 00 00 00 00 15 18 12 	addu $21,$18,$24
  407a08:	43 00 00 00 08 00 0b 0d 	addiu $11,$13,8
  407a10:	43 00 00 00 08 00 0a 0e 	addiu $10,$14,8
  407a18:	43 00 00 00 08 00 0f 0c 	addiu $15,$12,8
  407a20:	2b 00 00 00 00 00 04 0a 	l.d $f4,0($10)
  407a28:	2b 00 00 00 00 00 00 0b 	l.d $f0,0($11)
  407a30:	75 00 00 00 00 04 00 04 	mul.d $f4,$f4,$f0
  407a38:	42 00 00 00 00 07 11 09 	addu $7,$9,$17
  407a40:	55 00 00 00 03 07 07 00 	sll $7,$7,0x3
  407a48:	42 00 00 00 00 07 0e 07 	addu $7,$7,$14
  407a50:	42 00 00 00 00 08 10 09 	addu $8,$9,$16
  407a58:	55 00 00 00 03 08 08 00 	sll $8,$8,0x3
  407a60:	42 00 00 00 00 08 0d 08 	addu $8,$8,$13
  407a68:	2b 00 00 00 00 00 08 07 	l.d $f8,0($7)
  407a70:	2b 00 00 00 00 00 00 08 	l.d $f0,0($8)
  407a78:	75 00 00 00 00 08 00 08 	mul.d $f8,$f8,$f0
  407a80:	42 00 00 00 00 06 14 09 	addu $6,$9,$20
  407a88:	55 00 00 00 03 06 06 00 	sll $6,$6,0x3
  407a90:	42 00 00 00 00 06 0e 06 	addu $6,$6,$14
  407a98:	42 00 00 00 00 05 13 09 	addu $5,$9,$19
  407aa0:	55 00 00 00 03 05 05 00 	sll $5,$5,0x3
  407aa8:	42 00 00 00 00 05 0d 05 	addu $5,$5,$13
  407ab0:	2b 00 00 00 00 00 06 06 	l.d $f6,0($6)
  407ab8:	2b 00 00 00 00 00 00 05 	l.d $f0,0($5)
  407ac0:	75 00 00 00 00 06 00 06 	mul.d $f6,$f6,$f0
  407ac8:	42 00 00 00 00 04 09 17 	addu $4,$23,$9
  407ad0:	55 00 00 00 03 04 04 00 	sll $4,$4,0x3
  407ad8:	42 00 00 00 00 04 0e 04 	addu $4,$4,$14
  407ae0:	42 00 00 00 00 03 09 16 	addu $3,$22,$9
  407ae8:	55 00 00 00 03 03 03 00 	sll $3,$3,0x3
  407af0:	42 00 00 00 00 03 0d 03 	addu $3,$3,$13
  407af8:	2b 00 00 00 00 00 02 03 	l.d $f2,0($3)
  407b00:	2b 00 00 00 00 00 00 04 	l.d $f0,0($4)
  407b08:	71 00 00 00 00 04 08 04 	add.d $f4,$f4,$f8
  407b10:	75 00 00 00 00 00 02 00 	mul.d $f0,$f0,$f2
  407b18:	71 00 00 00 00 04 06 04 	add.d $f4,$f4,$f6
  407b20:	71 00 00 00 00 04 00 04 	add.d $f4,$f4,$f0
  407b28:	37 00 00 00 00 00 04 0f 	s.d $f4,0($15)
  407b30:	2b 00 00 00 00 00 02 0a 	l.d $f2,0($10)
  407b38:	2b 00 00 00 00 00 00 08 	l.d $f0,0($8)
  407b40:	75 00 00 00 00 02 00 02 	mul.d $f2,$f2,$f0
  407b48:	2b 00 00 00 00 00 08 07 	l.d $f8,0($7)
  407b50:	2b 00 00 00 00 00 00 0b 	l.d $f0,0($11)
  407b58:	75 00 00 00 00 08 00 08 	mul.d $f8,$f8,$f0
  407b60:	2b 00 00 00 00 00 06 06 	l.d $f6,0($6)
  407b68:	2b 00 00 00 00 00 00 03 	l.d $f0,0($3)
  407b70:	75 00 00 00 00 06 00 06 	mul.d $f6,$f6,$f0
  407b78:	2b 00 00 00 00 00 04 05 	l.d $f4,0($5)
  407b80:	2b 00 00 00 00 00 00 04 	l.d $f0,0($4)
  407b88:	73 00 00 00 00 02 08 02 	sub.d $f2,$f2,$f8
  407b90:	75 00 00 00 00 00 04 00 	mul.d $f0,$f0,$f4
  407b98:	73 00 00 00 00 02 06 02 	sub.d $f2,$f2,$f6
  407ba0:	71 00 00 00 00 02 00 02 	add.d $f2,$f2,$f0
  407ba8:	42 00 00 00 00 02 18 09 	addu $2,$9,$24
  407bb0:	55 00 00 00 03 02 02 00 	sll $2,$2,0x3
  407bb8:	42 00 00 00 00 02 0c 02 	addu $2,$2,$12
  407bc0:	37 00 00 00 00 00 02 02 	s.d $f2,0($2)
  407bc8:	2b 00 00 00 00 00 02 0a 	l.d $f2,0($10)
  407bd0:	2b 00 00 00 00 00 00 05 	l.d $f0,0($5)
  407bd8:	75 00 00 00 00 02 00 02 	mul.d $f2,$f2,$f0
  407be0:	2b 00 00 00 00 00 08 07 	l.d $f8,0($7)
  407be8:	2b 00 00 00 00 00 00 03 	l.d $f0,0($3)
  407bf0:	75 00 00 00 00 08 00 08 	mul.d $f8,$f8,$f0
  407bf8:	2b 00 00 00 00 00 06 06 	l.d $f6,0($6)
  407c00:	2b 00 00 00 00 00 00 0b 	l.d $f0,0($11)
  407c08:	75 00 00 00 00 06 00 06 	mul.d $f6,$f6,$f0
  407c10:	2b 00 00 00 00 00 04 08 	l.d $f4,0($8)
  407c18:	2b 00 00 00 00 00 00 04 	l.d $f0,0($4)
  407c20:	71 00 00 00 00 02 08 02 	add.d $f2,$f2,$f8
  407c28:	75 00 00 00 00 00 04 00 	mul.d $f0,$f0,$f4
  407c30:	73 00 00 00 00 02 06 02 	sub.d $f2,$f2,$f6
  407c38:	73 00 00 00 00 02 00 02 	sub.d $f2,$f2,$f0
  407c40:	42 00 00 00 00 02 12 09 	addu $2,$9,$18
  407c48:	55 00 00 00 03 02 02 00 	sll $2,$2,0x3
  407c50:	42 00 00 00 00 02 0c 02 	addu $2,$2,$12
  407c58:	37 00 00 00 00 00 02 02 	s.d $f2,0($2)
  407c60:	2b 00 00 00 00 00 02 0a 	l.d $f2,0($10)
  407c68:	2b 00 00 00 00 00 00 03 	l.d $f0,0($3)
  407c70:	75 00 00 00 00 02 00 02 	mul.d $f2,$f2,$f0
  407c78:	2b 00 00 00 00 00 04 07 	l.d $f4,0($7)
  407c80:	2b 00 00 00 00 00 00 05 	l.d $f0,0($5)
  407c88:	75 00 00 00 00 04 00 04 	mul.d $f4,$f4,$f0
  407c90:	2b 00 00 00 00 00 06 06 	l.d $f6,0($6)
  407c98:	2b 00 00 00 00 00 00 08 	l.d $f0,0($8)
  407ca0:	75 00 00 00 00 06 00 06 	mul.d $f6,$f6,$f0
  407ca8:	2b 00 00 00 00 00 08 04 	l.d $f8,0($4)
  407cb0:	2b 00 00 00 00 00 00 0b 	l.d $f0,0($11)
  407cb8:	73 00 00 00 00 02 04 02 	sub.d $f2,$f2,$f4
  407cc0:	75 00 00 00 00 08 00 08 	mul.d $f8,$f8,$f0
  407cc8:	43 00 00 00 08 00 0f 0f 	addiu $15,$15,8
  407cd0:	71 00 00 00 00 02 06 02 	add.d $f2,$f2,$f6
  407cd8:	42 00 00 00 00 02 09 15 	addu $2,$21,$9
  407ce0:	43 00 00 00 01 00 09 09 	addiu $9,$9,1
  407ce8:	55 00 00 00 03 02 02 00 	sll $2,$2,0x3
  407cf0:	73 00 00 00 00 02 08 02 	sub.d $f2,$f2,$f8
  407cf8:	42 00 00 00 00 02 0c 02 	addu $2,$2,$12
  407d00:	43 00 00 00 08 00 0a 0a 	addiu $10,$10,8
  407d08:	43 00 00 00 08 00 0b 0b 	addiu $11,$11,8
  407d10:	37 00 00 00 00 00 02 02 	s.d $f2,0($2)
  407d18:	5b 00 00 00 00 02 09 19 	slt $2,$25,$9
  407d20:	05 00 00 00 3e ff 00 02 	beq $2,$0,407a20 <matmat_0_+0x848>
  407d28:	01 00 00 00 d2 23 10 00 	j 408f48 <matmat_0_+0x1d70>
  407d30:	28 00 00 00 00 00 19 03 	lw $25,0($3)
  407d38:	43 00 00 00 01 00 09 00 	addiu $9,$0,1
  407d40:	07 00 00 00 80 04 00 19 	blez $25,408f48 <matmat_0_+0x1d70>
  407d48:	55 00 00 00 01 14 11 00 	sll $20,$17,0x1
  407d50:	42 00 00 00 00 17 11 14 	addu $23,$20,$17
  407d58:	55 00 00 00 01 13 10 00 	sll $19,$16,0x1
  407d60:	42 00 00 00 00 16 10 13 	addu $22,$19,$16
  407d68:	55 00 00 00 01 12 18 00 	sll $18,$24,0x1
  407d70:	42 00 00 00 00 15 18 12 	addu $21,$18,$24
  407d78:	43 00 00 00 08 00 0b 0d 	addiu $11,$13,8
  407d80:	43 00 00 00 08 00 0a 0e 	addiu $10,$14,8
  407d88:	43 00 00 00 08 00 0f 0c 	addiu $15,$12,8
  407d90:	2b 00 00 00 00 00 02 0a 	l.d $f2,0($10)
  407d98:	2b 00 00 00 00 00 00 0b 	l.d $f0,0($11)
  407da0:	75 00 00 00 00 02 00 02 	mul.d $f2,$f2,$f0
  407da8:	42 00 00 00 00 07 11 09 	addu $7,$9,$17
  407db0:	55 00 00 00 03 07 07 00 	sll $7,$7,0x3
  407db8:	42 00 00 00 00 07 0e 07 	addu $7,$7,$14
  407dc0:	42 00 00 00 00 08 10 09 	addu $8,$9,$16
  407dc8:	55 00 00 00 03 08 08 00 	sll $8,$8,0x3
  407dd0:	42 00 00 00 00 08 0d 08 	addu $8,$8,$13
  407dd8:	2b 00 00 00 00 00 08 07 	l.d $f8,0($7)
  407de0:	2b 00 00 00 00 00 00 08 	l.d $f0,0($8)
  407de8:	75 00 00 00 00 08 00 08 	mul.d $f8,$f8,$f0
  407df0:	42 00 00 00 00 06 14 09 	addu $6,$9,$20
  407df8:	55 00 00 00 03 06 06 00 	sll $6,$6,0x3
  407e00:	42 00 00 00 00 06 0e 06 	addu $6,$6,$14
  407e08:	42 00 00 00 00 04 13 09 	addu $4,$9,$19
  407e10:	55 00 00 00 03 04 04 00 	sll $4,$4,0x3
  407e18:	42 00 00 00 00 04 0d 04 	addu $4,$4,$13
  407e20:	2b 00 00 00 00 00 06 06 	l.d $f6,0($6)
  407e28:	2b 00 00 00 00 00 00 04 	l.d $f0,0($4)
  407e30:	2b 00 00 00 00 00 04 0f 	l.d $f4,0($15)
  407e38:	42 00 00 00 00 05 09 17 	addu $5,$23,$9
  407e40:	75 00 00 00 00 06 00 06 	mul.d $f6,$f6,$f0
  407e48:	55 00 00 00 03 05 05 00 	sll $5,$5,0x3
  407e50:	42 00 00 00 00 05 0e 05 	addu $5,$5,$14
  407e58:	71 00 00 00 00 04 02 04 	add.d $f4,$f4,$f2
  407e60:	42 00 00 00 00 03 09 16 	addu $3,$22,$9
  407e68:	55 00 00 00 03 03 03 00 	sll $3,$3,0x3
  407e70:	42 00 00 00 00 03 0d 03 	addu $3,$3,$13
  407e78:	2b 00 00 00 00 00 02 03 	l.d $f2,0($3)
  407e80:	2b 00 00 00 00 00 00 05 	l.d $f0,0($5)
  407e88:	71 00 00 00 00 04 08 04 	add.d $f4,$f4,$f8
  407e90:	75 00 00 00 00 00 02 00 	mul.d $f0,$f0,$f2
  407e98:	71 00 00 00 00 04 06 04 	add.d $f4,$f4,$f6
  407ea0:	71 00 00 00 00 04 00 04 	add.d $f4,$f4,$f0
  407ea8:	37 00 00 00 00 00 04 0f 	s.d $f4,0($15)
  407eb0:	2b 00 00 00 00 00 04 0a 	l.d $f4,0($10)
  407eb8:	2b 00 00 00 00 00 00 08 	l.d $f0,0($8)
  407ec0:	75 00 00 00 00 04 00 04 	mul.d $f4,$f4,$f0
  407ec8:	2b 00 00 00 00 00 08 07 	l.d $f8,0($7)
  407ed0:	2b 00 00 00 00 00 00 0b 	l.d $f0,0($11)
  407ed8:	75 00 00 00 00 08 00 08 	mul.d $f8,$f8,$f0
  407ee0:	2b 00 00 00 00 00 06 06 	l.d $f6,0($6)
  407ee8:	2b 00 00 00 00 00 02 03 	l.d $f2,0($3)
  407ef0:	42 00 00 00 00 02 18 09 	addu $2,$9,$24
  407ef8:	55 00 00 00 03 02 02 00 	sll $2,$2,0x3
  407f00:	75 00 00 00 00 06 02 06 	mul.d $f6,$f6,$f2
  407f08:	42 00 00 00 00 02 0c 02 	addu $2,$2,$12
  407f10:	2b 00 00 00 00 00 00 02 	l.d $f0,0($2)
  407f18:	71 00 00 00 00 00 04 00 	add.d $f0,$f0,$f4
  407f20:	2b 00 00 00 00 00 02 05 	l.d $f2,0($5)
  407f28:	2b 00 00 00 00 00 04 04 	l.d $f4,0($4)
  407f30:	73 00 00 00 00 00 08 00 	sub.d $f0,$f0,$f8
  407f38:	75 00 00 00 00 02 04 02 	mul.d $f2,$f2,$f4
  407f40:	73 00 00 00 00 00 06 00 	sub.d $f0,$f0,$f6
  407f48:	71 00 00 00 00 00 02 00 	add.d $f0,$f0,$f2
  407f50:	37 00 00 00 00 00 00 02 	s.d $f0,0($2)
  407f58:	2b 00 00 00 00 00 04 0a 	l.d $f4,0($10)
  407f60:	2b 00 00 00 00 00 00 04 	l.d $f0,0($4)
  407f68:	75 00 00 00 00 04 00 04 	mul.d $f4,$f4,$f0
  407f70:	2b 00 00 00 00 00 08 07 	l.d $f8,0($7)
  407f78:	2b 00 00 00 00 00 00 03 	l.d $f0,0($3)
  407f80:	75 00 00 00 00 08 00 08 	mul.d $f8,$f8,$f0
  407f88:	2b 00 00 00 00 00 06 06 	l.d $f6,0($6)
  407f90:	2b 00 00 00 00 00 02 0b 	l.d $f2,0($11)
  407f98:	42 00 00 00 00 02 12 09 	addu $2,$9,$18
  407fa0:	55 00 00 00 03 02 02 00 	sll $2,$2,0x3
  407fa8:	75 00 00 00 00 06 02 06 	mul.d $f6,$f6,$f2
  407fb0:	42 00 00 00 00 02 0c 02 	addu $2,$2,$12
  407fb8:	2b 00 00 00 00 00 00 02 	l.d $f0,0($2)
  407fc0:	71 00 00 00 00 00 04 00 	add.d $f0,$f0,$f4
  407fc8:	2b 00 00 00 00 00 02 05 	l.d $f2,0($5)
  407fd0:	2b 00 00 00 00 00 04 08 	l.d $f4,0($8)
  407fd8:	71 00 00 00 00 00 08 00 	add.d $f0,$f0,$f8
  407fe0:	75 00 00 00 00 02 04 02 	mul.d $f2,$f2,$f4
  407fe8:	73 00 00 00 00 00 06 00 	sub.d $f0,$f0,$f6
  407ff0:	73 00 00 00 00 00 02 00 	sub.d $f0,$f0,$f2
  407ff8:	37 00 00 00 00 00 00 02 	s.d $f0,0($2)
  408000:	2b 00 00 00 00 00 04 0a 	l.d $f4,0($10)
  408008:	2b 00 00 00 00 00 00 03 	l.d $f0,0($3)
  408010:	75 00 00 00 00 04 00 04 	mul.d $f4,$f4,$f0
  408018:	2b 00 00 00 00 00 08 07 	l.d $f8,0($7)
  408020:	2b 00 00 00 00 00 00 04 	l.d $f0,0($4)
  408028:	75 00 00 00 00 08 00 08 	mul.d $f8,$f8,$f0
  408030:	2b 00 00 00 00 00 06 06 	l.d $f6,0($6)
  408038:	2b 00 00 00 00 00 02 08 	l.d $f2,0($8)
  408040:	42 00 00 00 00 02 09 15 	addu $2,$21,$9
  408048:	55 00 00 00 03 02 02 00 	sll $2,$2,0x3
  408050:	75 00 00 00 00 06 02 06 	mul.d $f6,$f6,$f2
  408058:	42 00 00 00 00 02 0c 02 	addu $2,$2,$12
  408060:	2b 00 00 00 00 00 00 02 	l.d $f0,0($2)
  408068:	71 00 00 00 00 00 04 00 	add.d $f0,$f0,$f4
  408070:	2b 00 00 00 00 00 02 05 	l.d $f2,0($5)
  408078:	2b 00 00 00 00 00 04 0b 	l.d $f4,0($11)
  408080:	73 00 00 00 00 00 08 00 	sub.d $f0,$f0,$f8
  408088:	75 00 00 00 00 02 04 02 	mul.d $f2,$f2,$f4
  408090:	71 00 00 00 00 00 06 00 	add.d $f0,$f0,$f6
  408098:	43 00 00 00 08 00 0f 0f 	addiu $15,$15,8
  4080a0:	73 00 00 00 00 00 02 00 	sub.d $f0,$f0,$f2
  4080a8:	43 00 00 00 01 00 09 09 	addiu $9,$9,1
  4080b0:	43 00 00 00 08 00 0a 0a 	addiu $10,$10,8
  4080b8:	43 00 00 00 08 00 0b 0b 	addiu $11,$11,8
  4080c0:	37 00 00 00 00 00 00 02 	s.d $f0,0($2)
  4080c8:	5b 00 00 00 00 02 09 19 	slt $2,$25,$9
  4080d0:	05 00 00 00 2e ff 00 02 	beq $2,$0,407d90 <matmat_0_+0xbb8>
  4080d8:	01 00 00 00 d2 23 10 00 	j 408f48 <matmat_0_+0x1d70>
  4080e0:	28 00 00 00 00 00 19 03 	lw $25,0($3)
  4080e8:	43 00 00 00 01 00 09 00 	addiu $9,$0,1
  4080f0:	07 00 00 00 94 03 00 19 	blez $25,408f48 <matmat_0_+0x1d70>
  4080f8:	55 00 00 00 01 14 11 00 	sll $20,$17,0x1
  408100:	42 00 00 00 00 17 11 14 	addu $23,$20,$17
  408108:	55 00 00 00 01 13 10 00 	sll $19,$16,0x1
  408110:	42 00 00 00 00 16 10 13 	addu $22,$19,$16
  408118:	55 00 00 00 01 12 18 00 	sll $18,$24,0x1
  408120:	42 00 00 00 00 15 18 12 	addu $21,$18,$24
  408128:	43 00 00 00 08 00 0b 0d 	addiu $11,$13,8
  408130:	43 00 00 00 08 00 0a 0e 	addiu $10,$14,8
  408138:	43 00 00 00 08 00 0f 0c 	addiu $15,$12,8
  408140:	2b 00 00 00 00 00 04 0a 	l.d $f4,0($10)
  408148:	2b 00 00 00 00 00 00 0b 	l.d $f0,0($11)
  408150:	75 00 00 00 00 04 00 04 	mul.d $f4,$f4,$f0
  408158:	42 00 00 00 00 07 11 09 	addu $7,$9,$17
  408160:	55 00 00 00 03 07 07 00 	sll $7,$7,0x3
  408168:	42 00 00 00 00 07 0e 07 	addu $7,$7,$14
  408170:	42 00 00 00 00 08 10 09 	addu $8,$9,$16
  408178:	55 00 00 00 03 08 08 00 	sll $8,$8,0x3
  408180:	42 00 00 00 00 08 0d 08 	addu $8,$8,$13
  408188:	2b 00 00 00 00 00 08 07 	l.d $f8,0($7)
  408190:	2b 00 00 00 00 00 00 08 	l.d $f0,0($8)
  408198:	75 00 00 00 00 08 00 08 	mul.d $f8,$f8,$f0
  4081a0:	42 00 00 00 00 06 14 09 	addu $6,$9,$20
  4081a8:	55 00 00 00 03 06 06 00 	sll $6,$6,0x3
  4081b0:	42 00 00 00 00 06 0e 06 	addu $6,$6,$14
  4081b8:	42 00 00 00 00 05 13 09 	addu $5,$9,$19
  4081c0:	55 00 00 00 03 05 05 00 	sll $5,$5,0x3
  4081c8:	42 00 00 00 00 05 0d 05 	addu $5,$5,$13
  4081d0:	2b 00 00 00 00 00 06 06 	l.d $f6,0($6)
  4081d8:	2b 00 00 00 00 00 00 05 	l.d $f0,0($5)
  4081e0:	75 00 00 00 00 06 00 06 	mul.d $f6,$f6,$f0
  4081e8:	42 00 00 00 00 04 09 17 	addu $4,$23,$9
  4081f0:	55 00 00 00 03 04 04 00 	sll $4,$4,0x3
  4081f8:	42 00 00 00 00 04 0e 04 	addu $4,$4,$14
  408200:	42 00 00 00 00 03 09 16 	addu $3,$22,$9
  408208:	55 00 00 00 03 03 03 00 	sll $3,$3,0x3
  408210:	42 00 00 00 00 03 0d 03 	addu $3,$3,$13
  408218:	2b 00 00 00 00 00 02 03 	l.d $f2,0($3)
  408220:	2b 00 00 00 00 00 00 04 	l.d $f0,0($4)
  408228:	71 00 00 00 00 04 08 04 	add.d $f4,$f4,$f8
  408230:	75 00 00 00 00 00 02 00 	mul.d $f0,$f0,$f2
  408238:	71 00 00 00 00 04 06 04 	add.d $f4,$f4,$f6
  408240:	71 00 00 00 00 04 00 04 	add.d $f4,$f4,$f0
  408248:	37 00 00 00 00 00 04 0f 	s.d $f4,0($15)
  408250:	2b 00 00 00 00 00 02 0a 	l.d $f2,0($10)
  408258:	2b 00 00 00 00 00 00 08 	l.d $f0,0($8)
  408260:	7d 00 00 00 00 02 00 02 	neg.d $f2,$f2
  408268:	75 00 00 00 00 02 00 02 	mul.d $f2,$f2,$f0
  408270:	2b 00 00 00 00 00 08 07 	l.d $f8,0($7)
  408278:	2b 00 00 00 00 00 00 0b 	l.d $f0,0($11)
  408280:	75 00 00 00 00 08 00 08 	mul.d $f8,$f8,$f0
  408288:	2b 00 00 00 00 00 06 06 	l.d $f6,0($6)
  408290:	2b 00 00 00 00 00 00 03 	l.d $f0,0($3)
  408298:	75 00 00 00 00 06 00 06 	mul.d $f6,$f6,$f0
  4082a0:	2b 00 00 00 00 00 04 05 	l.d $f4,0($5)
  4082a8:	2b 00 00 00 00 00 00 04 	l.d $f0,0($4)
  4082b0:	71 00 00 00 00 02 08 02 	add.d $f2,$f2,$f8
  4082b8:	75 00 00 00 00 00 04 00 	mul.d $f0,$f0,$f4
  4082c0:	73 00 00 00 00 02 06 02 	sub.d $f2,$f2,$f6
  4082c8:	71 00 00 00 00 02 00 02 	add.d $f2,$f2,$f0
  4082d0:	42 00 00 00 00 02 18 09 	addu $2,$9,$24
  4082d8:	55 00 00 00 03 02 02 00 	sll $2,$2,0x3
  4082e0:	42 00 00 00 00 02 0c 02 	addu $2,$2,$12
  4082e8:	37 00 00 00 00 00 02 02 	s.d $f2,0($2)
  4082f0:	2b 00 00 00 00 00 02 0a 	l.d $f2,0($10)
  4082f8:	2b 00 00 00 00 00 00 05 	l.d $f0,0($5)
  408300:	7d 00 00 00 00 02 00 02 	neg.d $f2,$f2
  408308:	75 00 00 00 00 02 00 02 	mul.d $f2,$f2,$f0
  408310:	2b 00 00 00 00 00 08 07 	l.d $f8,0($7)
  408318:	2b 00 00 00 00 00 00 03 	l.d $f0,0($3)
  408320:	75 00 00 00 00 08 00 08 	mul.d $f8,$f8,$f0
  408328:	2b 00 00 00 00 00 06 06 	l.d $f6,0($6)
  408330:	2b 00 00 00 00 00 00 0b 	l.d $f0,0($11)
  408338:	75 00 00 00 00 06 00 06 	mul.d $f6,$f6,$f0
  408340:	2b 00 00 00 00 00 04 08 	l.d $f4,0($8)
  408348:	2b 00 00 00 00 00 00 04 	l.d $f0,0($4)
  408350:	71 00 00 00 00 02 08 02 	add.d $f2,$f2,$f8
  408358:	75 00 00 00 00 00 04 00 	mul.d $f0,$f0,$f4
  408360:	71 00 00 00 00 02 06 02 	add.d $f2,$f2,$f6
  408368:	73 00 00 00 00 02 00 02 	sub.d $f2,$f2,$f0
  408370:	42 00 00 00 00 02 12 09 	addu $2,$9,$18
  408378:	55 00 00 00 03 02 02 00 	sll $2,$2,0x3
  408380:	42 00 00 00 00 02 0c 02 	addu $2,$2,$12
  408388:	37 00 00 00 00 00 02 02 	s.d $f2,0($2)
  408390:	2b 00 00 00 00 00 02 0a 	l.d $f2,0($10)
  408398:	2b 00 00 00 00 00 00 03 	l.d $f0,0($3)
  4083a0:	7d 00 00 00 00 02 00 02 	neg.d $f2,$f2
  4083a8:	75 00 00 00 00 02 00 02 	mul.d $f2,$f2,$f0
  4083b0:	2b 00 00 00 00 00 04 07 	l.d $f4,0($7)
  4083b8:	2b 00 00 00 00 00 00 05 	l.d $f0,0($5)
  4083c0:	75 00 00 00 00 04 00 04 	mul.d $f4,$f4,$f0
  4083c8:	2b 00 00 00 00 00 06 06 	l.d $f6,0($6)
  4083d0:	2b 00 00 00 00 00 00 08 	l.d $f0,0($8)
  4083d8:	75 00 00 00 00 06 00 06 	mul.d $f6,$f6,$f0
  4083e0:	2b 00 00 00 00 00 08 04 	l.d $f8,0($4)
  4083e8:	2b 00 00 00 00 00 00 0b 	l.d $f0,0($11)
  4083f0:	73 00 00 00 00 02 04 02 	sub.d $f2,$f2,$f4
  4083f8:	75 00 00 00 00 08 00 08 	mul.d $f8,$f8,$f0
  408400:	43 00 00 00 08 00 0f 0f 	addiu $15,$15,8
  408408:	71 00 00 00 00 02 06 02 	add.d $f2,$f2,$f6
  408410:	42 00 00 00 00 02 09 15 	addu $2,$21,$9
  408418:	43 00 00 00 01 00 09 09 	addiu $9,$9,1
  408420:	55 00 00 00 03 02 02 00 	sll $2,$2,0x3
  408428:	71 00 00 00 00 02 08 02 	add.d $f2,$f2,$f8
  408430:	42 00 00 00 00 02 0c 02 	addu $2,$2,$12
  408438:	43 00 00 00 08 00 0a 0a 	addiu $10,$10,8
  408440:	43 00 00 00 08 00 0b 0b 	addiu $11,$11,8
  408448:	37 00 00 00 00 00 02 02 	s.d $f2,0($2)
  408450:	5b 00 00 00 00 02 09 19 	slt $2,$25,$9
  408458:	05 00 00 00 38 ff 00 02 	beq $2,$0,408140 <matmat_0_+0xf68>
  408460:	01 00 00 00 d2 23 10 00 	j 408f48 <matmat_0_+0x1d70>
  408468:	28 00 00 00 00 00 19 03 	lw $25,0($3)
  408470:	43 00 00 00 01 00 09 00 	addiu $9,$0,1
  408478:	07 00 00 00 b2 02 00 19 	blez $25,408f48 <matmat_0_+0x1d70>
  408480:	55 00 00 00 01 14 11 00 	sll $20,$17,0x1
  408488:	42 00 00 00 00 17 11 14 	addu $23,$20,$17
  408490:	55 00 00 00 01 13 10 00 	sll $19,$16,0x1
  408498:	42 00 00 00 00 16 10 13 	addu $22,$19,$16
  4084a0:	55 00 00 00 01 12 18 00 	sll $18,$24,0x1
  4084a8:	42 00 00 00 00 15 18 12 	addu $21,$18,$24
  4084b0:	43 00 00 00 08 00 0b 0d 	addiu $11,$13,8
  4084b8:	43 00 00 00 08 00 0a 0e 	addiu $10,$14,8
  4084c0:	43 00 00 00 08 00 0f 0c 	addiu $15,$12,8
  4084c8:	2b 00 00 00 00 00 02 0a 	l.d $f2,0($10)
  4084d0:	2b 00 00 00 00 00 00 0b 	l.d $f0,0($11)
  4084d8:	75 00 00 00 00 02 00 02 	mul.d $f2,$f2,$f0
  4084e0:	42 00 00 00 00 07 11 09 	addu $7,$9,$17
  4084e8:	55 00 00 00 03 07 07 00 	sll $7,$7,0x3
  4084f0:	42 00 00 00 00 07 0e 07 	addu $7,$7,$14
  4084f8:	42 00 00 00 00 08 10 09 	addu $8,$9,$16
  408500:	55 00 00 00 03 08 08 00 	sll $8,$8,0x3
  408508:	42 00 00 00 00 08 0d 08 	addu $8,$8,$13
  408510:	2b 00 00 00 00 00 08 07 	l.d $f8,0($7)
  408518:	2b 00 00 00 00 00 00 08 	l.d $f0,0($8)
  408520:	75 00 00 00 00 08 00 08 	mul.d $f8,$f8,$f0
  408528:	42 00 00 00 00 06 14 09 	addu $6,$9,$20
  408530:	55 00 00 00 03 06 06 00 	sll $6,$6,0x3
  408538:	42 00 00 00 00 06 0e 06 	addu $6,$6,$14
  408540:	42 00 00 00 00 04 13 09 	addu $4,$9,$19
  408548:	55 00 00 00 03 04 04 00 	sll $4,$4,0x3
  408550:	42 00 00 00 00 04 0d 04 	addu $4,$4,$13
  408558:	2b 00 00 00 00 00 06 06 	l.d $f6,0($6)
  408560:	2b 00 00 00 00 00 00 04 	l.d $f0,0($4)
  408568:	2b 00 00 00 00 00 04 0f 	l.d $f4,0($15)
  408570:	42 00 00 00 00 05 09 17 	addu $5,$23,$9
  408578:	75 00 00 00 00 06 00 06 	mul.d $f6,$f6,$f0
  408580:	55 00 00 00 03 05 05 00 	sll $5,$5,0x3
  408588:	42 00 00 00 00 05 0e 05 	addu $5,$5,$14
  408590:	71 00 00 00 00 04 02 04 	add.d $f4,$f4,$f2
  408598:	42 00 00 00 00 03 09 16 	addu $3,$22,$9
  4085a0:	55 00 00 00 03 03 03 00 	sll $3,$3,0x3
  4085a8:	42 00 00 00 00 03 0d 03 	addu $3,$3,$13
  4085b0:	2b 00 00 00 00 00 02 03 	l.d $f2,0($3)
  4085b8:	2b 00 00 00 00 00 00 05 	l.d $f0,0($5)
  4085c0:	71 00 00 00 00 04 08 04 	add.d $f4,$f4,$f8
  4085c8:	75 00 00 00 00 00 02 00 	mul.d $f0,$f0,$f2
  4085d0:	71 00 00 00 00 04 06 04 	add.d $f4,$f4,$f6
  4085d8:	71 00 00 00 00 04 00 04 	add.d $f4,$f4,$f0
  4085e0:	37 00 00 00 00 00 04 0f 	s.d $f4,0($15)
  4085e8:	2b 00 00 00 00 00 04 0a 	l.d $f4,0($10)
  4085f0:	2b 00 00 00 00 00 00 08 	l.d $f0,0($8)
  4085f8:	75 00 00 00 00 04 00 04 	mul.d $f4,$f4,$f0
  408600:	2b 00 00 00 00 00 08 07 	l.d $f8,0($7)
  408608:	2b 00 00 00 00 00 00 0b 	l.d $f0,0($11)
  408610:	75 00 00 00 00 08 00 08 	mul.d $f8,$f8,$f0
  408618:	2b 00 00 00 00 00 06 06 	l.d $f6,0($6)
  408620:	2b 00 00 00 00 00 02 03 	l.d $f2,0($3)
  408628:	42 00 00 00 00 02 18 09 	addu $2,$9,$24
  408630:	55 00 00 00 03 02 02 00 	sll $2,$2,0x3
  408638:	75 00 00 00 00 06 02 06 	mul.d $f6,$f6,$f2
  408640:	42 00 00 00 00 02 0c 02 	addu $2,$2,$12
  408648:	2b 00 00 00 00 00 00 02 	l.d $f0,0($2)
  408650:	73 00 00 00 00 00 04 00 	sub.d $f0,$f0,$f4
  408658:	2b 00 00 00 00 00 02 05 	l.d $f2,0($5)
  408660:	2b 00 00 00 00 00 04 04 	l.d $f4,0($4)
  408668:	71 00 00 00 00 00 08 00 	add.d $f0,$f0,$f8
  408670:	75 00 00 00 00 02 04 02 	mul.d $f2,$f2,$f4
  408678:	73 00 00 00 00 00 06 00 	sub.d $f0,$f0,$f6
  408680:	71 00 00 00 00 00 02 00 	add.d $f0,$f0,$f2
  408688:	37 00 00 00 00 00 00 02 	s.d $f0,0($2)
  408690:	2b 00 00 00 00 00 04 0a 	l.d $f4,0($10)
  408698:	2b 00 00 00 00 00 00 04 	l.d $f0,0($4)
  4086a0:	75 00 00 00 00 04 00 04 	mul.d $f4,$f4,$f0
  4086a8:	2b 00 00 00 00 00 08 07 	l.d $f8,0($7)
  4086b0:	2b 00 00 00 00 00 00 03 	l.d $f0,0($3)
  4086b8:	75 00 00 00 00 08 00 08 	mul.d $f8,$f8,$f0
  4086c0:	2b 00 00 00 00 00 06 06 	l.d $f6,0($6)
  4086c8:	2b 00 00 00 00 00 02 0b 	l.d $f2,0($11)
  4086d0:	42 00 00 00 00 02 12 09 	addu $2,$9,$18
  4086d8:	55 00 00 00 03 02 02 00 	sll $2,$2,0x3
  4086e0:	75 00 00 00 00 06 02 06 	mul.d $f6,$f6,$f2
  4086e8:	42 00 00 00 00 02 0c 02 	addu $2,$2,$12
  4086f0:	2b 00 00 00 00 00 00 02 	l.d $f0,0($2)
  4086f8:	73 00 00 00 00 00 04 00 	sub.d $f0,$f0,$f4
  408700:	2b 00 00 00 00 00 02 05 	l.d $f2,0($5)
  408708:	2b 00 00 00 00 00 04 08 	l.d $f4,0($8)
  408710:	71 00 00 00 00 00 08 00 	add.d $f0,$f0,$f8
  408718:	75 00 00 00 00 02 04 02 	mul.d $f2,$f2,$f4
  408720:	71 00 00 00 00 00 06 00 	add.d $f0,$f0,$f6
  408728:	73 00 00 00 00 00 02 00 	sub.d $f0,$f0,$f2
  408730:	37 00 00 00 00 00 00 02 	s.d $f0,0($2)
  408738:	2b 00 00 00 00 00 04 0a 	l.d $f4,0($10)
  408740:	2b 00 00 00 00 00 00 03 	l.d $f0,0($3)
  408748:	75 00 00 00 00 04 00 04 	mul.d $f4,$f4,$f0
  408750:	2b 00 00 00 00 00 08 07 	l.d $f8,0($7)
  408758:	2b 00 00 00 00 00 00 04 	l.d $f0,0($4)
  408760:	75 00 00 00 00 08 00 08 	mul.d $f8,$f8,$f0
  408768:	2b 00 00 00 00 00 06 06 	l.d $f6,0($6)
  408770:	2b 00 00 00 00 00 02 08 	l.d $f2,0($8)
  408778:	42 00 00 00 00 02 09 15 	addu $2,$21,$9
  408780:	55 00 00 00 03 02 02 00 	sll $2,$2,0x3
  408788:	75 00 00 00 00 06 02 06 	mul.d $f6,$f6,$f2
  408790:	42 00 00 00 00 02 0c 02 	addu $2,$2,$12
  408798:	2b 00 00 00 00 00 00 02 	l.d $f0,0($2)
  4087a0:	73 00 00 00 00 00 04 00 	sub.d $f0,$f0,$f4
  4087a8:	2b 00 00 00 00 00 02 05 	l.d $f2,0($5)
  4087b0:	2b 00 00 00 00 00 04 0b 	l.d $f4,0($11)
  4087b8:	73 00 00 00 00 00 08 00 	sub.d $f0,$f0,$f8
  4087c0:	75 00 00 00 00 02 04 02 	mul.d $f2,$f2,$f4
  4087c8:	71 00 00 00 00 00 06 00 	add.d $f0,$f0,$f6
  4087d0:	43 00 00 00 08 00 0f 0f 	addiu $15,$15,8
  4087d8:	71 00 00 00 00 00 02 00 	add.d $f0,$f0,$f2
  4087e0:	43 00 00 00 01 00 09 09 	addiu $9,$9,1
  4087e8:	43 00 00 00 08 00 0a 0a 	addiu $10,$10,8
  4087f0:	43 00 00 00 08 00 0b 0b 	addiu $11,$11,8
  4087f8:	37 00 00 00 00 00 00 02 	s.d $f0,0($2)
  408800:	5b 00 00 00 00 02 09 19 	slt $2,$25,$9
  408808:	05 00 00 00 2e ff 00 02 	beq $2,$0,4084c8 <matmat_0_+0x12f0>
  408810:	01 00 00 00 d2 23 10 00 	j 408f48 <matmat_0_+0x1d70>
  408818:	28 00 00 00 00 00 19 03 	lw $25,0($3)
  408820:	43 00 00 00 01 00 09 00 	addiu $9,$0,1
  408828:	07 00 00 00 c6 01 00 19 	blez $25,408f48 <matmat_0_+0x1d70>
  408830:	55 00 00 00 01 14 11 00 	sll $20,$17,0x1
  408838:	42 00 00 00 00 17 11 14 	addu $23,$20,$17
  408840:	55 00 00 00 01 13 10 00 	sll $19,$16,0x1
  408848:	42 00 00 00 00 16 10 13 	addu $22,$19,$16
  408850:	55 00 00 00 01 12 18 00 	sll $18,$24,0x1
  408858:	42 00 00 00 00 15 18 12 	addu $21,$18,$24
  408860:	43 00 00 00 08 00 0b 0d 	addiu $11,$13,8
  408868:	43 00 00 00 08 00 0a 0e 	addiu $10,$14,8
  408870:	43 00 00 00 08 00 0f 0c 	addiu $15,$12,8
  408878:	2b 00 00 00 00 00 04 0a 	l.d $f4,0($10)
  408880:	2b 00 00 00 00 00 00 0b 	l.d $f0,0($11)
  408888:	75 00 00 00 00 04 00 04 	mul.d $f4,$f4,$f0
  408890:	42 00 00 00 00 07 11 09 	addu $7,$9,$17
  408898:	55 00 00 00 03 07 07 00 	sll $7,$7,0x3
  4088a0:	42 00 00 00 00 07 0e 07 	addu $7,$7,$14
  4088a8:	42 00 00 00 00 08 10 09 	addu $8,$9,$16
  4088b0:	55 00 00 00 03 08 08 00 	sll $8,$8,0x3
  4088b8:	42 00 00 00 00 08 0d 08 	addu $8,$8,$13
  4088c0:	2b 00 00 00 00 00 08 07 	l.d $f8,0($7)
  4088c8:	2b 00 00 00 00 00 00 08 	l.d $f0,0($8)
  4088d0:	75 00 00 00 00 08 00 08 	mul.d $f8,$f8,$f0
  4088d8:	42 00 00 00 00 06 14 09 	addu $6,$9,$20
  4088e0:	55 00 00 00 03 06 06 00 	sll $6,$6,0x3
  4088e8:	42 00 00 00 00 06 0e 06 	addu $6,$6,$14
  4088f0:	42 00 00 00 00 05 13 09 	addu $5,$9,$19
  4088f8:	55 00 00 00 03 05 05 00 	sll $5,$5,0x3
  408900:	42 00 00 00 00 05 0d 05 	addu $5,$5,$13
  408908:	2b 00 00 00 00 00 06 06 	l.d $f6,0($6)
  408910:	2b 00 00 00 00 00 00 05 	l.d $f0,0($5)
  408918:	75 00 00 00 00 06 00 06 	mul.d $f6,$f6,$f0
  408920:	42 00 00 00 00 04 09 17 	addu $4,$23,$9
  408928:	55 00 00 00 03 04 04 00 	sll $4,$4,0x3
  408930:	42 00 00 00 00 04 0e 04 	addu $4,$4,$14
  408938:	42 00 00 00 00 03 09 16 	addu $3,$22,$9
  408940:	55 00 00 00 03 03 03 00 	sll $3,$3,0x3
  408948:	42 00 00 00 00 03 0d 03 	addu $3,$3,$13
  408950:	2b 00 00 00 00 00 02 03 	l.d $f2,0($3)
  408958:	2b 00 00 00 00 00 00 04 	l.d $f0,0($4)
  408960:	73 00 00 00 00 04 08 04 	sub.d $f4,$f4,$f8
  408968:	75 00 00 00 00 00 02 00 	mul.d $f0,$f0,$f2
  408970:	73 00 00 00 00 04 06 04 	sub.d $f4,$f4,$f6
  408978:	73 00 00 00 00 04 00 04 	sub.d $f4,$f4,$f0
  408980:	37 00 00 00 00 00 04 0f 	s.d $f4,0($15)
  408988:	2b 00 00 00 00 00 02 0a 	l.d $f2,0($10)
  408990:	2b 00 00 00 00 00 00 08 	l.d $f0,0($8)
  408998:	7d 00 00 00 00 02 00 02 	neg.d $f2,$f2
  4089a0:	75 00 00 00 00 02 00 02 	mul.d $f2,$f2,$f0
  4089a8:	2b 00 00 00 00 00 08 07 	l.d $f8,0($7)
  4089b0:	2b 00 00 00 00 00 00 0b 	l.d $f0,0($11)
  4089b8:	75 00 00 00 00 08 00 08 	mul.d $f8,$f8,$f0
  4089c0:	2b 00 00 00 00 00 06 06 	l.d $f6,0($6)
  4089c8:	2b 00 00 00 00 00 00 03 	l.d $f0,0($3)
  4089d0:	75 00 00 00 00 06 00 06 	mul.d $f6,$f6,$f0
  4089d8:	2b 00 00 00 00 00 04 05 	l.d $f4,0($5)
  4089e0:	2b 00 00 00 00 00 00 04 	l.d $f0,0($4)
  4089e8:	73 00 00 00 00 02 08 02 	sub.d $f2,$f2,$f8
  4089f0:	75 00 00 00 00 00 04 00 	mul.d $f0,$f0,$f4
  4089f8:	71 00 00 00 00 02 06 02 	add.d $f2,$f2,$f6
  408a00:	73 00 00 00 00 02 00 02 	sub.d $f2,$f2,$f0
  408a08:	42 00 00 00 00 02 18 09 	addu $2,$9,$24
  408a10:	55 00 00 00 03 02 02 00 	sll $2,$2,0x3
  408a18:	42 00 00 00 00 02 0c 02 	addu $2,$2,$12
  408a20:	37 00 00 00 00 00 02 02 	s.d $f2,0($2)
  408a28:	2b 00 00 00 00 00 02 0a 	l.d $f2,0($10)
  408a30:	2b 00 00 00 00 00 00 05 	l.d $f0,0($5)
  408a38:	7d 00 00 00 00 02 00 02 	neg.d $f2,$f2
  408a40:	75 00 00 00 00 02 00 02 	mul.d $f2,$f2,$f0
  408a48:	2b 00 00 00 00 00 08 07 	l.d $f8,0($7)
  408a50:	2b 00 00 00 00 00 00 03 	l.d $f0,0($3)
  408a58:	75 00 00 00 00 08 00 08 	mul.d $f8,$f8,$f0
  408a60:	2b 00 00 00 00 00 06 06 	l.d $f6,0($6)
  408a68:	2b 00 00 00 00 00 00 0b 	l.d $f0,0($11)
  408a70:	75 00 00 00 00 06 00 06 	mul.d $f6,$f6,$f0
  408a78:	2b 00 00 00 00 00 04 08 	l.d $f4,0($8)
  408a80:	2b 00 00 00 00 00 00 04 	l.d $f0,0($4)
  408a88:	73 00 00 00 00 02 08 02 	sub.d $f2,$f2,$f8
  408a90:	75 00 00 00 00 00 04 00 	mul.d $f0,$f0,$f4
  408a98:	73 00 00 00 00 02 06 02 	sub.d $f2,$f2,$f6
  408aa0:	71 00 00 00 00 02 00 02 	add.d $f2,$f2,$f0
  408aa8:	42 00 00 00 00 02 12 09 	addu $2,$9,$18
  408ab0:	55 00 00 00 03 02 02 00 	sll $2,$2,0x3
  408ab8:	42 00 00 00 00 02 0c 02 	addu $2,$2,$12
  408ac0:	37 00 00 00 00 00 02 02 	s.d $f2,0($2)
  408ac8:	2b 00 00 00 00 00 02 0a 	l.d $f2,0($10)
  408ad0:	2b 00 00 00 00 00 00 03 	l.d $f0,0($3)
  408ad8:	7d 00 00 00 00 02 00 02 	neg.d $f2,$f2
  408ae0:	75 00 00 00 00 02 00 02 	mul.d $f2,$f2,$f0
  408ae8:	2b 00 00 00 00 00 04 07 	l.d $f4,0($7)
  408af0:	2b 00 00 00 00 00 00 05 	l.d $f0,0($5)
  408af8:	75 00 00 00 00 04 00 04 	mul.d $f4,$f4,$f0
  408b00:	2b 00 00 00 00 00 06 06 	l.d $f6,0($6)
  408b08:	2b 00 00 00 00 00 00 08 	l.d $f0,0($8)
  408b10:	75 00 00 00 00 06 00 06 	mul.d $f6,$f6,$f0
  408b18:	2b 00 00 00 00 00 08 04 	l.d $f8,0($4)
  408b20:	2b 00 00 00 00 00 00 0b 	l.d $f0,0($11)
  408b28:	71 00 00 00 00 02 04 02 	add.d $f2,$f2,$f4
  408b30:	75 00 00 00 00 08 00 08 	mul.d $f8,$f8,$f0
  408b38:	43 00 00 00 08 00 0f 0f 	addiu $15,$15,8
  408b40:	73 00 00 00 00 02 06 02 	sub.d $f2,$f2,$f6
  408b48:	42 00 00 00 00 02 09 15 	addu $2,$21,$9
  408b50:	43 00 00 00 01 00 09 09 	addiu $9,$9,1
  408b58:	55 00 00 00 03 02 02 00 	sll $2,$2,0x3
  408b60:	73 00 00 00 00 02 08 02 	sub.d $f2,$f2,$f8
  408b68:	42 00 00 00 00 02 0c 02 	addu $2,$2,$12
  408b70:	43 00 00 00 08 00 0a 0a 	addiu $10,$10,8
  408b78:	43 00 00 00 08 00 0b 0b 	addiu $11,$11,8
  408b80:	37 00 00 00 00 00 02 02 	s.d $f2,0($2)
  408b88:	5b 00 00 00 00 02 09 19 	slt $2,$25,$9
  408b90:	05 00 00 00 38 ff 00 02 	beq $2,$0,408878 <matmat_0_+0x16a0>
  408b98:	01 00 00 00 d2 23 10 00 	j 408f48 <matmat_0_+0x1d70>
  408ba0:	28 00 00 00 00 00 19 03 	lw $25,0($3)
  408ba8:	43 00 00 00 01 00 09 00 	addiu $9,$0,1
  408bb0:	07 00 00 00 e4 00 00 19 	blez $25,408f48 <matmat_0_+0x1d70>
  408bb8:	55 00 00 00 01 14 11 00 	sll $20,$17,0x1
  408bc0:	42 00 00 00 00 17 11 14 	addu $23,$20,$17
  408bc8:	55 00 00 00 01 13 10 00 	sll $19,$16,0x1
  408bd0:	42 00 00 00 00 16 10 13 	addu $22,$19,$16
  408bd8:	55 00 00 00 01 12 18 00 	sll $18,$24,0x1
  408be0:	42 00 00 00 00 15 18 12 	addu $21,$18,$24
  408be8:	43 00 00 00 08 00 0b 0d 	addiu $11,$13,8
  408bf0:	43 00 00 00 08 00 0a 0e 	addiu $10,$14,8
  408bf8:	43 00 00 00 08 00 0f 0c 	addiu $15,$12,8
  408c00:	2b 00 00 00 00 00 02 0a 	l.d $f2,0($10)
  408c08:	2b 00 00 00 00 00 00 0b 	l.d $f0,0($11)
  408c10:	75 00 00 00 00 02 00 02 	mul.d $f2,$f2,$f0
  408c18:	42 00 00 00 00 07 11 09 	addu $7,$9,$17
  408c20:	55 00 00 00 03 07 07 00 	sll $7,$7,0x3
  408c28:	42 00 00 00 00 07 0e 07 	addu $7,$7,$14
  408c30:	42 00 00 00 00 08 10 09 	addu $8,$9,$16
  408c38:	55 00 00 00 03 08 08 00 	sll $8,$8,0x3
  408c40:	42 00 00 00 00 08 0d 08 	addu $8,$8,$13
  408c48:	2b 00 00 00 00 00 08 07 	l.d $f8,0($7)
  408c50:	2b 00 00 00 00 00 00 08 	l.d $f0,0($8)
  408c58:	75 00 00 00 00 08 00 08 	mul.d $f8,$f8,$f0
  408c60:	42 00 00 00 00 06 14 09 	addu $6,$9,$20
  408c68:	55 00 00 00 03 06 06 00 	sll $6,$6,0x3
  408c70:	42 00 00 00 00 06 0e 06 	addu $6,$6,$14
  408c78:	42 00 00 00 00 04 13 09 	addu $4,$9,$19
  408c80:	55 00 00 00 03 04 04 00 	sll $4,$4,0x3
  408c88:	42 00 00 00 00 04 0d 04 	addu $4,$4,$13
  408c90:	2b 00 00 00 00 00 06 06 	l.d $f6,0($6)
  408c98:	2b 00 00 00 00 00 00 04 	l.d $f0,0($4)
  408ca0:	2b 00 00 00 00 00 04 0f 	l.d $f4,0($15)
  408ca8:	42 00 00 00 00 05 09 17 	addu $5,$23,$9
  408cb0:	75 00 00 00 00 06 00 06 	mul.d $f6,$f6,$f0
  408cb8:	55 00 00 00 03 05 05 00 	sll $5,$5,0x3
  408cc0:	42 00 00 00 00 05 0e 05 	addu $5,$5,$14
  408cc8:	71 00 00 00 00 04 02 04 	add.d $f4,$f4,$f2
  408cd0:	42 00 00 00 00 03 09 16 	addu $3,$22,$9
  408cd8:	55 00 00 00 03 03 03 00 	sll $3,$3,0x3
  408ce0:	42 00 00 00 00 03 0d 03 	addu $3,$3,$13
  408ce8:	2b 00 00 00 00 00 02 03 	l.d $f2,0($3)
  408cf0:	2b 00 00 00 00 00 00 05 	l.d $f0,0($5)
  408cf8:	73 00 00 00 00 04 08 04 	sub.d $f4,$f4,$f8
  408d00:	75 00 00 00 00 00 02 00 	mul.d $f0,$f0,$f2
  408d08:	73 00 00 00 00 04 06 04 	sub.d $f4,$f4,$f6
  408d10:	73 00 00 00 00 04 00 04 	sub.d $f4,$f4,$f0
  408d18:	37 00 00 00 00 00 04 0f 	s.d $f4,0($15)
  408d20:	2b 00 00 00 00 00 04 0a 	l.d $f4,0($10)
  408d28:	2b 00 00 00 00 00 00 08 	l.d $f0,0($8)
  408d30:	75 00 00 00 00 04 00 04 	mul.d $f4,$f4,$f0
  408d38:	2b 00 00 00 00 00 08 07 	l.d $f8,0($7)
  408d40:	2b 00 00 00 00 00 00 0b 	l.d $f0,0($11)
  408d48:	75 00 00 00 00 08 00 08 	mul.d $f8,$f8,$f0
  408d50:	2b 00 00 00 00 00 06 06 	l.d $f6,0($6)
  408d58:	2b 00 00 00 00 00 02 03 	l.d $f2,0($3)
  408d60:	42 00 00 00 00 02 18 09 	addu $2,$9,$24
  408d68:	55 00 00 00 03 02 02 00 	sll $2,$2,0x3
  408d70:	75 00 00 00 00 06 02 06 	mul.d $f6,$f6,$f2
  408d78:	42 00 00 00 00 02 0c 02 	addu $2,$2,$12
  408d80:	2b 00 00 00 00 00 00 02 	l.d $f0,0($2)
  408d88:	73 00 00 00 00 00 04 00 	sub.d $f0,$f0,$f4
  408d90:	2b 00 00 00 00 00 02 05 	l.d $f2,0($5)
  408d98:	2b 00 00 00 00 00 04 04 	l.d $f4,0($4)
  408da0:	73 00 00 00 00 00 08 00 	sub.d $f0,$f0,$f8
  408da8:	75 00 00 00 00 02 04 02 	mul.d $f2,$f2,$f4
  408db0:	71 00 00 00 00 00 06 00 	add.d $f0,$f0,$f6
  408db8:	73 00 00 00 00 00 02 00 	sub.d $f0,$f0,$f2
  408dc0:	37 00 00 00 00 00 00 02 	s.d $f0,0($2)
  408dc8:	2b 00 00 00 00 00 04 0a 	l.d $f4,0($10)
  408dd0:	2b 00 00 00 00 00 00 04 	l.d $f0,0($4)
  408dd8:	75 00 00 00 00 04 00 04 	mul.d $f4,$f4,$f0
  408de0:	2b 00 00 00 00 00 08 07 	l.d $f8,0($7)
  408de8:	2b 00 00 00 00 00 00 03 	l.d $f0,0($3)
  408df0:	75 00 00 00 00 08 00 08 	mul.d $f8,$f8,$f0
  408df8:	2b 00 00 00 00 00 06 06 	l.d $f6,0($6)
  408e00:	2b 00 00 00 00 00 02 0b 	l.d $f2,0($11)
  408e08:	42 00 00 00 00 02 12 09 	addu $2,$9,$18
  408e10:	55 00 00 00 03 02 02 00 	sll $2,$2,0x3
  408e18:	75 00 00 00 00 06 02 06 	mul.d $f6,$f6,$f2
  408e20:	42 00 00 00 00 02 0c 02 	addu $2,$2,$12
  408e28:	2b 00 00 00 00 00 00 02 	l.d $f0,0($2)
  408e30:	73 00 00 00 00 00 04 00 	sub.d $f0,$f0,$f4
  408e38:	2b 00 00 00 00 00 02 05 	l.d $f2,0($5)
  408e40:	2b 00 00 00 00 00 04 08 	l.d $f4,0($8)
  408e48:	73 00 00 00 00 00 08 00 	sub.d $f0,$f0,$f8
  408e50:	75 00 00 00 00 02 04 02 	mul.d $f2,$f2,$f4
  408e58:	73 00 00 00 00 00 06 00 	sub.d $f0,$f0,$f6
  408e60:	71 00 00 00 00 00 02 00 	add.d $f0,$f0,$f2
  408e68:	37 00 00 00 00 00 00 02 	s.d $f0,0($2)
  408e70:	2b 00 00 00 00 00 04 0a 	l.d $f4,0($10)
  408e78:	2b 00 00 00 00 00 00 03 	l.d $f0,0($3)
  408e80:	75 00 00 00 00 04 00 04 	mul.d $f4,$f4,$f0
  408e88:	2b 00 00 00 00 00 08 07 	l.d $f8,0($7)
  408e90:	2b 00 00 00 00 00 00 04 	l.d $f0,0($4)
  408e98:	75 00 00 00 00 08 00 08 	mul.d $f8,$f8,$f0
  408ea0:	2b 00 00 00 00 00 06 06 	l.d $f6,0($6)
  408ea8:	2b 00 00 00 00 00 02 08 	l.d $f2,0($8)
  408eb0:	42 00 00 00 00 02 09 15 	addu $2,$21,$9
  408eb8:	55 00 00 00 03 02 02 00 	sll $2,$2,0x3
  408ec0:	75 00 00 00 00 06 02 06 	mul.d $f6,$f6,$f2
  408ec8:	42 00 00 00 00 02 0c 02 	addu $2,$2,$12
  408ed0:	2b 00 00 00 00 00 00 02 	l.d $f0,0($2)
  408ed8:	73 00 00 00 00 00 04 00 	sub.d $f0,$f0,$f4
  408ee0:	2b 00 00 00 00 00 02 05 	l.d $f2,0($5)
  408ee8:	2b 00 00 00 00 00 04 0b 	l.d $f4,0($11)
  408ef0:	71 00 00 00 00 00 08 00 	add.d $f0,$f0,$f8
  408ef8:	75 00 00 00 00 02 04 02 	mul.d $f2,$f2,$f4
  408f00:	73 00 00 00 00 00 06 00 	sub.d $f0,$f0,$f6
  408f08:	43 00 00 00 08 00 0f 0f 	addiu $15,$15,8
  408f10:	73 00 00 00 00 00 02 00 	sub.d $f0,$f0,$f2
  408f18:	43 00 00 00 01 00 09 09 	addiu $9,$9,1
  408f20:	43 00 00 00 08 00 0a 0a 	addiu $10,$10,8
  408f28:	43 00 00 00 08 00 0b 0b 	addiu $11,$11,8
  408f30:	37 00 00 00 00 00 00 02 	s.d $f0,0($2)
  408f38:	5b 00 00 00 00 02 09 19 	slt $2,$25,$9
  408f40:	05 00 00 00 2e ff 00 02 	beq $2,$0,408c00 <matmat_0_+0x1a28>
  408f48:	42 00 00 00 00 02 00 00 	addu $2,$0,$0
  408f50:	28 00 00 00 1c 00 17 1d 	lw $23,28($29)
  408f58:	28 00 00 00 18 00 16 1d 	lw $22,24($29)
  408f60:	28 00 00 00 14 00 15 1d 	lw $21,20($29)
  408f68:	28 00 00 00 10 00 14 1d 	lw $20,16($29)
  408f70:	28 00 00 00 0c 00 13 1d 	lw $19,12($29)
  408f78:	28 00 00 00 08 00 12 1d 	lw $18,8($29)
  408f80:	28 00 00 00 04 00 11 1d 	lw $17,4($29)
  408f88:	28 00 00 00 00 00 10 1d 	lw $16,0($29)
  408f90:	43 00 00 00 20 00 1d 1d 	addiu $29,$29,32
  408f98:	03 00 00 00 00 00 00 1f 	jr $31

00408fa0 <matmat_>:
  408fa0:	43 00 00 00 e0 ff 1d 1d 	addiu $29,$29,-32
  408fa8:	42 00 00 00 00 03 04 00 	addu $3,$0,$4
  408fb0:	42 00 00 00 00 08 05 00 	addu $8,$0,$5
  408fb8:	42 00 00 00 00 09 06 00 	addu $9,$0,$6
  408fc0:	28 00 00 00 30 00 02 1d 	lw $2,48($29)
  408fc8:	42 00 00 00 00 04 00 00 	addu $4,$0,$0
  408fd0:	42 00 00 00 00 05 03 00 	addu $5,$0,$3
  408fd8:	42 00 00 00 00 06 08 00 	addu $6,$0,$8
  408fe0:	34 00 00 00 18 00 1f 1d 	sw $31,24($29)
  408fe8:	34 00 00 00 10 00 07 1d 	sw $7,16($29)
  408ff0:	42 00 00 00 00 07 09 00 	addu $7,$0,$9
  408ff8:	34 00 00 00 14 00 02 1d 	sw $2,20($29)
  409000:	02 00 00 00 76 1c 10 00 	jal 4071d8 <matmat_0_>
  409008:	28 00 00 00 18 00 1f 1d 	lw $31,24($29)
  409010:	43 00 00 00 20 00 1d 1d 	addiu $29,$29,32
  409018:	03 00 00 00 00 00 00 1f 	jr $31

00409020 <addmm_>:
  409020:	43 00 00 00 e0 ff 1d 1d 	addiu $29,$29,-32
  409028:	42 00 00 00 00 03 04 00 	addu $3,$0,$4
  409030:	42 00 00 00 00 08 05 00 	addu $8,$0,$5
  409038:	42 00 00 00 00 09 06 00 	addu $9,$0,$6
  409040:	28 00 00 00 30 00 02 1d 	lw $2,48($29)
  409048:	43 00 00 00 01 00 04 00 	addiu $4,$0,1
  409050:	42 00 00 00 00 05 03 00 	addu $5,$0,$3
  409058:	42 00 00 00 00 06 08 00 	addu $6,$0,$8
  409060:	34 00 00 00 18 00 1f 1d 	sw $31,24($29)
  409068:	34 00 00 00 10 00 07 1d 	sw $7,16($29)
  409070:	42 00 00 00 00 07 09 00 	addu $7,$0,$9
  409078:	34 00 00 00 14 00 02 1d 	sw $2,20($29)
  409080:	02 00 00 00 76 1c 10 00 	jal 4071d8 <matmat_0_>
  409088:	28 00 00 00 18 00 1f 1d 	lw $31,24($29)
  409090:	43 00 00 00 20 00 1d 1d 	addiu $29,$29,32
  409098:	03 00 00 00 00 00 00 1f 	jr $31

004090a0 <adjmat_>:
  4090a0:	43 00 00 00 e0 ff 1d 1d 	addiu $29,$29,-32
  4090a8:	42 00 00 00 00 03 04 00 	addu $3,$0,$4
  4090b0:	42 00 00 00 00 08 05 00 	addu $8,$0,$5
  4090b8:	42 00 00 00 00 09 06 00 	addu $9,$0,$6
  4090c0:	28 00 00 00 30 00 02 1d 	lw $2,48($29)
  4090c8:	43 00 00 00 02 00 04 00 	addiu $4,$0,2
  4090d0:	42 00 00 00 00 05 03 00 	addu $5,$0,$3
  4090d8:	42 00 00 00 00 06 08 00 	addu $6,$0,$8
  4090e0:	34 00 00 00 18 00 1f 1d 	sw $31,24($29)
  4090e8:	34 00 00 00 10 00 07 1d 	sw $7,16($29)
  4090f0:	42 00 00 00 00 07 09 00 	addu $7,$0,$9
  4090f8:	34 00 00 00 14 00 02 1d 	sw $2,20($29)
  409100:	02 00 00 00 76 1c 10 00 	jal 4071d8 <matmat_0_>
  409108:	28 00 00 00 18 00 1f 1d 	lw $31,24($29)
  409110:	43 00 00 00 20 00 1d 1d 	addiu $29,$29,32
  409118:	03 00 00 00 00 00 00 1f 	jr $31

00409120 <addam_>:
  409120:	43 00 00 00 e0 ff 1d 1d 	addiu $29,$29,-32
  409128:	42 00 00 00 00 03 04 00 	addu $3,$0,$4
  409130:	42 00 00 00 00 08 05 00 	addu $8,$0,$5
  409138:	42 00 00 00 00 09 06 00 	addu $9,$0,$6
  409140:	28 00 00 00 30 00 02 1d 	lw $2,48($29)
  409148:	43 00 00 00 03 00 04 00 	addiu $4,$0,3
  409150:	42 00 00 00 00 05 03 00 	addu $5,$0,$3
  409158:	42 00 00 00 00 06 08 00 	addu $6,$0,$8
  409160:	34 00 00 00 18 00 1f 1d 	sw $31,24($29)
  409168:	34 00 00 00 10 00 07 1d 	sw $7,16($29)
  409170:	42 00 00 00 00 07 09 00 	addu $7,$0,$9
  409178:	34 00 00 00 14 00 02 1d 	sw $2,20($29)
  409180:	02 00 00 00 76 1c 10 00 	jal 4071d8 <matmat_0_>
  409188:	28 00 00 00 18 00 1f 1d 	lw $31,24($29)
  409190:	43 00 00 00 20 00 1d 1d 	addiu $29,$29,32
  409198:	03 00 00 00 00 00 00 1f 	jr $31

004091a0 <matadj_>:
  4091a0:	43 00 00 00 e0 ff 1d 1d 	addiu $29,$29,-32
  4091a8:	42 00 00 00 00 03 04 00 	addu $3,$0,$4
  4091b0:	42 00 00 00 00 08 05 00 	addu $8,$0,$5
  4091b8:	42 00 00 00 00 09 06 00 	addu $9,$0,$6
  4091c0:	28 00 00 00 30 00 02 1d 	lw $2,48($29)
  4091c8:	43 00 00 00 04 00 04 00 	addiu $4,$0,4
  4091d0:	42 00 00 00 00 05 03 00 	addu $5,$0,$3
  4091d8:	42 00 00 00 00 06 08 00 	addu $6,$0,$8
  4091e0:	34 00 00 00 18 00 1f 1d 	sw $31,24($29)
  4091e8:	34 00 00 00 10 00 07 1d 	sw $7,16($29)
  4091f0:	42 00 00 00 00 07 09 00 	addu $7,$0,$9
  4091f8:	34 00 00 00 14 00 02 1d 	sw $2,20($29)
  409200:	02 00 00 00 76 1c 10 00 	jal 4071d8 <matmat_0_>
  409208:	28 00 00 00 18 00 1f 1d 	lw $31,24($29)
  409210:	43 00 00 00 20 00 1d 1d 	addiu $29,$29,32
  409218:	03 00 00 00 00 00 00 1f 	jr $31

00409220 <addma_>:
  409220:	43 00 00 00 e0 ff 1d 1d 	addiu $29,$29,-32
  409228:	42 00 00 00 00 03 04 00 	addu $3,$0,$4
  409230:	42 00 00 00 00 08 05 00 	addu $8,$0,$5
  409238:	42 00 00 00 00 09 06 00 	addu $9,$0,$6
  409240:	28 00 00 00 30 00 02 1d 	lw $2,48($29)
  409248:	43 00 00 00 05 00 04 00 	addiu $4,$0,5
  409250:	42 00 00 00 00 05 03 00 	addu $5,$0,$3
  409258:	42 00 00 00 00 06 08 00 	addu $6,$0,$8
  409260:	34 00 00 00 18 00 1f 1d 	sw $31,24($29)
  409268:	34 00 00 00 10 00 07 1d 	sw $7,16($29)
  409270:	42 00 00 00 00 07 09 00 	addu $7,$0,$9
  409278:	34 00 00 00 14 00 02 1d 	sw $2,20($29)
  409280:	02 00 00 00 76 1c 10 00 	jal 4071d8 <matmat_0_>
  409288:	28 00 00 00 18 00 1f 1d 	lw $31,24($29)
  409290:	43 00 00 00 20 00 1d 1d 	addiu $29,$29,32
  409298:	03 00 00 00 00 00 00 1f 	jr $31

004092a0 <adjadj_>:
  4092a0:	43 00 00 00 e0 ff 1d 1d 	addiu $29,$29,-32
  4092a8:	42 00 00 00 00 03 04 00 	addu $3,$0,$4
  4092b0:	42 00 00 00 00 08 05 00 	addu $8,$0,$5
  4092b8:	42 00 00 00 00 09 06 00 	addu $9,$0,$6
  4092c0:	28 00 00 00 30 00 02 1d 	lw $2,48($29)
  4092c8:	43 00 00 00 06 00 04 00 	addiu $4,$0,6
  4092d0:	42 00 00 00 00 05 03 00 	addu $5,$0,$3
  4092d8:	42 00 00 00 00 06 08 00 	addu $6,$0,$8
  4092e0:	34 00 00 00 18 00 1f 1d 	sw $31,24($29)
  4092e8:	34 00 00 00 10 00 07 1d 	sw $7,16($29)
  4092f0:	42 00 00 00 00 07 09 00 	addu $7,$0,$9
  4092f8:	34 00 00 00 14 00 02 1d 	sw $2,20($29)
  409300:	02 00 00 00 76 1c 10 00 	jal 4071d8 <matmat_0_>
  409308:	28 00 00 00 18 00 1f 1d 	lw $31,24($29)
  409310:	43 00 00 00 20 00 1d 1d 	addiu $29,$29,32
  409318:	03 00 00 00 00 00 00 1f 	jr $31

00409320 <addaa_>:
  409320:	43 00 00 00 e0 ff 1d 1d 	addiu $29,$29,-32
  409328:	42 00 00 00 00 03 04 00 	addu $3,$0,$4
  409330:	42 00 00 00 00 08 05 00 	addu $8,$0,$5
  409338:	42 00 00 00 00 09 06 00 	addu $9,$0,$6
  409340:	28 00 00 00 30 00 02 1d 	lw $2,48($29)
  409348:	43 00 00 00 07 00 04 00 	addiu $4,$0,7
  409350:	42 00 00 00 00 05 03 00 	addu $5,$0,$3
  409358:	42 00 00 00 00 06 08 00 	addu $6,$0,$8
  409360:	34 00 00 00 18 00 1f 1d 	sw $31,24($29)
  409368:	34 00 00 00 10 00 07 1d 	sw $7,16($29)
  409370:	42 00 00 00 00 07 09 00 	addu $7,$0,$9
  409378:	34 00 00 00 14 00 02 1d 	sw $2,20($29)
  409380:	02 00 00 00 76 1c 10 00 	jal 4071d8 <matmat_0_>
  409388:	28 00 00 00 18 00 1f 1d 	lw $31,24($29)
  409390:	43 00 00 00 20 00 1d 1d 	addiu $29,$29,32
  409398:	03 00 00 00 00 00 00 1f 	jr $31

004093a0 <perm_>:
  4093a0:	43 00 00 00 02 00 08 00 	addiu $8,$0,2
  4093a8:	28 00 00 00 00 00 07 07 	lw $7,0($7)
  4093b0:	43 00 00 00 f8 ff 03 06 	addiu $3,$6,-8
  4093b8:	43 00 00 00 f8 ff 04 04 	addiu $4,$4,-8
  4093c0:	5c 00 00 00 02 00 02 07 	slti $2,$7,2
  4093c8:	06 00 00 00 0c 01 00 02 	bne $2,$0,409800 <perm_+0x460>
  4093d0:	51 00 00 00 38 80 0d 00 	ori $13,$0,32824
  4093d8:	a2 00 00 00 01 00 0c 00 	lui $12,1
  4093e0:	51 00 00 00 70 00 0c 0c 	ori $12,$12,112
  4093e8:	a2 00 00 00 01 00 0a 00 	lui $10,1
  4093f0:	51 00 00 00 a8 80 0a 0a 	ori $10,$10,32936
  4093f8:	a2 00 00 00 83 10 09 00 	lui $9,4227
  409400:	43 00 00 00 4c d4 09 09 	addiu $9,$9,-11188
  409408:	43 00 00 00 04 00 0b 09 	addiu $11,$9,4
  409410:	43 00 00 00 10 00 06 03 	addiu $6,$3,16
  409418:	28 00 00 00 00 00 03 05 	lw $3,0($5)
  409420:	55 00 00 00 09 02 03 00 	sll $2,$3,0x9
  409428:	42 00 00 00 00 02 03 02 	addu $2,$2,$3
  409430:	55 00 00 00 03 02 02 00 	sll $2,$2,0x3
  409438:	45 00 00 00 00 02 03 02 	subu $2,$2,$3
  409440:	42 00 00 00 00 02 08 02 	addu $2,$2,$8
  409448:	55 00 00 00 02 02 02 00 	sll $2,$2,0x2
  409450:	42 00 00 00 00 02 09 02 	addu $2,$2,$9
  409458:	28 00 00 00 00 00 02 02 	lw $2,0($2)
  409460:	55 00 00 00 03 02 02 00 	sll $2,$2,0x3
  409468:	42 00 00 00 00 02 04 02 	addu $2,$2,$4
  409470:	2b 00 00 00 00 00 00 02 	l.d $f0,0($2)
  409478:	37 00 00 00 f8 ff 00 06 	s.d $f0,-8($6)
  409480:	28 00 00 00 00 00 03 05 	lw $3,0($5)
  409488:	55 00 00 00 09 02 03 00 	sll $2,$3,0x9
  409490:	42 00 00 00 00 02 03 02 	addu $2,$2,$3
  409498:	55 00 00 00 03 02 02 00 	sll $2,$2,0x3
  4094a0:	45 00 00 00 00 02 03 02 	subu $2,$2,$3
  4094a8:	42 00 00 00 00 02 08 02 	addu $2,$2,$8
  4094b0:	55 00 00 00 02 02 02 00 	sll $2,$2,0x2
  4094b8:	42 00 00 00 00 02 09 02 	addu $2,$2,$9
  4094c0:	28 00 00 00 00 00 02 02 	lw $2,0($2)
  4094c8:	55 00 00 00 03 02 02 00 	sll $2,$2,0x3
  4094d0:	42 00 00 00 00 02 04 02 	addu $2,$2,$4
  4094d8:	42 00 00 00 00 02 0d 02 	addu $2,$2,$13
  4094e0:	2b 00 00 00 00 00 00 02 	l.d $f0,0($2)
  4094e8:	51 00 00 00 30 80 02 00 	ori $2,$0,32816
  4094f0:	42 00 00 00 00 02 02 06 	addu $2,$6,$2
  4094f8:	37 00 00 00 00 00 00 02 	s.d $f0,0($2)
  409500:	28 00 00 00 00 00 03 05 	lw $3,0($5)
  409508:	55 00 00 00 09 02 03 00 	sll $2,$3,0x9
  409510:	42 00 00 00 00 02 03 02 	addu $2,$2,$3
  409518:	55 00 00 00 03 02 02 00 	sll $2,$2,0x3
  409520:	45 00 00 00 00 02 03 02 	subu $2,$2,$3
  409528:	42 00 00 00 00 02 08 02 	addu $2,$2,$8
  409530:	55 00 00 00 02 02 02 00 	sll $2,$2,0x2
  409538:	42 00 00 00 00 02 09 02 	addu $2,$2,$9
  409540:	28 00 00 00 00 00 02 02 	lw $2,0($2)
  409548:	a2 00 00 00 01 00 03 00 	lui $3,1
  409550:	55 00 00 00 03 02 02 00 	sll $2,$2,0x3
  409558:	42 00 00 00 00 02 04 02 	addu $2,$2,$4
  409560:	42 00 00 00 00 02 0c 02 	addu $2,$2,$12
  409568:	2b 00 00 00 00 00 00 02 	l.d $f0,0($2)
  409570:	51 00 00 00 68 00 03 03 	ori $3,$3,104
  409578:	42 00 00 00 00 03 03 06 	addu $3,$6,$3
  409580:	37 00 00 00 00 00 00 03 	s.d $f0,0($3)
  409588:	28 00 00 00 00 00 03 05 	lw $3,0($5)
  409590:	55 00 00 00 09 02 03 00 	sll $2,$3,0x9
  409598:	42 00 00 00 00 02 03 02 	addu $2,$2,$3
  4095a0:	55 00 00 00 03 02 02 00 	sll $2,$2,0x3
  4095a8:	45 00 00 00 00 02 03 02 	subu $2,$2,$3
  4095b0:	42 00 00 00 00 02 08 02 	addu $2,$2,$8
  4095b8:	55 00 00 00 02 02 02 00 	sll $2,$2,0x2
  4095c0:	42 00 00 00 00 02 09 02 	addu $2,$2,$9
  4095c8:	28 00 00 00 00 00 02 02 	lw $2,0($2)
  4095d0:	a2 00 00 00 01 00 03 00 	lui $3,1
  4095d8:	55 00 00 00 03 02 02 00 	sll $2,$2,0x3
  4095e0:	42 00 00 00 00 02 04 02 	addu $2,$2,$4
  4095e8:	42 00 00 00 00 02 0a 02 	addu $2,$2,$10
  4095f0:	2b 00 00 00 00 00 00 02 	l.d $f0,0($2)
  4095f8:	51 00 00 00 a0 80 03 03 	ori $3,$3,32928
  409600:	42 00 00 00 00 03 03 06 	addu $3,$6,$3
  409608:	37 00 00 00 00 00 00 03 	s.d $f0,0($3)
  409610:	28 00 00 00 00 00 03 05 	lw $3,0($5)
  409618:	55 00 00 00 09 02 03 00 	sll $2,$3,0x9
  409620:	42 00 00 00 00 02 03 02 	addu $2,$2,$3
  409628:	55 00 00 00 03 02 02 00 	sll $2,$2,0x3
  409630:	45 00 00 00 00 02 03 02 	subu $2,$2,$3
  409638:	42 00 00 00 00 02 08 02 	addu $2,$2,$8
  409640:	55 00 00 00 02 02 02 00 	sll $2,$2,0x2
  409648:	42 00 00 00 00 02 0b 02 	addu $2,$2,$11
  409650:	28 00 00 00 00 00 02 02 	lw $2,0($2)
  409658:	55 00 00 00 03 02 02 00 	sll $2,$2,0x3
  409660:	42 00 00 00 00 02 04 02 	addu $2,$2,$4
  409668:	2b 00 00 00 00 00 00 02 	l.d $f0,0($2)
  409670:	37 00 00 00 00 00 00 06 	s.d $f0,0($6)
  409678:	28 00 00 00 00 00 03 05 	lw $3,0($5)
  409680:	55 00 00 00 09 02 03 00 	sll $2,$3,0x9
  409688:	42 00 00 00 00 02 03 02 	addu $2,$2,$3
  409690:	55 00 00 00 03 02 02 00 	sll $2,$2,0x3
  409698:	45 00 00 00 00 02 03 02 	subu $2,$2,$3
  4096a0:	42 00 00 00 00 02 08 02 	addu $2,$2,$8
  4096a8:	55 00 00 00 02 02 02 00 	sll $2,$2,0x2
  4096b0:	42 00 00 00 00 02 0b 02 	addu $2,$2,$11
  4096b8:	28 00 00 00 00 00 02 02 	lw $2,0($2)
  4096c0:	55 00 00 00 03 02 02 00 	sll $2,$2,0x3
  4096c8:	42 00 00 00 00 02 04 02 	addu $2,$2,$4
  4096d0:	42 00 00 00 00 02 0d 02 	addu $2,$2,$13
  4096d8:	2b 00 00 00 00 00 00 02 	l.d $f0,0($2)
  4096e0:	42 00 00 00 00 02 0d 06 	addu $2,$6,$13
  4096e8:	37 00 00 00 00 00 00 02 	s.d $f0,0($2)
  4096f0:	28 00 00 00 00 00 03 05 	lw $3,0($5)
  4096f8:	55 00 00 00 09 02 03 00 	sll $2,$3,0x9
  409700:	42 00 00 00 00 02 03 02 	addu $2,$2,$3
  409708:	55 00 00 00 03 02 02 00 	sll $2,$2,0x3
  409710:	45 00 00 00 00 02 03 02 	subu $2,$2,$3
  409718:	42 00 00 00 00 02 08 02 	addu $2,$2,$8
  409720:	55 00 00 00 02 02 02 00 	sll $2,$2,0x2
  409728:	42 00 00 00 00 02 0b 02 	addu $2,$2,$11
  409730:	28 00 00 00 00 00 02 02 	lw $2,0($2)
  409738:	55 00 00 00 03 02 02 00 	sll $2,$2,0x3
  409740:	42 00 00 00 00 02 04 02 	addu $2,$2,$4
  409748:	42 00 00 00 00 02 0c 02 	addu $2,$2,$12
  409750:	2b 00 00 00 00 00 00 02 	l.d $f0,0($2)
  409758:	42 00 00 00 00 02 0c 06 	addu $2,$6,$12
  409760:	37 00 00 00 00 00 00 02 	s.d $f0,0($2)
  409768:	28 00 00 00 00 00 03 05 	lw $3,0($5)
  409770:	55 00 00 00 09 02 03 00 	sll $2,$3,0x9
  409778:	42 00 00 00 00 02 03 02 	addu $2,$2,$3
  409780:	55 00 00 00 03 02 02 00 	sll $2,$2,0x3
  409788:	45 00 00 00 00 02 03 02 	subu $2,$2,$3
  409790:	42 00 00 00 00 02 08 02 	addu $2,$2,$8
  409798:	55 00 00 00 02 02 02 00 	sll $2,$2,0x2
  4097a0:	42 00 00 00 00 02 0b 02 	addu $2,$2,$11
  4097a8:	28 00 00 00 00 00 02 02 	lw $2,0($2)
  4097b0:	42 00 00 00 00 03 0a 06 	addu $3,$6,$10
  4097b8:	55 00 00 00 03 02 02 00 	sll $2,$2,0x3
  4097c0:	42 00 00 00 00 02 04 02 	addu $2,$2,$4
  4097c8:	42 00 00 00 00 02 0a 02 	addu $2,$2,$10
  4097d0:	2b 00 00 00 00 00 00 02 	l.d $f0,0($2)
  4097d8:	43 00 00 00 10 00 06 06 	addiu $6,$6,16
  4097e0:	43 00 00 00 02 00 08 08 	addiu $8,$8,2
  4097e8:	5b 00 00 00 00 02 08 07 	slt $2,$7,$8
  4097f0:	37 00 00 00 00 00 00 03 	s.d $f0,0($3)
  4097f8:	05 00 00 00 06 ff 00 02 	beq $2,$0,409418 <perm_+0x78>
  409800:	42 00 00 00 00 02 00 00 	addu $2,$0,$0
  409808:	03 00 00 00 00 00 00 1f 	jr $31

00409810 <intact_>:
  409810:	a2 00 00 00 04 00 08 00 	lui $8,4
  409818:	51 00 00 00 30 02 08 08 	ori $8,$8,560
  409820:	45 00 00 00 00 1d 08 1d 	subu $29,$29,$8
  409828:	42 00 00 00 00 09 1d 08 	addu $9,$8,$29
  409830:	34 00 00 00 e8 ff 14 09 	sw $20,-24($9)
  409838:	42 00 00 00 00 14 04 00 	addu $20,$0,$4
  409840:	34 00 00 00 ec ff 15 09 	sw $21,-20($9)
  409848:	42 00 00 00 00 15 06 00 	addu $21,$0,$6
  409850:	34 00 00 00 fc ff 1f 09 	sw $31,-4($9)
  409858:	34 00 00 00 f8 ff 1e 09 	sw $30,-8($9)
  409860:	34 00 00 00 f4 ff 17 09 	sw $23,-12($9)
  409868:	34 00 00 00 f0 ff 16 09 	sw $22,-16($9)
  409870:	34 00 00 00 e4 ff 13 09 	sw $19,-28($9)
  409878:	34 00 00 00 e0 ff 12 09 	sw $18,-32($9)
  409880:	34 00 00 00 dc ff 11 09 	sw $17,-36($9)
  409888:	34 00 00 00 d8 ff 10 09 	sw $16,-40($9)
  409890:	28 00 00 00 00 00 02 15 	lw $2,0($21)
  409898:	42 00 00 00 00 09 05 00 	addu $9,$0,$5
  4098a0:	43 00 00 00 f8 ff 16 07 	addiu $22,$7,-8
  4098a8:	07 00 00 00 32 01 00 02 	blez $2,409d78 <intact_+0x568>
  4098b0:	a2 00 00 00 04 00 05 00 	lui $5,4
  4098b8:	28 00 00 00 00 00 04 14 	lw $4,0($20)
  4098c0:	51 00 00 00 c0 01 05 05 	ori $5,$5,448
  4098c8:	55 00 00 00 04 03 02 00 	sll $3,$2,0x4
  4098d0:	28 00 00 00 00 00 02 09 	lw $2,0($9)
  4098d8:	42 00 00 00 00 03 03 04 	addu $3,$4,$3
  4098e0:	55 00 00 00 02 03 03 00 	sll $3,$3,0x2
  4098e8:	a2 00 00 00 03 10 08 00 	lui $8,4099
  4098f0:	42 00 00 00 00 08 03 08 	addu $8,$8,$3
  4098f8:	28 00 00 00 1c db 08 08 	lw $8,-9444($8)
  409900:	55 00 00 00 04 02 02 00 	sll $2,$2,0x4
  409908:	42 00 00 00 00 04 02 04 	addu $4,$4,$2
  409910:	55 00 00 00 02 04 04 00 	sll $4,$4,0x2
  409918:	a2 00 00 00 03 10 17 00 	lui $23,4099
  409920:	42 00 00 00 00 17 04 17 	addu $23,$23,$4
  409928:	28 00 00 00 1c db 17 17 	lw $23,-9444($23)
  409930:	a2 00 00 00 85 10 02 00 	lui $2,4229
  409938:	42 00 00 00 00 02 03 02 	addu $2,$2,$3
  409940:	28 00 00 00 dc 3d 02 02 	lw $2,15836($2)
  409948:	43 00 00 00 18 00 13 1d 	addiu $19,$29,24
  409950:	42 00 00 00 00 05 05 13 	addu $5,$19,$5
  409958:	34 00 00 00 00 00 02 05 	sw $2,0($5)
  409960:	28 00 00 00 00 00 03 09 	lw $3,0($9)
  409968:	28 00 00 00 00 00 02 14 	lw $2,0($20)
  409970:	a2 00 00 00 04 00 04 00 	lui $4,4
  409978:	55 00 00 00 04 03 03 00 	sll $3,$3,0x4
  409980:	42 00 00 00 00 02 03 02 	addu $2,$2,$3
  409988:	55 00 00 00 02 02 02 00 	sll $2,$2,0x2
  409990:	a2 00 00 00 85 10 01 00 	lui $1,4229
  409998:	42 00 00 00 00 01 02 01 	addu $1,$1,$2
  4099a0:	28 00 00 00 dc 3d 02 01 	lw $2,15836($1)
  4099a8:	51 00 00 00 c4 01 04 04 	ori $4,$4,452
  4099b0:	42 00 00 00 00 04 04 13 	addu $4,$19,$4
  4099b8:	34 00 00 00 00 00 02 04 	sw $2,0($4)
  4099c0:	28 00 00 00 00 00 02 05 	lw $2,0($5)
  4099c8:	06 00 00 00 38 00 00 02 	bne $2,$0,409ab0 <intact_+0x2a0>
  4099d0:	28 00 00 00 00 00 02 09 	lw $2,0($9)
  4099d8:	42 00 00 00 00 04 00 00 	addu $4,$0,$0
  4099e0:	42 00 00 00 00 07 13 00 	addu $7,$0,$19
  4099e8:	28 00 00 00 00 00 06 15 	lw $6,0($21)
  4099f0:	28 00 00 00 00 00 03 14 	lw $3,0($20)
  4099f8:	55 00 00 00 04 02 02 00 	sll $2,$2,0x4
  409a00:	42 00 00 00 00 02 02 08 	addu $2,$8,$2
  409a08:	55 00 00 00 09 05 02 00 	sll $5,$2,0x9
  409a10:	42 00 00 00 00 05 02 05 	addu $5,$5,$2
  409a18:	55 00 00 00 03 05 05 00 	sll $5,$5,0x3
  409a20:	45 00 00 00 00 05 02 05 	subu $5,$5,$2
  409a28:	55 00 00 00 05 05 05 00 	sll $5,$5,0x5
  409a30:	a2 00 00 00 e1 0f 02 00 	lui $2,4065
  409a38:	43 00 00 00 90 cd 02 02 	addiu $2,$2,-12912
