
/export/capc5/SPEC_TRACE/SimpleScalar/bin/fpppp.ss:     file format ss-coff-little

Disassembly of section .text:

00400140 <__start>:
  400140:	28 00 00 00 00 00 10 1d 	lw $16,0($29)
  400148:	a2 00 00 00 01 10 1c 00 	lui $28,4097
  400150:	43 00 00 00 d0 b4 1c 1c 	addiu $28,$28,-19248
  400158:	43 00 00 00 04 00 11 1d 	addiu $17,$29,4
  400160:	43 00 00 00 04 00 03 11 	addiu $3,$17,4
  400168:	55 00 00 00 02 02 10 00 	sll $2,$16,0x2
  400170:	42 00 00 00 00 03 02 03 	addu $3,$3,$2
  400178:	42 00 00 00 00 12 03 00 	addu $18,$0,$3
  400180:	34 00 00 00 94 8e 12 1c 	sw $18,-29036($28)
  400188:	43 00 00 00 e8 ff 1d 1d 	addiu $29,$29,-24
  400190:	42 00 00 00 00 04 10 00 	addu $4,$0,$16
  400198:	42 00 00 00 00 05 11 00 	addu $5,$0,$17
  4001a0:	42 00 00 00 00 06 12 00 	addu $6,$0,$18
  4001a8:	02 00 00 00 98 84 10 00 	jal 421260 <__libc_init>
  4001b0:	34 00 00 00 90 8e 00 1c 	sw $0,-29040($28)
  4001b8:	42 00 00 00 00 04 10 00 	addu $4,$0,$16
  4001c0:	42 00 00 00 00 05 11 00 	addu $5,$0,$17
  4001c8:	42 00 00 00 00 06 12 00 	addu $6,$0,$18
  4001d0:	02 00 00 00 a4 84 10 00 	jal 421290 <main>
  4001d8:	42 00 00 00 00 04 02 00 	addu $4,$0,$2
  4001e0:	02 00 00 00 7c 85 10 00 	jal 4215f0 <exit>
	...

004001f0 <aclear_>:
  4001f0:	28 00 00 00 00 00 04 04 	lw $4,0($4)
  4001f8:	43 00 00 00 01 00 07 00 	addiu $7,$0,1
  400200:	43 00 00 00 f8 ff 05 05 	addiu $5,$5,-8
  400208:	07 00 00 00 3c 00 00 04 	blez $4,400300 <aclear_+0x110>
  400210:	43 00 00 00 08 00 06 05 	addiu $6,$5,8
  400218:	43 00 00 00 01 00 02 04 	addiu $2,$4,1
  400220:	4f 00 00 00 03 00 03 04 	andi $3,$4,3
  400228:	5b 00 00 00 00 02 02 07 	slt $2,$7,$2
  400230:	05 00 00 00 16 00 00 02 	beq $2,$0,400290 <aclear_+0xa0>
  400238:	05 00 00 00 1e 00 00 03 	beq $3,$0,4002b8 <aclear_+0xc8>
  400240:	5c 00 00 00 02 00 02 03 	slti $2,$3,2
  400248:	06 00 00 00 10 00 00 02 	bne $2,$0,400290 <aclear_+0xa0>
  400250:	5c 00 00 00 03 00 02 03 	slti $2,$3,3
  400258:	06 00 00 00 06 00 00 02 	bne $2,$0,400278 <aclear_+0x88>
  400260:	38 00 00 00 08 00 00 05 	dsz 8($5)
  400268:	43 00 00 00 08 00 06 06 	addiu $6,$6,8
  400270:	43 00 00 00 02 00 07 00 	addiu $7,$0,2
  400278:	38 00 00 00 00 00 00 06 	dsz 0($6)
  400280:	43 00 00 00 08 00 06 06 	addiu $6,$6,8
  400288:	43 00 00 00 01 00 07 07 	addiu $7,$7,1
  400290:	38 00 00 00 00 00 00 06 	dsz 0($6)
  400298:	43 00 00 00 08 00 06 06 	addiu $6,$6,8
  4002a0:	43 00 00 00 01 00 07 07 	addiu $7,$7,1
  4002a8:	5b 00 00 00 00 03 07 04 	slt $3,$4,$7
  4002b0:	06 00 00 00 12 00 00 03 	bne $3,$0,400300 <aclear_+0x110>
  4002b8:	42 00 00 00 00 02 06 00 	addu $2,$0,$6
  4002c0:	38 00 00 00 00 00 00 02 	dsz 0($2)
  4002c8:	38 00 00 00 08 00 00 02 	dsz 8($2)
  4002d0:	38 00 00 00 10 00 00 02 	dsz 16($2)
  4002d8:	38 00 00 00 18 00 00 02 	dsz 24($2)
  4002e0:	43 00 00 00 20 00 02 02 	addiu $2,$2,32
  4002e8:	43 00 00 00 04 00 07 07 	addiu $7,$7,4
  4002f0:	5b 00 00 00 00 03 07 04 	slt $3,$4,$7
  4002f8:	05 00 00 00 f0 ff 00 03 	beq $3,$0,4002c0 <aclear_+0xd0>
  400300:	42 00 00 00 00 02 00 00 	addu $2,$0,$0
  400308:	03 00 00 00 00 00 00 1f 	jr $31

00400310 <d2esp_>:
  400310:	28 00 00 00 14 80 03 1c 	lw $3,-32748($28)
  400318:	43 00 00 00 08 ff 1d 1d 	addiu $29,$29,-248
  400320:	34 00 00 00 d8 00 12 1d 	sw $18,216($29)
  400328:	43 00 00 00 f8 ff 12 04 	addiu $18,$4,-8
  400330:	43 00 00 00 68 00 04 1d 	addiu $4,$29,104
  400338:	34 00 00 00 f4 00 1f 1d 	sw $31,244($29)
  400340:	34 00 00 00 f0 00 1e 1d 	sw $30,240($29)
  400348:	34 00 00 00 ec 00 17 1d 	sw $23,236($29)
  400350:	34 00 00 00 e8 00 16 1d 	sw $22,232($29)
  400358:	34 00 00 00 e4 00 15 1d 	sw $21,228($29)
  400360:	34 00 00 00 e0 00 14 1d 	sw $20,224($29)
  400368:	34 00 00 00 dc 00 13 1d 	sw $19,220($29)
  400370:	34 00 00 00 d4 00 11 1d 	sw $17,212($29)
  400378:	34 00 00 00 d0 00 10 1d 	sw $16,208($29)
  400380:	55 00 00 00 03 02 03 00 	sll $2,$3,0x3
  400388:	45 00 00 00 00 02 03 02 	subu $2,$2,$3
  400390:	43 00 00 00 02 00 02 02 	addiu $2,$2,2
  400398:	34 00 00 00 68 00 02 1d 	sw $2,104($29)
  4003a0:	02 00 00 00 94 57 10 00 	jal 415e50 <intowp_>
  4003a8:	43 00 00 00 00 80 04 1c 	addiu $4,$28,-32768
  4003b0:	02 00 00 00 94 57 10 00 	jal 415e50 <intowp_>
  4003b8:	a2 00 00 00 01 10 05 00 	lui $5,4097
  4003c0:	28 00 00 00 14 36 05 05 	lw $5,13844($5)
  4003c8:	a2 00 00 00 66 66 02 00 	lui $2,26214
  4003d0:	51 00 00 00 67 66 02 02 	ori $2,$2,26215
  4003d8:	46 00 00 00 00 00 02 05 	mult $5,$2
  4003e0:	4a 00 00 00 00 03 00 00 	mfhi $3
  4003e8:	4c 00 00 00 00 02 00 00 	mflo $2
  4003f0:	a2 00 00 00 01 10 04 00 	lui $4,4097
  4003f8:	28 00 00 00 54 36 04 04 	lw $4,13908($4)
  400400:	a2 00 00 00 01 10 07 00 	lui $7,4097
  400408:	28 00 00 00 6c 36 07 07 	lw $7,13932($7)
  400410:	a2 00 00 00 01 10 06 00 	lui $6,4097
  400418:	28 00 00 00 70 36 06 06 	lw $6,13936($6)
  400420:	a2 00 00 00 01 10 08 00 	lui $8,4097
  400428:	28 00 00 00 3c 36 08 08 	lw $8,13884($8)
  400430:	a2 00 00 00 01 10 09 00 	lui $9,4097
  400438:	28 00 00 00 44 36 09 09 	lw $9,13892($9)
  400440:	34 00 00 00 88 00 04 1d 	sw $4,136($29)
  400448:	34 00 00 00 98 00 07 1d 	sw $7,152($29)
  400450:	34 00 00 00 94 00 06 1d 	sw $6,148($29)
  400458:	34 00 00 00 c8 00 09 1d 	sw $9,200($29)
  400460:	57 00 00 00 00 02 03 00 	srl $2,$3,0x0
  400468:	42 00 00 00 00 03 00 00 	addu $3,$0,$0
  400470:	59 00 00 00 02 02 02 00 	sra $2,$2,0x2
  400478:	59 00 00 00 1f 04 05 00 	sra $4,$5,0x1f
  400480:	45 00 00 00 00 02 04 02 	subu $2,$2,$4
  400488:	55 00 00 00 02 04 02 00 	sll $4,$2,0x2
  400490:	42 00 00 00 00 04 02 04 	addu $4,$4,$2
  400498:	55 00 00 00 01 04 04 00 	sll $4,$4,0x1
  4004a0:	45 00 00 00 00 05 04 05 	subu $5,$5,$4
  4004a8:	34 00 00 00 80 00 05 1d 	sw $5,128($29)
  4004b0:	05 00 00 00 06 00 00 06 	beq $6,$0,4004d0 <d2esp_+0x1c0>
  4004b8:	06 00 00 00 04 00 00 07 	bne $7,$0,4004d0 <d2esp_+0x1c0>
  4004c0:	43 00 00 00 03 00 02 00 	addiu $2,$0,3
  4004c8:	34 00 00 00 98 00 02 1d 	sw $2,152($29)
  4004d0:	a2 00 00 00 01 10 03 00 	lui $3,4097
  4004d8:	28 00 00 00 b8 36 03 03 	lw $3,14008($3)
  4004e0:	43 00 00 00 01 00 02 03 	addiu $2,$3,1
  4004e8:	46 00 00 00 00 00 02 03 	mult $3,$2
  4004f0:	a2 00 00 00 01 10 04 00 	lui $4,4097
  4004f8:	28 00 00 00 a0 36 04 04 	lw $4,13984($4)
  400500:	43 00 00 00 01 00 10 00 	addiu $16,$0,1
  400508:	a2 00 00 00 01 10 01 00 	lui $1,4097
  400510:	34 00 00 00 60 35 10 01 	sw $16,13664($1)
  400518:	4c 00 00 00 00 03 00 00 	mflo $3
  400520:	55 00 00 00 01 02 04 00 	sll $2,$4,0x1
  400528:	42 00 00 00 00 02 04 02 	addu $2,$2,$4
  400530:	34 00 00 00 7c 00 02 1d 	sw $2,124($29)
  400538:	57 00 00 00 1f 02 03 00 	srl $2,$3,0x1f
  400540:	42 00 00 00 00 03 02 03 	addu $3,$3,$2
  400548:	59 00 00 00 01 15 03 00 	sra $21,$3,0x1
  400550:	08 00 00 00 fe 01 00 08 	bgtz $8,400d50 <d2esp_+0xa40>
  400558:	43 00 00 00 04 80 04 1c 	addiu $4,$28,-32764
  400560:	43 00 00 00 08 80 05 1c 	addiu $5,$28,-32760
  400568:	43 00 00 00 6c 00 06 1d 	addiu $6,$29,108
  400570:	02 00 00 00 8c 57 10 00 	jal 415e30 <ilsw_>
  400578:	28 00 00 00 6c 00 02 1d 	lw $2,108($29)
  400580:	05 00 00 00 f2 01 10 02 	beq $2,$16,400d50 <d2esp_+0xa40>
  400588:	43 00 00 00 04 80 04 1c 	addiu $4,$28,-32764
  400590:	43 00 00 00 0c 80 05 1c 	addiu $5,$28,-32756
  400598:	43 00 00 00 70 00 06 1d 	addiu $6,$29,112
  4005a0:	02 00 00 00 8c 57 10 00 	jal 415e30 <ilsw_>
  4005a8:	43 00 00 00 04 80 04 1c 	addiu $4,$28,-32764
  4005b0:	43 00 00 00 10 80 05 1c 	addiu $5,$28,-32752
  4005b8:	43 00 00 00 74 00 06 1d 	addiu $6,$29,116
  4005c0:	02 00 00 00 8c 57 10 00 	jal 415e30 <ilsw_>
  4005c8:	28 00 00 00 70 00 02 1d 	lw $2,112($29)
  4005d0:	06 00 00 00 16 00 00 02 	bne $2,$0,400630 <d2esp_+0x320>
  4005d8:	28 00 00 00 74 00 03 1d 	lw $3,116($29)
  4005e0:	06 00 00 00 02 00 10 03 	bne $3,$16,4005f0 <d2esp_+0x2e0>
  4005e8:	34 00 00 00 70 00 10 1d 	sw $16,112($29)
  4005f0:	28 00 00 00 70 00 02 1d 	lw $2,112($29)
  4005f8:	06 00 00 00 0c 00 00 02 	bne $2,$0,400630 <d2esp_+0x320>
  400600:	43 00 00 00 02 00 02 00 	addiu $2,$0,2
  400608:	06 00 00 00 04 00 02 03 	bne $3,$2,400620 <d2esp_+0x310>
  400610:	43 00 00 00 04 00 02 00 	addiu $2,$0,4
  400618:	34 00 00 00 70 00 02 1d 	sw $2,112($29)
  400620:	28 00 00 00 70 00 02 1d 	lw $2,112($29)
  400628:	05 00 00 00 08 00 00 02 	beq $2,$0,400650 <d2esp_+0x340>
  400630:	28 00 00 00 70 00 03 1d 	lw $3,112($29)
  400638:	43 00 00 00 04 00 02 00 	addiu $2,$0,4
  400640:	05 00 00 00 02 00 02 03 	beq $3,$2,400650 <d2esp_+0x340>
  400648:	43 00 00 00 02 00 10 00 	addiu $16,$0,2
  400650:	a2 00 00 00 01 10 17 00 	lui $23,4097
  400658:	43 00 00 00 a0 36 17 17 	addiu $23,$23,13984
  400660:	28 00 00 00 00 00 04 17 	lw $4,0($23)
  400668:	43 00 00 00 a0 8e 11 1c 	addiu $17,$28,-29024
  400670:	43 00 00 00 01 00 02 00 	addiu $2,$0,1
  400678:	43 00 00 00 02 00 09 00 	addiu $9,$0,2
  400680:	34 00 00 00 a0 8e 00 1c 	sw $0,-29024($28)
  400688:	34 00 00 00 04 00 00 11 	sw $0,4($17)
  400690:	34 00 00 00 90 00 02 1d 	sw $2,144($29)
  400698:	55 00 00 00 01 02 04 00 	sll $2,$4,0x1
  4006a0:	42 00 00 00 00 02 04 02 	addu $2,$2,$4
  4006a8:	43 00 00 00 02 00 03 02 	addiu $3,$2,2
  4006b0:	42 00 00 00 00 16 02 03 	addu $22,$3,$2
  4006b8:	42 00 00 00 00 13 16 00 	addu $19,$0,$22
  4006c0:	06 00 00 00 02 00 09 10 	bne $16,$9,4006d0 <d2esp_+0x3c0>
  4006c8:	42 00 00 00 00 16 15 16 	addu $22,$22,$21
  4006d0:	a2 00 00 00 01 10 02 00 	lui $2,4097
  4006d8:	28 00 00 00 60 35 02 02 	lw $2,13664($2)
  4006e0:	46 00 00 00 00 00 02 04 	mult $4,$2
  4006e8:	4c 00 00 00 00 02 00 00 	mflo $2
  4006f0:	43 00 00 00 68 00 04 1d 	addiu $4,$29,104
  4006f8:	34 00 00 00 68 00 02 1d 	sw $2,104($29)
  400700:	02 00 00 00 94 57 10 00 	jal 415e50 <intowp_>
  400708:	42 00 00 00 00 04 17 00 	addu $4,$0,$23
  400710:	42 00 00 00 00 09 15 16 	addu $9,$22,$21
  400718:	42 00 00 00 00 02 02 09 	addu $2,$9,$2
  400720:	34 00 00 00 b8 00 09 1d 	sw $9,184($29)
  400728:	34 00 00 00 c0 00 02 1d 	sw $2,192($29)
  400730:	02 00 00 00 94 57 10 00 	jal 415e50 <intowp_>
  400738:	28 00 00 00 c0 00 09 1d 	lw $9,192($29)
  400740:	42 00 00 00 00 04 11 00 	addu $4,$0,$17
  400748:	42 00 00 00 00 10 02 09 	addu $16,$9,$2
  400750:	02 00 00 00 94 57 10 00 	jal 415e50 <intowp_>
  400758:	a2 00 00 00 00 10 03 00 	lui $3,4096
  400760:	28 00 00 00 74 43 03 03 	lw $3,17268($3)
  400768:	46 00 00 00 00 00 03 03 	mult $3,$3
  400770:	42 00 00 00 00 05 00 00 	addu $5,$0,$0
  400778:	42 00 00 00 00 10 02 10 	addu $16,$16,$2
  400780:	43 00 00 00 04 00 02 00 	addiu $2,$0,4
  400788:	4c 00 00 00 00 04 00 00 	mflo $4
  400790:	42 00 00 00 00 10 03 10 	addu $16,$16,$3
  400798:	28 00 00 00 70 00 03 1d 	lw $3,112($29)
  4007a0:	42 00 00 00 00 10 04 10 	addu $16,$16,$4
  4007a8:	42 00 00 00 00 10 04 10 	addu $16,$16,$4
  4007b0:	34 00 00 00 a0 00 10 1d 	sw $16,160($29)
  4007b8:	06 00 00 00 08 00 02 03 	bne $3,$2,4007e0 <d2esp_+0x4d0>
  4007c0:	a2 00 00 00 01 10 02 00 	lui $2,4097
  4007c8:	28 00 00 00 b8 36 02 02 	lw $2,14008($2)
  4007d0:	46 00 00 00 00 00 02 02 	mult $2,$2
  4007d8:	4c 00 00 00 00 05 00 00 	mflo $5
  4007e0:	43 00 00 00 18 00 10 17 	addiu $16,$23,24
  4007e8:	28 00 00 00 a0 00 09 1d 	lw $9,160($29)
  4007f0:	42 00 00 00 00 04 10 00 	addu $4,$0,$16
  4007f8:	28 00 00 00 18 00 03 17 	lw $3,24($23)
  400800:	42 00 00 00 00 02 05 09 	addu $2,$9,$5
  400808:	43 00 00 00 02 00 14 02 	addiu $20,$2,2
  400810:	43 00 00 00 02 00 02 14 	addiu $2,$20,2
  400818:	42 00 00 00 00 02 03 02 	addu $2,$2,$3
  400820:	42 00 00 00 00 1e 03 02 	addu $30,$2,$3
  400828:	02 00 00 00 94 57 10 00 	jal 415e50 <intowp_>
  400830:	42 00 00 00 00 04 10 00 	addu $4,$0,$16
  400838:	42 00 00 00 00 11 02 1e 	addu $17,$30,$2
  400840:	02 00 00 00 94 57 10 00 	jal 415e50 <intowp_>
  400848:	28 00 00 00 90 00 03 1d 	lw $3,144($29)
  400850:	46 00 00 00 00 00 03 03 	mult $3,$3
  400858:	42 00 00 00 00 04 10 00 	addu $4,$0,$16
  400860:	55 00 00 00 03 05 1e 00 	sll $5,$30,0x3
  400868:	42 00 00 00 00 05 05 12 	addu $5,$18,$5
  400870:	4c 00 00 00 00 06 00 00 	mflo $6
  400878:	42 00 00 00 00 11 02 11 	addu $17,$17,$2
  400880:	42 00 00 00 00 03 03 11 	addu $3,$17,$3
  400888:	34 00 00 00 a8 00 03 1d 	sw $3,168($29)
  400890:	42 00 00 00 00 06 06 03 	addu $6,$3,$6
  400898:	34 00 00 00 b0 00 06 1d 	sw $6,176($29)
  4008a0:	02 00 00 00 a0 57 10 00 	jal 415e80 <lclear_>
  4008a8:	28 00 00 00 94 00 02 1d 	lw $2,148($29)
  4008b0:	06 00 00 00 08 00 00 02 	bne $2,$0,4008d8 <d2esp_+0x5c8>
  4008b8:	2b 00 00 00 18 80 00 1c 	l.d $f0,-32744($28)
  4008c0:	55 00 00 00 03 02 14 00 	sll $2,$20,0x3
  4008c8:	42 00 00 00 00 02 12 02 	addu $2,$2,$18
  4008d0:	37 00 00 00 00 00 00 02 	s.d $f0,0($2)
  4008d8:	28 00 00 00 c0 00 09 1d 	lw $9,192($29)
  4008e0:	42 00 00 00 00 04 17 00 	addu $4,$0,$23
  4008e8:	55 00 00 00 03 05 09 00 	sll $5,$9,0x3
  4008f0:	42 00 00 00 00 05 05 12 	addu $5,$18,$5
  4008f8:	02 00 00 00 a0 57 10 00 	jal 415e80 <lclear_>
  400900:	43 00 00 00 01 00 06 00 	addiu $6,$0,1
  400908:	34 00 00 00 68 00 15 1d 	sw $21,104($29)
  400910:	07 00 00 00 64 00 00 15 	blez $21,400aa8 <d2esp_+0x798>
  400918:	2b 00 00 00 20 80 00 1c 	l.d $f0,-32736($28)
  400920:	42 00 00 00 00 08 15 00 	addu $8,$0,$21
  400928:	43 00 00 00 01 00 02 08 	addiu $2,$8,1
  400930:	4f 00 00 00 03 00 03 08 	andi $3,$8,3
  400938:	5b 00 00 00 00 02 02 06 	slt $2,$6,$2
  400940:	05 00 00 00 1e 00 00 02 	beq $2,$0,4009c0 <d2esp_+0x6b0>
  400948:	05 00 00 00 2a 00 00 03 	beq $3,$0,4009f8 <d2esp_+0x6e8>
  400950:	5c 00 00 00 02 00 02 03 	slti $2,$3,2
  400958:	06 00 00 00 18 00 00 02 	bne $2,$0,4009c0 <d2esp_+0x6b0>
  400960:	5c 00 00 00 03 00 02 03 	slti $2,$3,3
  400968:	06 00 00 00 0a 00 00 02 	bne $2,$0,400998 <d2esp_+0x688>
  400970:	43 00 00 00 01 00 02 13 	addiu $2,$19,1
  400978:	55 00 00 00 03 02 02 00 	sll $2,$2,0x3
  400980:	42 00 00 00 00 02 12 02 	addu $2,$2,$18
  400988:	37 00 00 00 f8 ff 00 02 	s.d $f0,-8($2)
  400990:	43 00 00 00 02 00 06 00 	addiu $6,$0,2
  400998:	42 00 00 00 00 02 13 06 	addu $2,$6,$19
  4009a0:	55 00 00 00 03 02 02 00 	sll $2,$2,0x3
  4009a8:	42 00 00 00 00 02 12 02 	addu $2,$2,$18
  4009b0:	37 00 00 00 f8 ff 00 02 	s.d $f0,-8($2)
  4009b8:	43 00 00 00 01 00 06 06 	addiu $6,$6,1
  4009c0:	42 00 00 00 00 02 13 06 	addu $2,$6,$19
  4009c8:	55 00 00 00 03 02 02 00 	sll $2,$2,0x3
  4009d0:	42 00 00 00 00 02 12 02 	addu $2,$2,$18
  4009d8:	37 00 00 00 f8 ff 00 02 	s.d $f0,-8($2)
  4009e0:	43 00 00 00 01 00 06 06 	addiu $6,$6,1
  4009e8:	5b 00 00 00 00 07 06 08 	slt $7,$8,$6
  4009f0:	06 00 00 00 2c 00 00 07 	bne $7,$0,400aa8 <d2esp_+0x798>
  4009f8:	42 00 00 00 00 04 13 06 	addu $4,$6,$19
  400a00:	43 00 00 00 01 00 02 06 	addiu $2,$6,1
  400a08:	43 00 00 00 02 00 03 06 	addiu $3,$6,2
  400a10:	43 00 00 00 03 00 05 06 	addiu $5,$6,3
  400a18:	43 00 00 00 04 00 06 06 	addiu $6,$6,4
  400a20:	5b 00 00 00 00 07 06 08 	slt $7,$8,$6
  400a28:	55 00 00 00 03 04 04 00 	sll $4,$4,0x3
  400a30:	42 00 00 00 00 04 12 04 	addu $4,$4,$18
  400a38:	42 00 00 00 00 02 13 02 	addu $2,$2,$19
  400a40:	55 00 00 00 03 02 02 00 	sll $2,$2,0x3
  400a48:	42 00 00 00 00 02 12 02 	addu $2,$2,$18
  400a50:	42 00 00 00 00 03 13 03 	addu $3,$3,$19
  400a58:	55 00 00 00 03 03 03 00 	sll $3,$3,0x3
  400a60:	42 00 00 00 00 03 12 03 	addu $3,$3,$18
  400a68:	42 00 00 00 00 05 13 05 	addu $5,$5,$19
  400a70:	55 00 00 00 03 05 05 00 	sll $5,$5,0x3
  400a78:	42 00 00 00 00 05 12 05 	addu $5,$5,$18
  400a80:	37 00 00 00 f8 ff 00 04 	s.d $f0,-8($4)
  400a88:	37 00 00 00 f8 ff 00 02 	s.d $f0,-8($2)
  400a90:	37 00 00 00 f8 ff 00 03 	s.d $f0,-8($3)
  400a98:	37 00 00 00 f8 ff 00 05 	s.d $f0,-8($5)
  400aa0:	05 00 00 00 d4 ff 00 07 	beq $7,$0,4009f8 <d2esp_+0x6e8>
  400aa8:	43 00 00 00 04 80 04 1c 	addiu $4,$28,-32764
  400ab0:	43 00 00 00 00 80 05 1c 	addiu $5,$28,-32768
  400ab8:	43 00 00 00 78 00 06 1d 	addiu $6,$29,120
  400ac0:	02 00 00 00 8c 57 10 00 	jal 415e30 <ilsw_>
  400ac8:	28 00 00 00 78 00 02 1d 	lw $2,120($29)
  400ad0:	34 00 00 00 84 00 00 1d 	sw $0,132($29)
  400ad8:	06 00 00 00 10 00 00 02 	bne $2,$0,400b20 <d2esp_+0x810>
  400ae0:	28 00 00 00 c8 00 09 1d 	lw $9,200($29)
  400ae8:	06 00 00 00 0c 00 00 09 	bne $9,$0,400b20 <d2esp_+0x810>
  400af0:	a2 00 00 00 01 10 02 00 	lui $2,4097
  400af8:	28 00 00 00 60 35 02 02 	lw $2,13664($2)
  400b00:	5c 00 00 00 02 00 02 02 	slti $2,$2,2
  400b08:	06 00 00 00 04 00 00 02 	bne $2,$0,400b20 <d2esp_+0x810>
  400b10:	43 00 00 00 01 00 02 00 	addiu $2,$0,1
  400b18:	34 00 00 00 84 00 02 1d 	sw $2,132($29)
  400b20:	43 00 00 00 7c 00 04 1d 	addiu $4,$29,124
  400b28:	43 00 00 00 02 00 09 00 	addiu $9,$0,2
  400b30:	55 00 00 00 03 10 09 00 	sll $16,$9,0x3
  400b38:	42 00 00 00 00 10 10 12 	addu $16,$18,$16
  400b40:	42 00 00 00 00 05 10 00 	addu $5,$0,$16
  400b48:	02 00 00 00 7c 00 10 00 	jal 4001f0 <aclear_>
  400b50:	28 00 00 00 b8 00 09 1d 	lw $9,184($29)
  400b58:	43 00 00 00 70 00 04 1d 	addiu $4,$29,112
  400b60:	43 00 00 00 84 00 02 1d 	addiu $2,$29,132
  400b68:	34 00 00 00 10 00 02 1d 	sw $2,16($29)
  400b70:	a2 00 00 00 01 10 02 00 	lui $2,4097
  400b78:	43 00 00 00 60 35 02 02 	addiu $2,$2,13664
  400b80:	34 00 00 00 14 00 02 1d 	sw $2,20($29)
  400b88:	43 00 00 00 08 00 02 02 	addiu $2,$2,8
  400b90:	a2 00 00 00 01 10 03 00 	lui $3,4097
  400b98:	43 00 00 00 a0 36 03 03 	addiu $3,$3,13984
  400ba0:	34 00 00 00 18 00 02 1d 	sw $2,24($29)
  400ba8:	55 00 00 00 03 02 09 00 	sll $2,$9,0x3
  400bb0:	42 00 00 00 00 02 02 12 	addu $2,$18,$2
  400bb8:	34 00 00 00 1c 00 02 1d 	sw $2,28($29)
  400bc0:	43 00 00 00 e0 12 02 03 	addiu $2,$3,4832
  400bc8:	43 00 00 00 01 00 09 00 	addiu $9,$0,1
  400bd0:	34 00 00 00 24 00 02 1d 	sw $2,36($29)
  400bd8:	55 00 00 00 03 02 09 00 	sll $2,$9,0x3
  400be0:	28 00 00 00 c0 00 09 1d 	lw $9,192($29)
  400be8:	55 00 00 00 03 05 13 00 	sll $5,$19,0x3
  400bf0:	42 00 00 00 00 02 02 12 	addu $2,$18,$2
  400bf8:	34 00 00 00 28 00 02 1d 	sw $2,40($29)
  400c00:	43 00 00 00 88 00 02 1d 	addiu $2,$29,136
  400c08:	34 00 00 00 30 00 02 1d 	sw $2,48($29)
  400c10:	55 00 00 00 03 02 09 00 	sll $2,$9,0x3
  400c18:	28 00 00 00 a8 00 09 1d 	lw $9,168($29)
  400c20:	42 00 00 00 00 05 05 12 	addu $5,$18,$5
  400c28:	42 00 00 00 00 02 02 12 	addu $2,$18,$2
  400c30:	34 00 00 00 34 00 02 1d 	sw $2,52($29)
  400c38:	43 00 00 00 8c 00 02 1d 	addiu $2,$29,140
  400c40:	34 00 00 00 38 00 02 1d 	sw $2,56($29)
  400c48:	43 00 00 00 90 00 02 1d 	addiu $2,$29,144
  400c50:	34 00 00 00 3c 00 02 1d 	sw $2,60($29)
  400c58:	55 00 00 00 03 02 11 00 	sll $2,$17,0x3
  400c60:	42 00 00 00 00 02 02 12 	addu $2,$18,$2
  400c68:	34 00 00 00 40 00 02 1d 	sw $2,64($29)
  400c70:	55 00 00 00 03 02 09 00 	sll $2,$9,0x3
  400c78:	28 00 00 00 b0 00 09 1d 	lw $9,176($29)
  400c80:	55 00 00 00 03 06 16 00 	sll $6,$22,0x3
  400c88:	42 00 00 00 00 02 02 12 	addu $2,$18,$2
  400c90:	34 00 00 00 44 00 02 1d 	sw $2,68($29)
  400c98:	55 00 00 00 03 02 09 00 	sll $2,$9,0x3
  400ca0:	28 00 00 00 a0 00 09 1d 	lw $9,160($29)
  400ca8:	42 00 00 00 00 06 06 12 	addu $6,$18,$6
  400cb0:	43 00 00 00 80 00 07 1d 	addiu $7,$29,128
  400cb8:	34 00 00 00 20 00 03 1d 	sw $3,32($29)
  400cc0:	34 00 00 00 2c 00 10 1d 	sw $16,44($29)
  400cc8:	42 00 00 00 00 02 02 12 	addu $2,$18,$2
  400cd0:	34 00 00 00 48 00 02 1d 	sw $2,72($29)
  400cd8:	55 00 00 00 03 02 09 00 	sll $2,$9,0x3
  400ce0:	42 00 00 00 00 02 02 12 	addu $2,$18,$2
  400ce8:	34 00 00 00 4c 00 02 1d 	sw $2,76($29)
  400cf0:	43 00 00 00 18 00 02 03 	addiu $2,$3,24
  400cf8:	34 00 00 00 50 00 02 1d 	sw $2,80($29)
  400d00:	43 00 00 00 94 00 02 1d 	addiu $2,$29,148
  400d08:	43 00 00 00 60 06 03 03 	addiu $3,$3,1632
  400d10:	34 00 00 00 54 00 02 1d 	sw $2,84($29)
  400d18:	55 00 00 00 03 02 1e 00 	sll $2,$30,0x3
  400d20:	42 00 00 00 00 02 02 12 	addu $2,$18,$2
  400d28:	34 00 00 00 5c 00 02 1d 	sw $2,92($29)
  400d30:	43 00 00 00 98 00 02 1d 	addiu $2,$29,152
  400d38:	34 00 00 00 58 00 03 1d 	sw $3,88($29)
  400d40:	34 00 00 00 60 00 02 1d 	sw $2,96($29)
  400d48:	02 00 00 00 44 5c 10 00 	jal 417110 <twldrv_>
  400d50:	42 00 00 00 00 02 00 00 	addu $2,$0,$0
  400d58:	28 00 00 00 f4 00 1f 1d 	lw $31,244($29)
  400d60:	28 00 00 00 f0 00 1e 1d 	lw $30,240($29)
  400d68:	28 00 00 00 ec 00 17 1d 	lw $23,236($29)
  400d70:	28 00 00 00 e8 00 16 1d 	lw $22,232($29)
  400d78:	28 00 00 00 e4 00 15 1d 	lw $21,228($29)
  400d80:	28 00 00 00 e0 00 14 1d 	lw $20,224($29)
  400d88:	28 00 00 00 dc 00 13 1d 	lw $19,220($29)
  400d90:	28 00 00 00 d8 00 12 1d 	lw $18,216($29)
  400d98:	28 00 00 00 d4 00 11 1d 	lw $17,212($29)
  400da0:	28 00 00 00 d0 00 10 1d 	lw $16,208($29)
  400da8:	43 00 00 00 f8 00 1d 1d 	addiu $29,$29,248
  400db0:	03 00 00 00 00 00 00 1f 	jr $31
	...

00400dc0 <efill_>:
  400dc0:	43 00 00 00 70 fe 1d 1d 	addiu $29,$29,-400
  400dc8:	34 00 00 00 58 01 1e 1d 	sw $30,344($29)
  400dd0:	28 00 00 00 b8 01 1e 1d 	lw $30,440($29)
  400dd8:	34 00 00 00 50 01 16 1d 	sw $22,336($29)
  400de0:	28 00 00 00 c0 01 16 1d 	lw $22,448($29)
  400de8:	34 00 00 00 44 01 13 1d 	sw $19,324($29)
  400df0:	43 00 00 00 01 00 13 00 	addiu $19,$0,1
  400df8:	34 00 00 00 48 00 13 1d 	sw $19,72($29)
  400e00:	28 00 00 00 d4 01 13 1d 	lw $19,468($29)
  400e08:	28 00 00 00 c8 01 02 1d 	lw $2,456($29)
  400e10:	43 00 00 00 f8 ff 16 16 	addiu $22,$22,-8
  400e18:	34 00 00 00 c0 01 16 1d 	sw $22,448($29)
  400e20:	28 00 00 00 e8 01 16 1d 	lw $22,488($29)
  400e28:	43 00 00 00 f8 ff 13 13 	addiu $19,$19,-8
  400e30:	34 00 00 00 d4 01 13 1d 	sw $19,468($29)
  400e38:	28 00 00 00 ec 01 13 1d 	lw $19,492($29)
  400e40:	34 00 00 00 54 01 17 1d 	sw $23,340($29)
  400e48:	34 00 00 00 4c 01 15 1d 	sw $21,332($29)
  400e50:	34 00 00 00 48 01 14 1d 	sw $20,328($29)
  400e58:	34 00 00 00 40 01 12 1d 	sw $18,320($29)
  400e60:	34 00 00 00 3c 01 11 1d 	sw $17,316($29)
  400e68:	34 00 00 00 38 01 10 1d 	sw $16,312($29)
  400e70:	37 00 00 00 88 01 1e 1d 	s.d $f30,392($29)
  400e78:	37 00 00 00 80 01 1c 1d 	s.d $f28,384($29)
  400e80:	37 00 00 00 78 01 1a 1d 	s.d $f26,376($29)
  400e88:	37 00 00 00 70 01 18 1d 	s.d $f24,368($29)
  400e90:	37 00 00 00 68 01 16 1d 	s.d $f22,360($29)
  400e98:	37 00 00 00 60 01 14 1d 	s.d $f20,352($29)
  400ea0:	34 00 00 00 00 00 04 1d 	sw $4,0($29)
  400ea8:	34 00 00 00 08 00 06 1d 	sw $6,8($29)
  400eb0:	43 00 00 00 f8 ff 16 16 	addiu $22,$22,-8
  400eb8:	43 00 00 00 fc ff 13 13 	addiu $19,$19,-4
  400ec0:	34 00 00 00 e8 01 16 1d 	sw $22,488($29)
  400ec8:	34 00 00 00 ec 01 13 1d 	sw $19,492($29)
  400ed0:	28 00 00 00 00 00 0b 02 	lw $11,0($2)
  400ed8:	28 00 00 00 bc 01 14 1d 	lw $20,444($29)
  400ee0:	28 00 00 00 e0 01 10 1d 	lw $16,480($29)
  400ee8:	28 00 00 00 d0 01 02 1d 	lw $2,464($29)
  400ef0:	28 00 00 00 ac 01 09 1d 	lw $9,428($29)
  400ef8:	28 00 00 00 b4 01 03 1d 	lw $3,436($29)
  400f00:	28 00 00 00 00 00 02 02 	lw $2,0($2)
  400f08:	34 00 00 00 18 00 02 1d 	sw $2,24($29)
  400f10:	28 00 00 00 00 00 16 1d 	lw $22,0($29)
  400f18:	43 00 00 00 f8 ff 1e 1e 	addiu $30,$30,-8
  400f20:	28 00 00 00 00 00 02 16 	lw $2,0($22)
  400f28:	43 00 00 00 f8 ff 14 14 	addiu $20,$20,-8
  400f30:	28 00 00 00 00 00 0a 03 	lw $10,0($3)
  400f38:	55 00 00 00 02 02 02 00 	sll $2,$2,0x2
  400f40:	a2 00 00 00 01 10 08 00 	lui $8,4097
  400f48:	42 00 00 00 00 08 02 08 	addu $8,$8,$2
  400f50:	28 00 00 00 cc 28 08 08 	lw $8,10444($8)
  400f58:	43 00 00 00 01 00 04 0b 	addiu $4,$11,1
  400f60:	28 00 00 00 00 00 03 05 	lw $3,0($5)
  400f68:	28 00 00 00 00 00 02 06 	lw $2,0($6)
  400f70:	55 00 00 00 03 04 04 00 	sll $4,$4,0x3
  400f78:	55 00 00 00 02 03 03 00 	sll $3,$3,0x2
  400f80:	a2 00 00 00 01 10 06 00 	lui $6,4097
  400f88:	42 00 00 00 00 06 03 06 	addu $6,$6,$3
  400f90:	28 00 00 00 cc 28 06 06 	lw $6,10444($6)
  400f98:	2b 00 00 00 30 80 00 1c 	l.d $f0,-32720($28)
  400fa0:	28 00 00 00 c4 01 13 1d 	lw $19,452($29)
  400fa8:	28 00 00 00 00 00 03 07 	lw $3,0($7)
  400fb0:	55 00 00 00 02 02 02 00 	sll $2,$2,0x2
  400fb8:	a2 00 00 00 01 10 05 00 	lui $5,4097
  400fc0:	42 00 00 00 00 05 02 05 	addu $5,$5,$2
  400fc8:	28 00 00 00 cc 28 05 05 	lw $5,10444($5)
  400fd0:	55 00 00 00 02 03 03 00 	sll $3,$3,0x2
  400fd8:	a2 00 00 00 01 10 01 00 	lui $1,4097
  400fe0:	42 00 00 00 00 01 03 01 	addu $1,$1,$3
  400fe8:	28 00 00 00 cc 28 03 01 	lw $3,10444($1)
  400ff0:	45 00 00 00 00 10 04 10 	subu $16,$16,$4
  400ff8:	43 00 00 00 ff ff 08 08 	addiu $8,$8,-1
  401000:	37 00 00 00 00 00 00 13 	s.d $f0,0($19)
  401008:	28 00 00 00 18 00 13 1d 	lw $19,24($29)
  401010:	2b 00 00 00 30 80 14 1c 	l.d $f20,-32720($28)
  401018:	28 00 00 00 dc 01 16 1d 	lw $22,476($29)
  401020:	43 00 00 00 01 00 02 13 	addiu $2,$19,1
  401028:	28 00 00 00 d8 01 13 1d 	lw $19,472($29)
  401030:	43 00 00 00 ff ff 06 06 	addiu $6,$6,-1
  401038:	43 00 00 00 ff ff 05 05 	addiu $5,$5,-1
  401040:	34 00 00 00 a0 00 08 1d 	sw $8,160($29)
  401048:	34 00 00 00 a8 00 06 1d 	sw $6,168($29)
  401050:	34 00 00 00 b0 00 05 1d 	sw $5,176($29)
  401058:	37 00 00 00 80 00 14 1d 	s.d $f20,128($29)
  401060:	2b 00 00 00 80 00 14 1d 	l.d $f20,128($29)
  401068:	55 00 00 00 03 02 02 00 	sll $2,$2,0x3
  401070:	45 00 00 00 00 16 02 16 	subu $22,$22,$2
  401078:	34 00 00 00 dc 01 16 1d 	sw $22,476($29)
  401080:	45 00 00 00 00 13 02 13 	subu $19,$19,$2
  401088:	34 00 00 00 d8 01 13 1d 	sw $19,472($29)
  401090:	28 00 00 00 18 00 13 1d 	lw $19,24($29)
  401098:	53 00 00 00 01 00 02 0a 	xori $2,$10,1
  4010a0:	5e 00 00 00 01 00 02 02 	sltiu $2,$2,1
  4010a8:	34 00 00 00 c0 00 02 1d 	sw $2,192($29)
  4010b0:	53 00 00 00 02 00 02 0a 	xori $2,$10,2
  4010b8:	5e 00 00 00 01 00 02 02 	sltiu $2,$2,1
  4010c0:	37 00 00 00 68 00 14 1d 	s.d $f20,104($29)
  4010c8:	34 00 00 00 c8 00 02 1d 	sw $2,200($29)
  4010d0:	34 00 00 00 10 00 13 1d 	sw $19,16($29)
  4010d8:	28 00 00 00 00 00 09 09 	lw $9,0($9)
  4010e0:	43 00 00 00 ff ff 03 03 	addiu $3,$3,-1
  4010e8:	a2 00 00 00 01 10 02 00 	lui $2,4097
  4010f0:	43 00 00 00 cc 28 02 02 	addiu $2,$2,10444
  4010f8:	34 00 00 00 20 00 09 1d 	sw $9,32($29)
  401100:	34 00 00 00 b8 00 03 1d 	sw $3,184($29)
  401108:	07 00 00 00 72 04 00 09 	blez $9,4022d8 <efill_+0x1518>
  401110:	34 00 00 00 f8 00 0a 1d 	sw $10,248($29)
  401118:	55 00 00 00 02 16 0a 00 	sll $22,$10,0x2
  401120:	34 00 00 00 00 01 16 1d 	sw $22,256($29)
  401128:	28 00 00 00 b8 00 13 1d 	lw $19,184($29)
  401130:	28 00 00 00 48 00 16 1d 	lw $22,72($29)
  401138:	42 00 00 00 00 12 16 13 	addu $18,$19,$22
  401140:	43 00 00 00 ff ff 02 12 	addiu $2,$18,-1
  401148:	46 00 00 00 00 00 02 12 	mult $18,$2
  401150:	28 00 00 00 a8 01 16 1d 	lw $22,424($29)
  401158:	43 00 00 00 01 00 13 00 	addiu $19,$0,1
  401160:	34 00 00 00 40 00 13 1d 	sw $19,64($29)
  401168:	28 00 00 00 00 00 16 16 	lw $22,0($22)
  401170:	4c 00 00 00 00 02 00 00 	mflo $2
  401178:	34 00 00 00 28 00 16 1d 	sw $22,40($29)
  401180:	57 00 00 00 1f 03 02 00 	srl $3,$2,0x1f
  401188:	42 00 00 00 00 02 03 02 	addu $2,$2,$3
  401190:	59 00 00 00 01 02 02 00 	sra $2,$2,0x1
  401198:	34 00 00 00 90 00 02 1d 	sw $2,144($29)
  4011a0:	07 00 00 00 40 04 00 16 	blez $22,4022a8 <efill_+0x14e8>
  4011a8:	28 00 00 00 b0 00 13 1d 	lw $19,176($29)
  4011b0:	28 00 00 00 40 00 16 1d 	lw $22,64($29)
  4011b8:	42 00 00 00 00 11 16 13 	addu $17,$19,$22
  4011c0:	43 00 00 00 ff ff 02 11 	addiu $2,$17,-1
  4011c8:	46 00 00 00 00 00 02 11 	mult $17,$2
  4011d0:	4c 00 00 00 00 02 00 00 	mflo $2
  4011d8:	57 00 00 00 1f 03 02 00 	srl $3,$2,0x1f
  4011e0:	42 00 00 00 00 02 03 02 	addu $2,$2,$3
  4011e8:	59 00 00 00 01 02 02 00 	sra $2,$2,0x1
  4011f0:	42 00 00 00 00 03 12 02 	addu $3,$2,$18
  4011f8:	34 00 00 00 88 00 02 1d 	sw $2,136($29)
  401200:	5b 00 00 00 00 02 12 11 	slt $2,$17,$18
  401208:	05 00 00 00 04 00 00 02 	beq $2,$0,401220 <efill_+0x460>
  401210:	28 00 00 00 90 00 13 1d 	lw $19,144($29)
  401218:	42 00 00 00 00 03 11 13 	addu $3,$19,$17
  401220:	28 00 00 00 ec 01 16 1d 	lw $22,492($29)
  401228:	55 00 00 00 02 02 11 00 	sll $2,$17,0x2
  401230:	42 00 00 00 00 02 16 02 	addu $2,$2,$22
  401238:	28 00 00 00 00 00 02 02 	lw $2,0($2)
  401240:	34 00 00 00 d0 00 00 1d 	sw $0,208($29)
  401248:	05 00 00 00 0c 00 00 02 	beq $2,$0,401280 <efill_+0x4c0>
  401250:	55 00 00 00 02 02 12 00 	sll $2,$18,0x2
  401258:	42 00 00 00 00 02 16 02 	addu $2,$2,$22
  401260:	28 00 00 00 00 00 02 02 	lw $2,0($2)
  401268:	05 00 00 00 04 00 00 02 	beq $2,$0,401280 <efill_+0x4c0>
  401270:	43 00 00 00 01 00 13 00 	addiu $19,$0,1
  401278:	34 00 00 00 d0 00 13 1d 	sw $19,208($29)
  401280:	55 00 00 00 03 03 03 00 	sll $3,$3,0x3
  401288:	42 00 00 00 00 02 1e 03 	addu $2,$3,$30
  401290:	2b 00 00 00 00 00 14 02 	l.d $f20,0($2)
  401298:	28 00 00 00 c0 00 13 1d 	lw $19,192($29)
  4012a0:	37 00 00 00 60 00 14 1d 	s.d $f20,96($29)
  4012a8:	05 00 00 00 06 00 00 13 	beq $19,$0,4012c8 <efill_+0x508>
  4012b0:	42 00 00 00 00 02 14 03 	addu $2,$3,$20
  4012b8:	2b 00 00 00 00 00 14 02 	l.d $f20,0($2)
  4012c0:	37 00 00 00 80 00 14 1d 	s.d $f20,128($29)
  4012c8:	28 00 00 00 a4 01 13 1d 	lw $19,420($29)
  4012d0:	28 00 00 00 00 00 13 13 	lw $19,0($19)
  4012d8:	43 00 00 00 01 00 17 00 	addiu $23,$0,1
  4012e0:	34 00 00 00 30 00 13 1d 	sw $19,48($29)
  4012e8:	07 00 00 00 e2 03 00 13 	blez $19,402278 <efill_+0x14b8>
  4012f0:	28 00 00 00 a8 00 16 1d 	lw $22,168($29)
  4012f8:	42 00 00 00 00 09 17 16 	addu $9,$22,$23
  401300:	43 00 00 00 ff ff 02 09 	addiu $2,$9,-1
  401308:	46 00 00 00 00 00 02 09 	mult $9,$2
  401310:	4c 00 00 00 00 02 00 00 	mflo $2
  401318:	28 00 00 00 40 00 13 1d 	lw $19,64($29)
  401320:	28 00 00 00 48 00 16 1d 	lw $22,72($29)
  401328:	57 00 00 00 1f 03 02 00 	srl $3,$2,0x1f
  401330:	42 00 00 00 00 02 03 02 	addu $2,$2,$3
  401338:	59 00 00 00 01 02 02 00 	sra $2,$2,0x1
  401340:	42 00 00 00 00 04 11 02 	addu $4,$2,$17
  401348:	34 00 00 00 98 00 02 1d 	sw $2,152($29)
  401350:	55 00 00 00 04 02 17 00 	sll $2,$23,0x4
  401358:	55 00 00 00 02 03 13 00 	sll $3,$19,0x2
  401360:	42 00 00 00 00 02 03 02 	addu $2,$2,$3
  401368:	42 00 00 00 00 02 16 02 	addu $2,$2,$22
  401370:	43 00 00 00 ac ff 0a 02 	addiu $10,$2,-84
  401378:	5b 00 00 00 00 02 11 09 	slt $2,$9,$17
  401380:	05 00 00 00 04 00 00 02 	beq $2,$0,401398 <efill_+0x5d8>
  401388:	28 00 00 00 88 00 13 1d 	lw $19,136($29)
  401390:	42 00 00 00 00 04 09 13 	addu $4,$19,$9
  401398:	55 00 00 00 03 04 04 00 	sll $4,$4,0x3
  4013a0:	42 00 00 00 00 02 1e 04 	addu $2,$4,$30
  4013a8:	2b 00 00 00 00 00 14 02 	l.d $f20,0($2)
  4013b0:	28 00 00 00 98 00 13 1d 	lw $19,152($29)
  4013b8:	5b 00 00 00 00 07 12 09 	slt $7,$9,$18
  4013c0:	42 00 00 00 00 02 12 13 	addu $2,$19,$18
  4013c8:	37 00 00 00 50 00 14 1d 	s.d $f20,80($29)
  4013d0:	05 00 00 00 04 00 00 07 	beq $7,$0,4013e8 <efill_+0x628>
  4013d8:	28 00 00 00 90 00 16 1d 	lw $22,144($29)
  4013e0:	42 00 00 00 00 02 09 16 	addu $2,$22,$9
  4013e8:	55 00 00 00 03 03 02 00 	sll $3,$2,0x3
  4013f0:	42 00 00 00 00 02 1e 03 	addu $2,$3,$30
  4013f8:	2b 00 00 00 00 00 14 02 	l.d $f20,0($2)
  401400:	28 00 00 00 c0 00 13 1d 	lw $19,192($29)
  401408:	37 00 00 00 58 00 14 1d 	s.d $f20,88($29)
  401410:	06 00 00 00 04 00 00 13 	bne $19,$0,401428 <efill_+0x668>
  401418:	28 00 00 00 c8 00 16 1d 	lw $22,200($29)
  401420:	05 00 00 00 20 00 00 16 	beq $22,$0,4014a8 <efill_+0x6e8>
  401428:	42 00 00 00 00 02 14 04 	addu $2,$4,$20
  401430:	2b 00 00 00 00 00 14 02 	l.d $f20,0($2)
  401438:	28 00 00 00 c8 00 13 1d 	lw $19,200($29)
  401440:	42 00 00 00 00 02 14 03 	addu $2,$3,$20
  401448:	37 00 00 00 70 00 14 1d 	s.d $f20,112($29)
  401450:	2b 00 00 00 00 00 16 02 	l.d $f22,0($2)
  401458:	37 00 00 00 78 00 16 1d 	s.d $f22,120($29)
  401460:	05 00 00 00 10 00 00 13 	beq $19,$0,4014a8 <efill_+0x6e8>
  401468:	5b 00 00 00 00 02 09 11 	slt $2,$17,$9
  401470:	05 00 00 00 04 00 00 02 	beq $2,$0,401488 <efill_+0x6c8>
  401478:	7d 00 00 00 00 14 00 14 	neg.d $f20,$f20
  401480:	37 00 00 00 70 00 14 1d 	s.d $f20,112($29)
  401488:	05 00 00 00 06 00 00 07 	beq $7,$0,4014a8 <efill_+0x6e8>
  401490:	2b 00 00 00 78 00 14 1d 	l.d $f20,120($29)
  401498:	7d 00 00 00 00 14 00 14 	neg.d $f20,$f20
  4014a0:	37 00 00 00 78 00 14 1d 	s.d $f20,120($29)
  4014a8:	28 00 00 00 a0 01 13 1d 	lw $19,416($29)
  4014b0:	28 00 00 00 00 00 13 13 	lw $19,0($19)
  4014b8:	43 00 00 00 01 00 15 00 	addiu $21,$0,1
  4014c0:	34 00 00 00 38 00 13 1d 	sw $19,56($29)
  4014c8:	07 00 00 00 62 03 00 13 	blez $19,402258 <efill_+0x1498>
  4014d0:	28 00 00 00 ec 01 16 1d 	lw $22,492($29)
  4014d8:	28 00 00 00 c0 01 13 1d 	lw $19,448($29)
  4014e0:	55 00 00 00 02 02 09 00 	sll $2,$9,0x2
  4014e8:	42 00 00 00 00 02 16 02 	addu $2,$2,$22
  4014f0:	34 00 00 00 10 01 02 1d 	sw $2,272($29)
  4014f8:	55 00 00 00 03 02 0a 00 	sll $2,$10,0x3
  401500:	42 00 00 00 00 02 13 02 	addu $2,$2,$19
  401508:	34 00 00 00 18 01 02 1d 	sw $2,280($29)
  401510:	28 00 00 00 a0 00 16 1d 	lw $22,160($29)
  401518:	42 00 00 00 00 06 15 16 	addu $6,$22,$21
  401520:	43 00 00 00 ff ff 02 06 	addiu $2,$6,-1
  401528:	46 00 00 00 00 00 02 06 	mult $6,$2
  401530:	28 00 00 00 18 01 13 1d 	lw $19,280($29)
  401538:	4c 00 00 00 00 03 00 00 	mflo $3
  401540:	43 00 00 00 00 02 13 13 	addiu $19,$19,512
  401548:	34 00 00 00 18 01 13 1d 	sw $19,280($29)
  401550:	57 00 00 00 1f 02 03 00 	srl $2,$3,0x1f
  401558:	42 00 00 00 00 03 02 03 	addu $3,$3,$2
  401560:	59 00 00 00 01 03 03 00 	sra $3,$3,0x1
  401568:	42 00 00 00 00 07 09 03 	addu $7,$3,$9
  401570:	5b 00 00 00 00 02 09 06 	slt $2,$6,$9
  401578:	05 00 00 00 04 00 00 02 	beq $2,$0,401590 <efill_+0x7d0>
  401580:	28 00 00 00 98 00 16 1d 	lw $22,152($29)
  401588:	42 00 00 00 00 07 06 16 	addu $7,$22,$6
  401590:	55 00 00 00 03 02 07 00 	sll $2,$7,0x3
  401598:	42 00 00 00 00 02 1e 02 	addu $2,$2,$30
  4015a0:	2b 00 00 00 00 00 1e 02 	l.d $f30,0($2)
  4015a8:	42 00 00 00 00 04 11 03 	addu $4,$3,$17
  4015b0:	5b 00 00 00 00 02 11 06 	slt $2,$6,$17
  4015b8:	05 00 00 00 04 00 00 02 	beq $2,$0,4015d0 <efill_+0x810>
  4015c0:	28 00 00 00 88 00 13 1d 	lw $19,136($29)
  4015c8:	42 00 00 00 00 04 06 13 	addu $4,$19,$6
  4015d0:	55 00 00 00 03 02 04 00 	sll $2,$4,0x3
  4015d8:	42 00 00 00 00 02 1e 02 	addu $2,$2,$30
  4015e0:	2b 00 00 00 00 00 1c 02 	l.d $f28,0($2)
  4015e8:	42 00 00 00 00 03 12 03 	addu $3,$3,$18
  4015f0:	5b 00 00 00 00 02 12 06 	slt $2,$6,$18
  4015f8:	05 00 00 00 04 00 00 02 	beq $2,$0,401610 <efill_+0x850>
  401600:	28 00 00 00 90 00 16 1d 	lw $22,144($29)
  401608:	42 00 00 00 00 03 06 16 	addu $3,$22,$6
  401610:	55 00 00 00 03 02 03 00 	sll $2,$3,0x3
  401618:	42 00 00 00 00 02 1e 02 	addu $2,$2,$30
  401620:	28 00 00 00 f8 00 13 1d 	lw $19,248($29)
  401628:	2b 00 00 00 00 00 1a 02 	l.d $f26,0($2)
  401630:	5e 00 00 00 05 00 02 13 	sltiu $2,$19,5
  401638:	05 00 00 00 0a 00 00 02 	beq $2,$0,401668 <efill_+0x8a8>
  401640:	28 00 00 00 00 01 16 1d 	lw $22,256($29)
  401648:	a2 00 00 00 00 10 02 00 	lui $2,4096
  401650:	42 00 00 00 00 02 16 02 	addu $2,$2,$22
  401658:	28 00 00 00 00 00 02 02 	lw $2,0($2)
  401660:	03 00 00 00 00 00 00 02 	jr $2
  401668:	2b 00 00 00 58 00 14 1d 	l.d $f20,88($29)
  401670:	75 00 00 00 00 02 14 1c 	mul.d $f2,$f28,$f20
  401678:	2b 00 00 00 50 00 16 1d 	l.d $f22,80($29)
  401680:	75 00 00 00 00 00 1a 16 	mul.d $f0,$f22,$f26
  401688:	2b 00 00 00 60 00 14 1d 	l.d $f20,96($29)
  401690:	75 00 00 00 00 04 14 1e 	mul.d $f4,$f30,$f20
  401698:	71 00 00 00 00 02 00 02 	add.d $f2,$f2,$f0
  4016a0:	01 00 00 00 14 06 10 00 	j 401850 <efill_+0xa90>
  4016a8:	2b 00 00 00 50 00 16 1d 	l.d $f22,80($29)
  4016b0:	75 00 00 00 00 00 1a 16 	mul.d $f0,$f22,$f26
  4016b8:	2b 00 00 00 58 00 14 1d 	l.d $f20,88($29)
  4016c0:	75 00 00 00 00 02 14 1c 	mul.d $f2,$f28,$f20
  4016c8:	55 00 00 00 03 02 04 00 	sll $2,$4,0x3
  4016d0:	42 00 00 00 00 02 14 02 	addu $2,$2,$20
  4016d8:	2b 00 00 00 00 00 04 02 	l.d $f4,0($2)
  4016e0:	2b 00 00 00 78 00 16 1d 	l.d $f22,120($29)
  4016e8:	75 00 00 00 00 08 16 04 	mul.d $f8,$f4,$f22
  4016f0:	55 00 00 00 03 02 07 00 	sll $2,$7,0x3
  4016f8:	42 00 00 00 00 02 14 02 	addu $2,$2,$20
  401700:	2b 00 00 00 00 00 14 02 	l.d $f20,0($2)
  401708:	55 00 00 00 03 02 03 00 	sll $2,$3,0x3
  401710:	71 00 00 00 00 04 14 1e 	add.d $f4,$f30,$f20
  401718:	42 00 00 00 00 02 14 02 	addu $2,$2,$20
  401720:	37 00 00 00 68 00 14 1d 	s.d $f20,104($29)
  401728:	2b 00 00 00 00 00 06 02 	l.d $f6,0($2)
  401730:	2b 00 00 00 70 00 14 1d 	l.d $f20,112($29)
  401738:	75 00 00 00 00 06 06 14 	mul.d $f6,$f20,$f6
  401740:	71 00 00 00 00 02 00 02 	add.d $f2,$f2,$f0
  401748:	2b 00 00 00 60 00 16 1d 	l.d $f22,96($29)
  401750:	2b 00 00 00 80 00 14 1d 	l.d $f20,128($29)
  401758:	71 00 00 00 00 00 14 16 	add.d $f0,$f22,$f20
  401760:	75 00 00 00 00 04 00 04 	mul.d $f4,$f4,$f0
  401768:	71 00 00 00 00 02 08 02 	add.d $f2,$f2,$f8
  401770:	71 00 00 00 00 02 06 02 	add.d $f2,$f2,$f6
  401778:	2b 00 00 00 40 80 00 1c 	l.d $f0,-32704($28)
  401780:	01 00 00 00 16 06 10 00 	j 401858 <efill_+0xa98>
  401788:	55 00 00 00 03 02 03 00 	sll $2,$3,0x3
  401790:	42 00 00 00 00 02 14 02 	addu $2,$2,$20
  401798:	2b 00 00 00 00 00 06 02 	l.d $f6,0($2)
  4017a0:	55 00 00 00 03 02 04 00 	sll $2,$4,0x3
  4017a8:	42 00 00 00 00 02 14 02 	addu $2,$2,$20
  4017b0:	2b 00 00 00 00 00 04 02 	l.d $f4,0($2)
  4017b8:	5b 00 00 00 00 02 12 06 	slt $2,$6,$18
  4017c0:	05 00 00 00 02 00 00 02 	beq $2,$0,4017d0 <efill_+0xa10>
  4017c8:	7d 00 00 00 00 06 00 06 	neg.d $f6,$f6
  4017d0:	5b 00 00 00 00 02 06 11 	slt $2,$17,$6
  4017d8:	05 00 00 00 02 00 00 02 	beq $2,$0,4017e8 <efill_+0xa28>
  4017e0:	7d 00 00 00 00 04 00 04 	neg.d $f4,$f4
  4017e8:	2b 00 00 00 58 00 14 1d 	l.d $f20,88($29)
  4017f0:	75 00 00 00 00 02 14 1c 	mul.d $f2,$f28,$f20
  4017f8:	2b 00 00 00 50 00 16 1d 	l.d $f22,80($29)
  401800:	75 00 00 00 00 00 1a 16 	mul.d $f0,$f22,$f26
  401808:	2b 00 00 00 78 00 14 1d 	l.d $f20,120($29)
  401810:	75 00 00 00 00 04 14 04 	mul.d $f4,$f4,$f20
  401818:	2b 00 00 00 70 00 16 1d 	l.d $f22,112($29)
  401820:	71 00 00 00 00 02 00 02 	add.d $f2,$f2,$f0
  401828:	75 00 00 00 00 06 06 16 	mul.d $f6,$f22,$f6
  401830:	73 00 00 00 00 02 04 02 	sub.d $f2,$f2,$f4
  401838:	2b 00 00 00 60 00 14 1d 	l.d $f20,96($29)
  401840:	75 00 00 00 00 04 14 1e 	mul.d $f4,$f30,$f20
  401848:	73 00 00 00 00 02 06 02 	sub.d $f2,$f2,$f6
  401850:	2b 00 00 00 38 80 00 1c 	l.d $f0,-32712($28)
  401858:	75 00 00 00 00 00 02 00 	mul.d $f0,$f0,$f2
  401860:	73 00 00 00 00 04 00 04 	sub.d $f4,$f4,$f0
  401868:	28 00 00 00 b0 01 13 1d 	lw $19,432($29)
  401870:	2b 00 00 00 00 00 00 13 	l.d $f0,0($19)
  401878:	75 00 00 00 00 18 00 04 	mul.d $f24,$f4,$f0
  401880:	01 00 00 00 14 08 10 00 	j 402050 <efill_+0x1290>
  401888:	2b 00 00 00 50 80 06 1c 	l.d $f6,-32688($28)
  401890:	75 00 00 00 00 00 1e 06 	mul.d $f0,$f6,$f30
  401898:	2b 00 00 00 60 00 14 1d 	l.d $f20,96($29)
  4018a0:	75 00 00 00 00 00 14 00 	mul.d $f0,$f0,$f20
  4018a8:	2b 00 00 00 58 00 16 1d 	l.d $f22,88($29)
  4018b0:	75 00 00 00 00 02 16 1c 	mul.d $f2,$f28,$f22
  4018b8:	2b 00 00 00 50 00 14 1d 	l.d $f20,80($29)
  4018c0:	75 00 00 00 00 04 14 1a 	mul.d $f4,$f26,$f20
  4018c8:	73 00 00 00 00 00 02 00 	sub.d $f0,$f0,$f2
  4018d0:	28 00 00 00 cc 01 13 1d 	lw $19,460($29)
  4018d8:	73 00 00 00 00 18 04 00 	sub.d $f24,$f0,$f4
  4018e0:	28 00 00 00 00 00 08 13 	lw $8,0($19)
  4018e8:	43 00 00 00 01 00 0c 00 	addiu $12,$0,1
  4018f0:	07 00 00 00 2c 01 00 08 	blez $8,401da8 <efill_+0xfe8>
  4018f8:	28 00 00 00 d4 01 16 1d 	lw $22,468($29)
  401900:	42 00 00 00 00 0d 09 0b 	addu $13,$11,$9
  401908:	42 00 00 00 00 0a 06 0b 	addu $10,$11,$6
  401910:	42 00 00 00 00 07 12 0b 	addu $7,$11,$18
  401918:	42 00 00 00 00 04 11 0b 	addu $4,$11,$17
  401920:	43 00 00 00 01 00 02 08 	addiu $2,$8,1
  401928:	4f 00 00 00 01 00 03 08 	andi $3,$8,1
  401930:	5b 00 00 00 00 02 02 0c 	slt $2,$12,$2
  401938:	37 00 00 00 08 01 06 1d 	s.d $f6,264($29)
  401940:	43 00 00 00 08 00 0e 16 	addiu $14,$22,8
  401948:	05 00 00 00 02 00 00 02 	beq $2,$0,401958 <efill_+0xb98>
  401950:	05 00 00 00 5c 00 00 03 	beq $3,$0,401ac8 <efill_+0xd08>
  401958:	55 00 00 00 03 02 04 00 	sll $2,$4,0x3
  401960:	42 00 00 00 00 02 10 02 	addu $2,$2,$16
  401968:	2b 00 00 00 00 00 0a 02 	l.d $f10,0($2)
  401970:	55 00 00 00 03 02 07 00 	sll $2,$7,0x3
  401978:	42 00 00 00 00 02 10 02 	addu $2,$2,$16
  401980:	2b 00 00 00 00 00 0c 02 	l.d $f12,0($2)
  401988:	75 00 00 00 00 00 0a 1e 	mul.d $f0,$f30,$f10
  401990:	2b 00 00 00 60 00 14 1d 	l.d $f20,96($29)
  401998:	55 00 00 00 03 02 0a 00 	sll $2,$10,0x3
  4019a0:	42 00 00 00 00 02 10 02 	addu $2,$2,$16
  4019a8:	2b 00 00 00 00 00 06 02 	l.d $f6,0($2)
  4019b0:	75 00 00 00 00 04 06 14 	mul.d $f4,$f20,$f6
  4019b8:	55 00 00 00 03 02 0d 00 	sll $2,$13,0x3
  4019c0:	42 00 00 00 00 02 10 02 	addu $2,$2,$16
  4019c8:	2b 00 00 00 00 00 02 02 	l.d $f2,0($2)
  4019d0:	75 00 00 00 00 08 02 1c 	mul.d $f8,$f28,$f2
  4019d8:	75 00 00 00 00 00 0c 00 	mul.d $f0,$f0,$f12
  4019e0:	75 00 00 00 00 04 02 04 	mul.d $f4,$f4,$f2
  4019e8:	75 00 00 00 00 08 0c 08 	mul.d $f8,$f8,$f12
  4019f0:	75 00 00 00 00 02 02 1a 	mul.d $f2,$f26,$f2
  4019f8:	71 00 00 00 00 00 04 00 	add.d $f0,$f0,$f4
  401a00:	2b 00 00 00 08 01 16 1d 	l.d $f22,264($29)
  401a08:	75 00 00 00 00 00 00 16 	mul.d $f0,$f22,$f0
  401a10:	2b 00 00 00 58 00 14 1d 	l.d $f20,88($29)
  401a18:	75 00 00 00 00 04 06 14 	mul.d $f4,$f20,$f6
  401a20:	75 00 00 00 00 02 0a 02 	mul.d $f2,$f2,$f10
  401a28:	75 00 00 00 00 04 0a 04 	mul.d $f4,$f4,$f10
  401a30:	2b 00 00 00 50 00 16 1d 	l.d $f22,80($29)
  401a38:	75 00 00 00 00 06 06 16 	mul.d $f6,$f22,$f6
  401a40:	73 00 00 00 00 00 08 00 	sub.d $f0,$f0,$f8
  401a48:	73 00 00 00 00 00 02 00 	sub.d $f0,$f0,$f2
  401a50:	75 00 00 00 00 06 0c 06 	mul.d $f6,$f6,$f12
  401a58:	73 00 00 00 00 00 04 00 	sub.d $f0,$f0,$f4
  401a60:	28 00 00 00 d4 01 13 1d 	lw $19,468($29)
  401a68:	73 00 00 00 00 00 06 00 	sub.d $f0,$f0,$f6
  401a70:	2b 00 00 00 08 00 02 13 	l.d $f2,8($19)
  401a78:	75 00 00 00 00 02 00 02 	mul.d $f2,$f2,$f0
  401a80:	43 00 00 00 08 00 0e 0e 	addiu $14,$14,8
  401a88:	42 00 00 00 00 04 0b 04 	addu $4,$4,$11
  401a90:	43 00 00 00 02 00 0c 00 	addiu $12,$0,2
  401a98:	42 00 00 00 00 07 0b 07 	addu $7,$7,$11
  401aa0:	71 00 00 00 00 18 02 18 	add.d $f24,$f24,$f2
  401aa8:	42 00 00 00 00 0a 0b 0a 	addu $10,$10,$11
  401ab0:	42 00 00 00 00 0d 0b 0d 	addu $13,$13,$11
  401ab8:	5c 00 00 00 02 00 02 08 	slti $2,$8,2
  401ac0:	06 00 00 00 b8 00 00 02 	bne $2,$0,401da8 <efill_+0xfe8>
  401ac8:	42 00 00 00 00 03 0e 00 	addu $3,$0,$14
  401ad0:	55 00 00 00 03 02 04 00 	sll $2,$4,0x3
  401ad8:	42 00 00 00 00 02 10 02 	addu $2,$2,$16
  401ae0:	2b 00 00 00 00 00 02 02 	l.d $f2,0($2)
  401ae8:	55 00 00 00 03 02 07 00 	sll $2,$7,0x3
  401af0:	42 00 00 00 00 02 10 02 	addu $2,$2,$16
  401af8:	2b 00 00 00 00 00 0a 02 	l.d $f10,0($2)
  401b00:	75 00 00 00 00 06 02 1e 	mul.d $f6,$f30,$f2
  401b08:	2b 00 00 00 60 00 14 1d 	l.d $f20,96($29)
  401b10:	55 00 00 00 03 02 0a 00 	sll $2,$10,0x3
  401b18:	42 00 00 00 00 02 10 02 	addu $2,$2,$16
  401b20:	2b 00 00 00 00 00 0e 02 	l.d $f14,0($2)
  401b28:	75 00 00 00 00 00 0e 14 	mul.d $f0,$f20,$f14
  401b30:	55 00 00 00 03 02 0d 00 	sll $2,$13,0x3
  401b38:	42 00 00 00 00 02 10 02 	addu $2,$2,$16
  401b40:	2b 00 00 00 00 00 0c 02 	l.d $f12,0($2)
  401b48:	75 00 00 00 00 16 0c 1c 	mul.d $f22,$f28,$f12
  401b50:	75 00 00 00 00 06 0a 06 	mul.d $f6,$f6,$f10
  401b58:	75 00 00 00 00 00 0c 00 	mul.d $f0,$f0,$f12
  401b60:	75 00 00 00 00 16 0a 16 	mul.d $f22,$f22,$f10
  401b68:	71 00 00 00 00 06 00 06 	add.d $f6,$f6,$f0
  401b70:	2b 00 00 00 08 01 14 1d 	l.d $f20,264($29)
  401b78:	75 00 00 00 00 06 06 14 	mul.d $f6,$f20,$f6
  401b80:	75 00 00 00 00 0c 0c 1a 	mul.d $f12,$f26,$f12
  401b88:	2b 00 00 00 58 00 14 1d 	l.d $f20,88($29)
  401b90:	75 00 00 00 00 14 0e 14 	mul.d $f20,$f20,$f14
  401b98:	75 00 00 00 00 0c 02 0c 	mul.d $f12,$f12,$f2
  401ba0:	37 00 00 00 28 01 14 1d 	s.d $f20,296($29)
  401ba8:	75 00 00 00 00 02 02 14 	mul.d $f2,$f20,$f2
  401bb0:	37 00 00 00 30 01 16 1d 	s.d $f22,304($29)
  401bb8:	2b 00 00 00 50 00 16 1d 	l.d $f22,80($29)
  401bc0:	75 00 00 00 00 0e 0e 16 	mul.d $f14,$f22,$f14
  401bc8:	42 00 00 00 00 04 0b 04 	addu $4,$4,$11
  401bd0:	55 00 00 00 03 02 04 00 	sll $2,$4,0x3
  401bd8:	42 00 00 00 00 02 10 02 	addu $2,$2,$16
  401be0:	75 00 00 00 00 0e 0a 0e 	mul.d $f14,$f14,$f10
  401be8:	37 00 00 00 28 01 02 1d 	s.d $f2,296($29)
  401bf0:	2b 00 00 00 00 00 10 02 	l.d $f16,0($2)
  401bf8:	42 00 00 00 00 07 0b 07 	addu $7,$7,$11
  401c00:	55 00 00 00 03 02 07 00 	sll $2,$7,0x3
  401c08:	42 00 00 00 00 02 10 02 	addu $2,$2,$16
  401c10:	2b 00 00 00 00 00 12 02 	l.d $f18,0($2)
  401c18:	75 00 00 00 00 00 10 1e 	mul.d $f0,$f30,$f16
  401c20:	42 00 00 00 00 0a 0b 0a 	addu $10,$10,$11
  401c28:	2b 00 00 00 60 00 14 1d 	l.d $f20,96($29)
  401c30:	55 00 00 00 03 02 0a 00 	sll $2,$10,0x3
  401c38:	42 00 00 00 00 02 10 02 	addu $2,$2,$16
  401c40:	2b 00 00 00 00 00 08 02 	l.d $f8,0($2)
  401c48:	75 00 00 00 00 02 08 14 	mul.d $f2,$f20,$f8
  401c50:	75 00 00 00 00 00 12 00 	mul.d $f0,$f0,$f18
  401c58:	42 00 00 00 00 0d 0b 0d 	addu $13,$13,$11
  401c60:	55 00 00 00 03 02 0d 00 	sll $2,$13,0x3
  401c68:	42 00 00 00 00 02 10 02 	addu $2,$2,$16
  401c70:	2b 00 00 00 00 00 04 02 	l.d $f4,0($2)
  401c78:	75 00 00 00 00 02 04 02 	mul.d $f2,$f2,$f4
  401c80:	2b 00 00 00 58 00 14 1d 	l.d $f20,88($29)
  401c88:	75 00 00 00 00 0a 08 14 	mul.d $f10,$f20,$f8
  401c90:	75 00 00 00 00 0a 10 0a 	mul.d $f10,$f10,$f16
  401c98:	71 00 00 00 00 00 02 00 	add.d $f0,$f0,$f2
  401ca0:	75 00 00 00 00 02 04 1c 	mul.d $f2,$f28,$f4
  401ca8:	2b 00 00 00 08 01 16 1d 	l.d $f22,264($29)
  401cb0:	75 00 00 00 00 00 00 16 	mul.d $f0,$f22,$f0
  401cb8:	75 00 00 00 00 04 04 1a 	mul.d $f4,$f26,$f4
  401cc0:	75 00 00 00 00 02 12 02 	mul.d $f2,$f2,$f18
  401cc8:	2b 00 00 00 30 01 16 1d 	l.d $f22,304($29)
  401cd0:	73 00 00 00 00 06 16 06 	sub.d $f6,$f6,$f22
  401cd8:	75 00 00 00 00 04 10 04 	mul.d $f4,$f4,$f16
  401ce0:	2b 00 00 00 50 00 16 1d 	l.d $f22,80($29)
  401ce8:	73 00 00 00 00 06 0c 06 	sub.d $f6,$f6,$f12
  401cf0:	75 00 00 00 00 08 08 16 	mul.d $f8,$f22,$f8
  401cf8:	73 00 00 00 00 00 02 00 	sub.d $f0,$f0,$f2
  401d00:	2b 00 00 00 28 01 14 1d 	l.d $f20,296($29)
  401d08:	73 00 00 00 00 06 14 06 	sub.d $f6,$f6,$f20
  401d10:	75 00 00 00 00 08 12 08 	mul.d $f8,$f8,$f18
  401d18:	73 00 00 00 00 06 0e 06 	sub.d $f6,$f6,$f14
  401d20:	2b 00 00 00 00 00 02 03 	l.d $f2,0($3)
  401d28:	73 00 00 00 00 00 04 00 	sub.d $f0,$f0,$f4
  401d30:	75 00 00 00 00 02 06 02 	mul.d $f2,$f2,$f6
  401d38:	73 00 00 00 00 00 0a 00 	sub.d $f0,$f0,$f10
  401d40:	73 00 00 00 00 00 08 00 	sub.d $f0,$f0,$f8
  401d48:	2b 00 00 00 08 00 04 03 	l.d $f4,8($3)
  401d50:	75 00 00 00 00 04 00 04 	mul.d $f4,$f4,$f0
  401d58:	43 00 00 00 02 00 0c 0c 	addiu $12,$12,2
  401d60:	71 00 00 00 00 18 02 18 	add.d $f24,$f24,$f2
  401d68:	42 00 00 00 00 04 0b 04 	addu $4,$4,$11
  401d70:	42 00 00 00 00 07 0b 07 	addu $7,$7,$11
  401d78:	42 00 00 00 00 0a 0b 0a 	addu $10,$10,$11
  401d80:	71 00 00 00 00 18 04 18 	add.d $f24,$f24,$f4
  401d88:	42 00 00 00 00 0d 0b 0d 	addu $13,$13,$11
  401d90:	5b 00 00 00 00 02 0c 08 	slt $2,$8,$12
  401d98:	43 00 00 00 10 00 03 03 	addiu $3,$3,16
  401da0:	05 00 00 00 4a ff 00 02 	beq $2,$0,401ad0 <efill_+0xd10>
  401da8:	28 00 00 00 cc 01 13 1d 	lw $19,460($29)
  401db0:	28 00 00 00 00 00 08 13 	lw $8,0($19)
  401db8:	43 00 00 00 01 00 0c 00 	addiu $12,$0,1
  401dc0:	07 00 00 00 9c 00 00 08 	blez $8,402038 <efill_+0x1278>
  401dc8:	2b 00 00 00 48 80 1a 1c 	l.d $f26,-32696($28)
  401dd0:	42 00 00 00 00 05 12 0b 	addu $5,$11,$18
  401dd8:	42 00 00 00 00 19 11 0b 	addu $25,$11,$17
  401de0:	42 00 00 00 00 18 09 0b 	addu $24,$11,$9
  401de8:	42 00 00 00 00 0f 06 0b 	addu $15,$11,$6
  401df0:	34 00 00 00 20 01 08 1d 	sw $8,288($29)
  401df8:	43 00 00 00 01 00 0e 00 	addiu $14,$0,1
  401e00:	42 00 00 00 00 16 00 00 	addu $22,$0,$0
  401e08:	06 00 00 00 7c 00 00 16 	bne $22,$0,402000 <efill_+0x1240>
  401e10:	55 00 00 00 03 02 19 00 	sll $2,$25,0x3
  401e18:	42 00 00 00 00 02 10 02 	addu $2,$2,$16
  401e20:	2b 00 00 00 00 00 12 02 	l.d $f18,0($2)
  401e28:	28 00 00 00 18 00 13 1d 	lw $19,24($29)
  401e30:	55 00 00 00 03 02 0f 00 	sll $2,$15,0x3
  401e38:	42 00 00 00 00 02 10 02 	addu $2,$2,$16
  401e40:	2b 00 00 00 00 00 0c 02 	l.d $f12,0($2)
  401e48:	42 00 00 00 00 0a 09 0b 	addu $10,$11,$9
  401e50:	28 00 00 00 10 00 16 1d 	lw $22,16($29)
  401e58:	55 00 00 00 03 02 05 00 	sll $2,$5,0x3
  401e60:	42 00 00 00 00 02 10 02 	addu $2,$2,$16
  401e68:	2b 00 00 00 00 00 10 02 	l.d $f16,0($2)
  401e70:	75 00 00 00 00 02 0c 1a 	mul.d $f2,$f26,$f12
  401e78:	42 00 00 00 00 04 12 0b 	addu $4,$11,$18
  401e80:	42 00 00 00 00 03 11 0b 	addu $3,$11,$17
  401e88:	55 00 00 00 03 02 18 00 	sll $2,$24,0x3
  401e90:	42 00 00 00 00 02 10 02 	addu $2,$2,$16
  401e98:	2b 00 00 00 00 00 00 02 	l.d $f0,0($2)
  401ea0:	42 00 00 00 00 0d 0c 13 	addu $13,$19,$12
  401ea8:	42 00 00 00 00 07 0c 16 	addu $7,$22,$12
  401eb0:	75 00 00 00 00 0e 00 02 	mul.d $f14,$f2,$f0
  401eb8:	55 00 00 00 03 02 03 00 	sll $2,$3,0x3
  401ec0:	42 00 00 00 00 02 10 02 	addu $2,$2,$16
  401ec8:	2b 00 00 00 00 00 0a 02 	l.d $f10,0($2)
  401ed0:	75 00 00 00 00 04 0a 0e 	mul.d $f4,$f14,$f10
  401ed8:	55 00 00 00 03 02 0a 00 	sll $2,$10,0x3
  401ee0:	42 00 00 00 00 02 10 02 	addu $2,$2,$16
  401ee8:	2b 00 00 00 00 00 02 02 	l.d $f2,0($2)
  401ef0:	75 00 00 00 00 02 02 0c 	mul.d $f2,$f12,$f2
  401ef8:	55 00 00 00 03 02 04 00 	sll $2,$4,0x3
  401f00:	42 00 00 00 00 02 10 02 	addu $2,$2,$16
  401f08:	2b 00 00 00 00 00 08 02 	l.d $f8,0($2)
  401f10:	75 00 00 00 00 04 08 04 	mul.d $f4,$f4,$f8
  401f18:	75 00 00 00 00 06 12 02 	mul.d $f6,$f2,$f18
  401f20:	28 00 00 00 d8 01 13 1d 	lw $19,472($29)
  401f28:	55 00 00 00 03 02 07 00 	sll $2,$7,0x3
  401f30:	42 00 00 00 00 02 13 02 	addu $2,$2,$19
  401f38:	2b 00 00 00 00 00 00 02 	l.d $f0,0($2)
  401f40:	75 00 00 00 00 04 00 04 	mul.d $f4,$f4,$f0
  401f48:	75 00 00 00 00 06 08 06 	mul.d $f6,$f6,$f8
  401f50:	75 00 00 00 00 02 0a 02 	mul.d $f2,$f2,$f10
  401f58:	28 00 00 00 dc 01 16 1d 	lw $22,476($29)
  401f60:	55 00 00 00 03 02 0d 00 	sll $2,$13,0x3
  401f68:	42 00 00 00 00 02 16 02 	addu $2,$2,$22
  401f70:	2b 00 00 00 00 00 00 02 	l.d $f0,0($2)
  401f78:	75 00 00 00 00 06 00 06 	mul.d $f6,$f6,$f0
  401f80:	75 00 00 00 00 02 10 02 	mul.d $f2,$f2,$f16
  401f88:	42 00 00 00 00 03 0b 03 	addu $3,$3,$11
  401f90:	71 00 00 00 00 04 04 18 	add.d $f4,$f24,$f4
  401f98:	75 00 00 00 00 02 00 02 	mul.d $f2,$f2,$f0
  401fa0:	43 00 00 00 01 00 0e 0e 	addiu $14,$14,1
  401fa8:	28 00 00 00 18 00 13 1d 	lw $19,24($29)
  401fb0:	42 00 00 00 00 0a 0b 0a 	addu $10,$10,$11
  401fb8:	71 00 00 00 00 04 06 04 	add.d $f4,$f4,$f6
  401fc0:	42 00 00 00 00 0d 13 0d 	addu $13,$13,$19
  401fc8:	28 00 00 00 10 00 16 1d 	lw $22,16($29)
  401fd0:	28 00 00 00 20 01 13 1d 	lw $19,288($29)
  401fd8:	71 00 00 00 00 18 02 04 	add.d $f24,$f4,$f2
  401fe0:	42 00 00 00 00 04 0b 04 	addu $4,$4,$11
  401fe8:	42 00 00 00 00 07 16 07 	addu $7,$7,$22
  401ff0:	5b 00 00 00 00 02 0e 13 	slt $2,$19,$14
  401ff8:	05 00 00 00 ae ff 00 02 	beq $2,$0,401eb8 <efill_+0x10f8>
  402000:	42 00 00 00 00 05 0b 05 	addu $5,$5,$11
  402008:	42 00 00 00 00 19 0b 19 	addu $25,$25,$11
  402010:	42 00 00 00 00 18 0b 18 	addu $24,$24,$11
  402018:	42 00 00 00 00 0f 0b 0f 	addu $15,$15,$11
  402020:	43 00 00 00 01 00 0c 0c 	addiu $12,$12,1
  402028:	5b 00 00 00 00 02 0c 08 	slt $2,$8,$12
  402030:	05 00 00 00 70 ff 00 02 	beq $2,$0,401df8 <efill_+0x1038>
  402038:	28 00 00 00 b0 01 16 1d 	lw $22,432($29)
  402040:	2b 00 00 00 00 00 00 16 	l.d $f0,0($22)
  402048:	75 00 00 00 00 18 00 18 	mul.d $f24,$f24,$f0
  402050:	28 00 00 00 d0 00 13 1d 	lw $19,208($29)
  402058:	05 00 00 00 24 00 00 13 	beq $19,$0,4020f0 <efill_+0x1330>
  402060:	28 00 00 00 08 00 16 1d 	lw $22,8($29)
  402068:	28 00 00 00 00 00 02 16 	lw $2,0($22)
  402070:	a2 00 00 00 01 10 13 00 	lui $19,4097
  402078:	43 00 00 00 8c 09 13 13 	addiu $19,$19,2444
  402080:	2b 00 00 00 68 00 14 1d 	l.d $f20,104($29)
  402088:	55 00 00 00 02 02 02 00 	sll $2,$2,0x2
  402090:	42 00 00 00 00 02 13 02 	addu $2,$2,$19
  402098:	28 00 00 00 00 00 02 02 	lw $2,0($2)
  4020a0:	28 00 00 00 e8 01 16 1d 	lw $22,488($29)
  4020a8:	71 00 00 00 00 02 14 1e 	add.d $f2,$f30,$f20
  4020b0:	55 00 00 00 03 02 02 00 	sll $2,$2,0x3
  4020b8:	42 00 00 00 00 02 16 02 	addu $2,$2,$22
  4020c0:	2b 00 00 00 00 00 00 02 	l.d $f0,0($2)
  4020c8:	75 00 00 00 00 00 02 00 	mul.d $f0,$f0,$f2
  4020d0:	28 00 00 00 b0 01 13 1d 	lw $19,432($29)
  4020d8:	2b 00 00 00 00 00 02 13 	l.d $f2,0($19)
  4020e0:	75 00 00 00 00 00 02 00 	mul.d $f0,$f0,$f2
  4020e8:	73 00 00 00 00 18 00 18 	sub.d $f24,$f24,$f0
  4020f0:	28 00 00 00 ec 01 16 1d 	lw $22,492($29)
  4020f8:	55 00 00 00 02 02 06 00 	sll $2,$6,0x2
  402100:	42 00 00 00 00 02 16 02 	addu $2,$2,$22
  402108:	28 00 00 00 00 00 02 02 	lw $2,0($2)
  402110:	05 00 00 00 2c 00 00 02 	beq $2,$0,4021c8 <efill_+0x1408>
  402118:	28 00 00 00 10 01 13 1d 	lw $19,272($29)
  402120:	28 00 00 00 00 00 02 13 	lw $2,0($19)
  402128:	05 00 00 00 26 00 00 02 	beq $2,$0,4021c8 <efill_+0x1408>
  402130:	28 00 00 00 00 00 16 1d 	lw $22,0($29)
  402138:	28 00 00 00 00 00 02 16 	lw $2,0($22)
  402140:	a2 00 00 00 01 10 13 00 	lui $19,4097
  402148:	43 00 00 00 8c 09 13 13 	addiu $19,$19,2444
  402150:	2b 00 00 00 60 00 14 1d 	l.d $f20,96($29)
  402158:	2b 00 00 00 80 00 16 1d 	l.d $f22,128($29)
  402160:	55 00 00 00 02 02 02 00 	sll $2,$2,0x2
  402168:	42 00 00 00 00 02 13 02 	addu $2,$2,$19
  402170:	28 00 00 00 00 00 02 02 	lw $2,0($2)
  402178:	28 00 00 00 e8 01 16 1d 	lw $22,488($29)
  402180:	71 00 00 00 00 02 16 14 	add.d $f2,$f20,$f22
  402188:	55 00 00 00 03 02 02 00 	sll $2,$2,0x3
  402190:	42 00 00 00 00 02 16 02 	addu $2,$2,$22
  402198:	2b 00 00 00 00 00 00 02 	l.d $f0,0($2)
  4021a0:	75 00 00 00 00 00 02 00 	mul.d $f0,$f0,$f2
  4021a8:	28 00 00 00 b0 01 13 1d 	lw $19,432($29)
  4021b0:	2b 00 00 00 00 00 02 13 	l.d $f2,0($19)
  4021b8:	75 00 00 00 00 00 02 00 	mul.d $f0,$f0,$f2
  4021c0:	73 00 00 00 00 18 00 18 	sub.d $f24,$f24,$f0
  4021c8:	a5 00 00 00 00 00 00 00 	mtc1 $0,$f0
  4021d0:	a5 00 00 00 00 00 00 01 	mtc1 $0,$f1
  4021d8:	28 00 00 00 18 01 16 1d 	lw $22,280($29)
  4021e0:	7b 00 00 00 00 02 00 18 	mov.d $f2,$f24
  4021e8:	95 00 00 00 00 00 18 00 	c.le.d $f0,$f24
  4021f0:	37 00 00 00 00 00 18 16 	s.d $f24,0($22)
  4021f8:	0c 00 00 00 02 00 00 00 	bc1t 402208 <efill_+0x1448>
  402200:	7d 00 00 00 00 02 00 18 	neg.d $f2,$f24
  402208:	28 00 00 00 c4 01 13 1d 	lw $19,452($29)
  402210:	2b 00 00 00 00 00 00 13 	l.d $f0,0($19)
  402218:	7b 00 00 00 00 18 00 02 	mov.d $f24,$f2
  402220:	93 00 00 00 00 00 18 00 	c.lt.d $f0,$f24
  402228:	0b 00 00 00 02 00 00 00 	bc1f 402238 <efill_+0x1478>
  402230:	37 00 00 00 00 00 18 13 	s.d $f24,0($19)
  402238:	28 00 00 00 38 00 16 1d 	lw $22,56($29)
  402240:	43 00 00 00 01 00 15 15 	addiu $21,$21,1
  402248:	5b 00 00 00 00 02 15 16 	slt $2,$22,$21
  402250:	05 00 00 00 ae fc 00 02 	beq $2,$0,401510 <efill_+0x750>
  402258:	28 00 00 00 30 00 13 1d 	lw $19,48($29)
  402260:	43 00 00 00 01 00 17 17 	addiu $23,$23,1
  402268:	5b 00 00 00 00 02 17 13 	slt $2,$19,$23
  402270:	05 00 00 00 1e fc 00 02 	beq $2,$0,4012f0 <efill_+0x530>
  402278:	28 00 00 00 40 00 16 1d 	lw $22,64($29)
  402280:	28 00 00 00 28 00 13 1d 	lw $19,40($29)
  402288:	43 00 00 00 01 00 16 16 	addiu $22,$22,1
  402290:	5b 00 00 00 00 02 16 13 	slt $2,$19,$22
  402298:	34 00 00 00 40 00 16 1d 	sw $22,64($29)
  4022a0:	05 00 00 00 c0 fb 00 02 	beq $2,$0,4011a8 <efill_+0x3e8>
  4022a8:	28 00 00 00 48 00 16 1d 	lw $22,72($29)
  4022b0:	28 00 00 00 20 00 13 1d 	lw $19,32($29)
  4022b8:	43 00 00 00 01 00 16 16 	addiu $22,$22,1
  4022c0:	5b 00 00 00 00 02 16 13 	slt $2,$19,$22
  4022c8:	34 00 00 00 48 00 16 1d 	sw $22,72($29)
  4022d0:	05 00 00 00 94 fb 00 02 	beq $2,$0,401128 <efill_+0x368>
  4022d8:	42 00 00 00 00 02 00 00 	addu $2,$0,$0
  4022e0:	28 00 00 00 58 01 1e 1d 	lw $30,344($29)
  4022e8:	28 00 00 00 54 01 17 1d 	lw $23,340($29)
  4022f0:	28 00 00 00 50 01 16 1d 	lw $22,336($29)
  4022f8:	28 00 00 00 4c 01 15 1d 	lw $21,332($29)
  402300:	28 00 00 00 48 01 14 1d 	lw $20,328($29)
  402308:	28 00 00 00 44 01 13 1d 	lw $19,324($29)
  402310:	28 00 00 00 40 01 12 1d 	lw $18,320($29)
  402318:	28 00 00 00 3c 01 11 1d 	lw $17,316($29)
  402320:	28 00 00 00 38 01 10 1d 	lw $16,312($29)
  402328:	2b 00 00 00 88 01 1e 1d 	l.d $f30,392($29)
  402330:	2b 00 00 00 80 01 1c 1d 	l.d $f28,384($29)
  402338:	2b 00 00 00 78 01 1a 1d 	l.d $f26,376($29)
  402340:	2b 00 00 00 70 01 18 1d 	l.d $f24,368($29)
  402348:	2b 00 00 00 68 01 16 1d 	l.d $f22,360($29)
  402350:	2b 00 00 00 60 01 14 1d 	l.d $f20,352($29)
  402358:	43 00 00 00 90 01 1d 1d 	addiu $29,$29,400
  402360:	03 00 00 00 00 00 00 1f 	jr $31
	...

00402370 <fmtgen_>:
  402370:	43 00 00 00 a0 ff 1d 1d 	addiu $29,$29,-96
  402378:	34 00 00 00 2c 00 11 1d 	sw $17,44($29)
  402380:	42 00 00 00 00 11 05 00 	addu $17,$0,$5
  402388:	34 00 00 00 38 00 14 1d 	sw $20,56($29)
  402390:	42 00 00 00 00 14 07 00 	addu $20,$0,$7
  402398:	34 00 00 00 3c 00 1f 1d 	sw $31,60($29)
  4023a0:	34 00 00 00 34 00 13 1d 	sw $19,52($29)
  4023a8:	34 00 00 00 30 00 12 1d 	sw $18,48($29)
  4023b0:	34 00 00 00 28 00 10 1d 	sw $16,40($29)
  4023b8:	37 00 00 00 58 00 1a 1d 	s.d $f26,88($29)
  4023c0:	37 00 00 00 50 00 18 1d 	s.d $f24,80($29)
  4023c8:	37 00 00 00 48 00 16 1d 	s.d $f22,72($29)
  4023d0:	37 00 00 00 40 00 14 1d 	s.d $f20,64($29)
  4023d8:	34 00 00 00 00 00 00 14 	sw $0,0($20)
  4023e0:	2b 00 00 00 00 00 02 11 	l.d $f2,0($17)
  4023e8:	a5 00 00 00 00 00 00 00 	mtc1 $0,$f0
  4023f0:	a5 00 00 00 00 00 00 01 	mtc1 $0,$f1
  4023f8:	42 00 00 00 00 12 06 00 	addu $18,$0,$6
  402400:	a2 00 00 00 01 10 01 00 	lui $1,4097
  402408:	2b 00 00 00 30 70 04 01 	l.d $f4,28720($1)
  402410:	95 00 00 00 00 00 02 00 	c.le.d $f0,$f2
  402418:	43 00 00 00 f8 ff 13 04 	addiu $19,$4,-8
  402420:	0b 00 00 00 04 00 00 00 	bc1f 402438 <fmtgen_+0xc8>
  402428:	93 00 00 00 00 00 02 04 	c.lt.d $f4,$f2
  402430:	01 00 00 00 12 09 10 00 	j 402448 <fmtgen_+0xd8>
  402438:	7d 00 00 00 00 00 00 02 	neg.d $f0,$f2
  402440:	93 00 00 00 00 00 00 04 	c.lt.d $f4,$f0
  402448:	0c 00 00 00 62 00 00 00 	bc1t 4025d8 <fmtgen_+0x268>
  402450:	28 00 00 00 00 00 08 12 	lw $8,0($18)
  402458:	43 00 00 00 01 00 07 00 	addiu $7,$0,1
  402460:	07 00 00 00 66 02 00 08 	blez $8,402e00 <fmtgen_+0xa90>
  402468:	43 00 00 00 08 00 06 13 	addiu $6,$19,8
  402470:	a2 00 00 00 01 10 04 00 	lui $4,4097
  402478:	43 00 00 00 98 6f 04 04 	addiu $4,$4,28568
  402480:	43 00 00 00 08 00 05 04 	addiu $5,$4,8
  402488:	43 00 00 00 01 00 02 08 	addiu $2,$8,1
  402490:	4f 00 00 00 03 00 03 08 	andi $3,$8,3
  402498:	5b 00 00 00 00 02 02 07 	slt $2,$7,$2
  4024a0:	05 00 00 00 1e 00 00 02 	beq $2,$0,402520 <fmtgen_+0x1b0>
  4024a8:	05 00 00 00 2a 00 00 03 	beq $3,$0,402558 <fmtgen_+0x1e8>
  4024b0:	5c 00 00 00 02 00 02 03 	slti $2,$3,2
  4024b8:	06 00 00 00 18 00 00 02 	bne $2,$0,402520 <fmtgen_+0x1b0>
  4024c0:	5c 00 00 00 03 00 02 03 	slti $2,$3,3
  4024c8:	06 00 00 00 0a 00 00 02 	bne $2,$0,4024f8 <fmtgen_+0x188>
  4024d0:	43 00 00 00 08 00 06 06 	addiu $6,$6,8
  4024d8:	2b 00 00 00 08 00 00 04 	l.d $f0,8($4)
  4024e0:	43 00 00 00 08 00 05 05 	addiu $5,$5,8
  4024e8:	43 00 00 00 02 00 07 00 	addiu $7,$0,2
  4024f0:	37 00 00 00 08 00 00 13 	s.d $f0,8($19)
  4024f8:	2b 00 00 00 00 00 00 05 	l.d $f0,0($5)
  402500:	43 00 00 00 01 00 07 07 	addiu $7,$7,1
  402508:	37 00 00 00 00 00 00 06 	s.d $f0,0($6)
  402510:	43 00 00 00 08 00 06 06 	addiu $6,$6,8
  402518:	43 00 00 00 08 00 05 05 	addiu $5,$5,8
  402520:	2b 00 00 00 00 00 00 05 	l.d $f0,0($5)
  402528:	43 00 00 00 01 00 07 07 	addiu $7,$7,1
  402530:	5b 00 00 00 00 04 07 08 	slt $4,$8,$7
  402538:	37 00 00 00 00 00 00 06 	s.d $f0,0($6)
  402540:	43 00 00 00 08 00 06 06 	addiu $6,$6,8
  402548:	43 00 00 00 08 00 05 05 	addiu $5,$5,8
  402550:	06 00 00 00 2a 02 00 04 	bne $4,$0,402e00 <fmtgen_+0xa90>
  402558:	42 00 00 00 00 03 06 00 	addu $3,$0,$6
  402560:	42 00 00 00 00 02 05 00 	addu $2,$0,$5
  402568:	2b 00 00 00 00 00 00 02 	l.d $f0,0($2)
  402570:	37 00 00 00 00 00 00 03 	s.d $f0,0($3)
  402578:	2b 00 00 00 08 00 00 02 	l.d $f0,8($2)
  402580:	37 00 00 00 08 00 00 03 	s.d $f0,8($3)
  402588:	2b 00 00 00 10 00 00 02 	l.d $f0,16($2)
  402590:	37 00 00 00 10 00 00 03 	s.d $f0,16($3)
  402598:	2b 00 00 00 18 00 00 02 	l.d $f0,24($2)
  4025a0:	43 00 00 00 04 00 07 07 	addiu $7,$7,4
  4025a8:	5b 00 00 00 00 04 07 08 	slt $4,$8,$7
  4025b0:	37 00 00 00 18 00 00 03 	s.d $f0,24($3)
  4025b8:	43 00 00 00 20 00 03 03 	addiu $3,$3,32
  4025c0:	43 00 00 00 20 00 02 02 	addiu $2,$2,32
  4025c8:	05 00 00 00 e6 ff 00 04 	beq $4,$0,402568 <fmtgen_+0x1f8>
  4025d0:	01 00 00 00 80 0b 10 00 	j 402e00 <fmtgen_+0xa90>
  4025d8:	2b 00 00 00 00 00 02 11 	l.d $f2,0($17)
  4025e0:	a5 00 00 00 00 00 00 00 	mtc1 $0,$f0
  4025e8:	a5 00 00 00 00 00 00 01 	mtc1 $0,$f1
  4025f0:	a2 00 00 00 01 10 01 00 	lui $1,4097
  4025f8:	2b 00 00 00 70 70 1a 01 	l.d $f26,28784($1)
  402600:	a2 00 00 00 01 10 01 00 	lui $1,4097
  402608:	2b 00 00 00 40 70 04 01 	l.d $f4,28736($1)
  402610:	95 00 00 00 00 00 02 00 	c.le.d $f0,$f2
  402618:	0b 00 00 00 04 00 00 00 	bc1f 402630 <fmtgen_+0x2c0>
  402620:	95 00 00 00 00 00 02 04 	c.le.d $f4,$f2
  402628:	01 00 00 00 90 09 10 00 	j 402640 <fmtgen_+0x2d0>
  402630:	7d 00 00 00 00 00 00 02 	neg.d $f0,$f2
  402638:	95 00 00 00 00 00 00 04 	c.le.d $f4,$f0
  402640:	0c 00 00 00 80 01 00 00 	bc1t 402c48 <fmtgen_+0x8d8>
  402648:	2b 00 00 00 00 00 0c 11 	l.d $f12,0($17)
  402650:	7d 00 00 00 00 0c 00 0c 	neg.d $f12,$f12
  402658:	02 00 00 00 e4 85 10 00 	jal 421790 <exp>
  402660:	2b 00 00 00 00 00 04 11 	l.d $f4,0($17)
  402668:	a5 00 00 00 00 00 00 02 	mtc1 $0,$f2
  402670:	a5 00 00 00 00 00 00 03 	mtc1 $0,$f3
  402678:	a2 00 00 00 01 10 01 00 	lui $1,4097
  402680:	2b 00 00 00 38 70 06 01 	l.d $f6,28728($1)
  402688:	95 00 00 00 00 00 04 02 	c.le.d $f2,$f4
  402690:	7b 00 00 00 00 1a 00 00 	mov.d $f26,$f0
  402698:	0b 00 00 00 04 00 00 00 	bc1f 4026b0 <fmtgen_+0x340>
  4026a0:	95 00 00 00 00 00 04 06 	c.le.d $f6,$f4
  4026a8:	01 00 00 00 b0 09 10 00 	j 4026c0 <fmtgen_+0x350>
  4026b0:	7d 00 00 00 00 00 00 04 	neg.d $f0,$f4
  4026b8:	95 00 00 00 00 00 00 06 	c.le.d $f6,$f0
  4026c0:	0c 00 00 00 8a 00 00 00 	bc1t 4028f0 <fmtgen_+0x580>
  4026c8:	28 00 00 00 00 00 02 12 	lw $2,0($18)
  4026d0:	a2 00 00 00 01 10 03 00 	lui $3,4097
  4026d8:	43 00 00 00 60 70 03 03 	addiu $3,$3,28768
  4026e0:	2b 00 00 00 00 00 02 03 	l.d $f2,0($3)
  4026e8:	43 00 00 00 ff ff 02 02 	addiu $2,$2,-1
  4026f0:	a5 00 00 00 00 00 02 00 	mtc1 $2,$f0
  4026f8:	81 00 00 00 00 00 00 00 	cvt.s.w $f0,$f0
  402700:	82 00 00 00 00 00 00 00 	cvt.d.s $f0,$f0
  402708:	71 00 00 00 00 16 02 00 	add.d $f22,$f0,$f2
  402710:	a2 00 00 00 01 10 01 00 	lui $1,4097
  402718:	2b 00 00 00 58 70 00 01 	l.d $f0,28760($1)
  402720:	77 00 00 00 00 14 16 00 	div.d $f20,$f0,$f22
  402728:	2b 00 00 00 f8 ff 08 03 	l.d $f8,-8($3)
  402730:	a5 00 00 00 00 00 00 06 	mtc1 $0,$f6
  402738:	a5 00 00 00 00 00 00 07 	mtc1 $0,$f7
  402740:	43 00 00 00 02 00 02 00 	addiu $2,$0,2
  402748:	34 00 00 00 10 00 02 1d 	sw $2,16($29)
  402750:	a2 00 00 00 01 10 01 00 	lui $1,4097
  402758:	2b 00 00 00 28 70 02 01 	l.d $f2,28712($1)
  402760:	7b 00 00 00 00 04 00 14 	mov.d $f4,$f20
  402768:	2b 00 00 00 00 00 00 11 	l.d $f0,0($17)
  402770:	75 00 00 00 00 00 00 04 	mul.d $f0,$f4,$f0
  402778:	71 00 00 00 00 16 08 16 	add.d $f22,$f22,$f8
  402780:	77 00 00 00 00 04 16 00 	div.d $f4,$f0,$f22
  402788:	71 00 00 00 00 14 04 14 	add.d $f20,$f20,$f4
  402790:	77 00 00 00 00 00 14 04 	div.d $f0,$f4,$f20
  402798:	95 00 00 00 00 00 00 06 	c.le.d $f6,$f0
  4027a0:	0b 00 00 00 08 00 00 00 	bc1f 4027c8 <fmtgen_+0x458>
  4027a8:	73 00 00 00 00 00 02 00 	sub.d $f0,$f0,$f2
  4027b0:	95 00 00 00 00 00 00 06 	c.le.d $f6,$f0
  4027b8:	0c 00 00 00 0a 00 00 00 	bc1t 4027e8 <fmtgen_+0x478>
  4027c0:	01 00 00 00 2a 0a 10 00 	j 4028a8 <fmtgen_+0x538>
  4027c8:	7d 00 00 00 00 00 00 00 	neg.d $f0,$f0
  4027d0:	73 00 00 00 00 00 02 00 	sub.d $f0,$f0,$f2
  4027d8:	95 00 00 00 00 00 00 06 	c.le.d $f6,$f0
  4027e0:	0b 00 00 00 30 00 00 00 	bc1f 4028a8 <fmtgen_+0x538>
  4027e8:	28 00 00 00 10 00 02 1d 	lw $2,16($29)
  4027f0:	43 00 00 00 01 00 02 02 	addiu $2,$2,1
  4027f8:	34 00 00 00 10 00 02 1d 	sw $2,16($29)
  402800:	5c 00 00 00 91 01 02 02 	slti $2,$2,401
  402808:	06 00 00 00 d6 ff 00 02 	bne $2,$0,402768 <fmtgen_+0x3f8>
  402810:	a2 00 00 00 01 10 03 00 	lui $3,4097
  402818:	28 00 00 00 04 6f 03 03 	lw $3,28420($3)
  402820:	a2 00 00 00 00 10 02 00 	lui $2,4096
  402828:	43 00 00 00 50 24 02 02 	addiu $2,$2,9296
  402830:	43 00 00 00 fc ff 04 02 	addiu $4,$2,-4
  402838:	34 00 00 00 00 00 03 02 	sw $3,0($2)
  402840:	02 00 00 00 fc 87 10 00 	jal 421ff0 <s_wsfe>
  402848:	43 00 00 00 60 80 04 1c 	addiu $4,$28,-32672
  402850:	43 00 00 00 10 00 05 1d 	addiu $5,$29,16
  402858:	43 00 00 00 04 00 06 00 	addiu $6,$0,4
  402860:	02 00 00 00 98 94 10 00 	jal 425260 <do_fio>
  402868:	43 00 00 00 60 80 04 1c 	addiu $4,$28,-32672
  402870:	42 00 00 00 00 05 11 00 	addu $5,$0,$17
  402878:	43 00 00 00 08 00 06 00 	addiu $6,$0,8
  402880:	02 00 00 00 98 94 10 00 	jal 425260 <do_fio>
  402888:	02 00 00 00 0e 97 10 00 	jal 425c38 <e_wsfe>
  402890:	43 00 00 00 64 80 04 1c 	addiu $4,$28,-32668
  402898:	42 00 00 00 00 05 00 00 	addu $5,$0,$0
  4028a0:	02 00 00 00 30 97 10 00 	jal 425cc0 <s_stop>
  4028a8:	a2 00 00 00 01 10 01 00 	lui $1,4097
  4028b0:	2b 00 00 00 60 70 00 01 	l.d $f0,28768($1)
  4028b8:	75 00 00 00 00 00 14 00 	mul.d $f0,$f0,$f20
  4028c0:	75 00 00 00 00 00 1a 00 	mul.d $f0,$f0,$f26
  4028c8:	28 00 00 00 00 00 02 12 	lw $2,0($18)
  4028d0:	55 00 00 00 03 02 02 00 	sll $2,$2,0x3
  4028d8:	42 00 00 00 00 02 13 02 	addu $2,$2,$19
  4028e0:	37 00 00 00 00 00 00 02 	s.d $f0,0($2)
  4028e8:	01 00 00 00 3c 0b 10 00 	j 402cf0 <fmtgen_+0x980>
  4028f0:	a2 00 00 00 01 10 01 00 	lui $1,4097
  4028f8:	2b 00 00 00 58 70 02 01 	l.d $f2,28760($1)
  402900:	2b 00 00 00 00 00 00 11 	l.d $f0,0($17)
  402908:	77 00 00 00 00 02 00 02 	div.d $f2,$f2,$f0
  402910:	28 00 00 00 00 00 02 12 	lw $2,0($18)
  402918:	a2 00 00 00 01 10 10 00 	lui $16,4097
  402920:	43 00 00 00 60 70 10 10 	addiu $16,$16,28768
  402928:	2b 00 00 00 00 00 04 10 	l.d $f4,0($16)
  402930:	43 00 00 00 ff ff 02 02 	addiu $2,$2,-1
  402938:	a5 00 00 00 00 00 02 00 	mtc1 $2,$f0
  402940:	81 00 00 00 00 00 00 00 	cvt.s.w $f0,$f0
  402948:	82 00 00 00 00 16 00 00 	cvt.d.s $f22,$f0
  402950:	71 00 00 00 00 14 04 16 	add.d $f20,$f22,$f4
  402958:	43 00 00 00 18 00 04 1d 	addiu $4,$29,24
  402960:	37 00 00 00 18 00 02 1d 	s.d $f2,24($29)
  402968:	28 00 00 00 00 00 02 12 	lw $2,0($18)
  402970:	73 00 00 00 00 16 04 16 	sub.d $f22,$f22,$f4
  402978:	43 00 00 00 20 00 05 1d 	addiu $5,$29,32
  402980:	43 00 00 00 ff ff 02 02 	addiu $2,$2,-1
  402988:	34 00 00 00 20 00 02 1d 	sw $2,32($29)
  402990:	02 00 00 00 84 97 10 00 	jal 425e10 <pow_di>
  402998:	2b 00 00 00 18 00 0c 1d 	l.d $f12,24($29)
  4029a0:	97 00 00 00 00 02 00 0c 	sqrt.d $f2,$f12
  4029a8:	91 00 00 00 00 00 02 02 	c.eq.d $f2,$f2
  4029b0:	7b 00 00 00 00 18 00 00 	mov.d $f24,$f0
  4029b8:	0c 00 00 00 04 00 00 00 	bc1t 4029d0 <fmtgen_+0x660>
  4029c0:	02 00 00 00 a8 97 10 00 	jal 425ea0 <sqrt>
  4029c8:	7b 00 00 00 00 02 00 00 	mov.d $f2,$f0
  4029d0:	a2 00 00 00 01 10 01 00 	lui $1,4097
  4029d8:	2b 00 00 00 98 6f 00 01 	l.d $f0,28568($1)
  4029e0:	75 00 00 00 00 00 02 00 	mul.d $f0,$f0,$f2
  4029e8:	75 00 00 00 00 00 18 00 	mul.d $f0,$f0,$f24
  4029f0:	28 00 00 00 20 00 02 1d 	lw $2,32($29)
  4029f8:	37 00 00 00 f0 8d 00 1c 	s.d $f0,-29200($28)
  402a00:	05 00 00 00 1c 00 00 02 	beq $2,$0,402a78 <fmtgen_+0x708>
  402a08:	42 00 00 00 00 08 02 00 	addu $8,$0,$2
  402a10:	43 00 00 00 01 00 02 00 	addiu $2,$0,1
  402a18:	34 00 00 00 10 00 02 1d 	sw $2,16($29)
  402a20:	07 00 00 00 14 00 00 08 	blez $8,402a78 <fmtgen_+0x708>
  402a28:	2b 00 00 00 f8 ff 04 10 	l.d $f4,-8($16)
  402a30:	73 00 00 00 00 14 04 14 	sub.d $f20,$f20,$f4
  402a38:	2b 00 00 00 f0 8d 00 1c 	l.d $f0,-29200($28)
  402a40:	75 00 00 00 00 00 14 00 	mul.d $f0,$f0,$f20
  402a48:	28 00 00 00 10 00 02 1d 	lw $2,16($29)
  402a50:	43 00 00 00 01 00 02 02 	addiu $2,$2,1
  402a58:	34 00 00 00 10 00 02 1d 	sw $2,16($29)
  402a60:	5b 00 00 00 00 02 02 08 	slt $2,$8,$2
  402a68:	37 00 00 00 f0 8d 00 1c 	s.d $f0,-29200($28)
  402a70:	05 00 00 00 ee ff 00 02 	beq $2,$0,402a30 <fmtgen_+0x6c0>
  402a78:	a2 00 00 00 01 10 05 00 	lui $5,4097
  402a80:	43 00 00 00 60 70 05 05 	addiu $5,$5,28768
  402a88:	2b 00 00 00 00 00 00 05 	l.d $f0,0($5)
  402a90:	75 00 00 00 00 00 1a 00 	mul.d $f0,$f0,$f26
  402a98:	2b 00 00 00 18 00 06 1d 	l.d $f6,24($29)
  402aa0:	75 00 00 00 00 08 06 00 	mul.d $f8,$f0,$f6
  402aa8:	a5 00 00 00 00 00 00 0e 	mtc1 $0,$f14
  402ab0:	a5 00 00 00 00 00 00 0f 	mtc1 $0,$f15
  402ab8:	a2 00 00 00 01 10 01 00 	lui $1,4097
  402ac0:	2b 00 00 00 70 70 14 01 	l.d $f20,28784($1)
  402ac8:	91 00 00 00 00 00 0e 08 	c.eq.d $f8,$f14
  402ad0:	0c 00 00 00 50 00 00 00 	bc1t 402c18 <fmtgen_+0x8a8>
  402ad8:	2b 00 00 00 f0 8d 00 1c 	l.d $f0,-29200($28)
  402ae0:	77 00 00 00 00 0c 00 08 	div.d $f12,$f8,$f0
  402ae8:	a2 00 00 00 01 10 01 00 	lui $1,4097
  402af0:	2b 00 00 00 58 70 14 01 	l.d $f20,28760($1)
  402af8:	2b 00 00 00 00 00 00 11 	l.d $f0,0($17)
  402b00:	28 00 00 00 20 00 03 1d 	lw $3,32($29)
  402b08:	7b 00 00 00 00 04 00 14 	mov.d $f4,$f20
  402b10:	85 00 00 00 00 02 00 00 	cvt.w.d $f2,$f0
  402b18:	a3 00 00 00 00 00 02 02 	mfc1 $2,$f2
  402b20:	42 00 00 00 00 08 03 02 	addu $8,$2,$3
  402b28:	43 00 00 00 02 00 02 00 	addiu $2,$0,2
  402b30:	34 00 00 00 10 00 02 1d 	sw $2,16($29)
  402b38:	5c 00 00 00 02 00 02 08 	slti $2,$8,2
  402b40:	06 00 00 00 2e 00 00 02 	bne $2,$0,402c00 <fmtgen_+0x890>
  402b48:	7b 00 00 00 00 0a 00 06 	mov.d $f10,$f6
  402b50:	a2 00 00 00 01 10 01 00 	lui $1,4097
  402b58:	2b 00 00 00 28 70 02 01 	l.d $f2,28712($1)
  402b60:	7b 00 00 00 00 06 00 0e 	mov.d $f6,$f14
  402b68:	43 00 00 00 f8 ff 03 05 	addiu $3,$5,-8
  402b70:	75 00 00 00 00 00 16 04 	mul.d $f0,$f4,$f22
  402b78:	75 00 00 00 00 04 0a 00 	mul.d $f4,$f0,$f10
  402b80:	75 00 00 00 00 00 0c 04 	mul.d $f0,$f4,$f12
  402b88:	71 00 00 00 00 14 04 14 	add.d $f20,$f20,$f4
  402b90:	77 00 00 00 00 00 14 00 	div.d $f0,$f0,$f20
  402b98:	95 00 00 00 00 00 00 06 	c.le.d $f6,$f0
  402ba0:	0c 00 00 00 02 00 00 00 	bc1t 402bb0 <fmtgen_+0x840>
  402ba8:	7d 00 00 00 00 00 00 00 	neg.d $f0,$f0
  402bb0:	73 00 00 00 00 00 02 00 	sub.d $f0,$f0,$f2
  402bb8:	95 00 00 00 00 00 06 00 	c.le.d $f0,$f6
  402bc0:	0c 00 00 00 14 00 00 00 	bc1t 402c18 <fmtgen_+0x8a8>
  402bc8:	2b 00 00 00 00 00 00 03 	l.d $f0,0($3)
  402bd0:	28 00 00 00 10 00 02 1d 	lw $2,16($29)
  402bd8:	73 00 00 00 00 16 00 16 	sub.d $f22,$f22,$f0
  402be0:	43 00 00 00 01 00 02 02 	addiu $2,$2,1
  402be8:	34 00 00 00 10 00 02 1d 	sw $2,16($29)
  402bf0:	5b 00 00 00 00 02 02 08 	slt $2,$8,$2
  402bf8:	05 00 00 00 dc ff 00 02 	beq $2,$0,402b70 <fmtgen_+0x800>
  402c00:	43 00 00 00 01 00 02 00 	addiu $2,$0,1
  402c08:	34 00 00 00 00 00 02 14 	sw $2,0($20)
  402c10:	01 00 00 00 80 0b 10 00 	j 402e00 <fmtgen_+0xa90>
  402c18:	75 00 00 00 00 00 14 08 	mul.d $f0,$f8,$f20
  402c20:	2b 00 00 00 f0 8d 02 1c 	l.d $f2,-29200($28)
  402c28:	28 00 00 00 00 00 02 12 	lw $2,0($18)
  402c30:	73 00 00 00 00 02 00 02 	sub.d $f2,$f2,$f0
  402c38:	55 00 00 00 03 02 02 00 	sll $2,$2,0x3
  402c40:	01 00 00 00 38 0b 10 00 	j 402ce0 <fmtgen_+0x970>
  402c48:	a2 00 00 00 01 10 10 00 	lui $16,4097
  402c50:	43 00 00 00 60 70 10 10 	addiu $16,$16,28768
  402c58:	2b 00 00 00 00 00 02 10 	l.d $f2,0($16)
  402c60:	2a 00 00 00 00 00 00 12 	l.s $f0,0($18)
  402c68:	81 00 00 00 00 00 00 00 	cvt.s.w $f0,$f0
  402c70:	82 00 00 00 00 00 00 00 	cvt.d.s $f0,$f0
  402c78:	73 00 00 00 00 00 02 00 	sub.d $f0,$f0,$f2
  402c80:	42 00 00 00 00 04 11 00 	addu $4,$0,$17
  402c88:	43 00 00 00 18 00 05 1d 	addiu $5,$29,24
  402c90:	37 00 00 00 18 00 00 1d 	s.d $f0,24($29)
  402c98:	02 00 00 00 b8 98 10 00 	jal 4262e0 <pow_dd>
  402ca0:	28 00 00 00 00 00 02 12 	lw $2,0($18)
  402ca8:	2b 00 00 00 00 00 02 10 	l.d $f2,0($16)
  402cb0:	55 00 00 00 03 02 02 00 	sll $2,$2,0x3
  402cb8:	a2 00 00 00 01 10 01 00 	lui $1,4097
  402cc0:	42 00 00 00 00 01 01 02 	addu $1,$2,$1
  402cc8:	2b 00 00 00 08 6f 04 01 	l.d $f4,28424($1)
  402cd0:	75 00 00 00 00 02 04 02 	mul.d $f2,$f2,$f4
  402cd8:	77 00 00 00 00 02 00 02 	div.d $f2,$f2,$f0
  402ce0:	42 00 00 00 00 02 13 02 	addu $2,$2,$19
  402ce8:	37 00 00 00 00 00 02 02 	s.d $f2,0($2)
  402cf0:	2b 00 00 00 00 00 00 11 	l.d $f0,0($17)
  402cf8:	71 00 00 00 00 02 00 00 	add.d $f2,$f0,$f0
  402d00:	37 00 00 00 18 00 02 1d 	s.d $f2,24($29)
  402d08:	28 00 00 00 00 00 03 12 	lw $3,0($18)
  402d10:	55 00 00 00 01 02 03 00 	sll $2,$3,0x1
  402d18:	43 00 00 00 fd ff 02 02 	addiu $2,$2,-3
  402d20:	a5 00 00 00 00 00 02 00 	mtc1 $2,$f0
  402d28:	81 00 00 00 00 00 00 00 	cvt.s.w $f0,$f0
  402d30:	82 00 00 00 00 14 00 00 	cvt.d.s $f20,$f0
  402d38:	43 00 00 00 ff ff 02 03 	addiu $2,$3,-1
  402d40:	34 00 00 00 20 00 02 1d 	sw $2,32($29)
  402d48:	05 00 00 00 2c 00 00 02 	beq $2,$0,402e00 <fmtgen_+0xa90>
  402d50:	42 00 00 00 00 08 02 00 	addu $8,$0,$2
  402d58:	43 00 00 00 01 00 02 00 	addiu $2,$0,1
  402d60:	34 00 00 00 10 00 02 1d 	sw $2,16($29)
  402d68:	07 00 00 00 24 00 00 08 	blez $8,402e00 <fmtgen_+0xa90>
  402d70:	a2 00 00 00 01 10 04 00 	lui $4,4097
  402d78:	43 00 00 00 68 70 04 04 	addiu $4,$4,28776
  402d80:	28 00 00 00 00 00 02 12 	lw $2,0($18)
  402d88:	28 00 00 00 10 00 03 1d 	lw $3,16($29)
  402d90:	45 00 00 00 00 02 03 02 	subu $2,$2,$3
  402d98:	55 00 00 00 03 02 02 00 	sll $2,$2,0x3
  402da0:	42 00 00 00 00 02 13 02 	addu $2,$2,$19
  402da8:	2b 00 00 00 08 00 00 02 	l.d $f0,8($2)
  402db0:	75 00 00 00 00 00 00 02 	mul.d $f0,$f2,$f0
  402db8:	71 00 00 00 00 00 1a 00 	add.d $f0,$f0,$f26
  402dc0:	77 00 00 00 00 00 14 00 	div.d $f0,$f0,$f20
  402dc8:	37 00 00 00 00 00 00 02 	s.d $f0,0($2)
  402dd0:	2b 00 00 00 00 00 00 04 	l.d $f0,0($4)
  402dd8:	73 00 00 00 00 14 00 14 	sub.d $f20,$f20,$f0
  402de0:	43 00 00 00 01 00 03 03 	addiu $3,$3,1
  402de8:	34 00 00 00 10 00 03 1d 	sw $3,16($29)
  402df0:	5b 00 00 00 00 03 03 08 	slt $3,$8,$3
  402df8:	05 00 00 00 e0 ff 00 03 	beq $3,$0,402d80 <fmtgen_+0xa10>
  402e00:	42 00 00 00 00 02 00 00 	addu $2,$0,$0
  402e08:	28 00 00 00 3c 00 1f 1d 	lw $31,60($29)
  402e10:	28 00 00 00 38 00 14 1d 	lw $20,56($29)
  402e18:	28 00 00 00 34 00 13 1d 	lw $19,52($29)
  402e20:	28 00 00 00 30 00 12 1d 	lw $18,48($29)
  402e28:	28 00 00 00 2c 00 11 1d 	lw $17,44($29)
  402e30:	28 00 00 00 28 00 10 1d 	lw $16,40($29)
  402e38:	2b 00 00 00 58 00 1a 1d 	l.d $f26,88($29)
  402e40:	2b 00 00 00 50 00 18 1d 	l.d $f24,80($29)
  402e48:	2b 00 00 00 48 00 16 1d 	l.d $f22,72($29)
  402e50:	2b 00 00 00 40 00 14 1d 	l.d $f20,64($29)
  402e58:	43 00 00 00 60 00 1d 1d 	addiu $29,$29,96
  402e60:	03 00 00 00 00 00 00 1f 	jr $31
	...

00402e70 <fmtset_>:
  402e70:	2b 00 00 00 78 80 0c 1c 	l.d $f12,-32648($28)
  402e78:	2b 00 00 00 80 80 0a 1c 	l.d $f10,-32640($28)
  402e80:	2b 00 00 00 a8 80 10 1c 	l.d $f16,-32600($28)
  402e88:	2b 00 00 00 b0 80 0e 1c 	l.d $f14,-32592($28)
  402e90:	2b 00 00 00 b8 80 04 1c 	l.d $f4,-32584($28)
  402e98:	2b 00 00 00 c8 80 08 1c 	l.d $f8,-32568($28)
  402ea0:	43 00 00 00 48 ff 1d 1d 	addiu $29,$29,-184
  402ea8:	34 00 00 00 a8 00 12 1d 	sw $18,168($29)
  402eb0:	42 00 00 00 00 12 04 00 	addu $18,$0,$4
  402eb8:	34 00 00 00 ac 00 13 1d 	sw $19,172($29)
  402ec0:	42 00 00 00 00 13 05 00 	addu $19,$0,$5
  402ec8:	71 00 00 00 00 00 0c 0c 	add.d $f0,$f12,$f12
  402ed0:	34 00 00 00 b0 00 14 1d 	sw $20,176($29)
  402ed8:	42 00 00 00 00 14 06 00 	addu $20,$0,$6
  402ee0:	34 00 00 00 a4 00 11 1d 	sw $17,164($29)
  402ee8:	71 00 00 00 00 06 00 00 	add.d $f6,$f0,$f0
  402ef0:	a2 00 00 00 01 10 11 00 	lui $17,4097
  402ef8:	43 00 00 00 70 70 11 11 	addiu $17,$17,28784
  402f00:	34 00 00 00 b4 00 1f 1d 	sw $31,180($29)
  402f08:	34 00 00 00 a0 00 10 1d 	sw $16,160($29)
  402f10:	71 00 00 00 00 04 00 04 	add.d $f4,$f4,$f0
  402f18:	38 00 00 00 00 00 00 11 	dsz 0($17)
  402f20:	a2 00 00 00 01 10 01 00 	lui $1,4097
  402f28:	37 00 00 00 58 70 0c 01 	s.d $f12,28760($1)
  402f30:	a2 00 00 00 01 10 01 00 	lui $1,4097
  402f38:	37 00 00 00 60 70 0a 01 	s.d $f10,28768($1)
  402f40:	71 00 00 00 00 02 06 06 	add.d $f2,$f6,$f6
  402f48:	a2 00 00 00 01 10 01 00 	lui $1,4097
  402f50:	37 00 00 00 80 70 10 01 	s.d $f16,28800($1)
  402f58:	a2 00 00 00 01 10 01 00 	lui $1,4097
  402f60:	37 00 00 00 88 70 0e 01 	s.d $f14,28808($1)
  402f68:	a2 00 00 00 01 10 01 00 	lui $1,4097
  402f70:	37 00 00 00 98 70 08 01 	s.d $f8,28824($1)
  402f78:	71 00 00 00 00 02 00 02 	add.d $f2,$f2,$f0
  402f80:	a2 00 00 00 01 10 01 00 	lui $1,4097
  402f88:	37 00 00 00 68 70 00 01 	s.d $f0,28776($1)
  402f90:	a2 00 00 00 01 10 01 00 	lui $1,4097
  402f98:	37 00 00 00 50 70 06 01 	s.d $f6,28752($1)
  402fa0:	a2 00 00 00 01 10 01 00 	lui $1,4097
  402fa8:	37 00 00 00 90 70 04 01 	s.d $f4,28816($1)
  402fb0:	a2 00 00 00 01 10 01 00 	lui $1,4097
  402fb8:	37 00 00 00 78 70 02 01 	s.d $f2,28792($1)
  402fc0:	02 00 00 00 cc 98 10 00 	jal 426330 <atan>
  402fc8:	a2 00 00 00 01 10 01 00 	lui $1,4097
  402fd0:	2b 00 00 00 50 70 02 01 	l.d $f2,28752($1)
  402fd8:	75 00 00 00 00 0c 00 02 	mul.d $f12,$f2,$f0
  402fe0:	97 00 00 00 00 04 00 0c 	sqrt.d $f4,$f12
  402fe8:	91 00 00 00 00 00 04 04 	c.eq.d $f4,$f4
  402ff0:	a2 00 00 00 01 10 10 00 	lui $16,4097
  402ff8:	43 00 00 00 10 6f 10 10 	addiu $16,$16,28432
  403000:	0c 00 00 00 04 00 00 00 	bc1t 403018 <fmtset_+0x1a8>
  403008:	02 00 00 00 a8 97 10 00 	jal 425ea0 <sqrt>
  403010:	7b 00 00 00 00 04 00 00 	mov.d $f4,$f0
  403018:	a2 00 00 00 01 10 01 00 	lui $1,4097
  403020:	2b 00 00 00 60 70 00 01 	l.d $f0,28768($1)
  403028:	75 00 00 00 00 02 04 00 	mul.d $f2,$f0,$f4
  403030:	43 00 00 00 02 00 06 00 	addiu $6,$0,2
  403038:	43 00 00 00 f8 ff 05 10 	addiu $5,$16,-8
  403040:	43 00 00 00 e8 ff 07 11 	addiu $7,$17,-24
  403048:	43 00 00 00 08 00 04 10 	addiu $4,$16,8
  403050:	42 00 00 00 00 03 10 00 	addu $3,$0,$16
  403058:	37 00 00 00 00 00 04 03 	s.d $f4,0($3)
  403060:	a2 00 00 00 01 10 01 00 	lui $1,4097
  403068:	37 00 00 00 28 70 00 01 	s.d $f0,28712($1)
  403070:	a2 00 00 00 01 10 01 00 	lui $1,4097
  403078:	37 00 00 00 98 6f 02 01 	s.d $f2,28568($1)
  403080:	2b 00 00 00 00 00 00 03 	l.d $f0,0($3)
  403088:	2b 00 00 00 20 01 02 05 	l.d $f2,288($5)
  403090:	75 00 00 00 00 00 02 00 	mul.d $f0,$f0,$f2
  403098:	37 00 00 00 00 00 00 04 	s.d $f0,0($4)
  4030a0:	2b 00 00 00 20 01 02 05 	l.d $f2,288($5)
  4030a8:	2b 00 00 00 00 00 00 07 	l.d $f0,0($7)
  4030b0:	71 00 00 00 00 02 00 02 	add.d $f2,$f2,$f0
  4030b8:	37 00 00 00 20 01 02 05 	s.d $f2,288($5)
  4030c0:	2b 00 00 00 08 00 00 03 	l.d $f0,8($3)
  4030c8:	75 00 00 00 00 00 02 00 	mul.d $f0,$f0,$f2
  4030d0:	37 00 00 00 08 00 00 04 	s.d $f0,8($4)
  4030d8:	2b 00 00 00 20 01 02 05 	l.d $f2,288($5)
  4030e0:	2b 00 00 00 00 00 00 07 	l.d $f0,0($7)
  4030e8:	71 00 00 00 00 02 00 02 	add.d $f2,$f2,$f0
  4030f0:	37 00 00 00 20 01 02 05 	s.d $f2,288($5)
  4030f8:	2b 00 00 00 10 00 00 03 	l.d $f0,16($3)
  403100:	75 00 00 00 00 00 02 00 	mul.d $f0,$f0,$f2
  403108:	37 00 00 00 10 00 00 04 	s.d $f0,16($4)
  403110:	2b 00 00 00 20 01 02 05 	l.d $f2,288($5)
  403118:	2b 00 00 00 00 00 00 07 	l.d $f0,0($7)
  403120:	71 00 00 00 00 02 00 02 	add.d $f2,$f2,$f0
  403128:	37 00 00 00 20 01 02 05 	s.d $f2,288($5)
  403130:	2b 00 00 00 18 00 00 03 	l.d $f0,24($3)
  403138:	75 00 00 00 00 00 02 00 	mul.d $f0,$f0,$f2
  403140:	37 00 00 00 18 00 00 04 	s.d $f0,24($4)
  403148:	2b 00 00 00 20 01 02 05 	l.d $f2,288($5)
  403150:	2b 00 00 00 00 00 00 07 	l.d $f0,0($7)
  403158:	43 00 00 00 04 00 06 06 	addiu $6,$6,4
  403160:	71 00 00 00 00 02 00 02 	add.d $f2,$f2,$f0
  403168:	5c 00 00 00 12 00 02 06 	slti $2,$6,18
  403170:	43 00 00 00 20 00 03 03 	addiu $3,$3,32
  403178:	43 00 00 00 20 00 04 04 	addiu $4,$4,32
  403180:	37 00 00 00 20 01 02 05 	s.d $f2,288($5)
  403188:	06 00 00 00 bc ff 00 02 	bne $2,$0,403080 <fmtset_+0x210>
  403190:	43 00 00 00 02 00 06 00 	addiu $6,$0,2
  403198:	a2 00 00 00 01 10 02 00 	lui $2,4097
  4031a0:	43 00 00 00 58 70 02 02 	addiu $2,$2,28760
  4031a8:	43 00 00 00 10 00 05 02 	addiu $5,$2,16
  4031b0:	2b 00 00 00 00 00 00 02 	l.d $f0,0($2)
  4031b8:	a2 00 00 00 01 10 03 00 	lui $3,4097
  4031c0:	43 00 00 00 28 70 03 03 	addiu $3,$3,28712
  4031c8:	43 00 00 00 80 ff 04 03 	addiu $4,$3,-128
  4031d0:	37 00 00 00 00 00 00 03 	s.d $f0,0($3)
  4031d8:	a2 00 00 00 01 10 01 00 	lui $1,4097
  4031e0:	37 00 00 00 a0 6f 00 01 	s.d $f0,28576($1)
  4031e8:	2b 00 00 00 00 00 02 03 	l.d $f2,0($3)
  4031f0:	2b 00 00 00 00 00 00 05 	l.d $f0,0($5)
  4031f8:	71 00 00 00 00 02 00 02 	add.d $f2,$f2,$f0
  403200:	2b 00 00 00 f0 ff 00 05 	l.d $f0,-16($5)
  403208:	77 00 00 00 00 00 02 00 	div.d $f0,$f0,$f2
  403210:	37 00 00 00 00 00 02 03 	s.d $f2,0($3)
  403218:	37 00 00 00 00 00 00 04 	s.d $f0,0($4)
  403220:	2b 00 00 00 00 00 02 03 	l.d $f2,0($3)
  403228:	2b 00 00 00 00 00 00 05 	l.d $f0,0($5)
  403230:	71 00 00 00 00 02 00 02 	add.d $f2,$f2,$f0
  403238:	2b 00 00 00 f0 ff 00 05 	l.d $f0,-16($5)
  403240:	77 00 00 00 00 00 02 00 	div.d $f0,$f0,$f2
  403248:	37 00 00 00 00 00 02 03 	s.d $f2,0($3)
  403250:	37 00 00 00 08 00 00 04 	s.d $f0,8($4)
  403258:	2b 00 00 00 00 00 02 03 	l.d $f2,0($3)
  403260:	2b 00 00 00 00 00 00 05 	l.d $f0,0($5)
  403268:	71 00 00 00 00 02 00 02 	add.d $f2,$f2,$f0
  403270:	2b 00 00 00 f0 ff 00 05 	l.d $f0,-16($5)
  403278:	77 00 00 00 00 00 02 00 	div.d $f0,$f0,$f2
  403280:	37 00 00 00 00 00 02 03 	s.d $f2,0($3)
  403288:	37 00 00 00 10 00 00 04 	s.d $f0,16($4)
  403290:	2b 00 00 00 00 00 02 03 	l.d $f2,0($3)
  403298:	2b 00 00 00 00 00 00 05 	l.d $f0,0($5)
  4032a0:	71 00 00 00 00 02 00 02 	add.d $f2,$f2,$f0
  4032a8:	2b 00 00 00 f0 ff 00 05 	l.d $f0,-16($5)
  4032b0:	77 00 00 00 00 00 02 00 	div.d $f0,$f0,$f2
  4032b8:	43 00 00 00 04 00 06 06 	addiu $6,$6,4
  4032c0:	5c 00 00 00 12 00 02 06 	slti $2,$6,18
  4032c8:	37 00 00 00 00 00 02 03 	s.d $f2,0($3)
  4032d0:	37 00 00 00 18 00 00 04 	s.d $f0,24($4)
  4032d8:	43 00 00 00 20 00 04 04 	addiu $4,$4,32
  4032e0:	06 00 00 00 c0 ff 00 02 	bne $2,$0,4031e8 <fmtset_+0x378>
  4032e8:	a2 00 00 00 01 10 10 00 	lui $16,4097
  4032f0:	43 00 00 00 70 70 10 10 	addiu $16,$16,28784
  4032f8:	2b 00 00 00 00 00 00 10 	l.d $f0,0($16)
  403300:	a2 00 00 00 01 10 11 00 	lui $17,4097
  403308:	43 00 00 00 30 70 11 11 	addiu $17,$17,28720
  403310:	37 00 00 00 00 00 00 11 	s.d $f0,0($17)
  403318:	28 00 00 00 00 00 02 12 	lw $2,0($18)
  403320:	05 00 00 00 0e 00 00 02 	beq $2,$0,403360 <fmtset_+0x4f0>
  403328:	43 00 00 00 08 00 04 10 	addiu $4,$16,8
  403330:	43 00 00 00 88 00 05 1d 	addiu $5,$29,136
  403338:	55 00 00 00 01 02 02 00 	sll $2,$2,0x1
  403340:	45 00 00 00 00 02 02 00 	subu $2,$0,$2
  403348:	34 00 00 00 88 00 02 1d 	sw $2,136($29)
  403350:	02 00 00 00 84 97 10 00 	jal 425e10 <pow_di>
  403358:	37 00 00 00 00 00 00 11 	s.d $f0,0($17)
  403360:	a2 00 00 00 01 10 01 00 	lui $1,4097
  403368:	2b 00 00 00 80 70 00 01 	l.d $f0,28800($1)
  403370:	2b 00 00 00 08 00 02 10 	l.d $f2,8($16)
  403378:	a2 00 00 00 01 10 01 00 	lui $1,4097
  403380:	2b 00 00 00 90 70 04 01 	l.d $f4,28816($1)
  403388:	a2 00 00 00 01 10 01 00 	lui $1,4097
  403390:	37 00 00 00 28 70 00 01 	s.d $f0,28712($1)
  403398:	a2 00 00 00 01 10 01 00 	lui $1,4097
  4033a0:	37 00 00 00 38 70 02 01 	s.d $f2,28728($1)
  4033a8:	a2 00 00 00 01 10 01 00 	lui $1,4097
  4033b0:	37 00 00 00 40 70 04 01 	s.d $f4,28736($1)
  4033b8:	28 00 00 00 00 00 03 13 	lw $3,0($19)
  4033c0:	43 00 00 00 08 00 04 10 	addiu $4,$16,8
  4033c8:	05 00 00 00 48 00 00 03 	beq $3,$0,4034f0 <fmtset_+0x680>
  4033d0:	43 00 00 00 88 00 05 1d 	addiu $5,$29,136
  4033d8:	43 00 00 00 fa ff 02 00 	addiu $2,$0,-6
  4033e0:	45 00 00 00 00 02 03 02 	subu $2,$2,$3
  4033e8:	34 00 00 00 88 00 02 1d 	sw $2,136($29)
  4033f0:	02 00 00 00 84 97 10 00 	jal 425e10 <pow_di>
  4033f8:	a2 00 00 00 01 10 01 00 	lui $1,4097
  403400:	2b 00 00 00 88 70 02 01 	l.d $f2,28808($1)
  403408:	a2 00 00 00 01 10 01 00 	lui $1,4097
  403410:	37 00 00 00 28 70 00 01 	s.d $f0,28712($1)
  403418:	37 00 00 00 90 00 02 1d 	s.d $f2,144($29)
  403420:	43 00 00 00 10 00 04 1d 	addiu $4,$29,16
  403428:	43 00 00 00 90 00 05 1d 	addiu $5,$29,144
  403430:	43 00 00 00 70 80 06 1c 	addiu $6,$28,-32656
  403438:	43 00 00 00 98 00 07 1d 	addiu $7,$29,152
  403440:	02 00 00 00 dc 08 10 00 	jal 402370 <fmtgen_>
  403448:	28 00 00 00 98 00 02 1d 	lw $2,152($29)
  403450:	06 00 00 00 1a 00 00 02 	bne $2,$0,4034c0 <fmtset_+0x650>
  403458:	2b 00 00 00 90 00 04 1d 	l.d $f4,144($29)
  403460:	a2 00 00 00 01 10 01 00 	lui $1,4097
  403468:	2b 00 00 00 58 70 00 01 	l.d $f0,28760($1)
  403470:	73 00 00 00 00 04 00 04 	sub.d $f4,$f4,$f0
  403478:	a2 00 00 00 01 10 01 00 	lui $1,4097
  403480:	2b 00 00 00 78 70 00 01 	l.d $f0,28792($1)
  403488:	73 00 00 00 00 00 00 04 	sub.d $f0,$f4,$f0
  403490:	a5 00 00 00 00 00 00 02 	mtc1 $0,$f2
  403498:	a5 00 00 00 00 00 00 03 	mtc1 $0,$f3
  4034a0:	95 00 00 00 00 00 00 02 	c.le.d $f2,$f0
  4034a8:	37 00 00 00 90 00 04 1d 	s.d $f4,144($29)
  4034b0:	0c 00 00 00 da ff 00 00 	bc1t 403420 <fmtset_+0x5b0>
  4034b8:	01 00 00 00 3c 0d 10 00 	j 4034f0 <fmtset_+0x680>
  4034c0:	2b 00 00 00 90 00 00 1d 	l.d $f0,144($29)
  4034c8:	a2 00 00 00 01 10 01 00 	lui $1,4097
  4034d0:	2b 00 00 00 58 70 02 01 	l.d $f2,28760($1)
  4034d8:	71 00 00 00 00 00 02 00 	add.d $f0,$f0,$f2
  4034e0:	a2 00 00 00 01 10 01 00 	lui $1,4097
  4034e8:	37 00 00 00 38 70 00 01 	s.d $f0,28728($1)
  4034f0:	a2 00 00 00 01 10 01 00 	lui $1,4097
  4034f8:	2b 00 00 00 90 70 00 01 	l.d $f0,28816($1)
  403500:	a2 00 00 00 01 10 02 00 	lui $2,4097
  403508:	43 00 00 00 40 70 02 02 	addiu $2,$2,28736
  403510:	37 00 00 00 00 00 00 02 	s.d $f0,0($2)
  403518:	28 00 00 00 00 00 06 14 	lw $6,0($20)
  403520:	05 00 00 00 06 00 00 06 	beq $6,$0,403540 <fmtset_+0x6d0>
  403528:	a5 00 00 00 00 00 06 00 	mtc1 $6,$f0
  403530:	83 00 00 00 00 00 00 00 	cvt.d.w $f0,$f0
  403538:	37 00 00 00 00 00 00 02 	s.d $f0,0($2)
  403540:	42 00 00 00 00 02 00 00 	addu $2,$0,$0
  403548:	28 00 00 00 b4 00 1f 1d 	lw $31,180($29)
  403550:	28 00 00 00 b0 00 14 1d 	lw $20,176($29)
  403558:	28 00 00 00 ac 00 13 1d 	lw $19,172($29)
  403560:	28 00 00 00 a8 00 12 1d 	lw $18,168($29)
  403568:	28 00 00 00 a4 00 11 1d 	lw $17,164($29)
  403570:	28 00 00 00 a0 00 10 1d 	lw $16,160($29)
  403578:	43 00 00 00 b8 00 1d 1d 	addiu $29,$29,184
  403580:	03 00 00 00 00 00 00 1f 	jr $31
	...

00403590 <fpppp_>:
  403590:	a2 00 00 00 01 10 01 00 	lui $1,4097
  403598:	2b 00 00 00 a8 7d 0c 01 	l.d $f12,32168($1)
  4035a0:	43 00 00 00 20 e9 1d 1d 	addiu $29,$29,-5856
  4035a8:	37 00 00 00 c8 16 1a 1d 	s.d $f26,5832($29)
  4035b0:	a2 00 00 00 01 10 01 00 	lui $1,4097
  4035b8:	2b 00 00 00 00 75 1a 01 	l.d $f26,29952($1)
  4035c0:	37 00 00 00 b0 16 14 1d 	s.d $f20,5808($29)
  4035c8:	75 00 00 00 00 14 0c 1a 	mul.d $f20,$f26,$f12
  4035d0:	37 00 00 00 d0 16 1c 1d 	s.d $f28,5840($29)
  4035d8:	a2 00 00 00 01 10 01 00 	lui $1,4097
  4035e0:	2b 00 00 00 08 75 1c 01 	l.d $f28,29960($1)
  4035e8:	75 00 00 00 00 06 0c 1c 	mul.d $f6,$f28,$f12
  4035f0:	a2 00 00 00 01 10 01 00 	lui $1,4097
  4035f8:	2b 00 00 00 10 75 1a 01 	l.d $f26,29968($1)
  403600:	75 00 00 00 00 04 0c 1a 	mul.d $f4,$f26,$f12
  403608:	a2 00 00 00 01 10 01 00 	lui $1,4097
  403610:	2b 00 00 00 b0 7d 1c 01 	l.d $f28,32176($1)
  403618:	71 00 00 00 00 14 1c 14 	add.d $f20,$f20,$f28
  403620:	a2 00 00 00 01 10 01 00 	lui $1,4097
  403628:	2b 00 00 00 b8 7d 1a 01 	l.d $f26,32184($1)
  403630:	71 00 00 00 00 06 1a 06 	add.d $f6,$f6,$f26
  403638:	a2 00 00 00 01 10 01 00 	lui $1,4097
  403640:	2b 00 00 00 b8 75 1c 01 	l.d $f28,30136($1)
  403648:	37 00 00 00 00 00 06 1d 	s.d $f6,0($29)
  403650:	75 00 00 00 00 06 1c 06 	mul.d $f6,$f6,$f28
  403658:	a2 00 00 00 01 10 01 00 	lui $1,4097
  403660:	2b 00 00 00 b0 75 08 01 	l.d $f8,30128($1)
  403668:	75 00 00 00 00 0a 08 14 	mul.d $f10,$f20,$f8
  403670:	a2 00 00 00 01 10 01 00 	lui $1,4097
  403678:	2b 00 00 00 c0 7d 1a 01 	l.d $f26,32192($1)
  403680:	71 00 00 00 00 04 1a 04 	add.d $f4,$f4,$f26
  403688:	a2 00 00 00 01 10 01 00 	lui $1,4097
  403690:	2b 00 00 00 c0 75 1c 01 	l.d $f28,30144($1)
  403698:	37 00 00 00 08 00 04 1d 	s.d $f4,8($29)
  4036a0:	75 00 00 00 00 04 1c 04 	mul.d $f4,$f4,$f28
  4036a8:	a2 00 00 00 01 10 01 00 	lui $1,4097
  4036b0:	2b 00 00 00 f8 7e 02 01 	l.d $f2,32504($1)
  4036b8:	a2 00 00 00 01 10 01 00 	lui $1,4097
  4036c0:	2b 00 00 00 80 71 00 01 	l.d $f0,29056($1)
  4036c8:	75 00 00 00 00 00 02 00 	mul.d $f0,$f0,$f2
  4036d0:	71 00 00 00 00 0a 06 0a 	add.d $f10,$f10,$f6
  4036d8:	71 00 00 00 00 0a 04 0a 	add.d $f10,$f10,$f4
  4036e0:	75 00 00 00 00 0a 02 0a 	mul.d $f10,$f10,$f2
  4036e8:	37 00 00 00 00 01 00 1d 	s.d $f0,256($29)
  4036f0:	2b 00 00 00 00 01 1a 1d 	l.d $f26,256($29)
  4036f8:	75 00 00 00 00 08 08 1a 	mul.d $f8,$f26,$f8
  403700:	a2 00 00 00 01 10 01 00 	lui $1,4097
  403708:	2b 00 00 00 20 71 02 01 	l.d $f2,28960($1)
  403710:	a2 00 00 00 01 10 01 00 	lui $1,4097
  403718:	2b 00 00 00 f0 70 00 01 	l.d $f0,28912($1)
  403720:	7d 00 00 00 00 02 00 02 	neg.d $f2,$f2
  403728:	75 00 00 00 00 02 00 02 	mul.d $f2,$f2,$f0
  403730:	75 00 00 00 00 00 02 02 	mul.d $f0,$f2,$f2
  403738:	a2 00 00 00 01 10 01 00 	lui $1,4097
  403740:	2b 00 00 00 e8 7d 1c 01 	l.d $f28,32232($1)
  403748:	75 00 00 00 00 10 00 1c 	mul.d $f16,$f28,$f0
  403750:	a2 00 00 00 01 10 01 00 	lui $1,4097
  403758:	2b 00 00 00 38 7e 1a 01 	l.d $f26,32312($1)
  403760:	75 00 00 00 00 1a 00 1a 	mul.d $f26,$f26,$f0
  403768:	a2 00 00 00 01 10 01 00 	lui $1,4097
  403770:	2b 00 00 00 70 7e 1c 01 	l.d $f28,32368($1)
  403778:	75 00 00 00 00 1c 00 1c 	mul.d $f28,$f28,$f0
  403780:	37 00 00 00 a8 16 1a 1d 	s.d $f26,5800($29)
  403788:	a2 00 00 00 01 10 01 00 	lui $1,4097
  403790:	2b 00 00 00 08 7e 1a 01 	l.d $f26,32264($1)
  403798:	37 00 00 00 b8 16 16 1d 	s.d $f22,5816($29)
  4037a0:	75 00 00 00 00 16 00 1a 	mul.d $f22,$f26,$f0
  4037a8:	37 00 00 00 a0 16 1c 1d 	s.d $f28,5792($29)
  4037b0:	a2 00 00 00 01 10 01 00 	lui $1,4097
  4037b8:	2b 00 00 00 18 7e 1c 01 	l.d $f28,32280($1)
  4037c0:	37 00 00 00 c0 16 18 1d 	s.d $f24,5824($29)
  4037c8:	75 00 00 00 00 18 00 1c 	mul.d $f24,$f28,$f0
  4037d0:	a2 00 00 00 01 10 01 00 	lui $1,4097
  4037d8:	2b 00 00 00 58 7e 1a 01 	l.d $f26,32344($1)
  4037e0:	75 00 00 00 00 00 00 1a 	mul.d $f0,$f26,$f0
  4037e8:	a2 00 00 00 01 10 01 00 	lui $1,4097
  4037f0:	2b 00 00 00 30 75 1c 01 	l.d $f28,30000($1)
  4037f8:	37 00 00 00 d8 16 1e 1d 	s.d $f30,5848($29)
  403800:	75 00 00 00 00 1e 0c 1c 	mul.d $f30,$f28,$f12
  403808:	a2 00 00 00 01 10 01 00 	lui $1,4097
  403810:	2b 00 00 00 18 75 1a 01 	l.d $f26,29976($1)
  403818:	a2 00 00 00 01 10 01 00 	lui $1,4097
  403820:	2b 00 00 00 b0 7d 1c 01 	l.d $f28,32176($1)
  403828:	37 00 00 00 a0 04 08 1d 	s.d $f8,1184($29)
  403830:	75 00 00 00 00 08 1c 1a 	mul.d $f8,$f26,$f28
  403838:	a2 00 00 00 01 10 01 00 	lui $1,4097
  403840:	2b 00 00 00 50 75 1a 01 	l.d $f26,30032($1)
  403848:	75 00 00 00 00 1a 0c 1a 	mul.d $f26,$f26,$f12
  403850:	37 00 00 00 70 01 02 1d 	s.d $f2,368($29)
  403858:	37 00 00 00 b8 04 1a 1d 	s.d $f26,1208($29)
  403860:	a2 00 00 00 01 10 01 00 	lui $1,4097
  403868:	2b 00 00 00 20 75 1c 01 	l.d $f28,29984($1)
  403870:	a2 00 00 00 01 10 01 00 	lui $1,4097
  403878:	2b 00 00 00 b8 7d 1a 01 	l.d $f26,32184($1)
  403880:	75 00 00 00 00 04 1a 1c 	mul.d $f4,$f28,$f26
  403888:	a2 00 00 00 01 10 01 00 	lui $1,4097
  403890:	2b 00 00 00 70 75 1c 01 	l.d $f28,30064($1)
  403898:	75 00 00 00 00 0c 0c 1c 	mul.d $f12,$f28,$f12
  4038a0:	a2 00 00 00 01 10 01 00 	lui $1,4097
  4038a8:	2b 00 00 00 28 75 1a 01 	l.d $f26,29992($1)
  4038b0:	a2 00 00 00 01 10 01 00 	lui $1,4097
  4038b8:	2b 00 00 00 c0 7d 1c 01 	l.d $f28,32192($1)
  4038c0:	75 00 00 00 00 02 1c 1a 	mul.d $f2,$f26,$f28
  4038c8:	a2 00 00 00 01 10 01 00 	lui $1,4097
  4038d0:	2b 00 00 00 e8 74 1a 01 	l.d $f26,29928($1)
  4038d8:	2b 00 00 00 00 00 1c 1d 	l.d $f28,0($29)
  4038e0:	75 00 00 00 00 1a 1c 1a 	mul.d $f26,$f26,$f28
  4038e8:	37 00 00 00 c8 04 1a 1d 	s.d $f26,1224($29)
  4038f0:	a2 00 00 00 01 10 01 00 	lui $1,4097
  4038f8:	2b 00 00 00 08 75 1a 01 	l.d $f26,29960($1)
  403900:	a2 00 00 00 01 10 01 00 	lui $1,4097
  403908:	2b 00 00 00 b0 7d 1c 01 	l.d $f28,32176($1)
  403910:	75 00 00 00 00 06 1c 1a 	mul.d $f6,$f26,$f28
  403918:	a2 00 00 00 01 10 01 00 	lui $1,4097
  403920:	2b 00 00 00 e8 74 1a 01 	l.d $f26,29928($1)
  403928:	2b 00 00 00 08 00 1c 1d 	l.d $f28,8($29)
  403930:	75 00 00 00 00 1a 1c 1a 	mul.d $f26,$f26,$f28
  403938:	37 00 00 00 d0 04 1a 1d 	s.d $f26,1232($29)
  403940:	a2 00 00 00 01 10 01 00 	lui $1,4097
  403948:	2b 00 00 00 10 75 1a 01 	l.d $f26,29968($1)
  403950:	a2 00 00 00 01 10 01 00 	lui $1,4097
  403958:	2b 00 00 00 b0 7d 1c 01 	l.d $f28,32176($1)
  403960:	37 00 00 00 c0 04 0c 1d 	s.d $f12,1216($29)
  403968:	75 00 00 00 00 0c 1c 1a 	mul.d $f12,$f26,$f28
  403970:	a2 00 00 00 01 10 01 00 	lui $1,4097
  403978:	2b 00 00 00 f0 74 1a 01 	l.d $f26,29936($1)
  403980:	75 00 00 00 00 1a 14 1a 	mul.d $f26,$f26,$f20
  403988:	a2 00 00 00 01 10 01 00 	lui $1,4097
  403990:	2b 00 00 00 00 75 1c 01 	l.d $f28,29952($1)
  403998:	37 00 00 00 d8 04 1a 1d 	s.d $f26,1240($29)
  4039a0:	a2 00 00 00 01 10 01 00 	lui $1,4097
  4039a8:	2b 00 00 00 b8 7d 1a 01 	l.d $f26,32184($1)
  4039b0:	75 00 00 00 00 0e 1a 1c 	mul.d $f14,$f28,$f26
  4039b8:	a2 00 00 00 01 10 01 00 	lui $1,4097
  4039c0:	2b 00 00 00 f0 74 1c 01 	l.d $f28,29936($1)
  4039c8:	2b 00 00 00 08 00 1a 1d 	l.d $f26,8($29)
  4039d0:	75 00 00 00 00 1c 1a 1c 	mul.d $f28,$f28,$f26
  4039d8:	37 00 00 00 e0 04 1c 1d 	s.d $f28,1248($29)
  4039e0:	a2 00 00 00 01 10 01 00 	lui $1,4097
  4039e8:	2b 00 00 00 10 75 1c 01 	l.d $f28,29968($1)
  4039f0:	a2 00 00 00 01 10 01 00 	lui $1,4097
  4039f8:	2b 00 00 00 b8 7d 1a 01 	l.d $f26,32184($1)
  403a00:	75 00 00 00 00 12 1a 1c 	mul.d $f18,$f28,$f26
  403a08:	a2 00 00 00 01 10 01 00 	lui $1,4097
  403a10:	2b 00 00 00 f8 74 1c 01 	l.d $f28,29944($1)
  403a18:	75 00 00 00 00 1c 14 1c 	mul.d $f28,$f28,$f20
  403a20:	a2 00 00 00 01 10 01 00 	lui $1,4097
  403a28:	2b 00 00 00 00 75 1a 01 	l.d $f26,29952($1)
  403a30:	71 00 00 00 00 1e 08 1e 	add.d $f30,$f30,$f8
  403a38:	37 00 00 00 e8 04 1c 1d 	s.d $f28,1256($29)
  403a40:	a2 00 00 00 01 10 01 00 	lui $1,4097
  403a48:	2b 00 00 00 c0 7d 1c 01 	l.d $f28,32192($1)
  403a50:	75 00 00 00 00 08 1c 1a 	mul.d $f8,$f26,$f28
  403a58:	2b 00 00 00 b8 04 1a 1d 	l.d $f26,1208($29)
  403a60:	71 00 00 00 00 04 04 1a 	add.d $f4,$f26,$f4
  403a68:	a2 00 00 00 01 10 01 00 	lui $1,4097
  403a70:	2b 00 00 00 f8 74 1c 01 	l.d $f28,29944($1)
  403a78:	2b 00 00 00 00 00 1a 1d 	l.d $f26,0($29)
  403a80:	75 00 00 00 00 1c 1a 1c 	mul.d $f28,$f28,$f26
  403a88:	71 00 00 00 00 1e 10 1e 	add.d $f30,$f30,$f16
  403a90:	37 00 00 00 10 00 1e 1d 	s.d $f30,16($29)
  403a98:	37 00 00 00 f0 04 1c 1d 	s.d $f28,1264($29)
  403aa0:	2b 00 00 00 a8 16 1c 1d 	l.d $f28,5800($29)
  403aa8:	71 00 00 00 00 04 1c 04 	add.d $f4,$f4,$f28
  403ab0:	2b 00 00 00 c0 04 1a 1d 	l.d $f26,1216($29)
  403ab8:	71 00 00 00 00 02 02 1a 	add.d $f2,$f26,$f2
  403ac0:	a2 00 00 00 01 10 01 00 	lui $1,4097
  403ac8:	2b 00 00 00 08 75 1c 01 	l.d $f28,29960($1)
  403ad0:	a2 00 00 00 01 10 01 00 	lui $1,4097
  403ad8:	2b 00 00 00 c0 7d 1a 01 	l.d $f26,32192($1)
  403ae0:	75 00 00 00 00 10 1a 1c 	mul.d $f16,$f28,$f26
  403ae8:	2b 00 00 00 a0 16 1c 1d 	l.d $f28,5792($29)
  403af0:	2b 00 00 00 c8 04 1a 1d 	l.d $f26,1224($29)
  403af8:	71 00 00 00 00 02 1c 02 	add.d $f2,$f2,$f28
  403b00:	37 00 00 00 18 00 04 1d 	s.d $f4,24($29)
  403b08:	71 00 00 00 00 04 06 1a 	add.d $f4,$f26,$f6
  403b10:	2b 00 00 00 10 00 1c 1d 	l.d $f28,16($29)
  403b18:	a2 00 00 00 01 10 01 00 	lui $1,4097
  403b20:	2b 00 00 00 d0 75 1a 01 	l.d $f26,30160($1)
  403b28:	75 00 00 00 00 1c 1a 1c 	mul.d $f28,$f28,$f26
  403b30:	37 00 00 00 f8 04 1c 1d 	s.d $f28,1272($29)
  403b38:	2b 00 00 00 d0 04 1c 1d 	l.d $f28,1232($29)
  403b40:	2b 00 00 00 d8 04 1a 1d 	l.d $f26,1240($29)
  403b48:	71 00 00 00 00 0c 0c 1c 	add.d $f12,$f28,$f12
  403b50:	37 00 00 00 20 00 02 1d 	s.d $f2,32($29)
  403b58:	71 00 00 00 00 02 0e 1a 	add.d $f2,$f26,$f14
  403b60:	a2 00 00 00 01 10 01 00 	lui $1,4097
  403b68:	2b 00 00 00 e0 75 1c 01 	l.d $f28,30176($1)
  403b70:	71 00 00 00 00 0c 18 0c 	add.d $f12,$f12,$f24
  403b78:	2b 00 00 00 e0 04 1a 1d 	l.d $f26,1248($29)
  403b80:	37 00 00 00 30 00 0c 1d 	s.d $f12,48($29)
  403b88:	75 00 00 00 00 0c 1c 0c 	mul.d $f12,$f12,$f28
  403b90:	71 00 00 00 00 06 12 1a 	add.d $f6,$f26,$f18
  403b98:	71 00 00 00 00 06 00 06 	add.d $f6,$f6,$f0
  403ba0:	2b 00 00 00 e8 04 1c 1d 	l.d $f28,1256($29)
  403ba8:	37 00 00 00 40 00 06 1d 	s.d $f6,64($29)
  403bb0:	71 00 00 00 00 06 08 1c 	add.d $f6,$f28,$f8
  403bb8:	2b 00 00 00 18 00 1a 1d 	l.d $f26,24($29)
  403bc0:	a2 00 00 00 01 10 01 00 	lui $1,4097
  403bc8:	2b 00 00 00 f8 75 1c 01 	l.d $f28,30200($1)
  403bd0:	71 00 00 00 00 04 16 04 	add.d $f4,$f4,$f22
  403bd8:	75 00 00 00 00 08 1c 1a 	mul.d $f8,$f26,$f28
  403be0:	a2 00 00 00 01 10 01 00 	lui $1,4097
  403be8:	2b 00 00 00 d8 75 1e 01 	l.d $f30,30168($1)
  403bf0:	71 00 00 00 00 02 16 02 	add.d $f2,$f2,$f22
  403bf8:	37 00 00 00 28 00 04 1d 	s.d $f4,40($29)
  403c00:	71 00 00 00 00 06 18 06 	add.d $f6,$f6,$f24
  403c08:	2b 00 00 00 f0 04 1a 1d 	l.d $f26,1264($29)
  403c10:	75 00 00 00 00 04 1e 04 	mul.d $f4,$f4,$f30
  403c18:	a2 00 00 00 01 10 01 00 	lui $1,4097
  403c20:	2b 00 00 00 f0 75 16 01 	l.d $f22,30192($1)
  403c28:	71 00 00 00 00 0e 10 1a 	add.d $f14,$f26,$f16
  403c30:	a2 00 00 00 01 10 01 00 	lui $1,4097
  403c38:	2b 00 00 00 00 76 18 01 	l.d $f24,30208($1)
  403c40:	2b 00 00 00 40 00 1c 1d 	l.d $f28,64($29)
  403c48:	71 00 00 00 00 0e 00 0e 	add.d $f14,$f14,$f0
  403c50:	37 00 00 00 38 00 02 1d 	s.d $f2,56($29)
  403c58:	75 00 00 00 00 02 16 02 	mul.d $f2,$f2,$f22
  403c60:	37 00 00 00 48 00 06 1d 	s.d $f6,72($29)
  403c68:	37 00 00 00 50 00 0e 1d 	s.d $f14,80($29)
  403c70:	2b 00 00 00 f8 04 1a 1d 	l.d $f26,1272($29)
  403c78:	71 00 00 00 00 00 04 1a 	add.d $f0,$f26,$f4
  403c80:	75 00 00 00 00 06 18 1c 	mul.d $f6,$f28,$f24
  403c88:	71 00 00 00 00 00 0c 00 	add.d $f0,$f0,$f12
  403c90:	71 00 00 00 00 00 02 00 	add.d $f0,$f0,$f2
  403c98:	a2 00 00 00 01 10 01 00 	lui $1,4097
  403ca0:	2b 00 00 00 18 76 10 01 	l.d $f16,30232($1)
  403ca8:	75 00 00 00 00 02 10 0e 	mul.d $f2,$f14,$f16
  403cb0:	a2 00 00 00 01 10 01 00 	lui $1,4097
  403cb8:	2b 00 00 00 10 76 12 01 	l.d $f18,30224($1)
  403cc0:	2b 00 00 00 48 00 1c 1d 	l.d $f28,72($29)
  403cc8:	75 00 00 00 00 04 12 1c 	mul.d $f4,$f28,$f18
  403cd0:	71 00 00 00 00 00 08 00 	add.d $f0,$f0,$f8
  403cd8:	2b 00 00 00 20 00 1a 1d 	l.d $f26,32($29)
  403ce0:	71 00 00 00 00 06 06 00 	add.d $f6,$f0,$f6
  403ce8:	a2 00 00 00 01 10 01 00 	lui $1,4097
  403cf0:	2b 00 00 00 20 76 0e 01 	l.d $f14,30240($1)
  403cf8:	75 00 00 00 00 00 0e 1a 	mul.d $f0,$f26,$f14
  403d00:	71 00 00 00 00 04 04 06 	add.d $f4,$f6,$f4
  403d08:	2b 00 00 00 00 01 1c 1d 	l.d $f28,256($29)
  403d10:	a2 00 00 00 01 10 01 00 	lui $1,4097
  403d18:	2b 00 00 00 b8 75 1a 01 	l.d $f26,30136($1)
  403d20:	71 00 00 00 00 02 02 04 	add.d $f2,$f4,$f2
  403d28:	75 00 00 00 00 1c 1a 1c 	mul.d $f28,$f28,$f26
  403d30:	71 00 00 00 00 00 00 02 	add.d $f0,$f2,$f0
  403d38:	a2 00 00 00 01 10 01 00 	lui $1,4097
  403d40:	2b 00 00 00 00 7f 08 01 	l.d $f8,32512($1)
  403d48:	75 00 00 00 00 02 08 00 	mul.d $f2,$f0,$f8
  403d50:	37 00 00 00 a8 04 1c 1d 	s.d $f28,1192($29)
  403d58:	2b 00 00 00 00 01 1c 1d 	l.d $f28,256($29)
  403d60:	a2 00 00 00 01 10 01 00 	lui $1,4097
  403d68:	2b 00 00 00 c0 75 1a 01 	l.d $f26,30144($1)
  403d70:	75 00 00 00 00 1c 1a 1c 	mul.d $f28,$f28,$f26
  403d78:	a2 00 00 00 01 10 01 00 	lui $1,4097
  403d80:	2b 00 00 00 90 7e 00 01 	l.d $f0,32400($1)
  403d88:	71 00 00 00 00 00 0a 00 	add.d $f0,$f0,$f10
  403d90:	37 00 00 00 b0 04 1c 1d 	s.d $f28,1200($29)
  403d98:	2b 00 00 00 a0 04 1c 1d 	l.d $f28,1184($29)
  403da0:	2b 00 00 00 a8 04 1a 1d 	l.d $f26,1192($29)
  403da8:	71 00 00 00 00 02 02 00 	add.d $f2,$f0,$f2
  403db0:	a2 00 00 00 01 10 01 00 	lui $1,4097
  403db8:	37 00 00 00 b0 7e 1c 01 	s.d $f28,32432($1)
  403dc0:	2b 00 00 00 b0 04 1c 1d 	l.d $f28,1200($29)
  403dc8:	37 00 00 00 00 05 02 1d 	s.d $f2,1280($29)
  403dd0:	a2 00 00 00 01 10 01 00 	lui $1,4097
  403dd8:	37 00 00 00 d0 7e 1a 01 	s.d $f26,32464($1)
  403de0:	2b 00 00 00 00 05 1a 1d 	l.d $f26,1280($29)
  403de8:	a2 00 00 00 01 10 01 00 	lui $1,4097
  403df0:	37 00 00 00 90 7e 00 01 	s.d $f0,32400($1)
  403df8:	a2 00 00 00 01 10 01 00 	lui $1,4097
  403e00:	37 00 00 00 f0 7e 1c 01 	s.d $f28,32496($1)
  403e08:	a2 00 00 00 01 10 01 00 	lui $1,4097
  403e10:	37 00 00 00 90 7e 1a 01 	s.d $f26,32400($1)
  403e18:	a2 00 00 00 01 10 01 00 	lui $1,4097
  403e20:	2b 00 00 00 88 71 0c 01 	l.d $f12,29064($1)
  403e28:	a2 00 00 00 01 10 01 00 	lui $1,4097
  403e30:	2b 00 00 00 d0 75 1c 01 	l.d $f28,30160($1)
  403e38:	75 00 00 00 00 1c 1c 0c 	mul.d $f28,$f12,$f28
  403e40:	75 00 00 00 00 1a 1e 0c 	mul.d $f26,$f12,$f30
  403e48:	a2 00 00 00 01 10 01 00 	lui $1,4097
  403e50:	2b 00 00 00 90 71 00 01 	l.d $f0,29072($1)
  403e58:	a2 00 00 00 01 10 01 00 	lui $1,4097
  403e60:	2b 00 00 00 98 71 02 01 	l.d $f2,29080($1)
  403e68:	75 00 00 00 00 06 16 00 	mul.d $f6,$f0,$f22
  403e70:	37 00 00 00 08 05 1c 1d 	s.d $f28,1288($29)
  403e78:	37 00 00 00 28 05 1a 1d 	s.d $f26,1320($29)
  403e80:	a2 00 00 00 01 10 01 00 	lui $1,4097
  403e88:	2b 00 00 00 f8 75 1c 01 	l.d $f28,30200($1)
  403e90:	2b 00 00 00 08 05 1a 1d 	l.d $f26,1288($29)
  403e98:	75 00 00 00 00 04 1c 00 	mul.d $f4,$f0,$f28
  403ea0:	71 00 00 00 00 06 06 1a 	add.d $f6,$f26,$f6
  403ea8:	37 00 00 00 10 05 06 1d 	s.d $f6,1296($29)
  403eb0:	75 00 00 00 00 06 10 02 	mul.d $f6,$f2,$f16
  403eb8:	2b 00 00 00 28 05 1a 1d 	l.d $f26,1320($29)
  403ec0:	75 00 00 00 00 0a 12 02 	mul.d $f10,$f2,$f18
  403ec8:	71 00 00 00 00 04 04 1a 	add.d $f4,$f26,$f4
  403ed0:	71 00 00 00 00 04 06 04 	add.d $f4,$f4,$f6
  403ed8:	2b 00 00 00 10 05 1c 1d 	l.d $f28,1296($29)
  403ee0:	75 00 00 00 00 04 08 04 	mul.d $f4,$f4,$f8
  403ee8:	71 00 00 00 00 0a 0a 1c 	add.d $f10,$f28,$f10
  403ef0:	a2 00 00 00 01 10 01 00 	lui $1,4097
  403ef8:	2b 00 00 00 e0 75 1c 01 	l.d $f28,30176($1)
  403f00:	75 00 00 00 00 0c 1c 0c 	mul.d $f12,$f12,$f28
  403f08:	a2 00 00 00 01 10 01 00 	lui $1,4097
  403f10:	2b 00 00 00 d0 75 1a 01 	l.d $f26,30160($1)
  403f18:	37 00 00 00 30 05 04 1d 	s.d $f4,1328($29)
  403f20:	75 00 00 00 00 04 1a 14 	mul.d $f4,$f20,$f26
  403f28:	2b 00 00 00 00 00 1c 1d 	l.d $f28,0($29)
  403f30:	75 00 00 00 00 1e 1e 1c 	mul.d $f30,$f28,$f30
  403f38:	75 00 00 00 00 00 18 00 	mul.d $f0,$f0,$f24
  403f40:	2b 00 00 00 08 00 1a 1d 	l.d $f26,8($29)
  403f48:	a2 00 00 00 01 10 01 00 	lui $1,4097
  403f50:	2b 00 00 00 e0 75 1c 01 	l.d $f28,30176($1)
  403f58:	75 00 00 00 00 1a 1c 1a 	mul.d $f26,$f26,$f28
  403f60:	71 00 00 00 00 0c 00 0c 	add.d $f12,$f12,$f0
  403f68:	71 00 00 00 00 00 1e 04 	add.d $f0,$f4,$f30
  403f70:	75 00 00 00 00 16 16 14 	mul.d $f22,$f20,$f22
  403f78:	37 00 00 00 a0 16 1a 1d 	s.d $f26,5792($29)
  403f80:	71 00 00 00 00 00 1a 00 	add.d $f0,$f0,$f26
  403f88:	a2 00 00 00 01 10 01 00 	lui $1,4097
  403f90:	2b 00 00 00 f8 75 1c 01 	l.d $f28,30200($1)
  403f98:	2b 00 00 00 00 00 1a 1d 	l.d $f26,0($29)
  403fa0:	75 00 00 00 00 1a 1c 1a 	mul.d $f26,$f26,$f28
  403fa8:	75 00 00 00 00 12 12 14 	mul.d $f18,$f20,$f18
  403fb0:	37 00 00 00 a8 16 1a 1d 	s.d $f26,5800($29)
  403fb8:	2b 00 00 00 08 00 1a 1d 	l.d $f26,8($29)
  403fc0:	75 00 00 00 00 18 18 1a 	mul.d $f24,$f26,$f24
  403fc8:	2b 00 00 00 00 00 1c 1d 	l.d $f28,0($29)
  403fd0:	75 00 00 00 00 10 10 1c 	mul.d $f16,$f28,$f16
  403fd8:	75 00 00 00 00 02 0e 02 	mul.d $f2,$f2,$f14
  403fe0:	2b 00 00 00 08 00 1c 1d 	l.d $f28,8($29)
  403fe8:	2b 00 00 00 a8 16 1a 1d 	l.d $f26,5800($29)
  403ff0:	75 00 00 00 00 0e 0e 1c 	mul.d $f14,$f28,$f14
  403ff8:	71 00 00 00 00 16 1a 16 	add.d $f22,$f22,$f26
  404000:	71 00 00 00 00 12 10 12 	add.d $f18,$f18,$f16
  404008:	a2 00 00 00 01 10 01 00 	lui $1,4097
  404010:	2b 00 00 00 00 75 1a 01 	l.d $f26,29952($1)
  404018:	a2 00 00 00 01 10 01 00 	lui $1,4097
  404020:	2b 00 00 00 a0 71 1c 01 	l.d $f28,29088($1)
  404028:	75 00 00 00 00 10 1c 1a 	mul.d $f16,$f26,$f28
  404030:	75 00 00 00 00 00 08 00 	mul.d $f0,$f0,$f8
  404038:	a2 00 00 00 01 10 01 00 	lui $1,4097
  404040:	2b 00 00 00 70 74 1a 01 	l.d $f26,29808($1)
  404048:	a2 00 00 00 01 10 01 00 	lui $1,4097
  404050:	2b 00 00 00 b0 7d 1c 01 	l.d $f28,32176($1)
  404058:	37 00 00 00 48 05 00 1d 	s.d $f0,1352($29)
  404060:	75 00 00 00 00 00 1c 1a 	mul.d $f0,$f26,$f28
  404068:	75 00 00 00 00 0a 08 0a 	mul.d $f10,$f10,$f8
  404070:	a2 00 00 00 01 10 01 00 	lui $1,4097
  404078:	2b 00 00 00 08 75 1a 01 	l.d $f26,29960($1)
  404080:	a2 00 00 00 01 10 01 00 	lui $1,4097
  404088:	2b 00 00 00 a0 71 1c 01 	l.d $f28,29088($1)
  404090:	75 00 00 00 00 1e 1c 1a 	mul.d $f30,$f26,$f28
  404098:	71 00 00 00 00 0c 02 0c 	add.d $f12,$f12,$f2
  4040a0:	75 00 00 00 00 0c 08 0c 	mul.d $f12,$f12,$f8
  4040a8:	a2 00 00 00 01 10 01 00 	lui $1,4097
  4040b0:	2b 00 00 00 70 74 1a 01 	l.d $f26,29808($1)
  4040b8:	a2 00 00 00 01 10 01 00 	lui $1,4097
  4040c0:	2b 00 00 00 b8 7d 1c 01 	l.d $f28,32184($1)
  4040c8:	75 00 00 00 00 02 1c 1a 	mul.d $f2,$f26,$f28
  4040d0:	71 00 00 00 00 16 18 16 	add.d $f22,$f22,$f24
  4040d8:	75 00 00 00 00 16 08 16 	mul.d $f22,$f22,$f8
  4040e0:	a2 00 00 00 01 10 01 00 	lui $1,4097
  4040e8:	2b 00 00 00 10 75 1a 01 	l.d $f26,29968($1)
  4040f0:	a2 00 00 00 01 10 01 00 	lui $1,4097
  4040f8:	2b 00 00 00 a0 71 1c 01 	l.d $f28,29088($1)
  404100:	75 00 00 00 00 1a 1c 1a 	mul.d $f26,$f26,$f28
  404108:	71 00 00 00 00 12 0e 12 	add.d $f18,$f18,$f14
  404110:	75 00 00 00 00 12 08 12 	mul.d $f18,$f18,$f8
  404118:	37 00 00 00 18 05 0a 1d 	s.d $f10,1304($29)
  404120:	37 00 00 00 68 05 1a 1d 	s.d $f26,1384($29)
  404128:	a2 00 00 00 01 10 01 00 	lui $1,4097
  404130:	2b 00 00 00 70 74 1a 01 	l.d $f26,29808($1)
  404138:	a2 00 00 00 01 10 01 00 	lui $1,4097
  404140:	2b 00 00 00 c0 7d 1c 01 	l.d $f28,32192($1)
  404148:	75 00 00 00 00 04 1c 1a 	mul.d $f4,$f26,$f28
  404150:	a2 00 00 00 01 10 01 00 	lui $1,4097
  404158:	2b 00 00 00 a8 71 08 01 	l.d $f8,29096($1)
  404160:	a2 00 00 00 01 10 01 00 	lui $1,4097
  404168:	2b 00 00 00 00 75 1a 01 	l.d $f26,29952($1)
  404170:	75 00 00 00 00 1a 08 1a 	mul.d $f26,$f26,$f8
  404178:	a2 00 00 00 01 10 01 00 	lui $1,4097
  404180:	2b 00 00 00 78 74 1c 01 	l.d $f28,29816($1)
  404188:	37 00 00 00 70 05 1a 1d 	s.d $f26,1392($29)
  404190:	a2 00 00 00 01 10 01 00 	lui $1,4097
  404198:	2b 00 00 00 b0 7d 1a 01 	l.d $f26,32176($1)
  4041a0:	75 00 00 00 00 0a 1a 1c 	mul.d $f10,$f28,$f26
  4041a8:	a2 00 00 00 01 10 01 00 	lui $1,4097
  4041b0:	2b 00 00 00 08 75 1c 01 	l.d $f28,29960($1)
  4041b8:	75 00 00 00 00 1c 08 1c 	mul.d $f28,$f28,$f8
  4041c0:	a2 00 00 00 01 10 01 00 	lui $1,4097
  4041c8:	2b 00 00 00 78 74 1a 01 	l.d $f26,29816($1)
  4041d0:	37 00 00 00 78 05 1c 1d 	s.d $f28,1400($29)
  4041d8:	a2 00 00 00 01 10 01 00 	lui $1,4097
  4041e0:	2b 00 00 00 b8 7d 1c 01 	l.d $f28,32184($1)
  4041e8:	75 00 00 00 00 0e 1c 1a 	mul.d $f14,$f26,$f28
  4041f0:	a2 00 00 00 01 10 01 00 	lui $1,4097
  4041f8:	2b 00 00 00 10 75 1a 01 	l.d $f26,29968($1)
  404200:	75 00 00 00 00 1a 08 1a 	mul.d $f26,$f26,$f8
  404208:	a2 00 00 00 01 10 01 00 	lui $1,4097
  404210:	2b 00 00 00 78 74 1c 01 	l.d $f28,29816($1)
  404218:	37 00 00 00 80 05 1a 1d 	s.d $f26,1408($29)
  404220:	a2 00 00 00 01 10 01 00 	lui $1,4097
  404228:	2b 00 00 00 c0 7d 1a 01 	l.d $f26,32192($1)
  404230:	75 00 00 00 00 18 1a 1c 	mul.d $f24,$f28,$f26
  404238:	a2 00 00 00 01 10 01 00 	lui $1,4097
  404240:	2b 00 00 00 b0 71 06 01 	l.d $f6,29104($1)
  404248:	a2 00 00 00 01 10 01 00 	lui $1,4097
  404250:	2b 00 00 00 00 75 1c 01 	l.d $f28,29952($1)
  404258:	75 00 00 00 00 1c 06 1c 	mul.d $f28,$f28,$f6
  404260:	a2 00 00 00 01 10 01 00 	lui $1,4097
  404268:	2b 00 00 00 80 74 1a 01 	l.d $f26,29824($1)
  404270:	37 00 00 00 88 05 1c 1d 	s.d $f28,1416($29)
  404278:	a2 00 00 00 01 10 01 00 	lui $1,4097
  404280:	2b 00 00 00 b0 7d 1c 01 	l.d $f28,32176($1)
  404288:	75 00 00 00 00 1a 1c 1a 	mul.d $f26,$f26,$f28
  404290:	37 00 00 00 a8 16 1a 1d 	s.d $f26,5800($29)
  404298:	a2 00 00 00 01 10 01 00 	lui $1,4097
  4042a0:	2b 00 00 00 08 75 1a 01 	l.d $f26,29960($1)
  4042a8:	75 00 00 00 00 1a 06 1a 	mul.d $f26,$f26,$f6
  4042b0:	a2 00 00 00 01 10 01 00 	lui $1,4097
  4042b8:	2b 00 00 00 80 74 1c 01 	l.d $f28,29824($1)
  4042c0:	37 00 00 00 90 05 1a 1d 	s.d $f26,1424($29)
  4042c8:	a2 00 00 00 01 10 01 00 	lui $1,4097
  4042d0:	2b 00 00 00 b8 7d 1a 01 	l.d $f26,32184($1)
  4042d8:	75 00 00 00 00 1c 1a 1c 	mul.d $f28,$f28,$f26
  4042e0:	37 00 00 00 98 05 1c 1d 	s.d $f28,1432($29)
  4042e8:	a2 00 00 00 01 10 01 00 	lui $1,4097
  4042f0:	2b 00 00 00 10 75 1c 01 	l.d $f28,29968($1)
  4042f8:	75 00 00 00 00 1c 06 1c 	mul.d $f28,$f28,$f6
  404300:	a2 00 00 00 01 10 01 00 	lui $1,4097
  404308:	2b 00 00 00 80 74 1a 01 	l.d $f26,29824($1)
  404310:	37 00 00 00 a0 05 1c 1d 	s.d $f28,1440($29)
  404318:	a2 00 00 00 01 10 01 00 	lui $1,4097
  404320:	2b 00 00 00 c0 7d 1c 01 	l.d $f28,32192($1)
  404328:	75 00 00 00 00 1a 1c 1a 	mul.d $f26,$f26,$f28
  404330:	71 00 00 00 00 00 00 10 	add.d $f0,$f16,$f0
  404338:	37 00 00 00 a8 05 1a 1d 	s.d $f26,1448($29)
  404340:	a2 00 00 00 01 10 01 00 	lui $1,4097
  404348:	2b 00 00 00 d0 7d 1a 01 	l.d $f26,32208($1)
  404350:	71 00 00 00 00 00 1a 00 	add.d $f0,$f0,$f26
  404358:	a2 00 00 00 01 10 01 00 	lui $1,4097
  404360:	2b 00 00 00 30 76 1c 01 	l.d $f28,30256($1)
  404368:	a2 00 00 00 01 10 01 00 	lui $1,4097
  404370:	2b 00 00 00 d8 7d 1a 01 	l.d $f26,32216($1)
  404378:	71 00 00 00 00 10 02 1e 	add.d $f16,$f30,$f2
  404380:	37 00 00 00 58 00 00 1d 	s.d $f0,88($29)
  404388:	75 00 00 00 00 00 1c 00 	mul.d $f0,$f0,$f28
  404390:	71 00 00 00 00 10 1a 10 	add.d $f16,$f16,$f26
  404398:	37 00 00 00 60 00 10 1d 	s.d $f16,96($29)
  4043a0:	a2 00 00 00 01 10 01 00 	lui $1,4097
  4043a8:	2b 00 00 00 38 76 1a 01 	l.d $f26,30264($1)
  4043b0:	2b 00 00 00 68 05 1c 1d 	l.d $f28,1384($29)
  4043b8:	75 00 00 00 00 10 1a 10 	mul.d $f16,$f16,$f26
  4043c0:	71 00 00 00 00 02 04 1c 	add.d $f2,$f28,$f4
  4043c8:	a2 00 00 00 01 10 01 00 	lui $1,4097
  4043d0:	2b 00 00 00 e0 7d 1c 01 	l.d $f28,32224($1)
  4043d8:	71 00 00 00 00 02 1c 02 	add.d $f2,$f2,$f28
  4043e0:	2b 00 00 00 70 05 1a 1d 	l.d $f26,1392($29)
  4043e8:	71 00 00 00 00 04 0a 1a 	add.d $f4,$f26,$f10
  4043f0:	a2 00 00 00 01 10 01 00 	lui $1,4097
  4043f8:	2b 00 00 00 40 76 1c 01 	l.d $f28,30272($1)
  404400:	75 00 00 00 00 1c 1c 02 	mul.d $f28,$f2,$f28
  404408:	a2 00 00 00 01 10 01 00 	lui $1,4097
  404410:	2b 00 00 00 d8 7d 1a 01 	l.d $f26,32216($1)
  404418:	71 00 00 00 00 04 1a 04 	add.d $f4,$f4,$f26
  404420:	a2 00 00 00 01 10 01 00 	lui $1,4097
  404428:	2b 00 00 00 b0 76 1e 01 	l.d $f30,30384($1)
  404430:	75 00 00 00 00 1a 1e 04 	mul.d $f26,$f4,$f30
  404438:	37 00 00 00 b8 05 1c 1d 	s.d $f28,1464($29)
  404440:	2b 00 00 00 78 05 1c 1d 	l.d $f28,1400($29)
  404448:	71 00 00 00 00 0a 0e 1c 	add.d $f10,$f28,$f14
  404450:	37 00 00 00 c0 05 1a 1d 	s.d $f26,1472($29)
  404458:	2b 00 00 00 80 05 1a 1d 	l.d $f26,1408($29)
  404460:	37 00 00 00 70 00 04 1d 	s.d $f4,112($29)
  404468:	71 00 00 00 00 04 18 1a 	add.d $f4,$f26,$f24
  404470:	a2 00 00 00 01 10 01 00 	lui $1,4097
  404478:	2b 00 00 00 28 7e 1c 01 	l.d $f28,32296($1)
  404480:	71 00 00 00 00 0a 1c 0a 	add.d $f10,$f10,$f28
  404488:	a2 00 00 00 01 10 01 00 	lui $1,4097
  404490:	2b 00 00 00 b8 76 0e 01 	l.d $f14,30392($1)
  404498:	a2 00 00 00 01 10 01 00 	lui $1,4097
  4044a0:	2b 00 00 00 30 7e 1a 01 	l.d $f26,32304($1)
  4044a8:	75 00 00 00 00 1c 0e 0a 	mul.d $f28,$f10,$f14
  4044b0:	71 00 00 00 00 04 1a 04 	add.d $f4,$f4,$f26
  4044b8:	2b 00 00 00 a8 16 1a 1d 	l.d $f26,5800($29)
  4044c0:	37 00 00 00 c8 05 1c 1d 	s.d $f28,1480($29)
  4044c8:	2b 00 00 00 88 05 1c 1d 	l.d $f28,1416($29)
  4044d0:	37 00 00 00 68 00 02 1d 	s.d $f2,104($29)
  4044d8:	71 00 00 00 00 02 1a 1c 	add.d $f2,$f28,$f26
  4044e0:	a2 00 00 00 01 10 01 00 	lui $1,4097
  4044e8:	2b 00 00 00 e0 7d 1c 01 	l.d $f28,32224($1)
  4044f0:	71 00 00 00 00 02 1c 02 	add.d $f2,$f2,$f28
  4044f8:	2b 00 00 00 90 05 1a 1d 	l.d $f26,1424($29)
  404500:	2b 00 00 00 98 05 1c 1d 	l.d $f28,1432($29)
  404508:	37 00 00 00 88 00 02 1d 	s.d $f2,136($29)
  404510:	71 00 00 00 00 02 1c 1a 	add.d $f2,$f26,$f28
  404518:	2b 00 00 00 88 00 1a 1d 	l.d $f26,136($29)
  404520:	a2 00 00 00 01 10 01 00 	lui $1,4097
  404528:	2b 00 00 00 30 77 1c 01 	l.d $f28,30512($1)
  404530:	75 00 00 00 00 18 1c 1a 	mul.d $f24,$f26,$f28
  404538:	a2 00 00 00 01 10 01 00 	lui $1,4097
  404540:	2b 00 00 00 30 7e 1a 01 	l.d $f26,32304($1)
  404548:	37 00 00 00 78 00 0a 1d 	s.d $f10,120($29)
  404550:	a2 00 00 00 01 10 01 00 	lui $1,4097
  404558:	2b 00 00 00 c0 76 0a 01 	l.d $f10,30400($1)
  404560:	71 00 00 00 00 02 1a 02 	add.d $f2,$f2,$f26
  404568:	37 00 00 00 80 00 04 1d 	s.d $f4,128($29)
  404570:	37 00 00 00 90 00 02 1d 	s.d $f2,144($29)
  404578:	2b 00 00 00 a0 05 1c 1d 	l.d $f28,1440($29)
  404580:	2b 00 00 00 a8 05 1a 1d 	l.d $f26,1448($29)
  404588:	71 00 00 00 00 1c 1a 1c 	add.d $f28,$f28,$f26
  404590:	37 00 00 00 b0 05 1c 1d 	s.d $f28,1456($29)
  404598:	a2 00 00 00 01 10 01 00 	lui $1,4097
  4045a0:	2b 00 00 00 38 77 1c 01 	l.d $f28,30520($1)
  4045a8:	75 00 00 00 00 02 1c 02 	mul.d $f2,$f2,$f28
  4045b0:	2b 00 00 00 b0 05 1a 1d 	l.d $f26,1456($29)
  4045b8:	a2 00 00 00 01 10 01 00 	lui $1,4097
  4045c0:	2b 00 00 00 68 7e 1c 01 	l.d $f28,32360($1)
  4045c8:	71 00 00 00 00 1a 1c 1a 	add.d $f26,$f26,$f28
  4045d0:	71 00 00 00 00 00 10 00 	add.d $f0,$f0,$f16
  4045d8:	a2 00 00 00 01 10 01 00 	lui $1,4097
  4045e0:	2b 00 00 00 40 77 1c 01 	l.d $f28,30528($1)
  4045e8:	75 00 00 00 00 10 1c 1a 	mul.d $f16,$f26,$f28
  4045f0:	37 00 00 00 98 00 1a 1d 	s.d $f26,152($29)
  4045f8:	2b 00 00 00 b8 05 1a 1d 	l.d $f26,1464($29)
  404600:	71 00 00 00 00 00 1a 00 	add.d $f0,$f0,$f26
  404608:	2b 00 00 00 c0 05 1c 1d 	l.d $f28,1472($29)
  404610:	71 00 00 00 00 00 1c 00 	add.d $f0,$f0,$f28
  404618:	a2 00 00 00 01 10 01 00 	lui $1,4097
  404620:	2b 00 00 00 a0 71 1a 01 	l.d $f26,29088($1)
  404628:	a2 00 00 00 01 10 01 00 	lui $1,4097
  404630:	2b 00 00 00 30 76 1c 01 	l.d $f28,30256($1)
  404638:	75 00 00 00 00 1a 1c 1a 	mul.d $f26,$f26,$f28
  404640:	75 00 00 00 00 04 0a 04 	mul.d $f4,$f4,$f10
  404648:	37 00 00 00 d8 05 1a 1d 	s.d $f26,1496($29)
  404650:	2b 00 00 00 c8 05 1a 1d 	l.d $f26,1480($29)
  404658:	71 00 00 00 00 00 1a 00 	add.d $f0,$f0,$f26
  404660:	71 00 00 00 00 00 04 00 	add.d $f0,$f0,$f4
  404668:	71 00 00 00 00 00 18 00 	add.d $f0,$f0,$f24
  404670:	75 00 00 00 00 04 1e 08 	mul.d $f4,$f8,$f30
  404678:	71 00 00 00 00 00 02 00 	add.d $f0,$f0,$f2
  404680:	a2 00 00 00 01 10 01 00 	lui $1,4097
  404688:	2b 00 00 00 30 77 1c 01 	l.d $f28,30512($1)
  404690:	2b 00 00 00 d8 05 1a 1d 	l.d $f26,1496($29)
  404698:	75 00 00 00 00 02 1c 06 	mul.d $f2,$f6,$f28
  4046a0:	71 00 00 00 00 04 04 1a 	add.d $f4,$f26,$f4
  4046a8:	71 00 00 00 00 00 10 00 	add.d $f0,$f0,$f16
  4046b0:	a2 00 00 00 01 10 01 00 	lui $1,4097
  4046b8:	2b 00 00 00 38 76 1a 01 	l.d $f26,30264($1)
  4046c0:	a2 00 00 00 01 10 01 00 	lui $1,4097
  4046c8:	2b 00 00 00 a0 71 1c 01 	l.d $f28,29088($1)
  4046d0:	75 00 00 00 00 10 1a 1c 	mul.d $f16,$f28,$f26
  4046d8:	71 00 00 00 00 02 02 04 	add.d $f2,$f4,$f2
  4046e0:	a2 00 00 00 01 10 01 00 	lui $1,4097
  4046e8:	2b 00 00 00 08 7f 18 01 	l.d $f24,32520($1)
  4046f0:	75 00 00 00 00 02 18 02 	mul.d $f2,$f2,$f24
  4046f8:	a2 00 00 00 01 10 01 00 	lui $1,4097
  404700:	2b 00 00 00 38 77 1c 01 	l.d $f28,30520($1)
  404708:	75 00 00 00 00 04 1c 06 	mul.d $f4,$f6,$f28
  404710:	37 00 00 00 e0 05 02 1d 	s.d $f2,1504($29)
  404718:	75 00 00 00 00 02 0e 08 	mul.d $f2,$f8,$f14
  404720:	a2 00 00 00 01 10 01 00 	lui $1,4097
  404728:	2b 00 00 00 a0 71 1a 01 	l.d $f26,29088($1)
  404730:	a2 00 00 00 01 10 01 00 	lui $1,4097
  404738:	2b 00 00 00 40 76 1c 01 	l.d $f28,30272($1)
  404740:	75 00 00 00 00 1a 1c 1a 	mul.d $f26,$f26,$f28
  404748:	75 00 00 00 00 08 0a 08 	mul.d $f8,$f8,$f10
  404750:	71 00 00 00 00 02 02 10 	add.d $f2,$f16,$f2
  404758:	37 00 00 00 a0 16 1a 1d 	s.d $f26,5792($29)
  404760:	2b 00 00 00 a0 16 1c 1d 	l.d $f28,5792($29)
  404768:	a2 00 00 00 01 10 01 00 	lui $1,4097
  404770:	2b 00 00 00 40 77 1a 01 	l.d $f26,30528($1)
  404778:	71 00 00 00 00 08 08 1c 	add.d $f8,$f28,$f8
  404780:	75 00 00 00 00 06 1a 06 	mul.d $f6,$f6,$f26
  404788:	71 00 00 00 00 02 04 02 	add.d $f2,$f2,$f4
  404790:	37 00 00 00 a0 16 08 1d 	s.d $f8,5792($29)
  404798:	a2 00 00 00 01 10 01 00 	lui $1,4097
  4047a0:	2b 00 00 00 30 76 1c 01 	l.d $f28,30256($1)
  4047a8:	75 00 00 00 00 04 1c 14 	mul.d $f4,$f20,$f28
  4047b0:	71 00 00 00 00 06 06 08 	add.d $f6,$f8,$f6
  4047b8:	37 00 00 00 a0 16 06 1d 	s.d $f6,5792($29)
  4047c0:	75 00 00 00 00 1a 18 06 	mul.d $f26,$f6,$f24
  4047c8:	75 00 00 00 00 02 18 02 	mul.d $f2,$f2,$f24
  4047d0:	a2 00 00 00 01 10 01 00 	lui $1,4097
  4047d8:	2b 00 00 00 38 76 1c 01 	l.d $f28,30264($1)
  4047e0:	37 00 00 00 a0 16 1a 1d 	s.d $f26,5792($29)
  4047e8:	2b 00 00 00 00 00 1a 1d 	l.d $f26,0($29)
  4047f0:	37 00 00 00 e8 05 02 1d 	s.d $f2,1512($29)
  4047f8:	75 00 00 00 00 02 1c 1a 	mul.d $f2,$f26,$f28
  404800:	2b 00 00 00 08 00 1a 1d 	l.d $f26,8($29)
  404808:	a2 00 00 00 01 10 01 00 	lui $1,4097
  404810:	2b 00 00 00 40 76 1c 01 	l.d $f28,30272($1)
  404818:	75 00 00 00 00 06 1c 1a 	mul.d $f6,$f26,$f28
  404820:	2b 00 00 00 00 00 1a 1d 	l.d $f26,0($29)
  404828:	75 00 00 00 00 0e 0e 1a 	mul.d $f14,$f26,$f14
  404830:	2b 00 00 00 08 00 1c 1d 	l.d $f28,8($29)
  404838:	75 00 00 00 00 0a 0a 1c 	mul.d $f10,$f28,$f10
  404840:	71 00 00 00 00 02 02 04 	add.d $f2,$f4,$f2
  404848:	71 00 00 00 00 02 06 02 	add.d $f2,$f2,$f6
  404850:	2b 00 00 00 a0 04 1a 1d 	l.d $f26,1184($29)
  404858:	2b 00 00 00 18 05 1c 1d 	l.d $f28,1304($29)
  404860:	71 00 00 00 00 1a 1c 1a 	add.d $f26,$f26,$f28
  404868:	75 00 00 00 00 02 18 02 	mul.d $f2,$f2,$f24
  404870:	37 00 00 00 20 05 1a 1d 	s.d $f26,1312($29)
  404878:	2b 00 00 00 a8 04 1a 1d 	l.d $f26,1192($29)
  404880:	2b 00 00 00 30 05 1c 1d 	l.d $f28,1328($29)
  404888:	71 00 00 00 00 1a 1c 1a 	add.d $f26,$f26,$f28
  404890:	37 00 00 00 f0 05 02 1d 	s.d $f2,1520($29)
  404898:	a2 00 00 00 01 10 01 00 	lui $1,4097
  4048a0:	2b 00 00 00 a8 7e 02 01 	l.d $f2,32424($1)
  4048a8:	a2 00 00 00 01 10 01 00 	lui $1,4097
  4048b0:	2b 00 00 00 30 77 1c 01 	l.d $f28,30512($1)
  4048b8:	37 00 00 00 38 05 1a 1d 	s.d $f26,1336($29)
  4048c0:	2b 00 00 00 48 05 1a 1d 	l.d $f26,1352($29)
  4048c8:	75 00 00 00 00 1c 1c 14 	mul.d $f28,$f20,$f28
  4048d0:	71 00 00 00 00 02 1a 02 	add.d $f2,$f2,$f26
  4048d8:	a2 00 00 00 01 10 01 00 	lui $1,4097
  4048e0:	2b 00 00 00 c8 7e 04 01 	l.d $f4,32456($1)
  4048e8:	37 00 00 00 50 05 02 1d 	s.d $f2,1360($29)
  4048f0:	37 00 00 00 a8 16 1c 1d 	s.d $f28,5800($29)
  4048f8:	2b 00 00 00 00 00 1a 1d 	l.d $f26,0($29)
  404900:	a2 00 00 00 01 10 01 00 	lui $1,4097
  404908:	2b 00 00 00 38 77 1c 01 	l.d $f28,30520($1)
  404910:	75 00 00 00 00 1a 1c 1a 	mul.d $f26,$f26,$f28
  404918:	71 00 00 00 00 04 16 04 	add.d $f4,$f4,$f22
  404920:	37 00 00 00 08 06 1a 1d 	s.d $f26,1544($29)
  404928:	2b 00 00 00 b0 04 1a 1d 	l.d $f26,1200($29)
  404930:	a2 00 00 00 01 10 01 00 	lui $1,4097
  404938:	2b 00 00 00 e8 7e 02 01 	l.d $f2,32488($1)
  404940:	71 00 00 00 00 0c 0c 1a 	add.d $f12,$f26,$f12
  404948:	37 00 00 00 58 05 04 1d 	s.d $f4,1368($29)
  404950:	2b 00 00 00 50 05 1c 1d 	l.d $f28,1360($29)
  404958:	2b 00 00 00 58 05 1a 1d 	l.d $f26,1368($29)
  404960:	75 00 00 00 00 00 18 00 	mul.d $f0,$f0,$f24
  404968:	71 00 00 00 00 02 12 02 	add.d $f2,$f2,$f18
  404970:	a2 00 00 00 01 10 01 00 	lui $1,4097
  404978:	37 00 00 00 c8 7e 1a 01 	s.d $f26,32456($1)
  404980:	2b 00 00 00 00 05 1a 1d 	l.d $f26,1280($29)
  404988:	37 00 00 00 60 05 02 1d 	s.d $f2,1376($29)
  404990:	a2 00 00 00 01 10 01 00 	lui $1,4097
  404998:	37 00 00 00 a8 7e 1c 01 	s.d $f28,32424($1)
  4049a0:	2b 00 00 00 60 05 1c 1d 	l.d $f28,1376($29)
  4049a8:	71 00 00 00 00 00 00 1a 	add.d $f0,$f26,$f0
  4049b0:	a2 00 00 00 01 10 01 00 	lui $1,4097
  4049b8:	37 00 00 00 e8 7e 1c 01 	s.d $f28,32488($1)
  4049c0:	2b 00 00 00 08 00 1c 1d 	l.d $f28,8($29)
  4049c8:	a2 00 00 00 01 10 01 00 	lui $1,4097
  4049d0:	2b 00 00 00 40 77 1a 01 	l.d $f26,30528($1)
  4049d8:	75 00 00 00 00 1c 1a 1c 	mul.d $f28,$f28,$f26
  4049e0:	37 00 00 00 10 06 1c 1d 	s.d $f28,1552($29)
  4049e8:	2b 00 00 00 20 05 1c 1d 	l.d $f28,1312($29)
  4049f0:	2b 00 00 00 38 05 1a 1d 	l.d $f26,1336($29)
  4049f8:	37 00 00 00 40 05 0c 1d 	s.d $f12,1344($29)
  404a00:	a2 00 00 00 01 10 01 00 	lui $1,4097
  404a08:	37 00 00 00 b0 7e 1c 01 	s.d $f28,32432($1)
  404a10:	2b 00 00 00 40 05 1c 1d 	l.d $f28,1344($29)
  404a18:	37 00 00 00 d0 05 00 1d 	s.d $f0,1488($29)
  404a20:	a2 00 00 00 01 10 01 00 	lui $1,4097
  404a28:	37 00 00 00 d0 7e 1a 01 	s.d $f26,32464($1)
  404a30:	2b 00 00 00 d0 05 1a 1d 	l.d $f26,1488($29)
  404a38:	a2 00 00 00 01 10 01 00 	lui $1,4097
  404a40:	37 00 00 00 f0 7e 1c 01 	s.d $f28,32496($1)
  404a48:	a2 00 00 00 01 10 01 00 	lui $1,4097
  404a50:	2b 00 00 00 00 75 1c 01 	l.d $f28,29952($1)
  404a58:	a2 00 00 00 01 10 01 00 	lui $1,4097
  404a60:	37 00 00 00 90 7e 1a 01 	s.d $f26,32400($1)
  404a68:	a2 00 00 00 01 10 01 00 	lui $1,4097
  404a70:	2b 00 00 00 48 72 1a 01 	l.d $f26,29256($1)
  404a78:	75 00 00 00 00 0c 1a 1c 	mul.d $f12,$f28,$f26
  404a80:	a2 00 00 00 01 10 01 00 	lui $1,4097
  404a88:	2b 00 00 00 58 74 1c 01 	l.d $f28,29784($1)
  404a90:	a2 00 00 00 01 10 01 00 	lui $1,4097
  404a98:	2b 00 00 00 b0 7d 1a 01 	l.d $f26,32176($1)
  404aa0:	75 00 00 00 00 00 1a 1c 	mul.d $f0,$f28,$f26
  404aa8:	a2 00 00 00 01 10 01 00 	lui $1,4097
  404ab0:	2b 00 00 00 08 75 1c 01 	l.d $f28,29960($1)
  404ab8:	a2 00 00 00 01 10 01 00 	lui $1,4097
  404ac0:	2b 00 00 00 48 72 1a 01 	l.d $f26,29256($1)
  404ac8:	75 00 00 00 00 16 1a 1c 	mul.d $f22,$f28,$f26
  404ad0:	a2 00 00 00 01 10 01 00 	lui $1,4097
  404ad8:	2b 00 00 00 58 74 1c 01 	l.d $f28,29784($1)
  404ae0:	a2 00 00 00 01 10 01 00 	lui $1,4097
  404ae8:	2b 00 00 00 b8 7d 1a 01 	l.d $f26,32184($1)
  404af0:	75 00 00 00 00 04 1a 1c 	mul.d $f4,$f28,$f26
  404af8:	a2 00 00 00 01 10 01 00 	lui $1,4097
  404b00:	2b 00 00 00 10 75 1c 01 	l.d $f28,29968($1)
  404b08:	a2 00 00 00 01 10 01 00 	lui $1,4097
  404b10:	2b 00 00 00 48 72 1a 01 	l.d $f26,29256($1)
  404b18:	75 00 00 00 00 12 1a 1c 	mul.d $f18,$f28,$f26
  404b20:	a2 00 00 00 01 10 01 00 	lui $1,4097
  404b28:	2b 00 00 00 58 74 1c 01 	l.d $f28,29784($1)
  404b30:	a2 00 00 00 01 10 01 00 	lui $1,4097
  404b38:	2b 00 00 00 c0 7d 1a 01 	l.d $f26,32192($1)
  404b40:	75 00 00 00 00 02 1a 1c 	mul.d $f2,$f28,$f26
  404b48:	a2 00 00 00 01 10 01 00 	lui $1,4097
  404b50:	2b 00 00 00 50 72 10 01 	l.d $f16,29264($1)
  404b58:	a2 00 00 00 01 10 01 00 	lui $1,4097
  404b60:	2b 00 00 00 00 75 1c 01 	l.d $f28,29952($1)
  404b68:	75 00 00 00 00 1c 10 1c 	mul.d $f28,$f28,$f16
  404b70:	37 00 00 00 20 06 1c 1d 	s.d $f28,1568($29)
  404b78:	a2 00 00 00 01 10 01 00 	lui $1,4097
  404b80:	2b 00 00 00 60 74 1a 01 	l.d $f26,29792($1)
  404b88:	a2 00 00 00 01 10 01 00 	lui $1,4097
  404b90:	2b 00 00 00 b0 7d 1c 01 	l.d $f28,32176($1)
  404b98:	75 00 00 00 00 06 1c 1a 	mul.d $f6,$f26,$f28
  404ba0:	a2 00 00 00 01 10 01 00 	lui $1,4097
  404ba8:	2b 00 00 00 08 75 1a 01 	l.d $f26,29960($1)
  404bb0:	75 00 00 00 00 1a 10 1a 	mul.d $f26,$f26,$f16
  404bb8:	a2 00 00 00 01 10 01 00 	lui $1,4097
  404bc0:	2b 00 00 00 60 74 1c 01 	l.d $f28,29792($1)
  404bc8:	37 00 00 00 28 06 1a 1d 	s.d $f26,1576($29)
  404bd0:	a2 00 00 00 01 10 01 00 	lui $1,4097
  404bd8:	2b 00 00 00 b8 7d 1a 01 	l.d $f26,32184($1)
  404be0:	75 00 00 00 00 08 1a 1c 	mul.d $f8,$f28,$f26
  404be8:	75 00 00 00 00 1e 1e 14 	mul.d $f30,$f20,$f30
  404bf0:	a2 00 00 00 01 10 01 00 	lui $1,4097
  404bf8:	2b 00 00 00 10 75 1c 01 	l.d $f28,29968($1)
  404c00:	75 00 00 00 00 1c 10 1c 	mul.d $f28,$f28,$f16
  404c08:	71 00 00 00 00 1e 0e 1e 	add.d $f30,$f30,$f14
  404c10:	a2 00 00 00 01 10 01 00 	lui $1,4097
  404c18:	2b 00 00 00 60 74 1a 01 	l.d $f26,29792($1)
  404c20:	71 00 00 00 00 1e 0a 1e 	add.d $f30,$f30,$f10
  404c28:	37 00 00 00 30 06 1c 1d 	s.d $f28,1584($29)
  404c30:	a2 00 00 00 01 10 01 00 	lui $1,4097
  404c38:	2b 00 00 00 c0 7d 1c 01 	l.d $f28,32192($1)
  404c40:	75 00 00 00 00 0a 1c 1a 	mul.d $f10,$f26,$f28
  404c48:	a2 00 00 00 01 10 01 00 	lui $1,4097
  404c50:	2b 00 00 00 58 72 0e 01 	l.d $f14,29272($1)
  404c58:	a2 00 00 00 01 10 01 00 	lui $1,4097
  404c60:	2b 00 00 00 00 75 1a 01 	l.d $f26,29952($1)
  404c68:	75 00 00 00 00 1a 0e 1a 	mul.d $f26,$f26,$f14
  404c70:	a2 00 00 00 01 10 01 00 	lui $1,4097
  404c78:	2b 00 00 00 68 74 1c 01 	l.d $f28,29800($1)
  404c80:	37 00 00 00 38 06 1a 1d 	s.d $f26,1592($29)
  404c88:	a2 00 00 00 01 10 01 00 	lui $1,4097
  404c90:	2b 00 00 00 b0 7d 1a 01 	l.d $f26,32176($1)
  404c98:	75 00 00 00 00 1c 1a 1c 	mul.d $f28,$f28,$f26
  404ca0:	37 00 00 00 40 06 1c 1d 	s.d $f28,1600($29)
  404ca8:	a2 00 00 00 01 10 01 00 	lui $1,4097
  404cb0:	2b 00 00 00 08 75 1c 01 	l.d $f28,29960($1)
  404cb8:	75 00 00 00 00 1c 0e 1c 	mul.d $f28,$f28,$f14
  404cc0:	2b 00 00 00 a8 16 1a 1d 	l.d $f26,5800($29)
  404cc8:	37 00 00 00 48 06 1c 1d 	s.d $f28,1608($29)
  404cd0:	2b 00 00 00 08 06 1c 1d 	l.d $f28,1544($29)
  404cd8:	71 00 00 00 00 1a 1c 1a 	add.d $f26,$f26,$f28
  404ce0:	71 00 00 00 00 00 00 0c 	add.d $f0,$f12,$f0
  404ce8:	37 00 00 00 a8 16 1a 1d 	s.d $f26,5800($29)
  404cf0:	a2 00 00 00 01 10 01 00 	lui $1,4097
  404cf8:	2b 00 00 00 d0 7d 1a 01 	l.d $f26,32208($1)
  404d00:	71 00 00 00 00 00 1a 00 	add.d $f0,$f0,$f26
  404d08:	a2 00 00 00 01 10 01 00 	lui $1,4097
  404d10:	2b 00 00 00 68 74 1c 01 	l.d $f28,29800($1)
  404d18:	a2 00 00 00 01 10 01 00 	lui $1,4097
  404d20:	2b 00 00 00 b8 7d 1a 01 	l.d $f26,32184($1)
  404d28:	75 00 00 00 00 1c 1a 1c 	mul.d $f28,$f28,$f26
  404d30:	37 00 00 00 a0 00 00 1d 	s.d $f0,160($29)
  404d38:	37 00 00 00 50 06 1c 1d 	s.d $f28,1616($29)
  404d40:	a2 00 00 00 01 10 01 00 	lui $1,4097
  404d48:	2b 00 00 00 10 75 1c 01 	l.d $f28,29968($1)
  404d50:	71 00 00 00 00 00 04 16 	add.d $f0,$f22,$f4
  404d58:	a2 00 00 00 01 10 01 00 	lui $1,4097
  404d60:	2b 00 00 00 d8 7d 1a 01 	l.d $f26,32216($1)
  404d68:	75 00 00 00 00 1c 0e 1c 	mul.d $f28,$f28,$f14
  404d70:	71 00 00 00 00 00 1a 00 	add.d $f0,$f0,$f26
  404d78:	71 00 00 00 00 02 02 12 	add.d $f2,$f18,$f2
  404d80:	37 00 00 00 58 06 1c 1d 	s.d $f28,1624($29)
  404d88:	37 00 00 00 a8 00 00 1d 	s.d $f0,168($29)
  404d90:	a2 00 00 00 01 10 01 00 	lui $1,4097
  404d98:	2b 00 00 00 e0 7d 1c 01 	l.d $f28,32224($1)
  404da0:	71 00 00 00 00 02 1c 02 	add.d $f2,$f2,$f28
  404da8:	a2 00 00 00 01 10 01 00 	lui $1,4097
  404db0:	2b 00 00 00 68 74 1a 01 	l.d $f26,29800($1)
  404db8:	a2 00 00 00 01 10 01 00 	lui $1,4097
  404dc0:	2b 00 00 00 c0 7d 1c 01 	l.d $f28,32192($1)
  404dc8:	75 00 00 00 00 1a 1c 1a 	mul.d $f26,$f26,$f28
  404dd0:	37 00 00 00 60 06 1a 1d 	s.d $f26,1632($29)
  404dd8:	2b 00 00 00 20 06 1a 1d 	l.d $f26,1568($29)
  404de0:	71 00 00 00 00 00 06 1a 	add.d $f0,$f26,$f6
  404de8:	a2 00 00 00 01 10 01 00 	lui $1,4097
  404df0:	2b 00 00 00 d8 7d 1c 01 	l.d $f28,32216($1)
  404df8:	a2 00 00 00 01 10 01 00 	lui $1,4097
  404e00:	2b 00 00 00 b0 77 0c 01 	l.d $f12,30640($1)
  404e08:	71 00 00 00 00 00 1c 00 	add.d $f0,$f0,$f28
  404e10:	2b 00 00 00 a0 00 1a 1d 	l.d $f26,160($29)
  404e18:	37 00 00 00 b8 00 00 1d 	s.d $f0,184($29)
  404e20:	75 00 00 00 00 00 0c 1a 	mul.d $f0,$f26,$f12
  404e28:	2b 00 00 00 28 06 1c 1d 	l.d $f28,1576($29)
  404e30:	71 00 00 00 00 04 08 1c 	add.d $f4,$f28,$f8
  404e38:	a2 00 00 00 01 10 01 00 	lui $1,4097
  404e40:	2b 00 00 00 28 7e 1a 01 	l.d $f26,32296($1)
  404e48:	71 00 00 00 00 04 1a 04 	add.d $f4,$f4,$f26
  404e50:	a2 00 00 00 01 10 01 00 	lui $1,4097
  404e58:	2b 00 00 00 b8 77 16 01 	l.d $f22,30648($1)
  404e60:	2b 00 00 00 a8 00 1c 1d 	l.d $f28,168($29)
  404e68:	2b 00 00 00 30 06 1a 1d 	l.d $f26,1584($29)
  404e70:	a2 00 00 00 01 10 01 00 	lui $1,4097
  404e78:	2b 00 00 00 c0 77 12 01 	l.d $f18,30656($1)
  404e80:	75 00 00 00 00 1c 16 1c 	mul.d $f28,$f28,$f22
  404e88:	71 00 00 00 00 06 0a 1a 	add.d $f6,$f26,$f10
  404e90:	37 00 00 00 b0 00 02 1d 	s.d $f2,176($29)
  404e98:	2b 00 00 00 b0 00 1a 1d 	l.d $f26,176($29)
  404ea0:	37 00 00 00 68 06 1c 1d 	s.d $f28,1640($29)
  404ea8:	a2 00 00 00 01 10 01 00 	lui $1,4097
  404eb0:	2b 00 00 00 30 7e 1c 01 	l.d $f28,32304($1)
  404eb8:	75 00 00 00 00 02 12 1a 	mul.d $f2,$f26,$f18
  404ec0:	71 00 00 00 00 06 1c 06 	add.d $f6,$f6,$f28
  404ec8:	2b 00 00 00 38 06 1c 1d 	l.d $f28,1592($29)
  404ed0:	2b 00 00 00 40 06 1a 1d 	l.d $f26,1600($29)
  404ed8:	37 00 00 00 c0 00 04 1d 	s.d $f4,192($29)
  404ee0:	71 00 00 00 00 04 1a 1c 	add.d $f4,$f28,$f26
  404ee8:	a2 00 00 00 01 10 01 00 	lui $1,4097
  404ef0:	2b 00 00 00 b0 79 08 01 	l.d $f8,31152($1)
  404ef8:	2b 00 00 00 b8 00 1a 1d 	l.d $f26,184($29)
  404f00:	a2 00 00 00 01 10 01 00 	lui $1,4097
  404f08:	2b 00 00 00 e0 7d 1c 01 	l.d $f28,32224($1)
  404f10:	75 00 00 00 00 0a 08 1a 	mul.d $f10,$f26,$f8
  404f18:	71 00 00 00 00 04 1c 04 	add.d $f4,$f4,$f28
  404f20:	2b 00 00 00 48 06 1c 1d 	l.d $f28,1608($29)
  404f28:	2b 00 00 00 50 06 1a 1d 	l.d $f26,1616($29)
  404f30:	37 00 00 00 d0 00 04 1d 	s.d $f4,208($29)
  404f38:	71 00 00 00 00 04 1a 1c 	add.d $f4,$f28,$f26
  404f40:	a2 00 00 00 01 10 01 00 	lui $1,4097
  404f48:	2b 00 00 00 30 7e 1c 01 	l.d $f28,32304($1)
  404f50:	71 00 00 00 00 04 1c 04 	add.d $f4,$f4,$f28
  404f58:	37 00 00 00 c8 00 06 1d 	s.d $f6,200($29)
  404f60:	37 00 00 00 d8 00 04 1d 	s.d $f4,216($29)
  404f68:	2b 00 00 00 c0 00 1a 1d 	l.d $f26,192($29)
  404f70:	a2 00 00 00 01 10 01 00 	lui $1,4097
  404f78:	2b 00 00 00 b8 79 1c 01 	l.d $f28,31160($1)
  404f80:	75 00 00 00 00 04 1c 1a 	mul.d $f4,$f26,$f28
  404f88:	2b 00 00 00 58 06 1a 1d 	l.d $f26,1624($29)
  404f90:	2b 00 00 00 60 06 1c 1d 	l.d $f28,1632($29)
  404f98:	71 00 00 00 00 06 1c 1a 	add.d $f6,$f26,$f28
  404fa0:	a2 00 00 00 01 10 01 00 	lui $1,4097
  404fa8:	2b 00 00 00 68 7e 1a 01 	l.d $f26,32360($1)
  404fb0:	71 00 00 00 00 06 1a 06 	add.d $f6,$f6,$f26
  404fb8:	2b 00 00 00 c8 00 1c 1d 	l.d $f28,200($29)
  404fc0:	a2 00 00 00 01 10 01 00 	lui $1,4097
  404fc8:	2b 00 00 00 c0 79 1a 01 	l.d $f26,31168($1)
  404fd0:	37 00 00 00 e0 00 06 1d 	s.d $f6,224($29)
  404fd8:	75 00 00 00 00 06 1a 1c 	mul.d $f6,$f28,$f26
  404fe0:	2b 00 00 00 68 06 1c 1d 	l.d $f28,1640($29)
  404fe8:	71 00 00 00 00 00 1c 00 	add.d $f0,$f0,$f28
  404ff0:	2b 00 00 00 d0 00 1a 1d 	l.d $f26,208($29)
  404ff8:	71 00 00 00 00 00 02 00 	add.d $f0,$f0,$f2
  405000:	a2 00 00 00 01 10 01 00 	lui $1,4097
  405008:	2b 00 00 00 b0 7b 1c 01 	l.d $f28,31664($1)
  405010:	75 00 00 00 00 02 1c 1a 	mul.d $f2,$f26,$f28
  405018:	71 00 00 00 00 00 0a 00 	add.d $f0,$f0,$f10
  405020:	71 00 00 00 00 00 04 00 	add.d $f0,$f0,$f4
  405028:	2b 00 00 00 d8 00 1a 1d 	l.d $f26,216($29)
  405030:	a2 00 00 00 01 10 01 00 	lui $1,4097
  405038:	2b 00 00 00 b8 7b 1c 01 	l.d $f28,31672($1)
  405040:	75 00 00 00 00 04 1c 1a 	mul.d $f4,$f26,$f28
  405048:	71 00 00 00 00 00 06 00 	add.d $f0,$f0,$f6
  405050:	71 00 00 00 00 00 02 00 	add.d $f0,$f0,$f2
  405058:	2b 00 00 00 e0 00 1a 1d 	l.d $f26,224($29)
  405060:	a2 00 00 00 01 10 01 00 	lui $1,4097
  405068:	2b 00 00 00 c0 7b 1c 01 	l.d $f28,31680($1)
  405070:	75 00 00 00 00 02 1c 1a 	mul.d $f2,$f26,$f28
  405078:	75 00 00 00 00 1e 18 1e 	mul.d $f30,$f30,$f24
  405080:	71 00 00 00 00 00 04 00 	add.d $f0,$f0,$f4
  405088:	71 00 00 00 00 00 02 00 	add.d $f0,$f0,$f2
  405090:	2b 00 00 00 a8 16 1a 1d 	l.d $f26,5800($29)
  405098:	2b 00 00 00 10 06 1c 1d 	l.d $f28,1552($29)
  4050a0:	75 00 00 00 00 02 08 10 	mul.d $f2,$f16,$f8
  4050a8:	71 00 00 00 00 1a 1c 1a 	add.d $f26,$f26,$f28
  4050b0:	37 00 00 00 a8 16 1a 1d 	s.d $f26,5800($29)
  4050b8:	75 00 00 00 00 18 18 1a 	mul.d $f24,$f26,$f24
  4050c0:	a2 00 00 00 01 10 01 00 	lui $1,4097
  4050c8:	2b 00 00 00 b0 7b 1c 01 	l.d $f28,31664($1)
  4050d0:	75 00 00 00 00 0a 1c 0e 	mul.d $f10,$f14,$f28
  4050d8:	a2 00 00 00 01 10 01 00 	lui $1,4097
  4050e0:	2b 00 00 00 48 72 1a 01 	l.d $f26,29256($1)
  4050e8:	37 00 00 00 a8 16 18 1d 	s.d $f24,5800($29)
  4050f0:	75 00 00 00 00 18 0c 1a 	mul.d $f24,$f26,$f12
  4050f8:	75 00 00 00 00 1a 16 1a 	mul.d $f26,$f26,$f22
  405100:	a2 00 00 00 01 10 01 00 	lui $1,4097
  405108:	2b 00 00 00 b8 79 1c 01 	l.d $f28,31160($1)
  405110:	75 00 00 00 00 04 1c 10 	mul.d $f4,$f16,$f28
  405118:	71 00 00 00 00 18 02 18 	add.d $f24,$f24,$f2
  405120:	37 00 00 00 88 06 1a 1d 	s.d $f26,1672($29)
  405128:	a2 00 00 00 01 10 01 00 	lui $1,4097
  405130:	2b 00 00 00 b8 7b 1a 01 	l.d $f26,31672($1)
  405138:	75 00 00 00 00 02 1a 0e 	mul.d $f2,$f14,$f26
  405140:	71 00 00 00 00 0a 0a 18 	add.d $f10,$f24,$f10
  405148:	a2 00 00 00 01 10 01 00 	lui $1,4097
  405150:	2b 00 00 00 10 7f 06 01 	l.d $f6,32528($1)
  405158:	2b 00 00 00 88 06 1c 1d 	l.d $f28,1672($29)
  405160:	75 00 00 00 00 0a 06 0a 	mul.d $f10,$f10,$f6
  405168:	71 00 00 00 00 04 04 1c 	add.d $f4,$f28,$f4
  405170:	71 00 00 00 00 02 02 04 	add.d $f2,$f4,$f2
  405178:	75 00 00 00 00 18 06 02 	mul.d $f24,$f2,$f6
  405180:	37 00 00 00 78 06 0a 1d 	s.d $f10,1656($29)
  405188:	a2 00 00 00 01 10 01 00 	lui $1,4097
  405190:	2b 00 00 00 48 72 1a 01 	l.d $f26,29256($1)
  405198:	75 00 00 00 00 02 12 1a 	mul.d $f2,$f26,$f18
  4051a0:	a2 00 00 00 01 10 01 00 	lui $1,4097
  4051a8:	2b 00 00 00 c0 79 1c 01 	l.d $f28,31168($1)
  4051b0:	75 00 00 00 00 10 1c 10 	mul.d $f16,$f16,$f28
  4051b8:	a2 00 00 00 01 10 01 00 	lui $1,4097
  4051c0:	2b 00 00 00 c0 7b 1a 01 	l.d $f26,31680($1)
  4051c8:	75 00 00 00 00 0e 1a 0e 	mul.d $f14,$f14,$f26
  4051d0:	2b 00 00 00 00 00 1c 1d 	l.d $f28,0($29)
  4051d8:	75 00 00 00 00 16 16 1c 	mul.d $f22,$f28,$f22
  4051e0:	2b 00 00 00 08 00 1a 1d 	l.d $f26,8($29)
  4051e8:	75 00 00 00 00 12 12 1a 	mul.d $f18,$f26,$f18
  4051f0:	75 00 00 00 00 0c 0c 14 	mul.d $f12,$f20,$f12
  4051f8:	2b 00 00 00 20 05 1c 1d 	l.d $f28,1312($29)
  405200:	71 00 00 00 00 02 10 02 	add.d $f2,$f2,$f16
  405208:	2b 00 00 00 e0 05 1a 1d 	l.d $f26,1504($29)
  405210:	71 00 00 00 00 10 1a 1c 	add.d $f16,$f28,$f26
  405218:	71 00 00 00 00 0c 16 0c 	add.d $f12,$f12,$f22
  405220:	2b 00 00 00 38 05 1c 1d 	l.d $f28,1336($29)
  405228:	2b 00 00 00 e8 05 1a 1d 	l.d $f26,1512($29)
  405230:	71 00 00 00 00 16 1a 1c 	add.d $f22,$f28,$f26
  405238:	71 00 00 00 00 02 0e 02 	add.d $f2,$f2,$f14
  405240:	2b 00 00 00 40 05 1c 1d 	l.d $f28,1344($29)
  405248:	2b 00 00 00 a0 16 1a 1d 	l.d $f26,5792($29)
  405250:	71 00 00 00 00 1c 1a 1c 	add.d $f28,$f28,$f26
  405258:	75 00 00 00 00 04 06 02 	mul.d $f4,$f2,$f6
  405260:	71 00 00 00 00 0c 12 0c 	add.d $f12,$f12,$f18
  405268:	a2 00 00 00 01 10 01 00 	lui $1,4097
  405270:	37 00 00 00 f0 7e 1c 01 	s.d $f28,32496($1)
  405278:	2b 00 00 00 00 00 1c 1d 	l.d $f28,0($29)
  405280:	a2 00 00 00 01 10 01 00 	lui $1,4097
  405288:	2b 00 00 00 b8 79 1a 01 	l.d $f26,31160($1)
  405290:	75 00 00 00 00 12 1a 1c 	mul.d $f18,$f28,$f26
  405298:	a2 00 00 00 01 10 01 00 	lui $1,4097
  4052a0:	2b 00 00 00 a0 7e 02 01 	l.d $f2,32416($1)
  4052a8:	2b 00 00 00 f0 05 1c 1d 	l.d $f28,1520($29)
  4052b0:	71 00 00 00 00 02 1c 02 	add.d $f2,$f2,$f28
  4052b8:	a2 00 00 00 01 10 01 00 	lui $1,4097
  4052c0:	2b 00 00 00 c0 7e 0a 01 	l.d $f10,32448($1)
  4052c8:	71 00 00 00 00 0a 1e 0a 	add.d $f10,$f10,$f30
  4052d0:	2b 00 00 00 08 00 1a 1d 	l.d $f26,8($29)
  4052d8:	a2 00 00 00 01 10 01 00 	lui $1,4097
  4052e0:	2b 00 00 00 c0 79 1c 01 	l.d $f28,31168($1)
  4052e8:	37 00 00 00 00 06 0a 1d 	s.d $f10,1536($29)
  4052f0:	75 00 00 00 00 0a 1c 1a 	mul.d $f10,$f26,$f28
  4052f8:	75 00 00 00 00 00 06 00 	mul.d $f0,$f0,$f6
  405300:	a2 00 00 00 01 10 01 00 	lui $1,4097
  405308:	2b 00 00 00 e0 7e 0e 01 	l.d $f14,32480($1)
  405310:	2b 00 00 00 a8 16 1a 1d 	l.d $f26,5800($29)
  405318:	71 00 00 00 00 0e 1a 0e 	add.d $f14,$f14,$f26
  405320:	75 00 00 00 00 08 08 14 	mul.d $f8,$f20,$f8
  405328:	37 00 00 00 f8 05 02 1d 	s.d $f2,1528($29)
  405330:	37 00 00 00 18 06 0e 1d 	s.d $f14,1560($29)
  405338:	2b 00 00 00 d0 05 1c 1d 	l.d $f28,1488($29)
  405340:	a2 00 00 00 01 10 01 00 	lui $1,4097
  405348:	2b 00 00 00 b0 7b 1a 01 	l.d $f26,31664($1)
  405350:	71 00 00 00 00 00 00 1c 	add.d $f0,$f28,$f0
  405358:	75 00 00 00 00 14 1a 14 	mul.d $f20,$f20,$f26
  405360:	2b 00 00 00 78 06 1c 1d 	l.d $f28,1656($29)
  405368:	71 00 00 00 00 1c 1c 10 	add.d $f28,$f16,$f28
  405370:	2b 00 00 00 00 00 1a 1d 	l.d $f26,0($29)
  405378:	37 00 00 00 80 06 1c 1d 	s.d $f28,1664($29)
  405380:	a2 00 00 00 01 10 01 00 	lui $1,4097
  405388:	2b 00 00 00 b8 7b 1c 01 	l.d $f28,31672($1)
  405390:	75 00 00 00 00 0e 1c 1a 	mul.d $f14,$f26,$f28
  405398:	a2 00 00 00 01 10 01 00 	lui $1,4097
  4053a0:	2b 00 00 00 f0 7e 1a 01 	l.d $f26,32496($1)
  4053a8:	71 00 00 00 00 04 04 1a 	add.d $f4,$f26,$f4
  4053b0:	2b 00 00 00 08 00 1c 1d 	l.d $f28,8($29)
  4053b8:	a2 00 00 00 01 10 01 00 	lui $1,4097
  4053c0:	2b 00 00 00 c0 7b 1a 01 	l.d $f26,31680($1)
  4053c8:	71 00 00 00 00 08 12 08 	add.d $f8,$f8,$f18
  4053d0:	37 00 00 00 98 06 04 1d 	s.d $f4,1688($29)
  4053d8:	75 00 00 00 00 04 1a 1c 	mul.d $f4,$f28,$f26
  4053e0:	71 00 00 00 00 08 0a 08 	add.d $f8,$f8,$f10
  4053e8:	a2 00 00 00 01 10 01 00 	lui $1,4097
  4053f0:	2b 00 00 00 b8 7e 02 01 	l.d $f2,32440($1)
  4053f8:	71 00 00 00 00 18 18 16 	add.d $f24,$f22,$f24
  405400:	75 00 00 00 00 08 06 08 	mul.d $f8,$f8,$f6
  405408:	37 00 00 00 70 06 00 1d 	s.d $f0,1648($29)
  405410:	a2 00 00 00 01 10 01 00 	lui $1,4097
  405418:	2b 00 00 00 98 7e 00 01 	l.d $f0,32408($1)
  405420:	71 00 00 00 00 14 0e 14 	add.d $f20,$f20,$f14
  405428:	2b 00 00 00 f8 05 1c 1d 	l.d $f28,1528($29)
  405430:	2b 00 00 00 00 06 1a 1d 	l.d $f26,1536($29)
  405438:	71 00 00 00 00 14 04 14 	add.d $f20,$f20,$f4
  405440:	a2 00 00 00 01 10 01 00 	lui $1,4097
  405448:	37 00 00 00 a0 7e 1c 01 	s.d $f28,32416($1)
  405450:	2b 00 00 00 18 06 1c 1d 	l.d $f28,1560($29)
  405458:	75 00 00 00 00 0c 06 0c 	mul.d $f12,$f12,$f6
  405460:	71 00 00 00 00 02 08 02 	add.d $f2,$f2,$f8
  405468:	a2 00 00 00 01 10 01 00 	lui $1,4097
  405470:	37 00 00 00 c0 7e 1a 01 	s.d $f26,32448($1)
  405478:	2b 00 00 00 80 06 1a 1d 	l.d $f26,1664($29)
  405480:	a2 00 00 00 01 10 01 00 	lui $1,4097
  405488:	2b 00 00 00 d8 7e 04 01 	l.d $f4,32472($1)
  405490:	37 00 00 00 90 06 18 1d 	s.d $f24,1680($29)
  405498:	71 00 00 00 00 00 0c 00 	add.d $f0,$f0,$f12
  4054a0:	a2 00 00 00 01 10 01 00 	lui $1,4097
  4054a8:	37 00 00 00 b0 7e 10 01 	s.d $f16,32432($1)
  4054b0:	a2 00 00 00 01 10 01 00 	lui $1,4097
  4054b8:	37 00 00 00 d0 7e 16 01 	s.d $f22,32464($1)
  4054c0:	37 00 00 00 a8 06 02 1d 	s.d $f2,1704($29)
  4054c8:	37 00 00 00 a0 06 00 1d 	s.d $f0,1696($29)
  4054d0:	a2 00 00 00 01 10 01 00 	lui $1,4097
  4054d8:	37 00 00 00 e0 7e 1c 01 	s.d $f28,32480($1)
  4054e0:	a2 00 00 00 01 10 01 00 	lui $1,4097
  4054e8:	37 00 00 00 b0 7e 1a 01 	s.d $f26,32432($1)
  4054f0:	2b 00 00 00 90 06 1c 1d 	l.d $f28,1680($29)
  4054f8:	2b 00 00 00 98 06 1a 1d 	l.d $f26,1688($29)
  405500:	a2 00 00 00 01 10 01 00 	lui $1,4097
  405508:	37 00 00 00 d0 7e 1c 01 	s.d $f28,32464($1)
  405510:	2b 00 00 00 a0 06 1c 1d 	l.d $f28,1696($29)
  405518:	75 00 00 00 00 14 06 14 	mul.d $f20,$f20,$f6
  405520:	a2 00 00 00 01 10 01 00 	lui $1,4097
  405528:	37 00 00 00 f0 7e 1a 01 	s.d $f26,32496($1)
  405530:	2b 00 00 00 a8 06 1a 1d 	l.d $f26,1704($29)
  405538:	a2 00 00 00 01 10 01 00 	lui $1,4097
  405540:	37 00 00 00 98 7e 1c 01 	s.d $f28,32408($1)
  405548:	2b 00 00 00 70 06 1c 1d 	l.d $f28,1648($29)
  405550:	71 00 00 00 00 04 14 04 	add.d $f4,$f4,$f20
  405558:	a2 00 00 00 01 10 01 00 	lui $1,4097
  405560:	37 00 00 00 90 7e 1c 01 	s.d $f28,32400($1)
  405568:	a2 00 00 00 01 10 01 00 	lui $1,4097
  405570:	2b 00 00 00 00 75 1c 01 	l.d $f28,29952($1)
  405578:	a2 00 00 00 01 10 01 00 	lui $1,4097
  405580:	37 00 00 00 b8 7e 1a 01 	s.d $f26,32440($1)
  405588:	37 00 00 00 b0 06 04 1d 	s.d $f4,1712($29)
  405590:	2b 00 00 00 b0 06 1a 1d 	l.d $f26,1712($29)
  405598:	a2 00 00 00 01 10 01 00 	lui $1,4097
  4055a0:	37 00 00 00 d8 7e 1a 01 	s.d $f26,32472($1)
  4055a8:	a2 00 00 00 01 10 01 00 	lui $1,4097
  4055b0:	2b 00 00 00 60 72 12 01 	l.d $f18,29280($1)
  4055b8:	75 00 00 00 00 02 12 1c 	mul.d $f2,$f28,$f18
  4055c0:	a2 00 00 00 01 10 01 00 	lui $1,4097
  4055c8:	2b 00 00 00 08 75 1a 01 	l.d $f26,29960($1)
  4055d0:	75 00 00 00 00 04 12 1a 	mul.d $f4,$f26,$f18
  4055d8:	a2 00 00 00 01 10 01 00 	lui $1,4097
  4055e0:	2b 00 00 00 10 75 1c 01 	l.d $f28,29968($1)
  4055e8:	75 00 00 00 00 10 12 1c 	mul.d $f16,$f28,$f18
  4055f0:	a2 00 00 00 01 10 01 00 	lui $1,4097
  4055f8:	2b 00 00 00 00 75 1a 01 	l.d $f26,29952($1)
  405600:	a2 00 00 00 01 10 01 00 	lui $1,4097
  405608:	2b 00 00 00 78 72 1c 01 	l.d $f28,29304($1)
  405610:	75 00 00 00 00 06 1c 1a 	mul.d $f6,$f26,$f28
  405618:	a2 00 00 00 01 10 01 00 	lui $1,4097
  405620:	2b 00 00 00 08 75 1a 01 	l.d $f26,29960($1)
  405628:	75 00 00 00 00 08 1c 1a 	mul.d $f8,$f26,$f28
  405630:	a2 00 00 00 01 10 01 00 	lui $1,4097
  405638:	2b 00 00 00 10 75 1a 01 	l.d $f26,29968($1)
  405640:	75 00 00 00 00 0a 1c 1a 	mul.d $f10,$f26,$f28
  405648:	a2 00 00 00 01 10 01 00 	lui $1,4097
  405650:	2b 00 00 00 00 75 1c 01 	l.d $f28,29952($1)
  405658:	a2 00 00 00 01 10 01 00 	lui $1,4097
  405660:	2b 00 00 00 90 72 1a 01 	l.d $f26,29328($1)
  405668:	75 00 00 00 00 0e 1a 1c 	mul.d $f14,$f28,$f26
  405670:	a2 00 00 00 01 10 01 00 	lui $1,4097
  405678:	2b 00 00 00 08 75 1c 01 	l.d $f28,29960($1)
  405680:	75 00 00 00 00 1c 1a 1c 	mul.d $f28,$f28,$f26
  405688:	37 00 00 00 a8 16 1c 1d 	s.d $f28,5800($29)
  405690:	a2 00 00 00 01 10 01 00 	lui $1,4097
  405698:	2b 00 00 00 10 75 1c 01 	l.d $f28,29968($1)
  4056a0:	75 00 00 00 00 1a 1a 1c 	mul.d $f26,$f28,$f26
  4056a8:	37 00 00 00 a0 16 1a 1d 	s.d $f26,5792($29)
  4056b0:	a2 00 00 00 01 10 01 00 	lui $1,4097
  4056b8:	2b 00 00 00 00 75 1a 01 	l.d $f26,29952($1)
  4056c0:	a2 00 00 00 01 10 01 00 	lui $1,4097
  4056c8:	2b 00 00 00 68 72 1c 01 	l.d $f28,29288($1)
  4056d0:	75 00 00 00 00 1a 1c 1a 	mul.d $f26,$f26,$f28
  4056d8:	37 00 00 00 b8 06 1a 1d 	s.d $f26,1720($29)
  4056e0:	a2 00 00 00 01 10 01 00 	lui $1,4097
  4056e8:	2b 00 00 00 08 75 1a 01 	l.d $f26,29960($1)
  4056f0:	75 00 00 00 00 1a 1c 1a 	mul.d $f26,$f26,$f28
  4056f8:	37 00 00 00 c0 06 1a 1d 	s.d $f26,1728($29)
  405700:	a2 00 00 00 01 10 01 00 	lui $1,4097
  405708:	2b 00 00 00 10 75 1a 01 	l.d $f26,29968($1)
  405710:	75 00 00 00 00 1c 1c 1a 	mul.d $f28,$f26,$f28
  405718:	37 00 00 00 c8 06 1c 1d 	s.d $f28,1736($29)
  405720:	a2 00 00 00 01 10 01 00 	lui $1,4097
  405728:	2b 00 00 00 00 75 1c 01 	l.d $f28,29952($1)
  405730:	a2 00 00 00 01 10 01 00 	lui $1,4097
  405738:	2b 00 00 00 80 72 1a 01 	l.d $f26,29312($1)
  405740:	75 00 00 00 00 1c 1a 1c 	mul.d $f28,$f28,$f26
  405748:	37 00 00 00 d0 06 1c 1d 	s.d $f28,1744($29)
  405750:	a2 00 00 00 01 10 01 00 	lui $1,4097
  405758:	2b 00 00 00 08 75 1c 01 	l.d $f28,29960($1)
  405760:	75 00 00 00 00 1c 1a 1c 	mul.d $f28,$f28,$f26
  405768:	37 00 00 00 d8 06 1c 1d 	s.d $f28,1752($29)
  405770:	a2 00 00 00 01 10 01 00 	lui $1,4097
  405778:	2b 00 00 00 10 75 1c 01 	l.d $f28,29968($1)
  405780:	75 00 00 00 00 1a 1a 1c 	mul.d $f26,$f28,$f26
  405788:	a2 00 00 00 01 10 01 00 	lui $1,4097
  405790:	2b 00 00 00 98 72 1e 01 	l.d $f30,29336($1)
  405798:	37 00 00 00 e0 06 1a 1d 	s.d $f26,1760($29)
  4057a0:	a2 00 00 00 01 10 01 00 	lui $1,4097
  4057a8:	2b 00 00 00 00 75 1a 01 	l.d $f26,29952($1)
  4057b0:	75 00 00 00 00 1a 1e 1a 	mul.d $f26,$f26,$f30
  4057b8:	a2 00 00 00 01 10 01 00 	lui $1,4097
  4057c0:	2b 00 00 00 08 75 1c 01 	l.d $f28,29960($1)
  4057c8:	75 00 00 00 00 1c 1e 1c 	mul.d $f28,$f28,$f30
  4057d0:	37 00 00 00 e8 06 1a 1d 	s.d $f26,1768($29)
  4057d8:	a2 00 00 00 01 10 01 00 	lui $1,4097
  4057e0:	2b 00 00 00 10 75 1a 01 	l.d $f26,29968($1)
  4057e8:	75 00 00 00 00 1a 1e 1a 	mul.d $f26,$f26,$f30
  4057f0:	a2 00 00 00 01 10 01 00 	lui $1,4097
  4057f8:	2b 00 00 00 70 72 18 01 	l.d $f24,29296($1)
  405800:	37 00 00 00 f0 06 1c 1d 	s.d $f28,1776($29)
  405808:	a2 00 00 00 01 10 01 00 	lui $1,4097
  405810:	2b 00 00 00 00 75 1c 01 	l.d $f28,29952($1)
  405818:	75 00 00 00 00 1c 18 1c 	mul.d $f28,$f28,$f24
  405820:	37 00 00 00 f8 06 1a 1d 	s.d $f26,1784($29)
  405828:	a2 00 00 00 01 10 01 00 	lui $1,4097
  405830:	2b 00 00 00 08 75 1a 01 	l.d $f26,29960($1)
  405838:	75 00 00 00 00 1a 18 1a 	mul.d $f26,$f26,$f24
  405840:	37 00 00 00 00 07 1c 1d 	s.d $f28,1792($29)
  405848:	a2 00 00 00 01 10 01 00 	lui $1,4097
  405850:	2b 00 00 00 10 75 1c 01 	l.d $f28,29968($1)
  405858:	75 00 00 00 00 1c 18 1c 	mul.d $f28,$f28,$f24
  405860:	a2 00 00 00 01 10 01 00 	lui $1,4097
  405868:	2b 00 00 00 88 72 16 01 	l.d $f22,29320($1)
  405870:	37 00 00 00 08 07 1a 1d 	s.d $f26,1800($29)
  405878:	a2 00 00 00 01 10 01 00 	lui $1,4097
  405880:	2b 00 00 00 00 75 1a 01 	l.d $f26,29952($1)
  405888:	75 00 00 00 00 1a 16 1a 	mul.d $f26,$f26,$f22
  405890:	37 00 00 00 10 07 1c 1d 	s.d $f28,1808($29)
  405898:	a2 00 00 00 01 10 01 00 	lui $1,4097
  4058a0:	2b 00 00 00 08 75 1c 01 	l.d $f28,29960($1)
  4058a8:	75 00 00 00 00 1c 16 1c 	mul.d $f28,$f28,$f22
  4058b0:	37 00 00 00 18 07 1a 1d 	s.d $f26,1816($29)
  4058b8:	a2 00 00 00 01 10 01 00 	lui $1,4097
  4058c0:	2b 00 00 00 10 75 1a 01 	l.d $f26,29968($1)
  4058c8:	75 00 00 00 00 1a 16 1a 	mul.d $f26,$f26,$f22
  4058d0:	a2 00 00 00 01 10 01 00 	lui $1,4097
  4058d8:	2b 00 00 00 a0 72 0c 01 	l.d $f12,29344($1)
  4058e0:	37 00 00 00 20 07 1c 1d 	s.d $f28,1824($29)
  4058e8:	a2 00 00 00 01 10 01 00 	lui $1,4097
  4058f0:	2b 00 00 00 00 75 1c 01 	l.d $f28,29952($1)
  4058f8:	75 00 00 00 00 1c 0c 1c 	mul.d $f28,$f28,$f12
  405900:	37 00 00 00 28 07 1a 1d 	s.d $f26,1832($29)
  405908:	a2 00 00 00 01 10 01 00 	lui $1,4097
  405910:	2b 00 00 00 08 75 1a 01 	l.d $f26,29960($1)
  405918:	75 00 00 00 00 1a 0c 1a 	mul.d $f26,$f26,$f12
  405920:	37 00 00 00 30 07 1c 1d 	s.d $f28,1840($29)
  405928:	a2 00 00 00 01 10 01 00 	lui $1,4097
  405930:	2b 00 00 00 10 75 1c 01 	l.d $f28,29968($1)
  405938:	75 00 00 00 00 1c 0c 1c 	mul.d $f28,$f28,$f12
  405940:	37 00 00 00 38 07 1a 1d 	s.d $f26,1848($29)
  405948:	37 00 00 00 40 07 1c 1d 	s.d $f28,1856($29)
  405950:	a2 00 00 00 01 10 01 00 	lui $1,4097
  405958:	2b 00 00 00 80 73 00 01 	l.d $f0,29568($1)
  405960:	71 00 00 00 00 02 00 02 	add.d $f2,$f2,$f0
  405968:	a2 00 00 00 01 10 01 00 	lui $1,4097
  405970:	2b 00 00 00 10 74 00 01 	l.d $f0,29712($1)
  405978:	71 00 00 00 00 04 00 04 	add.d $f4,$f4,$f0
  405980:	a2 00 00 00 01 10 01 00 	lui $1,4097
  405988:	2b 00 00 00 38 78 1a 01 	l.d $f26,30776($1)
  405990:	a2 00 00 00 01 10 01 00 	lui $1,4097
  405998:	2b 00 00 00 c8 73 00 01 	l.d $f0,29640($1)
  4059a0:	75 00 00 00 00 1a 1a 04 	mul.d $f26,$f4,$f26
  4059a8:	71 00 00 00 00 10 00 10 	add.d $f16,$f16,$f0
  4059b0:	a2 00 00 00 01 10 01 00 	lui $1,4097
  4059b8:	2b 00 00 00 40 78 1c 01 	l.d $f28,30784($1)
  4059c0:	a2 00 00 00 01 10 01 00 	lui $1,4097
  4059c8:	2b 00 00 00 98 73 00 01 	l.d $f0,29592($1)
  4059d0:	37 00 00 00 f8 00 10 1d 	s.d $f16,248($29)
  4059d8:	75 00 00 00 00 10 1c 10 	mul.d $f16,$f16,$f28
  4059e0:	71 00 00 00 00 06 00 06 	add.d $f6,$f6,$f0
  4059e8:	37 00 00 00 48 07 1a 1d 	s.d $f26,1864($29)
  4059f0:	37 00 00 00 08 01 06 1d 	s.d $f6,264($29)
  4059f8:	2b 00 00 00 08 01 1a 1d 	l.d $f26,264($29)
  405a00:	a2 00 00 00 01 10 01 00 	lui $1,4097
  405a08:	2b 00 00 00 b0 78 1c 01 	l.d $f28,30896($1)
  405a10:	a2 00 00 00 01 10 01 00 	lui $1,4097
  405a18:	2b 00 00 00 28 74 00 01 	l.d $f0,29736($1)
  405a20:	75 00 00 00 00 1a 1c 1a 	mul.d $f26,$f26,$f28
  405a28:	71 00 00 00 00 08 00 08 	add.d $f8,$f8,$f0
  405a30:	37 00 00 00 f0 00 04 1d 	s.d $f4,240($29)
  405a38:	37 00 00 00 10 01 08 1d 	s.d $f8,272($29)
  405a40:	37 00 00 00 50 07 1a 1d 	s.d $f26,1872($29)
  405a48:	2b 00 00 00 10 01 1a 1d 	l.d $f26,272($29)
  405a50:	a2 00 00 00 01 10 01 00 	lui $1,4097
  405a58:	2b 00 00 00 b8 78 1c 01 	l.d $f28,30904($1)
  405a60:	a2 00 00 00 01 10 01 00 	lui $1,4097
  405a68:	2b 00 00 00 e0 73 04 01 	l.d $f4,29664($1)
  405a70:	75 00 00 00 00 1a 1c 1a 	mul.d $f26,$f26,$f28
  405a78:	71 00 00 00 00 0a 04 0a 	add.d $f10,$f10,$f4
  405a80:	a2 00 00 00 01 10 01 00 	lui $1,4097
  405a88:	2b 00 00 00 f8 73 00 01 	l.d $f0,29688($1)
  405a90:	a2 00 00 00 01 10 01 00 	lui $1,4097
  405a98:	2b 00 00 00 b0 73 04 01 	l.d $f4,29616($1)
  405aa0:	71 00 00 00 00 0e 00 0e 	add.d $f14,$f14,$f0
  405aa8:	37 00 00 00 58 07 1a 1d 	s.d $f26,1880($29)
  405ab0:	2b 00 00 00 a8 16 1a 1d 	l.d $f26,5800($29)
  405ab8:	a2 00 00 00 01 10 01 00 	lui $1,4097
  405ac0:	2b 00 00 00 40 74 00 01 	l.d $f0,29760($1)
  405ac8:	71 00 00 00 00 04 04 1a 	add.d $f4,$f26,$f4
  405ad0:	2b 00 00 00 a0 16 1c 1d 	l.d $f28,5792($29)
  405ad8:	71 00 00 00 00 00 00 1c 	add.d $f0,$f28,$f0
  405ae0:	37 00 00 00 18 01 0a 1d 	s.d $f10,280($29)
  405ae8:	2b 00 00 00 18 01 1a 1d 	l.d $f26,280($29)
  405af0:	a2 00 00 00 01 10 01 00 	lui $1,4097
  405af8:	2b 00 00 00 c0 78 1c 01 	l.d $f28,30912($1)
  405b00:	a2 00 00 00 01 10 01 00 	lui $1,4097
  405b08:	2b 00 00 00 30 78 14 01 	l.d $f20,30768($1)
  405b10:	75 00 00 00 00 1a 1c 1a 	mul.d $f26,$f26,$f28
  405b18:	37 00 00 00 28 01 04 1d 	s.d $f4,296($29)
  405b20:	a2 00 00 00 01 10 01 00 	lui $1,4097
  405b28:	2b 00 00 00 88 73 04 01 	l.d $f4,29576($1)
  405b30:	37 00 00 00 e8 00 02 1d 	s.d $f2,232($29)
  405b38:	37 00 00 00 20 01 0e 1d 	s.d $f14,288($29)
  405b40:	37 00 00 00 30 01 00 1d 	s.d $f0,304($29)
  405b48:	37 00 00 00 60 07 1a 1d 	s.d $f26,1888($29)
  405b50:	2b 00 00 00 b8 06 1a 1d 	l.d $f26,1720($29)
  405b58:	a2 00 00 00 01 10 01 00 	lui $1,4097
  405b60:	2b 00 00 00 18 74 00 01 	l.d $f0,29720($1)
  405b68:	71 00 00 00 00 04 04 1a 	add.d $f4,$f26,$f4
  405b70:	2b 00 00 00 c0 06 1c 1d 	l.d $f28,1728($29)
  405b78:	71 00 00 00 00 00 00 1c 	add.d $f0,$f28,$f0
  405b80:	2b 00 00 00 20 01 1a 1d 	l.d $f26,288($29)
  405b88:	a2 00 00 00 01 10 01 00 	lui $1,4097
  405b90:	2b 00 00 00 30 79 1c 01 	l.d $f28,31024($1)
  405b98:	75 00 00 00 00 0e 1c 1a 	mul.d $f14,$f26,$f28
  405ba0:	37 00 00 00 38 01 04 1d 	s.d $f4,312($29)
  405ba8:	a2 00 00 00 01 10 01 00 	lui $1,4097
  405bb0:	2b 00 00 00 d0 73 04 01 	l.d $f4,29648($1)
  405bb8:	2b 00 00 00 c8 06 1a 1d 	l.d $f26,1736($29)
  405bc0:	37 00 00 00 40 01 00 1d 	s.d $f0,320($29)
  405bc8:	a2 00 00 00 01 10 01 00 	lui $1,4097
  405bd0:	2b 00 00 00 a0 73 00 01 	l.d $f0,29600($1)
  405bd8:	71 00 00 00 00 04 04 1a 	add.d $f4,$f26,$f4
  405be0:	2b 00 00 00 d0 06 1c 1d 	l.d $f28,1744($29)
  405be8:	71 00 00 00 00 00 00 1c 	add.d $f0,$f28,$f0
  405bf0:	2b 00 00 00 28 01 1a 1d 	l.d $f26,296($29)
  405bf8:	a2 00 00 00 01 10 01 00 	lui $1,4097
  405c00:	2b 00 00 00 38 79 1c 01 	l.d $f28,31032($1)
  405c08:	75 00 00 00 00 1a 1c 1a 	mul.d $f26,$f26,$f28
  405c10:	37 00 00 00 48 01 04 1d 	s.d $f4,328($29)
  405c18:	a2 00 00 00 01 10 01 00 	lui $1,4097
  405c20:	2b 00 00 00 30 74 04 01 	l.d $f4,29744($1)
  405c28:	37 00 00 00 a8 16 1a 1d 	s.d $f26,5800($29)
  405c30:	2b 00 00 00 d8 06 1a 1d 	l.d $f26,1752($29)
  405c38:	37 00 00 00 50 01 00 1d 	s.d $f0,336($29)
  405c40:	a2 00 00 00 01 10 01 00 	lui $1,4097
  405c48:	2b 00 00 00 e8 73 00 01 	l.d $f0,29672($1)
  405c50:	71 00 00 00 00 04 04 1a 	add.d $f4,$f26,$f4
  405c58:	2b 00 00 00 e0 06 1c 1d 	l.d $f28,1760($29)
  405c60:	71 00 00 00 00 00 00 1c 	add.d $f0,$f28,$f0
  405c68:	2b 00 00 00 30 01 1a 1d 	l.d $f26,304($29)
  405c70:	a2 00 00 00 01 10 01 00 	lui $1,4097
  405c78:	2b 00 00 00 40 79 1c 01 	l.d $f28,31040($1)
  405c80:	75 00 00 00 00 06 1c 1a 	mul.d $f6,$f26,$f28
  405c88:	37 00 00 00 58 01 04 1d 	s.d $f4,344($29)
  405c90:	a2 00 00 00 01 10 01 00 	lui $1,4097
  405c98:	2b 00 00 00 00 74 04 01 	l.d $f4,29696($1)
  405ca0:	2b 00 00 00 e8 06 1a 1d 	l.d $f26,1768($29)
  405ca8:	71 00 00 00 00 04 04 1a 	add.d $f4,$f26,$f4
  405cb0:	37 00 00 00 60 01 00 1d 	s.d $f0,352($29)
  405cb8:	37 00 00 00 68 01 04 1d 	s.d $f4,360($29)
  405cc0:	a2 00 00 00 01 10 01 00 	lui $1,4097
  405cc8:	2b 00 00 00 b8 73 00 01 	l.d $f0,29624($1)
  405cd0:	2b 00 00 00 f0 06 1c 1d 	l.d $f28,1776($29)
  405cd8:	71 00 00 00 00 00 00 1c 	add.d $f0,$f28,$f0
  405ce0:	2b 00 00 00 38 01 1a 1d 	l.d $f26,312($29)
  405ce8:	a2 00 00 00 01 10 01 00 	lui $1,4097
  405cf0:	2b 00 00 00 30 7a 1c 01 	l.d $f28,31280($1)
  405cf8:	75 00 00 00 00 1a 1c 1a 	mul.d $f26,$f26,$f28
  405d00:	a2 00 00 00 01 10 01 00 	lui $1,4097
  405d08:	2b 00 00 00 48 74 04 01 	l.d $f4,29768($1)
  405d10:	37 00 00 00 68 07 1a 1d 	s.d $f26,1896($29)
  405d18:	2b 00 00 00 f8 06 1a 1d 	l.d $f26,1784($29)
  405d20:	37 00 00 00 78 01 00 1d 	s.d $f0,376($29)
  405d28:	a2 00 00 00 01 10 01 00 	lui $1,4097
  405d30:	2b 00 00 00 90 73 00 01 	l.d $f0,29584($1)
  405d38:	71 00 00 00 00 04 04 1a 	add.d $f4,$f26,$f4
  405d40:	2b 00 00 00 00 07 1c 1d 	l.d $f28,1792($29)
  405d48:	71 00 00 00 00 00 00 1c 	add.d $f0,$f28,$f0
  405d50:	2b 00 00 00 40 01 1a 1d 	l.d $f26,320($29)
  405d58:	a2 00 00 00 01 10 01 00 	lui $1,4097
  405d60:	2b 00 00 00 38 7a 1c 01 	l.d $f28,31288($1)
  405d68:	75 00 00 00 00 0a 1c 1a 	mul.d $f10,$f26,$f28
  405d70:	37 00 00 00 80 01 04 1d 	s.d $f4,384($29)
  405d78:	a2 00 00 00 01 10 01 00 	lui $1,4097
  405d80:	2b 00 00 00 20 74 04 01 	l.d $f4,29728($1)
  405d88:	2b 00 00 00 08 07 1a 1d 	l.d $f26,1800($29)
  405d90:	37 00 00 00 88 01 00 1d 	s.d $f0,392($29)
  405d98:	a2 00 00 00 01 10 01 00 	lui $1,4097
  405da0:	2b 00 00 00 d8 73 00 01 	l.d $f0,29656($1)
  405da8:	71 00 00 00 00 04 04 1a 	add.d $f4,$f26,$f4
  405db0:	2b 00 00 00 10 07 1c 1d 	l.d $f28,1808($29)
  405db8:	71 00 00 00 00 00 00 1c 	add.d $f0,$f28,$f0
  405dc0:	2b 00 00 00 48 01 1a 1d 	l.d $f26,328($29)
  405dc8:	a2 00 00 00 01 10 01 00 	lui $1,4097
  405dd0:	2b 00 00 00 40 7a 1c 01 	l.d $f28,31296($1)
  405dd8:	75 00 00 00 00 1a 1c 1a 	mul.d $f26,$f26,$f28
  405de0:	37 00 00 00 90 01 04 1d 	s.d $f4,400($29)
  405de8:	a2 00 00 00 01 10 01 00 	lui $1,4097
  405df0:	2b 00 00 00 a8 73 04 01 	l.d $f4,29608($1)
  405df8:	37 00 00 00 70 07 1a 1d 	s.d $f26,1904($29)
  405e00:	2b 00 00 00 18 07 1a 1d 	l.d $f26,1816($29)
  405e08:	37 00 00 00 98 01 00 1d 	s.d $f0,408($29)
  405e10:	a2 00 00 00 01 10 01 00 	lui $1,4097
  405e18:	2b 00 00 00 38 74 00 01 	l.d $f0,29752($1)
  405e20:	71 00 00 00 00 04 04 1a 	add.d $f4,$f26,$f4
  405e28:	2b 00 00 00 20 07 1c 1d 	l.d $f28,1824($29)
  405e30:	71 00 00 00 00 00 00 1c 	add.d $f0,$f28,$f0
  405e38:	37 00 00 00 a0 01 04 1d 	s.d $f4,416($29)
  405e40:	a2 00 00 00 01 10 01 00 	lui $1,4097
  405e48:	2b 00 00 00 f0 73 04 01 	l.d $f4,29680($1)
  405e50:	37 00 00 00 a8 01 00 1d 	s.d $f0,424($29)
  405e58:	2b 00 00 00 50 01 1a 1d 	l.d $f26,336($29)
  405e60:	a2 00 00 00 01 10 01 00 	lui $1,4097
  405e68:	2b 00 00 00 b0 7a 1c 01 	l.d $f28,31408($1)
  405e70:	75 00 00 00 00 1a 1c 1a 	mul.d $f26,$f26,$f28
  405e78:	37 00 00 00 78 07 1a 1d 	s.d $f26,1912($29)
  405e80:	2b 00 00 00 28 07 1a 1d 	l.d $f26,1832($29)
  405e88:	a2 00 00 00 01 10 01 00 	lui $1,4097
  405e90:	2b 00 00 00 08 74 00 01 	l.d $f0,29704($1)
  405e98:	71 00 00 00 00 04 04 1a 	add.d $f4,$f26,$f4
  405ea0:	2b 00 00 00 30 07 1c 1d 	l.d $f28,1840($29)
  405ea8:	71 00 00 00 00 00 00 1c 	add.d $f0,$f28,$f0
  405eb0:	2b 00 00 00 58 01 1a 1d 	l.d $f26,344($29)
  405eb8:	a2 00 00 00 01 10 01 00 	lui $1,4097
  405ec0:	2b 00 00 00 b8 7a 1c 01 	l.d $f28,31416($1)
  405ec8:	75 00 00 00 00 1a 1c 1a 	mul.d $f26,$f26,$f28
  405ed0:	37 00 00 00 b0 01 04 1d 	s.d $f4,432($29)
  405ed8:	a2 00 00 00 01 10 01 00 	lui $1,4097
  405ee0:	2b 00 00 00 c0 73 04 01 	l.d $f4,29632($1)
  405ee8:	37 00 00 00 80 07 1a 1d 	s.d $f26,1920($29)
  405ef0:	2b 00 00 00 38 07 1a 1d 	l.d $f26,1848($29)
  405ef8:	37 00 00 00 b8 01 00 1d 	s.d $f0,440($29)
  405f00:	a2 00 00 00 01 10 01 00 	lui $1,4097
  405f08:	2b 00 00 00 50 74 00 01 	l.d $f0,29776($1)
  405f10:	71 00 00 00 00 04 04 1a 	add.d $f4,$f26,$f4
  405f18:	2b 00 00 00 40 07 1c 1d 	l.d $f28,1856($29)
  405f20:	71 00 00 00 00 00 00 1c 	add.d $f0,$f28,$f0
  405f28:	2b 00 00 00 60 01 1a 1d 	l.d $f26,352($29)
  405f30:	a2 00 00 00 01 10 01 00 	lui $1,4097
  405f38:	2b 00 00 00 c0 7a 1c 01 	l.d $f28,31424($1)
  405f40:	75 00 00 00 00 08 1c 1a 	mul.d $f8,$f26,$f28
  405f48:	75 00 00 00 00 02 14 02 	mul.d $f2,$f2,$f20
  405f50:	2b 00 00 00 48 07 1a 1d 	l.d $f26,1864($29)
  405f58:	71 00 00 00 00 02 1a 02 	add.d $f2,$f2,$f26
  405f60:	2b 00 00 00 68 01 1c 1d 	l.d $f28,360($29)
  405f68:	71 00 00 00 00 02 10 02 	add.d $f2,$f2,$f16
  405f70:	a2 00 00 00 01 10 01 00 	lui $1,4097
  405f78:	2b 00 00 00 30 7b 1a 01 	l.d $f26,31536($1)
  405f80:	75 00 00 00 00 10 1a 1c 	mul.d $f16,$f28,$f26
  405f88:	2b 00 00 00 50 07 1c 1d 	l.d $f28,1872($29)
  405f90:	71 00 00 00 00 02 1c 02 	add.d $f2,$f2,$f28
  405f98:	2b 00 00 00 58 07 1a 1d 	l.d $f26,1880($29)
  405fa0:	71 00 00 00 00 02 1a 02 	add.d $f2,$f2,$f26
  405fa8:	2b 00 00 00 78 01 1c 1d 	l.d $f28,376($29)
  405fb0:	a2 00 00 00 01 10 01 00 	lui $1,4097
  405fb8:	2b 00 00 00 38 7b 1a 01 	l.d $f26,31544($1)
  405fc0:	37 00 00 00 c0 01 04 1d 	s.d $f4,448($29)
  405fc8:	75 00 00 00 00 04 1a 1c 	mul.d $f4,$f28,$f26
  405fd0:	2b 00 00 00 60 07 1c 1d 	l.d $f28,1888($29)
  405fd8:	71 00 00 00 00 02 1c 02 	add.d $f2,$f2,$f28
  405fe0:	2b 00 00 00 80 01 1a 1d 	l.d $f26,384($29)
  405fe8:	71 00 00 00 00 02 0e 02 	add.d $f2,$f2,$f14
  405ff0:	a2 00 00 00 01 10 01 00 	lui $1,4097
  405ff8:	2b 00 00 00 40 7b 1c 01 	l.d $f28,31552($1)
  406000:	75 00 00 00 00 0e 1c 1a 	mul.d $f14,$f26,$f28
  406008:	2b 00 00 00 a8 16 1a 1d 	l.d $f26,5800($29)
  406010:	71 00 00 00 00 02 1a 02 	add.d $f2,$f2,$f26
  406018:	2b 00 00 00 88 01 1c 1d 	l.d $f28,392($29)
  406020:	71 00 00 00 00 02 06 02 	add.d $f2,$f2,$f6
  406028:	a2 00 00 00 01 10 01 00 	lui $1,4097
  406030:	2b 00 00 00 30 7c 1a 01 	l.d $f26,31792($1)
  406038:	75 00 00 00 00 06 1a 1c 	mul.d $f6,$f28,$f26
  406040:	2b 00 00 00 68 07 1c 1d 	l.d $f28,1896($29)
  406048:	71 00 00 00 00 02 1c 02 	add.d $f2,$f2,$f28
  406050:	2b 00 00 00 90 01 1a 1d 	l.d $f26,400($29)
  406058:	71 00 00 00 00 02 0a 02 	add.d $f2,$f2,$f10
  406060:	a2 00 00 00 01 10 01 00 	lui $1,4097
  406068:	2b 00 00 00 38 7c 1c 01 	l.d $f28,31800($1)
  406070:	75 00 00 00 00 0a 1c 1a 	mul.d $f10,$f26,$f28
  406078:	2b 00 00 00 70 07 1a 1d 	l.d $f26,1904($29)
  406080:	71 00 00 00 00 02 1a 02 	add.d $f2,$f2,$f26
  406088:	2b 00 00 00 78 07 1c 1d 	l.d $f28,1912($29)
  406090:	71 00 00 00 00 02 1c 02 	add.d $f2,$f2,$f28
  406098:	2b 00 00 00 98 01 1a 1d 	l.d $f26,408($29)
  4060a0:	a2 00 00 00 01 10 01 00 	lui $1,4097
  4060a8:	2b 00 00 00 40 7c 1c 01 	l.d $f28,31808($1)
  4060b0:	37 00 00 00 c8 01 00 1d 	s.d $f0,456($29)
  4060b8:	75 00 00 00 00 00 1c 1a 	mul.d $f0,$f26,$f28
  4060c0:	2b 00 00 00 80 07 1a 1d 	l.d $f26,1920($29)
  4060c8:	71 00 00 00 00 02 1a 02 	add.d $f2,$f2,$f26
  4060d0:	2b 00 00 00 a0 01 1c 1d 	l.d $f28,416($29)
  4060d8:	71 00 00 00 00 02 08 02 	add.d $f2,$f2,$f8
  4060e0:	a2 00 00 00 01 10 01 00 	lui $1,4097
  4060e8:	2b 00 00 00 b0 7c 1a 01 	l.d $f26,31920($1)
  4060f0:	75 00 00 00 00 08 1a 1c 	mul.d $f8,$f28,$f26
  4060f8:	71 00 00 00 00 02 10 02 	add.d $f2,$f2,$f16
  406100:	71 00 00 00 00 02 04 02 	add.d $f2,$f2,$f4
  406108:	2b 00 00 00 a8 01 1c 1d 	l.d $f28,424($29)
  406110:	a2 00 00 00 01 10 01 00 	lui $1,4097
  406118:	2b 00 00 00 b8 7c 1a 01 	l.d $f26,31928($1)
  406120:	75 00 00 00 00 04 1a 1c 	mul.d $f4,$f28,$f26
  406128:	71 00 00 00 00 02 0e 02 	add.d $f2,$f2,$f14
  406130:	71 00 00 00 00 02 06 02 	add.d $f2,$f2,$f6
  406138:	2b 00 00 00 b0 01 1c 1d 	l.d $f28,432($29)
  406140:	a2 00 00 00 01 10 01 00 	lui $1,4097
  406148:	2b 00 00 00 c0 7c 1a 01 	l.d $f26,31936($1)
  406150:	75 00 00 00 00 06 1a 1c 	mul.d $f6,$f28,$f26
  406158:	71 00 00 00 00 02 0a 02 	add.d $f2,$f2,$f10
  406160:	71 00 00 00 00 02 00 02 	add.d $f2,$f2,$f0
  406168:	2b 00 00 00 b8 01 1c 1d 	l.d $f28,440($29)
  406170:	a2 00 00 00 01 10 01 00 	lui $1,4097
  406178:	2b 00 00 00 30 7d 1a 01 	l.d $f26,32048($1)
  406180:	75 00 00 00 00 00 1a 1c 	mul.d $f0,$f28,$f26
  406188:	71 00 00 00 00 02 08 02 	add.d $f2,$f2,$f8
  406190:	71 00 00 00 00 02 04 02 	add.d $f2,$f2,$f4
  406198:	2b 00 00 00 c0 01 1c 1d 	l.d $f28,448($29)
  4061a0:	a2 00 00 00 01 10 01 00 	lui $1,4097
  4061a8:	2b 00 00 00 38 7d 1a 01 	l.d $f26,32056($1)
  4061b0:	75 00 00 00 00 04 1a 1c 	mul.d $f4,$f28,$f26
  4061b8:	71 00 00 00 00 02 06 02 	add.d $f2,$f2,$f6
  4061c0:	71 00 00 00 00 02 00 02 	add.d $f2,$f2,$f0
  4061c8:	2b 00 00 00 c8 01 1c 1d 	l.d $f28,456($29)
  4061d0:	a2 00 00 00 01 10 01 00 	lui $1,4097
  4061d8:	2b 00 00 00 40 7d 1a 01 	l.d $f26,32064($1)
  4061e0:	75 00 00 00 00 00 1a 1c 	mul.d $f0,$f28,$f26
  4061e8:	71 00 00 00 00 02 04 02 	add.d $f2,$f2,$f4
  4061f0:	71 00 00 00 00 02 00 02 	add.d $f2,$f2,$f0
  4061f8:	a2 00 00 00 01 10 01 00 	lui $1,4097
  406200:	2b 00 00 00 28 7f 1c 01 	l.d $f28,32552($1)
  406208:	75 00 00 00 00 02 1c 02 	mul.d $f2,$f2,$f28
  406210:	a2 00 00 00 01 10 01 00 	lui $1,4097
  406218:	2b 00 00 00 78 72 1a 01 	l.d $f26,29304($1)
  406220:	a2 00 00 00 01 10 01 00 	lui $1,4097
  406228:	2b 00 00 00 b0 78 1c 01 	l.d $f28,30896($1)
  406230:	75 00 00 00 00 04 1c 1a 	mul.d $f4,$f26,$f28
  406238:	a2 00 00 00 01 10 01 00 	lui $1,4097
  406240:	2b 00 00 00 90 72 1a 01 	l.d $f26,29328($1)
  406248:	a2 00 00 00 01 10 01 00 	lui $1,4097
  406250:	2b 00 00 00 30 79 1c 01 	l.d $f28,31024($1)
  406258:	75 00 00 00 00 06 1c 1a 	mul.d $f6,$f26,$f28
  406260:	a2 00 00 00 01 10 01 00 	lui $1,4097
  406268:	2b 00 00 00 68 72 1a 01 	l.d $f26,29288($1)
  406270:	a2 00 00 00 01 10 01 00 	lui $1,4097
  406278:	2b 00 00 00 30 7a 1c 01 	l.d $f28,31280($1)
  406280:	75 00 00 00 00 08 1c 1a 	mul.d $f8,$f26,$f28
  406288:	a2 00 00 00 01 10 01 00 	lui $1,4097
  406290:	2b 00 00 00 80 72 1a 01 	l.d $f26,29312($1)
  406298:	a2 00 00 00 01 10 01 00 	lui $1,4097
  4062a0:	2b 00 00 00 b0 7a 1c 01 	l.d $f28,31408($1)
  4062a8:	75 00 00 00 00 0a 1c 1a 	mul.d $f10,$f26,$f28
  4062b0:	a2 00 00 00 01 10 01 00 	lui $1,4097
  4062b8:	2b 00 00 00 30 7b 1a 01 	l.d $f26,31536($1)
  4062c0:	75 00 00 00 00 1a 1a 1e 	mul.d $f26,$f30,$f26
  4062c8:	37 00 00 00 90 07 1a 1d 	s.d $f26,1936($29)
  4062d0:	a2 00 00 00 01 10 01 00 	lui $1,4097
  4062d8:	2b 00 00 00 30 7c 1c 01 	l.d $f28,31792($1)
  4062e0:	75 00 00 00 00 1c 1c 18 	mul.d $f28,$f24,$f28
  4062e8:	a2 00 00 00 01 10 01 00 	lui $1,4097
  4062f0:	2b 00 00 00 b0 7c 1a 01 	l.d $f26,31920($1)
  4062f8:	75 00 00 00 00 1a 1a 16 	mul.d $f26,$f22,$f26
  406300:	37 00 00 00 98 07 1c 1d 	s.d $f28,1944($29)
  406308:	a2 00 00 00 01 10 01 00 	lui $1,4097
  406310:	2b 00 00 00 30 7d 1c 01 	l.d $f28,32048($1)
  406318:	75 00 00 00 00 1c 1c 0c 	mul.d $f28,$f12,$f28
  406320:	37 00 00 00 a0 07 1a 1d 	s.d $f26,1952($29)
  406328:	a2 00 00 00 01 10 01 00 	lui $1,4097
  406330:	2b 00 00 00 38 78 1a 01 	l.d $f26,30776($1)
  406338:	75 00 00 00 00 0e 1a 12 	mul.d $f14,$f18,$f26
  406340:	75 00 00 00 00 10 14 12 	mul.d $f16,$f18,$f20
  406348:	37 00 00 00 a8 07 1c 1d 	s.d $f28,1960($29)
  406350:	a2 00 00 00 01 10 01 00 	lui $1,4097
  406358:	2b 00 00 00 78 72 1c 01 	l.d $f28,29304($1)
  406360:	a2 00 00 00 01 10 01 00 	lui $1,4097
  406368:	2b 00 00 00 b8 78 1a 01 	l.d $f26,30904($1)
  406370:	75 00 00 00 00 00 1a 1c 	mul.d $f0,$f28,$f26
  406378:	71 00 00 00 00 10 04 10 	add.d $f16,$f16,$f4
  406380:	a2 00 00 00 01 10 01 00 	lui $1,4097
  406388:	2b 00 00 00 90 72 1c 01 	l.d $f28,29328($1)
  406390:	a2 00 00 00 01 10 01 00 	lui $1,4097
  406398:	2b 00 00 00 38 79 1a 01 	l.d $f26,31032($1)
  4063a0:	75 00 00 00 00 04 1a 1c 	mul.d $f4,$f28,$f26
  4063a8:	71 00 00 00 00 0e 00 0e 	add.d $f14,$f14,$f0
  4063b0:	a2 00 00 00 01 10 01 00 	lui $1,4097
  4063b8:	2b 00 00 00 68 72 1c 01 	l.d $f28,29288($1)
  4063c0:	a2 00 00 00 01 10 01 00 	lui $1,4097
  4063c8:	2b 00 00 00 38 7a 1a 01 	l.d $f26,31288($1)
  4063d0:	75 00 00 00 00 00 1a 1c 	mul.d $f0,$f28,$f26
  4063d8:	71 00 00 00 00 0e 04 0e 	add.d $f14,$f14,$f4
  4063e0:	a2 00 00 00 01 10 01 00 	lui $1,4097
  4063e8:	2b 00 00 00 80 72 1c 01 	l.d $f28,29312($1)
  4063f0:	a2 00 00 00 01 10 01 00 	lui $1,4097
  4063f8:	2b 00 00 00 b8 7a 1a 01 	l.d $f26,31416($1)
  406400:	75 00 00 00 00 04 1a 1c 	mul.d $f4,$f28,$f26
  406408:	71 00 00 00 00 10 06 10 	add.d $f16,$f16,$f6
  406410:	71 00 00 00 00 0e 00 0e 	add.d $f14,$f14,$f0
  406418:	a2 00 00 00 01 10 01 00 	lui $1,4097
  406420:	2b 00 00 00 38 7b 1c 01 	l.d $f28,31544($1)
  406428:	71 00 00 00 00 10 08 10 	add.d $f16,$f16,$f8
  406430:	75 00 00 00 00 00 1c 1e 	mul.d $f0,$f30,$f28
  406438:	71 00 00 00 00 10 0a 10 	add.d $f16,$f16,$f10
  406440:	71 00 00 00 00 0e 04 0e 	add.d $f14,$f14,$f4
  406448:	2b 00 00 00 90 07 1a 1d 	l.d $f26,1936($29)
  406450:	a2 00 00 00 01 10 01 00 	lui $1,4097
  406458:	2b 00 00 00 38 7c 1c 01 	l.d $f28,31800($1)
  406460:	71 00 00 00 00 10 1a 10 	add.d $f16,$f16,$f26
  406468:	75 00 00 00 00 04 1c 18 	mul.d $f4,$f24,$f28
  406470:	2b 00 00 00 98 07 1a 1d 	l.d $f26,1944($29)
  406478:	71 00 00 00 00 10 1a 10 	add.d $f16,$f16,$f26
  406480:	a2 00 00 00 01 10 01 00 	lui $1,4097
  406488:	2b 00 00 00 b8 7c 1c 01 	l.d $f28,31928($1)
  406490:	2b 00 00 00 a0 07 1a 1d 	l.d $f26,1952($29)
  406498:	75 00 00 00 00 06 1c 16 	mul.d $f6,$f22,$f28
  4064a0:	71 00 00 00 00 10 1a 10 	add.d $f16,$f16,$f26
  4064a8:	71 00 00 00 00 0e 00 0e 	add.d $f14,$f14,$f0
  4064b0:	a2 00 00 00 01 10 01 00 	lui $1,4097
  4064b8:	2b 00 00 00 38 7d 1c 01 	l.d $f28,32056($1)
  4064c0:	2b 00 00 00 a8 07 1a 1d 	l.d $f26,1960($29)
  4064c8:	75 00 00 00 00 00 1c 0c 	mul.d $f0,$f12,$f28
  4064d0:	71 00 00 00 00 10 1a 10 	add.d $f16,$f16,$f26
  4064d8:	a2 00 00 00 01 10 01 00 	lui $1,4097
  4064e0:	2b 00 00 00 40 78 1a 01 	l.d $f26,30784($1)
  4064e8:	75 00 00 00 00 12 1a 12 	mul.d $f18,$f18,$f26
  4064f0:	71 00 00 00 00 0e 04 0e 	add.d $f14,$f14,$f4
  4064f8:	a2 00 00 00 01 10 01 00 	lui $1,4097
  406500:	2b 00 00 00 28 7f 1c 01 	l.d $f28,32552($1)
  406508:	71 00 00 00 00 0e 06 0e 	add.d $f14,$f14,$f6
  406510:	75 00 00 00 00 10 1c 10 	mul.d $f16,$f16,$f28
  406518:	71 00 00 00 00 0e 00 0e 	add.d $f14,$f14,$f0
  406520:	75 00 00 00 00 0e 1c 0e 	mul.d $f14,$f14,$f28
  406528:	a2 00 00 00 01 10 01 00 	lui $1,4097
  406530:	2b 00 00 00 c0 78 1a 01 	l.d $f26,30912($1)
  406538:	a2 00 00 00 01 10 01 00 	lui $1,4097
  406540:	2b 00 00 00 78 72 1c 01 	l.d $f28,29304($1)
  406548:	75 00 00 00 00 04 1a 1c 	mul.d $f4,$f28,$f26
  406550:	a2 00 00 00 01 10 01 00 	lui $1,4097
  406558:	2b 00 00 00 90 72 1c 01 	l.d $f28,29328($1)
  406560:	a2 00 00 00 01 10 01 00 	lui $1,4097
  406568:	2b 00 00 00 40 79 1a 01 	l.d $f26,31040($1)
  406570:	75 00 00 00 00 06 1a 1c 	mul.d $f6,$f28,$f26
  406578:	a2 00 00 00 01 10 01 00 	lui $1,4097
  406580:	2b 00 00 00 68 72 1c 01 	l.d $f28,29288($1)
  406588:	a2 00 00 00 01 10 01 00 	lui $1,4097
  406590:	2b 00 00 00 40 7a 1a 01 	l.d $f26,31296($1)
  406598:	75 00 00 00 00 0a 1a 1c 	mul.d $f10,$f28,$f26
  4065a0:	a2 00 00 00 01 10 01 00 	lui $1,4097
  4065a8:	2b 00 00 00 80 72 1c 01 	l.d $f28,29312($1)
  4065b0:	a2 00 00 00 01 10 01 00 	lui $1,4097
  4065b8:	2b 00 00 00 c0 7a 1a 01 	l.d $f26,31424($1)
  4065c0:	75 00 00 00 00 1c 1a 1c 	mul.d $f28,$f28,$f26
  4065c8:	37 00 00 00 c0 07 1c 1d 	s.d $f28,1984($29)
  4065d0:	a2 00 00 00 01 10 01 00 	lui $1,4097
  4065d8:	2b 00 00 00 40 7b 1c 01 	l.d $f28,31552($1)
  4065e0:	75 00 00 00 00 1e 1c 1e 	mul.d $f30,$f30,$f28
  4065e8:	a2 00 00 00 01 10 01 00 	lui $1,4097
  4065f0:	2b 00 00 00 40 7c 1a 01 	l.d $f26,31808($1)
  4065f8:	75 00 00 00 00 18 1a 18 	mul.d $f24,$f24,$f26
  406600:	a2 00 00 00 01 10 01 00 	lui $1,4097
  406608:	2b 00 00 00 c0 7c 1c 01 	l.d $f28,31936($1)
  406610:	75 00 00 00 00 16 1c 16 	mul.d $f22,$f22,$f28
  406618:	a2 00 00 00 01 10 01 00 	lui $1,4097
  406620:	2b 00 00 00 40 7d 1a 01 	l.d $f26,32064($1)
  406628:	75 00 00 00 00 0c 1a 0c 	mul.d $f12,$f12,$f26
  406630:	2b 00 00 00 a0 00 1c 1d 	l.d $f28,160($29)
  406638:	75 00 00 00 00 08 14 1c 	mul.d $f8,$f28,$f20
  406640:	2b 00 00 00 a8 00 1a 1d 	l.d $f26,168($29)
  406648:	a2 00 00 00 01 10 01 00 	lui $1,4097
  406650:	2b 00 00 00 38 78 1c 01 	l.d $f28,30776($1)
  406658:	75 00 00 00 00 00 1c 1a 	mul.d $f0,$f26,$f28
  406660:	71 00 00 00 00 12 04 12 	add.d $f18,$f18,$f4
  406668:	2b 00 00 00 b0 00 1a 1d 	l.d $f26,176($29)
  406670:	a2 00 00 00 01 10 01 00 	lui $1,4097
  406678:	2b 00 00 00 40 78 1c 01 	l.d $f28,30784($1)
  406680:	75 00 00 00 00 04 1c 1a 	mul.d $f4,$f26,$f28
  406688:	71 00 00 00 00 08 00 08 	add.d $f8,$f8,$f0
  406690:	2b 00 00 00 b8 00 1a 1d 	l.d $f26,184($29)
  406698:	a2 00 00 00 01 10 01 00 	lui $1,4097
  4066a0:	2b 00 00 00 30 7a 1c 01 	l.d $f28,31280($1)
  4066a8:	75 00 00 00 00 00 1c 1a 	mul.d $f0,$f26,$f28
  4066b0:	71 00 00 00 00 08 04 08 	add.d $f8,$f8,$f4
  4066b8:	2b 00 00 00 c0 00 1a 1d 	l.d $f26,192($29)
  4066c0:	a2 00 00 00 01 10 01 00 	lui $1,4097
  4066c8:	2b 00 00 00 38 7a 1c 01 	l.d $f28,31288($1)
  4066d0:	75 00 00 00 00 04 1c 1a 	mul.d $f4,$f26,$f28
  4066d8:	71 00 00 00 00 12 06 12 	add.d $f18,$f18,$f6
  4066e0:	71 00 00 00 00 12 0a 12 	add.d $f18,$f18,$f10
  4066e8:	2b 00 00 00 c0 07 1a 1d 	l.d $f26,1984($29)
  4066f0:	71 00 00 00 00 12 1a 12 	add.d $f18,$f18,$f26
  4066f8:	71 00 00 00 00 08 00 08 	add.d $f8,$f8,$f0
  406700:	2b 00 00 00 c8 00 1c 1d 	l.d $f28,200($29)
  406708:	a2 00 00 00 01 10 01 00 	lui $1,4097
  406710:	2b 00 00 00 40 7a 1a 01 	l.d $f26,31296($1)
  406718:	75 00 00 00 00 00 1a 1c 	mul.d $f0,$f28,$f26
  406720:	71 00 00 00 00 08 04 08 	add.d $f8,$f8,$f4
  406728:	2b 00 00 00 d0 00 1c 1d 	l.d $f28,208($29)
  406730:	a2 00 00 00 01 10 01 00 	lui $1,4097
  406738:	2b 00 00 00 30 7c 1a 01 	l.d $f26,31792($1)
  406740:	75 00 00 00 00 04 1a 1c 	mul.d $f4,$f28,$f26
  406748:	2b 00 00 00 d8 00 1c 1d 	l.d $f28,216($29)
  406750:	a2 00 00 00 01 10 01 00 	lui $1,4097
  406758:	2b 00 00 00 38 7c 1a 01 	l.d $f26,31800($1)
  406760:	71 00 00 00 00 12 1e 12 	add.d $f18,$f18,$f30
  406768:	75 00 00 00 00 06 1a 1c 	mul.d $f6,$f28,$f26
  406770:	71 00 00 00 00 12 18 12 	add.d $f18,$f18,$f24
  406778:	71 00 00 00 00 08 00 08 	add.d $f8,$f8,$f0
  406780:	2b 00 00 00 e0 00 1c 1d 	l.d $f28,224($29)
  406788:	a2 00 00 00 01 10 01 00 	lui $1,4097
  406790:	2b 00 00 00 40 7c 1a 01 	l.d $f26,31808($1)
  406798:	71 00 00 00 00 12 16 12 	add.d $f18,$f18,$f22
  4067a0:	75 00 00 00 00 00 1a 1c 	mul.d $f0,$f28,$f26
  4067a8:	71 00 00 00 00 12 0c 12 	add.d $f18,$f18,$f12
  4067b0:	71 00 00 00 00 08 04 08 	add.d $f8,$f8,$f4
  4067b8:	a2 00 00 00 01 10 01 00 	lui $1,4097
  4067c0:	2b 00 00 00 28 7f 1c 01 	l.d $f28,32552($1)
  4067c8:	71 00 00 00 00 08 06 08 	add.d $f8,$f8,$f6
  4067d0:	75 00 00 00 00 12 1c 12 	mul.d $f18,$f18,$f28
  4067d8:	71 00 00 00 00 08 00 08 	add.d $f8,$f8,$f0
  4067e0:	75 00 00 00 00 08 1c 08 	mul.d $f8,$f8,$f28
  4067e8:	2b 00 00 00 a0 00 1a 1d 	l.d $f26,160($29)
  4067f0:	a2 00 00 00 01 10 01 00 	lui $1,4097
  4067f8:	2b 00 00 00 b0 78 1c 01 	l.d $f28,30896($1)
  406800:	75 00 00 00 00 06 1c 1a 	mul.d $f6,$f26,$f28
  406808:	2b 00 00 00 a8 00 1a 1d 	l.d $f26,168($29)
  406810:	a2 00 00 00 01 10 01 00 	lui $1,4097
  406818:	2b 00 00 00 b8 78 1c 01 	l.d $f28,30904($1)
  406820:	75 00 00 00 00 0a 1c 1a 	mul.d $f10,$f26,$f28
  406828:	2b 00 00 00 b0 00 1a 1d 	l.d $f26,176($29)
  406830:	a2 00 00 00 01 10 01 00 	lui $1,4097
  406838:	2b 00 00 00 c0 78 1c 01 	l.d $f28,30912($1)
  406840:	75 00 00 00 00 0c 1c 1a 	mul.d $f12,$f26,$f28
  406848:	2b 00 00 00 b8 00 1a 1d 	l.d $f26,184($29)
  406850:	a2 00 00 00 01 10 01 00 	lui $1,4097
  406858:	2b 00 00 00 b0 7a 1c 01 	l.d $f28,31408($1)
  406860:	75 00 00 00 00 16 1c 1a 	mul.d $f22,$f26,$f28
  406868:	2b 00 00 00 c0 00 1a 1d 	l.d $f26,192($29)
  406870:	a2 00 00 00 01 10 01 00 	lui $1,4097
  406878:	2b 00 00 00 b8 7a 1c 01 	l.d $f28,31416($1)
  406880:	75 00 00 00 00 18 1c 1a 	mul.d $f24,$f26,$f28
  406888:	2b 00 00 00 c8 00 1a 1d 	l.d $f26,200($29)
  406890:	a2 00 00 00 01 10 01 00 	lui $1,4097
  406898:	2b 00 00 00 c0 7a 1c 01 	l.d $f28,31424($1)
  4068a0:	75 00 00 00 00 1e 1c 1a 	mul.d $f30,$f26,$f28
  4068a8:	2b 00 00 00 d0 00 1a 1d 	l.d $f26,208($29)
  4068b0:	a2 00 00 00 01 10 01 00 	lui $1,4097
  4068b8:	2b 00 00 00 b0 7c 1c 01 	l.d $f28,31920($1)
  4068c0:	75 00 00 00 00 1a 1c 1a 	mul.d $f26,$f26,$f28
  4068c8:	37 00 00 00 d8 07 1a 1d 	s.d $f26,2008($29)
  4068d0:	2b 00 00 00 d8 00 1a 1d 	l.d $f26,216($29)
  4068d8:	a2 00 00 00 01 10 01 00 	lui $1,4097
  4068e0:	2b 00 00 00 b8 7c 1c 01 	l.d $f28,31928($1)
  4068e8:	75 00 00 00 00 1a 1c 1a 	mul.d $f26,$f26,$f28
  4068f0:	37 00 00 00 e0 07 1a 1d 	s.d $f26,2016($29)
  4068f8:	2b 00 00 00 e0 00 1a 1d 	l.d $f26,224($29)
  406900:	a2 00 00 00 01 10 01 00 	lui $1,4097
  406908:	2b 00 00 00 c0 7c 1c 01 	l.d $f28,31936($1)
  406910:	75 00 00 00 00 1a 1c 1a 	mul.d $f26,$f26,$f28
  406918:	37 00 00 00 e8 07 1a 1d 	s.d $f26,2024($29)
  406920:	2b 00 00 00 a0 00 1a 1d 	l.d $f26,160($29)
  406928:	a2 00 00 00 01 10 01 00 	lui $1,4097
  406930:	2b 00 00 00 30 79 1c 01 	l.d $f28,31024($1)
  406938:	75 00 00 00 00 04 1c 1a 	mul.d $f4,$f26,$f28
  406940:	2b 00 00 00 a8 00 1a 1d 	l.d $f26,168($29)
  406948:	a2 00 00 00 01 10 01 00 	lui $1,4097
  406950:	2b 00 00 00 38 79 1c 01 	l.d $f28,31032($1)
  406958:	75 00 00 00 00 00 1c 1a 	mul.d $f0,$f26,$f28
  406960:	71 00 00 00 00 06 0a 06 	add.d $f6,$f6,$f10
  406968:	2b 00 00 00 b0 00 1a 1d 	l.d $f26,176($29)
  406970:	a2 00 00 00 01 10 01 00 	lui $1,4097
  406978:	2b 00 00 00 40 79 1c 01 	l.d $f28,31040($1)
  406980:	75 00 00 00 00 0a 1c 1a 	mul.d $f10,$f26,$f28
  406988:	71 00 00 00 00 04 00 04 	add.d $f4,$f4,$f0
  406990:	2b 00 00 00 b8 00 1a 1d 	l.d $f26,184($29)
  406998:	a2 00 00 00 01 10 01 00 	lui $1,4097
  4069a0:	2b 00 00 00 30 7b 1c 01 	l.d $f28,31536($1)
  4069a8:	75 00 00 00 00 00 1c 1a 	mul.d $f0,$f26,$f28
  4069b0:	71 00 00 00 00 04 0a 04 	add.d $f4,$f4,$f10
  4069b8:	2b 00 00 00 c0 00 1a 1d 	l.d $f26,192($29)
  4069c0:	a2 00 00 00 01 10 01 00 	lui $1,4097
  4069c8:	2b 00 00 00 38 7b 1c 01 	l.d $f28,31544($1)
  4069d0:	75 00 00 00 00 0a 1c 1a 	mul.d $f10,$f26,$f28
  4069d8:	71 00 00 00 00 04 00 04 	add.d $f4,$f4,$f0
  4069e0:	2b 00 00 00 c8 00 1a 1d 	l.d $f26,200($29)
  4069e8:	a2 00 00 00 01 10 01 00 	lui $1,4097
  4069f0:	2b 00 00 00 40 7b 1c 01 	l.d $f28,31552($1)
  4069f8:	75 00 00 00 00 00 1c 1a 	mul.d $f0,$f26,$f28
  406a00:	71 00 00 00 00 06 0c 06 	add.d $f6,$f6,$f12
  406a08:	71 00 00 00 00 04 0a 04 	add.d $f4,$f4,$f10
  406a10:	2b 00 00 00 d0 00 1a 1d 	l.d $f26,208($29)
  406a18:	a2 00 00 00 01 10 01 00 	lui $1,4097
  406a20:	2b 00 00 00 30 7d 1c 01 	l.d $f28,32048($1)
  406a28:	71 00 00 00 00 06 16 06 	add.d $f6,$f6,$f22
  406a30:	75 00 00 00 00 0a 1c 1a 	mul.d $f10,$f26,$f28
  406a38:	71 00 00 00 00 06 18 06 	add.d $f6,$f6,$f24
  406a40:	71 00 00 00 00 06 1e 06 	add.d $f6,$f6,$f30
  406a48:	2b 00 00 00 d8 07 1a 1d 	l.d $f26,2008($29)
  406a50:	71 00 00 00 00 06 1a 06 	add.d $f6,$f6,$f26
  406a58:	2b 00 00 00 d8 00 1c 1d 	l.d $f28,216($29)
  406a60:	a2 00 00 00 01 10 01 00 	lui $1,4097
  406a68:	2b 00 00 00 38 7d 1a 01 	l.d $f26,32056($1)
  406a70:	75 00 00 00 00 0c 1a 1c 	mul.d $f12,$f28,$f26
  406a78:	2b 00 00 00 e0 07 1c 1d 	l.d $f28,2016($29)
  406a80:	71 00 00 00 00 06 1c 06 	add.d $f6,$f6,$f28
  406a88:	71 00 00 00 00 04 00 04 	add.d $f4,$f4,$f0
  406a90:	2b 00 00 00 e0 00 1a 1d 	l.d $f26,224($29)
  406a98:	a2 00 00 00 01 10 01 00 	lui $1,4097
  406aa0:	2b 00 00 00 40 7d 1c 01 	l.d $f28,32064($1)
  406aa8:	71 00 00 00 00 04 0a 04 	add.d $f4,$f4,$f10
  406ab0:	75 00 00 00 00 00 1c 1a 	mul.d $f0,$f26,$f28
  406ab8:	71 00 00 00 00 04 0c 04 	add.d $f4,$f4,$f12
  406ac0:	71 00 00 00 00 04 00 04 	add.d $f4,$f4,$f0
  406ac8:	a2 00 00 00 01 10 01 00 	lui $1,4097
  406ad0:	2b 00 00 00 28 7f 1c 01 	l.d $f28,32552($1)
  406ad8:	75 00 00 00 00 04 1c 04 	mul.d $f4,$f4,$f28
  406ae0:	2b 00 00 00 e8 07 1a 1d 	l.d $f26,2024($29)
  406ae8:	71 00 00 00 00 06 1a 06 	add.d $f6,$f6,$f26
  406af0:	75 00 00 00 00 06 1c 06 	mul.d $f6,$f6,$f28
  406af8:	2b 00 00 00 58 00 1a 1d 	l.d $f26,88($29)
  406b00:	75 00 00 00 00 14 14 1a 	mul.d $f20,$f26,$f20
  406b08:	2b 00 00 00 60 00 1c 1d 	l.d $f28,96($29)
  406b10:	a2 00 00 00 01 10 01 00 	lui $1,4097
  406b18:	2b 00 00 00 38 78 1a 01 	l.d $f26,30776($1)
  406b20:	75 00 00 00 00 0a 1a 1c 	mul.d $f10,$f28,$f26
  406b28:	2b 00 00 00 68 00 1c 1d 	l.d $f28,104($29)
  406b30:	a2 00 00 00 01 10 01 00 	lui $1,4097
  406b38:	2b 00 00 00 40 78 1a 01 	l.d $f26,30784($1)
  406b40:	75 00 00 00 00 0c 1a 1c 	mul.d $f12,$f28,$f26
  406b48:	2b 00 00 00 70 00 1c 1d 	l.d $f28,112($29)
  406b50:	a2 00 00 00 01 10 01 00 	lui $1,4097
  406b58:	2b 00 00 00 b0 78 1a 01 	l.d $f26,30896($1)
  406b60:	75 00 00 00 00 16 1a 1c 	mul.d $f22,$f28,$f26
  406b68:	2b 00 00 00 78 00 1c 1d 	l.d $f28,120($29)
  406b70:	a2 00 00 00 01 10 01 00 	lui $1,4097
  406b78:	2b 00 00 00 b8 78 1a 01 	l.d $f26,30904($1)
  406b80:	75 00 00 00 00 18 1a 1c 	mul.d $f24,$f28,$f26
  406b88:	2b 00 00 00 80 00 1c 1d 	l.d $f28,128($29)
  406b90:	a2 00 00 00 01 10 01 00 	lui $1,4097
  406b98:	2b 00 00 00 c0 78 1a 01 	l.d $f26,30912($1)
  406ba0:	75 00 00 00 00 1e 1a 1c 	mul.d $f30,$f28,$f26
  406ba8:	2b 00 00 00 88 00 1c 1d 	l.d $f28,136($29)
  406bb0:	a2 00 00 00 01 10 01 00 	lui $1,4097
  406bb8:	2b 00 00 00 30 79 1a 01 	l.d $f26,31024($1)
  406bc0:	75 00 00 00 00 1c 1a 1c 	mul.d $f28,$f28,$f26
  406bc8:	37 00 00 00 00 08 1c 1d 	s.d $f28,2048($29)
  406bd0:	2b 00 00 00 90 00 1c 1d 	l.d $f28,144($29)
  406bd8:	a2 00 00 00 01 10 01 00 	lui $1,4097
  406be0:	2b 00 00 00 38 79 1a 01 	l.d $f26,31032($1)
  406be8:	75 00 00 00 00 1c 1a 1c 	mul.d $f28,$f28,$f26
  406bf0:	37 00 00 00 08 08 1c 1d 	s.d $f28,2056($29)
  406bf8:	2b 00 00 00 98 00 1c 1d 	l.d $f28,152($29)
  406c00:	a2 00 00 00 01 10 01 00 	lui $1,4097
  406c08:	2b 00 00 00 40 79 1a 01 	l.d $f26,31040($1)
  406c10:	75 00 00 00 00 1c 1a 1c 	mul.d $f28,$f28,$f26
  406c18:	37 00 00 00 10 08 1c 1d 	s.d $f28,2064($29)
  406c20:	2b 00 00 00 58 00 1c 1d 	l.d $f28,88($29)
  406c28:	a2 00 00 00 01 10 01 00 	lui $1,4097
  406c30:	2b 00 00 00 30 7a 1a 01 	l.d $f26,31280($1)
  406c38:	75 00 00 00 00 1c 1a 1c 	mul.d $f28,$f28,$f26
  406c40:	37 00 00 00 a0 16 1c 1d 	s.d $f28,5792($29)
  406c48:	2b 00 00 00 60 00 1c 1d 	l.d $f28,96($29)
  406c50:	a2 00 00 00 01 10 01 00 	lui $1,4097
  406c58:	2b 00 00 00 38 7a 1a 01 	l.d $f26,31288($1)
  406c60:	75 00 00 00 00 00 1a 1c 	mul.d $f0,$f28,$f26
  406c68:	71 00 00 00 00 14 0a 14 	add.d $f20,$f20,$f10
  406c70:	2b 00 00 00 68 00 1c 1d 	l.d $f28,104($29)
  406c78:	a2 00 00 00 01 10 01 00 	lui $1,4097
  406c80:	2b 00 00 00 40 7a 1a 01 	l.d $f26,31296($1)
  406c88:	75 00 00 00 00 0a 1a 1c 	mul.d $f10,$f28,$f26
  406c90:	2b 00 00 00 a0 16 1c 1d 	l.d $f28,5792($29)
  406c98:	71 00 00 00 00 00 00 1c 	add.d $f0,$f28,$f0
  406ca0:	2b 00 00 00 70 00 1a 1d 	l.d $f26,112($29)
  406ca8:	a2 00 00 00 01 10 01 00 	lui $1,4097
  406cb0:	2b 00 00 00 b0 7a 1c 01 	l.d $f28,31408($1)
  406cb8:	37 00 00 00 a0 16 00 1d 	s.d $f0,5792($29)
  406cc0:	75 00 00 00 00 00 1c 1a 	mul.d $f0,$f26,$f28
  406cc8:	2b 00 00 00 a0 16 1a 1d 	l.d $f26,5792($29)
  406cd0:	71 00 00 00 00 0a 0a 1a 	add.d $f10,$f26,$f10
  406cd8:	2b 00 00 00 78 00 1c 1d 	l.d $f28,120($29)
  406ce0:	a2 00 00 00 01 10 01 00 	lui $1,4097
  406ce8:	2b 00 00 00 b8 7a 1a 01 	l.d $f26,31416($1)
  406cf0:	37 00 00 00 a0 16 0a 1d 	s.d $f10,5792($29)
  406cf8:	75 00 00 00 00 0a 1a 1c 	mul.d $f10,$f28,$f26
  406d00:	2b 00 00 00 a0 16 1c 1d 	l.d $f28,5792($29)
  406d08:	71 00 00 00 00 00 00 1c 	add.d $f0,$f28,$f0
  406d10:	2b 00 00 00 80 00 1a 1d 	l.d $f26,128($29)
  406d18:	a2 00 00 00 01 10 01 00 	lui $1,4097
  406d20:	2b 00 00 00 c0 7a 1c 01 	l.d $f28,31424($1)
  406d28:	37 00 00 00 a0 16 00 1d 	s.d $f0,5792($29)
  406d30:	75 00 00 00 00 00 1c 1a 	mul.d $f0,$f26,$f28
  406d38:	2b 00 00 00 a0 16 1a 1d 	l.d $f26,5792($29)
  406d40:	71 00 00 00 00 0a 0a 1a 	add.d $f10,$f26,$f10
  406d48:	71 00 00 00 00 14 0c 14 	add.d $f20,$f20,$f12
  406d50:	37 00 00 00 a0 16 0a 1d 	s.d $f10,5792($29)
  406d58:	2b 00 00 00 88 00 1c 1d 	l.d $f28,136($29)
  406d60:	a2 00 00 00 01 10 01 00 	lui $1,4097
  406d68:	2b 00 00 00 30 7b 1a 01 	l.d $f26,31536($1)
  406d70:	71 00 00 00 00 14 16 14 	add.d $f20,$f20,$f22
  406d78:	75 00 00 00 00 0a 1a 1c 	mul.d $f10,$f28,$f26
  406d80:	71 00 00 00 00 14 18 14 	add.d $f20,$f20,$f24
  406d88:	71 00 00 00 00 14 1e 14 	add.d $f20,$f20,$f30
  406d90:	2b 00 00 00 00 08 1c 1d 	l.d $f28,2048($29)
  406d98:	71 00 00 00 00 14 1c 14 	add.d $f20,$f20,$f28
  406da0:	2b 00 00 00 a0 16 1a 1d 	l.d $f26,5792($29)
  406da8:	71 00 00 00 00 00 00 1a 	add.d $f0,$f26,$f0
  406db0:	2b 00 00 00 90 00 1c 1d 	l.d $f28,144($29)
  406db8:	a2 00 00 00 01 10 01 00 	lui $1,4097
  406dc0:	2b 00 00 00 38 7b 1a 01 	l.d $f26,31544($1)
  406dc8:	75 00 00 00 00 0c 1a 1c 	mul.d $f12,$f28,$f26
  406dd0:	2b 00 00 00 08 08 1c 1d 	l.d $f28,2056($29)
  406dd8:	71 00 00 00 00 14 1c 14 	add.d $f20,$f20,$f28
  406de0:	37 00 00 00 a0 16 00 1d 	s.d $f0,5792($29)
  406de8:	71 00 00 00 00 0a 0a 00 	add.d $f10,$f0,$f10
  406df0:	2b 00 00 00 98 00 1a 1d 	l.d $f26,152($29)
  406df8:	a2 00 00 00 01 10 01 00 	lui $1,4097
  406e00:	2b 00 00 00 40 7b 1c 01 	l.d $f28,31552($1)
  406e08:	75 00 00 00 00 00 1c 1a 	mul.d $f0,$f26,$f28
  406e10:	2b 00 00 00 10 08 1a 1d 	l.d $f26,2064($29)
  406e18:	71 00 00 00 00 14 1a 14 	add.d $f20,$f20,$f26
  406e20:	37 00 00 00 a0 16 0a 1d 	s.d $f10,5792($29)
  406e28:	a2 00 00 00 01 10 01 00 	lui $1,4097
  406e30:	2b 00 00 00 28 7f 1c 01 	l.d $f28,32552($1)
  406e38:	71 00 00 00 00 0c 0c 0a 	add.d $f12,$f10,$f12
  406e40:	75 00 00 00 00 14 1c 14 	mul.d $f20,$f20,$f28
  406e48:	37 00 00 00 a0 16 0c 1d 	s.d $f12,5792($29)
  406e50:	71 00 00 00 00 00 00 0c 	add.d $f0,$f12,$f0
  406e58:	37 00 00 00 a0 16 00 1d 	s.d $f0,5792($29)
  406e60:	75 00 00 00 00 1a 1c 00 	mul.d $f26,$f0,$f28
  406e68:	2b 00 00 00 58 00 1c 1d 	l.d $f28,88($29)
  406e70:	37 00 00 00 a0 16 1a 1d 	s.d $f26,5792($29)
  406e78:	a2 00 00 00 01 10 01 00 	lui $1,4097
  406e80:	2b 00 00 00 30 7c 1a 01 	l.d $f26,31792($1)
  406e88:	75 00 00 00 00 1c 1a 1c 	mul.d $f28,$f28,$f26
  406e90:	37 00 00 00 a8 16 1c 1d 	s.d $f28,5800($29)
  406e98:	2b 00 00 00 60 00 1c 1d 	l.d $f28,96($29)
  406ea0:	a2 00 00 00 01 10 01 00 	lui $1,4097
  406ea8:	2b 00 00 00 38 7c 1a 01 	l.d $f26,31800($1)
  406eb0:	75 00 00 00 00 1c 1a 1c 	mul.d $f28,$f28,$f26
  406eb8:	37 00 00 00 28 08 1c 1d 	s.d $f28,2088($29)
  406ec0:	2b 00 00 00 68 00 1c 1d 	l.d $f28,104($29)
  406ec8:	a2 00 00 00 01 10 01 00 	lui $1,4097
  406ed0:	2b 00 00 00 40 7c 1a 01 	l.d $f26,31808($1)
  406ed8:	75 00 00 00 00 1c 1a 1c 	mul.d $f28,$f28,$f26
  406ee0:	37 00 00 00 30 08 1c 1d 	s.d $f28,2096($29)
  406ee8:	2b 00 00 00 70 00 1c 1d 	l.d $f28,112($29)
  406ef0:	a2 00 00 00 01 10 01 00 	lui $1,4097
  406ef8:	2b 00 00 00 b0 7c 1a 01 	l.d $f26,31920($1)
  406f00:	75 00 00 00 00 1c 1a 1c 	mul.d $f28,$f28,$f26
  406f08:	37 00 00 00 38 08 1c 1d 	s.d $f28,2104($29)
  406f10:	2b 00 00 00 78 00 1c 1d 	l.d $f28,120($29)
  406f18:	a2 00 00 00 01 10 01 00 	lui $1,4097
  406f20:	2b 00 00 00 b8 7c 1a 01 	l.d $f26,31928($1)
  406f28:	75 00 00 00 00 1c 1a 1c 	mul.d $f28,$f28,$f26
  406f30:	37 00 00 00 40 08 1c 1d 	s.d $f28,2112($29)
  406f38:	2b 00 00 00 80 00 1c 1d 	l.d $f28,128($29)
  406f40:	a2 00 00 00 01 10 01 00 	lui $1,4097
  406f48:	2b 00 00 00 c0 7c 1a 01 	l.d $f26,31936($1)
  406f50:	75 00 00 00 00 1c 1a 1c 	mul.d $f28,$f28,$f26
  406f58:	37 00 00 00 48 08 1c 1d 	s.d $f28,2120($29)
  406f60:	2b 00 00 00 88 00 1c 1d 	l.d $f28,136($29)
  406f68:	a2 00 00 00 01 10 01 00 	lui $1,4097
  406f70:	2b 00 00 00 30 7d 1a 01 	l.d $f26,32048($1)
  406f78:	75 00 00 00 00 1c 1a 1c 	mul.d $f28,$f28,$f26
  406f80:	37 00 00 00 50 08 1c 1d 	s.d $f28,2128($29)
  406f88:	2b 00 00 00 90 00 1c 1d 	l.d $f28,144($29)
  406f90:	a2 00 00 00 01 10 01 00 	lui $1,4097
  406f98:	2b 00 00 00 38 7d 1a 01 	l.d $f26,32056($1)
  406fa0:	75 00 00 00 00 1c 1a 1c 	mul.d $f28,$f28,$f26
  406fa8:	37 00 00 00 58 08 1c 1d 	s.d $f28,2136($29)
  406fb0:	2b 00 00 00 70 06 1c 1d 	l.d $f28,1648($29)
  406fb8:	71 00 00 00 00 02 02 1c 	add.d $f2,$f28,$f2
  406fc0:	2b 00 00 00 98 00 1a 1d 	l.d $f26,152($29)
  406fc8:	a2 00 00 00 01 10 01 00 	lui $1,4097
  406fd0:	2b 00 00 00 40 7d 1c 01 	l.d $f28,32064($1)
  406fd8:	75 00 00 00 00 1a 1c 1a 	mul.d $f26,$f26,$f28
  406fe0:	37 00 00 00 60 08 1a 1d 	s.d $f26,2144($29)
  406fe8:	a2 00 00 00 01 10 01 00 	lui $1,4097
  406ff0:	2b 00 00 00 10 7e 1a 01 	l.d $f26,32272($1)
  406ff8:	2b 00 00 00 70 01 1c 1d 	l.d $f28,368($29)
  407000:	75 00 00 00 00 00 1c 1a 	mul.d $f0,$f26,$f28
  407008:	a2 00 00 00 01 10 01 00 	lui $1,4097
  407010:	2b 00 00 00 f0 7d 1a 01 	l.d $f26,32240($1)
  407018:	75 00 00 00 00 1a 1c 1a 	mul.d $f26,$f26,$f28
  407020:	37 00 00 00 88 07 02 1d 	s.d $f2,1928($29)
  407028:	a2 00 00 00 01 10 01 00 	lui $1,4097
  407030:	37 00 00 00 90 7e 02 01 	s.d $f2,32400($1)
  407038:	37 00 00 00 50 03 1a 1d 	s.d $f26,848($29)
  407040:	a2 00 00 00 01 10 01 00 	lui $1,4097
  407048:	2b 00 00 00 48 7e 1a 01 	l.d $f26,32328($1)
  407050:	75 00 00 00 00 1c 1c 1a 	mul.d $f28,$f26,$f28
  407058:	37 00 00 00 58 03 1c 1d 	s.d $f28,856($29)
  407060:	a2 00 00 00 01 10 01 00 	lui $1,4097
  407068:	2b 00 00 00 88 7e 1c 01 	l.d $f28,32392($1)
  407070:	2b 00 00 00 70 01 1a 1d 	l.d $f26,368($29)
  407078:	75 00 00 00 00 1c 1a 1c 	mul.d $f28,$f28,$f26
  407080:	37 00 00 00 60 03 1c 1d 	s.d $f28,864($29)
  407088:	a2 00 00 00 01 10 01 00 	lui $1,4097
  407090:	2b 00 00 00 f8 7d 1c 01 	l.d $f28,32248($1)
  407098:	75 00 00 00 00 02 1a 1c 	mul.d $f2,$f28,$f26
  4070a0:	a2 00 00 00 01 10 01 00 	lui $1,4097
  4070a8:	2b 00 00 00 00 7e 1c 01 	l.d $f28,32256($1)
  4070b0:	75 00 00 00 00 0a 1a 1c 	mul.d $f10,$f28,$f26
  4070b8:	a2 00 00 00 01 10 01 00 	lui $1,4097
  4070c0:	2b 00 00 00 40 7e 1c 01 	l.d $f28,32320($1)
  4070c8:	75 00 00 00 00 0c 1a 1c 	mul.d $f12,$f28,$f26
  4070d0:	a2 00 00 00 01 10 01 00 	lui $1,4097
  4070d8:	2b 00 00 00 50 7e 1c 01 	l.d $f28,32336($1)
  4070e0:	75 00 00 00 00 16 1a 1c 	mul.d $f22,$f28,$f26
  4070e8:	a2 00 00 00 01 10 01 00 	lui $1,4097
  4070f0:	2b 00 00 00 78 7e 1c 01 	l.d $f28,32376($1)
  4070f8:	75 00 00 00 00 18 1a 1c 	mul.d $f24,$f28,$f26
  407100:	a2 00 00 00 01 10 01 00 	lui $1,4097
  407108:	2b 00 00 00 80 7e 1c 01 	l.d $f28,32384($1)
  407110:	75 00 00 00 00 1a 1a 1c 	mul.d $f26,$f28,$f26
  407118:	37 00 00 00 68 03 1a 1d 	s.d $f26,872($29)
  407120:	a2 00 00 00 01 10 01 00 	lui $1,4097
  407128:	2b 00 00 00 30 75 1a 01 	l.d $f26,30000($1)
  407130:	a2 00 00 00 01 10 01 00 	lui $1,4097
  407138:	2b 00 00 00 c8 7d 1c 01 	l.d $f28,32200($1)
  407140:	75 00 00 00 00 1a 1c 1a 	mul.d $f26,$f26,$f28
  407148:	37 00 00 00 70 08 1a 1d 	s.d $f26,2160($29)
  407150:	a2 00 00 00 01 10 01 00 	lui $1,4097
  407158:	2b 00 00 00 18 75 1a 01 	l.d $f26,29976($1)
  407160:	a2 00 00 00 01 10 01 00 	lui $1,4097
  407168:	2b 00 00 00 d0 7d 1c 01 	l.d $f28,32208($1)
  407170:	75 00 00 00 00 1a 1c 1a 	mul.d $f26,$f26,$f28
  407178:	37 00 00 00 78 08 1a 1d 	s.d $f26,2168($29)
  407180:	a2 00 00 00 01 10 01 00 	lui $1,4097
  407188:	2b 00 00 00 50 75 1a 01 	l.d $f26,30032($1)
  407190:	a2 00 00 00 01 10 01 00 	lui $1,4097
  407198:	2b 00 00 00 c8 7d 1c 01 	l.d $f28,32200($1)
  4071a0:	75 00 00 00 00 1a 1c 1a 	mul.d $f26,$f26,$f28
  4071a8:	37 00 00 00 80 08 1a 1d 	s.d $f26,2176($29)
  4071b0:	a2 00 00 00 01 10 01 00 	lui $1,4097
  4071b8:	2b 00 00 00 20 75 1a 01 	l.d $f26,29984($1)
  4071c0:	a2 00 00 00 01 10 01 00 	lui $1,4097
  4071c8:	2b 00 00 00 d8 7d 1c 01 	l.d $f28,32216($1)
  4071d0:	75 00 00 00 00 1a 1c 1a 	mul.d $f26,$f26,$f28
  4071d8:	37 00 00 00 88 08 1a 1d 	s.d $f26,2184($29)
  4071e0:	a2 00 00 00 01 10 01 00 	lui $1,4097
  4071e8:	2b 00 00 00 70 75 1a 01 	l.d $f26,30064($1)
  4071f0:	a2 00 00 00 01 10 01 00 	lui $1,4097
  4071f8:	2b 00 00 00 c8 7d 1c 01 	l.d $f28,32200($1)
  407200:	75 00 00 00 00 1a 1c 1a 	mul.d $f26,$f26,$f28
  407208:	37 00 00 00 90 08 1a 1d 	s.d $f26,2192($29)
  407210:	a2 00 00 00 01 10 01 00 	lui $1,4097
  407218:	2b 00 00 00 28 75 1a 01 	l.d $f26,29992($1)
  407220:	a2 00 00 00 01 10 01 00 	lui $1,4097
  407228:	2b 00 00 00 e0 7d 1c 01 	l.d $f28,32224($1)
  407230:	75 00 00 00 00 1a 1c 1a 	mul.d $f26,$f26,$f28
  407238:	37 00 00 00 98 08 1a 1d 	s.d $f26,2200($29)
  407240:	a2 00 00 00 01 10 01 00 	lui $1,4097
  407248:	2b 00 00 00 30 75 1a 01 	l.d $f26,30000($1)
  407250:	a2 00 00 00 01 10 01 00 	lui $1,4097
  407258:	2b 00 00 00 20 7e 1c 01 	l.d $f28,32288($1)
  407260:	75 00 00 00 00 1a 1c 1a 	mul.d $f26,$f26,$f28
  407268:	37 00 00 00 a0 08 1a 1d 	s.d $f26,2208($29)
  407270:	a2 00 00 00 01 10 01 00 	lui $1,4097
  407278:	2b 00 00 00 18 75 1a 01 	l.d $f26,29976($1)
  407280:	a2 00 00 00 01 10 01 00 	lui $1,4097
  407288:	2b 00 00 00 d8 7d 1c 01 	l.d $f28,32216($1)
  407290:	75 00 00 00 00 1a 1c 1a 	mul.d $f26,$f26,$f28
  407298:	37 00 00 00 a8 08 1a 1d 	s.d $f26,2216($29)
  4072a0:	a2 00 00 00 01 10 01 00 	lui $1,4097
  4072a8:	2b 00 00 00 50 75 1a 01 	l.d $f26,30032($1)
  4072b0:	a2 00 00 00 01 10 01 00 	lui $1,4097
  4072b8:	2b 00 00 00 20 7e 1c 01 	l.d $f28,32288($1)
  4072c0:	75 00 00 00 00 1a 1c 1a 	mul.d $f26,$f26,$f28
  4072c8:	37 00 00 00 b0 08 1a 1d 	s.d $f26,2224($29)
  4072d0:	a2 00 00 00 01 10 01 00 	lui $1,4097
  4072d8:	2b 00 00 00 20 75 1a 01 	l.d $f26,29984($1)
  4072e0:	a2 00 00 00 01 10 01 00 	lui $1,4097
  4072e8:	2b 00 00 00 28 7e 1c 01 	l.d $f28,32296($1)
  4072f0:	75 00 00 00 00 1a 1c 1a 	mul.d $f26,$f26,$f28
  4072f8:	37 00 00 00 b8 08 1a 1d 	s.d $f26,2232($29)
  407300:	a2 00 00 00 01 10 01 00 	lui $1,4097
  407308:	2b 00 00 00 70 75 1a 01 	l.d $f26,30064($1)
  407310:	a2 00 00 00 01 10 01 00 	lui $1,4097
  407318:	2b 00 00 00 20 7e 1c 01 	l.d $f28,32288($1)
  407320:	75 00 00 00 00 1a 1c 1a 	mul.d $f26,$f26,$f28
  407328:	37 00 00 00 c0 08 1a 1d 	s.d $f26,2240($29)
  407330:	a2 00 00 00 01 10 01 00 	lui $1,4097
  407338:	2b 00 00 00 28 75 1a 01 	l.d $f26,29992($1)
  407340:	a2 00 00 00 01 10 01 00 	lui $1,4097
  407348:	2b 00 00 00 30 7e 1c 01 	l.d $f28,32304($1)
  407350:	75 00 00 00 00 1a 1c 1a 	mul.d $f26,$f26,$f28
  407358:	37 00 00 00 c8 08 1a 1d 	s.d $f26,2248($29)
  407360:	a2 00 00 00 01 10 01 00 	lui $1,4097
  407368:	2b 00 00 00 30 75 1a 01 	l.d $f26,30000($1)
  407370:	a2 00 00 00 01 10 01 00 	lui $1,4097
  407378:	2b 00 00 00 60 7e 1c 01 	l.d $f28,32352($1)
  407380:	75 00 00 00 00 1a 1c 1a 	mul.d $f26,$f26,$f28
  407388:	37 00 00 00 d0 08 1a 1d 	s.d $f26,2256($29)
  407390:	a2 00 00 00 01 10 01 00 	lui $1,4097
  407398:	2b 00 00 00 18 75 1a 01 	l.d $f26,29976($1)
  4073a0:	a2 00 00 00 01 10 01 00 	lui $1,4097
  4073a8:	2b 00 00 00 e0 7d 1c 01 	l.d $f28,32224($1)
  4073b0:	75 00 00 00 00 1a 1c 1a 	mul.d $f26,$f26,$f28
  4073b8:	37 00 00 00 d8 08 1a 1d 	s.d $f26,2264($29)
  4073c0:	a2 00 00 00 01 10 01 00 	lui $1,4097
  4073c8:	2b 00 00 00 50 75 1a 01 	l.d $f26,30032($1)
  4073d0:	a2 00 00 00 01 10 01 00 	lui $1,4097
  4073d8:	2b 00 00 00 60 7e 1c 01 	l.d $f28,32352($1)
  4073e0:	75 00 00 00 00 1a 1c 1a 	mul.d $f26,$f26,$f28
  4073e8:	37 00 00 00 e0 08 1a 1d 	s.d $f26,2272($29)
  4073f0:	a2 00 00 00 01 10 01 00 	lui $1,4097
  4073f8:	2b 00 00 00 20 75 1a 01 	l.d $f26,29984($1)
  407400:	a2 00 00 00 01 10 01 00 	lui $1,4097
  407408:	2b 00 00 00 30 7e 1c 01 	l.d $f28,32304($1)
  407410:	75 00 00 00 00 1a 1c 1a 	mul.d $f26,$f26,$f28
  407418:	37 00 00 00 e8 08 1a 1d 	s.d $f26,2280($29)
  407420:	a2 00 00 00 01 10 01 00 	lui $1,4097
  407428:	2b 00 00 00 70 75 1a 01 	l.d $f26,30064($1)
  407430:	a2 00 00 00 01 10 01 00 	lui $1,4097
  407438:	2b 00 00 00 60 7e 1c 01 	l.d $f28,32352($1)
  407440:	75 00 00 00 00 1a 1c 1a 	mul.d $f26,$f26,$f28
  407448:	37 00 00 00 f0 08 1a 1d 	s.d $f26,2288($29)
  407450:	a2 00 00 00 01 10 01 00 	lui $1,4097
  407458:	2b 00 00 00 28 75 1a 01 	l.d $f26,29992($1)
  407460:	a2 00 00 00 01 10 01 00 	lui $1,4097
  407468:	2b 00 00 00 68 7e 1c 01 	l.d $f28,32360($1)
  407470:	75 00 00 00 00 1a 1c 1a 	mul.d $f26,$f26,$f28
  407478:	37 00 00 00 f8 08 1a 1d 	s.d $f26,2296($29)
  407480:	a2 00 00 00 01 10 01 00 	lui $1,4097
  407488:	2b 00 00 00 38 75 1a 01 	l.d $f26,30008($1)
  407490:	a2 00 00 00 01 10 01 00 	lui $1,4097
  407498:	2b 00 00 00 c8 7d 1c 01 	l.d $f28,32200($1)
  4074a0:	75 00 00 00 00 1a 1c 1a 	mul.d $f26,$f26,$f28
  4074a8:	37 00 00 00 00 09 1a 1d 	s.d $f26,2304($29)
  4074b0:	a2 00 00 00 01 10 01 00 	lui $1,4097
  4074b8:	2b 00 00 00 e8 74 1a 01 	l.d $f26,29928($1)
  4074c0:	a2 00 00 00 01 10 01 00 	lui $1,4097
  4074c8:	2b 00 00 00 d8 7d 1c 01 	l.d $f28,32216($1)
  4074d0:	75 00 00 00 00 1a 1c 1a 	mul.d $f26,$f26,$f28
  4074d8:	37 00 00 00 08 09 1a 1d 	s.d $f26,2312($29)
  4074e0:	a2 00 00 00 01 10 01 00 	lui $1,4097
  4074e8:	2b 00 00 00 08 75 1a 01 	l.d $f26,29960($1)
  4074f0:	a2 00 00 00 01 10 01 00 	lui $1,4097
  4074f8:	2b 00 00 00 d0 7d 1c 01 	l.d $f28,32208($1)
  407500:	75 00 00 00 00 1a 1c 1a 	mul.d $f26,$f26,$f28
  407508:	37 00 00 00 10 09 1a 1d 	s.d $f26,2320($29)
  407510:	a2 00 00 00 01 10 01 00 	lui $1,4097
  407518:	2b 00 00 00 40 75 1a 01 	l.d $f26,30016($1)
  407520:	a2 00 00 00 01 10 01 00 	lui $1,4097
  407528:	2b 00 00 00 c8 7d 1c 01 	l.d $f28,32200($1)
  407530:	75 00 00 00 00 1a 1c 1a 	mul.d $f26,$f26,$f28
  407538:	37 00 00 00 18 09 1a 1d 	s.d $f26,2328($29)
  407540:	a2 00 00 00 01 10 01 00 	lui $1,4097
  407548:	2b 00 00 00 e8 74 1a 01 	l.d $f26,29928($1)
  407550:	a2 00 00 00 01 10 01 00 	lui $1,4097
  407558:	2b 00 00 00 e0 7d 1c 01 	l.d $f28,32224($1)
  407560:	75 00 00 00 00 1a 1c 1a 	mul.d $f26,$f26,$f28
  407568:	37 00 00 00 20 09 1a 1d 	s.d $f26,2336($29)
  407570:	a2 00 00 00 01 10 01 00 	lui $1,4097
  407578:	2b 00 00 00 10 75 1a 01 	l.d $f26,29968($1)
  407580:	a2 00 00 00 01 10 01 00 	lui $1,4097
  407588:	2b 00 00 00 d0 7d 1c 01 	l.d $f28,32208($1)
  407590:	75 00 00 00 00 1a 1c 1a 	mul.d $f26,$f26,$f28
  407598:	37 00 00 00 28 09 1a 1d 	s.d $f26,2344($29)
  4075a0:	a2 00 00 00 01 10 01 00 	lui $1,4097
  4075a8:	2b 00 00 00 48 75 1a 01 	l.d $f26,30024($1)
  4075b0:	a2 00 00 00 01 10 01 00 	lui $1,4097
  4075b8:	2b 00 00 00 c8 7d 1c 01 	l.d $f28,32200($1)
  4075c0:	75 00 00 00 00 1a 1c 1a 	mul.d $f26,$f26,$f28
  4075c8:	37 00 00 00 30 09 1a 1d 	s.d $f26,2352($29)
  4075d0:	a2 00 00 00 01 10 01 00 	lui $1,4097
  4075d8:	2b 00 00 00 f0 74 1a 01 	l.d $f26,29936($1)
  4075e0:	a2 00 00 00 01 10 01 00 	lui $1,4097
  4075e8:	2b 00 00 00 d0 7d 1c 01 	l.d $f28,32208($1)
  4075f0:	75 00 00 00 00 1a 1c 1a 	mul.d $f26,$f26,$f28
  4075f8:	37 00 00 00 38 09 1a 1d 	s.d $f26,2360($29)
  407600:	a2 00 00 00 01 10 01 00 	lui $1,4097
  407608:	2b 00 00 00 00 75 1a 01 	l.d $f26,29952($1)
  407610:	a2 00 00 00 01 10 01 00 	lui $1,4097
  407618:	2b 00 00 00 d8 7d 1c 01 	l.d $f28,32216($1)
  407620:	75 00 00 00 00 1a 1c 1a 	mul.d $f26,$f26,$f28
  407628:	37 00 00 00 40 09 1a 1d 	s.d $f26,2368($29)
  407630:	a2 00 00 00 01 10 01 00 	lui $1,4097
  407638:	2b 00 00 00 58 75 1a 01 	l.d $f26,30040($1)
  407640:	a2 00 00 00 01 10 01 00 	lui $1,4097
  407648:	2b 00 00 00 c8 7d 1c 01 	l.d $f28,32200($1)
  407650:	75 00 00 00 00 1a 1c 1a 	mul.d $f26,$f26,$f28
  407658:	37 00 00 00 48 09 1a 1d 	s.d $f26,2376($29)
  407660:	a2 00 00 00 01 10 01 00 	lui $1,4097
  407668:	2b 00 00 00 f0 74 1a 01 	l.d $f26,29936($1)
  407670:	a2 00 00 00 01 10 01 00 	lui $1,4097
  407678:	2b 00 00 00 e0 7d 1c 01 	l.d $f28,32224($1)
  407680:	75 00 00 00 00 1a 1c 1a 	mul.d $f26,$f26,$f28
  407688:	37 00 00 00 50 09 1a 1d 	s.d $f26,2384($29)
  407690:	a2 00 00 00 01 10 01 00 	lui $1,4097
  407698:	2b 00 00 00 10 75 1a 01 	l.d $f26,29968($1)
  4076a0:	a2 00 00 00 01 10 01 00 	lui $1,4097
  4076a8:	2b 00 00 00 d8 7d 1c 01 	l.d $f28,32216($1)
  4076b0:	75 00 00 00 00 1e 1c 1a 	mul.d $f30,$f26,$f28
  4076b8:	a2 00 00 00 01 10 01 00 	lui $1,4097
  4076c0:	2b 00 00 00 60 75 1a 01 	l.d $f26,30048($1)
  4076c8:	a2 00 00 00 01 10 01 00 	lui $1,4097
  4076d0:	2b 00 00 00 c8 7d 1c 01 	l.d $f28,32200($1)
  4076d8:	75 00 00 00 00 1a 1c 1a 	mul.d $f26,$f26,$f28
  4076e0:	37 00 00 00 58 09 1a 1d 	s.d $f26,2392($29)
  4076e8:	a2 00 00 00 01 10 01 00 	lui $1,4097
  4076f0:	2b 00 00 00 f8 74 1a 01 	l.d $f26,29944($1)
  4076f8:	a2 00 00 00 01 10 01 00 	lui $1,4097
  407700:	2b 00 00 00 d0 7d 1c 01 	l.d $f28,32208($1)
  407708:	75 00 00 00 00 1a 1c 1a 	mul.d $f26,$f26,$f28
  407710:	37 00 00 00 60 09 1a 1d 	s.d $f26,2400($29)
  407718:	a2 00 00 00 01 10 01 00 	lui $1,4097
  407720:	2b 00 00 00 00 75 1a 01 	l.d $f26,29952($1)
  407728:	a2 00 00 00 01 10 01 00 	lui $1,4097
  407730:	2b 00 00 00 e0 7d 1c 01 	l.d $f28,32224($1)
  407738:	75 00 00 00 00 1a 1c 1a 	mul.d $f26,$f26,$f28
  407740:	37 00 00 00 68 09 1a 1d 	s.d $f26,2408($29)
  407748:	a2 00 00 00 01 10 01 00 	lui $1,4097
  407750:	2b 00 00 00 68 75 1a 01 	l.d $f26,30056($1)
  407758:	a2 00 00 00 01 10 01 00 	lui $1,4097
  407760:	2b 00 00 00 c8 7d 1c 01 	l.d $f28,32200($1)
  407768:	75 00 00 00 00 1a 1c 1a 	mul.d $f26,$f26,$f28
  407770:	37 00 00 00 70 09 1a 1d 	s.d $f26,2416($29)
  407778:	a2 00 00 00 01 10 01 00 	lui $1,4097
  407780:	2b 00 00 00 f8 74 1a 01 	l.d $f26,29944($1)
  407788:	a2 00 00 00 01 10 01 00 	lui $1,4097
  407790:	2b 00 00 00 d8 7d 1c 01 	l.d $f28,32216($1)
  407798:	75 00 00 00 00 1a 1c 1a 	mul.d $f26,$f26,$f28
  4077a0:	37 00 00 00 78 09 1a 1d 	s.d $f26,2424($29)
  4077a8:	a2 00 00 00 01 10 01 00 	lui $1,4097
  4077b0:	2b 00 00 00 08 75 1a 01 	l.d $f26,29960($1)
  4077b8:	a2 00 00 00 01 10 01 00 	lui $1,4097
  4077c0:	2b 00 00 00 e0 7d 1c 01 	l.d $f28,32224($1)
  4077c8:	75 00 00 00 00 1a 1c 1a 	mul.d $f26,$f26,$f28
  4077d0:	37 00 00 00 80 09 1a 1d 	s.d $f26,2432($29)
  4077d8:	a2 00 00 00 01 10 01 00 	lui $1,4097
  4077e0:	2b 00 00 00 38 75 1a 01 	l.d $f26,30008($1)
  4077e8:	a2 00 00 00 01 10 01 00 	lui $1,4097
  4077f0:	2b 00 00 00 20 7e 1c 01 	l.d $f28,32288($1)
  4077f8:	75 00 00 00 00 1a 1c 1a 	mul.d $f26,$f26,$f28
  407800:	37 00 00 00 88 09 1a 1d 	s.d $f26,2440($29)
  407808:	a2 00 00 00 01 10 01 00 	lui $1,4097
  407810:	2b 00 00 00 e8 74 1a 01 	l.d $f26,29928($1)
  407818:	a2 00 00 00 01 10 01 00 	lui $1,4097
  407820:	2b 00 00 00 28 7e 1c 01 	l.d $f28,32296($1)
  407828:	75 00 00 00 00 1a 1c 1a 	mul.d $f26,$f26,$f28
  407830:	37 00 00 00 90 09 1a 1d 	s.d $f26,2448($29)
  407838:	a2 00 00 00 01 10 01 00 	lui $1,4097
  407840:	2b 00 00 00 08 75 1a 01 	l.d $f26,29960($1)
  407848:	a2 00 00 00 01 10 01 00 	lui $1,4097
  407850:	2b 00 00 00 d8 7d 1c 01 	l.d $f28,32216($1)
  407858:	75 00 00 00 00 1a 1c 1a 	mul.d $f26,$f26,$f28
  407860:	37 00 00 00 98 09 1a 1d 	s.d $f26,2456($29)
  407868:	a2 00 00 00 01 10 01 00 	lui $1,4097
  407870:	2b 00 00 00 40 75 1a 01 	l.d $f26,30016($1)
  407878:	a2 00 00 00 01 10 01 00 	lui $1,4097
  407880:	2b 00 00 00 20 7e 1c 01 	l.d $f28,32288($1)
  407888:	75 00 00 00 00 1a 1c 1a 	mul.d $f26,$f26,$f28
  407890:	37 00 00 00 a0 09 1a 1d 	s.d $f26,2464($29)
  407898:	a2 00 00 00 01 10 01 00 	lui $1,4097
  4078a0:	2b 00 00 00 e8 74 1a 01 	l.d $f26,29928($1)
  4078a8:	a2 00 00 00 01 10 01 00 	lui $1,4097
  4078b0:	2b 00 00 00 30 7e 1c 01 	l.d $f28,32304($1)
  4078b8:	75 00 00 00 00 1a 1c 1a 	mul.d $f26,$f26,$f28
  4078c0:	37 00 00 00 a8 09 1a 1d 	s.d $f26,2472($29)
  4078c8:	a2 00 00 00 01 10 01 00 	lui $1,4097
  4078d0:	2b 00 00 00 48 75 1a 01 	l.d $f26,30024($1)
  4078d8:	a2 00 00 00 01 10 01 00 	lui $1,4097
  4078e0:	2b 00 00 00 20 7e 1c 01 	l.d $f28,32288($1)
  4078e8:	75 00 00 00 00 1a 1c 1a 	mul.d $f26,$f26,$f28
  4078f0:	37 00 00 00 b0 09 1a 1d 	s.d $f26,2480($29)
  4078f8:	a2 00 00 00 01 10 01 00 	lui $1,4097
  407900:	2b 00 00 00 f0 74 1a 01 	l.d $f26,29936($1)
  407908:	a2 00 00 00 01 10 01 00 	lui $1,4097
  407910:	2b 00 00 00 d8 7d 1c 01 	l.d $f28,32216($1)
  407918:	75 00 00 00 00 1a 1c 1a 	mul.d $f26,$f26,$f28
  407920:	37 00 00 00 b8 09 1a 1d 	s.d $f26,2488($29)
  407928:	a2 00 00 00 01 10 01 00 	lui $1,4097
  407930:	2b 00 00 00 00 75 1a 01 	l.d $f26,29952($1)
  407938:	a2 00 00 00 01 10 01 00 	lui $1,4097
  407940:	2b 00 00 00 28 7e 1c 01 	l.d $f28,32296($1)
  407948:	75 00 00 00 00 1a 1c 1a 	mul.d $f26,$f26,$f28
  407950:	37 00 00 00 c0 09 1a 1d 	s.d $f26,2496($29)
  407958:	a2 00 00 00 01 10 01 00 	lui $1,4097
  407960:	2b 00 00 00 58 75 1a 01 	l.d $f26,30040($1)
  407968:	a2 00 00 00 01 10 01 00 	lui $1,4097
  407970:	2b 00 00 00 20 7e 1c 01 	l.d $f28,32288($1)
  407978:	75 00 00 00 00 1a 1c 1a 	mul.d $f26,$f26,$f28
  407980:	37 00 00 00 c8 09 1a 1d 	s.d $f26,2504($29)
  407988:	a2 00 00 00 01 10 01 00 	lui $1,4097
  407990:	2b 00 00 00 f0 74 1a 01 	l.d $f26,29936($1)
  407998:	a2 00 00 00 01 10 01 00 	lui $1,4097
  4079a0:	2b 00 00 00 30 7e 1c 01 	l.d $f28,32304($1)
  4079a8:	75 00 00 00 00 1a 1c 1a 	mul.d $f26,$f26,$f28
  4079b0:	37 00 00 00 d0 09 1a 1d 	s.d $f26,2512($29)
  4079b8:	a2 00 00 00 01 10 01 00 	lui $1,4097
  4079c0:	2b 00 00 00 10 75 1a 01 	l.d $f26,29968($1)
  4079c8:	a2 00 00 00 01 10 01 00 	lui $1,4097
  4079d0:	2b 00 00 00 28 7e 1c 01 	l.d $f28,32296($1)
  4079d8:	75 00 00 00 00 1a 1c 1a 	mul.d $f26,$f26,$f28
  4079e0:	37 00 00 00 d8 09 1a 1d 	s.d $f26,2520($29)
  4079e8:	a2 00 00 00 01 10 01 00 	lui $1,4097
  4079f0:	2b 00 00 00 60 75 1a 01 	l.d $f26,30048($1)
  4079f8:	a2 00 00 00 01 10 01 00 	lui $1,4097
  407a00:	2b 00 00 00 20 7e 1c 01 	l.d $f28,32288($1)
  407a08:	75 00 00 00 00 1a 1c 1a 	mul.d $f26,$f26,$f28
  407a10:	37 00 00 00 e0 09 1a 1d 	s.d $f26,2528($29)
  407a18:	a2 00 00 00 01 10 01 00 	lui $1,4097
  407a20:	2b 00 00 00 00 75 1a 01 	l.d $f26,29952($1)
  407a28:	a2 00 00 00 01 10 01 00 	lui $1,4097
  407a30:	2b 00 00 00 30 7e 1c 01 	l.d $f28,32304($1)
  407a38:	75 00 00 00 00 1a 1c 1a 	mul.d $f26,$f26,$f28
  407a40:	37 00 00 00 e8 09 1a 1d 	s.d $f26,2536($29)
  407a48:	a2 00 00 00 01 10 01 00 	lui $1,4097
  407a50:	2b 00 00 00 68 75 1a 01 	l.d $f26,30056($1)
  407a58:	a2 00 00 00 01 10 01 00 	lui $1,4097
  407a60:	2b 00 00 00 20 7e 1c 01 	l.d $f28,32288($1)
  407a68:	75 00 00 00 00 1a 1c 1a 	mul.d $f26,$f26,$f28
  407a70:	37 00 00 00 f0 09 1a 1d 	s.d $f26,2544($29)
  407a78:	a2 00 00 00 01 10 01 00 	lui $1,4097
  407a80:	2b 00 00 00 f8 74 1a 01 	l.d $f26,29944($1)
  407a88:	a2 00 00 00 01 10 01 00 	lui $1,4097
  407a90:	2b 00 00 00 28 7e 1c 01 	l.d $f28,32296($1)
  407a98:	75 00 00 00 00 1a 1c 1a 	mul.d $f26,$f26,$f28
  407aa0:	37 00 00 00 f8 09 1a 1d 	s.d $f26,2552($29)
  407aa8:	2b 00 00 00 80 06 1a 1d 	l.d $f26,1664($29)
  407ab0:	71 00 00 00 00 10 10 1a 	add.d $f16,$f26,$f16
  407ab8:	a2 00 00 00 01 10 01 00 	lui $1,4097
  407ac0:	2b 00 00 00 08 75 1c 01 	l.d $f28,29960($1)
  407ac8:	a2 00 00 00 01 10 01 00 	lui $1,4097
  407ad0:	2b 00 00 00 30 7e 1a 01 	l.d $f26,32304($1)
  407ad8:	75 00 00 00 00 1c 1a 1c 	mul.d $f28,$f28,$f26
  407ae0:	37 00 00 00 b0 07 10 1d 	s.d $f16,1968($29)
  407ae8:	37 00 00 00 00 0a 1c 1d 	s.d $f28,2560($29)
  407af0:	2b 00 00 00 90 06 1c 1d 	l.d $f28,1680($29)
  407af8:	71 00 00 00 00 0e 0e 1c 	add.d $f14,$f28,$f14
  407b00:	2b 00 00 00 a8 16 1a 1d 	l.d $f26,5800($29)
  407b08:	2b 00 00 00 28 08 1c 1d 	l.d $f28,2088($29)
  407b10:	71 00 00 00 00 1a 1c 1a 	add.d $f26,$f26,$f28
  407b18:	37 00 00 00 a8 16 1a 1d 	s.d $f26,5800($29)
  407b20:	a2 00 00 00 01 10 01 00 	lui $1,4097
  407b28:	2b 00 00 00 38 75 1a 01 	l.d $f26,30008($1)
  407b30:	a2 00 00 00 01 10 01 00 	lui $1,4097
  407b38:	2b 00 00 00 60 7e 1c 01 	l.d $f28,32352($1)
  407b40:	75 00 00 00 00 1a 1c 1a 	mul.d $f26,$f26,$f28
  407b48:	37 00 00 00 08 0a 1a 1d 	s.d $f26,2568($29)
  407b50:	2b 00 00 00 98 06 1a 1d 	l.d $f26,1688($29)
  407b58:	71 00 00 00 00 12 12 1a 	add.d $f18,$f26,$f18
  407b60:	2b 00 00 00 a8 16 1c 1d 	l.d $f28,5800($29)
  407b68:	2b 00 00 00 30 08 1a 1d 	l.d $f26,2096($29)
  407b70:	71 00 00 00 00 1c 1a 1c 	add.d $f28,$f28,$f26
  407b78:	37 00 00 00 a8 16 1c 1d 	s.d $f28,5800($29)
  407b80:	a2 00 00 00 01 10 01 00 	lui $1,4097
  407b88:	2b 00 00 00 40 75 1c 01 	l.d $f28,30016($1)
  407b90:	a2 00 00 00 01 10 01 00 	lui $1,4097
  407b98:	2b 00 00 00 60 7e 1a 01 	l.d $f26,32352($1)
  407ba0:	75 00 00 00 00 1c 1a 1c 	mul.d $f28,$f28,$f26
  407ba8:	37 00 00 00 10 0a 1c 1d 	s.d $f28,2576($29)
  407bb0:	2b 00 00 00 f8 05 1c 1d 	l.d $f28,1528($29)
  407bb8:	71 00 00 00 00 08 08 1c 	add.d $f8,$f28,$f8
  407bc0:	2b 00 00 00 a8 16 1a 1d 	l.d $f26,5800($29)
  407bc8:	2b 00 00 00 38 08 1c 1d 	l.d $f28,2104($29)
  407bd0:	71 00 00 00 00 1a 1c 1a 	add.d $f26,$f26,$f28
  407bd8:	37 00 00 00 a8 16 1a 1d 	s.d $f26,5800($29)
  407be0:	a2 00 00 00 01 10 01 00 	lui $1,4097
  407be8:	2b 00 00 00 e8 74 1a 01 	l.d $f26,29928($1)
  407bf0:	a2 00 00 00 01 10 01 00 	lui $1,4097
  407bf8:	2b 00 00 00 68 7e 1c 01 	l.d $f28,32360($1)
  407c00:	37 00 00 00 b8 07 0e 1d 	s.d $f14,1976($29)
  407c08:	75 00 00 00 00 0e 1c 1a 	mul.d $f14,$f26,$f28
  407c10:	2b 00 00 00 00 06 1a 1d 	l.d $f26,1536($29)
  407c18:	71 00 00 00 00 06 06 1a 	add.d $f6,$f26,$f6
  407c20:	37 00 00 00 c8 07 12 1d 	s.d $f18,1992($29)
  407c28:	37 00 00 00 d0 07 08 1d 	s.d $f8,2000($29)
  407c30:	37 00 00 00 f0 07 06 1d 	s.d $f6,2032($29)
  407c38:	2b 00 00 00 a8 16 1c 1d 	l.d $f28,5800($29)
  407c40:	2b 00 00 00 40 08 1a 1d 	l.d $f26,2112($29)
  407c48:	71 00 00 00 00 1c 1a 1c 	add.d $f28,$f28,$f26
  407c50:	37 00 00 00 a8 16 1c 1d 	s.d $f28,5800($29)
  407c58:	a2 00 00 00 01 10 01 00 	lui $1,4097
  407c60:	2b 00 00 00 10 75 1c 01 	l.d $f28,29968($1)
  407c68:	a2 00 00 00 01 10 01 00 	lui $1,4097
  407c70:	2b 00 00 00 e0 7d 1a 01 	l.d $f26,32224($1)
  407c78:	75 00 00 00 00 10 1a 1c 	mul.d $f16,$f28,$f26
  407c80:	2b 00 00 00 18 06 1c 1d 	l.d $f28,1560($29)
  407c88:	71 00 00 00 00 04 04 1c 	add.d $f4,$f28,$f4
  407c90:	2b 00 00 00 a8 16 1a 1d 	l.d $f26,5800($29)
  407c98:	2b 00 00 00 48 08 1c 1d 	l.d $f28,2120($29)
  407ca0:	71 00 00 00 00 1a 1c 1a 	add.d $f26,$f26,$f28
  407ca8:	37 00 00 00 a8 16 1a 1d 	s.d $f26,5800($29)
  407cb0:	a2 00 00 00 01 10 01 00 	lui $1,4097
  407cb8:	2b 00 00 00 48 75 1a 01 	l.d $f26,30024($1)
  407cc0:	a2 00 00 00 01 10 01 00 	lui $1,4097
  407cc8:	2b 00 00 00 60 7e 1c 01 	l.d $f28,32352($1)
  407cd0:	75 00 00 00 00 1a 1c 1a 	mul.d $f26,$f26,$f28
  407cd8:	37 00 00 00 18 0a 1a 1d 	s.d $f26,2584($29)
  407ce0:	2b 00 00 00 a0 06 1a 1d 	l.d $f26,1696($29)
  407ce8:	71 00 00 00 00 14 14 1a 	add.d $f20,$f26,$f20
  407cf0:	2b 00 00 00 a8 16 1c 1d 	l.d $f28,5800($29)
  407cf8:	2b 00 00 00 50 08 1a 1d 	l.d $f26,2128($29)
  407d00:	71 00 00 00 00 1c 1a 1c 	add.d $f28,$f28,$f26
  407d08:	37 00 00 00 a8 16 1c 1d 	s.d $f28,5800($29)
  407d10:	a2 00 00 00 01 10 01 00 	lui $1,4097
  407d18:	2b 00 00 00 58 75 1c 01 	l.d $f28,30040($1)
  407d20:	a2 00 00 00 01 10 01 00 	lui $1,4097
  407d28:	2b 00 00 00 60 7e 1a 01 	l.d $f26,32352($1)
  407d30:	75 00 00 00 00 1c 1a 1c 	mul.d $f28,$f28,$f26
  407d38:	37 00 00 00 20 0a 1c 1d 	s.d $f28,2592($29)
  407d40:	2b 00 00 00 a8 16 1c 1d 	l.d $f28,5800($29)
  407d48:	2b 00 00 00 58 08 1a 1d 	l.d $f26,2136($29)
  407d50:	71 00 00 00 00 1c 1a 1c 	add.d $f28,$f28,$f26
  407d58:	37 00 00 00 f8 07 04 1d 	s.d $f4,2040($29)
  407d60:	37 00 00 00 18 08 14 1d 	s.d $f20,2072($29)
  407d68:	37 00 00 00 a8 16 1c 1d 	s.d $f28,5800($29)
  407d70:	2b 00 00 00 70 08 1c 1d 	l.d $f28,2160($29)
  407d78:	2b 00 00 00 78 08 1a 1d 	l.d $f26,2168($29)
  407d80:	71 00 00 00 00 04 1a 1c 	add.d $f4,$f28,$f26
  407d88:	a2 00 00 00 01 10 01 00 	lui $1,4097
  407d90:	2b 00 00 00 f0 74 1c 01 	l.d $f28,29936($1)
  407d98:	a2 00 00 00 01 10 01 00 	lui $1,4097
  407da0:	2b 00 00 00 68 7e 1a 01 	l.d $f26,32360($1)
  407da8:	75 00 00 00 00 06 1a 1c 	mul.d $f6,$f28,$f26
  407db0:	2b 00 00 00 50 03 1c 1d 	l.d $f28,848($29)
  407db8:	71 00 00 00 00 04 1c 04 	add.d $f4,$f4,$f28
  407dc0:	2b 00 00 00 80 08 1a 1d 	l.d $f26,2176($29)
  407dc8:	2b 00 00 00 88 08 1c 1d 	l.d $f28,2184($29)
  407dd0:	37 00 00 00 d0 01 04 1d 	s.d $f4,464($29)
  407dd8:	71 00 00 00 00 04 1c 1a 	add.d $f4,$f26,$f28
  407de0:	a2 00 00 00 01 10 01 00 	lui $1,4097
  407de8:	2b 00 00 00 10 75 1a 01 	l.d $f26,29968($1)
  407df0:	a2 00 00 00 01 10 01 00 	lui $1,4097
  407df8:	2b 00 00 00 30 7e 1c 01 	l.d $f28,32304($1)
  407e00:	75 00 00 00 00 08 1c 1a 	mul.d $f8,$f26,$f28
  407e08:	71 00 00 00 00 04 0c 04 	add.d $f4,$f4,$f12
  407e10:	2b 00 00 00 90 08 1a 1d 	l.d $f26,2192($29)
  407e18:	2b 00 00 00 98 08 1c 1d 	l.d $f28,2200($29)
  407e20:	37 00 00 00 d8 01 04 1d 	s.d $f4,472($29)
  407e28:	71 00 00 00 00 04 1c 1a 	add.d $f4,$f26,$f28
  407e30:	a2 00 00 00 01 10 01 00 	lui $1,4097
  407e38:	2b 00 00 00 60 75 1a 01 	l.d $f26,30048($1)
  407e40:	a2 00 00 00 01 10 01 00 	lui $1,4097
  407e48:	2b 00 00 00 60 7e 1c 01 	l.d $f28,32352($1)
  407e50:	75 00 00 00 00 1a 1c 1a 	mul.d $f26,$f26,$f28
  407e58:	71 00 00 00 00 04 18 04 	add.d $f4,$f4,$f24
  407e60:	37 00 00 00 28 0a 1a 1d 	s.d $f26,2600($29)
  407e68:	2b 00 00 00 a0 08 1a 1d 	l.d $f26,2208($29)
  407e70:	2b 00 00 00 a8 08 1c 1d 	l.d $f28,2216($29)
  407e78:	37 00 00 00 e0 01 04 1d 	s.d $f4,480($29)
  407e80:	71 00 00 00 00 04 1c 1a 	add.d $f4,$f26,$f28
  407e88:	a2 00 00 00 01 10 01 00 	lui $1,4097
  407e90:	2b 00 00 00 f8 74 1a 01 	l.d $f26,29944($1)
  407e98:	a2 00 00 00 01 10 01 00 	lui $1,4097
  407ea0:	2b 00 00 00 e0 7d 1c 01 	l.d $f28,32224($1)
  407ea8:	75 00 00 00 00 1a 1c 1a 	mul.d $f26,$f26,$f28
  407eb0:	37 00 00 00 30 0a 1a 1d 	s.d $f26,2608($29)
  407eb8:	2b 00 00 00 b0 08 1a 1d 	l.d $f26,2224($29)
  407ec0:	2b 00 00 00 b8 08 1c 1d 	l.d $f28,2232($29)
  407ec8:	71 00 00 00 00 12 1c 1a 	add.d $f18,$f26,$f28
  407ed0:	71 00 00 00 00 04 02 04 	add.d $f4,$f4,$f2
  407ed8:	a2 00 00 00 01 10 01 00 	lui $1,4097
  407ee0:	2b 00 00 00 00 75 1a 01 	l.d $f26,29952($1)
  407ee8:	a2 00 00 00 01 10 01 00 	lui $1,4097
  407ef0:	2b 00 00 00 68 7e 1c 01 	l.d $f28,32360($1)
  407ef8:	37 00 00 00 e8 01 04 1d 	s.d $f4,488($29)
  407f00:	75 00 00 00 00 04 1c 1a 	mul.d $f4,$f26,$f28
  407f08:	2b 00 00 00 58 03 1a 1d 	l.d $f26,856($29)
  407f10:	71 00 00 00 00 12 1a 12 	add.d $f18,$f18,$f26
  407f18:	37 00 00 00 f0 01 12 1d 	s.d $f18,496($29)
  407f20:	2b 00 00 00 c0 08 1c 1d 	l.d $f28,2240($29)
  407f28:	2b 00 00 00 c8 08 1a 1d 	l.d $f26,2248($29)
  407f30:	71 00 00 00 00 12 1a 1c 	add.d $f18,$f28,$f26
  407f38:	a2 00 00 00 01 10 01 00 	lui $1,4097
  407f40:	2b 00 00 00 68 75 1c 01 	l.d $f28,30056($1)
  407f48:	a2 00 00 00 01 10 01 00 	lui $1,4097
  407f50:	2b 00 00 00 60 7e 1a 01 	l.d $f26,32352($1)
  407f58:	75 00 00 00 00 1c 1a 1c 	mul.d $f28,$f28,$f26
  407f60:	37 00 00 00 38 0a 1c 1d 	s.d $f28,2616($29)
  407f68:	2b 00 00 00 68 03 1c 1d 	l.d $f28,872($29)
  407f70:	71 00 00 00 00 12 1c 12 	add.d $f18,$f18,$f28
  407f78:	2b 00 00 00 d0 08 1a 1d 	l.d $f26,2256($29)
  407f80:	2b 00 00 00 d8 08 1c 1d 	l.d $f28,2264($29)
  407f88:	37 00 00 00 f8 01 12 1d 	s.d $f18,504($29)
  407f90:	71 00 00 00 00 12 1c 1a 	add.d $f18,$f26,$f28
  407f98:	a2 00 00 00 01 10 01 00 	lui $1,4097
  407fa0:	2b 00 00 00 f8 74 1a 01 	l.d $f26,29944($1)
  407fa8:	a2 00 00 00 01 10 01 00 	lui $1,4097
  407fb0:	2b 00 00 00 30 7e 1c 01 	l.d $f28,32304($1)
  407fb8:	75 00 00 00 00 1a 1c 1a 	mul.d $f26,$f26,$f28
  407fc0:	71 00 00 00 00 12 0a 12 	add.d $f18,$f18,$f10
  407fc8:	37 00 00 00 40 0a 1a 1d 	s.d $f26,2624($29)
  407fd0:	2b 00 00 00 e0 08 1a 1d 	l.d $f26,2272($29)
  407fd8:	2b 00 00 00 e8 08 1c 1d 	l.d $f28,2280($29)
  407fe0:	37 00 00 00 00 02 12 1d 	s.d $f18,512($29)
  407fe8:	71 00 00 00 00 12 1c 1a 	add.d $f18,$f26,$f28
  407ff0:	a2 00 00 00 01 10 01 00 	lui $1,4097
  407ff8:	2b 00 00 00 08 75 1a 01 	l.d $f26,29960($1)
  408000:	a2 00 00 00 01 10 01 00 	lui $1,4097
  408008:	2b 00 00 00 68 7e 1c 01 	l.d $f28,32360($1)
  408010:	75 00 00 00 00 1a 1c 1a 	mul.d $f26,$f26,$f28
  408018:	37 00 00 00 48 0a 1a 1d 	s.d $f26,2632($29)
  408020:	2b 00 00 00 00 09 1a 1d 	l.d $f26,2304($29)
  408028:	2b 00 00 00 08 09 1c 1d 	l.d $f28,2312($29)
  408030:	71 00 00 00 00 14 1c 1a 	add.d $f20,$f26,$f28
  408038:	a2 00 00 00 01 10 01 00 	lui $1,4097
  408040:	2b 00 00 00 70 74 1a 01 	l.d $f26,29808($1)
  408048:	2b 00 00 00 10 00 1c 1d 	l.d $f28,16($29)
  408050:	75 00 00 00 00 1a 1c 1a 	mul.d $f26,$f26,$f28
  408058:	71 00 00 00 00 12 16 12 	add.d $f18,$f18,$f22
  408060:	37 00 00 00 08 02 12 1d 	s.d $f18,520($29)
  408068:	37 00 00 00 50 0a 1a 1d 	s.d $f26,2640($29)
  408070:	2b 00 00 00 f0 08 1a 1d 	l.d $f26,2288($29)
  408078:	2b 00 00 00 f8 08 1c 1d 	l.d $f28,2296($29)
  408080:	71 00 00 00 00 12 1c 1a 	add.d $f18,$f26,$f28
  408088:	2b 00 00 00 10 09 1a 1d 	l.d $f26,2320($29)
  408090:	71 00 00 00 00 14 1a 14 	add.d $f20,$f20,$f26
  408098:	a2 00 00 00 01 10 01 00 	lui $1,4097
  4080a0:	2b 00 00 00 70 74 1c 01 	l.d $f28,29808($1)
  4080a8:	2b 00 00 00 28 00 1a 1d 	l.d $f26,40($29)
  4080b0:	75 00 00 00 00 1c 1a 1c 	mul.d $f28,$f28,$f26
  4080b8:	37 00 00 00 58 0a 1c 1d 	s.d $f28,2648($29)
  4080c0:	2b 00 00 00 60 03 1c 1d 	l.d $f28,864($29)
  4080c8:	71 00 00 00 00 12 1c 12 	add.d $f18,$f18,$f28
  4080d0:	a2 00 00 00 01 10 01 00 	lui $1,4097
  4080d8:	2b 00 00 00 70 74 1a 01 	l.d $f26,29808($1)
  4080e0:	2b 00 00 00 30 00 1c 1d 	l.d $f28,48($29)
  4080e8:	75 00 00 00 00 1a 1c 1a 	mul.d $f26,$f26,$f28
  4080f0:	37 00 00 00 60 0a 1a 1d 	s.d $f26,2656($29)
  4080f8:	2b 00 00 00 18 09 1a 1d 	l.d $f26,2328($29)
  408100:	2b 00 00 00 20 09 1c 1d 	l.d $f28,2336($29)
  408108:	37 00 00 00 10 02 12 1d 	s.d $f18,528($29)
  408110:	71 00 00 00 00 12 1c 1a 	add.d $f18,$f26,$f28
  408118:	71 00 00 00 00 14 02 14 	add.d $f20,$f20,$f2
  408120:	2b 00 00 00 30 09 1a 1d 	l.d $f26,2352($29)
  408128:	2b 00 00 00 38 09 1c 1d 	l.d $f28,2360($29)
  408130:	37 00 00 00 18 02 14 1d 	s.d $f20,536($29)
  408138:	71 00 00 00 00 14 1c 1a 	add.d $f20,$f26,$f28
  408140:	a2 00 00 00 01 10 01 00 	lui $1,4097
  408148:	2b 00 00 00 70 74 1a 01 	l.d $f26,29808($1)
  408150:	2b 00 00 00 38 00 1c 1d 	l.d $f28,56($29)
  408158:	75 00 00 00 00 1a 1c 1a 	mul.d $f26,$f26,$f28
  408160:	37 00 00 00 68 0a 1a 1d 	s.d $f26,2664($29)
  408168:	2b 00 00 00 28 09 1a 1d 	l.d $f26,2344($29)
  408170:	71 00 00 00 00 12 1a 12 	add.d $f18,$f18,$f26
  408178:	2b 00 00 00 40 09 1c 1d 	l.d $f28,2368($29)
  408180:	71 00 00 00 00 14 1c 14 	add.d $f20,$f20,$f28
  408188:	a2 00 00 00 01 10 01 00 	lui $1,4097
  408190:	2b 00 00 00 70 74 1a 01 	l.d $f26,29808($1)
  408198:	2b 00 00 00 18 00 1c 1d 	l.d $f28,24($29)
  4081a0:	75 00 00 00 00 1a 1c 1a 	mul.d $f26,$f26,$f28
  4081a8:	37 00 00 00 70 0a 1a 1d 	s.d $f26,2672($29)
  4081b0:	a2 00 00 00 01 10 01 00 	lui $1,4097
  4081b8:	2b 00 00 00 70 74 1a 01 	l.d $f26,29808($1)
  4081c0:	2b 00 00 00 40 00 1c 1d 	l.d $f28,64($29)
  4081c8:	75 00 00 00 00 1a 1c 1a 	mul.d $f26,$f26,$f28
  4081d0:	71 00 00 00 00 14 02 14 	add.d $f20,$f20,$f2
  4081d8:	37 00 00 00 78 0a 1a 1d 	s.d $f26,2680($29)
  4081e0:	2b 00 00 00 48 09 1a 1d 	l.d $f26,2376($29)
  4081e8:	2b 00 00 00 50 09 1c 1d 	l.d $f28,2384($29)
  4081f0:	71 00 00 00 00 02 1c 1a 	add.d $f2,$f26,$f28
  4081f8:	71 00 00 00 00 12 0a 12 	add.d $f18,$f18,$f10
  408200:	2b 00 00 00 58 09 1a 1d 	l.d $f26,2392($29)
  408208:	2b 00 00 00 60 09 1c 1d 	l.d $f28,2400($29)
  408210:	37 00 00 00 20 02 12 1d 	s.d $f18,544($29)
  408218:	71 00 00 00 00 12 1c 1a 	add.d $f18,$f26,$f28
  408220:	a2 00 00 00 01 10 01 00 	lui $1,4097
  408228:	2b 00 00 00 70 74 1a 01 	l.d $f26,29808($1)
  408230:	2b 00 00 00 48 00 1c 1d 	l.d $f28,72($29)
  408238:	75 00 00 00 00 1a 1c 1a 	mul.d $f26,$f26,$f28
  408240:	37 00 00 00 80 0a 1a 1d 	s.d $f26,2688($29)
  408248:	2b 00 00 00 68 09 1a 1d 	l.d $f26,2408($29)
  408250:	71 00 00 00 00 12 1a 12 	add.d $f18,$f18,$f26
  408258:	a2 00 00 00 01 10 01 00 	lui $1,4097
  408260:	2b 00 00 00 70 74 1c 01 	l.d $f28,29808($1)
  408268:	2b 00 00 00 50 00 1a 1d 	l.d $f26,80($29)
  408270:	75 00 00 00 00 1c 1a 1c 	mul.d $f28,$f28,$f26
  408278:	37 00 00 00 88 0a 1c 1d 	s.d $f28,2696($29)
  408280:	a2 00 00 00 01 10 01 00 	lui $1,4097
  408288:	2b 00 00 00 70 74 1c 01 	l.d $f28,29808($1)
  408290:	2b 00 00 00 20 00 1a 1d 	l.d $f26,32($29)
  408298:	75 00 00 00 00 1c 1a 1c 	mul.d $f28,$f28,$f26
  4082a0:	71 00 00 00 00 02 1e 02 	add.d $f2,$f2,$f30
  4082a8:	71 00 00 00 00 02 00 02 	add.d $f2,$f2,$f0
  4082b0:	37 00 00 00 90 0a 1c 1d 	s.d $f28,2704($29)
  4082b8:	2b 00 00 00 70 09 1c 1d 	l.d $f28,2416($29)
  4082c0:	2b 00 00 00 78 09 1a 1d 	l.d $f26,2424($29)
  4082c8:	37 00 00 00 30 02 02 1d 	s.d $f2,560($29)
  4082d0:	71 00 00 00 00 02 1a 1c 	add.d $f2,$f28,$f26
  4082d8:	71 00 00 00 00 12 0a 12 	add.d $f18,$f18,$f10
  4082e0:	2b 00 00 00 88 09 1c 1d 	l.d $f28,2440($29)
  4082e8:	2b 00 00 00 90 09 1a 1d 	l.d $f26,2448($29)
  4082f0:	71 00 00 00 00 0a 1a 1c 	add.d $f10,$f28,$f26
  4082f8:	a2 00 00 00 01 10 01 00 	lui $1,4097
  408300:	2b 00 00 00 78 74 1c 01 	l.d $f28,29816($1)
  408308:	2b 00 00 00 10 00 1a 1d 	l.d $f26,16($29)
  408310:	75 00 00 00 00 1c 1a 1c 	mul.d $f28,$f28,$f26
  408318:	37 00 00 00 28 02 14 1d 	s.d $f20,552($29)
  408320:	37 00 00 00 38 02 12 1d 	s.d $f18,568($29)
  408328:	37 00 00 00 98 0a 1c 1d 	s.d $f28,2712($29)
  408330:	2b 00 00 00 80 09 1c 1d 	l.d $f28,2432($29)
  408338:	71 00 00 00 00 02 1c 02 	add.d $f2,$f2,$f28
  408340:	2b 00 00 00 98 09 1a 1d 	l.d $f26,2456($29)
  408348:	71 00 00 00 00 0a 1a 0a 	add.d $f10,$f10,$f26
  408350:	a2 00 00 00 01 10 01 00 	lui $1,4097
  408358:	2b 00 00 00 78 74 1c 01 	l.d $f28,29816($1)
  408360:	2b 00 00 00 28 00 1a 1d 	l.d $f26,40($29)
  408368:	75 00 00 00 00 1c 1a 1c 	mul.d $f28,$f28,$f26
  408370:	37 00 00 00 a0 0a 1c 1d 	s.d $f28,2720($29)
  408378:	a2 00 00 00 01 10 01 00 	lui $1,4097
  408380:	2b 00 00 00 78 74 1c 01 	l.d $f28,29816($1)
  408388:	2b 00 00 00 30 00 1a 1d 	l.d $f26,48($29)
  408390:	75 00 00 00 00 1c 1a 1c 	mul.d $f28,$f28,$f26
  408398:	71 00 00 00 00 02 00 02 	add.d $f2,$f2,$f0
  4083a0:	37 00 00 00 a8 0a 1c 1d 	s.d $f28,2728($29)
  4083a8:	2b 00 00 00 a0 09 1c 1d 	l.d $f28,2464($29)
  4083b0:	2b 00 00 00 a8 09 1a 1d 	l.d $f26,2472($29)
  4083b8:	37 00 00 00 40 02 02 1d 	s.d $f2,576($29)
  4083c0:	71 00 00 00 00 02 1a 1c 	add.d $f2,$f28,$f26
  4083c8:	71 00 00 00 00 0a 0c 0a 	add.d $f10,$f10,$f12
  4083d0:	2b 00 00 00 b0 09 1c 1d 	l.d $f28,2480($29)
  4083d8:	2b 00 00 00 b8 09 1a 1d 	l.d $f26,2488($29)
  4083e0:	37 00 00 00 48 02 0a 1d 	s.d $f10,584($29)
  4083e8:	71 00 00 00 00 0a 1a 1c 	add.d $f10,$f28,$f26
  4083f0:	a2 00 00 00 01 10 01 00 	lui $1,4097
  4083f8:	2b 00 00 00 78 74 1c 01 	l.d $f28,29816($1)
  408400:	2b 00 00 00 38 00 1a 1d 	l.d $f26,56($29)
  408408:	75 00 00 00 00 1c 1a 1c 	mul.d $f28,$f28,$f26
  408410:	71 00 00 00 00 12 1e 02 	add.d $f18,$f2,$f30
  408418:	37 00 00 00 b0 0a 1c 1d 	s.d $f28,2736($29)
  408420:	2b 00 00 00 c0 09 1c 1d 	l.d $f28,2496($29)
  408428:	71 00 00 00 00 1e 1c 0a 	add.d $f30,$f10,$f28
  408430:	a2 00 00 00 01 10 01 00 	lui $1,4097
  408438:	2b 00 00 00 78 74 1a 01 	l.d $f26,29816($1)
  408440:	2b 00 00 00 18 00 1c 1d 	l.d $f28,24($29)
  408448:	75 00 00 00 00 1a 1c 1a 	mul.d $f26,$f26,$f28
  408450:	37 00 00 00 b8 0a 1a 1d 	s.d $f26,2744($29)
  408458:	a2 00 00 00 01 10 01 00 	lui $1,4097
  408460:	2b 00 00 00 78 74 1a 01 	l.d $f26,29816($1)
  408468:	2b 00 00 00 40 00 1c 1d 	l.d $f28,64($29)
  408470:	75 00 00 00 00 1a 1c 1a 	mul.d $f26,$f26,$f28
  408478:	71 00 00 00 00 1e 0c 1e 	add.d $f30,$f30,$f12
  408480:	37 00 00 00 c0 0a 1a 1d 	s.d $f26,2752($29)
  408488:	2b 00 00 00 c8 09 1a 1d 	l.d $f26,2504($29)
  408490:	2b 00 00 00 d0 09 1c 1d 	l.d $f28,2512($29)
  408498:	71 00 00 00 00 0c 1c 1a 	add.d $f12,$f26,$f28
  4084a0:	2b 00 00 00 e0 09 1a 1d 	l.d $f26,2528($29)
  4084a8:	2b 00 00 00 78 09 1c 1d 	l.d $f28,2424($29)
  4084b0:	37 00 00 00 58 02 1e 1d 	s.d $f30,600($29)
  4084b8:	71 00 00 00 00 1e 1c 1a 	add.d $f30,$f26,$f28
  4084c0:	a2 00 00 00 01 10 01 00 	lui $1,4097
  4084c8:	2b 00 00 00 78 74 1a 01 	l.d $f26,29816($1)
  4084d0:	2b 00 00 00 48 00 1c 1d 	l.d $f28,72($29)
  4084d8:	75 00 00 00 00 1a 1c 1a 	mul.d $f26,$f26,$f28
  4084e0:	71 00 00 00 00 12 00 12 	add.d $f18,$f18,$f0
  4084e8:	37 00 00 00 50 02 12 1d 	s.d $f18,592($29)
  4084f0:	37 00 00 00 c8 0a 1a 1d 	s.d $f26,2760($29)
  4084f8:	2b 00 00 00 d8 09 1a 1d 	l.d $f26,2520($29)
  408500:	71 00 00 00 00 0c 1a 0c 	add.d $f12,$f12,$f26
  408508:	2b 00 00 00 e8 09 1c 1d 	l.d $f28,2536($29)
  408510:	71 00 00 00 00 1e 1c 1e 	add.d $f30,$f30,$f28
  408518:	a2 00 00 00 01 10 01 00 	lui $1,4097
  408520:	2b 00 00 00 78 74 1a 01 	l.d $f26,29816($1)
  408528:	2b 00 00 00 50 00 1c 1d 	l.d $f28,80($29)
  408530:	75 00 00 00 00 1a 1c 1a 	mul.d $f26,$f26,$f28
  408538:	37 00 00 00 d0 0a 1a 1d 	s.d $f26,2768($29)
  408540:	a2 00 00 00 01 10 01 00 	lui $1,4097
  408548:	2b 00 00 00 78 74 1a 01 	l.d $f26,29816($1)
  408550:	2b 00 00 00 20 00 1c 1d 	l.d $f28,32($29)
  408558:	75 00 00 00 00 1a 1c 1a 	mul.d $f26,$f26,$f28
  408560:	71 00 00 00 00 0c 16 0c 	add.d $f12,$f12,$f22
  408568:	37 00 00 00 d8 0a 1a 1d 	s.d $f26,2776($29)
  408570:	2b 00 00 00 f0 09 1a 1d 	l.d $f26,2544($29)
  408578:	2b 00 00 00 f8 09 1c 1d 	l.d $f28,2552($29)
  408580:	37 00 00 00 60 02 0c 1d 	s.d $f12,608($29)
  408588:	71 00 00 00 00 0c 1c 1a 	add.d $f12,$f26,$f28
  408590:	71 00 00 00 00 1e 00 1e 	add.d $f30,$f30,$f0
  408598:	2b 00 00 00 08 0a 1a 1d 	l.d $f26,2568($29)
  4085a0:	2b 00 00 00 a8 09 1c 1d 	l.d $f28,2472($29)
  4085a8:	37 00 00 00 68 02 1e 1d 	s.d $f30,616($29)
  4085b0:	71 00 00 00 00 1e 1c 1a 	add.d $f30,$f26,$f28
  4085b8:	a2 00 00 00 01 10 01 00 	lui $1,4097
  4085c0:	2b 00 00 00 80 74 1a 01 	l.d $f26,29824($1)
  4085c8:	2b 00 00 00 10 00 1c 1d 	l.d $f28,16($29)
  4085d0:	75 00 00 00 00 0a 1c 1a 	mul.d $f10,$f26,$f28
  4085d8:	2b 00 00 00 00 0a 1a 1d 	l.d $f26,2560($29)
  4085e0:	71 00 00 00 00 0c 1a 0c 	add.d $f12,$f12,$f26
  4085e8:	2b 00 00 00 80 09 1c 1d 	l.d $f28,2432($29)
  4085f0:	71 00 00 00 00 1e 1c 1e 	add.d $f30,$f30,$f28
  4085f8:	a2 00 00 00 01 10 01 00 	lui $1,4097
  408600:	2b 00 00 00 80 74 1a 01 	l.d $f26,29824($1)
  408608:	2b 00 00 00 28 00 1c 1d 	l.d $f28,40($29)
  408610:	75 00 00 00 00 1a 1c 1a 	mul.d $f26,$f26,$f28
  408618:	37 00 00 00 e0 0a 1a 1d 	s.d $f26,2784($29)
  408620:	a2 00 00 00 01 10 01 00 	lui $1,4097
  408628:	2b 00 00 00 80 74 1a 01 	l.d $f26,29824($1)
  408630:	2b 00 00 00 30 00 1c 1d 	l.d $f28,48($29)
  408638:	75 00 00 00 00 14 1c 1a 	mul.d $f20,$f26,$f28
  408640:	71 00 00 00 00 0c 16 0c 	add.d $f12,$f12,$f22
  408648:	2b 00 00 00 10 0a 1a 1d 	l.d $f26,2576($29)
  408650:	37 00 00 00 70 02 0c 1d 	s.d $f12,624($29)
  408658:	71 00 00 00 00 0c 0e 1a 	add.d $f12,$f26,$f14
  408660:	2b 00 00 00 18 0a 1c 1d 	l.d $f28,2584($29)
  408668:	2b 00 00 00 50 09 1a 1d 	l.d $f26,2384($29)
  408670:	71 00 00 00 00 0e 1a 1c 	add.d $f14,$f28,$f26
  408678:	a2 00 00 00 01 10 01 00 	lui $1,4097
  408680:	2b 00 00 00 80 74 1c 01 	l.d $f28,29824($1)
  408688:	2b 00 00 00 38 00 1a 1d 	l.d $f26,56($29)
  408690:	75 00 00 00 00 1c 1a 1c 	mul.d $f28,$f28,$f26
  408698:	71 00 00 00 00 1e 00 1e 	add.d $f30,$f30,$f0
  4086a0:	37 00 00 00 78 02 1e 1d 	s.d $f30,632($29)
  4086a8:	37 00 00 00 e8 0a 1c 1d 	s.d $f28,2792($29)
  4086b0:	2b 00 00 00 e8 09 1c 1d 	l.d $f28,2536($29)
  4086b8:	71 00 00 00 00 0e 1c 0e 	add.d $f14,$f14,$f28
  4086c0:	a2 00 00 00 01 10 01 00 	lui $1,4097
  4086c8:	2b 00 00 00 80 74 1a 01 	l.d $f26,29824($1)
  4086d0:	2b 00 00 00 18 00 1c 1d 	l.d $f28,24($29)
  4086d8:	75 00 00 00 00 02 1c 1a 	mul.d $f2,$f26,$f28
  4086e0:	2b 00 00 00 40 00 1c 1d 	l.d $f28,64($29)
  4086e8:	75 00 00 00 00 1a 1c 1a 	mul.d $f26,$f26,$f28
  4086f0:	71 00 00 00 00 0e 00 0e 	add.d $f14,$f14,$f0
  4086f8:	37 00 00 00 f0 0a 1a 1d 	s.d $f26,2800($29)
  408700:	2b 00 00 00 20 0a 1a 1d 	l.d $f26,2592($29)
  408708:	71 00 00 00 00 00 06 1a 	add.d $f0,$f26,$f6
  408710:	2b 00 00 00 28 0a 1c 1d 	l.d $f28,2600($29)
  408718:	2b 00 00 00 30 0a 1a 1d 	l.d $f26,2608($29)
  408720:	71 00 00 00 00 06 1a 1c 	add.d $f6,$f28,$f26
  408728:	a2 00 00 00 01 10 01 00 	lui $1,4097
  408730:	2b 00 00 00 80 74 1c 01 	l.d $f28,29824($1)
  408738:	2b 00 00 00 48 00 1a 1d 	l.d $f26,72($29)
  408740:	75 00 00 00 00 12 1a 1c 	mul.d $f18,$f28,$f26
  408748:	2b 00 00 00 50 00 1a 1d 	l.d $f26,80($29)
  408750:	75 00 00 00 00 1c 1a 1c 	mul.d $f28,$f28,$f26
  408758:	71 00 00 00 00 00 08 00 	add.d $f0,$f0,$f8
  408760:	37 00 00 00 f8 0a 1c 1d 	s.d $f28,2808($29)
  408768:	2b 00 00 00 68 03 1c 1d 	l.d $f28,872($29)
  408770:	71 00 00 00 00 00 1c 00 	add.d $f0,$f0,$f28
  408778:	a2 00 00 00 01 10 01 00 	lui $1,4097
  408780:	2b 00 00 00 80 74 1a 01 	l.d $f26,29824($1)
  408788:	2b 00 00 00 20 00 1c 1d 	l.d $f28,32($29)
  408790:	75 00 00 00 00 08 1c 1a 	mul.d $f8,$f26,$f28
  408798:	71 00 00 00 00 04 04 06 	add.d $f4,$f6,$f4
  4087a0:	2b 00 00 00 50 0a 1a 1d 	l.d $f26,2640($29)
  4087a8:	2b 00 00 00 d0 01 1c 1d 	l.d $f28,464($29)
  4087b0:	71 00 00 00 00 1a 1c 1a 	add.d $f26,$f26,$f28
  4087b8:	71 00 00 00 00 04 18 04 	add.d $f4,$f4,$f24
  4087c0:	37 00 00 00 a8 02 1a 1d 	s.d $f26,680($29)
  4087c8:	2b 00 00 00 38 0a 1a 1d 	l.d $f26,2616($29)
  4087d0:	2b 00 00 00 40 0a 1c 1d 	l.d $f28,2624($29)
  4087d8:	37 00 00 00 98 02 04 1d 	s.d $f4,664($29)
  4087e0:	71 00 00 00 00 04 1c 1a 	add.d $f4,$f26,$f28
  4087e8:	37 00 00 00 88 02 0e 1d 	s.d $f14,648($29)
  4087f0:	a2 00 00 00 01 10 01 00 	lui $1,4097
  4087f8:	2b 00 00 00 50 76 0e 01 	l.d $f14,30288($1)
  408800:	2b 00 00 00 a8 02 1a 1d 	l.d $f26,680($29)
  408808:	37 00 00 00 90 02 00 1d 	s.d $f0,656($29)
  408810:	75 00 00 00 00 00 0e 1a 	mul.d $f0,$f26,$f14
  408818:	71 00 00 00 00 0c 10 0c 	add.d $f12,$f12,$f16
  408820:	71 00 00 00 00 0c 18 0c 	add.d $f12,$f12,$f24
  408828:	2b 00 00 00 58 0a 1c 1d 	l.d $f28,2648($29)
  408830:	2b 00 00 00 18 02 1a 1d 	l.d $f26,536($29)
  408838:	71 00 00 00 00 1c 1a 1c 	add.d $f28,$f28,$f26
  408840:	37 00 00 00 80 02 0c 1d 	s.d $f12,640($29)
  408848:	37 00 00 00 b0 02 1c 1d 	s.d $f28,688($29)
  408850:	2b 00 00 00 48 0a 1c 1d 	l.d $f28,2632($29)
  408858:	71 00 00 00 00 04 1c 04 	add.d $f4,$f4,$f28
  408860:	2b 00 00 00 b0 02 1a 1d 	l.d $f26,688($29)
  408868:	a2 00 00 00 01 10 01 00 	lui $1,4097
  408870:	2b 00 00 00 58 76 1c 01 	l.d $f28,30296($1)
  408878:	75 00 00 00 00 1a 1c 1a 	mul.d $f26,$f26,$f28
  408880:	37 00 00 00 00 0b 1a 1d 	s.d $f26,2816($29)
  408888:	2b 00 00 00 60 0a 1a 1d 	l.d $f26,2656($29)
  408890:	2b 00 00 00 20 02 1c 1d 	l.d $f28,544($29)
  408898:	71 00 00 00 00 1a 1c 1a 	add.d $f26,$f26,$f28
  4088a0:	37 00 00 00 b8 02 1a 1d 	s.d $f26,696($29)
  4088a8:	2b 00 00 00 68 03 1a 1d 	l.d $f26,872($29)
  4088b0:	71 00 00 00 00 04 1a 04 	add.d $f4,$f4,$f26
  4088b8:	2b 00 00 00 b8 02 1c 1d 	l.d $f28,696($29)
  4088c0:	a2 00 00 00 01 10 01 00 	lui $1,4097
  4088c8:	2b 00 00 00 60 76 1a 01 	l.d $f26,30304($1)
  4088d0:	75 00 00 00 00 10 1a 1c 	mul.d $f16,$f28,$f26
  4088d8:	2b 00 00 00 68 0a 1c 1d 	l.d $f28,2664($29)
  4088e0:	2b 00 00 00 28 02 1a 1d 	l.d $f26,552($29)
  4088e8:	71 00 00 00 00 1c 1a 1c 	add.d $f28,$f28,$f26
  4088f0:	37 00 00 00 c0 02 1c 1d 	s.d $f28,704($29)
  4088f8:	2b 00 00 00 70 0a 1c 1d 	l.d $f28,2672($29)
  408900:	2b 00 00 00 d8 01 1a 1d 	l.d $f26,472($29)
  408908:	71 00 00 00 00 1c 1a 1c 	add.d $f28,$f28,$f26
  408910:	37 00 00 00 c8 02 1c 1d 	s.d $f28,712($29)
  408918:	2b 00 00 00 c0 02 1c 1d 	l.d $f28,704($29)
  408920:	a2 00 00 00 01 10 01 00 	lui $1,4097
  408928:	2b 00 00 00 70 76 1a 01 	l.d $f26,30320($1)
  408930:	75 00 00 00 00 1c 1a 1c 	mul.d $f28,$f28,$f26
  408938:	37 00 00 00 08 0b 1c 1d 	s.d $f28,2824($29)
  408940:	2b 00 00 00 78 0a 1c 1d 	l.d $f28,2680($29)
  408948:	2b 00 00 00 30 02 1a 1d 	l.d $f26,560($29)
  408950:	71 00 00 00 00 1c 1a 1c 	add.d $f28,$f28,$f26
  408958:	37 00 00 00 d0 02 1c 1d 	s.d $f28,720($29)
  408960:	2b 00 00 00 80 0a 1c 1d 	l.d $f28,2688($29)
  408968:	2b 00 00 00 38 02 1a 1d 	l.d $f26,568($29)
  408970:	71 00 00 00 00 1c 1a 1c 	add.d $f28,$f28,$f26
  408978:	37 00 00 00 d8 02 1c 1d 	s.d $f28,728($29)
  408980:	2b 00 00 00 c8 02 1c 1d 	l.d $f28,712($29)
  408988:	a2 00 00 00 01 10 01 00 	lui $1,4097
  408990:	2b 00 00 00 78 76 1a 01 	l.d $f26,30328($1)
  408998:	37 00 00 00 a0 02 04 1d 	s.d $f4,672($29)
  4089a0:	75 00 00 00 00 04 1a 1c 	mul.d $f4,$f28,$f26
  4089a8:	2b 00 00 00 88 0a 1c 1d 	l.d $f28,2696($29)
  4089b0:	2b 00 00 00 40 02 1a 1d 	l.d $f26,576($29)
  4089b8:	71 00 00 00 00 1c 1a 1c 	add.d $f28,$f28,$f26
  4089c0:	37 00 00 00 e0 02 1c 1d 	s.d $f28,736($29)
  4089c8:	2b 00 00 00 90 0a 1c 1d 	l.d $f28,2704($29)
  4089d0:	2b 00 00 00 e0 01 1a 1d 	l.d $f26,480($29)
  4089d8:	71 00 00 00 00 1c 1a 1c 	add.d $f28,$f28,$f26
  4089e0:	37 00 00 00 e8 02 1c 1d 	s.d $f28,744($29)
  4089e8:	2b 00 00 00 d0 02 1c 1d 	l.d $f28,720($29)
  4089f0:	a2 00 00 00 01 10 01 00 	lui $1,4097
  4089f8:	2b 00 00 00 80 76 1a 01 	l.d $f26,30336($1)
  408a00:	75 00 00 00 00 1c 1a 1c 	mul.d $f28,$f28,$f26
  408a08:	37 00 00 00 10 0b 1c 1d 	s.d $f28,2832($29)
  408a10:	2b 00 00 00 98 0a 1c 1d 	l.d $f28,2712($29)
  408a18:	2b 00 00 00 e8 01 1a 1d 	l.d $f26,488($29)
  408a20:	71 00 00 00 00 1c 1a 1c 	add.d $f28,$f28,$f26
  408a28:	37 00 00 00 f0 02 1c 1d 	s.d $f28,752($29)
  408a30:	2b 00 00 00 a0 0a 1c 1d 	l.d $f28,2720($29)
  408a38:	2b 00 00 00 48 02 1a 1d 	l.d $f26,584($29)
  408a40:	71 00 00 00 00 1c 1a 1c 	add.d $f28,$f28,$f26
  408a48:	37 00 00 00 f8 02 1c 1d 	s.d $f28,760($29)
  408a50:	2b 00 00 00 d8 02 1c 1d 	l.d $f28,728($29)
  408a58:	a2 00 00 00 01 10 01 00 	lui $1,4097
  408a60:	2b 00 00 00 90 76 1a 01 	l.d $f26,30352($1)
  408a68:	75 00 00 00 00 0c 1a 1c 	mul.d $f12,$f28,$f26
  408a70:	2b 00 00 00 a8 0a 1c 1d 	l.d $f28,2728($29)
  408a78:	2b 00 00 00 50 02 1a 1d 	l.d $f26,592($29)
  408a80:	71 00 00 00 00 1c 1a 1c 	add.d $f28,$f28,$f26
  408a88:	37 00 00 00 00 03 1c 1d 	s.d $f28,768($29)
  408a90:	2b 00 00 00 b0 0a 1c 1d 	l.d $f28,2736($29)
  408a98:	2b 00 00 00 58 02 1a 1d 	l.d $f26,600($29)
  408aa0:	71 00 00 00 00 1c 1a 1c 	add.d $f28,$f28,$f26
  408aa8:	37 00 00 00 08 03 1c 1d 	s.d $f28,776($29)
  408ab0:	2b 00 00 00 e0 02 1c 1d 	l.d $f28,736($29)
  408ab8:	a2 00 00 00 01 10 01 00 	lui $1,4097
  408ac0:	2b 00 00 00 98 76 1a 01 	l.d $f26,30360($1)
  408ac8:	75 00 00 00 00 16 1a 1c 	mul.d $f22,$f28,$f26
  408ad0:	2b 00 00 00 b8 0a 1c 1d 	l.d $f28,2744($29)
  408ad8:	2b 00 00 00 f0 01 1a 1d 	l.d $f26,496($29)
  408ae0:	71 00 00 00 00 1c 1a 1c 	add.d $f28,$f28,$f26
  408ae8:	37 00 00 00 10 03 1c 1d 	s.d $f28,784($29)
  408af0:	2b 00 00 00 c0 0a 1c 1d 	l.d $f28,2752($29)
  408af8:	2b 00 00 00 60 02 1a 1d 	l.d $f26,608($29)
  408b00:	71 00 00 00 00 1c 1a 1c 	add.d $f28,$f28,$f26
  408b08:	37 00 00 00 18 03 1c 1d 	s.d $f28,792($29)
  408b10:	2b 00 00 00 e8 02 1c 1d 	l.d $f28,744($29)
  408b18:	a2 00 00 00 01 10 01 00 	lui $1,4097
  408b20:	2b 00 00 00 a0 76 1a 01 	l.d $f26,30368($1)
  408b28:	75 00 00 00 00 06 1a 1c 	mul.d $f6,$f28,$f26
  408b30:	2b 00 00 00 c8 0a 1c 1d 	l.d $f28,2760($29)
  408b38:	2b 00 00 00 68 02 1a 1d 	l.d $f26,616($29)
  408b40:	71 00 00 00 00 1c 1a 1c 	add.d $f28,$f28,$f26
  408b48:	37 00 00 00 20 03 1c 1d 	s.d $f28,800($29)
  408b50:	2b 00 00 00 d0 0a 1c 1d 	l.d $f28,2768($29)
  408b58:	2b 00 00 00 70 02 1a 1d 	l.d $f26,624($29)
  408b60:	71 00 00 00 00 1c 1a 1c 	add.d $f28,$f28,$f26
  408b68:	a2 00 00 00 01 10 01 00 	lui $1,4097
  408b70:	2b 00 00 00 d0 76 18 01 	l.d $f24,30416($1)
  408b78:	37 00 00 00 28 03 1c 1d 	s.d $f28,808($29)
  408b80:	2b 00 00 00 f0 02 1c 1d 	l.d $f28,752($29)
  408b88:	75 00 00 00 00 1e 18 1c 	mul.d $f30,$f28,$f24
  408b90:	2b 00 00 00 d8 0a 1a 1d 	l.d $f26,2776($29)
  408b98:	2b 00 00 00 f8 01 1c 1d 	l.d $f28,504($29)
  408ba0:	71 00 00 00 00 1a 1c 1a 	add.d $f26,$f26,$f28
  408ba8:	37 00 00 00 30 03 1a 1d 	s.d $f26,816($29)
  408bb0:	2b 00 00 00 00 02 1a 1d 	l.d $f26,512($29)
  408bb8:	71 00 00 00 00 0a 1a 0a 	add.d $f10,$f10,$f26
  408bc0:	2b 00 00 00 f8 02 1c 1d 	l.d $f28,760($29)
  408bc8:	a2 00 00 00 01 10 01 00 	lui $1,4097
  408bd0:	2b 00 00 00 d8 76 1a 01 	l.d $f26,30424($1)
  408bd8:	37 00 00 00 38 03 0a 1d 	s.d $f10,824($29)
  408be0:	75 00 00 00 00 0a 1a 1c 	mul.d $f10,$f28,$f26
  408be8:	2b 00 00 00 e0 0a 1c 1d 	l.d $f28,2784($29)
  408bf0:	2b 00 00 00 78 02 1a 1d 	l.d $f26,632($29)
  408bf8:	71 00 00 00 00 1c 1a 1c 	add.d $f28,$f28,$f26
  408c00:	37 00 00 00 40 03 1c 1d 	s.d $f28,832($29)
  408c08:	2b 00 00 00 80 02 1c 1d 	l.d $f28,640($29)
  408c10:	71 00 00 00 00 14 1c 14 	add.d $f20,$f20,$f28
  408c18:	2b 00 00 00 00 03 1a 1d 	l.d $f26,768($29)
  408c20:	a2 00 00 00 01 10 01 00 	lui $1,4097
  408c28:	2b 00 00 00 e0 76 1c 01 	l.d $f28,30432($1)
  408c30:	37 00 00 00 48 03 14 1d 	s.d $f20,840($29)
  408c38:	75 00 00 00 00 14 1c 1a 	mul.d $f20,$f26,$f28
  408c40:	2b 00 00 00 e8 0a 1a 1d 	l.d $f26,2792($29)
  408c48:	2b 00 00 00 88 02 1c 1d 	l.d $f28,648($29)
  408c50:	71 00 00 00 00 1a 1c 1a 	add.d $f26,$f26,$f28
  408c58:	37 00 00 00 70 03 1a 1d 	s.d $f26,880($29)
  408c60:	2b 00 00 00 08 02 1a 1d 	l.d $f26,520($29)
  408c68:	71 00 00 00 00 02 1a 02 	add.d $f2,$f2,$f26
  408c70:	37 00 00 00 78 03 02 1d 	s.d $f2,888($29)
  408c78:	2b 00 00 00 08 03 1c 1d 	l.d $f28,776($29)
  408c80:	a2 00 00 00 01 10 01 00 	lui $1,4097
  408c88:	2b 00 00 00 f0 76 1a 01 	l.d $f26,30448($1)
  408c90:	75 00 00 00 00 02 1a 1c 	mul.d $f2,$f28,$f26
  408c98:	2b 00 00 00 f0 0a 1c 1d 	l.d $f28,2800($29)
  408ca0:	2b 00 00 00 90 02 1a 1d 	l.d $f26,656($29)
  408ca8:	71 00 00 00 00 1c 1a 1c 	add.d $f28,$f28,$f26
  408cb0:	37 00 00 00 80 03 1c 1d 	s.d $f28,896($29)
  408cb8:	2b 00 00 00 98 02 1c 1d 	l.d $f28,664($29)
  408cc0:	71 00 00 00 00 12 1c 12 	add.d $f18,$f18,$f28
  408cc8:	2b 00 00 00 10 03 1a 1d 	l.d $f26,784($29)
  408cd0:	a2 00 00 00 01 10 01 00 	lui $1,4097
  408cd8:	2b 00 00 00 f8 76 1c 01 	l.d $f28,30456($1)
  408ce0:	37 00 00 00 88 03 12 1d 	s.d $f18,904($29)
  408ce8:	75 00 00 00 00 12 1c 1a 	mul.d $f18,$f26,$f28
  408cf0:	2b 00 00 00 f8 0a 1a 1d 	l.d $f26,2808($29)
  408cf8:	2b 00 00 00 a0 02 1c 1d 	l.d $f28,672($29)
  408d00:	71 00 00 00 00 1a 1c 1a 	add.d $f26,$f26,$f28
  408d08:	37 00 00 00 90 03 1a 1d 	s.d $f26,912($29)
  408d10:	2b 00 00 00 10 02 1a 1d 	l.d $f26,528($29)
  408d18:	71 00 00 00 00 08 1a 08 	add.d $f8,$f8,$f26
  408d20:	2b 00 00 00 18 03 1c 1d 	l.d $f28,792($29)
  408d28:	a2 00 00 00 01 10 01 00 	lui $1,4097
  408d30:	2b 00 00 00 00 77 1a 01 	l.d $f26,30464($1)
  408d38:	37 00 00 00 98 03 08 1d 	s.d $f8,920($29)
  408d40:	75 00 00 00 00 08 1a 1c 	mul.d $f8,$f28,$f26
  408d48:	2b 00 00 00 00 0b 1c 1d 	l.d $f28,2816($29)
  408d50:	71 00 00 00 00 00 1c 00 	add.d $f0,$f0,$f28
  408d58:	2b 00 00 00 20 03 1a 1d 	l.d $f26,800($29)
  408d60:	71 00 00 00 00 00 10 00 	add.d $f0,$f0,$f16
  408d68:	a2 00 00 00 01 10 01 00 	lui $1,4097
  408d70:	2b 00 00 00 10 77 1c 01 	l.d $f28,30480($1)
  408d78:	75 00 00 00 00 10 1c 1a 	mul.d $f16,$f26,$f28
  408d80:	2b 00 00 00 08 0b 1a 1d 	l.d $f26,2824($29)
  408d88:	71 00 00 00 00 00 1a 00 	add.d $f0,$f0,$f26
  408d90:	2b 00 00 00 28 03 1c 1d 	l.d $f28,808($29)
  408d98:	71 00 00 00 00 00 04 00 	add.d $f0,$f0,$f4
  408da0:	a2 00 00 00 01 10 01 00 	lui $1,4097
  408da8:	2b 00 00 00 18 77 1a 01 	l.d $f26,30488($1)
  408db0:	75 00 00 00 00 04 1a 1c 	mul.d $f4,$f28,$f26
  408db8:	2b 00 00 00 10 0b 1c 1d 	l.d $f28,2832($29)
  408dc0:	71 00 00 00 00 00 1c 00 	add.d $f0,$f0,$f28
  408dc8:	2b 00 00 00 30 03 1a 1d 	l.d $f26,816($29)
  408dd0:	71 00 00 00 00 00 0c 00 	add.d $f0,$f0,$f12
  408dd8:	a2 00 00 00 01 10 01 00 	lui $1,4097
  408de0:	2b 00 00 00 20 77 1c 01 	l.d $f28,30496($1)
  408de8:	75 00 00 00 00 0c 1c 1a 	mul.d $f12,$f26,$f28
  408df0:	71 00 00 00 00 00 16 00 	add.d $f0,$f0,$f22
  408df8:	a2 00 00 00 01 10 01 00 	lui $1,4097
  408e00:	2b 00 00 00 50 77 16 01 	l.d $f22,30544($1)
  408e08:	71 00 00 00 00 00 06 00 	add.d $f0,$f0,$f6
  408e10:	2b 00 00 00 38 03 1a 1d 	l.d $f26,824($29)
  408e18:	75 00 00 00 00 06 16 1a 	mul.d $f6,$f26,$f22
  408e20:	71 00 00 00 00 00 1e 00 	add.d $f0,$f0,$f30
  408e28:	2b 00 00 00 40 03 1c 1d 	l.d $f28,832($29)
  408e30:	71 00 00 00 00 00 0a 00 	add.d $f0,$f0,$f10
  408e38:	a2 00 00 00 01 10 01 00 	lui $1,4097
  408e40:	2b 00 00 00 58 77 1a 01 	l.d $f26,30552($1)
  408e48:	75 00 00 00 00 0a 1a 1c 	mul.d $f10,$f28,$f26
  408e50:	71 00 00 00 00 00 14 00 	add.d $f0,$f0,$f20
  408e58:	71 00 00 00 00 00 02 00 	add.d $f0,$f0,$f2
  408e60:	2b 00 00 00 48 03 1c 1d 	l.d $f28,840($29)
  408e68:	a2 00 00 00 01 10 01 00 	lui $1,4097
  408e70:	2b 00 00 00 60 77 1a 01 	l.d $f26,30560($1)
  408e78:	75 00 00 00 00 02 1a 1c 	mul.d $f2,$f28,$f26
  408e80:	71 00 00 00 00 00 12 00 	add.d $f0,$f0,$f18
  408e88:	71 00 00 00 00 00 08 00 	add.d $f0,$f0,$f8
  408e90:	2b 00 00 00 70 03 1c 1d 	l.d $f28,880($29)
  408e98:	a2 00 00 00 01 10 01 00 	lui $1,4097
  408ea0:	2b 00 00 00 70 77 1a 01 	l.d $f26,30576($1)
  408ea8:	75 00 00 00 00 08 1a 1c 	mul.d $f8,$f28,$f26
  408eb0:	71 00 00 00 00 00 10 00 	add.d $f0,$f0,$f16
  408eb8:	71 00 00 00 00 00 04 00 	add.d $f0,$f0,$f4
  408ec0:	2b 00 00 00 78 03 1c 1d 	l.d $f28,888($29)
  408ec8:	a2 00 00 00 01 10 01 00 	lui $1,4097
  408ed0:	2b 00 00 00 78 77 1a 01 	l.d $f26,30584($1)
  408ed8:	75 00 00 00 00 04 1a 1c 	mul.d $f4,$f28,$f26
  408ee0:	71 00 00 00 00 00 0c 00 	add.d $f0,$f0,$f12
  408ee8:	71 00 00 00 00 00 06 00 	add.d $f0,$f0,$f6
  408ef0:	2b 00 00 00 80 03 1c 1d 	l.d $f28,896($29)
  408ef8:	a2 00 00 00 01 10 01 00 	lui $1,4097
  408f00:	2b 00 00 00 80 77 1a 01 	l.d $f26,30592($1)
  408f08:	75 00 00 00 00 06 1a 1c 	mul.d $f6,$f28,$f26
  408f10:	71 00 00 00 00 00 0a 00 	add.d $f0,$f0,$f10
  408f18:	71 00 00 00 00 00 02 00 	add.d $f0,$f0,$f2
  408f20:	2b 00 00 00 88 03 1c 1d 	l.d $f28,904($29)
  408f28:	a2 00 00 00 01 10 01 00 	lui $1,4097
  408f30:	2b 00 00 00 90 77 1a 01 	l.d $f26,30608($1)
  408f38:	75 00 00 00 00 02 1a 1c 	mul.d $f2,$f28,$f26
  408f40:	71 00 00 00 00 00 08 00 	add.d $f0,$f0,$f8
  408f48:	71 00 00 00 00 00 04 00 	add.d $f0,$f0,$f4
  408f50:	2b 00 00 00 90 03 1c 1d 	l.d $f28,912($29)
  408f58:	a2 00 00 00 01 10 01 00 	lui $1,4097
  408f60:	2b 00 00 00 98 77 1a 01 	l.d $f26,30616($1)
  408f68:	75 00 00 00 00 04 1a 1c 	mul.d $f4,$f28,$f26
  408f70:	71 00 00 00 00 00 06 00 	add.d $f0,$f0,$f6
  408f78:	71 00 00 00 00 00 02 00 	add.d $f0,$f0,$f2
  408f80:	2b 00 00 00 98 03 1c 1d 	l.d $f28,920($29)
  408f88:	a2 00 00 00 01 10 01 00 	lui $1,4097
  408f90:	2b 00 00 00 a0 77 1a 01 	l.d $f26,30624($1)
  408f98:	75 00 00 00 00 02 1a 1c 	mul.d $f2,$f28,$f26
  408fa0:	2b 00 00 00 a8 16 1c 1d 	l.d $f28,5800($29)
  408fa8:	2b 00 00 00 60 08 1a 1d 	l.d $f26,2144($29)
  408fb0:	71 00 00 00 00 1c 1a 1c 	add.d $f28,$f28,$f26
  408fb8:	37 00 00 00 a8 16 1c 1d 	s.d $f28,5800($29)
  408fc0:	a2 00 00 00 01 10 01 00 	lui $1,4097
  408fc8:	2b 00 00 00 28 7f 1a 01 	l.d $f26,32552($1)
  408fd0:	75 00 00 00 00 1c 1a 1c 	mul.d $f28,$f28,$f26
  408fd8:	37 00 00 00 a8 16 1c 1d 	s.d $f28,5800($29)
  408fe0:	2b 00 00 00 a8 06 1c 1d 	l.d $f28,1704($29)
  408fe8:	2b 00 00 00 a0 16 1a 1d 	l.d $f26,5792($29)
  408ff0:	71 00 00 00 00 1c 1a 1c 	add.d $f28,$f28,$f26
  408ff8:	37 00 00 00 20 08 1c 1d 	s.d $f28,2080($29)
  409000:	2b 00 00 00 b0 07 1c 1d 	l.d $f28,1968($29)
  409008:	2b 00 00 00 b8 07 1a 1d 	l.d $f26,1976($29)
  409010:	a2 00 00 00 01 10 01 00 	lui $1,4097
  409018:	37 00 00 00 b0 7e 1c 01 	s.d $f28,32432($1)
  409020:	2b 00 00 00 c8 07 1c 1d 	l.d $f28,1992($29)
  409028:	a2 00 00 00 01 10 01 00 	lui $1,4097
  409030:	37 00 00 00 d0 7e 1a 01 	s.d $f26,32464($1)
  409038:	2b 00 00 00 b0 06 1a 1d 	l.d $f26,1712($29)
  409040:	71 00 00 00 00 00 04 00 	add.d $f0,$f0,$f4
  409048:	a2 00 00 00 01 10 01 00 	lui $1,4097
  409050:	37 00 00 00 f0 7e 1c 01 	s.d $f28,32496($1)
  409058:	2b 00 00 00 a8 16 1c 1d 	l.d $f28,5800($29)
  409060:	71 00 00 00 00 1a 1c 1a 	add.d $f26,$f26,$f28
  409068:	a2 00 00 00 01 10 01 00 	lui $1,4097
  409070:	2b 00 00 00 18 7f 1e 01 	l.d $f30,32536($1)
  409078:	71 00 00 00 00 00 02 00 	add.d $f0,$f0,$f2
  409080:	37 00 00 00 68 08 1a 1d 	s.d $f26,2152($29)
  409088:	2b 00 00 00 d0 07 1a 1d 	l.d $f26,2000($29)
  409090:	2b 00 00 00 f0 07 1c 1d 	l.d $f28,2032($29)
  409098:	75 00 00 00 00 00 1e 00 	mul.d $f0,$f0,$f30
  4090a0:	a2 00 00 00 01 10 01 00 	lui $1,4097
  4090a8:	37 00 00 00 c0 7e 1c 01 	s.d $f28,32448($1)
  4090b0:	2b 00 00 00 88 07 1c 1d 	l.d $f28,1928($29)
  4090b8:	a2 00 00 00 01 10 01 00 	lui $1,4097
  4090c0:	37 00 00 00 a0 7e 1a 01 	s.d $f26,32416($1)
  4090c8:	2b 00 00 00 f8 07 1a 1d 	l.d $f26,2040($29)
  4090d0:	71 00 00 00 00 00 00 1c 	add.d $f0,$f28,$f0
  4090d8:	a2 00 00 00 01 10 01 00 	lui $1,4097
  4090e0:	37 00 00 00 e0 7e 1a 01 	s.d $f26,32480($1)
  4090e8:	2b 00 00 00 18 08 1a 1d 	l.d $f26,2072($29)
  4090f0:	2b 00 00 00 20 08 1c 1d 	l.d $f28,2080($29)
  4090f8:	a2 00 00 00 01 10 01 00 	lui $1,4097
  409100:	37 00 00 00 98 7e 1a 01 	s.d $f26,32408($1)
  409108:	37 00 00 00 18 0b 00 1d 	s.d $f0,2840($29)
  409110:	a2 00 00 00 01 10 01 00 	lui $1,4097
  409118:	37 00 00 00 b8 7e 1c 01 	s.d $f28,32440($1)
  409120:	2b 00 00 00 68 08 1a 1d 	l.d $f26,2152($29)
  409128:	2b 00 00 00 18 0b 1c 1d 	l.d $f28,2840($29)
  409130:	a2 00 00 00 01 10 01 00 	lui $1,4097
  409138:	37 00 00 00 d8 7e 1a 01 	s.d $f26,32472($1)
  409140:	a2 00 00 00 01 10 01 00 	lui $1,4097
  409148:	2b 00 00 00 c0 71 1a 01 	l.d $f26,29120($1)
  409150:	a2 00 00 00 01 10 01 00 	lui $1,4097
  409158:	37 00 00 00 90 7e 1c 01 	s.d $f28,32400($1)
  409160:	a2 00 00 00 01 10 01 00 	lui $1,4097
  409168:	2b 00 00 00 70 76 1c 01 	l.d $f28,30320($1)
  409170:	75 00 00 00 00 02 1c 1a 	mul.d $f2,$f26,$f28
  409178:	a2 00 00 00 01 10 01 00 	lui $1,4097
  409180:	2b 00 00 00 c8 71 1a 01 	l.d $f26,29128($1)
  409188:	a2 00 00 00 01 10 01 00 	lui $1,4097
  409190:	2b 00 00 00 90 76 1c 01 	l.d $f28,30352($1)
  409198:	75 00 00 00 00 04 1c 1a 	mul.d $f4,$f26,$f28
  4091a0:	a2 00 00 00 01 10 01 00 	lui $1,4097
  4091a8:	2b 00 00 00 d0 71 1a 01 	l.d $f26,29136($1)
  4091b0:	75 00 00 00 00 0a 18 1a 	mul.d $f10,$f26,$f24
  4091b8:	a2 00 00 00 01 10 01 00 	lui $1,4097
  4091c0:	2b 00 00 00 d8 71 1c 01 	l.d $f28,29144($1)
  4091c8:	a2 00 00 00 01 10 01 00 	lui $1,4097
  4091d0:	2b 00 00 00 f0 76 1a 01 	l.d $f26,30448($1)
  4091d8:	75 00 00 00 00 0c 1a 1c 	mul.d $f12,$f28,$f26
  4091e0:	a2 00 00 00 01 10 01 00 	lui $1,4097
  4091e8:	2b 00 00 00 e0 71 1c 01 	l.d $f28,29152($1)
  4091f0:	a2 00 00 00 01 10 01 00 	lui $1,4097
  4091f8:	2b 00 00 00 10 77 1a 01 	l.d $f26,30480($1)
  409200:	75 00 00 00 00 10 1a 1c 	mul.d $f16,$f28,$f26
  409208:	a2 00 00 00 01 10 01 00 	lui $1,4097
  409210:	2b 00 00 00 e8 71 1c 01 	l.d $f28,29160($1)
  409218:	75 00 00 00 00 12 16 1c 	mul.d $f18,$f28,$f22
  409220:	a2 00 00 00 01 10 01 00 	lui $1,4097
  409228:	2b 00 00 00 f0 71 1a 01 	l.d $f26,29168($1)
  409230:	a2 00 00 00 01 10 01 00 	lui $1,4097
  409238:	2b 00 00 00 70 77 1c 01 	l.d $f28,30576($1)
  409240:	75 00 00 00 00 1a 1c 1a 	mul.d $f26,$f26,$f28
  409248:	37 00 00 00 a8 16 1a 1d 	s.d $f26,5800($29)
  409250:	a2 00 00 00 01 10 01 00 	lui $1,4097
  409258:	2b 00 00 00 f8 71 1a 01 	l.d $f26,29176($1)
  409260:	a2 00 00 00 01 10 01 00 	lui $1,4097
  409268:	2b 00 00 00 90 77 1c 01 	l.d $f28,30608($1)
  409270:	75 00 00 00 00 1a 1c 1a 	mul.d $f26,$f26,$f28
  409278:	a2 00 00 00 01 10 01 00 	lui $1,4097
  409280:	2b 00 00 00 b8 71 14 01 	l.d $f20,29112($1)
  409288:	37 00 00 00 a0 16 1a 1d 	s.d $f26,5792($29)
  409290:	a2 00 00 00 01 10 01 00 	lui $1,4097
  409298:	2b 00 00 00 58 76 1a 01 	l.d $f26,30296($1)
  4092a0:	75 00 00 00 00 06 1a 14 	mul.d $f6,$f20,$f26
  4092a8:	75 00 00 00 00 08 0e 14 	mul.d $f8,$f20,$f14
  4092b0:	a2 00 00 00 01 10 01 00 	lui $1,4097
  4092b8:	2b 00 00 00 c0 71 1c 01 	l.d $f28,29120($1)
  4092c0:	a2 00 00 00 01 10 01 00 	lui $1,4097
  4092c8:	2b 00 00 00 78 76 1a 01 	l.d $f26,30328($1)
  4092d0:	75 00 00 00 00 00 1a 1c 	mul.d $f0,$f28,$f26
  4092d8:	71 00 00 00 00 08 02 08 	add.d $f8,$f8,$f2
  4092e0:	a2 00 00 00 01 10 01 00 	lui $1,4097
  4092e8:	2b 00 00 00 c8 71 1c 01 	l.d $f28,29128($1)
  4092f0:	a2 00 00 00 01 10 01 00 	lui $1,4097
  4092f8:	2b 00 00 00 98 76 1a 01 	l.d $f26,30360($1)
  409300:	75 00 00 00 00 02 1a 1c 	mul.d $f2,$f28,$f26
  409308:	71 00 00 00 00 06 00 06 	add.d $f6,$f6,$f0
  409310:	a2 00 00 00 01 10 01 00 	lui $1,4097
  409318:	2b 00 00 00 d0 71 1c 01 	l.d $f28,29136($1)
  409320:	a2 00 00 00 01 10 01 00 	lui $1,4097
  409328:	2b 00 00 00 d8 76 1a 01 	l.d $f26,30424($1)
  409330:	75 00 00 00 00 00 1a 1c 	mul.d $f0,$f28,$f26
  409338:	71 00 00 00 00 06 02 06 	add.d $f6,$f6,$f2
  409340:	a2 00 00 00 01 10 01 00 	lui $1,4097
  409348:	2b 00 00 00 d8 71 1c 01 	l.d $f28,29144($1)
  409350:	a2 00 00 00 01 10 01 00 	lui $1,4097
  409358:	2b 00 00 00 f8 76 1a 01 	l.d $f26,30456($1)
  409360:	75 00 00 00 00 02 1a 1c 	mul.d $f2,$f28,$f26
  409368:	71 00 00 00 00 06 00 06 	add.d $f6,$f6,$f0
  409370:	a2 00 00 00 01 10 01 00 	lui $1,4097
  409378:	2b 00 00 00 e0 71 1c 01 	l.d $f28,29152($1)
  409380:	a2 00 00 00 01 10 01 00 	lui $1,4097
  409388:	2b 00 00 00 18 77 1a 01 	l.d $f26,30488($1)
  409390:	75 00 00 00 00 00 1a 1c 	mul.d $f0,$f28,$f26
  409398:	71 00 00 00 00 06 02 06 	add.d $f6,$f6,$f2
  4093a0:	a2 00 00 00 01 10 01 00 	lui $1,4097
  4093a8:	2b 00 00 00 e8 71 1c 01 	l.d $f28,29160($1)
  4093b0:	a2 00 00 00 01 10 01 00 	lui $1,4097
  4093b8:	2b 00 00 00 58 77 1a 01 	l.d $f26,30552($1)
  4093c0:	75 00 00 00 00 02 1a 1c 	mul.d $f2,$f28,$f26
  4093c8:	71 00 00 00 00 08 04 08 	add.d $f8,$f8,$f4
  4093d0:	71 00 00 00 00 08 0a 08 	add.d $f8,$f8,$f10
  4093d8:	a2 00 00 00 01 10 01 00 	lui $1,4097
  4093e0:	2b 00 00 00 f0 71 1c 01 	l.d $f28,29168($1)
  4093e8:	a2 00 00 00 01 10 01 00 	lui $1,4097
  4093f0:	2b 00 00 00 78 77 1a 01 	l.d $f26,30584($1)
  4093f8:	71 00 00 00 00 08 0c 08 	add.d $f8,$f8,$f12
  409400:	75 00 00 00 00 04 1a 1c 	mul.d $f4,$f28,$f26
  409408:	71 00 00 00 00 08 10 08 	add.d $f8,$f8,$f16
  409410:	71 00 00 00 00 08 12 08 	add.d $f8,$f8,$f18
  409418:	2b 00 00 00 a8 16 1c 1d 	l.d $f28,5800($29)
  409420:	71 00 00 00 00 08 1c 08 	add.d $f8,$f8,$f28
  409428:	71 00 00 00 00 06 00 06 	add.d $f6,$f6,$f0
  409430:	a2 00 00 00 01 10 01 00 	lui $1,4097
  409438:	2b 00 00 00 f8 71 1a 01 	l.d $f26,29176($1)
  409440:	a2 00 00 00 01 10 01 00 	lui $1,4097
  409448:	2b 00 00 00 98 77 1c 01 	l.d $f28,30616($1)
  409450:	75 00 00 00 00 00 1c 1a 	mul.d $f0,$f26,$f28
  409458:	a2 00 00 00 01 10 01 00 	lui $1,4097
  409460:	2b 00 00 00 60 76 1c 01 	l.d $f28,30304($1)
  409468:	2b 00 00 00 a0 16 1a 1d 	l.d $f26,5792($29)
  409470:	75 00 00 00 00 14 1c 14 	mul.d $f20,$f20,$f28
  409478:	71 00 00 00 00 08 1a 08 	add.d $f8,$f8,$f26
  409480:	a2 00 00 00 01 10 01 00 	lui $1,4097
  409488:	2b 00 00 00 c0 71 1a 01 	l.d $f26,29120($1)
  409490:	a2 00 00 00 01 10 01 00 	lui $1,4097
  409498:	2b 00 00 00 80 76 1c 01 	l.d $f28,30336($1)
  4094a0:	75 00 00 00 00 1a 1c 1a 	mul.d $f26,$f26,$f28
  4094a8:	37 00 00 00 30 0b 1a 1d 	s.d $f26,2864($29)
  4094b0:	a2 00 00 00 01 10 01 00 	lui $1,4097
  4094b8:	2b 00 00 00 c8 71 1a 01 	l.d $f26,29128($1)
  4094c0:	a2 00 00 00 01 10 01 00 	lui $1,4097
  4094c8:	2b 00 00 00 a0 76 1c 01 	l.d $f28,30368($1)
  4094d0:	75 00 00 00 00 1a 1c 1a 	mul.d $f26,$f26,$f28
  4094d8:	37 00 00 00 38 0b 1a 1d 	s.d $f26,2872($29)
  4094e0:	a2 00 00 00 01 10 01 00 	lui $1,4097
  4094e8:	2b 00 00 00 d0 71 1a 01 	l.d $f26,29136($1)
  4094f0:	a2 00 00 00 01 10 01 00 	lui $1,4097
  4094f8:	2b 00 00 00 e0 76 1c 01 	l.d $f28,30432($1)
  409500:	75 00 00 00 00 1a 1c 1a 	mul.d $f26,$f26,$f28
  409508:	37 00 00 00 40 0b 1a 1d 	s.d $f26,2880($29)
  409510:	a2 00 00 00 01 10 01 00 	lui $1,4097
  409518:	2b 00 00 00 d8 71 1a 01 	l.d $f26,29144($1)
  409520:	a2 00 00 00 01 10 01 00 	lui $1,4097
  409528:	2b 00 00 00 00 77 1c 01 	l.d $f28,30464($1)
  409530:	75 00 00 00 00 1a 1c 1a 	mul.d $f26,$f26,$f28
  409538:	37 00 00 00 48 0b 1a 1d 	s.d $f26,2888($29)
  409540:	a2 00 00 00 01 10 01 00 	lui $1,4097
  409548:	2b 00 00 00 e0 71 1a 01 	l.d $f26,29152($1)
  409550:	a2 00 00 00 01 10 01 00 	lui $1,4097
  409558:	2b 00 00 00 20 77 1c 01 	l.d $f28,30496($1)
  409560:	75 00 00 00 00 1a 1c 1a 	mul.d $f26,$f26,$f28
  409568:	37 00 00 00 50 0b 1a 1d 	s.d $f26,2896($29)
  409570:	a2 00 00 00 01 10 01 00 	lui $1,4097
  409578:	2b 00 00 00 e8 71 1a 01 	l.d $f26,29160($1)
  409580:	a2 00 00 00 01 10 01 00 	lui $1,4097
  409588:	2b 00 00 00 60 77 1c 01 	l.d $f28,30560($1)
  409590:	75 00 00 00 00 1a 1c 1a 	mul.d $f26,$f26,$f28
  409598:	37 00 00 00 58 0b 1a 1d 	s.d $f26,2904($29)
  4095a0:	a2 00 00 00 01 10 01 00 	lui $1,4097
  4095a8:	2b 00 00 00 f0 71 1a 01 	l.d $f26,29168($1)
  4095b0:	a2 00 00 00 01 10 01 00 	lui $1,4097
  4095b8:	2b 00 00 00 80 77 1c 01 	l.d $f28,30592($1)
  4095c0:	75 00 00 00 00 1a 1c 1a 	mul.d $f26,$f26,$f28
  4095c8:	37 00 00 00 60 0b 1a 1d 	s.d $f26,2912($29)
  4095d0:	a2 00 00 00 01 10 01 00 	lui $1,4097
  4095d8:	2b 00 00 00 f8 71 1a 01 	l.d $f26,29176($1)
  4095e0:	a2 00 00 00 01 10 01 00 	lui $1,4097
  4095e8:	2b 00 00 00 a0 77 1c 01 	l.d $f28,30624($1)
  4095f0:	75 00 00 00 00 1a 1c 1a 	mul.d $f26,$f26,$f28
  4095f8:	71 00 00 00 00 06 02 06 	add.d $f6,$f6,$f2
  409600:	37 00 00 00 68 0b 1a 1d 	s.d $f26,2920($29)
  409608:	2b 00 00 00 58 00 1a 1d 	l.d $f26,88($29)
  409610:	75 00 00 00 00 02 0e 1a 	mul.d $f2,$f26,$f14
  409618:	2b 00 00 00 60 00 1c 1d 	l.d $f28,96($29)
  409620:	a2 00 00 00 01 10 01 00 	lui $1,4097
  409628:	2b 00 00 00 58 76 1a 01 	l.d $f26,30296($1)
  409630:	75 00 00 00 00 0a 1a 1c 	mul.d $f10,$f28,$f26
  409638:	2b 00 00 00 68 00 1c 1d 	l.d $f28,104($29)
  409640:	a2 00 00 00 01 10 01 00 	lui $1,4097
  409648:	2b 00 00 00 60 76 1a 01 	l.d $f26,30304($1)
  409650:	75 00 00 00 00 0c 1a 1c 	mul.d $f12,$f28,$f26
  409658:	2b 00 00 00 70 00 1c 1d 	l.d $f28,112($29)
  409660:	75 00 00 00 00 10 18 1c 	mul.d $f16,$f28,$f24
  409668:	2b 00 00 00 78 00 1a 1d 	l.d $f26,120($29)
  409670:	a2 00 00 00 01 10 01 00 	lui $1,4097
  409678:	2b 00 00 00 d8 76 1c 01 	l.d $f28,30424($1)
  409680:	75 00 00 00 00 12 1c 1a 	mul.d $f18,$f26,$f28
  409688:	2b 00 00 00 80 00 1a 1d 	l.d $f26,128($29)
  409690:	a2 00 00 00 01 10 01 00 	lui $1,4097
  409698:	2b 00 00 00 e0 76 1c 01 	l.d $f28,30432($1)
  4096a0:	75 00 00 00 00 1a 1c 1a 	mul.d $f26,$f26,$f28
  4096a8:	37 00 00 00 a8 16 1a 1d 	s.d $f26,5800($29)
