
/export/capc5/SPEC_TRACE/SimpleScalar/bin/wave5.ss:     file format ss-coff-little

Disassembly of section .text:

00400140 <__start>:
  400140:	28 00 00 00 00 00 10 1d 	lw $16,0($29)
  400148:	a2 00 00 00 03 10 1c 00 	lui $28,4099
  400150:	43 00 00 00 20 76 1c 1c 	addiu $28,$28,30240
  400158:	43 00 00 00 04 00 11 1d 	addiu $17,$29,4
  400160:	43 00 00 00 04 00 03 11 	addiu $3,$17,4
  400168:	55 00 00 00 02 02 10 00 	sll $2,$16,0x2
  400170:	42 00 00 00 00 03 02 03 	addu $3,$3,$2
  400178:	42 00 00 00 00 12 03 00 	addu $18,$0,$3
  400180:	34 00 00 00 f4 8f 12 1c 	sw $18,-28684($28)
  400188:	43 00 00 00 e8 ff 1d 1d 	addiu $29,$29,-24
  400190:	42 00 00 00 00 04 10 00 	addu $4,$0,$16
  400198:	42 00 00 00 00 05 11 00 	addu $5,$0,$17
  4001a0:	42 00 00 00 00 06 12 00 	addu $6,$0,$18
  4001a8:	02 00 00 00 70 30 11 00 	jal 44c1c0 <__libc_init>
  4001b0:	34 00 00 00 f0 8f 00 1c 	sw $0,-28688($28)
  4001b8:	42 00 00 00 00 04 10 00 	addu $4,$0,$16
  4001c0:	42 00 00 00 00 05 11 00 	addu $5,$0,$17
  4001c8:	42 00 00 00 00 06 12 00 	addu $6,$0,$18
  4001d0:	02 00 00 00 7c 30 11 00 	jal 44c1f0 <main>
  4001d8:	42 00 00 00 00 04 02 00 	addu $4,$0,$2
  4001e0:	02 00 00 00 54 31 11 00 	jal 44c550 <exit>
	...

004001f0 <MAIN__>:
  4001f0:	43 00 00 00 78 ff 1d 1d 	addiu $29,$29,-136
  4001f8:	a2 00 00 00 01 00 02 00 	lui $2,1
  400200:	37 00 00 00 80 00 16 1d 	s.d $f22,128($29)
  400208:	2b 00 00 00 40 80 16 1c 	l.d $f22,-32704($28)
  400210:	51 00 00 00 25 34 02 02 	ori $2,$2,13349
  400218:	43 00 00 00 10 00 04 1d 	addiu $4,$29,16
  400220:	34 00 00 00 68 00 10 1d 	sw $16,104($29)
  400228:	a2 00 00 00 00 10 10 00 	lui $16,4096
  400230:	43 00 00 00 04 27 10 10 	addiu $16,$16,9988
  400238:	34 00 00 00 70 00 1f 1d 	sw $31,112($29)
  400240:	34 00 00 00 6c 00 11 1d 	sw $17,108($29)
  400248:	37 00 00 00 78 00 14 1d 	s.d $f20,120($29)
  400250:	34 00 00 00 00 00 02 10 	sw $2,0($16)
  400258:	43 00 00 00 00 02 02 00 	addiu $2,$0,512
  400260:	a2 00 00 00 00 10 01 00 	lui $1,4096
  400268:	34 00 00 00 08 27 02 01 	sw $2,9992($1)
  400270:	43 00 00 00 09 00 02 00 	addiu $2,$0,9
  400278:	34 00 00 00 14 00 02 1d 	sw $2,20($29)
  400280:	43 00 00 00 08 00 02 00 	addiu $2,$0,8
  400288:	34 00 00 00 1c 00 02 1d 	sw $2,28($29)
  400290:	a2 00 00 00 00 10 02 00 	lui $2,4096
  400298:	43 00 00 00 00 00 02 02 	addiu $2,$2,0
  4002a0:	34 00 00 00 18 00 02 1d 	sw $2,24($29)
  4002a8:	43 00 00 00 20 80 02 1c 	addiu $2,$28,-32736
  4002b0:	34 00 00 00 10 00 00 1d 	sw $0,16($29)
  4002b8:	34 00 00 00 2c 00 00 1d 	sw $0,44($29)
  4002c0:	34 00 00 00 20 00 02 1d 	sw $2,32($29)
  4002c8:	34 00 00 00 24 00 00 1d 	sw $0,36($29)
  4002d0:	34 00 00 00 28 00 00 1d 	sw $0,40($29)
  4002d8:	34 00 00 00 30 00 00 1d 	sw $0,48($29)
  4002e0:	02 00 00 00 e4 31 11 00 	jal 44c790 <f_open>
  4002e8:	02 00 00 00 04 03 10 00 	jal 400c10 <genprb_>
  4002f0:	43 00 00 00 38 00 04 1d 	addiu $4,$29,56
  4002f8:	02 00 00 00 0e c8 10 00 	jal 432038 <jobtim_>
  400300:	a2 00 00 00 03 10 11 00 	lui $17,4099
  400308:	43 00 00 00 28 de 11 11 	addiu $17,$17,-8664
  400310:	28 00 00 00 00 00 03 11 	lw $3,0($17)
  400318:	a2 00 00 00 03 10 02 00 	lui $2,4099
  400320:	28 00 00 00 2c de 02 02 	lw $2,-8660($2)
  400328:	43 00 00 00 02 00 03 03 	addiu $3,$3,2
  400330:	43 00 00 00 02 00 02 02 	addiu $2,$2,2
  400338:	46 00 00 00 00 00 02 03 	mult $3,$2
  400340:	4c 00 00 00 00 03 00 00 	mflo $3
  400348:	28 00 00 00 00 00 02 10 	lw $2,0($16)
  400350:	5b 00 00 00 00 02 03 02 	slt $2,$2,$3
  400358:	05 00 00 00 06 00 00 02 	beq $2,$0,400378 <MAIN__+0x188>
  400360:	43 00 00 00 28 80 04 1c 	addiu $4,$28,-32728
  400368:	43 00 00 00 05 00 05 00 	addiu $5,$0,5
  400370:	02 00 00 00 7c 34 11 00 	jal 44d1f0 <s_stop>
  400378:	a2 00 00 00 00 10 01 00 	lui $1,4096
  400380:	2b 00 00 00 d0 2c 06 01 	l.d $f6,11472($1)
  400388:	a5 00 00 00 00 00 00 00 	mtc1 $0,$f0
  400390:	a5 00 00 00 00 00 00 01 	mtc1 $0,$f1
  400398:	91 00 00 00 00 00 00 06 	c.eq.d $f6,$f0
  4003a0:	0c 00 00 00 3a 00 00 00 	bc1t 400490 <MAIN__+0x2a0>
  4003a8:	2b 00 00 00 58 00 00 11 	l.d $f0,88($17)
  4003b0:	75 00 00 00 00 00 00 06 	mul.d $f0,$f6,$f0
  4003b8:	2b 00 00 00 48 80 02 1c 	l.d $f2,-32696($28)
  4003c0:	75 00 00 00 00 00 02 00 	mul.d $f0,$f0,$f2
  4003c8:	a2 00 00 00 00 10 01 00 	lui $1,4096
  4003d0:	2b 00 00 00 b8 2c 04 01 	l.d $f4,11448($1)
  4003d8:	77 00 00 00 00 00 04 00 	div.d $f0,$f0,$f4
  4003e0:	71 00 00 00 00 00 02 00 	add.d $f0,$f0,$f2
  4003e8:	43 00 00 00 01 00 03 00 	addiu $3,$0,1
  4003f0:	43 00 00 00 58 00 10 11 	addiu $16,$17,88
  4003f8:	85 00 00 00 00 02 00 00 	cvt.w.d $f2,$f0
  400400:	a3 00 00 00 00 00 04 02 	mfc1 $4,$f2
  400408:	5b 00 00 00 00 02 04 03 	slt $2,$3,$4
  400410:	05 00 00 00 02 00 00 02 	beq $2,$0,400420 <MAIN__+0x230>
  400418:	42 00 00 00 00 03 04 00 	addu $3,$0,$4
  400420:	71 00 00 00 00 00 04 04 	add.d $f0,$f4,$f4
  400428:	a5 00 00 00 00 00 03 02 	mtc1 $3,$f2
  400430:	83 00 00 00 00 02 00 02 	cvt.d.w $f2,$f2
  400438:	75 00 00 00 00 00 02 00 	mul.d $f0,$f0,$f2
  400440:	77 00 00 00 00 00 06 00 	div.d $f0,$f0,$f6
  400448:	a2 00 00 00 00 10 04 00 	lui $4,4096
  400450:	43 00 00 00 c8 25 04 04 	addiu $4,$4,9672
  400458:	37 00 00 00 58 00 00 11 	s.d $f0,88($17)
  400460:	02 00 00 00 68 35 11 00 	jal 44d5a0 <s_wsfe>
  400468:	43 00 00 00 00 80 04 1c 	addiu $4,$28,-32768
  400470:	42 00 00 00 00 05 10 00 	addu $5,$0,$16
  400478:	43 00 00 00 08 00 06 00 	addiu $6,$0,8
  400480:	02 00 00 00 04 42 11 00 	jal 450810 <do_fio>
  400488:	02 00 00 00 7a 44 11 00 	jal 4511e8 <e_wsfe>
  400490:	a2 00 00 00 00 10 04 00 	lui $4,4096
  400498:	43 00 00 00 dc 25 04 04 	addiu $4,$4,9692
  4004a0:	02 00 00 00 68 35 11 00 	jal 44d5a0 <s_wsfe>
  4004a8:	43 00 00 00 00 80 04 1c 	addiu $4,$28,-32768
  4004b0:	a2 00 00 00 00 10 05 00 	lui $5,4096
  4004b8:	43 00 00 00 00 24 05 05 	addiu $5,$5,9216
  4004c0:	43 00 00 00 48 00 06 00 	addiu $6,$0,72
  4004c8:	02 00 00 00 04 42 11 00 	jal 450810 <do_fio>
  4004d0:	43 00 00 00 00 80 04 1c 	addiu $4,$28,-32768
  4004d8:	a2 00 00 00 03 10 10 00 	lui $16,4099
  4004e0:	43 00 00 00 28 de 10 10 	addiu $16,$16,-8664
  4004e8:	42 00 00 00 00 05 10 00 	addu $5,$0,$16
  4004f0:	43 00 00 00 04 00 06 00 	addiu $6,$0,4
  4004f8:	02 00 00 00 04 42 11 00 	jal 450810 <do_fio>
  400500:	43 00 00 00 00 80 04 1c 	addiu $4,$28,-32768
  400508:	43 00 00 00 04 00 05 10 	addiu $5,$16,4
  400510:	43 00 00 00 04 00 06 00 	addiu $6,$0,4
  400518:	02 00 00 00 04 42 11 00 	jal 450810 <do_fio>
  400520:	43 00 00 00 00 80 04 1c 	addiu $4,$28,-32768
  400528:	43 00 00 00 50 00 05 10 	addiu $5,$16,80
  400530:	43 00 00 00 08 00 06 00 	addiu $6,$0,8
  400538:	02 00 00 00 04 42 11 00 	jal 450810 <do_fio>
  400540:	43 00 00 00 00 80 04 1c 	addiu $4,$28,-32768
  400548:	43 00 00 00 58 00 05 10 	addiu $5,$16,88
  400550:	43 00 00 00 08 00 06 00 	addiu $6,$0,8
  400558:	02 00 00 00 04 42 11 00 	jal 450810 <do_fio>
  400560:	43 00 00 00 00 80 04 1c 	addiu $4,$28,-32768
  400568:	43 00 00 00 60 00 05 10 	addiu $5,$16,96
  400570:	43 00 00 00 08 00 06 00 	addiu $6,$0,8
  400578:	02 00 00 00 04 42 11 00 	jal 450810 <do_fio>
  400580:	02 00 00 00 7a 44 11 00 	jal 4511e8 <e_wsfe>
  400588:	2b 00 00 00 50 00 00 10 	l.d $f0,80($16)
  400590:	2a 00 00 00 00 00 02 10 	l.s $f2,0($16)
  400598:	83 00 00 00 00 02 00 02 	cvt.d.w $f2,$f2
  4005a0:	77 00 00 00 00 02 00 02 	div.d $f2,$f2,$f0
  4005a8:	2b 00 00 00 58 00 00 10 	l.d $f0,88($16)
  4005b0:	2a 00 00 00 04 00 04 10 	l.s $f4,4($16)
  4005b8:	83 00 00 00 00 04 00 04 	cvt.d.w $f4,$f4
  4005c0:	77 00 00 00 00 04 00 04 	div.d $f4,$f4,$f0
  4005c8:	75 00 00 00 00 02 02 02 	mul.d $f2,$f2,$f2
  4005d0:	75 00 00 00 00 04 04 04 	mul.d $f4,$f4,$f4
  4005d8:	2b 00 00 00 60 00 00 10 	l.d $f0,96($16)
  4005e0:	75 00 00 00 00 00 00 00 	mul.d $f0,$f0,$f0
  4005e8:	71 00 00 00 00 02 04 02 	add.d $f2,$f2,$f4
  4005f0:	75 00 00 00 00 00 02 00 	mul.d $f0,$f0,$f2
  4005f8:	2b 00 00 00 50 80 14 1c 	l.d $f20,-32688($28)
  400600:	93 00 00 00 00 00 00 14 	c.lt.d $f20,$f0
  400608:	37 00 00 00 40 00 00 1d 	s.d $f0,64($29)
  400610:	0b 00 00 00 10 00 00 00 	bc1f 400658 <MAIN__+0x468>
  400618:	a2 00 00 00 00 10 04 00 	lui $4,4096
  400620:	43 00 00 00 f0 25 04 04 	addiu $4,$4,9712
  400628:	02 00 00 00 68 35 11 00 	jal 44d5a0 <s_wsfe>
  400630:	43 00 00 00 00 80 04 1c 	addiu $4,$28,-32768
  400638:	43 00 00 00 40 00 05 1d 	addiu $5,$29,64
  400640:	43 00 00 00 08 00 06 00 	addiu $6,$0,8
  400648:	02 00 00 00 04 42 11 00 	jal 450810 <do_fio>
  400650:	02 00 00 00 7a 44 11 00 	jal 4511e8 <e_wsfe>
  400658:	2b 00 00 00 40 00 00 1d 	l.d $f0,64($29)
  400660:	93 00 00 00 00 00 00 14 	c.lt.d $f20,$f0
  400668:	0b 00 00 00 0c 00 00 00 	bc1f 4006a0 <MAIN__+0x4b0>
  400670:	a2 00 00 00 00 10 02 00 	lui $2,4096
  400678:	28 00 00 00 10 27 02 02 	lw $2,10000($2)
  400680:	06 00 00 00 06 00 00 02 	bne $2,$0,4006a0 <MAIN__+0x4b0>
  400688:	43 00 00 00 30 80 04 1c 	addiu $4,$28,-32720
  400690:	43 00 00 00 07 00 05 00 	addiu $5,$0,7
  400698:	02 00 00 00 34 d2 10 00 	jal 4348d0 <endrun_>
  4006a0:	a2 00 00 00 00 10 01 00 	lui $1,4096
  4006a8:	38 00 00 00 c0 2c 00 01 	dsz 11456($1)
  4006b0:	43 00 00 00 48 00 04 1d 	addiu $4,$29,72
  4006b8:	02 00 00 00 0e c8 10 00 	jal 432038 <jobtim_>
  4006c0:	02 00 00 00 f6 03 10 00 	jal 400fd8 <init_>
  4006c8:	43 00 00 00 50 00 04 1d 	addiu $4,$29,80
  4006d0:	02 00 00 00 0e c8 10 00 	jal 432038 <jobtim_>
  4006d8:	a2 00 00 00 00 10 04 00 	lui $4,4096
  4006e0:	43 00 00 00 04 26 04 04 	addiu $4,$4,9732
  4006e8:	02 00 00 00 68 35 11 00 	jal 44d5a0 <s_wsfe>
  4006f0:	02 00 00 00 7a 44 11 00 	jal 4511e8 <e_wsfe>
  4006f8:	a2 00 00 00 00 10 04 00 	lui $4,4096
  400700:	43 00 00 00 18 26 04 04 	addiu $4,$4,9752
  400708:	02 00 00 00 68 35 11 00 	jal 44d5a0 <s_wsfe>
  400710:	43 00 00 00 00 80 04 1c 	addiu $4,$28,-32768
  400718:	43 00 00 00 00 90 05 1c 	addiu $5,$28,-28672
  400720:	43 00 00 00 04 00 06 00 	addiu $6,$0,4
  400728:	02 00 00 00 04 42 11 00 	jal 450810 <do_fio>
  400730:	02 00 00 00 7a 44 11 00 	jal 4511e8 <e_wsfe>
  400738:	28 00 00 00 00 90 02 1c 	lw $2,-28672($28)
  400740:	06 00 00 00 64 00 00 02 	bne $2,$0,4008d8 <MAIN__+0x6e8>
  400748:	a2 00 00 00 03 10 03 00 	lui $3,4099
  400750:	43 00 00 00 20 de 03 03 	addiu $3,$3,-8672
  400758:	28 00 00 00 00 00 02 03 	lw $2,0($3)
  400760:	45 00 00 00 00 02 02 00 	subu $2,$0,$2
  400768:	34 00 00 00 00 00 02 03 	sw $2,0($3)
  400770:	28 00 00 00 10 80 03 1c 	lw $3,-32752($28)
  400778:	a2 00 00 00 03 10 05 00 	lui $5,4099
  400780:	43 00 00 00 30 de 05 05 	addiu $5,$5,-8656
  400788:	43 00 00 00 01 00 02 00 	addiu $2,$0,1
  400790:	34 00 00 00 00 00 02 05 	sw $2,0($5)
  400798:	05 00 00 00 3a 00 00 03 	beq $3,$0,400888 <MAIN__+0x698>
  4007a0:	42 00 00 00 00 02 03 00 	addu $2,$0,$3
  4007a8:	0a 00 00 00 02 00 00 03 	bgez $3,4007b8 <MAIN__+0x5c8>
  4007b0:	45 00 00 00 00 02 02 00 	subu $2,$0,$2
  4007b8:	a2 00 00 00 00 10 01 00 	lui $1,4096
  4007c0:	34 00 00 00 28 27 02 01 	sw $2,10024($1)
  4007c8:	a2 00 00 00 00 10 02 00 	lui $2,4096
  4007d0:	28 00 00 00 28 27 02 02 	lw $2,10024($2)
  4007d8:	55 00 00 00 03 02 02 00 	sll $2,$2,0x3
  4007e0:	a2 00 00 00 02 10 01 00 	lui $1,4098
  4007e8:	42 00 00 00 00 01 01 02 	addu $1,$2,$1
  4007f0:	2b 00 00 00 48 bb 00 01 	l.d $f0,-17592($1)
  4007f8:	a2 00 00 00 03 10 01 00 	lui $1,4099
  400800:	37 00 00 00 a0 de 00 01 	s.d $f0,-8544($1)
  400808:	a2 00 00 00 02 10 01 00 	lui $1,4098
  400810:	42 00 00 00 00 01 01 02 	addu $1,$2,$1
  400818:	2b 00 00 00 10 bc 00 01 	l.d $f0,-17392($1)
  400820:	a2 00 00 00 03 10 01 00 	lui $1,4099
  400828:	37 00 00 00 a8 de 00 01 	s.d $f0,-8536($1)
  400830:	a2 00 00 00 00 10 01 00 	lui $1,4096
  400838:	42 00 00 00 00 01 01 02 	addu $1,$2,$1
  400840:	2b 00 00 00 10 2e 00 01 	l.d $f0,11792($1)
  400848:	a2 00 00 00 03 10 01 00 	lui $1,4099
  400850:	37 00 00 00 90 de 00 01 	s.d $f0,-8560($1)
  400858:	a2 00 00 00 00 10 01 00 	lui $1,4096
  400860:	42 00 00 00 00 01 01 02 	addu $1,$2,$1
  400868:	2b 00 00 00 48 2d 00 01 	l.d $f0,11592($1)
  400870:	a2 00 00 00 03 10 01 00 	lui $1,4099
  400878:	37 00 00 00 98 de 00 01 	s.d $f0,-8552($1)
  400880:	01 00 00 00 dc 01 10 00 	j 400770 <MAIN__+0x580>
  400888:	a2 00 00 00 03 10 02 00 	lui $2,4099
  400890:	43 00 00 00 20 de 02 02 	addiu $2,$2,-8672
  400898:	28 00 00 00 00 00 03 02 	lw $3,0($2)
  4008a0:	43 00 00 00 ff ff 04 00 	addiu $4,$0,-1
  4008a8:	0a 00 00 00 02 00 00 03 	bgez $3,4008b8 <MAIN__+0x6c8>
  4008b0:	45 00 00 00 00 03 03 00 	subu $3,$0,$3
  4008b8:	34 00 00 00 00 00 04 05 	sw $4,0($5)
  4008c0:	34 00 00 00 00 90 04 1c 	sw $4,-28672($28)
  4008c8:	34 00 00 00 00 00 03 02 	sw $3,0($2)
  4008d0:	01 00 00 00 ce 01 10 00 	j 400738 <MAIN__+0x548>
  4008d8:	a2 00 00 00 00 10 10 00 	lui $16,4096
  4008e0:	43 00 00 00 00 27 10 10 	addiu $16,$16,9984
  4008e8:	28 00 00 00 00 90 02 1c 	lw $2,-28672($28)
  4008f0:	28 00 00 00 00 00 03 10 	lw $3,0($16)
  4008f8:	5b 00 00 00 00 02 02 03 	slt $2,$3,$2
  400900:	06 00 00 00 1c 00 00 02 	bne $2,$0,400978 <MAIN__+0x788>
  400908:	43 00 00 00 58 00 04 1d 	addiu $4,$29,88
  400910:	02 00 00 00 0e c8 10 00 	jal 432038 <jobtim_>
  400918:	a2 00 00 00 00 10 04 00 	lui $4,4096
  400920:	43 00 00 00 2c 26 04 04 	addiu $4,$4,9772
  400928:	02 00 00 00 68 35 11 00 	jal 44d5a0 <s_wsfe>
  400930:	43 00 00 00 00 80 04 1c 	addiu $4,$28,-32768
  400938:	42 00 00 00 00 05 10 00 	addu $5,$0,$16
  400940:	43 00 00 00 04 00 06 00 	addiu $6,$0,4
  400948:	02 00 00 00 04 42 11 00 	jal 450810 <do_fio>
  400950:	02 00 00 00 7a 44 11 00 	jal 4511e8 <e_wsfe>
  400958:	43 00 00 00 38 80 04 1c 	addiu $4,$28,-32712
  400960:	42 00 00 00 00 05 00 00 	addu $5,$0,$0
  400968:	02 00 00 00 7c 34 11 00 	jal 44d1f0 <s_stop>
  400970:	01 00 00 00 e4 02 10 00 	j 400b90 <MAIN__+0x9a0>
  400978:	a2 00 00 00 00 10 11 00 	lui $17,4096
  400980:	43 00 00 00 c0 2c 11 11 	addiu $17,$17,11456
  400988:	2b 00 00 00 00 00 02 11 	l.d $f2,0($17)
  400990:	a2 00 00 00 03 10 01 00 	lui $1,4099
  400998:	2b 00 00 00 88 de 00 01 	l.d $f0,-8568($1)
  4009a0:	71 00 00 00 00 02 00 02 	add.d $f2,$f2,$f0
  4009a8:	43 00 00 00 01 00 02 03 	addiu $2,$3,1
  4009b0:	34 00 00 00 00 00 02 10 	sw $2,0($16)
  4009b8:	37 00 00 00 00 00 02 11 	s.d $f2,0($17)
  4009c0:	02 00 00 00 da 12 10 00 	jal 404b68 <trans_>
  4009c8:	02 00 00 00 50 3d 10 00 	jal 40f540 <field_>
  4009d0:	43 00 00 00 ff ff 02 00 	addiu $2,$0,-1
  4009d8:	a2 00 00 00 03 10 01 00 	lui $1,4099
  4009e0:	34 00 00 00 30 de 02 01 	sw $2,-8656($1)
  4009e8:	02 00 00 00 3a 6f 10 00 	jal 41bce8 <diagns_>
  4009f0:	28 00 00 00 00 00 05 10 	lw $5,0($16)
  4009f8:	a2 00 00 00 66 66 02 00 	lui $2,26214
  400a00:	51 00 00 00 67 66 02 02 	ori $2,$2,26215
  400a08:	46 00 00 00 00 00 02 05 	mult $5,$2
  400a10:	4a 00 00 00 00 03 00 00 	mfhi $3
  400a18:	4c 00 00 00 00 02 00 00 	mflo $2
  400a20:	57 00 00 00 00 02 03 00 	srl $2,$3,0x0
  400a28:	42 00 00 00 00 03 00 00 	addu $3,$0,$0
  400a30:	59 00 00 00 01 02 02 00 	sra $2,$2,0x1
  400a38:	59 00 00 00 1f 04 05 00 	sra $4,$5,0x1f
  400a40:	45 00 00 00 00 02 04 02 	subu $2,$2,$4
  400a48:	55 00 00 00 02 04 02 00 	sll $4,$2,0x2
  400a50:	42 00 00 00 00 04 02 04 	addu $4,$4,$2
  400a58:	06 00 00 00 10 00 04 05 	bne $5,$4,400aa0 <MAIN__+0x8b0>
  400a60:	a2 00 00 00 00 10 04 00 	lui $4,4096
  400a68:	43 00 00 00 40 26 04 04 	addiu $4,$4,9792
  400a70:	02 00 00 00 68 35 11 00 	jal 44d5a0 <s_wsfe>
  400a78:	43 00 00 00 00 80 04 1c 	addiu $4,$28,-32768
  400a80:	42 00 00 00 00 05 10 00 	addu $5,$0,$16
  400a88:	43 00 00 00 04 00 06 00 	addiu $6,$0,4
  400a90:	02 00 00 00 04 42 11 00 	jal 450810 <do_fio>
  400a98:	02 00 00 00 7a 44 11 00 	jal 4511e8 <e_wsfe>
  400aa0:	2b 00 00 00 18 80 00 1c 	l.d $f0,-32744($28)
  400aa8:	93 00 00 00 00 00 00 16 	c.lt.d $f22,$f0
  400ab0:	0b 00 00 00 88 ff 00 00 	bc1f 4008d8 <MAIN__+0x6e8>
  400ab8:	2b 00 00 00 08 80 00 1c 	l.d $f0,-32760($28)
  400ac0:	93 00 00 00 00 00 00 16 	c.lt.d $f22,$f0
  400ac8:	0b 00 00 00 82 ff 00 00 	bc1f 4008d8 <MAIN__+0x6e8>
  400ad0:	a2 00 00 00 00 10 04 00 	lui $4,4096
  400ad8:	43 00 00 00 54 26 04 04 	addiu $4,$4,9812
  400ae0:	02 00 00 00 68 35 11 00 	jal 44d5a0 <s_wsfe>
  400ae8:	43 00 00 00 00 80 04 1c 	addiu $4,$28,-32768
  400af0:	43 00 00 00 18 80 05 1c 	addiu $5,$28,-32744
  400af8:	43 00 00 00 08 00 06 00 	addiu $6,$0,8
  400b00:	02 00 00 00 04 42 11 00 	jal 450810 <do_fio>
  400b08:	02 00 00 00 7a 44 11 00 	jal 4511e8 <e_wsfe>
  400b10:	a2 00 00 00 00 10 04 00 	lui $4,4096
  400b18:	43 00 00 00 68 26 04 04 	addiu $4,$4,9832
  400b20:	02 00 00 00 68 35 11 00 	jal 44d5a0 <s_wsfe>
  400b28:	43 00 00 00 00 80 04 1c 	addiu $4,$28,-32768
  400b30:	42 00 00 00 00 05 10 00 	addu $5,$0,$16
  400b38:	43 00 00 00 04 00 06 00 	addiu $6,$0,4
  400b40:	02 00 00 00 04 42 11 00 	jal 450810 <do_fio>
  400b48:	43 00 00 00 00 80 04 1c 	addiu $4,$28,-32768
  400b50:	42 00 00 00 00 05 11 00 	addu $5,$0,$17
  400b58:	43 00 00 00 08 00 06 00 	addiu $6,$0,8
  400b60:	02 00 00 00 04 42 11 00 	jal 450810 <do_fio>
  400b68:	02 00 00 00 7a 44 11 00 	jal 4511e8 <e_wsfe>
  400b70:	43 00 00 00 38 80 04 1c 	addiu $4,$28,-32712
  400b78:	42 00 00 00 00 05 00 00 	addu $5,$0,$0
  400b80:	02 00 00 00 7c 34 11 00 	jal 44d1f0 <s_stop>
  400b88:	01 00 00 00 36 02 10 00 	j 4008d8 <MAIN__+0x6e8>
  400b90:	42 00 00 00 00 02 00 00 	addu $2,$0,$0
  400b98:	28 00 00 00 70 00 1f 1d 	lw $31,112($29)
  400ba0:	28 00 00 00 6c 00 11 1d 	lw $17,108($29)
  400ba8:	28 00 00 00 68 00 10 1d 	lw $16,104($29)
  400bb0:	2b 00 00 00 80 00 16 1d 	l.d $f22,128($29)
  400bb8:	2b 00 00 00 78 00 14 1d 	l.d $f20,120($29)
  400bc0:	43 00 00 00 88 00 1d 1d 	addiu $29,$29,136
  400bc8:	03 00 00 00 00 00 00 1f 	jr $31

00400bd0 <wave_>:
  400bd0:	43 00 00 00 e8 ff 1d 1d 	addiu $29,$29,-24
  400bd8:	34 00 00 00 10 00 1f 1d 	sw $31,16($29)
  400be0:	02 00 00 00 7c 00 10 00 	jal 4001f0 <MAIN__>
  400be8:	42 00 00 00 00 02 00 00 	addu $2,$0,$0
  400bf0:	28 00 00 00 10 00 1f 1d 	lw $31,16($29)
  400bf8:	43 00 00 00 18 00 1d 1d 	addiu $29,$29,24
  400c00:	03 00 00 00 00 00 00 1f 	jr $31
	...

00400c10 <genprb_>:
  400c10:	43 00 00 00 e8 ff 1d 1d 	addiu $29,$29,-24
  400c18:	a2 00 00 00 03 10 04 00 	lui $4,4099
  400c20:	43 00 00 00 78 df 04 04 	addiu $4,$4,-8328
  400c28:	34 00 00 00 14 00 1f 1d 	sw $31,20($29)
  400c30:	34 00 00 00 10 00 10 1d 	sw $16,16($29)
  400c38:	02 00 00 00 d6 4d 11 00 	jal 453758 <s_rsle>
  400c40:	02 00 00 00 dc 44 11 00 	jal 451370 <e_rsle>
  400c48:	a2 00 00 00 03 10 04 00 	lui $4,4099
  400c50:	43 00 00 00 8c df 04 04 	addiu $4,$4,-8308
  400c58:	02 00 00 00 d6 4d 11 00 	jal 453758 <s_rsle>
  400c60:	43 00 00 00 60 80 04 1c 	addiu $4,$28,-32672
  400c68:	43 00 00 00 64 80 05 1c 	addiu $5,$28,-32668
  400c70:	43 00 00 00 00 90 06 1c 	addiu $6,$28,-28672
  400c78:	43 00 00 00 04 00 07 00 	addiu $7,$0,4
  400c80:	02 00 00 00 a8 4e 11 00 	jal 453aa0 <do_lio>
  400c88:	02 00 00 00 dc 44 11 00 	jal 451370 <e_rsle>
  400c90:	a2 00 00 00 03 10 04 00 	lui $4,4099
  400c98:	43 00 00 00 a0 df 04 04 	addiu $4,$4,-8288
  400ca0:	02 00 00 00 d6 4d 11 00 	jal 453758 <s_rsle>
  400ca8:	02 00 00 00 dc 44 11 00 	jal 451370 <e_rsle>
  400cb0:	a2 00 00 00 03 10 04 00 	lui $4,4099
  400cb8:	43 00 00 00 b4 df 04 04 	addiu $4,$4,-8268
  400cc0:	02 00 00 00 d6 4d 11 00 	jal 453758 <s_rsle>
  400cc8:	43 00 00 00 60 80 04 1c 	addiu $4,$28,-32672
  400cd0:	43 00 00 00 64 80 05 1c 	addiu $5,$28,-32668
  400cd8:	a2 00 00 00 00 10 10 00 	lui $16,4096
  400ce0:	43 00 00 00 34 27 10 10 	addiu $16,$16,10036
  400ce8:	42 00 00 00 00 06 10 00 	addu $6,$0,$16
  400cf0:	43 00 00 00 04 00 07 00 	addiu $7,$0,4
  400cf8:	02 00 00 00 a8 4e 11 00 	jal 453aa0 <do_lio>
  400d00:	43 00 00 00 60 80 04 1c 	addiu $4,$28,-32672
  400d08:	43 00 00 00 64 80 05 1c 	addiu $5,$28,-32668
  400d10:	43 00 00 00 64 00 06 10 	addiu $6,$16,100
  400d18:	43 00 00 00 04 00 07 00 	addiu $7,$0,4
  400d20:	02 00 00 00 a8 4e 11 00 	jal 453aa0 <do_lio>
  400d28:	02 00 00 00 dc 44 11 00 	jal 451370 <e_rsle>
  400d30:	a2 00 00 00 03 10 04 00 	lui $4,4099
  400d38:	43 00 00 00 c8 df 04 04 	addiu $4,$4,-8248
  400d40:	02 00 00 00 d6 4d 11 00 	jal 453758 <s_rsle>
  400d48:	02 00 00 00 dc 44 11 00 	jal 451370 <e_rsle>
  400d50:	a2 00 00 00 03 10 04 00 	lui $4,4099
  400d58:	43 00 00 00 dc df 04 04 	addiu $4,$4,-8228
  400d60:	02 00 00 00 d6 4d 11 00 	jal 453758 <s_rsle>
  400d68:	43 00 00 00 60 80 04 1c 	addiu $4,$28,-32672
  400d70:	43 00 00 00 64 80 05 1c 	addiu $5,$28,-32668
  400d78:	a2 00 00 00 03 10 06 00 	lui $6,4099
  400d80:	43 00 00 00 04 de 06 06 	addiu $6,$6,-8700
  400d88:	43 00 00 00 04 00 07 00 	addiu $7,$0,4
  400d90:	02 00 00 00 a8 4e 11 00 	jal 453aa0 <do_lio>
  400d98:	02 00 00 00 dc 44 11 00 	jal 451370 <e_rsle>
  400da0:	a2 00 00 00 03 10 04 00 	lui $4,4099
  400da8:	43 00 00 00 f0 df 04 04 	addiu $4,$4,-8208
  400db0:	02 00 00 00 d6 4d 11 00 	jal 453758 <s_rsle>
  400db8:	02 00 00 00 dc 44 11 00 	jal 451370 <e_rsle>
  400dc0:	a2 00 00 00 03 10 04 00 	lui $4,4099
  400dc8:	43 00 00 00 04 e0 04 04 	addiu $4,$4,-8188
  400dd0:	02 00 00 00 d6 4d 11 00 	jal 453758 <s_rsle>
  400dd8:	43 00 00 00 60 80 04 1c 	addiu $4,$28,-32672
  400de0:	43 00 00 00 64 80 05 1c 	addiu $5,$28,-32668
  400de8:	a2 00 00 00 03 10 10 00 	lui $16,4099
  400df0:	43 00 00 00 28 de 10 10 	addiu $16,$16,-8664
  400df8:	42 00 00 00 00 06 10 00 	addu $6,$0,$16
  400e00:	43 00 00 00 04 00 07 00 	addiu $7,$0,4
  400e08:	02 00 00 00 a8 4e 11 00 	jal 453aa0 <do_lio>
  400e10:	43 00 00 00 60 80 04 1c 	addiu $4,$28,-32672
  400e18:	43 00 00 00 64 80 05 1c 	addiu $5,$28,-32668
  400e20:	43 00 00 00 04 00 06 10 	addiu $6,$16,4
  400e28:	43 00 00 00 04 00 07 00 	addiu $7,$0,4
  400e30:	02 00 00 00 a8 4e 11 00 	jal 453aa0 <do_lio>
  400e38:	02 00 00 00 dc 44 11 00 	jal 451370 <e_rsle>
  400e40:	a2 00 00 00 03 10 04 00 	lui $4,4099
  400e48:	43 00 00 00 18 e0 04 04 	addiu $4,$4,-8168
  400e50:	02 00 00 00 d6 4d 11 00 	jal 453758 <s_rsle>
  400e58:	02 00 00 00 dc 44 11 00 	jal 451370 <e_rsle>
  400e60:	a2 00 00 00 03 10 04 00 	lui $4,4099
  400e68:	43 00 00 00 2c e0 04 04 	addiu $4,$4,-8148
  400e70:	02 00 00 00 d6 4d 11 00 	jal 453758 <s_rsle>
  400e78:	43 00 00 00 68 80 04 1c 	addiu $4,$28,-32664
  400e80:	43 00 00 00 64 80 05 1c 	addiu $5,$28,-32668
  400e88:	43 00 00 00 50 00 06 10 	addiu $6,$16,80
  400e90:	43 00 00 00 08 00 07 00 	addiu $7,$0,8
  400e98:	02 00 00 00 a8 4e 11 00 	jal 453aa0 <do_lio>
  400ea0:	43 00 00 00 68 80 04 1c 	addiu $4,$28,-32664
  400ea8:	43 00 00 00 64 80 05 1c 	addiu $5,$28,-32668
  400eb0:	43 00 00 00 58 00 06 10 	addiu $6,$16,88
  400eb8:	43 00 00 00 08 00 07 00 	addiu $7,$0,8
  400ec0:	02 00 00 00 a8 4e 11 00 	jal 453aa0 <do_lio>
  400ec8:	02 00 00 00 dc 44 11 00 	jal 451370 <e_rsle>
  400ed0:	2b 00 00 00 a0 80 04 1c 	l.d $f4,-32608($28)
  400ed8:	2b 00 00 00 a8 80 06 1c 	l.d $f6,-32600($28)
  400ee0:	2b 00 00 00 b0 80 02 1c 	l.d $f2,-32592($28)
  400ee8:	2b 00 00 00 b8 80 00 1c 	l.d $f0,-32584($28)
  400ef0:	2b 00 00 00 c0 80 08 1c 	l.d $f8,-32576($28)
  400ef8:	42 00 00 00 00 02 00 00 	addu $2,$0,$0
  400f00:	43 00 00 00 01 00 03 00 	addiu $3,$0,1
  400f08:	a2 00 00 00 00 10 01 00 	lui $1,4096
  400f10:	34 00 00 00 30 27 03 01 	sw $3,10032($1)
  400f18:	43 00 00 00 02 00 03 00 	addiu $3,$0,2
  400f20:	a2 00 00 00 00 10 01 00 	lui $1,4096
  400f28:	34 00 00 00 24 27 03 01 	sw $3,10020($1)
  400f30:	a2 00 00 00 00 10 01 00 	lui $1,4096
  400f38:	34 00 00 00 20 27 03 01 	sw $3,10016($1)
  400f40:	a2 00 00 00 02 10 03 00 	lui $3,4098
  400f48:	43 00 00 00 b8 ac 03 03 	addiu $3,$3,-21320
  400f50:	a2 00 00 00 03 10 01 00 	lui $1,4099
  400f58:	37 00 00 00 88 de 04 01 	s.d $f4,-8568($1)
  400f60:	37 00 00 00 a8 03 06 03 	s.d $f6,936($3)
  400f68:	37 00 00 00 70 04 02 03 	s.d $f2,1136($3)
  400f70:	37 00 00 00 38 05 02 03 	s.d $f2,1336($3)
  400f78:	a2 00 00 00 02 10 01 00 	lui $1,4098
  400f80:	37 00 00 00 c0 c6 00 01 	s.d $f0,-14656($1)
  400f88:	a2 00 00 00 02 10 01 00 	lui $1,4098
  400f90:	37 00 00 00 b8 c6 00 01 	s.d $f0,-14664($1)
  400f98:	a2 00 00 00 00 10 01 00 	lui $1,4096
  400fa0:	37 00 00 00 18 2e 08 01 	s.d $f8,11800($1)
  400fa8:	a2 00 00 00 00 10 01 00 	lui $1,4096
  400fb0:	37 00 00 00 50 2d 00 01 	s.d $f0,11600($1)
  400fb8:	28 00 00 00 14 00 1f 1d 	lw $31,20($29)
  400fc0:	28 00 00 00 10 00 10 1d 	lw $16,16($29)
  400fc8:	43 00 00 00 18 00 1d 1d 	addiu $29,$29,24
  400fd0:	03 00 00 00 00 00 00 1f 	jr $31

00400fd8 <init_>:
  400fd8:	a2 00 00 00 03 10 03 00 	lui $3,4099
  400fe0:	28 00 00 00 2c de 03 03 	lw $3,-8660($3)
  400fe8:	a2 00 00 00 03 10 01 00 	lui $1,4099
  400ff0:	2b 00 00 00 80 de 02 01 	l.d $f2,-8576($1)
  400ff8:	a5 00 00 00 00 00 03 00 	mtc1 $3,$f0
  401000:	83 00 00 00 00 00 00 00 	cvt.d.w $f0,$f0
  401008:	77 00 00 00 00 02 00 02 	div.d $f2,$f2,$f0
  401010:	a2 00 00 00 03 10 07 00 	lui $7,4099
  401018:	28 00 00 00 28 de 07 07 	lw $7,-8664($7)
  401020:	a2 00 00 00 03 10 01 00 	lui $1,4099
  401028:	2b 00 00 00 78 de 0c 01 	l.d $f12,-8584($1)
  401030:	a5 00 00 00 00 00 07 04 	mtc1 $7,$f4
  401038:	83 00 00 00 00 04 00 04 	cvt.d.w $f4,$f4
  401040:	77 00 00 00 00 04 04 0c 	div.d $f4,$f12,$f4
  401048:	2b 00 00 00 d8 80 00 1c 	l.d $f0,-32552($28)
  401050:	77 00 00 00 00 06 04 00 	div.d $f6,$f0,$f4
  401058:	43 00 00 00 f0 fe 1d 1d 	addiu $29,$29,-272
  401060:	a2 00 00 00 03 10 09 00 	lui $9,4099
  401068:	43 00 00 00 98 c3 09 09 	addiu $9,$9,-15464
  401070:	77 00 00 00 00 00 02 00 	div.d $f0,$f0,$f2
  401078:	34 00 00 00 dc 00 1f 1d 	sw $31,220($29)
  401080:	43 00 00 00 02 00 04 07 	addiu $4,$7,2
  401088:	43 00 00 00 02 00 05 03 	addiu $5,$3,2
  401090:	46 00 00 00 00 00 05 04 	mult $4,$5
  401098:	34 00 00 00 d8 00 1e 1d 	sw $30,216($29)
  4010a0:	34 00 00 00 d4 00 17 1d 	sw $23,212($29)
  4010a8:	34 00 00 00 d0 00 16 1d 	sw $22,208($29)
  4010b0:	34 00 00 00 cc 00 15 1d 	sw $21,204($29)
  4010b8:	34 00 00 00 c8 00 14 1d 	sw $20,200($29)
  4010c0:	34 00 00 00 c4 00 13 1d 	sw $19,196($29)
  4010c8:	34 00 00 00 c0 00 12 1d 	sw $18,192($29)
  4010d0:	34 00 00 00 bc 00 11 1d 	sw $17,188($29)
  4010d8:	34 00 00 00 b8 00 10 1d 	sw $16,184($29)
  4010e0:	37 00 00 00 08 01 1e 1d 	s.d $f30,264($29)
  4010e8:	37 00 00 00 00 01 1c 1d 	s.d $f28,256($29)
  4010f0:	37 00 00 00 f8 00 1a 1d 	s.d $f26,248($29)
  4010f8:	37 00 00 00 f0 00 18 1d 	s.d $f24,240($29)
  401100:	37 00 00 00 e8 00 16 1d 	s.d $f22,232($29)
  401108:	37 00 00 00 e0 00 14 1d 	s.d $f20,224($29)
  401110:	28 00 00 00 7c 1a 06 09 	lw $6,6780($9)
  401118:	4c 00 00 00 00 08 00 00 	mflo $8
  401120:	43 00 00 00 01 00 02 07 	addiu $2,$7,1
  401128:	43 00 00 00 01 00 03 03 	addiu $3,$3,1
  401130:	a2 00 00 00 03 10 01 00 	lui $1,4099
  401138:	38 00 00 00 f0 de 00 01 	dsz -8464($1)
  401140:	a2 00 00 00 03 10 01 00 	lui $1,4099
  401148:	38 00 00 00 f8 de 00 01 	dsz -8456($1)
  401150:	a2 00 00 00 03 10 01 00 	lui $1,4099
  401158:	38 00 00 00 08 df 00 01 	dsz -8440($1)
  401160:	a2 00 00 00 03 10 01 00 	lui $1,4099
  401168:	38 00 00 00 00 df 00 01 	dsz -8448($1)
  401170:	a2 00 00 00 03 10 01 00 	lui $1,4099
  401178:	34 00 00 00 40 de 02 01 	sw $2,-8640($1)
  401180:	a2 00 00 00 03 10 01 00 	lui $1,4099
  401188:	34 00 00 00 3c de 04 01 	sw $4,-8644($1)
  401190:	a2 00 00 00 03 10 01 00 	lui $1,4099
  401198:	34 00 00 00 44 de 03 01 	sw $3,-8636($1)
  4011a0:	a2 00 00 00 03 10 01 00 	lui $1,4099
  4011a8:	34 00 00 00 48 de 05 01 	sw $5,-8632($1)
  4011b0:	34 00 00 00 60 00 08 1d 	sw $8,96($29)
  4011b8:	a2 00 00 00 03 10 01 00 	lui $1,4099
  4011c0:	37 00 00 00 b0 de 04 01 	s.d $f4,-8528($1)
  4011c8:	a2 00 00 00 03 10 01 00 	lui $1,4099
  4011d0:	37 00 00 00 b8 de 02 01 	s.d $f2,-8520($1)
  4011d8:	a2 00 00 00 03 10 01 00 	lui $1,4099
  4011e0:	37 00 00 00 c0 de 06 01 	s.d $f6,-8512($1)
  4011e8:	a2 00 00 00 03 10 01 00 	lui $1,4099
  4011f0:	37 00 00 00 c8 de 00 01 	s.d $f0,-8504($1)
  4011f8:	06 00 00 00 02 00 00 06 	bne $6,$0,401208 <init_+0x230>
  401200:	34 00 00 00 7c 1a 07 09 	sw $7,6780($9)
  401208:	a2 00 00 00 03 10 02 00 	lui $2,4099
  401210:	28 00 00 00 10 de 02 02 	lw $2,-8688($2)
  401218:	a2 00 00 00 03 10 04 00 	lui $4,4099
  401220:	28 00 00 00 14 de 04 04 	lw $4,-8684($4)
  401228:	45 00 00 00 00 02 02 07 	subu $2,$7,$2
  401230:	43 00 00 00 01 00 15 02 	addiu $21,$2,1
  401238:	42 00 00 00 00 03 15 00 	addu $3,$0,$21
  401240:	5b 00 00 00 00 02 03 04 	slt $2,$4,$3
  401248:	05 00 00 00 02 00 00 02 	beq $2,$0,401258 <init_+0x280>
  401250:	42 00 00 00 00 03 04 00 	addu $3,$0,$4
  401258:	a2 00 00 00 03 10 02 00 	lui $2,4099
  401260:	28 00 00 00 08 de 02 02 	lw $2,-8696($2)
  401268:	a2 00 00 00 03 10 01 00 	lui $1,4099
  401270:	34 00 00 00 14 de 03 01 	sw $3,-8684($1)
  401278:	06 00 00 00 08 00 00 02 	bne $2,$0,4012a0 <init_+0x2c8>
  401280:	a2 00 00 00 03 10 02 00 	lui $2,4099
  401288:	28 00 00 00 04 de 02 02 	lw $2,-8700($2)
  401290:	a2 00 00 00 03 10 01 00 	lui $1,4099
  401298:	34 00 00 00 08 de 02 01 	sw $2,-8696($1)
  4012a0:	a2 00 00 00 03 10 02 00 	lui $2,4099
  4012a8:	28 00 00 00 0c de 02 02 	lw $2,-8692($2)
  4012b0:	06 00 00 00 08 00 00 02 	bne $2,$0,4012d8 <init_+0x300>
  4012b8:	a2 00 00 00 03 10 02 00 	lui $2,4099
  4012c0:	28 00 00 00 04 de 02 02 	lw $2,-8700($2)
  4012c8:	a2 00 00 00 03 10 01 00 	lui $1,4099
  4012d0:	34 00 00 00 0c de 02 01 	sw $2,-8692($1)
  4012d8:	a2 00 00 00 00 10 01 00 	lui $1,4096
  4012e0:	2b 00 00 00 b8 2c 00 01 	l.d $f0,11448($1)
  4012e8:	71 00 00 00 00 00 00 00 	add.d $f0,$f0,$f0
  4012f0:	a2 00 00 00 00 10 01 00 	lui $1,4096
  4012f8:	2b 00 00 00 00 2d 02 01 	l.d $f2,11520($1)
  401300:	75 00 00 00 00 00 02 00 	mul.d $f0,$f0,$f2
  401308:	77 00 00 00 00 00 0c 00 	div.d $f0,$f0,$f12
  401310:	a5 00 00 00 00 00 00 02 	mtc1 $0,$f2
  401318:	a5 00 00 00 00 00 00 03 	mtc1 $0,$f3
  401320:	37 00 00 00 68 00 00 1d 	s.d $f0,104($29)
  401328:	a2 00 00 00 00 10 01 00 	lui $1,4096
  401330:	2b 00 00 00 d0 26 00 01 	l.d $f0,9936($1)
  401338:	91 00 00 00 00 00 02 00 	c.eq.d $f0,$f2
  401340:	a2 00 00 00 00 10 01 00 	lui $1,4096
  401348:	38 00 00 00 f0 2c 00 01 	dsz 11504($1)
  401350:	0b 00 00 00 04 00 00 00 	bc1f 401368 <init_+0x390>
  401358:	a2 00 00 00 00 10 01 00 	lui $1,4096
  401360:	37 00 00 00 f8 26 02 01 	s.d $f2,9976($1)
  401368:	a2 00 00 00 00 10 03 00 	lui $3,4096
  401370:	28 00 00 00 14 27 03 03 	lw $3,10004($3)
  401378:	5c 00 00 00 ff ff 02 03 	slti $2,$3,-1
  401380:	06 00 00 00 5a 00 00 02 	bne $2,$0,4014f0 <init_+0x518>
  401388:	43 00 00 00 fe ff 02 00 	addiu $2,$0,-2
  401390:	a2 00 00 00 00 10 01 00 	lui $1,4096
  401398:	34 00 00 00 14 27 02 01 	sw $2,10004($1)
  4013a0:	07 00 00 00 46 00 00 03 	blez $3,4014c0 <init_+0x4e8>
  4013a8:	42 00 00 00 00 15 03 00 	addu $21,$0,$3
  4013b0:	43 00 00 00 01 00 11 00 	addiu $17,$0,1
  4013b8:	07 00 00 00 4c 00 00 15 	blez $21,4014f0 <init_+0x518>
  4013c0:	43 00 00 00 01 00 02 15 	addiu $2,$21,1
  4013c8:	4f 00 00 00 03 00 03 15 	andi $3,$21,3
  4013d0:	5b 00 00 00 00 02 02 11 	slt $2,$17,$2
  4013d8:	05 00 00 00 16 00 00 02 	beq $2,$0,401438 <init_+0x460>
  4013e0:	05 00 00 00 1e 00 00 03 	beq $3,$0,401460 <init_+0x488>
  4013e8:	5c 00 00 00 02 00 02 03 	slti $2,$3,2
  4013f0:	06 00 00 00 10 00 00 02 	bne $2,$0,401438 <init_+0x460>
  4013f8:	5c 00 00 00 03 00 02 03 	slti $2,$3,3
  401400:	06 00 00 00 06 00 00 02 	bne $2,$0,401420 <init_+0x448>
  401408:	43 00 00 00 70 80 04 1c 	addiu $4,$28,-32656
  401410:	02 00 00 00 46 a6 10 00 	jal 429918 <ranf_>
  401418:	43 00 00 00 02 00 11 00 	addiu $17,$0,2
  401420:	43 00 00 00 70 80 04 1c 	addiu $4,$28,-32656
  401428:	02 00 00 00 46 a6 10 00 	jal 429918 <ranf_>
  401430:	43 00 00 00 01 00 11 11 	addiu $17,$17,1
  401438:	43 00 00 00 70 80 04 1c 	addiu $4,$28,-32656
  401440:	02 00 00 00 46 a6 10 00 	jal 429918 <ranf_>
  401448:	43 00 00 00 01 00 11 11 	addiu $17,$17,1
  401450:	5b 00 00 00 00 02 11 15 	slt $2,$21,$17
  401458:	06 00 00 00 24 00 00 02 	bne $2,$0,4014f0 <init_+0x518>
  401460:	43 00 00 00 70 80 04 1c 	addiu $4,$28,-32656
  401468:	02 00 00 00 46 a6 10 00 	jal 429918 <ranf_>
  401470:	43 00 00 00 70 80 04 1c 	addiu $4,$28,-32656
  401478:	02 00 00 00 46 a6 10 00 	jal 429918 <ranf_>
  401480:	43 00 00 00 70 80 04 1c 	addiu $4,$28,-32656
  401488:	02 00 00 00 46 a6 10 00 	jal 429918 <ranf_>
  401490:	43 00 00 00 70 80 04 1c 	addiu $4,$28,-32656
  401498:	02 00 00 00 46 a6 10 00 	jal 429918 <ranf_>
  4014a0:	43 00 00 00 04 00 11 11 	addiu $17,$17,4
  4014a8:	5b 00 00 00 00 02 11 15 	slt $2,$21,$17
  4014b0:	05 00 00 00 ea ff 00 02 	beq $2,$0,401460 <init_+0x488>
  4014b8:	01 00 00 00 3c 05 10 00 	j 4014f0 <init_+0x518>
  4014c0:	0a 00 00 00 04 00 00 03 	bgez $3,4014d8 <init_+0x500>
  4014c8:	43 00 00 00 78 80 04 1c 	addiu $4,$28,-32648
  4014d0:	01 00 00 00 3a 05 10 00 	j 4014e8 <init_+0x510>
  4014d8:	06 00 00 00 04 00 00 03 	bne $3,$0,4014f0 <init_+0x518>
  4014e0:	43 00 00 00 c8 80 04 1c 	addiu $4,$28,-32568
  4014e8:	02 00 00 00 46 a6 10 00 	jal 429918 <ranf_>
  4014f0:	a2 00 00 00 00 10 02 00 	lui $2,4096
  4014f8:	28 00 00 00 30 27 02 02 	lw $2,10032($2)
  401500:	a2 00 00 00 00 10 03 00 	lui $3,4096
  401508:	43 00 00 00 00 27 03 03 	addiu $3,$3,9984
  401510:	07 00 00 00 94 0b 00 02 	blez $2,404368 <init_+0x3390>
  401518:	42 00 00 00 00 15 02 00 	addu $21,$0,$2
  401520:	43 00 00 00 03 00 02 00 	addiu $2,$0,3
  401528:	34 00 00 00 00 00 00 03 	sw $0,0($3)
  401530:	a2 00 00 00 03 10 01 00 	lui $1,4099
  401538:	34 00 00 00 20 de 02 01 	sw $2,-8672($1)
  401540:	43 00 00 00 01 00 02 00 	addiu $2,$0,1
  401548:	a2 00 00 00 00 10 01 00 	lui $1,4096
  401550:	38 00 00 00 c0 2c 00 01 	dsz 11456($1)
  401558:	a2 00 00 00 02 10 01 00 	lui $1,4098
  401560:	38 00 00 00 08 c7 00 01 	dsz -14584($1)
  401568:	a2 00 00 00 00 10 01 00 	lui $1,4096
  401570:	34 00 00 00 0c 27 00 01 	sw $0,9996($1)
  401578:	34 00 00 00 50 00 02 1d 	sw $2,80($29)
  401580:	07 00 00 00 6a 00 00 15 	blez $21,401730 <init_+0x758>
  401588:	a2 00 00 00 00 10 08 00 	lui $8,4096
  401590:	43 00 00 00 b8 2c 08 08 	addiu $8,$8,11448
  401598:	a2 00 00 00 01 00 0a 00 	lui $10,1
  4015a0:	51 00 00 00 30 85 0a 0a 	ori $10,$10,34096
  4015a8:	a5 00 00 00 00 00 00 02 	mtc1 $0,$f2
  4015b0:	a5 00 00 00 00 00 00 03 	mtc1 $0,$f3
  4015b8:	a2 00 00 00 01 00 07 00 	lui $7,1
  4015c0:	51 00 00 00 a0 83 07 07 	ori $7,$7,33696
  4015c8:	a2 00 00 00 01 00 09 00 	lui $9,1
  4015d0:	51 00 00 00 68 84 09 09 	ori $9,$9,33896
  4015d8:	42 00 00 00 00 0b 03 00 	addu $11,$0,$3
  4015e0:	28 00 00 00 50 00 02 1d 	lw $2,80($29)
  4015e8:	55 00 00 00 03 02 02 00 	sll $2,$2,0x3
  4015f0:	42 00 00 00 00 02 08 02 	addu $2,$2,$8
  4015f8:	42 00 00 00 00 03 0a 02 	addu $3,$2,$10
  401600:	2b 00 00 00 00 00 00 03 	l.d $f0,0($3)
  401608:	91 00 00 00 00 00 02 00 	c.eq.d $f0,$f2
  401610:	0b 00 00 00 06 00 00 00 	bc1f 401630 <init_+0x658>
  401618:	42 00 00 00 00 02 07 02 	addu $2,$2,$7
  401620:	2b 00 00 00 00 00 00 02 	l.d $f0,0($2)
  401628:	37 00 00 00 00 00 00 03 	s.d $f0,0($3)
  401630:	28 00 00 00 50 00 02 1d 	lw $2,80($29)
  401638:	55 00 00 00 03 02 02 00 	sll $2,$2,0x3
  401640:	42 00 00 00 00 02 08 02 	addu $2,$2,$8
  401648:	42 00 00 00 00 03 09 02 	addu $3,$2,$9
  401650:	2b 00 00 00 00 00 00 03 	l.d $f0,0($3)
  401658:	91 00 00 00 00 00 02 00 	c.eq.d $f0,$f2
  401660:	0b 00 00 00 06 00 00 00 	bc1f 401680 <init_+0x6a8>
  401668:	42 00 00 00 00 02 07 02 	addu $2,$2,$7
  401670:	2b 00 00 00 00 00 00 02 	l.d $f0,0($2)
  401678:	37 00 00 00 00 00 00 03 	s.d $f0,0($3)
  401680:	28 00 00 00 50 00 06 1d 	lw $6,80($29)
  401688:	55 00 00 00 02 02 06 00 	sll $2,$6,0x2
  401690:	42 00 00 00 00 05 0b 02 	addu $5,$2,$11
  401698:	28 00 00 00 30 00 03 05 	lw $3,48($5)
  4016a0:	28 00 00 00 94 00 02 05 	lw $2,148($5)
  4016a8:	46 00 00 00 00 00 02 03 	mult $3,$2
  4016b0:	28 00 00 00 f8 00 12 05 	lw $18,248($5)
  4016b8:	4c 00 00 00 00 14 00 00 	mflo $20
  4016c0:	42 00 00 00 00 04 12 00 	addu $4,$0,$18
  4016c8:	5b 00 00 00 00 02 14 04 	slt $2,$4,$20
  4016d0:	05 00 00 00 02 00 00 02 	beq $2,$0,4016e0 <init_+0x708>
  4016d8:	42 00 00 00 00 04 14 00 	addu $4,$0,$20
  4016e0:	34 00 00 00 f8 00 04 05 	sw $4,248($5)
  4016e8:	a2 00 00 00 00 10 02 00 	lui $2,4096
  4016f0:	28 00 00 00 0c 27 02 02 	lw $2,9996($2)
  4016f8:	43 00 00 00 01 00 03 06 	addiu $3,$6,1
  401700:	34 00 00 00 50 00 03 1d 	sw $3,80($29)
  401708:	5b 00 00 00 00 03 03 15 	slt $3,$21,$3
  401710:	42 00 00 00 00 02 04 02 	addu $2,$2,$4
  401718:	a2 00 00 00 00 10 01 00 	lui $1,4096
  401720:	34 00 00 00 0c 27 02 01 	sw $2,9996($1)
  401728:	05 00 00 00 ac ff 00 03 	beq $3,$0,4015e0 <init_+0x608>
  401730:	a2 00 00 00 03 10 04 00 	lui $4,4099
  401738:	43 00 00 00 f0 e1 04 04 	addiu $4,$4,-7696
  401740:	02 00 00 00 68 35 11 00 	jal 44d5a0 <s_wsfe>
  401748:	43 00 00 00 64 80 04 1c 	addiu $4,$28,-32668
  401750:	a2 00 00 00 00 10 10 00 	lui $16,4096
  401758:	43 00 00 00 0c 27 10 10 	addiu $16,$16,9996
  401760:	42 00 00 00 00 05 10 00 	addu $5,$0,$16
  401768:	43 00 00 00 04 00 06 00 	addiu $6,$0,4
  401770:	02 00 00 00 04 42 11 00 	jal 450810 <do_fio>
  401778:	02 00 00 00 7a 44 11 00 	jal 4511e8 <e_wsfe>
  401780:	42 00 00 00 00 04 10 00 	addu $4,$0,$16
  401788:	43 00 00 00 24 00 05 04 	addiu $5,$4,36
  401790:	43 00 00 00 fc ff 06 04 	addiu $6,$4,-4
  401798:	43 00 00 00 68 80 07 1c 	addiu $7,$28,-32664
  4017a0:	02 00 00 00 9e cf 10 00 	jal 433e78 <setb_>
  4017a8:	34 00 00 00 34 00 00 1d 	sw $0,52($29)
  4017b0:	a2 00 00 00 00 10 01 00 	lui $1,4096
  4017b8:	34 00 00 00 28 27 00 01 	sw $0,10024($1)
  4017c0:	38 00 00 00 58 00 00 1d 	dsz 88($29)
  4017c8:	28 00 00 00 34 00 02 1d 	lw $2,52($29)
  4017d0:	a5 00 00 00 00 00 00 1c 	mtc1 $0,$f28
  4017d8:	a5 00 00 00 00 00 00 1d 	mtc1 $0,$f29
  4017e0:	06 00 00 00 30 04 00 02 	bne $2,$0,4028a8 <init_+0x18d0>
  4017e8:	a2 00 00 00 00 10 03 00 	lui $3,4096
  4017f0:	28 00 00 00 28 27 03 03 	lw $3,10024($3)
  4017f8:	a2 00 00 00 00 10 02 00 	lui $2,4096
  401800:	28 00 00 00 30 27 02 02 	lw $2,10032($2)
  401808:	a2 00 00 00 00 10 10 00 	lui $16,4096
  401810:	43 00 00 00 00 27 10 10 	addiu $16,$16,9984
  401818:	43 00 00 00 01 00 03 03 	addiu $3,$3,1
  401820:	5b 00 00 00 00 02 03 02 	slt $2,$2,$3
  401828:	a2 00 00 00 00 10 01 00 	lui $1,4096
  401830:	34 00 00 00 28 27 03 01 	sw $3,10024($1)
  401838:	06 00 00 00 5e 07 00 02 	bne $2,$0,4035b8 <init_+0x25e0>
  401840:	5c 00 00 00 0b 00 02 03 	slti $2,$3,11
  401848:	06 00 00 00 06 00 00 02 	bne $2,$0,401868 <init_+0x890>
  401850:	43 00 00 00 d0 80 04 1c 	addiu $4,$28,-32560
  401858:	42 00 00 00 00 05 00 00 	addu $5,$0,$0
  401860:	02 00 00 00 7c 34 11 00 	jal 44d1f0 <s_stop>
  401868:	a2 00 00 00 00 10 02 00 	lui $2,4096
  401870:	28 00 00 00 28 27 02 02 	lw $2,10024($2)
  401878:	55 00 00 00 03 06 02 00 	sll $6,$2,0x3
  401880:	a2 00 00 00 00 10 01 00 	lui $1,4096
  401888:	42 00 00 00 00 01 01 06 	addu $1,$6,$1
  401890:	2b 00 00 00 10 2e 00 01 	l.d $f0,11792($1)
  401898:	93 00 00 00 00 00 1c 00 	c.lt.d $f0,$f28
  4018a0:	0b 00 00 00 06 00 00 00 	bc1f 4018c0 <init_+0x8e8>
  4018a8:	a2 00 00 00 00 10 18 00 	lui $24,4096
  4018b0:	28 00 00 00 24 27 18 18 	lw $24,10020($24)
  4018b8:	34 00 00 00 70 00 18 1d 	sw $24,112($29)
  4018c0:	93 00 00 00 00 00 00 1c 	c.lt.d $f28,$f0
  4018c8:	0b 00 00 00 06 00 00 00 	bc1f 4018e8 <init_+0x910>
  4018d0:	a2 00 00 00 00 10 19 00 	lui $25,4096
  4018d8:	28 00 00 00 20 27 19 19 	lw $25,10016($25)
  4018e0:	34 00 00 00 70 00 19 1d 	sw $25,112($29)
  4018e8:	55 00 00 00 02 02 02 00 	sll $2,$2,0x2
  4018f0:	42 00 00 00 00 04 10 02 	addu $4,$2,$16
  4018f8:	28 00 00 00 30 00 03 04 	lw $3,48($4)
  401900:	28 00 00 00 94 00 02 04 	lw $2,148($4)
  401908:	46 00 00 00 00 00 02 03 	mult $3,$2
  401910:	4c 00 00 00 00 02 00 00 	mflo $2
  401918:	07 00 00 00 26 02 00 02 	blez $2,4021b8 <init_+0x11e0>
  401920:	43 00 00 00 02 00 18 00 	addiu $24,$0,2
  401928:	43 00 00 00 02 00 19 00 	addiu $25,$0,2
  401930:	7b 00 00 00 00 18 00 1c 	mov.d $f24,$f28
  401938:	a2 00 00 00 03 10 15 00 	lui $21,4099
  401940:	28 00 00 00 44 de 15 15 	lw $21,-8636($21)
  401948:	43 00 00 00 02 00 10 00 	addiu $16,$0,2
  401950:	a2 00 00 00 27 10 03 00 	lui $3,4135
  401958:	43 00 00 00 10 41 03 03 	addiu $3,$3,16656
  401960:	34 00 00 00 78 00 18 1d 	sw $24,120($29)
  401968:	34 00 00 00 80 00 19 1d 	sw $25,128($29)
  401970:	5c 00 00 00 02 00 02 15 	slti $2,$21,2
  401978:	37 00 00 00 00 00 1c 03 	s.d $f28,0($3)
  401980:	06 00 00 00 c6 00 00 02 	bne $2,$0,401ca0 <init_+0xcc8>
  401988:	2b 00 00 00 e0 80 1a 1c 	l.d $f26,-32544($28)
  401990:	43 00 00 00 08 00 14 03 	addiu $20,$3,8
  401998:	42 00 00 00 00 13 03 00 	addu $19,$0,$3
  4019a0:	a2 00 00 00 03 10 12 00 	lui $18,4099
  4019a8:	28 00 00 00 40 de 12 12 	lw $18,-8640($18)
  4019b0:	a5 00 00 00 00 00 00 16 	mtc1 $0,$f22
  4019b8:	a5 00 00 00 00 00 00 17 	mtc1 $0,$f23
  4019c0:	43 00 00 00 02 00 11 00 	addiu $17,$0,2
  4019c8:	5c 00 00 00 02 00 02 12 	slti $2,$18,2
  4019d0:	06 00 00 00 9c 00 00 02 	bne $2,$0,401c48 <init_+0xc70>
  4019d8:	a5 00 00 00 00 00 10 00 	mtc1 $16,$f0
  4019e0:	83 00 00 00 00 00 00 00 	cvt.d.w $f0,$f0
  4019e8:	43 00 00 00 01 00 03 12 	addiu $3,$18,1
  4019f0:	73 00 00 00 00 14 1a 00 	sub.d $f20,$f0,$f26
  4019f8:	43 00 00 00 ff ff 02 12 	addiu $2,$18,-1
  401a00:	4f 00 00 00 01 00 02 02 	andi $2,$2,1
  401a08:	5b 00 00 00 00 03 03 11 	slt $3,$17,$3
  401a10:	05 00 00 00 02 00 00 03 	beq $3,$0,401a20 <init_+0xa48>
  401a18:	05 00 00 00 32 00 00 02 	beq $2,$0,401ae8 <init_+0xb10>
  401a20:	a2 00 00 00 03 10 01 00 	lui $1,4099
  401a28:	2b 00 00 00 b8 de 04 01 	l.d $f4,-8520($1)
  401a30:	75 00 00 00 00 04 04 14 	mul.d $f4,$f20,$f4
  401a38:	a5 00 00 00 00 00 11 02 	mtc1 $17,$f2
  401a40:	83 00 00 00 00 02 00 02 	cvt.d.w $f2,$f2
  401a48:	73 00 00 00 00 02 1a 02 	sub.d $f2,$f2,$f26
  401a50:	a2 00 00 00 03 10 01 00 	lui $1,4099
  401a58:	2b 00 00 00 b0 de 00 01 	l.d $f0,-8528($1)
  401a60:	75 00 00 00 00 02 00 02 	mul.d $f2,$f2,$f0
  401a68:	43 00 00 00 10 00 04 1d 	addiu $4,$29,16
  401a70:	43 00 00 00 18 00 05 1d 	addiu $5,$29,24
  401a78:	37 00 00 00 18 00 04 1d 	s.d $f4,24($29)
  401a80:	37 00 00 00 10 00 02 1d 	s.d $f2,16($29)
  401a88:	02 00 00 00 22 11 10 00 	jal 404488 <dens_>
  401a90:	a2 00 00 00 03 10 01 00 	lui $1,4099
  401a98:	2b 00 00 00 b0 de 02 01 	l.d $f2,-8528($1)
  401aa0:	75 00 00 00 00 00 02 00 	mul.d $f0,$f0,$f2
  401aa8:	a2 00 00 00 03 10 01 00 	lui $1,4099
  401ab0:	2b 00 00 00 b8 de 02 01 	l.d $f2,-8520($1)
  401ab8:	75 00 00 00 00 02 02 00 	mul.d $f2,$f0,$f2
  401ac0:	71 00 00 00 00 16 16 00 	add.d $f22,$f0,$f22
  401ac8:	71 00 00 00 00 18 02 18 	add.d $f24,$f24,$f2
  401ad0:	43 00 00 00 03 00 11 00 	addiu $17,$0,3
  401ad8:	5c 00 00 00 03 00 02 12 	slti $2,$18,3
  401ae0:	06 00 00 00 58 00 00 02 	bne $2,$0,401c48 <init_+0xc70>
  401ae8:	a2 00 00 00 03 10 01 00 	lui $1,4099
  401af0:	2b 00 00 00 b8 de 04 01 	l.d $f4,-8520($1)
  401af8:	75 00 00 00 00 04 04 14 	mul.d $f4,$f20,$f4
  401b00:	a5 00 00 00 00 00 11 02 	mtc1 $17,$f2
  401b08:	83 00 00 00 00 02 00 02 	cvt.d.w $f2,$f2
  401b10:	73 00 00 00 00 02 1a 02 	sub.d $f2,$f2,$f26
  401b18:	a2 00 00 00 03 10 01 00 	lui $1,4099
  401b20:	2b 00 00 00 b0 de 00 01 	l.d $f0,-8528($1)
  401b28:	75 00 00 00 00 02 00 02 	mul.d $f2,$f2,$f0
  401b30:	43 00 00 00 10 00 04 1d 	addiu $4,$29,16
  401b38:	43 00 00 00 18 00 05 1d 	addiu $5,$29,24
  401b40:	37 00 00 00 18 00 04 1d 	s.d $f4,24($29)
  401b48:	37 00 00 00 10 00 02 1d 	s.d $f2,16($29)
  401b50:	02 00 00 00 22 11 10 00 	jal 404488 <dens_>
  401b58:	a2 00 00 00 03 10 01 00 	lui $1,4099
  401b60:	2b 00 00 00 b0 de 06 01 	l.d $f6,-8528($1)
  401b68:	75 00 00 00 00 00 06 00 	mul.d $f0,$f0,$f6
  401b70:	43 00 00 00 01 00 02 11 	addiu $2,$17,1
  401b78:	a5 00 00 00 00 00 02 02 	mtc1 $2,$f2
  401b80:	83 00 00 00 00 02 00 02 	cvt.d.w $f2,$f2
  401b88:	73 00 00 00 00 02 1a 02 	sub.d $f2,$f2,$f26
  401b90:	75 00 00 00 00 02 06 02 	mul.d $f2,$f2,$f6
  401b98:	a2 00 00 00 03 10 01 00 	lui $1,4099
  401ba0:	2b 00 00 00 b8 de 04 01 	l.d $f4,-8520($1)
  401ba8:	75 00 00 00 00 08 04 00 	mul.d $f8,$f0,$f4
  401bb0:	75 00 00 00 00 04 04 14 	mul.d $f4,$f20,$f4
  401bb8:	71 00 00 00 00 16 00 16 	add.d $f22,$f22,$f0
  401bc0:	43 00 00 00 10 00 04 1d 	addiu $4,$29,16
  401bc8:	71 00 00 00 00 18 08 18 	add.d $f24,$f24,$f8
  401bd0:	43 00 00 00 18 00 05 1d 	addiu $5,$29,24
  401bd8:	37 00 00 00 10 00 02 1d 	s.d $f2,16($29)
  401be0:	37 00 00 00 18 00 04 1d 	s.d $f4,24($29)
  401be8:	02 00 00 00 22 11 10 00 	jal 404488 <dens_>
  401bf0:	a2 00 00 00 03 10 01 00 	lui $1,4099
  401bf8:	2b 00 00 00 b0 de 02 01 	l.d $f2,-8528($1)
  401c00:	75 00 00 00 00 00 02 00 	mul.d $f0,$f0,$f2
  401c08:	a2 00 00 00 03 10 01 00 	lui $1,4099
  401c10:	2b 00 00 00 b8 de 02 01 	l.d $f2,-8520($1)
  401c18:	75 00 00 00 00 02 02 00 	mul.d $f2,$f0,$f2
  401c20:	71 00 00 00 00 16 00 16 	add.d $f22,$f22,$f0
  401c28:	71 00 00 00 00 18 02 18 	add.d $f24,$f24,$f2
  401c30:	43 00 00 00 02 00 11 11 	addiu $17,$17,2
  401c38:	5b 00 00 00 00 02 11 12 	slt $2,$18,$17
  401c40:	05 00 00 00 a8 ff 00 02 	beq $2,$0,401ae8 <init_+0xb10>
  401c48:	a2 00 00 00 03 10 01 00 	lui $1,4099
  401c50:	2b 00 00 00 b8 de 00 01 	l.d $f0,-8520($1)
  401c58:	75 00 00 00 00 00 00 16 	mul.d $f0,$f22,$f0
  401c60:	2b 00 00 00 00 00 02 13 	l.d $f2,0($19)
  401c68:	71 00 00 00 00 02 00 02 	add.d $f2,$f2,$f0
  401c70:	43 00 00 00 01 00 10 10 	addiu $16,$16,1
  401c78:	5b 00 00 00 00 02 10 15 	slt $2,$21,$16
  401c80:	43 00 00 00 08 00 13 13 	addiu $19,$19,8
  401c88:	37 00 00 00 00 00 02 14 	s.d $f2,0($20)
  401c90:	43 00 00 00 08 00 14 14 	addiu $20,$20,8
  401c98:	05 00 00 00 40 ff 00 02 	beq $2,$0,4019a0 <init_+0x9c8>
  401ca0:	a2 00 00 00 03 10 15 00 	lui $21,4099
  401ca8:	28 00 00 00 44 de 15 15 	lw $21,-8636($21)
  401cb0:	43 00 00 00 02 00 10 00 	addiu $16,$0,2
  401cb8:	5c 00 00 00 02 00 02 15 	slti $2,$21,2
  401cc0:	06 00 00 00 62 00 00 02 	bne $2,$0,401e50 <init_+0xe78>
  401cc8:	a2 00 00 00 27 10 04 00 	lui $4,4135
  401cd0:	43 00 00 00 08 41 04 04 	addiu $4,$4,16648
  401cd8:	43 00 00 00 10 00 05 04 	addiu $5,$4,16
  401ce0:	43 00 00 00 01 00 02 15 	addiu $2,$21,1
  401ce8:	43 00 00 00 ff ff 03 15 	addiu $3,$21,-1
  401cf0:	4f 00 00 00 03 00 03 03 	andi $3,$3,3
  401cf8:	5b 00 00 00 00 02 02 10 	slt $2,$16,$2
  401d00:	05 00 00 00 1e 00 00 02 	beq $2,$0,401d80 <init_+0xda8>
  401d08:	05 00 00 00 2a 00 00 03 	beq $3,$0,401db8 <init_+0xde0>
  401d10:	5c 00 00 00 02 00 02 03 	slti $2,$3,2
  401d18:	06 00 00 00 18 00 00 02 	bne $2,$0,401d80 <init_+0xda8>
  401d20:	5c 00 00 00 03 00 02 03 	slti $2,$3,3
  401d28:	06 00 00 00 0a 00 00 02 	bne $2,$0,401d58 <init_+0xd80>
  401d30:	2b 00 00 00 10 00 00 04 	l.d $f0,16($4)
  401d38:	77 00 00 00 00 00 18 00 	div.d $f0,$f0,$f24
  401d40:	43 00 00 00 18 00 05 04 	addiu $5,$4,24
  401d48:	43 00 00 00 03 00 10 00 	addiu $16,$0,3
  401d50:	37 00 00 00 10 00 00 04 	s.d $f0,16($4)
  401d58:	2b 00 00 00 00 00 00 05 	l.d $f0,0($5)
  401d60:	77 00 00 00 00 00 18 00 	div.d $f0,$f0,$f24
  401d68:	43 00 00 00 01 00 10 10 	addiu $16,$16,1
  401d70:	37 00 00 00 00 00 00 05 	s.d $f0,0($5)
  401d78:	43 00 00 00 08 00 05 05 	addiu $5,$5,8
  401d80:	2b 00 00 00 00 00 00 05 	l.d $f0,0($5)
  401d88:	77 00 00 00 00 00 18 00 	div.d $f0,$f0,$f24
  401d90:	43 00 00 00 01 00 10 10 	addiu $16,$16,1
  401d98:	5b 00 00 00 00 04 10 15 	slt $4,$21,$16
  401da0:	37 00 00 00 00 00 00 05 	s.d $f0,0($5)
  401da8:	43 00 00 00 08 00 05 05 	addiu $5,$5,8
  401db0:	06 00 00 00 26 00 00 04 	bne $4,$0,401e50 <init_+0xe78>
  401db8:	42 00 00 00 00 02 05 00 	addu $2,$0,$5
  401dc0:	42 00 00 00 00 03 02 00 	addu $3,$0,$2
  401dc8:	2b 00 00 00 00 00 00 03 	l.d $f0,0($3)
  401dd0:	77 00 00 00 00 00 18 00 	div.d $f0,$f0,$f24
  401dd8:	37 00 00 00 00 00 00 02 	s.d $f0,0($2)
  401de0:	2b 00 00 00 08 00 00 03 	l.d $f0,8($3)
  401de8:	77 00 00 00 00 00 18 00 	div.d $f0,$f0,$f24
  401df0:	37 00 00 00 08 00 00 02 	s.d $f0,8($2)
  401df8:	2b 00 00 00 10 00 00 03 	l.d $f0,16($3)
  401e00:	77 00 00 00 00 00 18 00 	div.d $f0,$f0,$f24
  401e08:	37 00 00 00 10 00 00 02 	s.d $f0,16($2)
  401e10:	2b 00 00 00 18 00 00 03 	l.d $f0,24($3)
  401e18:	77 00 00 00 00 00 18 00 	div.d $f0,$f0,$f24
  401e20:	43 00 00 00 04 00 10 10 	addiu $16,$16,4
  401e28:	5b 00 00 00 00 04 10 15 	slt $4,$21,$16
  401e30:	43 00 00 00 20 00 03 03 	addiu $3,$3,32
  401e38:	37 00 00 00 18 00 00 02 	s.d $f0,24($2)
  401e40:	43 00 00 00 20 00 02 02 	addiu $2,$2,32
  401e48:	05 00 00 00 de ff 00 04 	beq $4,$0,401dc8 <init_+0xdf0>
  401e50:	a2 00 00 00 03 10 01 00 	lui $1,4099
  401e58:	2b 00 00 00 b0 de 02 01 	l.d $f2,-8528($1)
  401e60:	a2 00 00 00 03 10 01 00 	lui $1,4099
  401e68:	2b 00 00 00 b8 de 00 01 	l.d $f0,-8520($1)
  401e70:	75 00 00 00 00 02 00 02 	mul.d $f2,$f2,$f0
  401e78:	a2 00 00 00 00 10 05 00 	lui $5,4096
  401e80:	28 00 00 00 28 27 05 05 	lw $5,10024($5)
  401e88:	a2 00 00 00 00 10 11 00 	lui $17,4096
  401e90:	43 00 00 00 00 27 11 11 	addiu $17,$17,9984
  401e98:	55 00 00 00 02 02 05 00 	sll $2,$5,0x2
  401ea0:	42 00 00 00 00 02 11 02 	addu $2,$2,$17
  401ea8:	2a 00 00 00 30 00 00 02 	l.s $f0,48($2)
  401eb0:	83 00 00 00 00 00 00 00 	cvt.d.w $f0,$f0
  401eb8:	75 00 00 00 00 02 00 02 	mul.d $f2,$f2,$f0
  401ec0:	2a 00 00 00 94 00 00 02 	l.s $f0,148($2)
  401ec8:	83 00 00 00 00 00 00 00 	cvt.d.w $f0,$f0
  401ed0:	75 00 00 00 00 02 00 02 	mul.d $f2,$f2,$f0
  401ed8:	77 00 00 00 00 02 02 18 	div.d $f2,$f24,$f2
  401ee0:	43 00 00 00 20 00 04 1d 	addiu $4,$29,32
  401ee8:	a2 00 00 00 00 10 10 00 	lui $16,4096
  401ef0:	43 00 00 00 10 2e 10 10 	addiu $16,$16,11792
  401ef8:	55 00 00 00 03 05 05 00 	sll $5,$5,0x3
  401f00:	42 00 00 00 00 05 10 05 	addu $5,$5,$16
  401f08:	37 00 00 00 20 00 02 1d 	s.d $f2,32($29)
  401f10:	02 00 00 00 c0 4e 11 00 	jal 453b00 <d_sign>
  401f18:	a2 00 00 00 00 10 02 00 	lui $2,4096
  401f20:	28 00 00 00 28 27 02 02 	lw $2,10024($2)
  401f28:	43 00 00 00 a8 fe 10 10 	addiu $16,$16,-344
  401f30:	55 00 00 00 03 02 02 00 	sll $2,$2,0x3
  401f38:	42 00 00 00 00 02 10 02 	addu $2,$2,$16
  401f40:	37 00 00 00 58 01 00 02 	s.d $f0,344($2)
  401f48:	a2 00 00 00 00 10 03 00 	lui $3,4096
  401f50:	28 00 00 00 28 27 03 03 	lw $3,10024($3)
  401f58:	55 00 00 00 02 02 03 00 	sll $2,$3,0x2
  401f60:	42 00 00 00 00 02 11 02 	addu $2,$2,$17
  401f68:	28 00 00 00 2c 02 02 02 	lw $2,556($2)
  401f70:	43 00 00 00 fa ff 02 02 	addiu $2,$2,-6
  401f78:	5e 00 00 00 02 00 02 02 	sltiu $2,$2,2
  401f80:	05 00 00 00 06 01 00 02 	beq $2,$0,4023a0 <init_+0x13c8>
  401f88:	55 00 00 00 03 02 03 00 	sll $2,$3,0x3
  401f90:	a2 00 00 00 02 10 04 00 	lui $4,4098
  401f98:	43 00 00 00 58 b0 04 04 	addiu $4,$4,-20392
  401fa0:	42 00 00 00 00 04 04 02 	addu $4,$2,$4
  401fa8:	a2 00 00 00 00 10 01 00 	lui $1,4096
  401fb0:	2b 00 00 00 08 2d 00 01 	l.d $f0,11528($1)
  401fb8:	a2 00 00 00 02 10 05 00 	lui $5,4098
  401fc0:	43 00 00 00 b0 b2 05 05 	addiu $5,$5,-19792
  401fc8:	42 00 00 00 00 05 05 02 	addu $5,$2,$5
  401fd0:	37 00 00 00 28 00 00 1d 	s.d $f0,40($29)
  401fd8:	02 00 00 00 44 2a 10 00 	jal 40a910 <vavg_>
  401fe0:	28 00 00 00 70 00 18 1d 	lw $24,112($29)
  401fe8:	7b 00 00 00 00 16 00 00 	mov.d $f22,$f0
  401ff0:	43 00 00 00 02 00 02 00 	addiu $2,$0,2
  401ff8:	06 00 00 00 12 00 02 18 	bne $24,$2,402048 <init_+0x1070>
  402000:	75 00 00 00 00 02 16 16 	mul.d $f2,$f22,$f22
  402008:	2b 00 00 00 d8 80 00 1c 	l.d $f0,-32552($28)
  402010:	71 00 00 00 00 0c 00 02 	add.d $f12,$f2,$f0
  402018:	97 00 00 00 00 00 00 0c 	sqrt.d $f0,$f12
  402020:	91 00 00 00 00 00 00 00 	c.eq.d $f0,$f0
  402028:	37 00 00 00 20 00 16 1d 	s.d $f22,32($29)
  402030:	0c 00 00 00 02 00 00 00 	bc1t 402040 <init_+0x1068>
  402038:	02 00 00 00 dc 4e 11 00 	jal 453b70 <sqrt>
  402040:	77 00 00 00 00 16 00 16 	div.d $f22,$f22,$f0
  402048:	a2 00 00 00 00 10 02 00 	lui $2,4096
  402050:	28 00 00 00 28 27 02 02 	lw $2,10024($2)
  402058:	a2 00 00 00 03 10 01 00 	lui $1,4099
  402060:	2b 00 00 00 b0 de 18 01 	l.d $f24,-8528($1)
  402068:	a2 00 00 00 03 10 01 00 	lui $1,4099
  402070:	2b 00 00 00 b8 de 1a 01 	l.d $f26,-8520($1)
  402078:	55 00 00 00 03 02 02 00 	sll $2,$2,0x3
  402080:	a2 00 00 00 00 10 01 00 	lui $1,4096
  402088:	42 00 00 00 00 01 01 02 	addu $1,$2,$1
  402090:	2b 00 00 00 10 2e 00 01 	l.d $f0,11792($1)
  402098:	a2 00 00 00 03 10 04 00 	lui $4,4099
  4020a0:	43 00 00 00 80 de 04 04 	addiu $4,$4,-8576
  4020a8:	37 00 00 00 20 00 00 1d 	s.d $f0,32($29)
  4020b0:	02 00 00 00 f0 2c 10 00 	jal 40b3c0 <denitl_>
  4020b8:	43 00 00 00 28 00 04 1d 	addiu $4,$29,40
  4020c0:	7b 00 00 00 00 14 00 00 	mov.d $f20,$f0
  4020c8:	02 00 00 00 92 2a 10 00 	jal 40aa48 <tpart_>
  4020d0:	75 00 00 00 00 14 00 14 	mul.d $f20,$f20,$f0
  4020d8:	75 00 00 00 00 02 16 14 	mul.d $f2,$f20,$f22
  4020e0:	2b 00 00 00 20 00 04 1d 	l.d $f4,32($29)
  4020e8:	a5 00 00 00 00 00 00 00 	mtc1 $0,$f0
  4020f0:	a5 00 00 00 00 00 00 01 	mtc1 $0,$f1
  4020f8:	95 00 00 00 00 00 04 00 	c.le.d $f0,$f4
  402100:	0b 00 00 00 04 00 00 00 	bc1f 402118 <init_+0x1140>
  402108:	75 00 00 00 00 00 18 04 	mul.d $f0,$f4,$f24
  402110:	01 00 00 00 4a 08 10 00 	j 402128 <init_+0x1150>
  402118:	7d 00 00 00 00 00 00 04 	neg.d $f0,$f4
  402120:	75 00 00 00 00 00 18 00 	mul.d $f0,$f0,$f24
  402128:	75 00 00 00 00 00 1a 00 	mul.d $f0,$f0,$f26
  402130:	77 00 00 00 00 00 00 02 	div.d $f0,$f2,$f0
  402138:	85 00 00 00 00 02 00 00 	cvt.w.d $f2,$f0
  402140:	36 00 00 00 30 00 02 1d 	s.s $f2,48($29)
  402148:	a2 00 00 00 03 10 04 00 	lui $4,4099
  402150:	43 00 00 00 04 e2 04 04 	addiu $4,$4,-7676
  402158:	02 00 00 00 68 35 11 00 	jal 44d5a0 <s_wsfe>
  402160:	43 00 00 00 64 80 04 1c 	addiu $4,$28,-32668
  402168:	a2 00 00 00 00 10 05 00 	lui $5,4096
  402170:	43 00 00 00 28 27 05 05 	addiu $5,$5,10024
  402178:	43 00 00 00 04 00 06 00 	addiu $6,$0,4
  402180:	02 00 00 00 04 42 11 00 	jal 450810 <do_fio>
  402188:	43 00 00 00 64 80 04 1c 	addiu $4,$28,-32668
  402190:	43 00 00 00 30 00 05 1d 	addiu $5,$29,48
  402198:	43 00 00 00 04 00 06 00 	addiu $6,$0,4
  4021a0:	02 00 00 00 04 42 11 00 	jal 450810 <do_fio>
  4021a8:	02 00 00 00 7a 44 11 00 	jal 4511e8 <e_wsfe>
  4021b0:	01 00 00 00 e8 08 10 00 	j 4023a0 <init_+0x13c8>
  4021b8:	28 00 00 00 2c 02 02 04 	lw $2,556($4)
  4021c0:	43 00 00 00 fa ff 02 02 	addiu $2,$2,-6
  4021c8:	5e 00 00 00 02 00 02 02 	sltiu $2,$2,2
  4021d0:	05 00 00 00 72 00 00 02 	beq $2,$0,4023a0 <init_+0x13c8>
  4021d8:	a2 00 00 00 02 10 05 00 	lui $5,4098
  4021e0:	43 00 00 00 58 b0 05 05 	addiu $5,$5,-20392
  4021e8:	42 00 00 00 00 04 05 06 	addu $4,$6,$5
  4021f0:	a2 00 00 00 00 10 01 00 	lui $1,4096
  4021f8:	2b 00 00 00 08 2d 00 01 	l.d $f0,11528($1)
  402200:	43 00 00 00 58 02 05 05 	addiu $5,$5,600
  402208:	42 00 00 00 00 05 05 06 	addu $5,$6,$5
  402210:	37 00 00 00 28 00 00 1d 	s.d $f0,40($29)
  402218:	02 00 00 00 44 2a 10 00 	jal 40a910 <vavg_>
  402220:	28 00 00 00 70 00 19 1d 	lw $25,112($29)
  402228:	7b 00 00 00 00 16 00 00 	mov.d $f22,$f0
  402230:	43 00 00 00 02 00 02 00 	addiu $2,$0,2
  402238:	06 00 00 00 12 00 02 19 	bne $25,$2,402288 <init_+0x12b0>
  402240:	75 00 00 00 00 02 16 16 	mul.d $f2,$f22,$f22
  402248:	2b 00 00 00 d8 80 00 1c 	l.d $f0,-32552($28)
  402250:	71 00 00 00 00 0c 00 02 	add.d $f12,$f2,$f0
  402258:	97 00 00 00 00 00 00 0c 	sqrt.d $f0,$f12
  402260:	91 00 00 00 00 00 00 00 	c.eq.d $f0,$f0
  402268:	37 00 00 00 20 00 16 1d 	s.d $f22,32($29)
  402270:	0c 00 00 00 02 00 00 00 	bc1t 402280 <init_+0x12a8>
  402278:	02 00 00 00 dc 4e 11 00 	jal 453b70 <sqrt>
  402280:	77 00 00 00 00 16 00 16 	div.d $f22,$f22,$f0
  402288:	a2 00 00 00 03 10 04 00 	lui $4,4099
  402290:	43 00 00 00 80 de 04 04 	addiu $4,$4,-8576
  402298:	02 00 00 00 f0 2c 10 00 	jal 40b3c0 <denitl_>
  4022a0:	43 00 00 00 28 00 04 1d 	addiu $4,$29,40
  4022a8:	7b 00 00 00 00 14 00 00 	mov.d $f20,$f0
  4022b0:	02 00 00 00 92 2a 10 00 	jal 40aa48 <tpart_>
  4022b8:	75 00 00 00 00 14 00 14 	mul.d $f20,$f20,$f0
  4022c0:	a2 00 00 00 00 10 05 00 	lui $5,4096
  4022c8:	28 00 00 00 28 27 05 05 	lw $5,10024($5)
  4022d0:	a2 00 00 00 03 10 01 00 	lui $1,4099
  4022d8:	2b 00 00 00 b0 de 02 01 	l.d $f2,-8528($1)
  4022e0:	55 00 00 00 02 02 05 00 	sll $2,$5,0x2
  4022e8:	a2 00 00 00 00 10 01 00 	lui $1,4096
  4022f0:	42 00 00 00 00 01 02 01 	addu $1,$1,$2
  4022f8:	2a 00 00 00 f8 27 00 01 	l.s $f0,10232($1)
  402300:	83 00 00 00 00 00 00 00 	cvt.d.w $f0,$f0
  402308:	75 00 00 00 00 00 02 00 	mul.d $f0,$f0,$f2
  402310:	75 00 00 00 00 14 16 14 	mul.d $f20,$f20,$f22
  402318:	a2 00 00 00 03 10 01 00 	lui $1,4099
  402320:	2b 00 00 00 b8 de 02 01 	l.d $f2,-8520($1)
  402328:	75 00 00 00 00 00 02 00 	mul.d $f0,$f0,$f2
  402330:	77 00 00 00 00 14 00 14 	div.d $f20,$f20,$f0
  402338:	43 00 00 00 20 00 04 1d 	addiu $4,$29,32
  402340:	a2 00 00 00 00 10 10 00 	lui $16,4096
  402348:	43 00 00 00 10 2e 10 10 	addiu $16,$16,11792
  402350:	55 00 00 00 03 05 05 00 	sll $5,$5,0x3
  402358:	42 00 00 00 00 05 10 05 	addu $5,$5,$16
  402360:	37 00 00 00 20 00 14 1d 	s.d $f20,32($29)
  402368:	02 00 00 00 c0 4e 11 00 	jal 453b00 <d_sign>
  402370:	a2 00 00 00 00 10 02 00 	lui $2,4096
  402378:	28 00 00 00 28 27 02 02 	lw $2,10024($2)
  402380:	43 00 00 00 a8 fe 10 10 	addiu $16,$16,-344
  402388:	55 00 00 00 03 02 02 00 	sll $2,$2,0x3
  402390:	42 00 00 00 00 02 10 02 	addu $2,$2,$16
  402398:	37 00 00 00 58 01 00 02 	s.d $f0,344($2)
  4023a0:	a2 00 00 00 03 10 04 00 	lui $4,4099
  4023a8:	43 00 00 00 18 e2 04 04 	addiu $4,$4,-7656
  4023b0:	02 00 00 00 68 35 11 00 	jal 44d5a0 <s_wsfe>
  4023b8:	43 00 00 00 64 80 04 1c 	addiu $4,$28,-32668
  4023c0:	a2 00 00 00 00 10 12 00 	lui $18,4096
  4023c8:	43 00 00 00 28 27 12 12 	addiu $18,$18,10024
  4023d0:	42 00 00 00 00 05 12 00 	addu $5,$0,$18
  4023d8:	43 00 00 00 04 00 06 00 	addiu $6,$0,4
  4023e0:	02 00 00 00 04 42 11 00 	jal 450810 <do_fio>
  4023e8:	28 00 00 00 00 00 05 12 	lw $5,0($18)
  4023f0:	43 00 00 00 64 80 04 1c 	addiu $4,$28,-32668
  4023f8:	43 00 00 00 08 00 06 00 	addiu $6,$0,8
  402400:	a2 00 00 00 00 10 10 00 	lui $16,4096
  402408:	43 00 00 00 10 2e 10 10 	addiu $16,$16,11792
  402410:	55 00 00 00 03 05 05 00 	sll $5,$5,0x3
  402418:	42 00 00 00 00 05 10 05 	addu $5,$5,$16
  402420:	02 00 00 00 04 42 11 00 	jal 450810 <do_fio>
  402428:	02 00 00 00 7a 44 11 00 	jal 4511e8 <e_wsfe>
  402430:	a2 00 00 00 01 00 06 00 	lui $6,1
  402438:	51 00 00 00 a0 83 06 06 	ori $6,$6,33696
  402440:	a2 00 00 00 01 00 08 00 	lui $8,1
  402448:	51 00 00 00 68 84 08 08 	ori $8,$8,33896
  402450:	28 00 00 00 00 00 02 12 	lw $2,0($18)
  402458:	a2 00 00 00 01 00 09 00 	lui $9,1
  402460:	43 00 00 00 a8 fe 10 10 	addiu $16,$16,-344
  402468:	51 00 00 00 f8 85 09 09 	ori $9,$9,34296
  402470:	55 00 00 00 03 04 02 00 	sll $4,$2,0x3
  402478:	42 00 00 00 00 04 10 04 	addu $4,$4,$16
  402480:	2b 00 00 00 58 01 00 04 	l.d $f0,344($4)
  402488:	a2 00 00 00 01 00 07 00 	lui $7,1
  402490:	43 00 00 00 d8 ff 03 12 	addiu $3,$18,-40
  402498:	a2 00 00 00 03 10 01 00 	lui $1,4099
  4024a0:	37 00 00 00 90 de 00 01 	s.d $f0,-8560($1)
  4024a8:	2b 00 00 00 90 00 00 04 	l.d $f0,144($4)
  4024b0:	55 00 00 00 02 02 02 00 	sll $2,$2,0x2
  4024b8:	42 00 00 00 00 02 03 02 	addu $2,$2,$3
  4024c0:	a2 00 00 00 03 10 01 00 	lui $1,4099
  4024c8:	37 00 00 00 98 de 00 01 	s.d $f0,-8552($1)
  4024d0:	28 00 00 00 94 00 18 02 	lw $24,148($2)
  4024d8:	51 00 00 00 c0 86 07 07 	ori $7,$7,34496
  4024e0:	a2 00 00 00 01 00 05 00 	lui $5,1
  4024e8:	34 00 00 00 98 00 18 1d 	sw $24,152($29)
  4024f0:	28 00 00 00 30 00 02 02 	lw $2,48($2)
  4024f8:	51 00 00 00 30 85 05 05 	ori $5,$5,34096
  402500:	a5 00 00 00 00 00 00 14 	mtc1 $0,$f20
  402508:	a5 00 00 00 00 00 00 15 	mtc1 $0,$f21
  402510:	46 00 00 00 00 00 18 02 	mult $2,$24
  402518:	42 00 00 00 00 06 06 04 	addu $6,$4,$6
  402520:	34 00 00 00 90 00 02 1d 	sw $2,144($29)
  402528:	2b 00 00 00 00 00 00 06 	l.d $f0,0($6)
  402530:	42 00 00 00 00 08 08 04 	addu $8,$4,$8
  402538:	42 00 00 00 00 09 09 04 	addu $9,$4,$9
  402540:	a2 00 00 00 03 10 01 00 	lui $1,4099
  402548:	37 00 00 00 d0 de 00 01 	s.d $f0,-8496($1)
  402550:	2b 00 00 00 00 00 00 08 	l.d $f0,0($8)
  402558:	42 00 00 00 00 07 07 04 	addu $7,$4,$7
  402560:	42 00 00 00 00 05 05 04 	addu $5,$4,$5
  402568:	a2 00 00 00 03 10 01 00 	lui $1,4099
  402570:	37 00 00 00 d8 de 00 01 	s.d $f0,-8488($1)
  402578:	2b 00 00 00 00 00 04 09 	l.d $f4,0($9)
  402580:	2b 00 00 00 00 00 02 07 	l.d $f2,0($7)
  402588:	2b 00 00 00 00 00 00 05 	l.d $f0,0($5)
  402590:	a2 00 00 00 01 00 03 00 	lui $3,1
  402598:	a2 00 00 00 03 10 01 00 	lui $1,4099
  4025a0:	37 00 00 00 e0 de 00 01 	s.d $f0,-8480($1)
  4025a8:	a2 00 00 00 01 00 02 00 	lui $2,1
  4025b0:	51 00 00 00 88 87 02 02 	ori $2,$2,34696
  4025b8:	42 00 00 00 00 02 02 04 	addu $2,$4,$2
  4025c0:	2b 00 00 00 00 00 0a 02 	l.d $f10,0($2)
  4025c8:	51 00 00 00 58 8f 03 03 	ori $3,$3,36696
  4025d0:	42 00 00 00 00 04 03 04 	addu $4,$4,$3
  4025d8:	37 00 00 00 a0 00 0a 1d 	s.d $f10,160($29)
  4025e0:	2b 00 00 00 00 00 00 04 	l.d $f0,0($4)
  4025e8:	4c 00 00 00 00 05 00 00 	mflo $5
  4025f0:	a2 00 00 00 03 10 11 00 	lui $17,4099
  4025f8:	43 00 00 00 28 de 11 11 	addiu $17,$17,-8664
  402600:	91 00 00 00 00 00 14 00 	c.eq.d $f0,$f20
  402608:	37 00 00 00 38 00 04 1d 	s.d $f4,56($29)
  402610:	37 00 00 00 40 00 02 1d 	s.d $f2,64($29)
  402618:	34 00 00 00 34 00 05 1d 	sw $5,52($29)
  402620:	0b 00 00 00 06 00 00 00 	bc1f 402640 <init_+0x1668>
  402628:	a2 00 00 00 03 10 01 00 	lui $1,4099
  402630:	2b 00 00 00 78 de 00 01 	l.d $f0,-8584($1)
  402638:	37 00 00 00 00 00 00 04 	s.d $f0,0($4)
  402640:	28 00 00 00 00 00 02 12 	lw $2,0($18)
  402648:	a2 00 00 00 01 00 03 00 	lui $3,1
  402650:	51 00 00 00 20 90 03 03 	ori $3,$3,36896
  402658:	55 00 00 00 03 02 02 00 	sll $2,$2,0x3
  402660:	42 00 00 00 00 02 10 02 	addu $2,$2,$16
  402668:	42 00 00 00 00 02 03 02 	addu $2,$2,$3
  402670:	2b 00 00 00 00 00 00 02 	l.d $f0,0($2)
  402678:	91 00 00 00 00 00 14 00 	c.eq.d $f0,$f20
  402680:	0b 00 00 00 06 00 00 00 	bc1f 4026a0 <init_+0x16c8>
  402688:	a2 00 00 00 03 10 01 00 	lui $1,4099
  402690:	2b 00 00 00 80 de 00 01 	l.d $f0,-8576($1)
  402698:	37 00 00 00 00 00 00 02 	s.d $f0,0($2)
  4026a0:	a2 00 00 00 03 10 04 00 	lui $4,4099
  4026a8:	43 00 00 00 2c e2 04 04 	addiu $4,$4,-7636
  4026b0:	02 00 00 00 68 35 11 00 	jal 44d5a0 <s_wsfe>
  4026b8:	43 00 00 00 64 80 04 1c 	addiu $4,$28,-32668
  4026c0:	43 00 00 00 34 00 05 1d 	addiu $5,$29,52
  4026c8:	43 00 00 00 04 00 06 00 	addiu $6,$0,4
  4026d0:	02 00 00 00 04 42 11 00 	jal 450810 <do_fio>
  4026d8:	43 00 00 00 64 80 04 1c 	addiu $4,$28,-32668
  4026e0:	43 00 00 00 68 00 10 11 	addiu $16,$17,104
  4026e8:	42 00 00 00 00 05 10 00 	addu $5,$0,$16
  4026f0:	43 00 00 00 08 00 06 00 	addiu $6,$0,8
  4026f8:	02 00 00 00 04 42 11 00 	jal 450810 <do_fio>
  402700:	43 00 00 00 64 80 04 1c 	addiu $4,$28,-32668
  402708:	43 00 00 00 70 00 05 11 	addiu $5,$17,112
  402710:	43 00 00 00 08 00 06 00 	addiu $6,$0,8
  402718:	02 00 00 00 04 42 11 00 	jal 450810 <do_fio>
  402720:	43 00 00 00 64 80 04 1c 	addiu $4,$28,-32668
  402728:	43 00 00 00 a8 00 05 11 	addiu $5,$17,168
  402730:	43 00 00 00 08 00 06 00 	addiu $6,$0,8
  402738:	02 00 00 00 04 42 11 00 	jal 450810 <do_fio>
  402740:	43 00 00 00 64 80 04 1c 	addiu $4,$28,-32668
  402748:	43 00 00 00 b0 00 05 11 	addiu $5,$17,176
  402750:	43 00 00 00 08 00 06 00 	addiu $6,$0,8
  402758:	02 00 00 00 04 42 11 00 	jal 450810 <do_fio>
  402760:	43 00 00 00 64 80 04 1c 	addiu $4,$28,-32668
  402768:	43 00 00 00 38 00 05 1d 	addiu $5,$29,56
  402770:	43 00 00 00 08 00 06 00 	addiu $6,$0,8
  402778:	02 00 00 00 04 42 11 00 	jal 450810 <do_fio>
  402780:	43 00 00 00 64 80 04 1c 	addiu $4,$28,-32668
  402788:	43 00 00 00 40 00 05 1d 	addiu $5,$29,64
  402790:	43 00 00 00 08 00 06 00 	addiu $6,$0,8
  402798:	02 00 00 00 04 42 11 00 	jal 450810 <do_fio>
  4027a0:	02 00 00 00 7a 44 11 00 	jal 4511e8 <e_wsfe>
  4027a8:	28 00 00 00 90 00 18 1d 	lw $24,144($29)
  4027b0:	42 00 00 00 00 1e 00 00 	addu $30,$0,$0
  4027b8:	05 00 00 00 0a 00 00 18 	beq $24,$0,4027e8 <init_+0x1810>
  4027c0:	2b 00 00 00 d8 80 02 1c 	l.d $f2,-32552($28)
  4027c8:	2a 00 00 00 90 00 00 1d 	l.s $f0,144($29)
  4027d0:	83 00 00 00 00 00 00 00 	cvt.d.w $f0,$f0
  4027d8:	77 00 00 00 00 02 00 02 	div.d $f2,$f2,$f0
  4027e0:	37 00 00 00 a8 00 02 1d 	s.d $f2,168($29)
  4027e8:	28 00 00 00 98 00 19 1d 	lw $25,152($29)
  4027f0:	05 00 00 00 0a 00 00 19 	beq $25,$0,402820 <init_+0x1848>
  4027f8:	2b 00 00 00 d8 80 02 1c 	l.d $f2,-32552($28)
  402800:	2a 00 00 00 98 00 00 1d 	l.s $f0,152($29)
  402808:	83 00 00 00 00 00 00 00 	cvt.d.w $f0,$f0
  402810:	77 00 00 00 00 02 00 02 	div.d $f2,$f2,$f0
  402818:	37 00 00 00 b0 00 02 1d 	s.d $f2,176($29)
  402820:	a2 00 00 00 00 10 01 00 	lui $1,4096
  402828:	2b 00 00 00 f8 2c 00 01 	l.d $f0,11512($1)
  402830:	28 00 00 00 98 00 18 1d 	lw $24,152($29)
  402838:	91 00 00 00 00 00 14 00 	c.eq.d $f0,$f20
  402840:	43 00 00 00 01 00 18 18 	addiu $24,$24,1
  402848:	34 00 00 00 98 00 18 1d 	sw $24,152($29)
  402850:	0c 00 00 00 14 00 00 00 	bc1t 4028a8 <init_+0x18d0>
  402858:	43 00 00 00 80 80 04 1c 	addiu $4,$28,-32640
  402860:	42 00 00 00 00 05 10 00 	addu $5,$0,$16
  402868:	02 00 00 00 c0 4e 11 00 	jal 453b00 <d_sign>
  402870:	a2 00 00 00 00 10 01 00 	lui $1,4096
  402878:	2b 00 00 00 f8 2c 02 01 	l.d $f2,11512($1)
  402880:	75 00 00 00 00 00 02 00 	mul.d $f0,$f0,$f2
  402888:	a2 00 00 00 03 10 01 00 	lui $1,4099
  402890:	2b 00 00 00 98 de 02 01 	l.d $f2,-8552($1)
  402898:	77 00 00 00 00 00 02 00 	div.d $f0,$f0,$f2
  4028a0:	37 00 00 00 88 00 00 1d 	s.d $f0,136($29)
  4028a8:	28 00 00 00 34 00 04 1d 	lw $4,52($29)
  4028b0:	a2 00 00 00 00 10 03 00 	lui $3,4096
  4028b8:	28 00 00 00 08 27 03 03 	lw $3,9992($3)
  4028c0:	43 00 00 00 01 00 02 00 	addiu $2,$0,1
  4028c8:	a2 00 00 00 03 10 01 00 	lui $1,4099
  4028d0:	34 00 00 00 30 de 02 01 	sw $2,-8656($1)
  4028d8:	5b 00 00 00 00 02 04 03 	slt $2,$3,$4
  4028e0:	05 00 00 00 02 00 00 02 	beq $2,$0,4028f0 <init_+0x1918>
  4028e8:	42 00 00 00 00 04 03 00 	addu $4,$0,$3
  4028f0:	a2 00 00 00 00 10 02 00 	lui $2,4096
  4028f8:	28 00 00 00 28 27 02 02 	lw $2,10024($2)
  402900:	28 00 00 00 34 00 03 1d 	lw $3,52($29)
  402908:	a2 00 00 00 03 10 01 00 	lui $1,4099
  402910:	34 00 00 00 34 de 04 01 	sw $4,-8652($1)
  402918:	34 00 00 00 50 00 02 1d 	sw $2,80($29)
  402920:	07 00 00 00 fa 02 00 03 	blez $3,403510 <init_+0x2538>
  402928:	42 00 00 00 00 15 04 00 	addu $21,$0,$4
  402930:	43 00 00 00 01 00 17 00 	addiu $23,$0,1
  402938:	07 00 00 00 ee 02 00 15 	blez $21,4034f8 <init_+0x2520>
  402940:	2b 00 00 00 d8 80 1e 1c 	l.d $f30,-32552($28)
  402948:	a2 00 00 00 27 10 14 00 	lui $20,4135
  402950:	43 00 00 00 d0 a4 14 14 	addiu $20,$20,-23344
  402958:	43 00 00 00 08 00 16 00 	addiu $22,$0,8
  402960:	06 00 00 00 c4 01 00 1e 	bne $30,$0,403078 <init_+0x20a0>
  402968:	28 00 00 00 98 00 19 1d 	lw $25,152($29)
  402970:	2b 00 00 00 e8 80 00 1c 	l.d $f0,-32536($28)
  402978:	43 00 00 00 ff ff 19 19 	addiu $25,$25,-1
  402980:	34 00 00 00 98 00 19 1d 	sw $25,152($29)
  402988:	2a 00 00 00 98 00 02 1d 	l.s $f2,152($29)
  402990:	83 00 00 00 00 02 00 02 	cvt.d.w $f2,$f2
  402998:	73 00 00 00 00 02 00 02 	sub.d $f2,$f2,$f0
  4029a0:	2b 00 00 00 b0 00 0a 1d 	l.d $f10,176($29)
  4029a8:	75 00 00 00 00 02 0a 02 	mul.d $f2,$f2,$f10
  4029b0:	28 00 00 00 90 00 1e 1d 	lw $30,144($29)
  4029b8:	a2 00 00 00 03 10 12 00 	lui $18,4099
  4029c0:	28 00 00 00 44 de 12 12 	lw $18,-8636($18)
  4029c8:	28 00 00 00 80 00 10 1d 	lw $16,128($29)
  4029d0:	73 00 00 00 00 02 02 1e 	sub.d $f2,$f30,$f2
  4029d8:	43 00 00 00 02 00 18 00 	addiu $24,$0,2
  4029e0:	34 00 00 00 78 00 18 1d 	sw $24,120($29)
  4029e8:	5b 00 00 00 00 02 10 12 	slt $2,$18,$16
  4029f0:	06 00 00 00 18 00 00 02 	bne $2,$0,402a58 <init_+0x1a80>
  4029f8:	55 00 00 00 03 02 10 00 	sll $2,$16,0x3
  402a00:	a2 00 00 00 27 10 19 00 	lui $25,4135
  402a08:	43 00 00 00 08 41 19 19 	addiu $25,$25,16648
  402a10:	42 00 00 00 00 03 19 02 	addu $3,$2,$25
  402a18:	2b 00 00 00 00 00 00 03 	l.d $f0,0($3)
  402a20:	93 00 00 00 00 00 00 02 	c.lt.d $f2,$f0
  402a28:	34 00 00 00 80 00 10 1d 	sw $16,128($29)
  402a30:	0c 00 00 00 08 00 00 00 	bc1t 402a58 <init_+0x1a80>
  402a38:	43 00 00 00 08 00 03 03 	addiu $3,$3,8
  402a40:	43 00 00 00 01 00 10 10 	addiu $16,$16,1
  402a48:	5b 00 00 00 00 02 10 12 	slt $2,$18,$16
  402a50:	05 00 00 00 f0 ff 00 02 	beq $2,$0,402a18 <init_+0x1a40>
  402a58:	28 00 00 00 80 00 18 1d 	lw $24,128($29)
  402a60:	a2 00 00 00 27 10 19 00 	lui $25,4135
  402a68:	43 00 00 00 00 41 19 19 	addiu $25,$25,16640
  402a70:	55 00 00 00 03 03 18 00 	sll $3,$24,0x3
  402a78:	42 00 00 00 00 02 19 03 	addu $2,$3,$25
  402a80:	2b 00 00 00 00 00 04 02 	l.d $f4,0($2)
  402a88:	73 00 00 00 00 02 04 02 	sub.d $f2,$f2,$f4
  402a90:	a2 00 00 00 03 10 01 00 	lui $1,4099
  402a98:	2b 00 00 00 b8 de 06 01 	l.d $f6,-8520($1)
  402aa0:	a2 00 00 00 27 10 18 00 	lui $24,4135
  402aa8:	43 00 00 00 08 41 18 18 	addiu $24,$24,16648
  402ab0:	42 00 00 00 00 03 18 03 	addu $3,$3,$24
  402ab8:	75 00 00 00 00 02 06 02 	mul.d $f2,$f2,$f6
  402ac0:	2b 00 00 00 00 00 00 03 	l.d $f0,0($3)
  402ac8:	73 00 00 00 00 00 04 00 	sub.d $f0,$f0,$f4
  402ad0:	77 00 00 00 00 02 00 02 	div.d $f2,$f2,$f0
  402ad8:	28 00 00 00 80 00 19 1d 	lw $25,128($29)
  402ae0:	43 00 00 00 fe ff 02 19 	addiu $2,$25,-2
  402ae8:	a5 00 00 00 00 00 02 00 	mtc1 $2,$f0
  402af0:	83 00 00 00 00 00 00 00 	cvt.d.w $f0,$f0
  402af8:	75 00 00 00 00 00 06 00 	mul.d $f0,$f0,$f6
  402b00:	a2 00 00 00 03 10 12 00 	lui $18,4099
  402b08:	28 00 00 00 40 de 12 12 	lw $18,-8640($18)
  402b10:	71 00 00 00 00 02 00 02 	add.d $f2,$f2,$f0
  402b18:	43 00 00 00 02 00 11 00 	addiu $17,$0,2
  402b20:	a2 00 00 00 27 10 01 00 	lui $1,4135
  402b28:	38 00 00 00 d8 a4 00 01 	dsz -23336($1)
  402b30:	5c 00 00 00 02 00 02 12 	slti $2,$18,2
  402b38:	37 00 00 00 48 00 02 1d 	s.d $f2,72($29)
  402b40:	06 00 00 00 a2 00 00 02 	bne $2,$0,402dd0 <init_+0x1df8>
  402b48:	43 00 00 00 10 00 05 14 	addiu $5,$20,16
  402b50:	a2 00 00 00 27 10 10 00 	lui $16,4135
  402b58:	43 00 00 00 c8 a4 10 10 	addiu $16,$16,-23352
  402b60:	43 00 00 00 10 00 04 10 	addiu $4,$16,16
  402b68:	2b 00 00 00 e0 80 14 1c 	l.d $f20,-32544($28)
  402b70:	43 00 00 00 01 00 03 12 	addiu $3,$18,1
  402b78:	43 00 00 00 ff ff 02 12 	addiu $2,$18,-1
  402b80:	4f 00 00 00 01 00 02 02 	andi $2,$2,1
  402b88:	5b 00 00 00 00 03 03 11 	slt $3,$17,$3
  402b90:	05 00 00 00 02 00 00 03 	beq $3,$0,402ba0 <init_+0x1bc8>
  402b98:	05 00 00 00 30 00 00 02 	beq $2,$0,402c60 <init_+0x1c88>
  402ba0:	a5 00 00 00 00 00 11 00 	mtc1 $17,$f0
  402ba8:	83 00 00 00 00 00 00 00 	cvt.d.w $f0,$f0
  402bb0:	73 00 00 00 00 00 14 00 	sub.d $f0,$f0,$f20
  402bb8:	a2 00 00 00 03 10 01 00 	lui $1,4099
  402bc0:	2b 00 00 00 b0 de 02 01 	l.d $f2,-8528($1)
  402bc8:	75 00 00 00 00 02 00 02 	mul.d $f2,$f2,$f0
  402bd0:	43 00 00 00 10 00 04 1d 	addiu $4,$29,16
  402bd8:	43 00 00 00 48 00 05 1d 	addiu $5,$29,72
  402be0:	37 00 00 00 10 00 02 1d 	s.d $f2,16($29)
  402be8:	02 00 00 00 22 11 10 00 	jal 404488 <dens_>
  402bf0:	a2 00 00 00 03 10 01 00 	lui $1,4099
  402bf8:	2b 00 00 00 b0 de 02 01 	l.d $f2,-8528($1)
  402c00:	75 00 00 00 00 00 02 00 	mul.d $f0,$f0,$f2
  402c08:	a2 00 00 00 03 10 01 00 	lui $1,4099
  402c10:	2b 00 00 00 b8 de 02 01 	l.d $f2,-8520($1)
  402c18:	75 00 00 00 00 00 02 00 	mul.d $f0,$f0,$f2
  402c20:	2b 00 00 00 10 00 02 10 	l.d $f2,16($16)
  402c28:	43 00 00 00 03 00 11 00 	addiu $17,$0,3
  402c30:	71 00 00 00 00 02 00 02 	add.d $f2,$f2,$f0
  402c38:	43 00 00 00 18 00 05 14 	addiu $5,$20,24
  402c40:	43 00 00 00 18 00 04 10 	addiu $4,$16,24
  402c48:	5c 00 00 00 03 00 02 12 	slti $2,$18,3
  402c50:	37 00 00 00 10 00 02 14 	s.d $f2,16($20)
  402c58:	06 00 00 00 5c 00 00 02 	bne $2,$0,402dd0 <init_+0x1df8>
  402c60:	42 00 00 00 00 13 05 00 	addu $19,$0,$5
  402c68:	42 00 00 00 00 10 04 00 	addu $16,$0,$4
  402c70:	a5 00 00 00 00 00 11 00 	mtc1 $17,$f0
  402c78:	83 00 00 00 00 00 00 00 	cvt.d.w $f0,$f0
  402c80:	73 00 00 00 00 00 14 00 	sub.d $f0,$f0,$f20
  402c88:	a2 00 00 00 03 10 01 00 	lui $1,4099
  402c90:	2b 00 00 00 b0 de 02 01 	l.d $f2,-8528($1)
  402c98:	75 00 00 00 00 00 02 00 	mul.d $f0,$f0,$f2
  402ca0:	43 00 00 00 10 00 04 1d 	addiu $4,$29,16
  402ca8:	43 00 00 00 48 00 05 1d 	addiu $5,$29,72
  402cb0:	37 00 00 00 10 00 00 1d 	s.d $f0,16($29)
  402cb8:	02 00 00 00 22 11 10 00 	jal 404488 <dens_>
  402cc0:	a2 00 00 00 03 10 01 00 	lui $1,4099
  402cc8:	2b 00 00 00 b0 de 02 01 	l.d $f2,-8528($1)
  402cd0:	75 00 00 00 00 00 02 00 	mul.d $f0,$f0,$f2
  402cd8:	a2 00 00 00 03 10 01 00 	lui $1,4099
  402ce0:	2b 00 00 00 b8 de 02 01 	l.d $f2,-8520($1)
  402ce8:	75 00 00 00 00 00 02 00 	mul.d $f0,$f0,$f2
  402cf0:	2b 00 00 00 00 00 02 10 	l.d $f2,0($16)
  402cf8:	71 00 00 00 00 02 00 02 	add.d $f2,$f2,$f0
  402d00:	43 00 00 00 01 00 02 11 	addiu $2,$17,1
  402d08:	a5 00 00 00 00 00 02 00 	mtc1 $2,$f0
  402d10:	83 00 00 00 00 00 00 00 	cvt.d.w $f0,$f0
  402d18:	73 00 00 00 00 00 14 00 	sub.d $f0,$f0,$f20
  402d20:	37 00 00 00 00 00 02 13 	s.d $f2,0($19)
  402d28:	a2 00 00 00 03 10 01 00 	lui $1,4099
  402d30:	2b 00 00 00 b0 de 02 01 	l.d $f2,-8528($1)
  402d38:	75 00 00 00 00 00 02 00 	mul.d $f0,$f0,$f2
  402d40:	43 00 00 00 10 00 04 1d 	addiu $4,$29,16
  402d48:	43 00 00 00 48 00 05 1d 	addiu $5,$29,72
  402d50:	37 00 00 00 10 00 00 1d 	s.d $f0,16($29)
  402d58:	02 00 00 00 22 11 10 00 	jal 404488 <dens_>
  402d60:	a2 00 00 00 03 10 01 00 	lui $1,4099
  402d68:	2b 00 00 00 b0 de 02 01 	l.d $f2,-8528($1)
  402d70:	75 00 00 00 00 00 02 00 	mul.d $f0,$f0,$f2
  402d78:	a2 00 00 00 03 10 01 00 	lui $1,4099
  402d80:	2b 00 00 00 b8 de 02 01 	l.d $f2,-8520($1)
  402d88:	75 00 00 00 00 00 02 00 	mul.d $f0,$f0,$f2
  402d90:	2b 00 00 00 08 00 02 10 	l.d $f2,8($16)
  402d98:	71 00 00 00 00 02 00 02 	add.d $f2,$f2,$f0
  402da0:	43 00 00 00 02 00 11 11 	addiu $17,$17,2
  402da8:	5b 00 00 00 00 02 11 12 	slt $2,$18,$17
  402db0:	43 00 00 00 10 00 10 10 	addiu $16,$16,16
  402db8:	37 00 00 00 08 00 02 13 	s.d $f2,8($19)
  402dc0:	43 00 00 00 10 00 13 13 	addiu $19,$19,16
  402dc8:	05 00 00 00 a8 ff 00 02 	beq $2,$0,402c70 <init_+0x1c98>
  402dd0:	a2 00 00 00 03 10 12 00 	lui $18,4099
  402dd8:	28 00 00 00 40 de 12 12 	lw $18,-8640($18)
  402de0:	43 00 00 00 02 00 11 00 	addiu $17,$0,2
  402de8:	5c 00 00 00 02 00 02 12 	slti $2,$18,2
  402df0:	06 00 00 00 a0 00 00 02 	bne $2,$0,403078 <init_+0x20a0>
  402df8:	43 00 00 00 10 00 05 14 	addiu $5,$20,16
  402e00:	43 00 00 00 01 00 03 12 	addiu $3,$18,1
  402e08:	43 00 00 00 ff ff 02 12 	addiu $2,$18,-1
  402e10:	4f 00 00 00 03 00 04 02 	andi $4,$2,3
  402e18:	5b 00 00 00 00 03 03 11 	slt $3,$17,$3
  402e20:	05 00 00 00 2e 00 00 03 	beq $3,$0,402ee0 <init_+0x1f08>
  402e28:	05 00 00 00 44 00 00 04 	beq $4,$0,402f40 <init_+0x1f68>
  402e30:	5c 00 00 00 02 00 02 04 	slti $2,$4,2
  402e38:	06 00 00 00 28 00 00 02 	bne $2,$0,402ee0 <init_+0x1f08>
  402e40:	5c 00 00 00 03 00 02 04 	slti $2,$4,3
  402e48:	06 00 00 00 10 00 00 02 	bne $2,$0,402e90 <init_+0x1eb8>
  402e50:	55 00 00 00 03 02 12 00 	sll $2,$18,0x3
  402e58:	42 00 00 00 00 02 14 02 	addu $2,$2,$20
  402e60:	2b 00 00 00 10 00 02 14 	l.d $f2,16($20)
  402e68:	2b 00 00 00 00 00 00 02 	l.d $f0,0($2)
  402e70:	77 00 00 00 00 02 00 02 	div.d $f2,$f2,$f0
  402e78:	43 00 00 00 18 00 05 14 	addiu $5,$20,24
  402e80:	43 00 00 00 03 00 11 00 	addiu $17,$0,3
  402e88:	37 00 00 00 10 00 02 14 	s.d $f2,16($20)
  402e90:	a2 00 00 00 03 10 02 00 	lui $2,4099
  402e98:	28 00 00 00 40 de 02 02 	lw $2,-8640($2)
  402ea0:	2b 00 00 00 00 00 02 05 	l.d $f2,0($5)
  402ea8:	55 00 00 00 03 02 02 00 	sll $2,$2,0x3
  402eb0:	42 00 00 00 00 02 14 02 	addu $2,$2,$20
  402eb8:	2b 00 00 00 00 00 00 02 	l.d $f0,0($2)
  402ec0:	77 00 00 00 00 02 00 02 	div.d $f2,$f2,$f0
  402ec8:	43 00 00 00 01 00 11 11 	addiu $17,$17,1
  402ed0:	37 00 00 00 00 00 02 05 	s.d $f2,0($5)
  402ed8:	43 00 00 00 08 00 05 05 	addiu $5,$5,8
  402ee0:	a2 00 00 00 03 10 02 00 	lui $2,4099
  402ee8:	28 00 00 00 40 de 02 02 	lw $2,-8640($2)
  402ef0:	2b 00 00 00 00 00 02 05 	l.d $f2,0($5)
  402ef8:	55 00 00 00 03 02 02 00 	sll $2,$2,0x3
  402f00:	42 00 00 00 00 02 14 02 	addu $2,$2,$20
  402f08:	2b 00 00 00 00 00 00 02 	l.d $f0,0($2)
  402f10:	77 00 00 00 00 02 00 02 	div.d $f2,$f2,$f0
  402f18:	43 00 00 00 01 00 11 11 	addiu $17,$17,1
  402f20:	5b 00 00 00 00 02 11 12 	slt $2,$18,$17
  402f28:	37 00 00 00 00 00 02 05 	s.d $f2,0($5)
  402f30:	43 00 00 00 08 00 05 05 	addiu $5,$5,8
  402f38:	06 00 00 00 4e 00 00 02 	bne $2,$0,403078 <init_+0x20a0>
  402f40:	42 00 00 00 00 03 05 00 	addu $3,$0,$5
  402f48:	42 00 00 00 00 04 03 00 	addu $4,$0,$3
  402f50:	a2 00 00 00 03 10 02 00 	lui $2,4099
  402f58:	28 00 00 00 40 de 02 02 	lw $2,-8640($2)
  402f60:	2b 00 00 00 00 00 00 04 	l.d $f0,0($4)
  402f68:	55 00 00 00 03 02 02 00 	sll $2,$2,0x3
  402f70:	42 00 00 00 00 02 14 02 	addu $2,$2,$20
  402f78:	2b 00 00 00 00 00 02 02 	l.d $f2,0($2)
  402f80:	77 00 00 00 00 00 02 00 	div.d $f0,$f0,$f2
  402f88:	37 00 00 00 00 00 00 03 	s.d $f0,0($3)
  402f90:	a2 00 00 00 03 10 02 00 	lui $2,4099
  402f98:	28 00 00 00 40 de 02 02 	lw $2,-8640($2)
  402fa0:	2b 00 00 00 08 00 00 04 	l.d $f0,8($4)
  402fa8:	55 00 00 00 03 02 02 00 	sll $2,$2,0x3
  402fb0:	42 00 00 00 00 02 14 02 	addu $2,$2,$20
  402fb8:	2b 00 00 00 00 00 02 02 	l.d $f2,0($2)
  402fc0:	77 00 00 00 00 00 02 00 	div.d $f0,$f0,$f2
  402fc8:	37 00 00 00 08 00 00 03 	s.d $f0,8($3)
  402fd0:	a2 00 00 00 03 10 02 00 	lui $2,4099
  402fd8:	28 00 00 00 40 de 02 02 	lw $2,-8640($2)
  402fe0:	2b 00 00 00 10 00 00 04 	l.d $f0,16($4)
  402fe8:	55 00 00 00 03 02 02 00 	sll $2,$2,0x3
  402ff0:	42 00 00 00 00 02 14 02 	addu $2,$2,$20
  402ff8:	2b 00 00 00 00 00 02 02 	l.d $f2,0($2)
  403000:	77 00 00 00 00 00 02 00 	div.d $f0,$f0,$f2
  403008:	37 00 00 00 10 00 00 03 	s.d $f0,16($3)
  403010:	a2 00 00 00 03 10 02 00 	lui $2,4099
  403018:	28 00 00 00 40 de 02 02 	lw $2,-8640($2)
  403020:	2b 00 00 00 18 00 02 04 	l.d $f2,24($4)
  403028:	55 00 00 00 03 02 02 00 	sll $2,$2,0x3
  403030:	42 00 00 00 00 02 14 02 	addu $2,$2,$20
  403038:	2b 00 00 00 00 00 00 02 	l.d $f0,0($2)
  403040:	77 00 00 00 00 02 00 02 	div.d $f2,$f2,$f0
  403048:	43 00 00 00 04 00 11 11 	addiu $17,$17,4
  403050:	43 00 00 00 20 00 04 04 	addiu $4,$4,32
  403058:	5b 00 00 00 00 02 11 12 	slt $2,$18,$17
  403060:	37 00 00 00 18 00 02 03 	s.d $f2,24($3)
  403068:	43 00 00 00 20 00 03 03 	addiu $3,$3,32
  403070:	05 00 00 00 b6 ff 00 02 	beq $2,$0,402f50 <init_+0x1f78>
  403078:	43 00 00 00 70 80 04 1c 	addiu $4,$28,-32656
  403080:	02 00 00 00 46 a6 10 00 	jal 429918 <ranf_>
  403088:	2b 00 00 00 f0 80 1a 1c 	l.d $f26,-32528($28)
  403090:	75 00 00 00 00 00 1a 00 	mul.d $f0,$f0,$f26
  403098:	73 00 00 00 00 0c 00 1e 	sub.d $f12,$f30,$f0
  4030a0:	02 00 00 00 ec 4f 11 00 	jal 453fb0 <log>
  4030a8:	7d 00 00 00 00 0c 00 00 	neg.d $f12,$f0
  4030b0:	97 00 00 00 00 00 00 0c 	sqrt.d $f0,$f12
  4030b8:	91 00 00 00 00 00 00 00 	c.eq.d $f0,$f0
  4030c0:	0c 00 00 00 02 00 00 00 	bc1t 4030d0 <init_+0x20f8>
  4030c8:	02 00 00 00 dc 4e 11 00 	jal 453b70 <sqrt>
  4030d0:	7b 00 00 00 00 18 00 00 	mov.d $f24,$f0
  4030d8:	43 00 00 00 70 80 04 1c 	addiu $4,$28,-32656
  4030e0:	02 00 00 00 46 a6 10 00 	jal 429918 <ranf_>
  4030e8:	a2 00 00 00 00 10 12 00 	lui $18,4096
  4030f0:	43 00 00 00 b8 2c 12 12 	addiu $18,$18,11448
  4030f8:	2b 00 00 00 00 00 02 12 	l.d $f2,0($18)
  403100:	71 00 00 00 00 02 02 02 	add.d $f2,$f2,$f2
  403108:	75 00 00 00 00 16 00 02 	mul.d $f22,$f2,$f0
  403110:	a2 00 00 00 03 10 01 00 	lui $1,4099
  403118:	2b 00 00 00 d0 de 14 01 	l.d $f20,-8496($1)
  403120:	75 00 00 00 00 14 18 14 	mul.d $f20,$f20,$f24
  403128:	7b 00 00 00 00 0c 00 16 	mov.d $f12,$f22
  403130:	02 00 00 00 7c 53 11 00 	jal 454df0 <cos>
  403138:	75 00 00 00 00 14 00 14 	mul.d $f20,$f20,$f0
  403140:	2b 00 00 00 38 00 00 1d 	l.d $f0,56($29)
  403148:	71 00 00 00 00 14 00 14 	add.d $f20,$f20,$f0
  403150:	a2 00 00 00 1d 10 11 00 	lui $17,4125
  403158:	43 00 00 00 a8 d3 11 11 	addiu $17,$17,-11352
  403160:	42 00 00 00 00 02 11 16 	addu $2,$22,$17
  403168:	37 00 00 00 00 00 14 02 	s.d $f20,0($2)
  403170:	a2 00 00 00 03 10 01 00 	lui $1,4099
  403178:	2b 00 00 00 d8 de 14 01 	l.d $f20,-8488($1)
  403180:	75 00 00 00 00 14 18 14 	mul.d $f20,$f20,$f24
  403188:	7b 00 00 00 00 0c 00 16 	mov.d $f12,$f22
  403190:	43 00 00 00 00 10 10 11 	addiu $16,$17,4096
  403198:	42 00 00 00 00 10 10 16 	addu $16,$22,$16
  4031a0:	02 00 00 00 80 52 11 00 	jal 454a00 <sin>
  4031a8:	75 00 00 00 00 14 00 14 	mul.d $f20,$f20,$f0
  4031b0:	2b 00 00 00 40 00 00 1d 	l.d $f0,64($29)
  4031b8:	71 00 00 00 00 14 00 14 	add.d $f20,$f20,$f0
  4031c0:	43 00 00 00 70 80 04 1c 	addiu $4,$28,-32656
  4031c8:	37 00 00 00 00 00 14 10 	s.d $f20,0($16)
  4031d0:	02 00 00 00 46 a6 10 00 	jal 429918 <ranf_>
  4031d8:	75 00 00 00 00 00 1a 00 	mul.d $f0,$f0,$f26
  4031e0:	73 00 00 00 00 0c 00 1e 	sub.d $f12,$f30,$f0
  4031e8:	02 00 00 00 ec 4f 11 00 	jal 453fb0 <log>
  4031f0:	7d 00 00 00 00 0c 00 00 	neg.d $f12,$f0
  4031f8:	97 00 00 00 00 00 00 0c 	sqrt.d $f0,$f12
  403200:	91 00 00 00 00 00 00 00 	c.eq.d $f0,$f0
  403208:	0c 00 00 00 02 00 00 00 	bc1t 403218 <init_+0x2240>
  403210:	02 00 00 00 dc 4e 11 00 	jal 453b70 <sqrt>
  403218:	7b 00 00 00 00 18 00 00 	mov.d $f24,$f0
  403220:	43 00 00 00 70 80 04 1c 	addiu $4,$28,-32656
  403228:	02 00 00 00 46 a6 10 00 	jal 429918 <ranf_>
  403230:	a2 00 00 00 03 10 01 00 	lui $1,4099
  403238:	2b 00 00 00 e0 de 14 01 	l.d $f20,-8480($1)
  403240:	75 00 00 00 00 14 18 14 	mul.d $f20,$f20,$f24
  403248:	2b 00 00 00 00 00 0c 12 	l.d $f12,0($18)
  403250:	71 00 00 00 00 0c 0c 0c 	add.d $f12,$f12,$f12
  403258:	75 00 00 00 00 0c 00 0c 	mul.d $f12,$f12,$f0
  403260:	43 00 00 00 00 20 10 11 	addiu $16,$17,8192
  403268:	42 00 00 00 00 10 10 16 	addu $16,$22,$16
  403270:	02 00 00 00 7c 53 11 00 	jal 454df0 <cos>
  403278:	75 00 00 00 00 14 00 14 	mul.d $f20,$f20,$f0
  403280:	2b 00 00 00 a0 00 0a 1d 	l.d $f10,160($29)
  403288:	71 00 00 00 00 14 0a 14 	add.d $f20,$f20,$f10
  403290:	2b 00 00 00 e8 80 00 1c 	l.d $f0,-32536($28)
  403298:	a5 00 00 00 00 00 1e 02 	mtc1 $30,$f2
  4032a0:	83 00 00 00 00 02 00 02 	cvt.d.w $f2,$f2
  4032a8:	73 00 00 00 00 02 00 02 	sub.d $f2,$f2,$f0
  4032b0:	37 00 00 00 00 00 14 10 	s.d $f20,0($16)
  4032b8:	2b 00 00 00 a8 00 0e 1d 	l.d $f14,168($29)
  4032c0:	75 00 00 00 00 02 0e 02 	mul.d $f2,$f2,$f14
  4032c8:	a2 00 00 00 03 10 01 00 	lui $1,4099
  4032d0:	2b 00 00 00 90 de 00 01 	l.d $f0,-8560($1)
  4032d8:	71 00 00 00 00 1c 00 1c 	add.d $f28,$f28,$f0
  4032e0:	a2 00 00 00 03 10 12 00 	lui $18,4099
  4032e8:	28 00 00 00 40 de 12 12 	lw $18,-8640($18)
  4032f0:	28 00 00 00 78 00 10 1d 	lw $16,120($29)
  4032f8:	73 00 00 00 00 02 02 1e 	sub.d $f2,$f30,$f2
  403300:	5b 00 00 00 00 02 10 12 	slt $2,$18,$16
  403308:	06 00 00 00 14 00 00 02 	bne $2,$0,403360 <init_+0x2388>
  403310:	55 00 00 00 03 02 10 00 	sll $2,$16,0x3
  403318:	42 00 00 00 00 03 14 02 	addu $3,$2,$20
  403320:	2b 00 00 00 00 00 00 03 	l.d $f0,0($3)
  403328:	93 00 00 00 00 00 00 02 	c.lt.d $f2,$f0
  403330:	34 00 00 00 78 00 10 1d 	sw $16,120($29)
  403338:	0c 00 00 00 08 00 00 00 	bc1t 403360 <init_+0x2388>
  403340:	43 00 00 00 08 00 03 03 	addiu $3,$3,8
  403348:	43 00 00 00 01 00 10 10 	addiu $16,$16,1
  403350:	5b 00 00 00 00 02 10 12 	slt $2,$18,$16
  403358:	05 00 00 00 f0 ff 00 02 	beq $2,$0,403320 <init_+0x2348>
  403360:	28 00 00 00 78 00 18 1d 	lw $24,120($29)
  403368:	55 00 00 00 03 02 18 00 	sll $2,$24,0x3
  403370:	a2 00 00 00 27 10 01 00 	lui $1,4135
  403378:	42 00 00 00 00 01 01 02 	addu $1,$2,$1
  403380:	2b 00 00 00 c8 a4 04 01 	l.d $f4,-23352($1)
  403388:	73 00 00 00 00 02 04 02 	sub.d $f2,$f2,$f4
  403390:	a2 00 00 00 03 10 01 00 	lui $1,4099
  403398:	2b 00 00 00 b0 de 06 01 	l.d $f6,-8528($1)
  4033a0:	42 00 00 00 00 02 14 02 	addu $2,$2,$20
  4033a8:	75 00 00 00 00 02 06 02 	mul.d $f2,$f2,$f6
  4033b0:	2b 00 00 00 00 00 00 02 	l.d $f0,0($2)
  4033b8:	73 00 00 00 00 00 04 00 	sub.d $f0,$f0,$f4
  4033c0:	77 00 00 00 00 02 00 02 	div.d $f2,$f2,$f0
  4033c8:	43 00 00 00 fe ff 02 18 	addiu $2,$24,-2
  4033d0:	a5 00 00 00 00 00 02 00 	mtc1 $2,$f0
  4033d8:	83 00 00 00 00 00 00 00 	cvt.d.w $f0,$f0
  4033e0:	75 00 00 00 00 00 06 00 	mul.d $f0,$f0,$f6
  4033e8:	71 00 00 00 00 02 00 02 	add.d $f2,$f2,$f0
  4033f0:	a2 00 00 00 1d 10 10 00 	lui $16,4125
  4033f8:	43 00 00 00 a8 b3 10 10 	addiu $16,$16,-19544
  403400:	42 00 00 00 00 03 10 16 	addu $3,$22,$16
  403408:	37 00 00 00 00 00 02 03 	s.d $f2,0($3)
  403410:	2b 00 00 00 48 00 00 1d 	l.d $f0,72($29)
  403418:	43 00 00 00 00 10 02 10 	addiu $2,$16,4096
  403420:	42 00 00 00 00 02 02 16 	addu $2,$22,$2
  403428:	37 00 00 00 00 00 00 02 	s.d $f0,0($2)
  403430:	a2 00 00 00 00 10 01 00 	lui $1,4096
  403438:	2b 00 00 00 f8 2c 02 01 	l.d $f2,11512($1)
  403440:	a5 00 00 00 00 00 00 00 	mtc1 $0,$f0
  403448:	a5 00 00 00 00 00 00 01 	mtc1 $0,$f1
  403450:	91 00 00 00 00 00 00 02 	c.eq.d $f2,$f0
  403458:	0c 00 00 00 16 00 00 00 	bc1t 4034b8 <init_+0x24e0>
  403460:	2b 00 00 00 00 00 0c 03 	l.d $f12,0($3)
  403468:	2b 00 00 00 68 00 0a 1d 	l.d $f10,104($29)
  403470:	75 00 00 00 00 0c 0c 0a 	mul.d $f12,$f10,$f12
  403478:	43 00 00 00 00 40 10 10 	addiu $16,$16,16384
  403480:	42 00 00 00 00 10 10 16 	addu $16,$22,$16
  403488:	02 00 00 00 7c 53 11 00 	jal 454df0 <cos>
  403490:	2b 00 00 00 88 00 0e 1d 	l.d $f14,136($29)
  403498:	75 00 00 00 00 00 00 0e 	mul.d $f0,$f14,$f0
  4034a0:	2b 00 00 00 00 00 02 10 	l.d $f2,0($16)
  4034a8:	71 00 00 00 00 02 00 02 	add.d $f2,$f2,$f0
  4034b0:	37 00 00 00 00 00 02 10 	s.d $f2,0($16)
  4034b8:	43 00 00 00 ff ff 1e 1e 	addiu $30,$30,-1
  4034c0:	28 00 00 00 34 00 02 1d 	lw $2,52($29)
  4034c8:	43 00 00 00 08 00 16 16 	addiu $22,$22,8
  4034d0:	43 00 00 00 01 00 17 17 	addiu $23,$23,1
  4034d8:	43 00 00 00 ff ff 02 02 	addiu $2,$2,-1
  4034e0:	34 00 00 00 34 00 02 1d 	sw $2,52($29)
  4034e8:	5b 00 00 00 00 02 17 15 	slt $2,$21,$23
  4034f0:	05 00 00 00 1a fd 00 02 	beq $2,$0,402960 <init_+0x1988>
  4034f8:	2b 00 00 00 58 00 00 1d 	l.d $f0,88($29)
  403500:	71 00 00 00 00 00 1c 00 	add.d $f0,$f0,$f28
  403508:	37 00 00 00 58 00 00 1d 	s.d $f0,88($29)
  403510:	a2 00 00 00 03 10 02 00 	lui $2,4099
  403518:	28 00 00 00 34 de 02 02 	lw $2,-8652($2)
  403520:	a2 00 00 00 03 10 05 00 	lui $5,4099
  403528:	43 00 00 00 28 de 05 05 	addiu $5,$5,-8664
  403530:	06 00 00 00 10 00 00 02 	bne $2,$0,403578 <init_+0x25a0>
  403538:	2b 00 00 00 f8 80 00 1c 	l.d $f0,-32520($28)
  403540:	43 00 00 00 02 00 02 00 	addiu $2,$0,2
  403548:	a2 00 00 00 03 10 01 00 	lui $1,4099
  403550:	34 00 00 00 34 de 02 01 	sw $2,-8652($1)
  403558:	a2 00 00 00 1d 10 01 00 	lui $1,4125
  403560:	37 00 00 00 b0 b3 00 01 	s.d $f0,-19536($1)
  403568:	a2 00 00 00 1d 10 01 00 	lui $1,4125
  403570:	37 00 00 00 b8 b3 00 01 	s.d $f0,-19528($1)
  403578:	a2 00 00 00 1d 10 04 00 	lui $4,4125
  403580:	43 00 00 00 b0 b3 04 04 	addiu $4,$4,-19536
  403588:	43 00 00 00 0c 00 05 05 	addiu $5,$5,12
  403590:	43 00 00 00 50 00 06 1d 	addiu $6,$29,80
  403598:	a2 00 00 00 28 10 07 00 	lui $7,4136
  4035a0:	43 00 00 00 58 dd 07 07 	addiu $7,$7,-8872
  4035a8:	02 00 00 00 de cf 10 00 	jal 433f78 <putb_>
  4035b0:	01 00 00 00 f2 05 10 00 	j 4017c8 <init_+0x7f0>
  4035b8:	a2 00 00 00 03 10 02 00 	lui $2,4099
  4035c0:	43 00 00 00 98 c3 02 02 	addiu $2,$2,-15464
  4035c8:	2b 00 00 00 58 1a 00 02 	l.d $f0,6744($2)
  4035d0:	91 00 00 00 00 00 1c 00 	c.eq.d $f0,$f28
  4035d8:	0b 00 00 00 14 00 00 00 	bc1f 403630 <init_+0x2658>
  4035e0:	a2 00 00 00 00 10 01 00 	lui $1,4096
  4035e8:	2b 00 00 00 50 2d 04 01 	l.d $f4,11600($1)
  4035f0:	2b 00 00 00 00 81 00 1c 	l.d $f0,-32512($28)
  4035f8:	75 00 00 00 00 04 00 04 	mul.d $f4,$f4,$f0
  403600:	a2 00 00 00 02 10 01 00 	lui $1,4098
  403608:	2b 00 00 00 60 b0 00 01 	l.d $f0,-20384($1)
  403610:	75 00 00 00 00 02 00 00 	mul.d $f2,$f0,$f0
  403618:	75 00 00 00 00 04 02 04 	mul.d $f4,$f4,$f2
  403620:	37 00 00 00 20 00 00 1d 	s.d $f0,32($29)
  403628:	37 00 00 00 58 1a 04 02 	s.d $f4,6744($2)
  403630:	a2 00 00 00 00 10 01 00 	lui $1,4096
  403638:	2b 00 00 00 18 2e 00 01 	l.d $f0,11800($1)
  403640:	a2 00 00 00 03 10 01 00 	lui $1,4099
  403648:	2b 00 00 00 f0 dd 02 01 	l.d $f2,-8720($1)
  403650:	95 00 00 00 00 00 00 1c 	c.le.d $f28,$f0
  403658:	a2 00 00 00 03 10 01 00 	lui $1,4099
  403660:	2a 00 00 00 24 de 04 01 	l.s $f4,-8668($1)
  403668:	83 00 00 00 00 04 00 04 	cvt.d.w $f4,$f4
  403670:	0c 00 00 00 02 00 00 00 	bc1t 403680 <init_+0x26a8>
  403678:	7d 00 00 00 00 00 00 00 	neg.d $f0,$f0
  403680:	75 00 00 00 00 00 02 00 	mul.d $f0,$f0,$f2
  403688:	77 00 00 00 00 00 04 00 	div.d $f0,$f0,$f4
  403690:	28 00 00 00 60 00 15 1d 	lw $21,96($29)
  403698:	43 00 00 00 01 00 04 00 	addiu $4,$0,1
  4036a0:	37 00 00 00 48 1a 00 02 	s.d $f0,6728($2)
  4036a8:	07 00 00 00 f6 00 00 15 	blez $21,403a88 <init_+0x2ab0>
  4036b0:	a2 00 00 00 9c 10 18 00 	lui $24,4252
  4036b8:	43 00 00 00 70 bb 18 18 	addiu $24,$24,-17552
  4036c0:	43 00 00 00 08 00 10 18 	addiu $16,$24,8
  4036c8:	a2 00 00 00 92 10 19 00 	lui $25,4242
  4036d0:	43 00 00 00 48 1a 19 19 	addiu $25,$25,6728
  4036d8:	43 00 00 00 08 00 0f 19 	addiu $15,$25,8
  4036e0:	a2 00 00 00 88 10 18 00 	lui $24,4232
  4036e8:	43 00 00 00 20 79 18 18 	addiu $24,$24,31008
  4036f0:	43 00 00 00 08 00 0e 18 	addiu $14,$24,8
  4036f8:	a2 00 00 00 7f 10 19 00 	lui $25,4223
  403700:	43 00 00 00 f8 d7 19 19 	addiu $25,$25,-10248
  403708:	43 00 00 00 08 00 0d 19 	addiu $13,$25,8
  403710:	a2 00 00 00 75 10 18 00 	lui $24,4213
  403718:	43 00 00 00 d0 36 18 18 	addiu $24,$24,14032
  403720:	43 00 00 00 08 00 0c 18 	addiu $12,$24,8
  403728:	a2 00 00 00 6c 10 1e 00 	lui $30,4204
  403730:	43 00 00 00 a8 95 1e 1e 	addiu $30,$30,-27224
  403738:	43 00 00 00 08 00 0b 1e 	addiu $11,$30,8
  403740:	a2 00 00 00 13 10 19 00 	lui $25,4115
  403748:	43 00 00 00 80 12 19 19 	addiu $25,$25,4736
  403750:	43 00 00 00 08 00 0a 19 	addiu $10,$25,8
  403758:	a2 00 00 00 09 10 18 00 	lui $24,4105
  403760:	43 00 00 00 58 71 18 18 	addiu $24,$24,29016
  403768:	43 00 00 00 08 00 09 18 	addiu $9,$24,8
  403770:	a2 00 00 00 b9 10 17 00 	lui $23,4281
  403778:	43 00 00 00 e8 9e 17 17 	addiu $23,$23,-24856
  403780:	43 00 00 00 08 00 08 17 	addiu $8,$23,8
  403788:	a2 00 00 00 af 10 16 00 	lui $22,4271
  403790:	43 00 00 00 c0 fd 16 16 	addiu $22,$22,-576
  403798:	43 00 00 00 08 00 07 16 	addiu $7,$22,8
  4037a0:	a2 00 00 00 a5 10 14 00 	lui $20,4261
  4037a8:	43 00 00 00 98 5c 14 14 	addiu $20,$20,23704
  4037b0:	43 00 00 00 08 00 06 14 	addiu $6,$20,8
  4037b8:	a2 00 00 00 3b 10 13 00 	lui $19,4155
  4037c0:	43 00 00 00 a8 6f 13 13 	addiu $19,$19,28584
  4037c8:	43 00 00 00 08 00 05 13 	addiu $5,$19,8
  4037d0:	a2 00 00 00 1d 10 12 00 	lui $18,4125
  4037d8:	43 00 00 00 a8 03 12 12 	addiu $18,$18,936
  4037e0:	43 00 00 00 08 00 11 12 	addiu $17,$18,8
  4037e8:	43 00 00 00 01 00 02 15 	addiu $2,$21,1
  4037f0:	4f 00 00 00 01 00 03 15 	andi $3,$21,1
  4037f8:	5b 00 00 00 00 02 02 04 	slt $2,$4,$2
  403800:	05 00 00 00 02 00 00 02 	beq $2,$0,403810 <init_+0x2838>
  403808:	05 00 00 00 48 00 00 03 	beq $3,$0,403930 <init_+0x2958>
  403810:	43 00 00 00 08 00 10 10 	addiu $16,$16,8
  403818:	43 00 00 00 08 00 0f 0f 	addiu $15,$15,8
  403820:	43 00 00 00 08 00 0e 0e 	addiu $14,$14,8
  403828:	43 00 00 00 08 00 0d 0d 	addiu $13,$13,8
  403830:	43 00 00 00 08 00 0c 0c 	addiu $12,$12,8
  403838:	43 00 00 00 08 00 0b 0b 	addiu $11,$11,8
  403840:	43 00 00 00 08 00 0a 0a 	addiu $10,$10,8
  403848:	43 00 00 00 08 00 09 09 	addiu $9,$9,8
  403850:	43 00 00 00 08 00 08 08 	addiu $8,$8,8
  403858:	43 00 00 00 08 00 07 07 	addiu $7,$7,8
  403860:	43 00 00 00 08 00 06 06 	addiu $6,$6,8
  403868:	43 00 00 00 08 00 05 05 	addiu $5,$5,8
  403870:	43 00 00 00 08 00 11 11 	addiu $17,$17,8
  403878:	43 00 00 00 02 00 04 00 	addiu $4,$0,2
  403880:	5c 00 00 00 02 00 02 15 	slti $2,$21,2
  403888:	38 00 00 00 08 00 00 12 	dsz 8($18)
  403890:	38 00 00 00 08 00 00 13 	dsz 8($19)
  403898:	38 00 00 00 08 00 00 14 	dsz 8($20)
  4038a0:	38 00 00 00 08 00 00 16 	dsz 8($22)
  4038a8:	38 00 00 00 08 00 00 17 	dsz 8($23)
  4038b0:	a2 00 00 00 09 10 01 00 	lui $1,4105
  4038b8:	38 00 00 00 60 71 00 01 	dsz 29024($1)
  4038c0:	a2 00 00 00 13 10 01 00 	lui $1,4115
  4038c8:	38 00 00 00 88 12 00 01 	dsz 4744($1)
  4038d0:	38 00 00 00 08 00 00 1e 	dsz 8($30)
  4038d8:	a2 00 00 00 75 10 01 00 	lui $1,4213
  4038e0:	38 00 00 00 d8 36 00 01 	dsz 14040($1)
  4038e8:	a2 00 00 00 7f 10 01 00 	lui $1,4223
  4038f0:	38 00 00 00 00 d8 00 01 	dsz -10240($1)
  4038f8:	a2 00 00 00 88 10 01 00 	lui $1,4232
  403900:	38 00 00 00 28 79 00 01 	dsz 31016($1)
  403908:	a2 00 00 00 92 10 01 00 	lui $1,4242
  403910:	38 00 00 00 50 1a 00 01 	dsz 6736($1)
  403918:	a2 00 00 00 9c 10 01 00 	lui $1,4252
  403920:	38 00 00 00 78 bb 00 01 	dsz -17544($1)
  403928:	06 00 00 00 56 00 00 02 	bne $2,$0,403a88 <init_+0x2ab0>
  403930:	42 00 00 00 00 03 11 00 	addu $3,$0,$17
  403938:	38 00 00 00 00 00 00 03 	dsz 0($3)
  403940:	38 00 00 00 00 00 00 05 	dsz 0($5)
  403948:	38 00 00 00 00 00 00 06 	dsz 0($6)
  403950:	38 00 00 00 00 00 00 07 	dsz 0($7)
  403958:	38 00 00 00 00 00 00 08 	dsz 0($8)
  403960:	38 00 00 00 00 00 00 09 	dsz 0($9)
  403968:	38 00 00 00 00 00 00 0a 	dsz 0($10)
  403970:	38 00 00 00 00 00 00 0b 	dsz 0($11)
  403978:	38 00 00 00 00 00 00 0c 	dsz 0($12)
  403980:	38 00 00 00 00 00 00 0d 	dsz 0($13)
  403988:	38 00 00 00 00 00 00 0e 	dsz 0($14)
  403990:	38 00 00 00 00 00 00 0f 	dsz 0($15)
  403998:	38 00 00 00 00 00 00 10 	dsz 0($16)
  4039a0:	38 00 00 00 08 00 00 03 	dsz 8($3)
  4039a8:	38 00 00 00 08 00 00 05 	dsz 8($5)
  4039b0:	38 00 00 00 08 00 00 06 	dsz 8($6)
  4039b8:	38 00 00 00 08 00 00 07 	dsz 8($7)
  4039c0:	38 00 00 00 08 00 00 08 	dsz 8($8)
  4039c8:	38 00 00 00 08 00 00 09 	dsz 8($9)
  4039d0:	38 00 00 00 08 00 00 0a 	dsz 8($10)
  4039d8:	38 00 00 00 08 00 00 0b 	dsz 8($11)
  4039e0:	38 00 00 00 08 00 00 0c 	dsz 8($12)
  4039e8:	38 00 00 00 08 00 00 0d 	dsz 8($13)
  4039f0:	38 00 00 00 08 00 00 0e 	dsz 8($14)
  4039f8:	38 00 00 00 08 00 00 0f 	dsz 8($15)
  403a00:	38 00 00 00 08 00 00 10 	dsz 8($16)
  403a08:	43 00 00 00 10 00 10 10 	addiu $16,$16,16
  403a10:	43 00 00 00 10 00 0f 0f 	addiu $15,$15,16
  403a18:	43 00 00 00 10 00 0e 0e 	addiu $14,$14,16
  403a20:	43 00 00 00 10 00 0d 0d 	addiu $13,$13,16
  403a28:	43 00 00 00 10 00 0c 0c 	addiu $12,$12,16
  403a30:	43 00 00 00 10 00 0b 0b 	addiu $11,$11,16
  403a38:	43 00 00 00 10 00 0a 0a 	addiu $10,$10,16
  403a40:	43 00 00 00 10 00 09 09 	addiu $9,$9,16
  403a48:	43 00 00 00 10 00 08 08 	addiu $8,$8,16
  403a50:	43 00 00 00 10 00 07 07 	addiu $7,$7,16
  403a58:	43 00 00 00 10 00 06 06 	addiu $6,$6,16
  403a60:	43 00 00 00 10 00 05 05 	addiu $5,$5,16
  403a68:	43 00 00 00 10 00 03 03 	addiu $3,$3,16
  403a70:	43 00 00 00 02 00 04 04 	addiu $4,$4,2
  403a78:	5b 00 00 00 00 02 04 15 	slt $2,$21,$4
  403a80:	05 00 00 00 ac ff 00 02 	beq $2,$0,403938 <init_+0x2960>
  403a88:	a2 00 00 00 03 10 15 00 	lui $21,4099
  403a90:	28 00 00 00 40 de 15 15 	lw $21,-8640($21)
  403a98:	43 00 00 00 02 00 11 00 	addiu $17,$0,2
  403aa0:	5c 00 00 00 02 00 02 15 	slti $2,$21,2
  403aa8:	06 00 00 00 a8 00 00 02 	bne $2,$0,403d50 <init_+0x2d78>
  403ab0:	2b 00 00 00 e0 80 18 1c 	l.d $f24,-32544($28)
  403ab8:	a2 00 00 00 00 10 1e 00 	lui $30,4096
  403ac0:	43 00 00 00 00 27 1e 1e 	addiu $30,$30,9984
  403ac8:	a2 00 00 00 00 10 16 00 	lui $22,4096
  403ad0:	43 00 00 00 10 2e 16 16 	addiu $22,$22,11792
  403ad8:	a2 00 00 00 03 10 12 00 	lui $18,4099
  403ae0:	28 00 00 00 44 de 12 12 	lw $18,-8636($18)
  403ae8:	a5 00 00 00 00 00 00 1c 	mtc1 $0,$f28
  403af0:	a5 00 00 00 00 00 00 1d 	mtc1 $0,$f29
  403af8:	43 00 00 00 02 00 10 00 	addiu $16,$0,2
  403b00:	5c 00 00 00 02 00 02 12 	slti $2,$18,2
  403b08:	06 00 00 00 84 00 00 02 	bne $2,$0,403d20 <init_+0x2d48>
  403b10:	a5 00 00 00 00 00 11 00 	mtc1 $17,$f0
  403b18:	83 00 00 00 00 00 00 00 	cvt.d.w $f0,$f0
  403b20:	73 00 00 00 00 16 18 00 	sub.d $f22,$f0,$f24
  403b28:	a2 00 00 00 03 10 03 00 	lui $3,4099
  403b30:	28 00 00 00 3c de 03 03 	lw $3,-8644($3)
  403b38:	43 00 00 00 ff ff 02 10 	addiu $2,$16,-1
  403b40:	46 00 00 00 00 00 03 02 	mult $2,$3
  403b48:	a2 00 00 00 03 10 01 00 	lui $1,4099
  403b50:	2b 00 00 00 b0 de 04 01 	l.d $f4,-8528($1)
  403b58:	75 00 00 00 00 04 04 16 	mul.d $f4,$f22,$f4
  403b60:	a5 00 00 00 00 00 10 02 	mtc1 $16,$f2
  403b68:	83 00 00 00 00 02 00 02 	cvt.d.w $f2,$f2
  403b70:	73 00 00 00 00 02 18 02 	sub.d $f2,$f2,$f24
  403b78:	a2 00 00 00 03 10 01 00 	lui $1,4099
  403b80:	2b 00 00 00 b8 de 00 01 	l.d $f0,-8520($1)
  403b88:	75 00 00 00 00 02 00 02 	mul.d $f2,$f2,$f0
  403b90:	a2 00 00 00 00 10 14 00 	lui $20,4096
  403b98:	28 00 00 00 30 27 14 14 	lw $20,10032($20)
  403ba0:	4c 00 00 00 00 03 00 00 	mflo $3
  403ba8:	37 00 00 00 10 00 04 1d 	s.d $f4,16($29)
  403bb0:	37 00 00 00 18 00 02 1d 	s.d $f2,24($29)
  403bb8:	43 00 00 00 01 00 02 00 	addiu $2,$0,1
  403bc0:	a2 00 00 00 00 10 01 00 	lui $1,4096
  403bc8:	34 00 00 00 28 27 02 01 	sw $2,10024($1)
  403bd0:	42 00 00 00 00 17 03 11 	addu $23,$17,$3
  403bd8:	07 00 00 00 4a 00 00 14 	blez $20,403d08 <init_+0x2d30>
  403be0:	55 00 00 00 03 02 17 00 	sll $2,$23,0x3
  403be8:	a2 00 00 00 1d 10 19 00 	lui $25,4125
  403bf0:	43 00 00 00 a8 03 19 19 	addiu $25,$25,936
  403bf8:	42 00 00 00 00 13 19 02 	addu $19,$2,$25
  403c00:	43 00 00 00 10 00 04 1d 	addiu $4,$29,16
  403c08:	43 00 00 00 18 00 05 1d 	addiu $5,$29,24
  403c10:	02 00 00 00 22 11 10 00 	jal 404488 <dens_>
  403c18:	a2 00 00 00 00 10 05 00 	lui $5,4096
  403c20:	28 00 00 00 28 27 05 05 	lw $5,10024($5)
  403c28:	43 00 00 00 80 80 04 1c 	addiu $4,$28,-32640
  403c30:	7b 00 00 00 00 14 00 00 	mov.d $f20,$f0
  403c38:	55 00 00 00 03 05 05 00 	sll $5,$5,0x3
  403c40:	42 00 00 00 00 05 16 05 	addu $5,$5,$22
  403c48:	02 00 00 00 c0 4e 11 00 	jal 453b00 <d_sign>
  403c50:	a2 00 00 00 00 10 02 00 	lui $2,4096
  403c58:	28 00 00 00 28 27 02 02 	lw $2,10024($2)
  403c60:	55 00 00 00 02 02 02 00 	sll $2,$2,0x2
  403c68:	42 00 00 00 00 02 1e 02 	addu $2,$2,$30
  403c70:	28 00 00 00 30 00 03 02 	lw $3,48($2)
  403c78:	28 00 00 00 94 00 02 02 	lw $2,148($2)
  403c80:	46 00 00 00 00 00 02 03 	mult $3,$2
  403c88:	75 00 00 00 00 02 00 14 	mul.d $f2,$f20,$f0
  403c90:	4c 00 00 00 00 02 00 00 	mflo $2
  403c98:	06 00 00 00 04 00 00 02 	bne $2,$0,403cb0 <init_+0x2cd8>
  403ca0:	a5 00 00 00 00 00 00 02 	mtc1 $0,$f2
  403ca8:	a5 00 00 00 00 00 00 03 	mtc1 $0,$f3
  403cb0:	2b 00 00 00 00 00 00 13 	l.d $f0,0($19)
  403cb8:	73 00 00 00 00 00 02 00 	sub.d $f0,$f0,$f2
  403cc0:	37 00 00 00 00 00 00 13 	s.d $f0,0($19)
  403cc8:	a2 00 00 00 00 10 02 00 	lui $2,4096
  403cd0:	28 00 00 00 28 27 02 02 	lw $2,10024($2)
  403cd8:	71 00 00 00 00 1c 02 1c 	add.d $f28,$f28,$f2
  403ce0:	43 00 00 00 01 00 02 02 	addiu $2,$2,1
  403ce8:	a2 00 00 00 00 10 01 00 	lui $1,4096
  403cf0:	34 00 00 00 28 27 02 01 	sw $2,10024($1)
  403cf8:	5b 00 00 00 00 02 02 14 	slt $2,$20,$2
  403d00:	05 00 00 00 be ff 00 02 	beq $2,$0,403c00 <init_+0x2c28>
  403d08:	43 00 00 00 01 00 10 10 	addiu $16,$16,1
  403d10:	5b 00 00 00 00 02 10 12 	slt $2,$18,$16
  403d18:	05 00 00 00 82 ff 00 02 	beq $2,$0,403b28 <init_+0x2b50>
  403d20:	2b 00 00 00 58 00 00 1d 	l.d $f0,88($29)
  403d28:	73 00 00 00 00 00 1c 00 	sub.d $f0,$f0,$f28
  403d30:	43 00 00 00 01 00 11 11 	addiu $17,$17,1
  403d38:	5b 00 00 00 00 02 11 15 	slt $2,$21,$17
  403d40:	37 00 00 00 58 00 00 1d 	s.d $f0,88($29)
  403d48:	05 00 00 00 62 ff 00 02 	beq $2,$0,403ad8 <init_+0x2b00>
  403d50:	a2 00 00 00 03 10 04 00 	lui $4,4099
  403d58:	43 00 00 00 40 e2 04 04 	addiu $4,$4,-7616
  403d60:	02 00 00 00 68 35 11 00 	jal 44d5a0 <s_wsfe>
  403d68:	43 00 00 00 64 80 04 1c 	addiu $4,$28,-32668
  403d70:	43 00 00 00 58 00 05 1d 	addiu $5,$29,88
  403d78:	43 00 00 00 08 00 06 00 	addiu $6,$0,8
  403d80:	02 00 00 00 04 42 11 00 	jal 450810 <do_fio>
  403d88:	02 00 00 00 7a 44 11 00 	jal 4511e8 <e_wsfe>
  403d90:	a2 00 00 00 1d 10 04 00 	lui $4,4125
  403d98:	43 00 00 00 b0 03 04 04 	addiu $4,$4,944
  403da0:	a2 00 00 00 62 10 05 00 	lui $5,4194
  403da8:	43 00 00 00 80 f4 05 05 	addiu $5,$5,-2944
  403db0:	43 00 00 00 60 00 06 1d 	addiu $6,$29,96
  403db8:	02 00 00 00 e2 a5 10 00 	jal 429788 <ecwr_>
  403dc0:	a2 00 00 00 03 10 03 00 	lui $3,4099
  403dc8:	28 00 00 00 38 de 03 03 	lw $3,-8648($3)
  403dd0:	43 00 00 00 01 00 02 00 	addiu $2,$0,1
  403dd8:	06 00 00 00 08 00 02 03 	bne $3,$2,403e00 <init_+0x2e28>
  403de0:	a2 00 00 00 00 10 02 00 	lui $2,4096
  403de8:	28 00 00 00 10 27 02 02 	lw $2,10000($2)
  403df0:	06 00 00 00 02 00 00 02 	bne $2,$0,403e00 <init_+0x2e28>
  403df8:	02 00 00 00 42 67 10 00 	jal 419d08 <inibnd_>
  403e00:	a2 00 00 00 00 10 01 00 	lui $1,4096
  403e08:	2b 00 00 00 f8 2c 04 01 	l.d $f4,11512($1)
  403e10:	a5 00 00 00 00 00 00 16 	mtc1 $0,$f22
  403e18:	a5 00 00 00 00 00 00 17 	mtc1 $0,$f23
  403e20:	91 00 00 00 00 00 16 04 	c.eq.d $f4,$f22
  403e28:	0c 00 00 00 00 01 00 00 	bc1t 404230 <init_+0x3258>
  403e30:	a2 00 00 00 00 10 01 00 	lui $1,4096
  403e38:	2b 00 00 00 b8 2c 00 01 	l.d $f0,11448($1)
  403e40:	71 00 00 00 00 00 00 00 	add.d $f0,$f0,$f0
  403e48:	a2 00 00 00 00 10 01 00 	lui $1,4096
  403e50:	2b 00 00 00 00 2d 02 01 	l.d $f2,11520($1)
  403e58:	75 00 00 00 00 00 02 00 	mul.d $f0,$f0,$f2
  403e60:	a2 00 00 00 03 10 01 00 	lui $1,4099
  403e68:	2b 00 00 00 78 de 02 01 	l.d $f2,-8584($1)
  403e70:	77 00 00 00 00 00 02 00 	div.d $f0,$f0,$f2
  403e78:	75 00 00 00 00 02 00 00 	mul.d $f2,$f0,$f0
  403e80:	37 00 00 00 68 00 00 1d 	s.d $f0,104($29)
  403e88:	2b 00 00 00 d8 80 00 1c 	l.d $f0,-32552($28)
  403e90:	71 00 00 00 00 0c 00 02 	add.d $f12,$f2,$f0
  403e98:	97 00 00 00 00 00 00 0c 	sqrt.d $f0,$f12
  403ea0:	2b 00 00 00 68 00 0a 1d 	l.d $f10,104($29)
  403ea8:	7d 00 00 00 00 14 00 04 	neg.d $f20,$f4
  403eb0:	91 00 00 00 00 00 00 00 	c.eq.d $f0,$f0
  403eb8:	37 00 00 00 20 00 0a 1d 	s.d $f10,32($29)
  403ec0:	0c 00 00 00 02 00 00 00 	bc1t 403ed0 <init_+0x2ef8>
  403ec8:	02 00 00 00 dc 4e 11 00 	jal 453b70 <sqrt>
  403ed0:	a2 00 00 00 03 10 15 00 	lui $21,4099
  403ed8:	28 00 00 00 3c de 15 15 	lw $21,-8644($21)
  403ee0:	43 00 00 00 01 00 12 00 	addiu $18,$0,1
  403ee8:	7b 00 00 00 00 18 00 00 	mov.d $f24,$f0
  403ef0:	37 00 00 00 10 00 16 1d 	s.d $f22,16($29)
  403ef8:	07 00 00 00 cc 00 00 15 	blez $21,404230 <init_+0x3258>
  403f00:	a2 00 00 00 09 10 11 00 	lui $17,4105
  403f08:	43 00 00 00 58 71 11 11 	addiu $17,$17,29016
  403f10:	a2 00 00 00 13 10 10 00 	lui $16,4115
  403f18:	43 00 00 00 80 12 10 10 	addiu $16,$16,4736
  403f20:	2b 00 00 00 10 00 0c 1d 	l.d $f12,16($29)
  403f28:	2b 00 00 00 68 00 0e 1d 	l.d $f14,104($29)
  403f30:	75 00 00 00 00 0c 0c 0e 	mul.d $f12,$f14,$f12
  403f38:	02 00 00 00 7c 53 11 00 	jal 454df0 <cos>
  403f40:	2b 00 00 00 10 00 02 1d 	l.d $f2,16($29)
  403f48:	2b 00 00 00 68 00 0a 1d 	l.d $f10,104($29)
  403f50:	75 00 00 00 00 02 02 0a 	mul.d $f2,$f10,$f2
  403f58:	a2 00 00 00 03 10 01 00 	lui $1,4099
  403f60:	2b 00 00 00 88 de 0c 01 	l.d $f12,-8568($1)
  403f68:	75 00 00 00 00 0c 0c 18 	mul.d $f12,$f24,$f12
  403f70:	75 00 00 00 00 16 00 14 	mul.d $f22,$f20,$f0
  403f78:	71 00 00 00 00 0c 0c 02 	add.d $f12,$f2,$f12
  403f80:	02 00 00 00 7c 53 11 00 	jal 454df0 <cos>
  403f88:	75 00 00 00 00 00 00 14 	mul.d $f0,$f20,$f0
  403f90:	a2 00 00 00 03 10 14 00 	lui $20,4099
  403f98:	28 00 00 00 48 de 14 14 	lw $20,-8632($20)
  403fa0:	42 00 00 00 00 04 12 00 	addu $4,$0,$18
  403fa8:	43 00 00 00 01 00 05 00 	addiu $5,$0,1
  403fb0:	07 00 00 00 8e 00 00 14 	blez $20,4041f0 <init_+0x3218>
  403fb8:	43 00 00 00 01 00 02 14 	addiu $2,$20,1
  403fc0:	4f 00 00 00 03 00 03 14 	andi $3,$20,3
  403fc8:	5b 00 00 00 00 02 02 05 	slt $2,$5,$2
  403fd0:	05 00 00 00 2e 00 00 02 	beq $2,$0,404090 <init_+0x30b8>
  403fd8:	05 00 00 00 3e 00 00 03 	beq $3,$0,4040d8 <init_+0x3100>
  403fe0:	5c 00 00 00 02 00 02 03 	slti $2,$3,2
  403fe8:	06 00 00 00 28 00 00 02 	bne $2,$0,404090 <init_+0x30b8>
  403ff0:	5c 00 00 00 03 00 02 03 	slti $2,$3,3
  403ff8:	06 00 00 00 12 00 00 02 	bne $2,$0,404048 <init_+0x3070>
  404000:	55 00 00 00 03 02 12 00 	sll $2,$18,0x3
  404008:	42 00 00 00 00 03 11 02 	addu $3,$2,$17
  404010:	42 00 00 00 00 02 10 02 	addu $2,$2,$16
  404018:	37 00 00 00 00 00 16 03 	s.d $f22,0($3)
  404020:	37 00 00 00 00 00 00 02 	s.d $f0,0($2)
  404028:	a2 00 00 00 03 10 02 00 	lui $2,4099
  404030:	28 00 00 00 3c de 02 02 	lw $2,-8644($2)
  404038:	43 00 00 00 02 00 05 00 	addiu $5,$0,2
  404040:	42 00 00 00 00 04 02 12 	addu $4,$18,$2
  404048:	55 00 00 00 03 02 04 00 	sll $2,$4,0x3
  404050:	42 00 00 00 00 03 11 02 	addu $3,$2,$17
  404058:	42 00 00 00 00 02 10 02 	addu $2,$2,$16
  404060:	37 00 00 00 00 00 16 03 	s.d $f22,0($3)
  404068:	37 00 00 00 00 00 00 02 	s.d $f0,0($2)
  404070:	a2 00 00 00 03 10 02 00 	lui $2,4099
  404078:	28 00 00 00 3c de 02 02 	lw $2,-8644($2)
  404080:	43 00 00 00 01 00 05 05 	addiu $5,$5,1
  404088:	42 00 00 00 00 04 02 04 	addu $4,$4,$2
  404090:	55 00 00 00 03 02 04 00 	sll $2,$4,0x3
  404098:	42 00 00 00 00 03 11 02 	addu $3,$2,$17
  4040a0:	42 00 00 00 00 02 10 02 	addu $2,$2,$16
  4040a8:	37 00 00 00 00 00 16 03 	s.d $f22,0($3)
  4040b0:	37 00 00 00 00 00 00 02 	s.d $f0,0($2)
  4040b8:	a2 00 00 00 03 10 02 00 	lui $2,4099
  4040c0:	28 00 00 00 3c de 02 02 	lw $2,-8644($2)
  4040c8:	43 00 00 00 01 00 05 05 	addiu $5,$5,1
  4040d0:	01 00 00 00 76 10 10 00 	j 4041d8 <init_+0x3200>
  4040d8:	55 00 00 00 03 03 04 00 	sll $3,$4,0x3
  4040e0:	42 00 00 00 00 02 11 03 	addu $2,$3,$17
  4040e8:	42 00 00 00 00 03 10 03 	addu $3,$3,$16
  4040f0:	37 00 00 00 00 00 16 02 	s.d $f22,0($2)
  4040f8:	37 00 00 00 00 00 00 03 	s.d $f0,0($3)
  404100:	a2 00 00 00 03 10 02 00 	lui $2,4099
  404108:	28 00 00 00 3c de 02 02 	lw $2,-8644($2)
  404110:	42 00 00 00 00 04 02 04 	addu $4,$4,$2
  404118:	55 00 00 00 03 03 04 00 	sll $3,$4,0x3
  404120:	42 00 00 00 00 02 11 03 	addu $2,$3,$17
  404128:	42 00 00 00 00 03 10 03 	addu $3,$3,$16
  404130:	37 00 00 00 00 00 16 02 	s.d $f22,0($2)
  404138:	37 00 00 00 00 00 00 03 	s.d $f0,0($3)
  404140:	a2 00 00 00 03 10 02 00 	lui $2,4099
  404148:	28 00 00 00 3c de 02 02 	lw $2,-8644($2)
  404150:	42 00 00 00 00 04 02 04 	addu $4,$4,$2
  404158:	55 00 00 00 03 03 04 00 	sll $3,$4,0x3
  404160:	42 00 00 00 00 02 11 03 	addu $2,$3,$17
  404168:	42 00 00 00 00 03 10 03 	addu $3,$3,$16
  404170:	37 00 00 00 00 00 16 02 	s.d $f22,0($2)
  404178:	37 00 00 00 00 00 00 03 	s.d $f0,0($3)
  404180:	a2 00 00 00 03 10 02 00 	lui $2,4099
  404188:	28 00 00 00 3c de 02 02 	lw $2,-8644($2)
  404190:	42 00 00 00 00 04 02 04 	addu $4,$4,$2
  404198:	55 00 00 00 03 03 04 00 	sll $3,$4,0x3
  4041a0:	42 00 00 00 00 02 11 03 	addu $2,$3,$17
  4041a8:	42 00 00 00 00 03 10 03 	addu $3,$3,$16
  4041b0:	37 00 00 00 00 00 16 02 	s.d $f22,0($2)
  4041b8:	37 00 00 00 00 00 00 03 	s.d $f0,0($3)
  4041c0:	a2 00 00 00 03 10 02 00 	lui $2,4099
  4041c8:	28 00 00 00 3c de 02 02 	lw $2,-8644($2)
  4041d0:	43 00 00 00 04 00 05 05 	addiu $5,$5,4
  4041d8:	5b 00 00 00 00 03 05 14 	slt $3,$20,$5
  4041e0:	42 00 00 00 00 04 02 04 	addu $4,$4,$2
  4041e8:	05 00 00 00 ba ff 00 03 	beq $3,$0,4040d8 <init_+0x3100>
  4041f0:	2b 00 00 00 10 00 00 1d 	l.d $f0,16($29)
  4041f8:	a2 00 00 00 03 10 01 00 	lui $1,4099
  404200:	2b 00 00 00 b0 de 02 01 	l.d $f2,-8528($1)
  404208:	71 00 00 00 00 00 02 00 	add.d $f0,$f0,$f2
  404210:	43 00 00 00 01 00 12 12 	addiu $18,$18,1
  404218:	5b 00 00 00 00 02 12 15 	slt $2,$21,$18
  404220:	37 00 00 00 10 00 00 1d 	s.d $f0,16($29)
  404228:	05 00 00 00 3c ff 00 02 	beq $2,$0,403f20 <init_+0x2f48>
  404230:	a2 00 00 00 03 10 04 00 	lui $4,4099
  404238:	43 00 00 00 54 e2 04 04 	addiu $4,$4,-7596
  404240:	02 00 00 00 68 35 11 00 	jal 44d5a0 <s_wsfe>
  404248:	02 00 00 00 7a 44 11 00 	jal 4511e8 <e_wsfe>
  404250:	a2 00 00 00 00 10 02 00 	lui $2,4096
  404258:	28 00 00 00 24 27 02 02 	lw $2,10020($2)
  404260:	06 00 00 00 08 00 00 02 	bne $2,$0,404288 <init_+0x32b0>
  404268:	a2 00 00 00 03 10 04 00 	lui $4,4099
  404270:	43 00 00 00 68 e2 04 04 	addiu $4,$4,-7576
  404278:	02 00 00 00 68 35 11 00 	jal 44d5a0 <s_wsfe>
  404280:	02 00 00 00 7a 44 11 00 	jal 4511e8 <e_wsfe>
  404288:	a2 00 00 00 00 10 03 00 	lui $3,4096
  404290:	28 00 00 00 24 27 03 03 	lw $3,10020($3)
  404298:	43 00 00 00 01 00 02 00 	addiu $2,$0,1
  4042a0:	06 00 00 00 08 00 02 03 	bne $3,$2,4042c8 <init_+0x32f0>
  4042a8:	a2 00 00 00 03 10 04 00 	lui $4,4099
  4042b0:	43 00 00 00 7c e2 04 04 	addiu $4,$4,-7556
  4042b8:	02 00 00 00 68 35 11 00 	jal 44d5a0 <s_wsfe>
  4042c0:	02 00 00 00 7a 44 11 00 	jal 4511e8 <e_wsfe>
  4042c8:	a2 00 00 00 00 10 03 00 	lui $3,4096
  4042d0:	28 00 00 00 24 27 03 03 	lw $3,10020($3)
  4042d8:	43 00 00 00 02 00 02 00 	addiu $2,$0,2
  4042e0:	06 00 00 00 08 00 02 03 	bne $3,$2,404308 <init_+0x3330>
  4042e8:	a2 00 00 00 03 10 04 00 	lui $4,4099
  4042f0:	43 00 00 00 90 e2 04 04 	addiu $4,$4,-7536
  4042f8:	02 00 00 00 68 35 11 00 	jal 44d5a0 <s_wsfe>
  404300:	02 00 00 00 7a 44 11 00 	jal 4511e8 <e_wsfe>
  404308:	a2 00 00 00 03 10 01 00 	lui $1,4099
  404310:	2b 00 00 00 88 de 14 01 	l.d $f20,-8568($1)
  404318:	a2 00 00 00 03 10 01 00 	lui $1,4099
  404320:	38 00 00 00 88 de 00 01 	dsz -8568($1)
  404328:	02 00 00 00 da 12 10 00 	jal 404b68 <trans_>
  404330:	a2 00 00 00 03 10 01 00 	lui $1,4099
  404338:	37 00 00 00 88 de 14 01 	s.d $f20,-8568($1)
  404340:	02 00 00 00 50 3d 10 00 	jal 40f540 <field_>
  404348:	43 00 00 00 ff ff 02 00 	addiu $2,$0,-1
  404350:	a2 00 00 00 03 10 01 00 	lui $1,4099
  404358:	34 00 00 00 30 de 02 01 	sw $2,-8656($1)
  404360:	02 00 00 00 3a 6f 10 00 	jal 41bce8 <diagns_>
  404368:	42 00 00 00 00 02 00 00 	addu $2,$0,$0
  404370:	28 00 00 00 dc 00 1f 1d 	lw $31,220($29)
  404378:	28 00 00 00 d8 00 1e 1d 	lw $30,216($29)
  404380:	28 00 00 00 d4 00 17 1d 	lw $23,212($29)
  404388:	28 00 00 00 d0 00 16 1d 	lw $22,208($29)
  404390:	28 00 00 00 cc 00 15 1d 	lw $21,204($29)
  404398:	28 00 00 00 c8 00 14 1d 	lw $20,200($29)
  4043a0:	28 00 00 00 c4 00 13 1d 	lw $19,196($29)
  4043a8:	28 00 00 00 c0 00 12 1d 	lw $18,192($29)
  4043b0:	28 00 00 00 bc 00 11 1d 	lw $17,188($29)
  4043b8:	28 00 00 00 b8 00 10 1d 	lw $16,184($29)
  4043c0:	2b 00 00 00 08 01 1e 1d 	l.d $f30,264($29)
  4043c8:	2b 00 00 00 00 01 1c 1d 	l.d $f28,256($29)
  4043d0:	2b 00 00 00 f8 00 1a 1d 	l.d $f26,248($29)
  4043d8:	2b 00 00 00 f0 00 18 1d 	l.d $f24,240($29)
  4043e0:	2b 00 00 00 e8 00 16 1d 	l.d $f22,232($29)
  4043e8:	2b 00 00 00 e0 00 14 1d 	l.d $f20,224($29)
  4043f0:	43 00 00 00 10 01 1d 1d 	addiu $29,$29,272
  4043f8:	03 00 00 00 00 00 00 1f 	jr $31

00404400 <ip2_>:
  404400:	43 00 00 00 e0 ff 1d 1d 	addiu $29,$29,-32
  404408:	34 00 00 00 10 00 1f 1d 	sw $31,16($29)
  404410:	37 00 00 00 18 00 14 1d 	s.d $f20,24($29)
  404418:	2b 00 00 00 00 00 0c 04 	l.d $f12,0($4)
  404420:	02 00 00 00 ec 4f 11 00 	jal 453fb0 <log>
  404428:	2b 00 00 00 10 81 0c 1c 	l.d $f12,-32496($28)
  404430:	7b 00 00 00 00 14 00 00 	mov.d $f20,$f0
  404438:	02 00 00 00 ec 4f 11 00 	jal 453fb0 <log>
  404440:	77 00 00 00 00 14 00 14 	div.d $f20,$f20,$f0
  404448:	2b 00 00 00 18 81 00 1c 	l.d $f0,-32488($28)
  404450:	71 00 00 00 00 14 00 14 	add.d $f20,$f20,$f0
  404458:	85 00 00 00 00 00 00 14 	cvt.w.d $f0,$f20
  404460:	a3 00 00 00 00 00 02 00 	mfc1 $2,$f0
  404468:	28 00 00 00 10 00 1f 1d 	lw $31,16($29)
  404470:	2b 00 00 00 18 00 14 1d 	l.d $f20,24($29)
  404478:	43 00 00 00 20 00 1d 1d 	addiu $29,$29,32
  404480:	03 00 00 00 00 00 00 1f 	jr $31

00404488 <dens_>:
  404488:	43 00 00 00 e0 ff 1d 1d 	addiu $29,$29,-32
  404490:	34 00 00 00 10 00 10 1d 	sw $16,16($29)
  404498:	42 00 00 00 00 10 05 00 	addu $16,$0,$5
  4044a0:	34 00 00 00 14 00 1f 1d 	sw $31,20($29)
  4044a8:	37 00 00 00 18 00 14 1d 	s.d $f20,24($29)
  4044b0:	02 00 00 00 40 11 10 00 	jal 404500 <densx_>
  4044b8:	42 00 00 00 00 04 10 00 	addu $4,$0,$16
  4044c0:	7b 00 00 00 00 14 00 00 	mov.d $f20,$f0
  4044c8:	02 00 00 00 60 11 10 00 	jal 404580 <densy_>
  4044d0:	75 00 00 00 00 00 00 14 	mul.d $f0,$f20,$f0
  4044d8:	28 00 00 00 14 00 1f 1d 	lw $31,20($29)
  4044e0:	28 00 00 00 10 00 10 1d 	lw $16,16($29)
  4044e8:	2b 00 00 00 18 00 14 1d 	l.d $f20,24($29)
  4044f0:	43 00 00 00 20 00 1d 1d 	addiu $29,$29,32
  4044f8:	03 00 00 00 00 00 00 1f 	jr $31

00404500 <densx_>:
  404500:	43 00 00 00 e0 ff 1d 1d 	addiu $29,$29,-32
  404508:	a2 00 00 00 03 10 02 00 	lui $2,4099
  404510:	43 00 00 00 78 de 02 02 	addiu $2,$2,-8584
  404518:	a2 00 00 00 00 10 05 00 	lui $5,4096
  404520:	43 00 00 00 60 28 05 05 	addiu $5,$5,10336
  404528:	34 00 00 00 10 00 02 1d 	sw $2,16($29)
  404530:	43 00 00 00 c8 fe 02 05 	addiu $2,$5,-312
  404538:	a2 00 00 00 02 10 06 00 	lui $6,4098
  404540:	43 00 00 00 10 b5 06 06 	addiu $6,$6,-19184
  404548:	43 00 00 00 90 01 07 06 	addiu $7,$6,400
  404550:	34 00 00 00 18 00 1f 1d 	sw $31,24($29)
  404558:	34 00 00 00 14 00 02 1d 	sw $2,20($29)
  404560:	02 00 00 00 80 11 10 00 	jal 404600 <denpt_>
  404568:	28 00 00 00 18 00 1f 1d 	lw $31,24($29)
  404570:	43 00 00 00 20 00 1d 1d 	addiu $29,$29,32
  404578:	03 00 00 00 00 00 00 1f 	jr $31

00404580 <densy_>:
  404580:	43 00 00 00 e0 ff 1d 1d 	addiu $29,$29,-32
  404588:	a2 00 00 00 03 10 02 00 	lui $2,4099
  404590:	43 00 00 00 80 de 02 02 	addiu $2,$2,-8576
  404598:	a2 00 00 00 00 10 05 00 	lui $5,4096
  4045a0:	43 00 00 00 c8 28 05 05 	addiu $5,$5,10440
  4045a8:	34 00 00 00 10 00 02 1d 	sw $2,16($29)
  4045b0:	43 00 00 00 60 fe 02 05 	addiu $2,$5,-416
  4045b8:	a2 00 00 00 02 10 06 00 	lui $6,4098
  4045c0:	43 00 00 00 30 b8 06 06 	addiu $6,$6,-18384
  4045c8:	43 00 00 00 90 01 07 06 	addiu $7,$6,400
  4045d0:	34 00 00 00 18 00 1f 1d 	sw $31,24($29)
  4045d8:	34 00 00 00 14 00 02 1d 	sw $2,20($29)
  4045e0:	02 00 00 00 80 11 10 00 	jal 404600 <denpt_>
  4045e8:	28 00 00 00 18 00 1f 1d 	lw $31,24($29)
  4045f0:	43 00 00 00 20 00 1d 1d 	addiu $29,$29,32
  4045f8:	03 00 00 00 00 00 00 1f 	jr $31

00404600 <denpt_>:
  404600:	42 00 00 00 00 0e 04 00 	addu $14,$0,$4
  404608:	43 00 00 00 01 00 0a 00 	addiu $10,$0,1
  404610:	28 00 00 00 14 00 02 1d 	lw $2,20($29)
  404618:	43 00 00 00 fc ff 05 05 	addiu $5,$5,-4
  404620:	28 00 00 00 04 00 09 05 	lw $9,4($5)
  404628:	28 00 00 00 10 00 0f 1d 	lw $15,16($29)
  404630:	28 00 00 00 00 00 02 02 	lw $2,0($2)
  404638:	43 00 00 00 f8 ff 07 07 	addiu $7,$7,-8
  404640:	43 00 00 00 f8 ff 06 06 	addiu $6,$6,-8
  404648:	05 00 00 00 70 00 0a 02 	beq $2,$10,404810 <denpt_+0x210>
  404650:	42 00 00 00 00 0d 02 00 	addu $13,$0,$2
  404658:	43 00 00 00 02 00 0b 00 	addiu $11,$0,2
  404660:	5c 00 00 00 02 00 02 0d 	slti $2,$13,2
  404668:	06 00 00 00 68 00 00 02 	bne $2,$0,404810 <denpt_+0x210>
  404670:	43 00 00 00 08 00 08 05 	addiu $8,$5,8
  404678:	43 00 00 00 01 00 02 0d 	addiu $2,$13,1
  404680:	43 00 00 00 ff ff 03 0d 	addiu $3,$13,-1
  404688:	4f 00 00 00 03 00 03 03 	andi $3,$3,3
  404690:	5b 00 00 00 00 02 02 0b 	slt $2,$11,$2
  404698:	05 00 00 00 20 00 00 02 	beq $2,$0,404720 <denpt_+0x120>
  4046a0:	05 00 00 00 2e 00 00 03 	beq $3,$0,404760 <denpt_+0x160>
  4046a8:	5c 00 00 00 02 00 02 03 	slti $2,$3,2
  4046b0:	06 00 00 00 1a 00 00 02 	bne $2,$0,404720 <denpt_+0x120>
  4046b8:	5c 00 00 00 03 00 02 03 	slti $2,$3,3
  4046c0:	06 00 00 00 0a 00 00 02 	bne $2,$0,4046f0 <denpt_+0xf0>
  4046c8:	43 00 00 00 01 00 0a 09 	addiu $10,$9,1
  4046d0:	28 00 00 00 08 00 02 05 	lw $2,8($5)
  4046d8:	43 00 00 00 0c 00 08 05 	addiu $8,$5,12
  4046e0:	43 00 00 00 03 00 0b 00 	addiu $11,$0,3
  4046e8:	42 00 00 00 00 09 02 09 	addu $9,$9,$2
  4046f0:	28 00 00 00 fc ff 02 08 	lw $2,-4($8)
  4046f8:	28 00 00 00 00 00 03 08 	lw $3,0($8)
  404700:	43 00 00 00 01 00 0b 0b 	addiu $11,$11,1
  404708:	42 00 00 00 00 0a 02 0a 	addu $10,$10,$2
  404710:	42 00 00 00 00 09 03 09 	addu $9,$9,$3
  404718:	43 00 00 00 04 00 08 08 	addiu $8,$8,4
  404720:	43 00 00 00 01 00 0b 0b 	addiu $11,$11,1
  404728:	28 00 00 00 fc ff 02 08 	lw $2,-4($8)
  404730:	28 00 00 00 00 00 03 08 	lw $3,0($8)
  404738:	5b 00 00 00 00 0c 0b 0d 	slt $12,$13,$11
  404740:	42 00 00 00 00 0a 02 0a 	addu $10,$10,$2
  404748:	42 00 00 00 00 09 03 09 	addu $9,$9,$3
  404750:	43 00 00 00 04 00 08 08 	addiu $8,$8,4
  404758:	06 00 00 00 2c 00 00 0c 	bne $12,$0,404810 <denpt_+0x210>
  404760:	42 00 00 00 00 05 08 00 	addu $5,$0,$8
  404768:	43 00 00 00 04 00 0b 0b 	addiu $11,$11,4
  404770:	28 00 00 00 fc ff 02 08 	lw $2,-4($8)
  404778:	28 00 00 00 00 00 03 05 	lw $3,0($5)
  404780:	5b 00 00 00 00 0c 0b 0d 	slt $12,$13,$11
  404788:	42 00 00 00 00 0a 02 0a 	addu $10,$10,$2
  404790:	42 00 00 00 00 09 03 09 	addu $9,$9,$3
  404798:	28 00 00 00 00 00 02 08 	lw $2,0($8)
  4047a0:	28 00 00 00 04 00 03 05 	lw $3,4($5)
  4047a8:	28 00 00 00 04 00 04 08 	lw $4,4($8)
  4047b0:	42 00 00 00 00 0a 02 0a 	addu $10,$10,$2
  4047b8:	42 00 00 00 00 09 03 09 	addu $9,$9,$3
  4047c0:	42 00 00 00 00 0a 04 0a 	addu $10,$10,$4
  4047c8:	28 00 00 00 08 00 02 05 	lw $2,8($5)
  4047d0:	28 00 00 00 08 00 03 08 	lw $3,8($8)
  4047d8:	28 00 00 00 0c 00 04 05 	lw $4,12($5)
  4047e0:	42 00 00 00 00 09 02 09 	addu $9,$9,$2
  4047e8:	42 00 00 00 00 0a 03 0a 	addu $10,$10,$3
  4047f0:	42 00 00 00 00 09 04 09 	addu $9,$9,$4
  4047f8:	43 00 00 00 10 00 05 05 	addiu $5,$5,16
  404800:	43 00 00 00 10 00 08 08 	addiu $8,$8,16
  404808:	05 00 00 00 d6 ff 00 0c 	beq $12,$0,404768 <denpt_+0x168>
  404810:	55 00 00 00 03 02 09 00 	sll $2,$9,0x3
  404818:	42 00 00 00 00 03 06 02 	addu $3,$2,$6
  404820:	2b 00 00 00 00 00 00 03 	l.d $f0,0($3)
  404828:	a5 00 00 00 00 00 00 06 	mtc1 $0,$f6
  404830:	a5 00 00 00 00 00 00 07 	mtc1 $0,$f7
  404838:	91 00 00 00 00 00 06 00 	c.eq.d $f0,$f6
  404840:	0b 00 00 00 04 00 00 00 	bc1f 404858 <denpt_+0x258>
  404848:	2b 00 00 00 00 00 00 0f 	l.d $f0,0($15)
  404850:	37 00 00 00 00 00 00 03 	s.d $f0,0($3)
  404858:	55 00 00 00 03 04 0a 00 	sll $4,$10,0x3
  404860:	42 00 00 00 00 02 06 04 	addu $2,$4,$6
  404868:	2b 00 00 00 00 00 02 0e 	l.d $f2,0($14)
  404870:	2b 00 00 00 00 00 04 02 	l.d $f4,0($2)
  404878:	95 00 00 00 00 00 02 04 	c.le.d $f4,$f2
  404880:	0b 00 00 00 06 00 00 00 	bc1f 4048a0 <denpt_+0x2a0>
  404888:	2b 00 00 00 00 00 00 03 	l.d $f0,0($3)
  404890:	95 00 00 00 00 00 00 02 	c.le.d $f2,$f0
  404898:	0c 00 00 00 04 00 00 00 	bc1t 4048b0 <denpt_+0x2b0>
  4048a0:	7b 00 00 00 00 00 00 06 	mov.d $f0,$f6
  4048a8:	01 00 00 00 d8 12 10 00 	j 404b60 <denpt_+0x560>
  4048b0:	91 00 00 00 00 00 04 02 	c.eq.d $f2,$f4
  4048b8:	0b 00 00 00 04 00 00 00 	bc1f 4048d0 <denpt_+0x2d0>
  4048c0:	42 00 00 00 00 02 07 04 	addu $2,$4,$7
  4048c8:	2b 00 00 00 00 00 0c 02 	l.d $f12,0($2)
  4048d0:	42 00 00 00 00 0d 09 00 	addu $13,$0,$9
  4048d8:	43 00 00 00 01 00 08 0a 	addiu $8,$10,1
  4048e0:	5b 00 00 00 00 02 08 0d 	slt $2,$13,$8
  4048e8:	06 00 00 00 9a 00 00 02 	bne $2,$0,404b58 <denpt_+0x558>
  4048f0:	55 00 00 00 03 02 08 00 	sll $2,$8,0x3
  4048f8:	42 00 00 00 00 07 07 02 	addu $7,$2,$7
  404900:	42 00 00 00 00 06 06 02 	addu $6,$2,$6
  404908:	7b 00 00 00 00 08 00 02 	mov.d $f8,$f2
  404910:	43 00 00 00 01 00 02 0d 	addiu $2,$13,1
  404918:	45 00 00 00 00 03 08 02 	subu $3,$2,$8
  404920:	4f 00 00 00 01 00 03 03 	andi $3,$3,1
  404928:	5b 00 00 00 00 02 02 08 	slt $2,$8,$2
  404930:	05 00 00 00 02 00 00 02 	beq $2,$0,404940 <denpt_+0x340>
  404938:	05 00 00 00 2c 00 00 03 	beq $3,$0,4049f0 <denpt_+0x3f0>
  404940:	2b 00 00 00 00 00 06 06 	l.d $f6,0($6)
  404948:	91 00 00 00 00 00 06 08 	c.eq.d $f8,$f6
  404950:	0b 00 00 00 02 00 00 00 	bc1f 404960 <denpt_+0x360>
  404958:	2b 00 00 00 00 00 0c 07 	l.d $f12,0($7)
  404960:	2b 00 00 00 f8 ff 0a 06 	l.d $f10,-8($6)
  404968:	93 00 00 00 00 00 08 0a 	c.lt.d $f10,$f8
  404970:	0b 00 00 00 14 00 00 00 	bc1f 4049c8 <denpt_+0x3c8>
  404978:	93 00 00 00 00 00 06 08 	c.lt.d $f8,$f6
  404980:	0b 00 00 00 10 00 00 00 	bc1f 4049c8 <denpt_+0x3c8>
  404988:	2b 00 00 00 00 00 04 07 	l.d $f4,0($7)
  404990:	73 00 00 00 00 02 06 08 	sub.d $f2,$f8,$f6
  404998:	2b 00 00 00 f8 ff 00 07 	l.d $f0,-8($7)
  4049a0:	73 00 00 00 00 00 00 04 	sub.d $f0,$f4,$f0
  4049a8:	75 00 00 00 00 00 02 00 	mul.d $f0,$f0,$f2
  4049b0:	73 00 00 00 00 02 0a 06 	sub.d $f2,$f6,$f10
  4049b8:	77 00 00 00 00 00 02 00 	div.d $f0,$f0,$f2
  4049c0:	71 00 00 00 00 0c 04 00 	add.d $f12,$f0,$f4
  4049c8:	43 00 00 00 08 00 07 07 	addiu $7,$7,8
  4049d0:	43 00 00 00 08 00 06 06 	addiu $6,$6,8
  4049d8:	43 00 00 00 01 00 08 08 	addiu $8,$8,1
  4049e0:	5b 00 00 00 00 02 08 0d 	slt $2,$13,$8
  4049e8:	06 00 00 00 5a 00 00 02 	bne $2,$0,404b58 <denpt_+0x558>
  4049f0:	42 00 00 00 00 05 07 00 	addu $5,$0,$7
  4049f8:	42 00 00 00 00 04 07 00 	addu $4,$0,$7
  404a00:	42 00 00 00 00 03 06 00 	addu $3,$0,$6
  404a08:	2b 00 00 00 00 00 06 03 	l.d $f6,0($3)
  404a10:	91 00 00 00 00 00 06 08 	c.eq.d $f8,$f6
  404a18:	0b 00 00 00 02 00 00 00 	bc1f 404a28 <denpt_+0x428>
  404a20:	2b 00 00 00 00 00 0c 04 	l.d $f12,0($4)
  404a28:	2b 00 00 00 f8 ff 0a 06 	l.d $f10,-8($6)
  404a30:	93 00 00 00 00 00 08 0a 	c.lt.d $f10,$f8
  404a38:	0b 00 00 00 14 00 00 00 	bc1f 404a90 <denpt_+0x490>
  404a40:	93 00 00 00 00 00 06 08 	c.lt.d $f8,$f6
  404a48:	0b 00 00 00 10 00 00 00 	bc1f 404a90 <denpt_+0x490>
  404a50:	2b 00 00 00 00 00 04 05 	l.d $f4,0($5)
  404a58:	73 00 00 00 00 02 06 08 	sub.d $f2,$f8,$f6
  404a60:	2b 00 00 00 f8 ff 00 07 	l.d $f0,-8($7)
  404a68:	73 00 00 00 00 00 00 04 	sub.d $f0,$f4,$f0
  404a70:	75 00 00 00 00 00 02 00 	mul.d $f0,$f0,$f2
  404a78:	73 00 00 00 00 02 0a 06 	sub.d $f2,$f6,$f10
  404a80:	77 00 00 00 00 00 02 00 	div.d $f0,$f0,$f2
  404a88:	71 00 00 00 00 0c 04 00 	add.d $f12,$f0,$f4
  404a90:	2b 00 00 00 08 00 06 03 	l.d $f6,8($3)
  404a98:	91 00 00 00 00 00 06 08 	c.eq.d $f8,$f6
  404aa0:	0b 00 00 00 02 00 00 00 	bc1f 404ab0 <denpt_+0x4b0>
  404aa8:	2b 00 00 00 08 00 0c 04 	l.d $f12,8($4)
  404ab0:	2b 00 00 00 00 00 0a 06 	l.d $f10,0($6)
  404ab8:	93 00 00 00 00 00 08 0a 	c.lt.d $f10,$f8
  404ac0:	0b 00 00 00 14 00 00 00 	bc1f 404b18 <denpt_+0x518>
  404ac8:	93 00 00 00 00 00 06 08 	c.lt.d $f8,$f6
  404ad0:	0b 00 00 00 10 00 00 00 	bc1f 404b18 <denpt_+0x518>
  404ad8:	2b 00 00 00 08 00 04 05 	l.d $f4,8($5)
  404ae0:	73 00 00 00 00 02 06 08 	sub.d $f2,$f8,$f6
  404ae8:	2b 00 00 00 00 00 00 07 	l.d $f0,0($7)
  404af0:	73 00 00 00 00 00 00 04 	sub.d $f0,$f4,$f0
  404af8:	75 00 00 00 00 00 02 00 	mul.d $f0,$f0,$f2
  404b00:	73 00 00 00 00 02 0a 06 	sub.d $f2,$f6,$f10
  404b08:	77 00 00 00 00 00 02 00 	div.d $f0,$f0,$f2
  404b10:	71 00 00 00 00 0c 04 00 	add.d $f12,$f0,$f4
  404b18:	43 00 00 00 10 00 05 05 	addiu $5,$5,16
  404b20:	43 00 00 00 10 00 04 04 	addiu $4,$4,16
  404b28:	43 00 00 00 10 00 07 07 	addiu $7,$7,16
  404b30:	43 00 00 00 10 00 03 03 	addiu $3,$3,16
  404b38:	43 00 00 00 10 00 06 06 	addiu $6,$6,16
  404b40:	43 00 00 00 02 00 08 08 	addiu $8,$8,2
  404b48:	5b 00 00 00 00 02 08 0d 	slt $2,$13,$8
  404b50:	05 00 00 00 ac ff 00 02 	beq $2,$0,404a08 <denpt_+0x408>
  404b58:	7b 00 00 00 00 00 00 0c 	mov.d $f0,$f12
  404b60:	03 00 00 00 00 00 00 1f 	jr $31

00404b68 <trans_>:
  404b68:	a2 00 00 00 03 10 02 00 	lui $2,4099
  404b70:	28 00 00 00 28 de 02 02 	lw $2,-8664($2)
  404b78:	a2 00 00 00 03 10 03 00 	lui $3,4099
  404b80:	28 00 00 00 2c de 03 03 	lw $3,-8660($3)
  404b88:	43 00 00 00 02 00 04 02 	addiu $4,$2,2
  404b90:	43 00 00 00 02 00 05 03 	addiu $5,$3,2
  404b98:	46 00 00 00 00 00 05 04 	mult $4,$5
  404ba0:	43 00 00 00 90 ff 1d 1d 	addiu $29,$29,-112
  404ba8:	43 00 00 00 01 00 09 00 	addiu $9,$0,1
  404bb0:	34 00 00 00 64 00 1f 1d 	sw $31,100($29)
  404bb8:	34 00 00 00 60 00 1e 1d 	sw $30,96($29)
  404bc0:	34 00 00 00 5c 00 17 1d 	sw $23,92($29)
  404bc8:	34 00 00 00 58 00 16 1d 	sw $22,88($29)
  404bd0:	34 00 00 00 54 00 15 1d 	sw $21,84($29)
  404bd8:	34 00 00 00 50 00 14 1d 	sw $20,80($29)
  404be0:	34 00 00 00 4c 00 13 1d 	sw $19,76($29)
  404be8:	34 00 00 00 48 00 12 1d 	sw $18,72($29)
  404bf0:	34 00 00 00 44 00 11 1d 	sw $17,68($29)
  404bf8:	34 00 00 00 40 00 10 1d 	sw $16,64($29)
  404c00:	37 00 00 00 68 00 14 1d 	s.d $f20,104($29)
  404c08:	a2 00 00 00 03 10 01 00 	lui $1,4099
  404c10:	34 00 00 00 1c de 00 01 	sw $0,-8676($1)
  404c18:	4c 00 00 00 00 06 00 00 	mflo $6
  404c20:	43 00 00 00 01 00 02 02 	addiu $2,$2,1
  404c28:	43 00 00 00 01 00 03 03 	addiu $3,$3,1
  404c30:	a2 00 00 00 03 10 01 00 	lui $1,4099
  404c38:	34 00 00 00 40 de 02 01 	sw $2,-8640($1)
  404c40:	a2 00 00 00 03 10 01 00 	lui $1,4099
  404c48:	34 00 00 00 3c de 04 01 	sw $4,-8644($1)
  404c50:	a2 00 00 00 03 10 01 00 	lui $1,4099
  404c58:	34 00 00 00 44 de 03 01 	sw $3,-8636($1)
  404c60:	a2 00 00 00 03 10 01 00 	lui $1,4099
  404c68:	34 00 00 00 48 de 05 01 	sw $5,-8632($1)
  404c70:	34 00 00 00 30 00 06 1d 	sw $6,48($29)
  404c78:	07 00 00 00 94 00 00 06 	blez $6,404ed0 <trans_+0x368>
  404c80:	a2 00 00 00 58 10 0d 00 	lui $13,4184
  404c88:	43 00 00 00 48 53 0d 0d 	addiu $13,$13,21320
  404c90:	43 00 00 00 08 00 07 0d 	addiu $7,$13,8
  404c98:	a2 00 00 00 4f 10 0c 00 	lui $12,4175
  404ca0:	43 00 00 00 20 b2 0c 0c 	addiu $12,$12,-19936
  404ca8:	43 00 00 00 08 00 05 0c 	addiu $5,$12,8
  404cb0:	a2 00 00 00 45 10 0b 00 	lui $11,4165
  404cb8:	43 00 00 00 f8 10 0b 0b 	addiu $11,$11,4344
  404cc0:	43 00 00 00 08 00 04 0b 	addiu $4,$11,8
  404cc8:	a2 00 00 00 1d 10 0a 00 	lui $10,4125
  404cd0:	43 00 00 00 a8 03 0a 0a 	addiu $10,$10,936
  404cd8:	43 00 00 00 08 00 08 0a 	addiu $8,$10,8
  404ce0:	43 00 00 00 01 00 02 06 	addiu $2,$6,1
  404ce8:	4f 00 00 00 03 00 03 06 	andi $3,$6,3
  404cf0:	5b 00 00 00 00 02 02 09 	slt $2,$9,$2
  404cf8:	05 00 00 00 2e 00 00 02 	beq $2,$0,404db8 <trans_+0x250>
  404d00:	05 00 00 00 42 00 00 03 	beq $3,$0,404e10 <trans_+0x2a8>
  404d08:	5c 00 00 00 02 00 02 03 	slti $2,$3,2
  404d10:	06 00 00 00 28 00 00 02 	bne $2,$0,404db8 <trans_+0x250>
  404d18:	5c 00 00 00 03 00 02 03 	slti $2,$3,3
  404d20:	06 00 00 00 12 00 00 02 	bne $2,$0,404d70 <trans_+0x208>
  404d28:	43 00 00 00 08 00 07 07 	addiu $7,$7,8
  404d30:	43 00 00 00 08 00 05 05 	addiu $5,$5,8
  404d38:	43 00 00 00 08 00 04 04 	addiu $4,$4,8
  404d40:	43 00 00 00 08 00 08 08 	addiu $8,$8,8
  404d48:	43 00 00 00 02 00 09 00 	addiu $9,$0,2
  404d50:	38 00 00 00 08 00 00 0a 	dsz 8($10)
  404d58:	38 00 00 00 08 00 00 0b 	dsz 8($11)
  404d60:	38 00 00 00 08 00 00 0c 	dsz 8($12)
  404d68:	38 00 00 00 08 00 00 0d 	dsz 8($13)
  404d70:	38 00 00 00 00 00 00 08 	dsz 0($8)
  404d78:	38 00 00 00 00 00 00 04 	dsz 0($4)
  404d80:	38 00 00 00 00 00 00 05 	dsz 0($5)
  404d88:	38 00 00 00 00 00 00 07 	dsz 0($7)
  404d90:	43 00 00 00 08 00 07 07 	addiu $7,$7,8
  404d98:	43 00 00 00 08 00 05 05 	addiu $5,$5,8
  404da0:	43 00 00 00 08 00 04 04 	addiu $4,$4,8
  404da8:	43 00 00 00 08 00 08 08 	addiu $8,$8,8
  404db0:	43 00 00 00 01 00 09 09 	addiu $9,$9,1
  404db8:	38 00 00 00 00 00 00 08 	dsz 0($8)
  404dc0:	38 00 00 00 00 00 00 04 	dsz 0($4)
  404dc8:	38 00 00 00 00 00 00 05 	dsz 0($5)
  404dd0:	38 00 00 00 00 00 00 07 	dsz 0($7)
  404dd8:	43 00 00 00 08 00 07 07 	addiu $7,$7,8
  404de0:	43 00 00 00 08 00 05 05 	addiu $5,$5,8
  404de8:	43 00 00 00 08 00 04 04 	addiu $4,$4,8
  404df0:	43 00 00 00 08 00 08 08 	addiu $8,$8,8
  404df8:	43 00 00 00 01 00 09 09 	addiu $9,$9,1
  404e00:	5b 00 00 00 00 02 09 06 	slt $2,$6,$9
  404e08:	06 00 00 00 30 00 00 02 	bne $2,$0,404ed0 <trans_+0x368>
  404e10:	42 00 00 00 00 03 08 00 	addu $3,$0,$8
  404e18:	38 00 00 00 00 00 00 03 	dsz 0($3)
  404e20:	38 00 00 00 00 00 00 04 	dsz 0($4)
  404e28:	38 00 00 00 00 00 00 05 	dsz 0($5)
  404e30:	38 00 00 00 00 00 00 07 	dsz 0($7)
  404e38:	38 00 00 00 08 00 00 03 	dsz 8($3)
  404e40:	38 00 00 00 08 00 00 04 	dsz 8($4)
  404e48:	38 00 00 00 08 00 00 05 	dsz 8($5)
  404e50:	38 00 00 00 08 00 00 07 	dsz 8($7)
  404e58:	38 00 00 00 10 00 00 03 	dsz 16($3)
  404e60:	38 00 00 00 10 00 00 04 	dsz 16($4)
  404e68:	38 00 00 00 10 00 00 05 	dsz 16($5)
  404e70:	38 00 00 00 10 00 00 07 	dsz 16($7)
  404e78:	38 00 00 00 18 00 00 03 	dsz 24($3)
  404e80:	38 00 00 00 18 00 00 04 	dsz 24($4)
  404e88:	38 00 00 00 18 00 00 05 	dsz 24($5)
  404e90:	38 00 00 00 18 00 00 07 	dsz 24($7)
  404e98:	43 00 00 00 20 00 07 07 	addiu $7,$7,32
  404ea0:	43 00 00 00 20 00 05 05 	addiu $5,$5,32
  404ea8:	43 00 00 00 20 00 04 04 	addiu $4,$4,32
  404eb0:	43 00 00 00 20 00 03 03 	addiu $3,$3,32
  404eb8:	43 00 00 00 04 00 09 09 	addiu $9,$9,4
  404ec0:	5b 00 00 00 00 02 09 06 	slt $2,$6,$9
  404ec8:	05 00 00 00 d2 ff 00 02 	beq $2,$0,404e18 <trans_+0x2b0>
  404ed0:	a2 00 00 00 1d 10 04 00 	lui $4,4125
  404ed8:	43 00 00 00 b0 03 04 04 	addiu $4,$4,944
  404ee0:	a2 00 00 00 62 10 05 00 	lui $5,4194
  404ee8:	43 00 00 00 80 f4 05 05 	addiu $5,$5,-2944
  404ef0:	43 00 00 00 30 00 06 1d 	addiu $6,$29,48
  404ef8:	02 00 00 00 8a a5 10 00 	jal 429628 <ecrd_>
  404f00:	02 00 00 00 fa 69 10 00 	jal 41a7e8 <laspow_>
  404f08:	34 00 00 00 38 00 00 1d 	sw $0,56($29)
  404f10:	a2 00 00 00 1d 10 04 00 	lui $4,4125
  404f18:	43 00 00 00 b0 b3 04 04 	addiu $4,$4,-19536
  404f20:	a2 00 00 00 03 10 10 00 	lui $16,4099
  404f28:	43 00 00 00 34 de 10 10 	addiu $16,$16,-8652
  404f30:	42 00 00 00 00 05 10 00 	addu $5,$0,$16
  404f38:	43 00 00 00 34 00 06 1d 	addiu $6,$29,52
  404f40:	a2 00 00 00 28 10 07 00 	lui $7,4136
  404f48:	43 00 00 00 58 dd 07 07 	addiu $7,$7,-8872
  404f50:	02 00 00 00 be cf 10 00 	jal 433ef8 <getb_>
  404f58:	28 00 00 00 34 00 03 1d 	lw $3,52($29)
  404f60:	43 00 00 00 01 00 02 00 	addiu $2,$0,1
  404f68:	43 00 00 00 f4 ff 10 10 	addiu $16,$16,-12
  404f70:	a2 00 00 00 03 10 01 00 	lui $1,4099
  404f78:	34 00 00 00 30 de 02 01 	sw $2,-8656($1)
  404f80:	05 00 00 00 5e 01 00 03 	beq $3,$0,405500 <trans_+0x998>
  404f88:	a2 00 00 00 00 10 02 00 	lui $2,4096
  404f90:	28 00 00 00 28 27 02 02 	lw $2,10024($2)
  404f98:	0a 00 00 00 02 00 00 03 	bgez $3,404fa8 <trans_+0x440>
  404fa0:	45 00 00 00 00 03 03 00 	subu $3,$0,$3
  404fa8:	05 00 00 00 90 00 03 02 	beq $2,$3,4051f0 <trans_+0x688>
  404fb0:	a2 00 00 00 00 10 02 00 	lui $2,4096
  404fb8:	43 00 00 00 b8 2c 02 02 	addiu $2,$2,11448
  404fc0:	a2 00 00 00 00 10 01 00 	lui $1,4096
  404fc8:	34 00 00 00 28 27 03 01 	sw $3,10024($1)
  404fd0:	55 00 00 00 03 03 03 00 	sll $3,$3,0x3
  404fd8:	42 00 00 00 00 03 02 03 	addu $3,$3,$2
  404fe0:	2b 00 00 00 58 01 02 03 	l.d $f2,344($3)
  404fe8:	a5 00 00 00 00 00 00 00 	mtc1 $0,$f0
  404ff0:	a5 00 00 00 00 00 00 01 	mtc1 $0,$f1
  404ff8:	a2 00 00 00 03 10 01 00 	lui $1,4099
  405000:	37 00 00 00 90 de 02 01 	s.d $f2,-8560($1)
  405008:	2b 00 00 00 90 00 04 03 	l.d $f4,144($3)
  405010:	95 00 00 00 00 00 02 00 	c.le.d $f0,$f2
  405018:	0b 00 00 00 04 00 00 00 	bc1f 405030 <trans_+0x4c8>
  405020:	75 00 00 00 00 00 02 04 	mul.d $f0,$f4,$f2
  405028:	01 00 00 00 10 14 10 00 	j 405040 <trans_+0x4d8>
  405030:	7d 00 00 00 00 00 00 02 	neg.d $f0,$f2
  405038:	75 00 00 00 00 00 00 04 	mul.d $f0,$f4,$f0
  405040:	a2 00 00 00 00 10 03 00 	lui $3,4096
  405048:	28 00 00 00 28 27 03 03 	lw $3,10024($3)
  405050:	a2 00 00 00 01 00 02 00 	lui $2,1
  405058:	51 00 00 00 a0 83 02 02 	ori $2,$2,33696
  405060:	a2 00 00 00 00 10 04 00 	lui $4,4096
  405068:	43 00 00 00 b8 2c 04 04 	addiu $4,$4,11448
  405070:	55 00 00 00 03 05 03 00 	sll $5,$3,0x3
  405078:	42 00 00 00 00 05 04 05 	addu $5,$5,$4
  405080:	42 00 00 00 00 02 02 05 	addu $2,$5,$2
  405088:	37 00 00 00 70 00 00 10 	s.d $f0,112($16)
  405090:	2b 00 00 00 00 00 00 02 	l.d $f0,0($2)
  405098:	a2 00 00 00 01 00 02 00 	lui $2,1
  4050a0:	51 00 00 00 68 84 02 02 	ori $2,$2,33896
  4050a8:	42 00 00 00 00 02 02 05 	addu $2,$5,$2
  4050b0:	a2 00 00 00 03 10 01 00 	lui $1,4099
  4050b8:	37 00 00 00 d0 de 00 01 	s.d $f0,-8496($1)
  4050c0:	2b 00 00 00 00 00 00 02 	l.d $f0,0($2)
  4050c8:	a2 00 00 00 01 00 02 00 	lui $2,1
  4050d0:	51 00 00 00 30 85 02 02 	ori $2,$2,34096
  4050d8:	42 00 00 00 00 02 02 05 	addu $2,$5,$2
  4050e0:	a2 00 00 00 03 10 01 00 	lui $1,4099
  4050e8:	37 00 00 00 d8 de 00 01 	s.d $f0,-8488($1)
  4050f0:	2b 00 00 00 00 00 00 02 	l.d $f0,0($2)
  4050f8:	55 00 00 00 02 03 03 00 	sll $3,$3,0x2
  405100:	a2 00 00 00 00 10 02 00 	lui $2,4096
  405108:	43 00 00 00 00 27 02 02 	addiu $2,$2,9984
  405110:	42 00 00 00 00 03 02 03 	addu $3,$3,$2
  405118:	a2 00 00 00 03 10 01 00 	lui $1,4099
  405120:	37 00 00 00 e0 de 00 01 	s.d $f0,-8480($1)
  405128:	28 00 00 00 2c 02 02 03 	lw $2,556($3)
  405130:	a2 00 00 00 03 10 01 00 	lui $1,4099
  405138:	34 00 00 00 4c de 02 01 	sw $2,-8628($1)
  405140:	28 00 00 00 90 02 02 03 	lw $2,656($3)
  405148:	a2 00 00 00 03 10 01 00 	lui $1,4099
  405150:	34 00 00 00 50 de 02 01 	sw $2,-8624($1)
  405158:	28 00 00 00 f4 02 02 03 	lw $2,756($3)
  405160:	a2 00 00 00 03 10 01 00 	lui $1,4099
  405168:	34 00 00 00 54 de 02 01 	sw $2,-8620($1)
  405170:	28 00 00 00 58 03 03 03 	lw $3,856($3)
  405178:	a2 00 00 00 01 00 02 00 	lui $2,1
  405180:	51 00 00 00 90 8e 02 02 	ori $2,$2,36496
  405188:	42 00 00 00 00 02 02 05 	addu $2,$5,$2
  405190:	a2 00 00 00 03 10 01 00 	lui $1,4099
  405198:	34 00 00 00 58 de 03 01 	sw $3,-8616($1)
  4051a0:	2b 00 00 00 00 00 00 02 	l.d $f0,0($2)
  4051a8:	a2 00 00 00 01 00 02 00 	lui $2,1
  4051b0:	51 00 00 00 58 8f 02 02 	ori $2,$2,36696
  4051b8:	42 00 00 00 00 05 02 05 	addu $5,$5,$2
  4051c0:	a2 00 00 00 03 10 01 00 	lui $1,4099
  4051c8:	37 00 00 00 a0 de 00 01 	s.d $f0,-8544($1)
  4051d0:	2b 00 00 00 00 00 00 05 	l.d $f0,0($5)
  4051d8:	a2 00 00 00 03 10 01 00 	lui $1,4099
  4051e0:	37 00 00 00 a8 de 00 01 	s.d $f0,-8536($1)
  4051e8:	02 00 00 00 f6 28 10 00 	jal 40a3d8 <setinj_>
  4051f0:	a2 00 00 00 03 10 02 00 	lui $2,4099
  4051f8:	28 00 00 00 1c de 02 02 	lw $2,-8676($2)
  405200:	a2 00 00 00 03 10 01 00 	lui $1,4099
  405208:	38 00 00 00 e8 de 00 01 	dsz -8472($1)
  405210:	06 00 00 00 b6 00 00 02 	bne $2,$0,4054f0 <trans_+0x988>
  405218:	a2 00 00 00 03 10 01 00 	lui $1,4099
  405220:	2b 00 00 00 90 de 00 01 	l.d $f0,-8560($1)
  405228:	a5 00 00 00 00 00 00 02 	mtc1 $0,$f2
  405230:	a5 00 00 00 00 00 00 03 	mtc1 $0,$f3
  405238:	93 00 00 00 00 00 02 00 	c.lt.d $f0,$f2
  405240:	0b 00 00 00 0a 00 00 00 	bc1f 405270 <trans_+0x708>
  405248:	a2 00 00 00 00 10 02 00 	lui $2,4096
  405250:	28 00 00 00 24 27 02 02 	lw $2,10020($2)
  405258:	43 00 00 00 01 00 02 02 	addiu $2,$2,1
  405260:	a2 00 00 00 03 10 01 00 	lui $1,4099
  405268:	34 00 00 00 5c de 02 01 	sw $2,-8612($1)
  405270:	93 00 00 00 00 00 00 02 	c.lt.d $f2,$f0
  405278:	0b 00 00 00 0a 00 00 00 	bc1f 4052a8 <trans_+0x740>
  405280:	a2 00 00 00 00 10 02 00 	lui $2,4096
  405288:	28 00 00 00 20 27 02 02 	lw $2,10016($2)
  405290:	43 00 00 00 01 00 02 02 	addiu $2,$2,1
  405298:	a2 00 00 00 03 10 01 00 	lui $1,4099
  4052a0:	34 00 00 00 5c de 02 01 	sw $2,-8612($1)
  4052a8:	a2 00 00 00 03 10 01 00 	lui $1,4099
  4052b0:	2b 00 00 00 88 de 14 01 	l.d $f20,-8568($1)
  4052b8:	93 00 00 00 00 00 00 02 	c.lt.d $f2,$f0
  4052c0:	0b 00 00 00 10 00 00 00 	bc1f 405308 <trans_+0x7a0>
  4052c8:	a2 00 00 00 00 10 02 00 	lui $2,4096
  4052d0:	28 00 00 00 00 27 02 02 	lw $2,9984($2)
  4052d8:	a2 00 00 00 00 10 03 00 	lui $3,4096
  4052e0:	28 00 00 00 2c 27 03 03 	lw $3,10028($3)
  4052e8:	5b 00 00 00 00 02 03 02 	slt $2,$2,$3
  4052f0:	05 00 00 00 04 00 00 02 	beq $2,$0,405308 <trans_+0x7a0>
  4052f8:	a2 00 00 00 03 10 01 00 	lui $1,4099
  405300:	37 00 00 00 88 de 02 01 	s.d $f2,-8568($1)
  405308:	a2 00 00 00 03 10 03 00 	lui $3,4099
  405310:	28 00 00 00 5c de 03 03 	lw $3,-8612($3)
  405318:	43 00 00 00 01 00 02 00 	addiu $2,$0,1
  405320:	06 00 00 00 04 00 02 03 	bne $3,$2,405338 <trans_+0x7d0>
  405328:	02 00 00 00 46 c0 10 00 	jal 430118 <parmve_>
  405330:	01 00 00 00 e4 14 10 00 	j 405390 <trans_+0x828>
  405338:	43 00 00 00 02 00 02 00 	addiu $2,$0,2
  405340:	06 00 00 00 04 00 02 03 	bne $3,$2,405358 <trans_+0x7f0>
  405348:	02 00 00 00 62 b4 10 00 	jal 42d188 <parmov_>
  405350:	01 00 00 00 e4 14 10 00 	j 405390 <trans_+0x828>
  405358:	43 00 00 00 03 00 02 00 	addiu $2,$0,3
  405360:	06 00 00 00 04 00 02 03 	bne $3,$2,405378 <trans_+0x810>
  405368:	02 00 00 00 9c a6 10 00 	jal 429a70 <parmvr_>
  405370:	01 00 00 00 e4 14 10 00 	j 405390 <trans_+0x828>
  405378:	43 00 00 00 20 81 04 1c 	addiu $4,$28,-32480
  405380:	43 00 00 00 03 00 05 00 	addiu $5,$0,3
  405388:	02 00 00 00 7c 34 11 00 	jal 44d1f0 <s_stop>
  405390:	a2 00 00 00 00 10 01 00 	lui $1,4096
  405398:	2b 00 00 00 f8 26 00 01 	l.d $f0,9976($1)
  4053a0:	a5 00 00 00 00 00 00 02 	mtc1 $0,$f2
  4053a8:	a5 00 00 00 00 00 00 03 	mtc1 $0,$f3
  4053b0:	93 00 00 00 00 00 00 02 	c.lt.d $f2,$f0
  4053b8:	0b 00 00 00 10 00 00 00 	bc1f 405400 <trans_+0x898>
  4053c0:	a2 00 00 00 00 10 02 00 	lui $2,4096
  4053c8:	28 00 00 00 00 27 02 02 	lw $2,9984($2)
  4053d0:	05 00 00 00 0a 00 00 02 	beq $2,$0,405400 <trans_+0x898>
  4053d8:	a2 00 00 00 03 10 01 00 	lui $1,4099
  4053e0:	2b 00 00 00 90 de 00 01 	l.d $f0,-8560($1)
  4053e8:	93 00 00 00 00 00 02 00 	c.lt.d $f0,$f2
  4053f0:	0b 00 00 00 02 00 00 00 	bc1f 405400 <trans_+0x898>
  4053f8:	02 00 00 00 de 69 10 00 	jal 41a778 <laser_>
  405400:	28 00 00 00 34 00 02 1d 	lw $2,52($29)
  405408:	0a 00 00 00 02 00 00 02 	bgez $2,405418 <trans_+0x8b0>
  405410:	02 00 00 00 ec 69 10 00 	jal 41a7b0 <lasden_>
  405418:	a2 00 00 00 03 10 02 00 	lui $2,4099
  405420:	28 00 00 00 4c de 02 02 	lw $2,-8628($2)
  405428:	5c 00 00 00 06 00 02 02 	slti $2,$2,6
  405430:	05 00 00 00 08 00 00 02 	beq $2,$0,405458 <trans_+0x8f0>
  405438:	a2 00 00 00 03 10 02 00 	lui $2,4099
  405440:	28 00 00 00 50 de 02 02 	lw $2,-8624($2)
  405448:	5c 00 00 00 06 00 02 02 	slti $2,$2,6
  405450:	06 00 00 00 14 00 00 02 	bne $2,$0,4054a8 <trans_+0x940>
  405458:	43 00 00 00 38 00 10 1d 	addiu $16,$29,56
  405460:	42 00 00 00 00 04 10 00 	addu $4,$0,$16
  405468:	02 00 00 00 00 39 10 00 	jal 40e400 <injcon_>
  405470:	28 00 00 00 34 00 02 1d 	lw $2,52($29)
  405478:	0a 00 00 00 06 00 00 02 	bgez $2,405498 <trans_+0x930>
  405480:	43 00 00 00 34 00 04 1d 	addiu $4,$29,52
  405488:	42 00 00 00 00 05 10 00 	addu $5,$0,$16
  405490:	02 00 00 00 40 33 10 00 	jal 40cd00 <injbat_>
  405498:	28 00 00 00 34 00 02 1d 	lw $2,52($29)
  4054a0:	05 00 00 00 16 00 00 02 	beq $2,$0,405500 <trans_+0x998>
  4054a8:	a2 00 00 00 02 10 01 00 	lui $1,4098
  4054b0:	2b 00 00 00 10 35 00 01 	l.d $f0,13584($1)
  4054b8:	a2 00 00 00 03 10 01 00 	lui $1,4099
  4054c0:	2b 00 00 00 e8 de 02 01 	l.d $f2,-8472($1)
  4054c8:	71 00 00 00 00 00 02 00 	add.d $f0,$f0,$f2
  4054d0:	a2 00 00 00 03 10 01 00 	lui $1,4099
  4054d8:	37 00 00 00 88 de 14 01 	s.d $f20,-8568($1)
  4054e0:	a2 00 00 00 02 10 01 00 	lui $1,4098
  4054e8:	37 00 00 00 10 35 00 01 	s.d $f0,13584($1)
  4054f0:	02 00 00 00 08 6a 10 00 	jal 41a820 <pdiag_>
  4054f8:	01 00 00 00 c4 13 10 00 	j 404f10 <trans_+0x3a8>
  405500:	a2 00 00 00 03 10 04 00 	lui $4,4099
  405508:	43 00 00 00 98 c3 04 04 	addiu $4,$4,-15464
  405510:	28 00 00 00 84 1a 02 04 	lw $2,6788($4)
  405518:	a2 00 00 00 00 10 01 00 	lui $1,4096
  405520:	34 00 00 00 28 27 00 01 	sw $0,10024($1)
  405528:	06 00 00 00 22 00 00 02 	bne $2,$0,4055b8 <trans_+0xa50>
  405530:	28 00 00 00 6c 1a 03 04 	lw $3,6764($4)
  405538:	05 00 00 00 24 00 00 03 	beq $3,$0,4055d0 <trans_+0xa68>
  405540:	a2 00 00 00 00 10 02 00 	lui $2,4096
  405548:	28 00 00 00 00 27 02 02 	lw $2,9984($2)
  405550:	48 00 00 00 00 00 03 02 	div $0,$2,$3
  405558:	06 00 00 00 02 00 00 03 	bne $3,$0,405568 <trans_+0xa00>
  405560:	a1 00 00 00 07 00 00 00 	break 
  405568:	43 00 00 00 ff ff 01 00 	addiu $1,$0,-1
  405570:	06 00 00 00 06 00 01 03 	bne $3,$1,405590 <trans_+0xa28>
  405578:	a2 00 00 00 00 80 01 00 	lui $1,32768
  405580:	06 00 00 00 02 00 01 02 	bne $2,$1,405590 <trans_+0xa28>
  405588:	a1 00 00 00 06 00 00 00 	break 
  405590:	4a 00 00 00 00 03 00 00 	mfhi $3
  405598:	06 00 00 00 0c 00 00 03 	bne $3,$0,4055d0 <trans_+0xa68>
  4055a0:	43 00 00 00 ff ff 02 00 	addiu $2,$0,-1
  4055a8:	34 00 00 00 84 1a 02 04 	sw $2,6788($4)
  4055b0:	01 00 00 00 c4 13 10 00 	j 404f10 <trans_+0x3a8>
  4055b8:	0a 00 00 00 04 00 00 02 	bgez $2,4055d0 <trans_+0xa68>
  4055c0:	a2 00 00 00 03 10 01 00 	lui $1,4099
  4055c8:	34 00 00 00 1c de 00 01 	sw $0,-8676($1)
  4055d0:	43 00 00 00 38 00 04 1d 	addiu $4,$29,56
  4055d8:	02 00 00 00 9c 3a 10 00 	jal 40ea70 <injchk_>
  4055e0:	a2 00 00 00 1d 10 04 00 	lui $4,4125
  4055e8:	43 00 00 00 b0 03 04 04 	addiu $4,$4,944
  4055f0:	a2 00 00 00 03 10 10 00 	lui $16,4099
  4055f8:	43 00 00 00 28 de 10 10 	addiu $16,$16,-8664
  405600:	42 00 00 00 00 05 10 00 	addu $5,$0,$16
  405608:	a2 00 00 00 03 10 06 00 	lui $6,4099
  405610:	43 00 00 00 2c de 06 06 	addiu $6,$6,-8660
  405618:	43 00 00 00 14 00 1e 10 	addiu $30,$16,20
  405620:	42 00 00 00 00 07 1e 00 	addu $7,$0,$30
  405628:	a2 00 00 00 03 10 0e 00 	lui $14,4099
  405630:	43 00 00 00 38 de 0e 0e 	addiu $14,$14,-8648
  405638:	43 00 00 00 48 00 16 10 	addiu $22,$16,72
  405640:	43 00 00 00 88 00 15 10 	addiu $21,$16,136
  405648:	43 00 00 00 90 00 14 10 	addiu $20,$16,144
  405650:	43 00 00 00 88 80 12 1c 	addiu $18,$28,-32632
  405658:	a2 00 00 00 00 10 11 00 	lui $17,4096
  405660:	43 00 00 00 1c 27 11 11 	addiu $17,$17,10012
  405668:	a2 00 00 00 27 10 13 00 	lui $19,4135
  405670:	43 00 00 00 d8 a4 13 13 	addiu $19,$19,-23336
  405678:	34 00 00 00 10 00 0e 1d 	sw $14,16($29)
  405680:	34 00 00 00 14 00 16 1d 	sw $22,20($29)
  405688:	34 00 00 00 18 00 15 1d 	sw $21,24($29)
  405690:	34 00 00 00 1c 00 14 1d 	sw $20,28($29)
  405698:	34 00 00 00 20 00 12 1d 	sw $18,32($29)
  4056a0:	34 00 00 00 24 00 12 1d 	sw $18,36($29)
  4056a8:	34 00 00 00 28 00 11 1d 	sw $17,40($29)
  4056b0:	34 00 00 00 2c 00 13 1d 	sw $19,44($29)
  4056b8:	02 00 00 00 36 16 10 00 	jal 4058d8 <celbnd_>
  4056c0:	a2 00 00 00 45 10 04 00 	lui $4,4165
  4056c8:	43 00 00 00 00 11 04 04 	addiu $4,$4,4352
  4056d0:	42 00 00 00 00 05 10 00 	addu $5,$0,$16
  4056d8:	a2 00 00 00 03 10 06 00 	lui $6,4099
  4056e0:	43 00 00 00 2c de 06 06 	addiu $6,$6,-8660
  4056e8:	42 00 00 00 00 07 1e 00 	addu $7,$0,$30
  4056f0:	a2 00 00 00 03 10 0e 00 	lui $14,4099
  4056f8:	43 00 00 00 38 de 0e 0e 	addiu $14,$14,-8648
  405700:	43 00 00 00 64 80 17 1c 	addiu $23,$28,-32668
  405708:	43 00 00 00 fc ff 11 11 	addiu $17,$17,-4
  405710:	34 00 00 00 10 00 0e 1d 	sw $14,16($29)
  405718:	34 00 00 00 14 00 16 1d 	sw $22,20($29)
  405720:	34 00 00 00 18 00 15 1d 	sw $21,24($29)
  405728:	34 00 00 00 1c 00 14 1d 	sw $20,28($29)
  405730:	34 00 00 00 20 00 17 1d 	sw $23,32($29)
  405738:	34 00 00 00 24 00 12 1d 	sw $18,36($29)
  405740:	34 00 00 00 28 00 11 1d 	sw $17,40($29)
  405748:	34 00 00 00 2c 00 13 1d 	sw $19,44($29)
  405750:	02 00 00 00 36 16 10 00 	jal 4058d8 <celbnd_>
  405758:	a2 00 00 00 4f 10 04 00 	lui $4,4175
  405760:	43 00 00 00 28 b2 04 04 	addiu $4,$4,-19928
  405768:	42 00 00 00 00 05 10 00 	addu $5,$0,$16
  405770:	a2 00 00 00 03 10 06 00 	lui $6,4099
  405778:	43 00 00 00 2c de 06 06 	addiu $6,$6,-8660
  405780:	42 00 00 00 00 07 1e 00 	addu $7,$0,$30
  405788:	a2 00 00 00 03 10 0e 00 	lui $14,4099
  405790:	43 00 00 00 38 de 0e 0e 	addiu $14,$14,-8648
  405798:	34 00 00 00 10 00 0e 1d 	sw $14,16($29)
  4057a0:	34 00 00 00 14 00 16 1d 	sw $22,20($29)
  4057a8:	34 00 00 00 18 00 15 1d 	sw $21,24($29)
  4057b0:	34 00 00 00 1c 00 14 1d 	sw $20,28($29)
  4057b8:	34 00 00 00 20 00 12 1d 	sw $18,32($29)
  4057c0:	34 00 00 00 24 00 17 1d 	sw $23,36($29)
  4057c8:	34 00 00 00 28 00 11 1d 	sw $17,40($29)
  4057d0:	34 00 00 00 2c 00 13 1d 	sw $19,44($29)
  4057d8:	02 00 00 00 36 16 10 00 	jal 4058d8 <celbnd_>
  4057e0:	a2 00 00 00 58 10 04 00 	lui $4,4184
  4057e8:	43 00 00 00 50 53 04 04 	addiu $4,$4,21328
  4057f0:	42 00 00 00 00 05 10 00 	addu $5,$0,$16
  4057f8:	a2 00 00 00 03 10 06 00 	lui $6,4099
  405800:	43 00 00 00 2c de 06 06 	addiu $6,$6,-8660
  405808:	42 00 00 00 00 07 1e 00 	addu $7,$0,$30
  405810:	a2 00 00 00 03 10 0e 00 	lui $14,4099
  405818:	43 00 00 00 38 de 0e 0e 	addiu $14,$14,-8648
  405820:	34 00 00 00 10 00 0e 1d 	sw $14,16($29)
  405828:	34 00 00 00 14 00 16 1d 	sw $22,20($29)
  405830:	34 00 00 00 18 00 15 1d 	sw $21,24($29)
  405838:	34 00 00 00 1c 00 14 1d 	sw $20,28($29)
  405840:	34 00 00 00 20 00 12 1d 	sw $18,32($29)
  405848:	34 00 00 00 24 00 12 1d 	sw $18,36($29)
  405850:	34 00 00 00 28 00 11 1d 	sw $17,40($29)
  405858:	34 00 00 00 2c 00 13 1d 	sw $19,44($29)
  405860:	02 00 00 00 36 16 10 00 	jal 4058d8 <celbnd_>
  405868:	42 00 00 00 00 02 00 00 	addu $2,$0,$0
  405870:	28 00 00 00 64 00 1f 1d 	lw $31,100($29)
  405878:	28 00 00 00 60 00 1e 1d 	lw $30,96($29)
  405880:	28 00 00 00 5c 00 17 1d 	lw $23,92($29)
  405888:	28 00 00 00 58 00 16 1d 	lw $22,88($29)
  405890:	28 00 00 00 54 00 15 1d 	lw $21,84($29)
  405898:	28 00 00 00 50 00 14 1d 	lw $20,80($29)
  4058a0:	28 00 00 00 4c 00 13 1d 	lw $19,76($29)
  4058a8:	28 00 00 00 48 00 12 1d 	lw $18,72($29)
  4058b0:	28 00 00 00 44 00 11 1d 	lw $17,68($29)
  4058b8:	28 00 00 00 40 00 10 1d 	lw $16,64($29)
  4058c0:	2b 00 00 00 68 00 14 1d 	l.d $f20,104($29)
  4058c8:	43 00 00 00 70 00 1d 1d 	addiu $29,$29,112
  4058d0:	03 00 00 00 00 00 00 1f 	jr $31

004058d8 <celbnd_>:
  4058d8:	43 00 00 00 b0 ff 1d 1d 	addiu $29,$29,-80
  4058e0:	34 00 00 00 38 00 14 1d 	sw $20,56($29)
  4058e8:	28 00 00 00 7c 00 14 1d 	lw $20,124($29)
  4058f0:	28 00 00 00 60 00 0e 1d 	lw $14,96($29)
  4058f8:	34 00 00 00 44 00 17 1d 	sw $23,68($29)
  405900:	28 00 00 00 68 00 17 1d 	lw $23,104($29)
  405908:	34 00 00 00 48 00 1e 1d 	sw $30,72($29)
  405910:	28 00 00 00 6c 00 1e 1d 	lw $30,108($29)
  405918:	28 00 00 00 70 00 03 1d 	lw $3,112($29)
  405920:	28 00 00 00 74 00 0d 1d 	lw $13,116($29)
  405928:	34 00 00 00 4c 00 1f 1d 	sw $31,76($29)
  405930:	34 00 00 00 40 00 16 1d 	sw $22,64($29)
  405938:	34 00 00 00 3c 00 15 1d 	sw $21,60($29)
  405940:	34 00 00 00 34 00 13 1d 	sw $19,52($29)
  405948:	34 00 00 00 30 00 12 1d 	sw $18,48($29)
  405950:	34 00 00 00 2c 00 11 1d 	sw $17,44($29)
  405958:	34 00 00 00 28 00 10 1d 	sw $16,40($29)
  405960:	28 00 00 00 00 00 18 07 	lw $24,0($7)
  405968:	28 00 00 00 00 00 09 06 	lw $9,0($6)
  405970:	2b 00 00 00 28 81 00 1c 	l.d $f0,-32472($28)
  405978:	a2 00 00 00 03 10 0a 00 	lui $10,4099
  405980:	43 00 00 00 b0 e2 0a 0a 	addiu $10,$10,-7504
  405988:	28 00 00 00 00 00 06 05 	lw $6,0($5)
  405990:	a2 00 00 00 03 10 0b 00 	lui $11,4099
  405998:	43 00 00 00 d0 e2 0b 0b 	addiu $11,$11,-7472
  4059a0:	43 00 00 00 02 00 08 09 	addiu $8,$9,2
  4059a8:	34 00 00 00 24 00 08 1d 	sw $8,36($29)
  4059b0:	28 00 00 00 00 00 02 05 	lw $2,0($5)
  4059b8:	43 00 00 00 f8 ff 14 14 	addiu $20,$20,-8
  4059c0:	43 00 00 00 01 00 15 18 	addiu $21,$24,1
  4059c8:	43 00 00 00 02 00 05 02 	addiu $5,$2,2
  4059d0:	34 00 00 00 20 00 05 1d 	sw $5,32($29)
  4059d8:	37 00 00 00 00 00 00 0a 	s.d $f0,0($10)
  4059e0:	37 00 00 00 00 00 00 0b 	s.d $f0,0($11)
  4059e8:	28 00 00 00 00 00 02 03 	lw $2,0($3)
  4059f0:	43 00 00 00 01 00 12 09 	addiu $18,$9,1
  4059f8:	43 00 00 00 01 00 06 06 	addiu $6,$6,1
  405a00:	42 00 00 00 00 13 02 00 	addu $19,$0,$2
  405a08:	0a 00 00 00 02 00 00 02 	bgez $2,405a18 <celbnd_+0x140>
  405a10:	45 00 00 00 00 13 13 00 	subu $19,$0,$19
  405a18:	55 00 00 00 03 02 15 00 	sll $2,$21,0x3
  405a20:	45 00 00 00 00 0c 02 04 	subu $12,$4,$2
  405a28:	5c 00 00 00 02 00 02 13 	slti $2,$19,2
  405a30:	06 00 00 00 02 00 00 02 	bne $2,$0,405a40 <celbnd_+0x168>
  405a38:	43 00 00 00 01 00 13 00 	addiu $19,$0,1
  405a40:	28 00 00 00 00 00 02 0d 	lw $2,0($13)
  405a48:	42 00 00 00 00 11 02 00 	addu $17,$0,$2
  405a50:	0a 00 00 00 02 00 00 02 	bgez $2,405a60 <celbnd_+0x188>
  405a58:	45 00 00 00 00 11 11 00 	subu $17,$0,$17
  405a60:	5c 00 00 00 02 00 02 11 	slti $2,$17,2
  405a68:	06 00 00 00 02 00 00 02 	bne $2,$0,405a78 <celbnd_+0x1a0>
  405a70:	43 00 00 00 01 00 11 00 	addiu $17,$0,1
  405a78:	28 00 00 00 00 00 02 0e 	lw $2,0($14)
  405a80:	06 00 00 00 04 00 00 02 	bne $2,$0,405a98 <celbnd_+0x1c0>
  405a88:	42 00 00 00 00 13 00 00 	addu $19,$0,$0
  405a90:	38 00 00 00 00 00 00 0a 	dsz 0($10)
  405a98:	28 00 00 00 64 00 16 1d 	lw $22,100($29)
  405aa0:	28 00 00 00 00 00 02 16 	lw $2,0($22)
  405aa8:	06 00 00 00 04 00 00 02 	bne $2,$0,405ac0 <celbnd_+0x1e8>
  405ab0:	42 00 00 00 00 11 00 00 	addu $17,$0,$0
  405ab8:	38 00 00 00 00 00 00 0b 	dsz 0($11)
  405ac0:	28 00 00 00 00 00 02 0e 	lw $2,0($14)
  405ac8:	06 00 00 00 1e 01 00 02 	bne $2,$0,405f48 <celbnd_+0x670>
  405ad0:	42 00 00 00 00 10 08 00 	addu $16,$0,$8
  405ad8:	43 00 00 00 01 00 19 00 	addiu $25,$0,1
  405ae0:	07 00 00 00 2e 02 00 10 	blez $16,4063a0 <celbnd_+0xac8>
  405ae8:	42 00 00 00 00 08 06 18 	addu $8,$24,$6
  405af0:	42 00 00 00 00 05 05 18 	addu $5,$24,$5
  405af8:	42 00 00 00 00 04 18 00 	addu $4,$0,$24
  405b00:	43 00 00 00 03 00 02 09 	addiu $2,$9,3
  405b08:	4f 00 00 00 03 00 03 10 	andi $3,$16,3
  405b10:	5b 00 00 00 00 02 02 19 	slt $2,$25,$2
  405b18:	05 00 00 00 52 00 00 02 	beq $2,$0,405c68 <celbnd_+0x390>
  405b20:	05 00 00 00 78 00 00 03 	beq $3,$0,405d08 <celbnd_+0x430>
  405b28:	5c 00 00 00 02 00 02 03 	slti $2,$3,2
  405b30:	06 00 00 00 4c 00 00 02 	bne $2,$0,405c68 <celbnd_+0x390>
  405b38:	5c 00 00 00 03 00 02 03 	slti $2,$3,3
  405b40:	06 00 00 00 24 00 00 02 	bne $2,$0,405bd8 <celbnd_+0x300>
  405b48:	55 00 00 00 03 03 18 00 	sll $3,$24,0x3
  405b50:	42 00 00 00 00 03 0c 03 	addu $3,$3,$12
  405b58:	55 00 00 00 03 02 05 00 	sll $2,$5,0x3
  405b60:	42 00 00 00 00 02 0c 02 	addu $2,$2,$12
  405b68:	2b 00 00 00 10 00 00 03 	l.d $f0,16($3)
  405b70:	2b 00 00 00 00 00 02 02 	l.d $f2,0($2)
  405b78:	71 00 00 00 00 00 02 00 	add.d $f0,$f0,$f2
  405b80:	55 00 00 00 03 02 08 00 	sll $2,$8,0x3
  405b88:	42 00 00 00 00 02 0c 02 	addu $2,$2,$12
  405b90:	37 00 00 00 10 00 00 03 	s.d $f0,16($3)
  405b98:	2b 00 00 00 00 00 00 02 	l.d $f0,0($2)
  405ba0:	2b 00 00 00 08 00 02 03 	l.d $f2,8($3)
  405ba8:	42 00 00 00 00 05 18 05 	addu $5,$5,$24
  405bb0:	71 00 00 00 00 00 02 00 	add.d $f0,$f0,$f2
  405bb8:	55 00 00 00 01 04 18 00 	sll $4,$24,0x1
  405bc0:	43 00 00 00 02 00 19 00 	addiu $25,$0,2
  405bc8:	42 00 00 00 00 08 18 08 	addu $8,$8,$24
  405bd0:	37 00 00 00 00 00 00 02 	s.d $f0,0($2)
  405bd8:	55 00 00 00 03 03 04 00 	sll $3,$4,0x3
  405be0:	42 00 00 00 00 03 0c 03 	addu $3,$3,$12
  405be8:	55 00 00 00 03 02 05 00 	sll $2,$5,0x3
  405bf0:	42 00 00 00 00 02 0c 02 	addu $2,$2,$12
  405bf8:	2b 00 00 00 10 00 00 03 	l.d $f0,16($3)
  405c00:	2b 00 00 00 00 00 02 02 	l.d $f2,0($2)
  405c08:	71 00 00 00 00 00 02 00 	add.d $f0,$f0,$f2
  405c10:	55 00 00 00 03 02 08 00 	sll $2,$8,0x3
  405c18:	42 00 00 00 00 02 0c 02 	addu $2,$2,$12
  405c20:	37 00 00 00 10 00 00 03 	s.d $f0,16($3)
  405c28:	2b 00 00 00 00 00 00 02 	l.d $f0,0($2)
  405c30:	2b 00 00 00 08 00 02 03 	l.d $f2,8($3)
  405c38:	42 00 00 00 00 05 18 05 	addu $5,$5,$24
  405c40:	71 00 00 00 00 00 02 00 	add.d $f0,$f0,$f2
  405c48:	42 00 00 00 00 04 18 04 	addu $4,$4,$24
  405c50:	43 00 00 00 01 00 19 19 	addiu $25,$25,1
  405c58:	42 00 00 00 00 08 18 08 	addu $8,$8,$24
  405c60:	37 00 00 00 00 00 00 02 	s.d $f0,0($2)
  405c68:	55 00 00 00 03 03 04 00 	sll $3,$4,0x3
  405c70:	42 00 00 00 00 03 0c 03 	addu $3,$3,$12
  405c78:	55 00 00 00 03 02 05 00 	sll $2,$5,0x3
  405c80:	42 00 00 00 00 02 0c 02 	addu $2,$2,$12
  405c88:	2b 00 00 00 10 00 00 03 	l.d $f0,16($3)
  405c90:	2b 00 00 00 00 00 02 02 	l.d $f2,0($2)
  405c98:	71 00 00 00 00 00 02 00 	add.d $f0,$f0,$f2
  405ca0:	55 00 00 00 03 02 08 00 	sll $2,$8,0x3
  405ca8:	42 00 00 00 00 02 0c 02 	addu $2,$2,$12
  405cb0:	37 00 00 00 10 00 00 03 	s.d $f0,16($3)
  405cb8:	2b 00 00 00 00 00 00 02 	l.d $f0,0($2)
  405cc0:	2b 00 00 00 08 00 02 03 	l.d $f2,8($3)
  405cc8:	42 00 00 00 00 05 18 05 	addu $5,$5,$24
  405cd0:	42 00 00 00 00 04 18 04 	addu $4,$4,$24
  405cd8:	71 00 00 00 00 00 02 00 	add.d $f0,$f0,$f2
  405ce0:	43 00 00 00 01 00 19 19 	addiu $25,$25,1
  405ce8:	42 00 00 00 00 08 18 08 	addu $8,$8,$24
  405cf0:	5b 00 00 00 00 03 19 10 	slt $3,$16,$25
  405cf8:	37 00 00 00 00 00 00 02 	s.d $f0,0($2)
  405d00:	06 00 00 00 a6 01 00 03 	bne $3,$0,4063a0 <celbnd_+0xac8>
  405d08:	55 00 00 00 03 03 04 00 	sll $3,$4,0x3
  405d10:	42 00 00 00 00 03 0c 03 	addu $3,$3,$12
  405d18:	55 00 00 00 03 02 05 00 	sll $2,$5,0x3
  405d20:	42 00 00 00 00 02 0c 02 	addu $2,$2,$12
  405d28:	2b 00 00 00 10 00 00 03 	l.d $f0,16($3)
  405d30:	2b 00 00 00 00 00 02 02 	l.d $f2,0($2)
  405d38:	71 00 00 00 00 00 02 00 	add.d $f0,$f0,$f2
  405d40:	55 00 00 00 03 02 08 00 	sll $2,$8,0x3
  405d48:	42 00 00 00 00 02 0c 02 	addu $2,$2,$12
  405d50:	37 00 00 00 10 00 00 03 	s.d $f0,16($3)
  405d58:	2b 00 00 00 00 00 02 02 	l.d $f2,0($2)
  405d60:	2b 00 00 00 08 00 00 03 	l.d $f0,8($3)
  405d68:	42 00 00 00 00 05 18 05 	addu $5,$5,$24
  405d70:	71 00 00 00 00 02 00 02 	add.d $f2,$f2,$f0
  405d78:	42 00 00 00 00 04 18 04 	addu $4,$4,$24
  405d80:	55 00 00 00 03 03 04 00 	sll $3,$4,0x3
  405d88:	42 00 00 00 00 03 0c 03 	addu $3,$3,$12
  405d90:	37 00 00 00 00 00 02 02 	s.d $f2,0($2)
  405d98:	55 00 00 00 03 02 05 00 	sll $2,$5,0x3
  405da0:	42 00 00 00 00 02 0c 02 	addu $2,$2,$12
  405da8:	2b 00 00 00 10 00 02 03 	l.d $f2,16($3)
  405db0:	2b 00 00 00 00 00 00 02 	l.d $f0,0($2)
  405db8:	71 00 00 00 00 02 00 02 	add.d $f2,$f2,$f0
  405dc0:	42 00 00 00 00 08 18 08 	addu $8,$8,$24
  405dc8:	55 00 00 00 03 02 08 00 	sll $2,$8,0x3
  405dd0:	42 00 00 00 00 02 0c 02 	addu $2,$2,$12
  405dd8:	37 00 00 00 10 00 02 03 	s.d $f2,16($3)
  405de0:	2b 00 00 00 00 00 02 02 	l.d $f2,0($2)
  405de8:	2b 00 00 00 08 00 00 03 	l.d $f0,8($3)
  405df0:	42 00 00 00 00 04 18 04 	addu $4,$4,$24
  405df8:	71 00 00 00 00 02 00 02 	add.d $f2,$f2,$f0
  405e00:	42 00 00 00 00 05 18 05 	addu $5,$5,$24
  405e08:	55 00 00 00 03 03 04 00 	sll $3,$4,0x3
  405e10:	42 00 00 00 00 03 0c 03 	addu $3,$3,$12
  405e18:	37 00 00 00 00 00 02 02 	s.d $f2,0($2)
  405e20:	55 00 00 00 03 02 05 00 	sll $2,$5,0x3
  405e28:	42 00 00 00 00 02 0c 02 	addu $2,$2,$12
  405e30:	2b 00 00 00 10 00 02 03 	l.d $f2,16($3)
  405e38:	2b 00 00 00 00 00 00 02 	l.d $f0,0($2)
  405e40:	71 00 00 00 00 02 00 02 	add.d $f2,$f2,$f0
  405e48:	42 00 00 00 00 08 18 08 	addu $8,$8,$24
  405e50:	55 00 00 00 03 02 08 00 	sll $2,$8,0x3
  405e58:	42 00 00 00 00 02 0c 02 	addu $2,$2,$12
  405e60:	37 00 00 00 10 00 02 03 	s.d $f2,16($3)
  405e68:	2b 00 00 00 00 00 02 02 	l.d $f2,0($2)
  405e70:	2b 00 00 00 08 00 00 03 	l.d $f0,8($3)
  405e78:	42 00 00 00 00 04 18 04 	addu $4,$4,$24
  405e80:	71 00 00 00 00 02 00 02 	add.d $f2,$f2,$f0
  405e88:	42 00 00 00 00 05 18 05 	addu $5,$5,$24
  405e90:	55 00 00 00 03 03 04 00 	sll $3,$4,0x3
  405e98:	42 00 00 00 00 03 0c 03 	addu $3,$3,$12
  405ea0:	37 00 00 00 00 00 02 02 	s.d $f2,0($2)
  405ea8:	55 00 00 00 03 02 05 00 	sll $2,$5,0x3
  405eb0:	42 00 00 00 00 02 0c 02 	addu $2,$2,$12
  405eb8:	2b 00 00 00 10 00 02 03 	l.d $f2,16($3)
  405ec0:	2b 00 00 00 00 00 00 02 	l.d $f0,0($2)
  405ec8:	71 00 00 00 00 02 00 02 	add.d $f2,$f2,$f0
  405ed0:	42 00 00 00 00 08 18 08 	addu $8,$8,$24
  405ed8:	55 00 00 00 03 02 08 00 	sll $2,$8,0x3
  405ee0:	42 00 00 00 00 02 0c 02 	addu $2,$2,$12
  405ee8:	37 00 00 00 10 00 02 03 	s.d $f2,16($3)
  405ef0:	2b 00 00 00 00 00 00 02 	l.d $f0,0($2)
  405ef8:	2b 00 00 00 08 00 02 03 	l.d $f2,8($3)
  405f00:	43 00 00 00 04 00 19 19 	addiu $25,$25,4
  405f08:	42 00 00 00 00 04 18 04 	addu $4,$4,$24
  405f10:	71 00 00 00 00 00 02 00 	add.d $f0,$f0,$f2
  405f18:	42 00 00 00 00 05 18 05 	addu $5,$5,$24
  405f20:	42 00 00 00 00 08 18 08 	addu $8,$8,$24
  405f28:	5b 00 00 00 00 03 19 10 	slt $3,$16,$25
  405f30:	37 00 00 00 00 00 00 02 	s.d $f0,0($2)
  405f38:	05 00 00 00 72 ff 00 03 	beq $3,$0,405d08 <celbnd_+0x430>
  405f40:	01 00 00 00 e8 18 10 00 	j 4063a0 <celbnd_+0xac8>
  405f48:	42 00 00 00 00 10 08 00 	addu $16,$0,$8
  405f50:	43 00 00 00 01 00 19 00 	addiu $25,$0,1
  405f58:	07 00 00 00 10 01 00 10 	blez $16,4063a0 <celbnd_+0xac8>
  405f60:	42 00 00 00 00 08 05 18 	addu $8,$24,$5
  405f68:	42 00 00 00 00 05 06 18 	addu $5,$24,$6
  405f70:	42 00 00 00 00 04 18 00 	addu $4,$0,$24
  405f78:	43 00 00 00 03 00 02 09 	addiu $2,$9,3
  405f80:	4f 00 00 00 03 00 03 10 	andi $3,$16,3
  405f88:	5b 00 00 00 00 02 02 19 	slt $2,$25,$2
  405f90:	05 00 00 00 52 00 00 02 	beq $2,$0,4060e0 <celbnd_+0x808>
  405f98:	05 00 00 00 72 00 00 03 	beq $3,$0,406168 <celbnd_+0x890>
  405fa0:	5c 00 00 00 02 00 02 03 	slti $2,$3,2
  405fa8:	06 00 00 00 4c 00 00 02 	bne $2,$0,4060e0 <celbnd_+0x808>
  405fb0:	5c 00 00 00 03 00 02 03 	slti $2,$3,3
  405fb8:	06 00 00 00 24 00 00 02 	bne $2,$0,406050 <celbnd_+0x778>
  405fc0:	55 00 00 00 03 02 18 00 	sll $2,$24,0x3
  405fc8:	42 00 00 00 00 02 0c 02 	addu $2,$2,$12
  405fd0:	2b 00 00 00 10 00 00 02 	l.d $f0,16($2)
  405fd8:	2b 00 00 00 08 00 02 02 	l.d $f2,8($2)
  405fe0:	71 00 00 00 00 00 02 00 	add.d $f0,$f0,$f2
  405fe8:	55 00 00 00 03 03 05 00 	sll $3,$5,0x3
  405ff0:	42 00 00 00 00 03 0c 03 	addu $3,$3,$12
  405ff8:	37 00 00 00 10 00 00 02 	s.d $f0,16($2)
  406000:	55 00 00 00 03 02 08 00 	sll $2,$8,0x3
  406008:	42 00 00 00 00 02 0c 02 	addu $2,$2,$12
  406010:	2b 00 00 00 00 00 00 03 	l.d $f0,0($3)
  406018:	2b 00 00 00 00 00 02 02 	l.d $f2,0($2)
  406020:	42 00 00 00 00 05 18 05 	addu $5,$5,$24
  406028:	71 00 00 00 00 00 02 00 	add.d $f0,$f0,$f2
  406030:	55 00 00 00 01 04 18 00 	sll $4,$24,0x1
  406038:	43 00 00 00 02 00 19 00 	addiu $25,$0,2
  406040:	42 00 00 00 00 08 18 08 	addu $8,$8,$24
  406048:	37 00 00 00 00 00 00 03 	s.d $f0,0($3)
  406050:	55 00 00 00 03 02 04 00 	sll $2,$4,0x3
  406058:	42 00 00 00 00 02 0c 02 	addu $2,$2,$12
  406060:	2b 00 00 00 10 00 00 02 	l.d $f0,16($2)
  406068:	2b 00 00 00 08 00 02 02 	l.d $f2,8($2)
  406070:	71 00 00 00 00 00 02 00 	add.d $f0,$f0,$f2
  406078:	55 00 00 00 03 03 05 00 	sll $3,$5,0x3
  406080:	42 00 00 00 00 03 0c 03 	addu $3,$3,$12
  406088:	37 00 00 00 10 00 00 02 	s.d $f0,16($2)
  406090:	55 00 00 00 03 02 08 00 	sll $2,$8,0x3
  406098:	42 00 00 00 00 02 0c 02 	addu $2,$2,$12
  4060a0:	2b 00 00 00 00 00 00 03 	l.d $f0,0($3)
  4060a8:	2b 00 00 00 00 00 02 02 	l.d $f2,0($2)
  4060b0:	42 00 00 00 00 05 18 05 	addu $5,$5,$24
  4060b8:	71 00 00 00 00 00 02 00 	add.d $f0,$f0,$f2
  4060c0:	42 00 00 00 00 04 18 04 	addu $4,$4,$24
  4060c8:	43 00 00 00 01 00 19 19 	addiu $25,$25,1
  4060d0:	42 00 00 00 00 08 18 08 	addu $8,$8,$24
  4060d8:	37 00 00 00 00 00 00 03 	s.d $f0,0($3)
  4060e0:	55 00 00 00 03 02 04 00 	sll $2,$4,0x3
  4060e8:	42 00 00 00 00 02 0c 02 	addu $2,$2,$12
  4060f0:	2b 00 00 00 10 00 00 02 	l.d $f0,16($2)
  4060f8:	2b 00 00 00 08 00 02 02 	l.d $f2,8($2)
  406100:	71 00 00 00 00 00 02 00 	add.d $f0,$f0,$f2
  406108:	55 00 00 00 03 03 05 00 	sll $3,$5,0x3
  406110:	42 00 00 00 00 03 0c 03 	addu $3,$3,$12
  406118:	37 00 00 00 10 00 00 02 	s.d $f0,16($2)
  406120:	55 00 00 00 03 02 08 00 	sll $2,$8,0x3
  406128:	42 00 00 00 00 02 0c 02 	addu $2,$2,$12
  406130:	2b 00 00 00 00 00 00 03 	l.d $f0,0($3)
  406138:	2b 00 00 00 00 00 02 02 	l.d $f2,0($2)
  406140:	42 00 00 00 00 05 18 05 	addu $5,$5,$24
  406148:	42 00 00 00 00 04 18 04 	addu $4,$4,$24
  406150:	71 00 00 00 00 00 02 00 	add.d $f0,$f0,$f2
  406158:	43 00 00 00 01 00 19 19 	addiu $25,$25,1
  406160:	01 00 00 00 e0 18 10 00 	j 406380 <celbnd_+0xaa8>
  406168:	55 00 00 00 03 02 04 00 	sll $2,$4,0x3
  406170:	42 00 00 00 00 02 0c 02 	addu $2,$2,$12
  406178:	2b 00 00 00 10 00 00 02 	l.d $f0,16($2)
  406180:	2b 00 00 00 08 00 02 02 	l.d $f2,8($2)
  406188:	71 00 00 00 00 00 02 00 	add.d $f0,$f0,$f2
  406190:	55 00 00 00 03 03 05 00 	sll $3,$5,0x3
  406198:	42 00 00 00 00 03 0c 03 	addu $3,$3,$12
  4061a0:	37 00 00 00 10 00 00 02 	s.d $f0,16($2)
  4061a8:	55 00 00 00 03 02 08 00 	sll $2,$8,0x3
  4061b0:	42 00 00 00 00 02 0c 02 	addu $2,$2,$12
  4061b8:	2b 00 00 00 00 00 02 03 	l.d $f2,0($3)
  4061c0:	2b 00 00 00 00 00 00 02 	l.d $f0,0($2)
  4061c8:	71 00 00 00 00 02 00 02 	add.d $f2,$f2,$f0
  4061d0:	42 00 00 00 00 04 18 04 	addu $4,$4,$24
  4061d8:	55 00 00 00 03 02 04 00 	sll $2,$4,0x3
  4061e0:	42 00 00 00 00 02 0c 02 	addu $2,$2,$12
  4061e8:	37 00 00 00 00 00 02 03 	s.d $f2,0($3)
  4061f0:	2b 00 00 00 10 00 02 02 	l.d $f2,16($2)
  4061f8:	2b 00 00 00 08 00 00 02 	l.d $f0,8($2)
  406200:	42 00 00 00 00 05 18 05 	addu $5,$5,$24
  406208:	71 00 00 00 00 02 00 02 	add.d $f2,$f2,$f0
  406210:	42 00 00 00 00 08 18 08 	addu $8,$8,$24
  406218:	55 00 00 00 03 03 05 00 	sll $3,$5,0x3
  406220:	42 00 00 00 00 03 0c 03 	addu $3,$3,$12
  406228:	37 00 00 00 10 00 02 02 	s.d $f2,16($2)
  406230:	55 00 00 00 03 02 08 00 	sll $2,$8,0x3
  406238:	42 00 00 00 00 02 0c 02 	addu $2,$2,$12
  406240:	2b 00 00 00 00 00 02 03 	l.d $f2,0($3)
  406248:	2b 00 00 00 00 00 00 02 	l.d $f0,0($2)
  406250:	71 00 00 00 00 02 00 02 	add.d $f2,$f2,$f0
  406258:	42 00 00 00 00 04 18 04 	addu $4,$4,$24
  406260:	55 00 00 00 03 02 04 00 	sll $2,$4,0x3
  406268:	42 00 00 00 00 02 0c 02 	addu $2,$2,$12
  406270:	37 00 00 00 00 00 02 03 	s.d $f2,0($3)
  406278:	2b 00 00 00 10 00 02 02 	l.d $f2,16($2)
  406280:	2b 00 00 00 08 00 00 02 	l.d $f0,8($2)
  406288:	42 00 00 00 00 05 18 05 	addu $5,$5,$24
  406290:	71 00 00 00 00 02 00 02 	add.d $f2,$f2,$f0
  406298:	42 00 00 00 00 08 18 08 	addu $8,$8,$24
  4062a0:	55 00 00 00 03 03 05 00 	sll $3,$5,0x3
  4062a8:	42 00 00 00 00 03 0c 03 	addu $3,$3,$12
  4062b0:	37 00 00 00 10 00 02 02 	s.d $f2,16($2)
  4062b8:	55 00 00 00 03 02 08 00 	sll $2,$8,0x3
  4062c0:	42 00 00 00 00 02 0c 02 	addu $2,$2,$12
  4062c8:	2b 00 00 00 00 00 02 03 	l.d $f2,0($3)
  4062d0:	2b 00 00 00 00 00 00 02 	l.d $f0,0($2)
  4062d8:	71 00 00 00 00 02 00 02 	add.d $f2,$f2,$f0
  4062e0:	42 00 00 00 00 04 18 04 	addu $4,$4,$24
  4062e8:	55 00 00 00 03 02 04 00 	sll $2,$4,0x3
  4062f0:	42 00 00 00 00 02 0c 02 	addu $2,$2,$12
  4062f8:	37 00 00 00 00 00 02 03 	s.d $f2,0($3)
  406300:	2b 00 00 00 10 00 02 02 	l.d $f2,16($2)
  406308:	2b 00 00 00 08 00 00 02 	l.d $f0,8($2)
  406310:	42 00 00 00 00 05 18 05 	addu $5,$5,$24
  406318:	71 00 00 00 00 02 00 02 	add.d $f2,$f2,$f0
  406320:	42 00 00 00 00 08 18 08 	addu $8,$8,$24
  406328:	55 00 00 00 03 03 05 00 	sll $3,$5,0x3
  406330:	42 00 00 00 00 03 0c 03 	addu $3,$3,$12
  406338:	37 00 00 00 10 00 02 02 	s.d $f2,16($2)
  406340:	55 00 00 00 03 02 08 00 	sll $2,$8,0x3
  406348:	42 00 00 00 00 02 0c 02 	addu $2,$2,$12
  406350:	2b 00 00 00 00 00 00 03 	l.d $f0,0($3)
  406358:	2b 00 00 00 00 00 02 02 	l.d $f2,0($2)
  406360:	43 00 00 00 04 00 19 19 	addiu $25,$25,4
  406368:	42 00 00 00 00 04 18 04 	addu $4,$4,$24
  406370:	71 00 00 00 00 00 02 00 	add.d $f0,$f0,$f2
  406378:	42 00 00 00 00 05 18 05 	addu $5,$5,$24
  406380:	42 00 00 00 00 08 18 08 	addu $8,$8,$24
  406388:	5b 00 00 00 00 02 19 10 	slt $2,$16,$25
  406390:	37 00 00 00 00 00 00 03 	s.d $f0,0($3)
  406398:	05 00 00 00 72 ff 00 02 	beq $2,$0,406168 <celbnd_+0x890>
  4063a0:	28 00 00 00 64 00 16 1d 	lw $22,100($29)
  4063a8:	28 00 00 00 00 00 02 16 	lw $2,0($22)
  4063b0:	06 00 00 00 a8 00 00 02 	bne $2,$0,406658 <celbnd_+0xd80>
  4063b8:	42 00 00 00 00 10 06 00 	addu $16,$0,$6
  4063c0:	43 00 00 00 02 00 09 00 	addiu $9,$0,2
  4063c8:	5c 00 00 00 02 00 02 10 	slti $2,$16,2
  4063d0:	06 00 00 00 46 01 00 02 	bne $2,$0,4068f0 <celbnd_+0x1018>
  4063d8:	28 00 00 00 24 00 02 1d 	lw $2,36($29)
  4063e0:	46 00 00 00 00 00 18 02 	mult $2,$24
  4063e8:	4c 00 00 00 00 0a 00 00 	mflo $10
  4063f0:	46 00 00 00 00 00 18 12 	mult $18,$24
  4063f8:	55 00 00 00 01 08 18 00 	sll $8,$24,0x1
  406400:	43 00 00 00 ff ff 03 10 	addiu $3,$16,-1
  406408:	4f 00 00 00 01 00 03 03 	andi $3,$3,1
  406410:	4c 00 00 00 00 05 00 00 	mflo $5
  406418:	43 00 00 00 01 00 02 10 	addiu $2,$16,1
  406420:	5b 00 00 00 00 02 02 09 	slt $2,$9,$2
  406428:	05 00 00 00 02 00 00 02 	beq $2,$0,406438 <celbnd_+0xb60>
  406430:	05 00 00 00 2e 00 00 03 	beq $3,$0,4064f0 <celbnd_+0xc18>
  406438:	43 00 00 00 02 00 03 08 	addiu $3,$8,2
  406440:	55 00 00 00 03 03 03 00 	sll $3,$3,0x3
  406448:	42 00 00 00 00 03 0c 03 	addu $3,$3,$12
  406450:	43 00 00 00 02 00 02 0a 	addiu $2,$10,2
  406458:	55 00 00 00 03 02 02 00 	sll $2,$2,0x3
  406460:	42 00 00 00 00 02 0c 02 	addu $2,$2,$12
  406468:	2b 00 00 00 00 00 00 03 	l.d $f0,0($3)
  406470:	2b 00 00 00 00 00 02 02 	l.d $f2,0($2)
  406478:	71 00 00 00 00 00 02 00 	add.d $f0,$f0,$f2
  406480:	43 00 00 00 02 00 02 18 	addiu $2,$24,2
  406488:	55 00 00 00 03 02 02 00 	sll $2,$2,0x3
  406490:	42 00 00 00 00 02 0c 02 	addu $2,$2,$12
  406498:	37 00 00 00 00 00 00 03 	s.d $f0,0($3)
  4064a0:	43 00 00 00 02 00 03 05 	addiu $3,$5,2
  4064a8:	55 00 00 00 03 03 03 00 	sll $3,$3,0x3
  4064b0:	42 00 00 00 00 03 0c 03 	addu $3,$3,$12
  4064b8:	2b 00 00 00 00 00 02 03 	l.d $f2,0($3)
  4064c0:	2b 00 00 00 00 00 00 02 	l.d $f0,0($2)
  4064c8:	71 00 00 00 00 02 00 02 	add.d $f2,$f2,$f0
  4064d0:	43 00 00 00 03 00 09 00 	addiu $9,$0,3
  4064d8:	5c 00 00 00 03 00 04 10 	slti $4,$16,3
  4064e0:	37 00 00 00 00 00 02 03 	s.d $f2,0($3)
  4064e8:	06 00 00 00 00 01 00 04 	bne $4,$0,4068f0 <celbnd_+0x1018>
  4064f0:	42 00 00 00 00 03 08 09 	addu $3,$9,$8
  4064f8:	55 00 00 00 03 03 03 00 	sll $3,$3,0x3
  406500:	42 00 00 00 00 03 0c 03 	addu $3,$3,$12
  406508:	42 00 00 00 00 02 0a 09 	addu $2,$9,$10
  406510:	55 00 00 00 03 02 02 00 	sll $2,$2,0x3
  406518:	42 00 00 00 00 02 0c 02 	addu $2,$2,$12
  406520:	2b 00 00 00 00 00 00 03 	l.d $f0,0($3)
  406528:	2b 00 00 00 00 00 02 02 	l.d $f2,0($2)
  406530:	71 00 00 00 00 00 02 00 	add.d $f0,$f0,$f2
  406538:	42 00 00 00 00 02 18 09 	addu $2,$9,$24
  406540:	55 00 00 00 03 02 02 00 	sll $2,$2,0x3
  406548:	42 00 00 00 00 02 0c 02 	addu $2,$2,$12
  406550:	37 00 00 00 00 00 00 03 	s.d $f0,0($3)
  406558:	42 00 00 00 00 03 05 09 	addu $3,$9,$5
  406560:	55 00 00 00 03 03 03 00 	sll $3,$3,0x3
  406568:	42 00 00 00 00 03 0c 03 	addu $3,$3,$12
  406570:	2b 00 00 00 00 00 00 03 	l.d $f0,0($3)
  406578:	2b 00 00 00 00 00 02 02 	l.d $f2,0($2)
  406580:	71 00 00 00 00 00 02 00 	add.d $f0,$f0,$f2
  406588:	37 00 00 00 00 00 00 03 	s.d $f0,0($3)
  406590:	43 00 00 00 01 00 03 09 	addiu $3,$9,1
  406598:	42 00 00 00 00 04 08 03 	addu $4,$3,$8
  4065a0:	55 00 00 00 03 04 04 00 	sll $4,$4,0x3
  4065a8:	42 00 00 00 00 02 0a 03 	addu $2,$3,$10
  4065b0:	55 00 00 00 03 02 02 00 	sll $2,$2,0x3
  4065b8:	42 00 00 00 00 02 0c 02 	addu $2,$2,$12
  4065c0:	2b 00 00 00 00 00 02 02 	l.d $f2,0($2)
  4065c8:	42 00 00 00 00 04 0c 04 	addu $4,$4,$12
  4065d0:	2b 00 00 00 00 00 00 04 	l.d $f0,0($4)
  4065d8:	42 00 00 00 00 02 05 03 	addu $2,$3,$5
  4065e0:	55 00 00 00 03 02 02 00 	sll $2,$2,0x3
  4065e8:	42 00 00 00 00 02 0c 02 	addu $2,$2,$12
  4065f0:	71 00 00 00 00 00 02 00 	add.d $f0,$f0,$f2
  4065f8:	42 00 00 00 00 03 18 03 	addu $3,$3,$24
  406600:	55 00 00 00 03 03 03 00 	sll $3,$3,0x3
  406608:	42 00 00 00 00 03 0c 03 	addu $3,$3,$12
  406610:	37 00 00 00 00 00 00 04 	s.d $f0,0($4)
  406618:	2b 00 00 00 00 00 02 02 	l.d $f2,0($2)
  406620:	2b 00 00 00 00 00 00 03 	l.d $f0,0($3)
  406628:	71 00 00 00 00 02 00 02 	add.d $f2,$f2,$f0
  406630:	43 00 00 00 02 00 09 09 	addiu $9,$9,2
  406638:	5b 00 00 00 00 04 09 10 	slt $4,$16,$9
  406640:	37 00 00 00 00 00 02 02 	s.d $f2,0($2)
  406648:	05 00 00 00 a8 ff 00 04 	beq $4,$0,4064f0 <celbnd_+0xc18>
  406650:	01 00 00 00 3c 1a 10 00 	j 4068f0 <celbnd_+0x1018>
  406658:	42 00 00 00 00 10 06 00 	addu $16,$0,$6
  406660:	43 00 00 00 02 00 09 00 	addiu $9,$0,2
  406668:	5c 00 00 00 02 00 02 10 	slti $2,$16,2
  406670:	06 00 00 00 9e 00 00 02 	bne $2,$0,4068f0 <celbnd_+0x1018>
  406678:	46 00 00 00 00 00 18 12 	mult $18,$24
  406680:	28 00 00 00 24 00 02 1d 	lw $2,36($29)
  406688:	4c 00 00 00 00 0a 00 00 	mflo $10
  406690:	46 00 00 00 00 00 18 02 	mult $2,$24
  406698:	55 00 00 00 01 08 18 00 	sll $8,$24,0x1
  4066a0:	43 00 00 00 ff ff 03 10 	addiu $3,$16,-1
  4066a8:	4f 00 00 00 01 00 03 03 	andi $3,$3,1
  4066b0:	4c 00 00 00 00 05 00 00 	mflo $5
  4066b8:	43 00 00 00 01 00 02 10 	addiu $2,$16,1
  4066c0:	5b 00 00 00 00 02 02 09 	slt $2,$9,$2
  4066c8:	05 00 00 00 02 00 00 02 	beq $2,$0,4066d8 <celbnd_+0xe00>
  4066d0:	05 00 00 00 2e 00 00 03 	beq $3,$0,406790 <celbnd_+0xeb8>
  4066d8:	43 00 00 00 02 00 03 08 	addiu $3,$8,2
  4066e0:	55 00 00 00 03 03 03 00 	sll $3,$3,0x3
  4066e8:	42 00 00 00 00 03 0c 03 	addu $3,$3,$12
  4066f0:	43 00 00 00 02 00 02 18 	addiu $2,$24,2
  4066f8:	55 00 00 00 03 02 02 00 	sll $2,$2,0x3
  406700:	42 00 00 00 00 02 0c 02 	addu $2,$2,$12
  406708:	2b 00 00 00 00 00 00 03 	l.d $f0,0($3)
  406710:	2b 00 00 00 00 00 02 02 	l.d $f2,0($2)
  406718:	71 00 00 00 00 00 02 00 	add.d $f0,$f0,$f2
  406720:	43 00 00 00 02 00 02 05 	addiu $2,$5,2
  406728:	55 00 00 00 03 02 02 00 	sll $2,$2,0x3
  406730:	42 00 00 00 00 02 0c 02 	addu $2,$2,$12
  406738:	37 00 00 00 00 00 00 03 	s.d $f0,0($3)
  406740:	43 00 00 00 02 00 03 0a 	addiu $3,$10,2
  406748:	55 00 00 00 03 03 03 00 	sll $3,$3,0x3
  406750:	42 00 00 00 00 03 0c 03 	addu $3,$3,$12
  406758:	2b 00 00 00 00 00 02 03 	l.d $f2,0($3)
  406760:	2b 00 00 00 00 00 00 02 	l.d $f0,0($2)
  406768:	71 00 00 00 00 02 00 02 	add.d $f2,$f2,$f0
  406770:	43 00 00 00 03 00 09 00 	addiu $9,$0,3
  406778:	5c 00 00 00 03 00 04 10 	slti $4,$16,3
  406780:	37 00 00 00 00 00 02 03 	s.d $f2,0($3)
  406788:	06 00 00 00 58 00 00 04 	bne $4,$0,4068f0 <celbnd_+0x1018>
  406790:	42 00 00 00 00 03 08 09 	addu $3,$9,$8
  406798:	55 00 00 00 03 03 03 00 	sll $3,$3,0x3
  4067a0:	42 00 00 00 00 03 0c 03 	addu $3,$3,$12
  4067a8:	42 00 00 00 00 02 18 09 	addu $2,$9,$24
  4067b0:	55 00 00 00 03 02 02 00 	sll $2,$2,0x3
  4067b8:	42 00 00 00 00 02 0c 02 	addu $2,$2,$12
  4067c0:	2b 00 00 00 00 00 00 03 	l.d $f0,0($3)
  4067c8:	2b 00 00 00 00 00 02 02 	l.d $f2,0($2)
  4067d0:	71 00 00 00 00 00 02 00 	add.d $f0,$f0,$f2
  4067d8:	42 00 00 00 00 02 05 09 	addu $2,$9,$5
  4067e0:	55 00 00 00 03 02 02 00 	sll $2,$2,0x3
  4067e8:	42 00 00 00 00 02 0c 02 	addu $2,$2,$12
  4067f0:	37 00 00 00 00 00 00 03 	s.d $f0,0($3)
  4067f8:	42 00 00 00 00 03 0a 09 	addu $3,$9,$10
  406800:	55 00 00 00 03 03 03 00 	sll $3,$3,0x3
  406808:	42 00 00 00 00 03 0c 03 	addu $3,$3,$12
  406810:	2b 00 00 00 00 00 00 03 	l.d $f0,0($3)
  406818:	2b 00 00 00 00 00 02 02 	l.d $f2,0($2)
  406820:	71 00 00 00 00 00 02 00 	add.d $f0,$f0,$f2
  406828:	37 00 00 00 00 00 00 03 	s.d $f0,0($3)
  406830:	43 00 00 00 01 00 03 09 	addiu $3,$9,1
  406838:	42 00 00 00 00 04 08 03 	addu $4,$3,$8
  406840:	55 00 00 00 03 04 04 00 	sll $4,$4,0x3
  406848:	42 00 00 00 00 02 18 03 	addu $2,$3,$24
  406850:	55 00 00 00 03 02 02 00 	sll $2,$2,0x3
  406858:	42 00 00 00 00 02 0c 02 	addu $2,$2,$12
  406860:	2b 00 00 00 00 00 02 02 	l.d $f2,0($2)
  406868:	42 00 00 00 00 04 0c 04 	addu $4,$4,$12
  406870:	2b 00 00 00 00 00 00 04 	l.d $f0,0($4)
  406878:	42 00 00 00 00 02 0a 03 	addu $2,$3,$10
  406880:	55 00 00 00 03 02 02 00 	sll $2,$2,0x3
  406888:	42 00 00 00 00 02 0c 02 	addu $2,$2,$12
  406890:	71 00 00 00 00 00 02 00 	add.d $f0,$f0,$f2
  406898:	42 00 00 00 00 03 05 03 	addu $3,$3,$5
  4068a0:	55 00 00 00 03 03 03 00 	sll $3,$3,0x3
  4068a8:	42 00 00 00 00 03 0c 03 	addu $3,$3,$12
  4068b0:	37 00 00 00 00 00 00 04 	s.d $f0,0($4)
  4068b8:	2b 00 00 00 00 00 02 02 	l.d $f2,0($2)
  4068c0:	2b 00 00 00 00 00 00 03 	l.d $f0,0($3)
  4068c8:	71 00 00 00 00 02 00 02 	add.d $f2,$f2,$f0
  4068d0:	43 00 00 00 02 00 09 09 	addiu $9,$9,2
  4068d8:	5b 00 00 00 00 04 09 10 	slt $4,$16,$9
  4068e0:	37 00 00 00 00 00 02 02 	s.d $f2,0($2)
  4068e8:	05 00 00 00 a8 ff 00 04 	beq $4,$0,406790 <celbnd_+0xeb8>
  4068f0:	28 00 00 00 00 00 02 0e 	lw $2,0($14)
  4068f8:	06 00 00 00 ee 00 00 02 	bne $2,$0,406cb8 <celbnd_+0x13e0>
  406900:	42 00 00 00 00 10 12 00 	addu $16,$0,$18
  406908:	43 00 00 00 02 00 19 00 	addiu $25,$0,2
  406910:	5c 00 00 00 02 00 02 10 	slti $2,$16,2
  406918:	06 00 00 00 ee 01 00 02 	bne $2,$0,4070d8 <celbnd_+0x1800>
  406920:	28 00 00 00 20 00 03 1d 	lw $3,32($29)
  406928:	55 00 00 00 01 02 18 00 	sll $2,$24,0x1
  406930:	42 00 00 00 00 0f 06 02 	addu $15,$2,$6
  406938:	42 00 00 00 00 0e 02 00 	addu $14,$0,$2
  406940:	43 00 00 00 01 00 02 10 	addiu $2,$16,1
  406948:	5b 00 00 00 00 02 02 19 	slt $2,$25,$2
  406950:	42 00 00 00 00 0d 03 0e 	addu $13,$14,$3
  406958:	43 00 00 00 ff ff 03 10 	addiu $3,$16,-1
  406960:	4f 00 00 00 03 00 03 03 	andi $3,$3,3
  406968:	05 00 00 00 42 00 00 02 	beq $2,$0,406a78 <celbnd_+0x11a0>
  406970:	05 00 00 00 60 00 00 03 	beq $3,$0,406af8 <celbnd_+0x1220>
  406978:	5c 00 00 00 02 00 02 03 	slti $2,$3,2
  406980:	06 00 00 00 3c 00 00 02 	bne $2,$0,406a78 <celbnd_+0x11a0>
  406988:	5c 00 00 00 03 00 02 03 	slti $2,$3,3
  406990:	06 00 00 00 1c 00 00 02 	bne $2,$0,406a08 <celbnd_+0x1130>
  406998:	55 00 00 00 03 04 0d 00 	sll $4,$13,0x3
  4069a0:	42 00 00 00 00 0d 18 0d 	addu $13,$13,$24
  4069a8:	55 00 00 00 03 02 0f 00 	sll $2,$15,0x3
  4069b0:	42 00 00 00 00 0f 18 0f 	addu $15,$15,$24
  4069b8:	55 00 00 00 04 03 18 00 	sll $3,$24,0x4
  4069c0:	42 00 00 00 00 03 0c 03 	addu $3,$3,$12
  4069c8:	42 00 00 00 00 02 0c 02 	addu $2,$2,$12
  4069d0:	2b 00 00 00 00 00 00 02 	l.d $f0,0($2)
  4069d8:	2b 00 00 00 10 00 02 03 	l.d $f2,16($3)
  4069e0:	42 00 00 00 00 0e 18 0e 	addu $14,$14,$24
  4069e8:	43 00 00 00 03 00 19 00 	addiu $25,$0,3
  4069f0:	42 00 00 00 00 04 0c 04 	addu $4,$4,$12
  4069f8:	37 00 00 00 08 00 00 03 	s.d $f0,8($3)
  406a00:	37 00 00 00 00 00 02 04 	s.d $f2,0($4)
  406a08:	55 00 00 00 03 04 0d 00 	sll $4,$13,0x3
  406a10:	42 00 00 00 00 0d 18 0d 	addu $13,$13,$24
  406a18:	55 00 00 00 03 02 0f 00 	sll $2,$15,0x3
  406a20:	42 00 00 00 00 0f 18 0f 	addu $15,$15,$24
  406a28:	55 00 00 00 03 03 0e 00 	sll $3,$14,0x3
  406a30:	42 00 00 00 00 03 0c 03 	addu $3,$3,$12
  406a38:	42 00 00 00 00 02 0c 02 	addu $2,$2,$12
  406a40:	2b 00 00 00 00 00 00 02 	l.d $f0,0($2)
  406a48:	2b 00 00 00 10 00 02 03 	l.d $f2,16($3)
  406a50:	42 00 00 00 00 0e 18 0e 	addu $14,$14,$24
  406a58:	43 00 00 00 01 00 19 19 	addiu $25,$25,1
  406a60:	42 00 00 00 00 04 0c 04 	addu $4,$4,$12
  406a68:	37 00 00 00 08 00 00 03 	s.d $f0,8($3)
  406a70:	37 00 00 00 00 00 02 04 	s.d $f2,0($4)
  406a78:	55 00 00 00 03 04 0d 00 	sll $4,$13,0x3
  406a80:	42 00 00 00 00 0d 18 0d 	addu $13,$13,$24
  406a88:	55 00 00 00 03 02 0f 00 	sll $2,$15,0x3
  406a90:	42 00 00 00 00 0f 18 0f 	addu $15,$15,$24
  406a98:	55 00 00 00 03 03 0e 00 	sll $3,$14,0x3
  406aa0:	42 00 00 00 00 0e 18 0e 	addu $14,$14,$24
  406aa8:	42 00 00 00 00 03 0c 03 	addu $3,$3,$12
  406ab0:	42 00 00 00 00 02 0c 02 	addu $2,$2,$12
  406ab8:	2b 00 00 00 00 00 00 02 	l.d $f0,0($2)
  406ac0:	2b 00 00 00 10 00 02 03 	l.d $f2,16($3)
  406ac8:	43 00 00 00 01 00 19 19 	addiu $25,$25,1
  406ad0:	5b 00 00 00 00 05 19 10 	slt $5,$16,$25
  406ad8:	42 00 00 00 00 04 0c 04 	addu $4,$4,$12
  406ae0:	37 00 00 00 08 00 00 03 	s.d $f0,8($3)
  406ae8:	37 00 00 00 00 00 02 04 	s.d $f2,0($4)
  406af0:	06 00 00 00 78 01 00 05 	bne $5,$0,4070d8 <celbnd_+0x1800>
  406af8:	55 00 00 00 03 08 0d 00 	sll $8,$13,0x3
  406b00:	42 00 00 00 00 0d 18 0d 	addu $13,$13,$24
  406b08:	55 00 00 00 03 03 0f 00 	sll $3,$15,0x3
  406b10:	42 00 00 00 00 0f 18 0f 	addu $15,$15,$24
  406b18:	55 00 00 00 03 02 0e 00 	sll $2,$14,0x3
  406b20:	42 00 00 00 00 0e 18 0e 	addu $14,$14,$24
  406b28:	55 00 00 00 03 09 0d 00 	sll $9,$13,0x3
  406b30:	42 00 00 00 00 0d 18 0d 	addu $13,$13,$24
  406b38:	55 00 00 00 03 06 0f 00 	sll $6,$15,0x3
  406b40:	42 00 00 00 00 0f 18 0f 	addu $15,$15,$24
  406b48:	55 00 00 00 03 04 0e 00 	sll $4,$14,0x3
  406b50:	42 00 00 00 00 0e 18 0e 	addu $14,$14,$24
  406b58:	55 00 00 00 03 0b 0d 00 	sll $11,$13,0x3
  406b60:	42 00 00 00 00 0d 18 0d 	addu $13,$13,$24
  406b68:	55 00 00 00 03 07 0f 00 	sll $7,$15,0x3
  406b70:	42 00 00 00 00 0f 18 0f 	addu $15,$15,$24
  406b78:	55 00 00 00 03 05 0e 00 	sll $5,$14,0x3
  406b80:	42 00 00 00 00 0e 18 0e 	addu $14,$14,$24
  406b88:	42 00 00 00 00 02 0c 02 	addu $2,$2,$12
  406b90:	42 00 00 00 00 03 0c 03 	addu $3,$3,$12
  406b98:	2b 00 00 00 00 00 00 03 	l.d $f0,0($3)
  406ba0:	2b 00 00 00 10 00 02 02 	l.d $f2,16($2)
  406ba8:	55 00 00 00 03 0a 0d 00 	sll $10,$13,0x3
  406bb0:	42 00 00 00 00 0d 18 0d 	addu $13,$13,$24
  406bb8:	42 00 00 00 00 08 0c 08 	addu $8,$8,$12
  406bc0:	42 00 00 00 00 04 0c 04 	addu $4,$4,$12
  406bc8:	42 00 00 00 00 06 0c 06 	addu $6,$6,$12
  406bd0:	42 00 00 00 00 09 0c 09 	addu $9,$9,$12
  406bd8:	42 00 00 00 00 05 0c 05 	addu $5,$5,$12
  406be0:	42 00 00 00 00 07 0c 07 	addu $7,$7,$12
  406be8:	42 00 00 00 00 0b 0c 0b 	addu $11,$11,$12
  406bf0:	43 00 00 00 04 00 19 19 	addiu $25,$25,4
  406bf8:	42 00 00 00 00 0a 0c 0a 	addu $10,$10,$12
  406c00:	37 00 00 00 08 00 00 02 	s.d $f0,8($2)
  406c08:	37 00 00 00 00 00 02 08 	s.d $f2,0($8)
  406c10:	2b 00 00 00 00 00 00 06 	l.d $f0,0($6)
  406c18:	2b 00 00 00 10 00 02 04 	l.d $f2,16($4)
  406c20:	55 00 00 00 03 03 0f 00 	sll $3,$15,0x3
  406c28:	42 00 00 00 00 0f 18 0f 	addu $15,$15,$24
  406c30:	55 00 00 00 03 02 0e 00 	sll $2,$14,0x3
  406c38:	37 00 00 00 08 00 00 04 	s.d $f0,8($4)
  406c40:	37 00 00 00 00 00 02 09 	s.d $f2,0($9)
  406c48:	2b 00 00 00 00 00 00 07 	l.d $f0,0($7)
  406c50:	2b 00 00 00 10 00 02 05 	l.d $f2,16($5)
  406c58:	42 00 00 00 00 02 0c 02 	addu $2,$2,$12
  406c60:	42 00 00 00 00 03 0c 03 	addu $3,$3,$12
  406c68:	37 00 00 00 08 00 00 05 	s.d $f0,8($5)
  406c70:	37 00 00 00 00 00 02 0b 	s.d $f2,0($11)
  406c78:	2b 00 00 00 00 00 00 03 	l.d $f0,0($3)
  406c80:	2b 00 00 00 10 00 02 02 	l.d $f2,16($2)
  406c88:	42 00 00 00 00 0e 18 0e 	addu $14,$14,$24
  406c90:	5b 00 00 00 00 05 19 10 	slt $5,$16,$25
  406c98:	37 00 00 00 08 00 00 02 	s.d $f0,8($2)
  406ca0:	37 00 00 00 00 00 02 0a 	s.d $f2,0($10)
  406ca8:	05 00 00 00 92 ff 00 05 	beq $5,$0,406af8 <celbnd_+0x1220>
  406cb0:	01 00 00 00 36 1c 10 00 	j 4070d8 <celbnd_+0x1800>
  406cb8:	a5 00 00 00 00 00 13 00 	mtc1 $19,$f0
  406cc0:	83 00 00 00 00 00 00 00 	cvt.d.w $f0,$f0
  406cc8:	71 00 00 00 00 00 00 00 	add.d $f0,$f0,$f0
  406cd0:	2b 00 00 00 28 81 02 1c 	l.d $f2,-32472($28)
  406cd8:	73 00 00 00 00 02 00 02 	sub.d $f2,$f2,$f0
  406ce0:	42 00 00 00 00 10 12 00 	addu $16,$0,$18
  406ce8:	43 00 00 00 02 00 19 00 	addiu $25,$0,2
  406cf0:	5c 00 00 00 02 00 02 10 	slti $2,$16,2
  406cf8:	06 00 00 00 f6 00 00 02 	bne $2,$0,4070d8 <celbnd_+0x1800>
  406d00:	28 00 00 00 20 00 03 1d 	lw $3,32($29)
  406d08:	55 00 00 00 01 02 18 00 	sll $2,$24,0x1
  406d10:	42 00 00 00 00 06 06 02 	addu $6,$2,$6
  406d18:	42 00 00 00 00 05 02 00 	addu $5,$0,$2
  406d20:	43 00 00 00 01 00 02 10 	addiu $2,$16,1
  406d28:	5b 00 00 00 00 02 02 19 	slt $2,$25,$2
  406d30:	42 00 00 00 00 04 03 05 	addu $4,$5,$3
  406d38:	43 00 00 00 ff ff 03 10 	addiu $3,$16,-1
  406d40:	4f 00 00 00 03 00 03 03 	andi $3,$3,3
  406d48:	05 00 00 00 4a 00 00 02 	beq $2,$0,406e78 <celbnd_+0x15a0>
  406d50:	05 00 00 00 62 00 00 03 	beq $3,$0,406ee0 <celbnd_+0x1608>
  406d58:	5c 00 00 00 02 00 02 03 	slti $2,$3,2
  406d60:	06 00 00 00 44 00 00 02 	bne $2,$0,406e78 <celbnd_+0x15a0>
  406d68:	5c 00 00 00 03 00 02 03 	slti $2,$3,3
  406d70:	06 00 00 00 20 00 00 02 	bne $2,$0,406df8 <celbnd_+0x1520>
  406d78:	55 00 00 00 04 02 18 00 	sll $2,$24,0x4
  406d80:	42 00 00 00 00 02 0c 02 	addu $2,$2,$12
  406d88:	2b 00 00 00 10 00 00 02 	l.d $f0,16($2)
  406d90:	75 00 00 00 00 00 00 02 	mul.d $f0,$f2,$f0
  406d98:	37 00 00 00 08 00 00 02 	s.d $f0,8($2)
  406da0:	55 00 00 00 03 02 06 00 	sll $2,$6,0x3
  406da8:	42 00 00 00 00 02 0c 02 	addu $2,$2,$12
  406db0:	2b 00 00 00 00 00 00 02 	l.d $f0,0($2)
  406db8:	75 00 00 00 00 00 00 02 	mul.d $f0,$f2,$f0
  406dc0:	42 00 00 00 00 05 18 05 	addu $5,$5,$24
  406dc8:	43 00 00 00 03 00 19 00 	addiu $25,$0,3
  406dd0:	42 00 00 00 00 06 18 06 	addu $6,$6,$24
  406dd8:	55 00 00 00 03 02 04 00 	sll $2,$4,0x3
  406de0:	42 00 00 00 00 04 18 04 	addu $4,$4,$24
  406de8:	42 00 00 00 00 02 0c 02 	addu $2,$2,$12
  406df0:	37 00 00 00 00 00 00 02 	s.d $f0,0($2)
  406df8:	55 00 00 00 03 02 05 00 	sll $2,$5,0x3
  406e00:	42 00 00 00 00 02 0c 02 	addu $2,$2,$12
  406e08:	2b 00 00 00 10 00 00 02 	l.d $f0,16($2)
  406e10:	75 00 00 00 00 00 00 02 	mul.d $f0,$f2,$f0
  406e18:	37 00 00 00 08 00 00 02 	s.d $f0,8($2)
  406e20:	55 00 00 00 03 02 06 00 	sll $2,$6,0x3
  406e28:	42 00 00 00 00 02 0c 02 	addu $2,$2,$12
  406e30:	2b 00 00 00 00 00 00 02 	l.d $f0,0($2)
  406e38:	75 00 00 00 00 00 00 02 	mul.d $f0,$f2,$f0
  406e40:	42 00 00 00 00 05 18 05 	addu $5,$5,$24
  406e48:	43 00 00 00 01 00 19 19 	addiu $25,$25,1
  406e50:	42 00 00 00 00 06 18 06 	addu $6,$6,$24
  406e58:	55 00 00 00 03 02 04 00 	sll $2,$4,0x3
  406e60:	42 00 00 00 00 04 18 04 	addu $4,$4,$24
  406e68:	42 00 00 00 00 02 0c 02 	addu $2,$2,$12
  406e70:	37 00 00 00 00 00 00 02 	s.d $f0,0($2)
  406e78:	55 00 00 00 03 02 05 00 	sll $2,$5,0x3
  406e80:	42 00 00 00 00 02 0c 02 	addu $2,$2,$12
  406e88:	2b 00 00 00 10 00 00 02 	l.d $f0,16($2)
  406e90:	75 00 00 00 00 00 00 02 	mul.d $f0,$f2,$f0
  406e98:	37 00 00 00 08 00 00 02 	s.d $f0,8($2)
  406ea0:	55 00 00 00 03 02 06 00 	sll $2,$6,0x3
  406ea8:	42 00 00 00 00 02 0c 02 	addu $2,$2,$12
  406eb0:	2b 00 00 00 00 00 00 02 	l.d $f0,0($2)
  406eb8:	75 00 00 00 00 00 00 02 	mul.d $f0,$f2,$f0
  406ec0:	42 00 00 00 00 05 18 05 	addu $5,$5,$24
  406ec8:	43 00 00 00 01 00 19 19 	addiu $25,$25,1
  406ed0:	5b 00 00 00 00 03 19 10 	slt $3,$16,$25
  406ed8:	01 00 00 00 2a 1c 10 00 	j 4070a8 <celbnd_+0x17d0>
  406ee0:	55 00 00 00 03 02 05 00 	sll $2,$5,0x3
  406ee8:	42 00 00 00 00 02 0c 02 	addu $2,$2,$12
  406ef0:	2b 00 00 00 10 00 00 02 	l.d $f0,16($2)
  406ef8:	75 00 00 00 00 00 00 02 	mul.d $f0,$f2,$f0
  406f00:	37 00 00 00 08 00 00 02 	s.d $f0,8($2)
  406f08:	55 00 00 00 03 02 06 00 	sll $2,$6,0x3
  406f10:	42 00 00 00 00 02 0c 02 	addu $2,$2,$12
  406f18:	2b 00 00 00 00 00 00 02 	l.d $f0,0($2)
  406f20:	75 00 00 00 00 00 00 02 	mul.d $f0,$f2,$f0
  406f28:	42 00 00 00 00 05 18 05 	addu $5,$5,$24
  406f30:	55 00 00 00 03 02 04 00 	sll $2,$4,0x3
  406f38:	42 00 00 00 00 02 0c 02 	addu $2,$2,$12
  406f40:	37 00 00 00 00 00 00 02 	s.d $f0,0($2)
  406f48:	55 00 00 00 03 02 05 00 	sll $2,$5,0x3
  406f50:	42 00 00 00 00 02 0c 02 	addu $2,$2,$12
  406f58:	2b 00 00 00 10 00 00 02 	l.d $f0,16($2)
  406f60:	75 00 00 00 00 00 00 02 	mul.d $f0,$f2,$f0
  406f68:	42 00 00 00 00 06 18 06 	addu $6,$6,$24
  406f70:	37 00 00 00 08 00 00 02 	s.d $f0,8($2)
  406f78:	55 00 00 00 03 02 06 00 	sll $2,$6,0x3
  406f80:	42 00 00 00 00 02 0c 02 	addu $2,$2,$12
  406f88:	2b 00 00 00 00 00 00 02 	l.d $f0,0($2)
  406f90:	75 00 00 00 00 00 00 02 	mul.d $f0,$f2,$f0
  406f98:	42 00 00 00 00 04 18 04 	addu $4,$4,$24
  406fa0:	42 00 00 00 00 05 18 05 	addu $5,$5,$24
  406fa8:	55 00 00 00 03 02 04 00 	sll $2,$4,0x3
  406fb0:	42 00 00 00 00 02 0c 02 	addu $2,$2,$12
  406fb8:	37 00 00 00 00 00 00 02 	s.d $f0,0($2)
  406fc0:	55 00 00 00 03 02 05 00 	sll $2,$5,0x3
  406fc8:	42 00 00 00 00 02 0c 02 	addu $2,$2,$12
  406fd0:	2b 00 00 00 10 00 00 02 	l.d $f0,16($2)
  406fd8:	75 00 00 00 00 00 00 02 	mul.d $f0,$f2,$f0
  406fe0:	42 00 00 00 00 06 18 06 	addu $6,$6,$24
  406fe8:	37 00 00 00 08 00 00 02 	s.d $f0,8($2)
  406ff0:	55 00 00 00 03 02 06 00 	sll $2,$6,0x3
  406ff8:	42 00 00 00 00 02 0c 02 	addu $2,$2,$12
  407000:	2b 00 00 00 00 00 00 02 	l.d $f0,0($2)
  407008:	75 00 00 00 00 00 00 02 	mul.d $f0,$f2,$f0
  407010:	42 00 00 00 00 04 18 04 	addu $4,$4,$24
  407018:	42 00 00 00 00 05 18 05 	addu $5,$5,$24
  407020:	55 00 00 00 03 02 04 00 	sll $2,$4,0x3
  407028:	42 00 00 00 00 02 0c 02 	addu $2,$2,$12
  407030:	37 00 00 00 00 00 00 02 	s.d $f0,0($2)
  407038:	55 00 00 00 03 02 05 00 	sll $2,$5,0x3
  407040:	42 00 00 00 00 02 0c 02 	addu $2,$2,$12
  407048:	2b 00 00 00 10 00 00 02 	l.d $f0,16($2)
  407050:	75 00 00 00 00 00 00 02 	mul.d $f0,$f2,$f0
  407058:	42 00 00 00 00 06 18 06 	addu $6,$6,$24
  407060:	37 00 00 00 08 00 00 02 	s.d $f0,8($2)
  407068:	55 00 00 00 03 02 06 00 	sll $2,$6,0x3
  407070:	42 00 00 00 00 02 0c 02 	addu $2,$2,$12
  407078:	2b 00 00 00 00 00 00 02 	l.d $f0,0($2)
  407080:	43 00 00 00 04 00 19 19 	addiu $25,$25,4
  407088:	75 00 00 00 00 00 00 02 	mul.d $f0,$f2,$f0
  407090:	5b 00 00 00 00 03 19 10 	slt $3,$16,$25
  407098:	42 00 00 00 00 04 18 04 	addu $4,$4,$24
  4070a0:	42 00 00 00 00 05 18 05 	addu $5,$5,$24
  4070a8:	42 00 00 00 00 06 18 06 	addu $6,$6,$24
  4070b0:	55 00 00 00 03 02 04 00 	sll $2,$4,0x3
  4070b8:	42 00 00 00 00 04 18 04 	addu $4,$4,$24
  4070c0:	42 00 00 00 00 02 0c 02 	addu $2,$2,$12
  4070c8:	37 00 00 00 00 00 00 02 	s.d $f0,0($2)
  4070d0:	05 00 00 00 82 ff 00 03 	beq $3,$0,406ee0 <celbnd_+0x1608>
  4070d8:	28 00 00 00 64 00 16 1d 	lw $22,100($29)
  4070e0:	28 00 00 00 00 00 02 16 	lw $2,0($22)
  4070e8:	06 00 00 00 1c 01 00 02 	bne $2,$0,407560 <celbnd_+0x1c88>
  4070f0:	28 00 00 00 20 00 10 1d 	lw $16,32($29)
  4070f8:	43 00 00 00 01 00 09 00 	addiu $9,$0,1
  407100:	07 00 00 00 b6 01 00 10 	blez $16,4077e0 <celbnd_+0x1f08>
  407108:	46 00 00 00 00 00 18 12 	mult $18,$24
  407110:	28 00 00 00 24 00 02 1d 	lw $2,36($29)
  407118:	4c 00 00 00 00 0d 00 00 	mflo $13
  407120:	46 00 00 00 00 00 18 02 	mult $2,$24
  407128:	55 00 00 00 01 0a 18 00 	sll $10,$24,0x1
  407130:	4f 00 00 00 03 00 03 10 	andi $3,$16,3
  407138:	4c 00 00 00 00 0b 00 00 	mflo $11
  407140:	43 00 00 00 01 00 02 10 	addiu $2,$16,1
  407148:	5b 00 00 00 00 02 02 09 	slt $2,$9,$2
  407150:	05 00 00 00 4e 00 00 02 	beq $2,$0,407290 <celbnd_+0x19b8>
  407158:	05 00 00 00 72 00 00 03 	beq $3,$0,407328 <celbnd_+0x1a50>
  407160:	5c 00 00 00 02 00 02 03 	slti $2,$3,2
  407168:	06 00 00 00 48 00 00 02 	bne $2,$0,407290 <celbnd_+0x19b8>
  407170:	5c 00 00 00 03 00 02 03 	slti $2,$3,3
  407178:	06 00 00 00 22 00 00 02 	bne $2,$0,407208 <celbnd_+0x1930>
  407180:	43 00 00 00 02 00 09 00 	addiu $9,$0,2
  407188:	43 00 00 00 01 00 03 18 	addiu $3,$24,1
  407190:	43 00 00 00 01 00 02 0d 	addiu $2,$13,1
  407198:	55 00 00 00 03 02 02 00 	sll $2,$2,0x3
  4071a0:	42 00 00 00 00 02 0c 02 	addu $2,$2,$12
  4071a8:	2b 00 00 00 00 00 00 02 	l.d $f0,0($2)
  4071b0:	55 00 00 00 03 03 03 00 	sll $3,$3,0x3
  4071b8:	42 00 00 00 00 03 0c 03 	addu $3,$3,$12
  4071c0:	37 00 00 00 00 00 00 03 	s.d $f0,0($3)
  4071c8:	43 00 00 00 01 00 03 0b 	addiu $3,$11,1
  4071d0:	43 00 00 00 01 00 02 0a 	addiu $2,$10,1
  4071d8:	55 00 00 00 03 02 02 00 	sll $2,$2,0x3
  4071e0:	42 00 00 00 00 02 0c 02 	addu $2,$2,$12
  4071e8:	2b 00 00 00 00 00 00 02 	l.d $f0,0($2)
  4071f0:	55 00 00 00 03 03 03 00 	sll $3,$3,0x3
  4071f8:	42 00 00 00 00 03 0c 03 	addu $3,$3,$12
  407200:	37 00 00 00 00 00 00 03 	s.d $f0,0($3)
  407208:	42 00 00 00 00 03 18 09 	addu $3,$9,$24
  407210:	42 00 00 00 00 02 0d 09 	addu $2,$9,$13
  407218:	42 00 00 00 00 05 0b 09 	addu $5,$9,$11
  407220:	42 00 00 00 00 04 0a 09 	addu $4,$9,$10
  407228:	43 00 00 00 01 00 09 09 	addiu $9,$9,1
  407230:	55 00 00 00 03 02 02 00 	sll $2,$2,0x3
  407238:	42 00 00 00 00 02 0c 02 	addu $2,$2,$12
  407240:	2b 00 00 00 00 00 00 02 	l.d $f0,0($2)
  407248:	55 00 00 00 03 03 03 00 	sll $3,$3,0x3
  407250:	42 00 00 00 00 03 0c 03 	addu $3,$3,$12
  407258:	55 00 00 00 03 04 04 00 	sll $4,$4,0x3
  407260:	42 00 00 00 00 04 0c 04 	addu $4,$4,$12
  407268:	37 00 00 00 00 00 00 03 	s.d $f0,0($3)
  407270:	2b 00 00 00 00 00 00 04 	l.d $f0,0($4)
  407278:	55 00 00 00 03 05 05 00 	sll $5,$5,0x3
  407280:	42 00 00 00 00 05 0c 05 	addu $5,$5,$12
  407288:	37 00 00 00 00 00 00 05 	s.d $f0,0($5)
  407290:	42 00 00 00 00 03 18 09 	addu $3,$9,$24
  407298:	42 00 00 00 00 02 0d 09 	addu $2,$9,$13
  4072a0:	42 00 00 00 00 05 0b 09 	addu $5,$9,$11
  4072a8:	42 00 00 00 00 04 0a 09 	addu $4,$9,$10
  4072b0:	43 00 00 00 01 00 09 09 	addiu $9,$9,1
  4072b8:	5b 00 00 00 00 0e 09 10 	slt $14,$16,$9
  4072c0:	55 00 00 00 03 02 02 00 	sll $2,$2,0x3
  4072c8:	42 00 00 00 00 02 0c 02 	addu $2,$2,$12
  4072d0:	2b 00 00 00 00 00 00 02 	l.d $f0,0($2)
  4072d8:	55 00 00 00 03 03 03 00 	sll $3,$3,0x3
  4072e0:	42 00 00 00 00 03 0c 03 	addu $3,$3,$12
  4072e8:	55 00 00 00 03 04 04 00 	sll $4,$4,0x3
  4072f0:	42 00 00 00 00 04 0c 04 	addu $4,$4,$12
  4072f8:	37 00 00 00 00 00 00 03 	s.d $f0,0($3)
  407300:	2b 00 00 00 00 00 00 04 	l.d $f0,0($4)
  407308:	55 00 00 00 03 05 05 00 	sll $5,$5,0x3
  407310:	42 00 00 00 00 05 0c 05 	addu $5,$5,$12
  407318:	37 00 00 00 00 00 00 05 	s.d $f0,0($5)
  407320:	06 00 00 00 2e 01 00 0e 	bne $14,$0,4077e0 <celbnd_+0x1f08>
  407328:	42 00 00 00 00 03 18 09 	addu $3,$9,$24
  407330:	42 00 00 00 00 02 0d 09 	addu $2,$9,$13
  407338:	42 00 00 00 00 06 0b 09 	addu $6,$9,$11
  407340:	42 00 00 00 00 05 0a 09 	addu $5,$9,$10
  407348:	43 00 00 00 01 00 04 09 	addiu $4,$9,1
  407350:	43 00 00 00 02 00 07 09 	addiu $7,$9,2
  407358:	43 00 00 00 03 00 08 09 	addiu $8,$9,3
  407360:	43 00 00 00 04 00 09 09 	addiu $9,$9,4
  407368:	5b 00 00 00 00 0e 09 10 	slt $14,$16,$9
  407370:	55 00 00 00 03 02 02 00 	sll $2,$2,0x3
  407378:	42 00 00 00 00 02 0c 02 	addu $2,$2,$12
  407380:	2b 00 00 00 00 00 00 02 	l.d $f0,0($2)
  407388:	55 00 00 00 03 03 03 00 	sll $3,$3,0x3
  407390:	42 00 00 00 00 03 0c 03 	addu $3,$3,$12
  407398:	55 00 00 00 03 05 05 00 	sll $5,$5,0x3
  4073a0:	42 00 00 00 00 05 0c 05 	addu $5,$5,$12
  4073a8:	55 00 00 00 03 06 06 00 	sll $6,$6,0x3
  4073b0:	42 00 00 00 00 06 0c 06 	addu $6,$6,$12
  4073b8:	37 00 00 00 00 00 00 03 	s.d $f0,0($3)
  4073c0:	2b 00 00 00 00 00 00 05 	l.d $f0,0($5)
  4073c8:	42 00 00 00 00 03 18 04 	addu $3,$4,$24
  4073d0:	42 00 00 00 00 02 0d 04 	addu $2,$4,$13
  4073d8:	55 00 00 00 03 02 02 00 	sll $2,$2,0x3
  4073e0:	42 00 00 00 00 02 0c 02 	addu $2,$2,$12
  4073e8:	37 00 00 00 00 00 00 06 	s.d $f0,0($6)
  4073f0:	2b 00 00 00 00 00 00 02 	l.d $f0,0($2)
  4073f8:	55 00 00 00 03 03 03 00 	sll $3,$3,0x3
  407400:	42 00 00 00 00 03 0c 03 	addu $3,$3,$12
  407408:	42 00 00 00 00 02 0b 04 	addu $2,$4,$11
  407410:	42 00 00 00 00 04 0a 04 	addu $4,$4,$10
  407418:	55 00 00 00 03 04 04 00 	sll $4,$4,0x3
  407420:	42 00 00 00 00 04 0c 04 	addu $4,$4,$12
  407428:	37 00 00 00 00 00 00 03 	s.d $f0,0($3)
  407430:	2b 00 00 00 00 00 00 04 	l.d $f0,0($4)
  407438:	55 00 00 00 03 02 02 00 	sll $2,$2,0x3
  407440:	42 00 00 00 00 02 0c 02 	addu $2,$2,$12
  407448:	42 00 00 00 00 03 18 07 	addu $3,$7,$24
  407450:	37 00 00 00 00 00 00 02 	s.d $f0,0($2)
  407458:	42 00 00 00 00 02 0d 07 	addu $2,$7,$13
  407460:	55 00 00 00 03 02 02 00 	sll $2,$2,0x3
  407468:	42 00 00 00 00 02 0c 02 	addu $2,$2,$12
  407470:	2b 00 00 00 00 00 00 02 	l.d $f0,0($2)
  407478:	55 00 00 00 03 03 03 00 	sll $3,$3,0x3
  407480:	42 00 00 00 00 03 0c 03 	addu $3,$3,$12
  407488:	42 00 00 00 00 02 0b 07 	addu $2,$7,$11
  407490:	42 00 00 00 00 07 0a 07 	addu $7,$7,$10
  407498:	55 00 00 00 03 07 07 00 	sll $7,$7,0x3
  4074a0:	42 00 00 00 00 07 0c 07 	addu $7,$7,$12
  4074a8:	37 00 00 00 00 00 00 03 	s.d $f0,0($3)
  4074b0:	2b 00 00 00 00 00 00 07 	l.d $f0,0($7)
  4074b8:	55 00 00 00 03 02 02 00 	sll $2,$2,0x3
  4074c0:	42 00 00 00 00 02 0c 02 	addu $2,$2,$12
  4074c8:	42 00 00 00 00 03 18 08 	addu $3,$8,$24
  4074d0:	37 00 00 00 00 00 00 02 	s.d $f0,0($2)
  4074d8:	42 00 00 00 00 02 0d 08 	addu $2,$8,$13
  4074e0:	55 00 00 00 03 02 02 00 	sll $2,$2,0x3
  4074e8:	42 00 00 00 00 02 0c 02 	addu $2,$2,$12
  4074f0:	2b 00 00 00 00 00 00 02 	l.d $f0,0($2)
  4074f8:	55 00 00 00 03 03 03 00 	sll $3,$3,0x3
  407500:	42 00 00 00 00 03 0c 03 	addu $3,$3,$12
  407508:	42 00 00 00 00 02 0b 08 	addu $2,$8,$11
  407510:	42 00 00 00 00 08 0a 08 	addu $8,$8,$10
  407518:	55 00 00 00 03 08 08 00 	sll $8,$8,0x3
  407520:	42 00 00 00 00 08 0c 08 	addu $8,$8,$12
  407528:	37 00 00 00 00 00 00 03 	s.d $f0,0($3)
  407530:	2b 00 00 00 00 00 00 08 	l.d $f0,0($8)
  407538:	55 00 00 00 03 02 02 00 	sll $2,$2,0x3
  407540:	42 00 00 00 00 02 0c 02 	addu $2,$2,$12
  407548:	37 00 00 00 00 00 00 02 	s.d $f0,0($2)
  407550:	05 00 00 00 74 ff 00 0e 	beq $14,$0,407328 <celbnd_+0x1a50>
  407558:	01 00 00 00 f8 1d 10 00 	j 4077e0 <celbnd_+0x1f08>
  407560:	28 00 00 00 20 00 10 1d 	lw $16,32($29)
  407568:	55 00 00 00 01 03 11 00 	sll $3,$17,0x1
  407570:	43 00 00 00 01 00 02 00 	addiu $2,$0,1
  407578:	45 00 00 00 00 02 03 02 	subu $2,$2,$3
  407580:	a5 00 00 00 00 00 02 02 	mtc1 $2,$f2
  407588:	83 00 00 00 00 02 00 02 	cvt.d.w $f2,$f2
  407590:	43 00 00 00 01 00 09 00 	addiu $9,$0,1
  407598:	07 00 00 00 90 00 00 10 	blez $16,4077e0 <celbnd_+0x1f08>
  4075a0:	28 00 00 00 24 00 02 1d 	lw $2,36($29)
  4075a8:	46 00 00 00 00 00 18 02 	mult $2,$24
  4075b0:	4c 00 00 00 00 07 00 00 	mflo $7
  4075b8:	46 00 00 00 00 00 18 12 	mult $18,$24
  4075c0:	55 00 00 00 01 06 18 00 	sll $6,$24,0x1
  4075c8:	4f 00 00 00 01 00 03 10 	andi $3,$16,1
  4075d0:	4c 00 00 00 00 05 00 00 	mflo $5
  4075d8:	43 00 00 00 01 00 02 10 	addiu $2,$16,1
  4075e0:	5b 00 00 00 00 02 02 09 	slt $2,$9,$2
  4075e8:	05 00 00 00 02 00 00 02 	beq $2,$0,4075f8 <celbnd_+0x1d20>
  4075f0:	05 00 00 00 2a 00 00 03 	beq $3,$0,4076a0 <celbnd_+0x1dc8>
  4075f8:	43 00 00 00 01 00 02 06 	addiu $2,$6,1
  407600:	55 00 00 00 03 02 02 00 	sll $2,$2,0x3
  407608:	42 00 00 00 00 02 0c 02 	addu $2,$2,$12
  407610:	2b 00 00 00 00 00 00 02 	l.d $f0,0($2)
  407618:	75 00 00 00 00 00 00 02 	mul.d $f0,$f2,$f0
  407620:	43 00 00 00 01 00 02 18 	addiu $2,$24,1
  407628:	55 00 00 00 03 02 02 00 	sll $2,$2,0x3
  407630:	42 00 00 00 00 02 0c 02 	addu $2,$2,$12
  407638:	37 00 00 00 00 00 00 02 	s.d $f0,0($2)
  407640:	43 00 00 00 01 00 02 05 	addiu $2,$5,1
  407648:	55 00 00 00 03 02 02 00 	sll $2,$2,0x3
  407650:	42 00 00 00 00 02 0c 02 	addu $2,$2,$12
  407658:	2b 00 00 00 00 00 00 02 	l.d $f0,0($2)
  407660:	75 00 00 00 00 00 00 02 	mul.d $f0,$f2,$f0
  407668:	43 00 00 00 02 00 09 00 	addiu $9,$0,2
  407670:	5c 00 00 00 02 00 04 10 	slti $4,$16,2
  407678:	43 00 00 00 01 00 02 07 	addiu $2,$7,1
  407680:	55 00 00 00 03 02 02 00 	sll $2,$2,0x3
  407688:	42 00 00 00 00 02 0c 02 	addu $2,$2,$12
  407690:	37 00 00 00 00 00 00 02 	s.d $f0,0($2)
  407698:	06 00 00 00 50 00 00 04 	bne $4,$0,4077e0 <celbnd_+0x1f08>
  4076a0:	42 00 00 00 00 02 06 09 	addu $2,$9,$6
  4076a8:	55 00 00 00 03 02 02 00 	sll $2,$2,0x3
  4076b0:	42 00 00 00 00 02 0c 02 	addu $2,$2,$12
  4076b8:	2b 00 00 00 00 00 00 02 	l.d $f0,0($2)
  4076c0:	75 00 00 00 00 00 00 02 	mul.d $f0,$f2,$f0
  4076c8:	42 00 00 00 00 02 18 09 	addu $2,$9,$24
  4076d0:	55 00 00 00 03 02 02 00 	sll $2,$2,0x3
  4076d8:	42 00 00 00 00 02 0c 02 	addu $2,$2,$12
  4076e0:	37 00 00 00 00 00 00 02 	s.d $f0,0($2)
  4076e8:	42 00 00 00 00 02 05 09 	addu $2,$9,$5
  4076f0:	55 00 00 00 03 02 02 00 	sll $2,$2,0x3
  4076f8:	42 00 00 00 00 02 0c 02 	addu $2,$2,$12
  407700:	2b 00 00 00 00 00 00 02 	l.d $f0,0($2)
  407708:	75 00 00 00 00 00 00 02 	mul.d $f0,$f2,$f0
  407710:	43 00 00 00 01 00 03 09 	addiu $3,$9,1
  407718:	42 00 00 00 00 02 07 09 	addu $2,$9,$7
  407720:	55 00 00 00 03 02 02 00 	sll $2,$2,0x3
  407728:	42 00 00 00 00 02 0c 02 	addu $2,$2,$12
  407730:	37 00 00 00 00 00 00 02 	s.d $f0,0($2)
  407738:	42 00 00 00 00 02 06 03 	addu $2,$3,$6
  407740:	55 00 00 00 03 02 02 00 	sll $2,$2,0x3
  407748:	42 00 00 00 00 02 0c 02 	addu $2,$2,$12
  407750:	2b 00 00 00 00 00 00 02 	l.d $f0,0($2)
  407758:	75 00 00 00 00 00 00 02 	mul.d $f0,$f2,$f0
  407760:	42 00 00 00 00 02 18 03 	addu $2,$3,$24
  407768:	55 00 00 00 03 02 02 00 	sll $2,$2,0x3
  407770:	42 00 00 00 00 02 0c 02 	addu $2,$2,$12
  407778:	37 00 00 00 00 00 00 02 	s.d $f0,0($2)
  407780:	42 00 00 00 00 02 05 03 	addu $2,$3,$5
  407788:	55 00 00 00 03 02 02 00 	sll $2,$2,0x3
  407790:	42 00 00 00 00 02 0c 02 	addu $2,$2,$12
  407798:	2b 00 00 00 00 00 00 02 	l.d $f0,0($2)
  4077a0:	75 00 00 00 00 00 00 02 	mul.d $f0,$f2,$f0
  4077a8:	43 00 00 00 02 00 09 09 	addiu $9,$9,2
  4077b0:	5b 00 00 00 00 04 09 10 	slt $4,$16,$9
  4077b8:	42 00 00 00 00 03 07 03 	addu $3,$3,$7
  4077c0:	55 00 00 00 03 03 03 00 	sll $3,$3,0x3
  4077c8:	42 00 00 00 00 03 0c 03 	addu $3,$3,$12
  4077d0:	37 00 00 00 00 00 00 03 	s.d $f0,0($3)
  4077d8:	05 00 00 00 b0 ff 00 04 	beq $4,$0,4076a0 <celbnd_+0x1dc8>
  4077e0:	28 00 00 00 78 00 16 1d 	lw $22,120($29)
  4077e8:	28 00 00 00 00 00 02 16 	lw $2,0($22)
  4077f0:	05 00 00 00 76 00 00 02 	beq $2,$0,4079d0 <celbnd_+0x20f8>
  4077f8:	06 00 00 00 34 00 00 13 	bne $19,$0,4078d0 <celbnd_+0x1ff8>
  407800:	06 00 00 00 1a 00 00 11 	bne $17,$0,407870 <celbnd_+0x1f98>
  407808:	43 00 00 00 20 00 04 1d 	addiu $4,$29,32
  407810:	43 00 00 00 24 00 05 1d 	addiu $5,$29,36
  407818:	42 00 00 00 00 06 17 00 	addu $6,$0,$23
  407820:	42 00 00 00 00 07 1e 00 	addu $7,$0,$30
  407828:	55 00 00 00 03 02 15 00 	sll $2,$21,0x3
  407830:	42 00 00 00 00 02 02 0c 	addu $2,$12,$2
  407838:	34 00 00 00 10 00 02 1d 	sw $2,16($29)
  407840:	a2 00 00 00 03 10 02 00 	lui $2,4099
  407848:	43 00 00 00 a8 e2 02 02 	addiu $2,$2,-7512
  407850:	34 00 00 00 14 00 02 1d 	sw $2,20($29)
  407858:	a2 00 00 00 03 10 02 00 	lui $2,4099
  407860:	43 00 00 00 c8 e2 02 02 	addiu $2,$2,-7480
  407868:	01 00 00 00 6c 1e 10 00 	j 4079b0 <celbnd_+0x20d8>
  407870:	43 00 00 00 01 00 02 00 	addiu $2,$0,1
  407878:	06 00 00 00 14 00 02 11 	bne $17,$2,4078d0 <celbnd_+0x1ff8>
  407880:	43 00 00 00 20 00 04 1d 	addiu $4,$29,32
  407888:	43 00 00 00 24 00 05 1d 	addiu $5,$29,36
  407890:	42 00 00 00 00 06 17 00 	addu $6,$0,$23
  407898:	42 00 00 00 00 07 1e 00 	addu $7,$0,$30
  4078a0:	55 00 00 00 03 02 15 00 	sll $2,$21,0x3
  4078a8:	42 00 00 00 00 02 02 0c 	addu $2,$12,$2
  4078b0:	34 00 00 00 10 00 02 1d 	sw $2,16($29)
  4078b8:	a2 00 00 00 03 10 02 00 	lui $2,4099
  4078c0:	43 00 00 00 a8 e2 02 02 	addiu $2,$2,-7512
  4078c8:	01 00 00 00 66 1e 10 00 	j 407998 <celbnd_+0x20c0>
  4078d0:	43 00 00 00 01 00 02 00 	addiu $2,$0,1
  4078d8:	06 00 00 00 3c 00 02 13 	bne $19,$2,4079d0 <celbnd_+0x20f8>
  4078e0:	06 00 00 00 1a 00 00 11 	bne $17,$0,407950 <celbnd_+0x2078>
  4078e8:	43 00 00 00 20 00 04 1d 	addiu $4,$29,32
  4078f0:	43 00 00 00 24 00 05 1d 	addiu $5,$29,36
  4078f8:	42 00 00 00 00 06 17 00 	addu $6,$0,$23
  407900:	42 00 00 00 00 07 1e 00 	addu $7,$0,$30
  407908:	55 00 00 00 03 02 15 00 	sll $2,$21,0x3
  407910:	42 00 00 00 00 02 02 0c 	addu $2,$12,$2
  407918:	34 00 00 00 10 00 02 1d 	sw $2,16($29)
  407920:	a2 00 00 00 03 10 02 00 	lui $2,4099
  407928:	43 00 00 00 e8 e2 02 02 	addiu $2,$2,-7448
  407930:	34 00 00 00 14 00 02 1d 	sw $2,20($29)
  407938:	a2 00 00 00 03 10 02 00 	lui $2,4099
  407940:	43 00 00 00 c8 e2 02 02 	addiu $2,$2,-7480
  407948:	01 00 00 00 6c 1e 10 00 	j 4079b0 <celbnd_+0x20d8>
  407950:	43 00 00 00 20 00 04 1d 	addiu $4,$29,32
  407958:	43 00 00 00 24 00 05 1d 	addiu $5,$29,36
  407960:	42 00 00 00 00 06 17 00 	addu $6,$0,$23
  407968:	42 00 00 00 00 07 1e 00 	addu $7,$0,$30
  407970:	55 00 00 00 03 02 15 00 	sll $2,$21,0x3
  407978:	42 00 00 00 00 02 02 0c 	addu $2,$12,$2
  407980:	34 00 00 00 10 00 02 1d 	sw $2,16($29)
  407988:	a2 00 00 00 03 10 02 00 	lui $2,4099
  407990:	43 00 00 00 e8 e2 02 02 	addiu $2,$2,-7448
  407998:	34 00 00 00 14 00 02 1d 	sw $2,20($29)
  4079a0:	a2 00 00 00 03 10 02 00 	lui $2,4099
  4079a8:	43 00 00 00 08 e3 02 02 	addiu $2,$2,-7416
  4079b0:	34 00 00 00 18 00 02 1d 	sw $2,24($29)
  4079b8:	43 00 00 00 08 00 02 14 	addiu $2,$20,8
  4079c0:	34 00 00 00 1c 00 02 1d 	sw $2,28($29)
  4079c8:	02 00 00 00 2a 9a 10 00 	jal 4268a8 <smooth_>
  4079d0:	42 00 00 00 00 02 00 00 	addu $2,$0,$0
  4079d8:	28 00 00 00 4c 00 1f 1d 	lw $31,76($29)
  4079e0:	28 00 00 00 48 00 1e 1d 	lw $30,72($29)
  4079e8:	28 00 00 00 44 00 17 1d 	lw $23,68($29)
  4079f0:	28 00 00 00 40 00 16 1d 	lw $22,64($29)
  4079f8:	28 00 00 00 3c 00 15 1d 	lw $21,60($29)
  407a00:	28 00 00 00 38 00 14 1d 	lw $20,56($29)
  407a08:	28 00 00 00 34 00 13 1d 	lw $19,52($29)
  407a10:	28 00 00 00 30 00 12 1d 	lw $18,48($29)
  407a18:	28 00 00 00 2c 00 11 1d 	lw $17,44($29)
  407a20:	28 00 00 00 28 00 10 1d 	lw $16,40($29)
  407a28:	43 00 00 00 50 00 1d 1d 	addiu $29,$29,80
  407a30:	03 00 00 00 00 00 00 1f 	jr $31

00407a38 <bcnd_>:
  407a38:	a2 00 00 00 03 10 01 00 	lui $1,4099
  407a40:	2b 00 00 00 80 de 00 01 	l.d $f0,-8576($1)
  407a48:	43 00 00 00 b8 ff 1d 1d 	addiu $29,$29,-72
  407a50:	a2 00 00 00 8e 12 02 00 	lui $2,4750
  407a58:	43 00 00 00 10 bb 02 02 	addiu $2,$2,-17648
  407a60:	34 00 00 00 3c 00 1f 1d 	sw $31,60($29)
  407a68:	34 00 00 00 38 00 16 1d 	sw $22,56($29)
  407a70:	34 00 00 00 34 00 15 1d 	sw $21,52($29)
  407a78:	34 00 00 00 30 00 14 1d 	sw $20,48($29)
  407a80:	34 00 00 00 2c 00 13 1d 	sw $19,44($29)
  407a88:	34 00 00 00 28 00 12 1d 	sw $18,40($29)
  407a90:	34 00 00 00 24 00 11 1d 	sw $17,36($29)
  407a98:	34 00 00 00 20 00 10 1d 	sw $16,32($29)
  407aa0:	37 00 00 00 40 00 14 1d 	s.d $f20,64($29)
  407aa8:	28 00 00 00 00 00 12 02 	lw $18,0($2)
  407ab0:	43 00 00 00 01 00 11 00 	addiu $17,$0,1
  407ab8:	a2 00 00 00 03 10 01 00 	lui $1,4099
  407ac0:	38 00 00 00 18 df 00 01 	dsz -8424($1)
  407ac8:	a2 00 00 00 03 10 01 00 	lui $1,4099
  407ad0:	37 00 00 00 10 df 00 01 	s.d $f0,-8432($1)
  407ad8:	07 00 00 00 0a 01 00 12 	blez $18,407f08 <bcnd_+0x4d0>
  407ae0:	a5 00 00 00 00 00 00 14 	mtc1 $0,$f20
  407ae8:	a5 00 00 00 00 00 00 15 	mtc1 $0,$f21
  407af0:	a2 00 00 00 1d 10 15 00 	lui $21,4125
  407af8:	43 00 00 00 a8 c3 15 15 	addiu $21,$21,-15448
  407b00:	a2 00 00 00 8d 12 13 00 	lui $19,4749
  407b08:	43 00 00 00 08 ab 13 13 	addiu $19,$19,-21752
  407b10:	43 00 00 00 00 10 14 13 	addiu $20,$19,4096
  407b18:	43 00 00 00 04 00 16 02 	addiu $22,$2,4
  407b20:	43 00 00 00 04 00 10 16 	addiu $16,$22,4
  407b28:	28 00 00 00 00 00 02 10 	lw $2,0($16)
  407b30:	34 00 00 00 00 00 02 16 	sw $2,0($22)
  407b38:	a2 00 00 00 8e 12 02 00 	lui $2,4750
  407b40:	28 00 00 00 14 bb 02 02 	lw $2,-17644($2)
  407b48:	a2 00 00 00 1d 10 03 00 	lui $3,4125
  407b50:	43 00 00 00 a8 b3 03 03 	addiu $3,$3,-19544
  407b58:	2b 00 00 00 30 81 00 1c 	l.d $f0,-32464($28)
  407b60:	55 00 00 00 03 02 02 00 	sll $2,$2,0x3
  407b68:	42 00 00 00 00 03 03 02 	addu $3,$2,$3
  407b70:	2b 00 00 00 00 00 02 03 	l.d $f2,0($3)
  407b78:	91 00 00 00 00 00 00 02 	c.eq.d $f2,$f0
  407b80:	0c 00 00 00 d8 00 00 00 	bc1t 407ee8 <bcnd_+0x4b0>
  407b88:	2b 00 00 00 38 81 00 1c 	l.d $f0,-32456($28)
  407b90:	91 00 00 00 00 00 00 02 	c.eq.d $f2,$f0
  407b98:	0c 00 00 00 d2 00 00 00 	bc1t 407ee8 <bcnd_+0x4b0>
  407ba0:	a2 00 00 00 03 10 02 00 	lui $2,4099
  407ba8:	28 00 00 00 38 de 02 02 	lw $2,-8648($2)
  407bb0:	05 00 00 00 18 00 00 02 	beq $2,$0,407c18 <bcnd_+0x1e0>
  407bb8:	a2 00 00 00 03 10 01 00 	lui $1,4099
  407bc0:	2b 00 00 00 a8 de 00 01 	l.d $f0,-8536($1)
  407bc8:	93 00 00 00 00 00 02 00 	c.lt.d $f0,$f2
  407bd0:	0b 00 00 00 04 00 00 00 	bc1f 407be8 <bcnd_+0x1b0>
  407bd8:	02 00 00 00 0a 26 10 00 	jal 409828 <bcndr_>
  407be0:	01 00 00 00 46 1f 10 00 	j 407d18 <bcnd_+0x2e0>
  407be8:	a2 00 00 00 03 10 01 00 	lui $1,4099
  407bf0:	2b 00 00 00 a0 de 00 01 	l.d $f0,-8544($1)
  407bf8:	93 00 00 00 00 00 00 02 	c.lt.d $f2,$f0
  407c00:	0b 00 00 00 44 00 00 00 	bc1f 407d18 <bcnd_+0x2e0>
  407c08:	02 00 00 00 18 26 10 00 	jal 409860 <bcndl_>
  407c10:	01 00 00 00 46 1f 10 00 	j 407d18 <bcnd_+0x2e0>
  407c18:	a2 00 00 00 03 10 01 00 	lui $1,4099
  407c20:	2b 00 00 00 78 de 00 01 	l.d $f0,-8584($1)
  407c28:	93 00 00 00 00 00 02 00 	c.lt.d $f0,$f2
  407c30:	0b 00 00 00 1a 00 00 00 	bc1f 407ca0 <bcnd_+0x268>
  407c38:	73 00 00 00 00 00 00 02 	sub.d $f0,$f2,$f0
  407c40:	37 00 00 00 00 00 00 03 	s.d $f0,0($3)
  407c48:	a2 00 00 00 8e 12 02 00 	lui $2,4750
  407c50:	28 00 00 00 14 bb 02 02 	lw $2,-17644($2)
  407c58:	a2 00 00 00 03 10 01 00 	lui $1,4099
  407c60:	2b 00 00 00 78 de 02 01 	l.d $f2,-8584($1)
  407c68:	55 00 00 00 03 02 02 00 	sll $2,$2,0x3
  407c70:	42 00 00 00 00 02 13 02 	addu $2,$2,$19
  407c78:	2b 00 00 00 00 00 00 02 	l.d $f0,0($2)
  407c80:	95 00 00 00 00 00 00 02 	c.le.d $f2,$f0
  407c88:	0b 00 00 00 22 00 00 00 	bc1f 407d18 <bcnd_+0x2e0>
  407c90:	73 00 00 00 00 00 02 00 	sub.d $f0,$f0,$f2
  407c98:	01 00 00 00 44 1f 10 00 	j 407d10 <bcnd_+0x2d8>
  407ca0:	93 00 00 00 00 00 14 02 	c.lt.d $f2,$f20
  407ca8:	0b 00 00 00 1a 00 00 00 	bc1f 407d18 <bcnd_+0x2e0>
  407cb0:	71 00 00 00 00 00 00 02 	add.d $f0,$f2,$f0
  407cb8:	37 00 00 00 00 00 00 03 	s.d $f0,0($3)
  407cc0:	a2 00 00 00 8e 12 02 00 	lui $2,4750
  407cc8:	28 00 00 00 14 bb 02 02 	lw $2,-17644($2)
  407cd0:	55 00 00 00 03 02 02 00 	sll $2,$2,0x3
  407cd8:	42 00 00 00 00 02 13 02 	addu $2,$2,$19
  407ce0:	2b 00 00 00 00 00 02 02 	l.d $f2,0($2)
  407ce8:	93 00 00 00 00 00 14 02 	c.lt.d $f2,$f20
  407cf0:	0b 00 00 00 08 00 00 00 	bc1f 407d18 <bcnd_+0x2e0>
  407cf8:	a2 00 00 00 03 10 01 00 	lui $1,4099
  407d00:	2b 00 00 00 78 de 00 01 	l.d $f0,-8584($1)
  407d08:	71 00 00 00 00 00 00 02 	add.d $f0,$f2,$f0
  407d10:	37 00 00 00 00 00 00 02 	s.d $f0,0($2)
  407d18:	a2 00 00 00 03 10 02 00 	lui $2,4099
  407d20:	28 00 00 00 70 de 02 02 	lw $2,-8592($2)
  407d28:	06 00 00 00 4e 00 00 02 	bne $2,$0,407e68 <bcnd_+0x430>
  407d30:	a2 00 00 00 8e 12 02 00 	lui $2,4750
  407d38:	28 00 00 00 14 bb 02 02 	lw $2,-17644($2)
  407d40:	a2 00 00 00 03 10 01 00 	lui $1,4099
  407d48:	2b 00 00 00 80 de 02 01 	l.d $f2,-8576($1)
  407d50:	55 00 00 00 03 02 02 00 	sll $2,$2,0x3
  407d58:	42 00 00 00 00 02 15 02 	addu $2,$2,$21
  407d60:	2b 00 00 00 00 00 00 02 	l.d $f0,0($2)
  407d68:	95 00 00 00 00 00 00 02 	c.le.d $f2,$f0
  407d70:	0b 00 00 00 1c 00 00 00 	bc1f 407de8 <bcnd_+0x3b0>
  407d78:	73 00 00 00 00 00 02 00 	sub.d $f0,$f0,$f2
  407d80:	37 00 00 00 00 00 00 02 	s.d $f0,0($2)
  407d88:	a2 00 00 00 8e 12 02 00 	lui $2,4750
  407d90:	28 00 00 00 14 bb 02 02 	lw $2,-17644($2)
  407d98:	a2 00 00 00 03 10 01 00 	lui $1,4099
  407da0:	2b 00 00 00 80 de 02 01 	l.d $f2,-8576($1)
  407da8:	55 00 00 00 03 02 02 00 	sll $2,$2,0x3
  407db0:	42 00 00 00 00 02 14 02 	addu $2,$2,$20
  407db8:	2b 00 00 00 00 00 00 02 	l.d $f0,0($2)
  407dc0:	95 00 00 00 00 00 00 02 	c.le.d $f2,$f0
  407dc8:	0b 00 00 00 46 00 00 00 	bc1f 407ee8 <bcnd_+0x4b0>
  407dd0:	73 00 00 00 00 00 02 00 	sub.d $f0,$f0,$f2
  407dd8:	37 00 00 00 00 00 00 02 	s.d $f0,0($2)
  407de0:	01 00 00 00 ba 1f 10 00 	j 407ee8 <bcnd_+0x4b0>
  407de8:	93 00 00 00 00 00 14 00 	c.lt.d $f0,$f20
  407df0:	0b 00 00 00 3c 00 00 00 	bc1f 407ee8 <bcnd_+0x4b0>
  407df8:	71 00 00 00 00 00 02 00 	add.d $f0,$f0,$f2
  407e00:	37 00 00 00 00 00 00 02 	s.d $f0,0($2)
  407e08:	a2 00 00 00 8e 12 02 00 	lui $2,4750
  407e10:	28 00 00 00 14 bb 02 02 	lw $2,-17644($2)
  407e18:	55 00 00 00 03 02 02 00 	sll $2,$2,0x3
  407e20:	42 00 00 00 00 02 14 02 	addu $2,$2,$20
  407e28:	2b 00 00 00 00 00 02 02 	l.d $f2,0($2)
  407e30:	93 00 00 00 00 00 14 02 	c.lt.d $f2,$f20
  407e38:	0b 00 00 00 2a 00 00 00 	bc1f 407ee8 <bcnd_+0x4b0>
  407e40:	a2 00 00 00 03 10 01 00 	lui $1,4099
  407e48:	2b 00 00 00 80 de 00 01 	l.d $f0,-8576($1)
  407e50:	71 00 00 00 00 00 00 02 	add.d $f0,$f2,$f0
  407e58:	37 00 00 00 00 00 00 02 	s.d $f0,0($2)
  407e60:	01 00 00 00 ba 1f 10 00 	j 407ee8 <bcnd_+0x4b0>
  407e68:	a2 00 00 00 8e 12 02 00 	lui $2,4750
  407e70:	28 00 00 00 14 bb 02 02 	lw $2,-17644($2)
  407e78:	a2 00 00 00 03 10 01 00 	lui $1,4099
  407e80:	2b 00 00 00 10 df 00 01 	l.d $f0,-8432($1)
  407e88:	55 00 00 00 03 02 02 00 	sll $2,$2,0x3
  407e90:	42 00 00 00 00 02 15 02 	addu $2,$2,$21
  407e98:	2b 00 00 00 00 00 02 02 	l.d $f2,0($2)
  407ea0:	93 00 00 00 00 00 02 00 	c.lt.d $f0,$f2
  407ea8:	0b 00 00 00 04 00 00 00 	bc1f 407ec0 <bcnd_+0x488>
  407eb0:	02 00 00 00 26 26 10 00 	jal 409898 <bcndt_>
  407eb8:	01 00 00 00 ba 1f 10 00 	j 407ee8 <bcnd_+0x4b0>
  407ec0:	a2 00 00 00 03 10 01 00 	lui $1,4099
  407ec8:	2b 00 00 00 18 df 00 01 	l.d $f0,-8424($1)
  407ed0:	93 00 00 00 00 00 00 02 	c.lt.d $f2,$f0
  407ed8:	0b 00 00 00 02 00 00 00 	bc1f 407ee8 <bcnd_+0x4b0>
  407ee0:	02 00 00 00 34 26 10 00 	jal 4098d0 <bcndb_>
  407ee8:	43 00 00 00 04 00 10 10 	addiu $16,$16,4
  407ef0:	43 00 00 00 01 00 11 11 	addiu $17,$17,1
  407ef8:	5b 00 00 00 00 02 11 12 	slt $2,$18,$17
  407f00:	05 00 00 00 08 ff 00 02 	beq $2,$0,407b28 <bcnd_+0xf0>
  407f08:	a2 00 00 00 03 10 01 00 	lui $1,4099
  407f10:	2b 00 00 00 88 de 02 01 	l.d $f2,-8568($1)
  407f18:	a5 00 00 00 00 00 00 00 	mtc1 $0,$f0
  407f20:	a5 00 00 00 00 00 00 01 	mtc1 $0,$f1
  407f28:	91 00 00 00 00 00 00 02 	c.eq.d $f2,$f0
  407f30:	0c 00 00 00 10 00 00 00 	bc1t 407f78 <bcnd_+0x540>
  407f38:	a2 00 00 00 03 10 02 00 	lui $2,4099
  407f40:	28 00 00 00 4c de 02 02 	lw $2,-8628($2)
  407f48:	5c 00 00 00 06 00 02 02 	slti $2,$2,6
  407f50:	05 00 00 00 0c 00 00 02 	beq $2,$0,407f88 <bcnd_+0x550>
  407f58:	a2 00 00 00 03 10 02 00 	lui $2,4099
  407f60:	28 00 00 00 50 de 02 02 	lw $2,-8624($2)
  407f68:	5c 00 00 00 06 00 02 02 	slti $2,$2,6
  407f70:	05 00 00 00 04 00 00 02 	beq $2,$0,407f88 <bcnd_+0x550>
  407f78:	42 00 00 00 00 02 00 00 	addu $2,$0,$0
  407f80:	01 00 00 00 5e 20 10 00 	j 408178 <bcnd_+0x740>
  407f88:	02 00 00 00 f6 36 10 00 	jal 40dbd8 <injall_>
  407f90:	a2 00 00 00 00 10 02 00 	lui $2,4096
  407f98:	28 00 00 00 28 27 02 02 	lw $2,10024($2)
  407fa0:	a2 00 00 00 03 10 03 00 	lui $3,4099
  407fa8:	28 00 00 00 60 de 03 03 	lw $3,-8608($3)
  407fb0:	a2 00 00 00 01 00 04 00 	lui $4,1
  407fb8:	55 00 00 00 02 02 02 00 	sll $2,$2,0x2
  407fc0:	a2 00 00 00 00 10 01 00 	lui $1,4096
  407fc8:	42 00 00 00 00 01 02 01 	addu $1,$1,$2
  407fd0:	34 00 00 00 20 2b 03 01 	sw $3,11040($1)
  407fd8:	a2 00 00 00 00 10 02 00 	lui $2,4096
  407fe0:	28 00 00 00 28 27 02 02 	lw $2,10024($2)
  407fe8:	a2 00 00 00 03 10 03 00 	lui $3,4099
  407ff0:	28 00 00 00 64 de 03 03 	lw $3,-8604($3)
  407ff8:	51 00 00 00 e0 94 04 04 	ori $4,$4,38112
  408000:	55 00 00 00 02 02 02 00 	sll $2,$2,0x2
  408008:	a2 00 00 00 00 10 01 00 	lui $1,4096
  408010:	42 00 00 00 00 01 02 01 	addu $1,$1,$2
  408018:	34 00 00 00 84 2b 03 01 	sw $3,11140($1)
  408020:	a2 00 00 00 00 10 02 00 	lui $2,4096
  408028:	28 00 00 00 28 27 02 02 	lw $2,10024($2)
  408030:	a2 00 00 00 00 10 06 00 	lui $6,4096
  408038:	43 00 00 00 b8 2c 06 06 	addiu $6,$6,11448
  408040:	a2 00 00 00 03 10 01 00 	lui $1,4099
  408048:	2b 00 00 00 40 df 02 01 	l.d $f2,-8384($1)
  408050:	55 00 00 00 03 02 02 00 	sll $2,$2,0x3
  408058:	42 00 00 00 00 02 06 02 	addu $2,$2,$6
  408060:	42 00 00 00 00 02 04 02 	addu $2,$2,$4
  408068:	2b 00 00 00 00 00 00 02 	l.d $f0,0($2)
  408070:	93 00 00 00 00 00 02 00 	c.lt.d $f0,$f2
  408078:	a2 00 00 00 00 10 05 00 	lui $5,4096
  408080:	43 00 00 00 00 27 05 05 	addiu $5,$5,9984
  408088:	0b 00 00 00 02 00 00 00 	bc1f 408098 <bcnd_+0x660>
  408090:	37 00 00 00 00 00 02 02 	s.d $f2,0($2)
  408098:	a2 00 00 00 00 10 02 00 	lui $2,4096
  4080a0:	28 00 00 00 28 27 02 02 	lw $2,10024($2)
  4080a8:	a2 00 00 00 01 00 03 00 	lui $3,1
  4080b0:	51 00 00 00 a8 95 03 03 	ori $3,$3,38312
  4080b8:	a2 00 00 00 03 10 01 00 	lui $1,4099
  4080c0:	2b 00 00 00 48 df 02 01 	l.d $f2,-8376($1)
  4080c8:	55 00 00 00 03 02 02 00 	sll $2,$2,0x3
  4080d0:	42 00 00 00 00 02 06 02 	addu $2,$2,$6
  4080d8:	42 00 00 00 00 02 03 02 	addu $2,$2,$3
  4080e0:	2b 00 00 00 00 00 00 02 	l.d $f0,0($2)
  4080e8:	93 00 00 00 00 00 02 00 	c.lt.d $f0,$f2
  4080f0:	0b 00 00 00 02 00 00 00 	bc1f 408100 <bcnd_+0x6c8>
  4080f8:	37 00 00 00 00 00 02 02 	s.d $f2,0($2)
  408100:	a2 00 00 00 00 10 02 00 	lui $2,4096
  408108:	28 00 00 00 28 27 02 02 	lw $2,10024($2)
  408110:	a2 00 00 00 03 10 03 00 	lui $3,4099
  408118:	28 00 00 00 6c de 03 03 	lw $3,-8596($3)
  408120:	55 00 00 00 02 02 02 00 	sll $2,$2,0x2
  408128:	42 00 00 00 00 02 05 02 	addu $2,$2,$5
  408130:	34 00 00 00 4c 05 03 02 	sw $3,1356($2)
  408138:	a2 00 00 00 00 10 03 00 	lui $3,4096
  408140:	28 00 00 00 28 27 03 03 	lw $3,10024($3)
  408148:	42 00 00 00 00 02 00 00 	addu $2,$0,$0
  408150:	a2 00 00 00 03 10 04 00 	lui $4,4099
  408158:	28 00 00 00 68 de 04 04 	lw $4,-8600($4)
  408160:	55 00 00 00 02 03 03 00 	sll $3,$3,0x2
  408168:	42 00 00 00 00 03 05 03 	addu $3,$3,$5
  408170:	34 00 00 00 e8 04 04 03 	sw $4,1256($3)
  408178:	28 00 00 00 3c 00 1f 1d 	lw $31,60($29)
  408180:	28 00 00 00 38 00 16 1d 	lw $22,56($29)
  408188:	28 00 00 00 34 00 15 1d 	lw $21,52($29)
  408190:	28 00 00 00 30 00 14 1d 	lw $20,48($29)
  408198:	28 00 00 00 2c 00 13 1d 	lw $19,44($29)
  4081a0:	28 00 00 00 28 00 12 1d 	lw $18,40($29)
  4081a8:	28 00 00 00 24 00 11 1d 	lw $17,36($29)
  4081b0:	28 00 00 00 20 00 10 1d 	lw $16,32($29)
  4081b8:	2b 00 00 00 40 00 14 1d 	l.d $f20,64($29)
  4081c0:	43 00 00 00 48 00 1d 1d 	addiu $29,$29,72
  4081c8:	03 00 00 00 00 00 00 1f 	jr $31

004081d0 <bcnds_0_>:
  4081d0:	43 00 00 00 d8 ee 1d 1d 	addiu $29,$29,-4392
  4081d8:	42 00 00 00 00 06 04 00 	addu $6,$0,$4
  4081e0:	43 00 00 00 02 00 07 00 	addiu $7,$0,2
  4081e8:	34 00 00 00 18 11 1f 1d 	sw $31,4376($29)
  4081f0:	37 00 00 00 20 11 14 1d 	s.d $f20,4384($29)
  4081f8:	05 00 00 00 a2 01 07 06 	beq $6,$7,408888 <bcnds_0_+0x6b8>
  408200:	5c 00 00 00 03 00 02 06 	slti $2,$6,3
  408208:	06 00 00 00 08 00 00 02 	bne $2,$0,408230 <bcnds_0_+0x60>
  408210:	43 00 00 00 03 00 05 00 	addiu $5,$0,3
  408218:	05 00 00 00 e2 02 05 06 	beq $6,$5,408da8 <bcnds_0_+0xbd8>
  408220:	43 00 00 00 04 00 02 00 	addiu $2,$0,4
  408228:	05 00 00 00 16 04 02 06 	beq $6,$2,409288 <bcnds_0_+0x10b8>
  408230:	a2 00 00 00 03 10 01 00 	lui $1,4099
  408238:	2b 00 00 00 f8 de 06 01 	l.d $f6,-8456($1)
  408240:	a2 00 00 00 03 10 01 00 	lui $1,4099
  408248:	2b 00 00 00 90 de 04 01 	l.d $f4,-8560($1)
  408250:	77 00 00 00 00 02 04 06 	div.d $f2,$f6,$f4
  408258:	2b 00 00 00 40 81 00 1c 	l.d $f0,-32448($28)
  408260:	a2 00 00 00 8e 12 03 00 	lui $3,4750
  408268:	28 00 00 00 14 bb 03 03 	lw $3,-17644($3)
  408270:	a2 00 00 00 03 10 08 00 	lui $8,4099
  408278:	43 00 00 00 28 de 08 08 	addiu $8,$8,-8664
  408280:	93 00 00 00 00 00 00 02 	c.lt.d $f2,$f0
  408288:	34 00 00 00 48 10 03 1d 	sw $3,4168($29)
  408290:	0b 00 00 00 6c 00 00 00 	bc1f 408448 <bcnds_0_+0x278>
  408298:	71 00 00 00 00 00 04 06 	add.d $f0,$f6,$f4
  4082a0:	55 00 00 00 03 02 03 00 	sll $2,$3,0x3
  4082a8:	a2 00 00 00 03 10 01 00 	lui $1,4099
  4082b0:	37 00 00 00 f8 de 00 01 	s.d $f0,-8456($1)
  4082b8:	a2 00 00 00 1d 10 01 00 	lui $1,4125
  4082c0:	42 00 00 00 00 01 01 02 	addu $1,$2,$1
  4082c8:	2b 00 00 00 a8 d3 04 01 	l.d $f4,-11352($1)
  4082d0:	75 00 00 00 00 00 04 04 	mul.d $f0,$f4,$f4
  4082d8:	a2 00 00 00 1d 10 01 00 	lui $1,4125
  4082e0:	42 00 00 00 00 01 01 02 	addu $1,$2,$1
  4082e8:	2b 00 00 00 a8 e3 06 01 	l.d $f6,-7256($1)
  4082f0:	75 00 00 00 00 06 06 06 	mul.d $f6,$f6,$f6
  4082f8:	a2 00 00 00 1d 10 01 00 	lui $1,4125
  408300:	42 00 00 00 00 01 01 02 	addu $1,$2,$1
  408308:	2b 00 00 00 a8 f3 08 01 	l.d $f8,-3160($1)
  408310:	75 00 00 00 00 08 08 08 	mul.d $f8,$f8,$f8
  408318:	2b 00 00 00 48 81 02 1c 	l.d $f2,-32440($28)
  408320:	71 00 00 00 00 00 06 00 	add.d $f0,$f0,$f6
  408328:	a2 00 00 00 1d 10 01 00 	lui $1,4125
  408330:	42 00 00 00 00 01 01 02 	addu $1,$2,$1
  408338:	37 00 00 00 a8 b3 02 01 	s.d $f2,-19544($1)
  408340:	a2 00 00 00 03 10 03 00 	lui $3,4099
  408348:	28 00 00 00 5c de 03 03 	lw $3,-8612($3)
  408350:	71 00 00 00 00 00 08 00 	add.d $f0,$f0,$f8
  408358:	43 00 00 00 03 00 02 00 	addiu $2,$0,3
  408360:	37 00 00 00 50 10 04 1d 	s.d $f4,4176($29)
  408368:	37 00 00 00 40 10 00 1d 	s.d $f0,4160($29)
  408370:	06 00 00 00 12 00 02 03 	bne $3,$2,4083c0 <bcnds_0_+0x1f0>
  408378:	2b 00 00 00 50 81 14 1c 	l.d $f20,-32432($28)
  408380:	71 00 00 00 00 0c 14 00 	add.d $f12,$f0,$f20
  408388:	97 00 00 00 00 00 00 0c 	sqrt.d $f0,$f12
  408390:	91 00 00 00 00 00 00 00 	c.eq.d $f0,$f0
  408398:	0c 00 00 00 02 00 00 00 	bc1t 4083a8 <bcnds_0_+0x1d8>
  4083a0:	02 00 00 00 dc 4e 11 00 	jal 453b70 <sqrt>
  4083a8:	73 00 00 00 00 00 14 00 	sub.d $f0,$f0,$f20
  4083b0:	71 00 00 00 00 00 00 00 	add.d $f0,$f0,$f0
  4083b8:	37 00 00 00 40 10 00 1d 	s.d $f0,4160($29)
  4083c0:	a2 00 00 00 03 10 01 00 	lui $1,4099
  4083c8:	2b 00 00 00 98 de 02 01 	l.d $f2,-8552($1)
  4083d0:	2b 00 00 00 40 10 00 1d 	l.d $f0,4160($29)
  4083d8:	75 00 00 00 00 00 02 00 	mul.d $f0,$f0,$f2
  4083e0:	a2 00 00 00 03 10 01 00 	lui $1,4099
  4083e8:	2b 00 00 00 e8 de 02 01 	l.d $f2,-8472($1)
  4083f0:	a2 00 00 00 03 10 02 00 	lui $2,4099
  4083f8:	28 00 00 00 64 de 02 02 	lw $2,-8604($2)
  408400:	43 00 00 00 40 10 04 1d 	addiu $4,$29,4160
  408408:	71 00 00 00 00 02 00 02 	add.d $f2,$f2,$f0
  408410:	43 00 00 00 01 00 02 02 	addiu $2,$2,1
  408418:	a2 00 00 00 03 10 01 00 	lui $1,4099
  408420:	34 00 00 00 64 de 02 01 	sw $2,-8604($1)
  408428:	37 00 00 00 40 10 00 1d 	s.d $f0,4160($29)
  408430:	a2 00 00 00 03 10 01 00 	lui $1,4099
  408438:	37 00 00 00 e8 de 02 01 	s.d $f2,-8472($1)
  408440:	01 00 00 00 d6 21 10 00 	j 408758 <bcnds_0_+0x588>
  408448:	a2 00 00 00 03 10 04 00 	lui $4,4099
  408450:	28 00 00 00 50 de 04 04 	lw $4,-8624($4)
  408458:	43 00 00 00 01 00 02 00 	addiu $2,$0,1
  408460:	05 00 00 00 04 00 02 04 	beq $4,$2,408478 <bcnds_0_+0x2a8>
  408468:	43 00 00 00 03 00 05 00 	addiu $5,$0,3
  408470:	06 00 00 00 40 00 05 04 	bne $4,$5,408578 <bcnds_0_+0x3a8>
  408478:	a2 00 00 00 1d 10 02 00 	lui $2,4125
  408480:	43 00 00 00 a8 b3 02 02 	addiu $2,$2,-19544
  408488:	a2 00 00 00 03 10 01 00 	lui $1,4099
  408490:	2b 00 00 00 a8 de 00 01 	l.d $f0,-8536($1)
  408498:	55 00 00 00 03 04 03 00 	sll $4,$3,0x3
  4084a0:	42 00 00 00 00 03 02 04 	addu $3,$4,$2
  4084a8:	71 00 00 00 00 00 00 00 	add.d $f0,$f0,$f0
  4084b0:	2b 00 00 00 00 00 02 03 	l.d $f2,0($3)
  4084b8:	73 00 00 00 00 00 02 00 	sub.d $f0,$f0,$f2
  4084c0:	43 00 00 00 00 20 02 02 	addiu $2,$2,8192
  4084c8:	42 00 00 00 00 02 02 04 	addu $2,$4,$2
  4084d0:	37 00 00 00 00 00 00 03 	s.d $f0,0($3)
  4084d8:	2b 00 00 00 00 00 00 02 	l.d $f0,0($2)
  4084e0:	7d 00 00 00 00 00 00 00 	neg.d $f0,$f0
  4084e8:	37 00 00 00 00 00 00 02 	s.d $f0,0($2)
  4084f0:	a2 00 00 00 8d 12 02 00 	lui $2,4749
  4084f8:	43 00 00 00 08 ab 02 02 	addiu $2,$2,-21752
  408500:	42 00 00 00 00 03 02 04 	addu $3,$4,$2
  408508:	2b 00 00 00 00 00 02 03 	l.d $f2,0($3)
  408510:	a2 00 00 00 03 10 01 00 	lui $1,4099
  408518:	2b 00 00 00 a8 de 00 01 	l.d $f0,-8536($1)
  408520:	93 00 00 00 00 00 00 02 	c.lt.d $f2,$f0
  408528:	0c 00 00 00 a6 04 00 00 	bc1t 4097c8 <bcnds_0_+0x15f8>
  408530:	71 00 00 00 00 00 00 00 	add.d $f0,$f0,$f0
  408538:	73 00 00 00 00 00 02 00 	sub.d $f0,$f0,$f2
  408540:	43 00 00 00 00 f0 02 02 	addiu $2,$2,-4096
  408548:	42 00 00 00 00 02 02 04 	addu $2,$4,$2
  408550:	37 00 00 00 00 00 00 03 	s.d $f0,0($3)
  408558:	2b 00 00 00 00 00 00 02 	l.d $f0,0($2)
  408560:	7d 00 00 00 00 00 00 00 	neg.d $f0,$f0
  408568:	37 00 00 00 00 00 00 02 	s.d $f0,0($2)
  408570:	01 00 00 00 f2 25 10 00 	j 4097c8 <bcnds_0_+0x15f8>
  408578:	06 00 00 00 06 00 07 04 	bne $4,$7,408598 <bcnds_0_+0x3c8>
  408580:	43 00 00 00 80 80 04 1c 	addiu $4,$28,-32640
  408588:	43 00 00 00 70 80 05 1c 	addiu $5,$28,-32656
  408590:	01 00 00 00 e8 21 10 00 	j 4087a0 <bcnds_0_+0x5d0>
  408598:	43 00 00 00 04 00 02 00 	addiu $2,$0,4
  4085a0:	05 00 00 00 04 00 02 04 	beq $4,$2,4085b8 <bcnds_0_+0x3e8>
  4085a8:	5c 00 00 00 06 00 02 04 	slti $2,$4,6
  4085b0:	06 00 00 00 70 00 00 02 	bne $2,$0,408778 <bcnds_0_+0x5a8>
  4085b8:	71 00 00 00 00 00 04 06 	add.d $f0,$f6,$f4
  4085c0:	55 00 00 00 03 02 03 00 	sll $2,$3,0x3
  4085c8:	a2 00 00 00 03 10 01 00 	lui $1,4099
  4085d0:	37 00 00 00 f8 de 00 01 	s.d $f0,-8456($1)
  4085d8:	a2 00 00 00 1d 10 01 00 	lui $1,4125
  4085e0:	42 00 00 00 00 01 01 02 	addu $1,$2,$1
  4085e8:	2b 00 00 00 a8 d3 04 01 	l.d $f4,-11352($1)
  4085f0:	75 00 00 00 00 00 04 04 	mul.d $f0,$f4,$f4
  4085f8:	a2 00 00 00 1d 10 01 00 	lui $1,4125
  408600:	42 00 00 00 00 01 01 02 	addu $1,$2,$1
  408608:	2b 00 00 00 a8 e3 06 01 	l.d $f6,-7256($1)
  408610:	75 00 00 00 00 06 06 06 	mul.d $f6,$f6,$f6
  408618:	a2 00 00 00 1d 10 01 00 	lui $1,4125
  408620:	42 00 00 00 00 01 01 02 	addu $1,$2,$1
  408628:	2b 00 00 00 a8 f3 08 01 	l.d $f8,-3160($1)
  408630:	75 00 00 00 00 08 08 08 	mul.d $f8,$f8,$f8
  408638:	2b 00 00 00 48 81 02 1c 	l.d $f2,-32440($28)
  408640:	71 00 00 00 00 00 06 00 	add.d $f0,$f0,$f6
  408648:	a2 00 00 00 1d 10 01 00 	lui $1,4125
  408650:	42 00 00 00 00 01 01 02 	addu $1,$2,$1
  408658:	37 00 00 00 a8 b3 02 01 	s.d $f2,-19544($1)
  408660:	a2 00 00 00 03 10 02 00 	lui $2,4099
  408668:	28 00 00 00 5c de 02 02 	lw $2,-8612($2)
  408670:	71 00 00 00 00 00 08 00 	add.d $f0,$f0,$f8
  408678:	37 00 00 00 50 10 04 1d 	s.d $f4,4176($29)
  408680:	37 00 00 00 40 10 00 1d 	s.d $f0,4160($29)
  408688:	06 00 00 00 12 00 05 02 	bne $2,$5,4086d8 <bcnds_0_+0x508>
  408690:	2b 00 00 00 50 81 14 1c 	l.d $f20,-32432($28)
  408698:	71 00 00 00 00 0c 14 00 	add.d $f12,$f0,$f20
  4086a0:	97 00 00 00 00 00 00 0c 	sqrt.d $f0,$f12
  4086a8:	91 00 00 00 00 00 00 00 	c.eq.d $f0,$f0
  4086b0:	0c 00 00 00 02 00 00 00 	bc1t 4086c0 <bcnds_0_+0x4f0>
  4086b8:	02 00 00 00 dc 4e 11 00 	jal 453b70 <sqrt>
  4086c0:	73 00 00 00 00 00 14 00 	sub.d $f0,$f0,$f20
  4086c8:	71 00 00 00 00 00 00 00 	add.d $f0,$f0,$f0
  4086d0:	37 00 00 00 40 10 00 1d 	s.d $f0,4160($29)
  4086d8:	2b 00 00 00 40 10 02 1d 	l.d $f2,4160($29)
  4086e0:	a2 00 00 00 03 10 01 00 	lui $1,4099
  4086e8:	2b 00 00 00 98 de 00 01 	l.d $f0,-8552($1)
  4086f0:	75 00 00 00 00 02 00 02 	mul.d $f2,$f2,$f0
  4086f8:	a2 00 00 00 03 10 01 00 	lui $1,4099
  408700:	2b 00 00 00 e8 de 00 01 	l.d $f0,-8472($1)
  408708:	a2 00 00 00 03 10 02 00 	lui $2,4099
  408710:	28 00 00 00 64 de 02 02 	lw $2,-8604($2)
  408718:	43 00 00 00 40 10 04 1d 	addiu $4,$29,4160
  408720:	71 00 00 00 00 00 02 00 	add.d $f0,$f0,$f2
  408728:	43 00 00 00 01 00 02 02 	addiu $2,$2,1
  408730:	a2 00 00 00 03 10 01 00 	lui $1,4099
  408738:	34 00 00 00 64 de 02 01 	sw $2,-8604($1)
  408740:	37 00 00 00 40 10 02 1d 	s.d $f2,4160($29)
  408748:	a2 00 00 00 03 10 01 00 	lui $1,4099
  408750:	37 00 00 00 e8 de 00 01 	s.d $f0,-8472($1)
  408758:	02 00 00 00 42 26 10 00 	jal 409908 <ibin_>
  408760:	a2 00 00 00 01 00 04 00 	lui $4,1
  408768:	51 00 00 00 c0 0d 04 04 	ori $4,$4,3520
  408770:	01 00 00 00 9c 25 10 00 	j 409670 <bcnds_0_+0x14a0>
  408778:	43 00 00 00 05 00 02 00 	addiu $2,$0,5
  408780:	06 00 00 00 10 04 02 04 	bne $4,$2,4097c8 <bcnds_0_+0x15f8>
  408788:	a2 00 00 00 02 10 04 00 	lui $4,4098
  408790:	43 00 00 00 78 be 04 04 	addiu $4,$4,-16776
  408798:	43 00 00 00 f8 ff 05 04 	addiu $5,$4,-8
  4087a0:	a2 00 00 00 03 10 01 00 	lui $1,4099
  4087a8:	2b 00 00 00 d0 de 00 01 	l.d $f0,-8496($1)
  4087b0:	43 00 00 00 48 10 06 1d 	addiu $6,$29,4168
  4087b8:	a2 00 00 00 1d 10 07 00 	lui $7,4125
  4087c0:	43 00 00 00 b0 b3 07 07 	addiu $7,$7,-19536
  4087c8:	7d 00 00 00 00 00 00 00 	neg.d $f0,$f0
  4087d0:	43 00 00 00 00 20 02 07 	addiu $2,$7,8192
  4087d8:	37 00 00 00 50 10 00 1d 	s.d $f0,4176($29)
  4087e0:	34 00 00 00 10 00 02 1d 	sw $2,16($29)
  4087e8:	43 00 00 00 00 30 02 07 	addiu $2,$7,12288
  4087f0:	34 00 00 00 14 00 02 1d 	sw $2,20($29)
  4087f8:	43 00 00 00 00 40 02 07 	addiu $2,$7,16384
  408800:	34 00 00 00 18 00 02 1d 	sw $2,24($29)
  408808:	a2 00 00 00 8d 12 02 00 	lui $2,4749
  408810:	43 00 00 00 10 ab 02 02 	addiu $2,$2,-21744
  408818:	34 00 00 00 1c 00 02 1d 	sw $2,28($29)
  408820:	43 00 00 00 00 f0 02 02 	addiu $2,$2,-4096
  408828:	34 00 00 00 20 00 02 1d 	sw $2,32($29)
  408830:	43 00 00 00 80 00 02 08 	addiu $2,$8,128
  408838:	34 00 00 00 24 00 02 1d 	sw $2,36($29)
  408840:	43 00 00 00 50 10 02 1d 	addiu $2,$29,4176
  408848:	34 00 00 00 28 00 02 1d 	sw $2,40($29)
  408850:	43 00 00 00 b0 00 02 08 	addiu $2,$8,176
  408858:	34 00 00 00 2c 00 02 1d 	sw $2,44($29)
  408860:	43 00 00 00 b8 00 02 08 	addiu $2,$8,184
  408868:	34 00 00 00 30 00 02 1d 	sw $2,48($29)
  408870:	a2 00 00 00 03 10 02 00 	lui $2,4099
  408878:	43 00 00 00 60 d1 02 02 	addiu $2,$2,-11936
  408880:	01 00 00 00 ea 25 10 00 	j 4097a8 <bcnds_0_+0x15d8>
  408888:	a2 00 00 00 03 10 01 00 	lui $1,4099
  408890:	2b 00 00 00 f0 de 06 01 	l.d $f6,-8464($1)
  408898:	a2 00 00 00 03 10 01 00 	lui $1,4099
  4088a0:	2b 00 00 00 90 de 04 01 	l.d $f4,-8560($1)
  4088a8:	77 00 00 00 00 02 04 06 	div.d $f2,$f6,$f4
  4088b0:	2b 00 00 00 40 81 00 1c 	l.d $f0,-32448($28)
  4088b8:	a2 00 00 00 8e 12 03 00 	lui $3,4750
  4088c0:	28 00 00 00 14 bb 03 03 	lw $3,-17644($3)
  4088c8:	a2 00 00 00 03 10 08 00 	lui $8,4099
  4088d0:	43 00 00 00 28 de 08 08 	addiu $8,$8,-8664
  4088d8:	93 00 00 00 00 00 00 02 	c.lt.d $f2,$f0
  4088e0:	34 00 00 00 48 10 03 1d 	sw $3,4168($29)
  4088e8:	0b 00 00 00 3a 00 00 00 	bc1f 4089d8 <bcnds_0_+0x808>
  4088f0:	71 00 00 00 00 00 04 06 	add.d $f0,$f6,$f4
  4088f8:	55 00 00 00 03 02 03 00 	sll $2,$3,0x3
  408900:	a2 00 00 00 03 10 01 00 	lui $1,4099
  408908:	37 00 00 00 f0 de 00 01 	s.d $f0,-8464($1)
  408910:	a2 00 00 00 1d 10 01 00 	lui $1,4125
  408918:	42 00 00 00 00 01 01 02 	addu $1,$2,$1
  408920:	2b 00 00 00 a8 d3 04 01 	l.d $f4,-11352($1)
  408928:	75 00 00 00 00 00 04 04 	mul.d $f0,$f4,$f4
  408930:	a2 00 00 00 1d 10 01 00 	lui $1,4125
  408938:	42 00 00 00 00 01 01 02 	addu $1,$2,$1
  408940:	2b 00 00 00 a8 e3 06 01 	l.d $f6,-7256($1)
  408948:	75 00 00 00 00 06 06 06 	mul.d $f6,$f6,$f6
  408950:	a2 00 00 00 1d 10 01 00 	lui $1,4125
  408958:	42 00 00 00 00 01 01 02 	addu $1,$2,$1
  408960:	2b 00 00 00 a8 f3 08 01 	l.d $f8,-3160($1)
  408968:	75 00 00 00 00 08 08 08 	mul.d $f8,$f8,$f8
  408970:	2b 00 00 00 58 81 02 1c 	l.d $f2,-32424($28)
  408978:	71 00 00 00 00 00 06 00 	add.d $f0,$f0,$f6
  408980:	a2 00 00 00 1d 10 01 00 	lui $1,4125
  408988:	42 00 00 00 00 01 01 02 	addu $1,$2,$1
  408990:	37 00 00 00 a8 b3 02 01 	s.d $f2,-19544($1)
  408998:	a2 00 00 00 03 10 03 00 	lui $3,4099
  4089a0:	28 00 00 00 5c de 03 03 	lw $3,-8612($3)
  4089a8:	71 00 00 00 00 00 08 00 	add.d $f0,$f0,$f8
  4089b0:	43 00 00 00 03 00 02 00 	addiu $2,$0,3
  4089b8:	37 00 00 00 50 10 04 1d 	s.d $f4,4176($29)
  4089c0:	37 00 00 00 40 10 00 1d 	s.d $f0,4160($29)
  4089c8:	06 00 00 00 92 00 02 03 	bne $3,$2,408c18 <bcnds_0_+0xa48>
  4089d0:	01 00 00 00 f4 22 10 00 	j 408bd0 <bcnds_0_+0xa00>
  4089d8:	a2 00 00 00 03 10 05 00 	lui $5,4099
  4089e0:	28 00 00 00 4c de 05 05 	lw $5,-8628($5)
  4089e8:	43 00 00 00 01 00 02 00 	addiu $2,$0,1
  4089f0:	05 00 00 00 04 00 02 05 	beq $5,$2,408a08 <bcnds_0_+0x838>
  4089f8:	43 00 00 00 03 00 04 00 	addiu $4,$0,3
  408a00:	06 00 00 00 2c 00 04 05 	bne $5,$4,408ab8 <bcnds_0_+0x8e8>
  408a08:	a2 00 00 00 1d 10 02 00 	lui $2,4125
  408a10:	43 00 00 00 a8 b3 02 02 	addiu $2,$2,-19544
  408a18:	a2 00 00 00 03 10 01 00 	lui $1,4099
  408a20:	2b 00 00 00 a0 de 00 01 	l.d $f0,-8544($1)
  408a28:	55 00 00 00 03 04 03 00 	sll $4,$3,0x3
  408a30:	42 00 00 00 00 03 02 04 	addu $3,$4,$2
  408a38:	71 00 00 00 00 00 00 00 	add.d $f0,$f0,$f0
  408a40:	2b 00 00 00 00 00 02 03 	l.d $f2,0($3)
  408a48:	73 00 00 00 00 00 02 00 	sub.d $f0,$f0,$f2
  408a50:	43 00 00 00 00 20 02 02 	addiu $2,$2,8192
  408a58:	42 00 00 00 00 02 02 04 	addu $2,$4,$2
  408a60:	37 00 00 00 00 00 00 03 	s.d $f0,0($3)
  408a68:	2b 00 00 00 00 00 00 02 	l.d $f0,0($2)
  408a70:	7d 00 00 00 00 00 00 00 	neg.d $f0,$f0
  408a78:	37 00 00 00 00 00 00 02 	s.d $f0,0($2)
  408a80:	a2 00 00 00 8d 12 02 00 	lui $2,4749
  408a88:	43 00 00 00 08 ab 02 02 	addiu $2,$2,-21752
  408a90:	42 00 00 00 00 03 02 04 	addu $3,$4,$2
  408a98:	2b 00 00 00 00 00 02 03 	l.d $f2,0($3)
  408aa0:	a2 00 00 00 03 10 01 00 	lui $1,4099
  408aa8:	2b 00 00 00 a0 de 00 01 	l.d $f0,-8544($1)
  408ab0:	01 00 00 00 48 21 10 00 	j 408520 <bcnds_0_+0x350>
  408ab8:	06 00 00 00 06 00 06 05 	bne $5,$6,408ad8 <bcnds_0_+0x908>
  408ac0:	43 00 00 00 80 80 04 1c 	addiu $4,$28,-32640
  408ac8:	43 00 00 00 70 80 05 1c 	addiu $5,$28,-32656
  408ad0:	01 00 00 00 38 23 10 00 	j 408ce0 <bcnds_0_+0xb10>
  408ad8:	43 00 00 00 04 00 02 00 	addiu $2,$0,4
  408ae0:	05 00 00 00 04 00 02 05 	beq $5,$2,408af8 <bcnds_0_+0x928>
  408ae8:	5c 00 00 00 06 00 02 05 	slti $2,$5,6
  408af0:	06 00 00 00 70 00 00 02 	bne $2,$0,408cb8 <bcnds_0_+0xae8>
  408af8:	71 00 00 00 00 00 04 06 	add.d $f0,$f6,$f4
  408b00:	55 00 00 00 03 02 03 00 	sll $2,$3,0x3
  408b08:	a2 00 00 00 03 10 01 00 	lui $1,4099
  408b10:	37 00 00 00 f0 de 00 01 	s.d $f0,-8464($1)
  408b18:	a2 00 00 00 1d 10 01 00 	lui $1,4125
  408b20:	42 00 00 00 00 01 01 02 	addu $1,$2,$1
  408b28:	2b 00 00 00 a8 d3 04 01 	l.d $f4,-11352($1)
  408b30:	75 00 00 00 00 00 04 04 	mul.d $f0,$f4,$f4
  408b38:	a2 00 00 00 1d 10 01 00 	lui $1,4125
  408b40:	42 00 00 00 00 01 01 02 	addu $1,$2,$1
  408b48:	2b 00 00 00 a8 e3 06 01 	l.d $f6,-7256($1)
  408b50:	75 00 00 00 00 06 06 06 	mul.d $f6,$f6,$f6
  408b58:	a2 00 00 00 1d 10 01 00 	lui $1,4125
  408b60:	42 00 00 00 00 01 01 02 	addu $1,$2,$1
  408b68:	2b 00 00 00 a8 f3 08 01 	l.d $f8,-3160($1)
  408b70:	75 00 00 00 00 08 08 08 	mul.d $f8,$f8,$f8
  408b78:	2b 00 00 00 58 81 02 1c 	l.d $f2,-32424($28)
  408b80:	71 00 00 00 00 00 06 00 	add.d $f0,$f0,$f6
  408b88:	a2 00 00 00 1d 10 01 00 	lui $1,4125
  408b90:	42 00 00 00 00 01 01 02 	addu $1,$2,$1
  408b98:	37 00 00 00 a8 b3 02 01 	s.d $f2,-19544($1)
  408ba0:	a2 00 00 00 03 10 02 00 	lui $2,4099
  408ba8:	28 00 00 00 5c de 02 02 	lw $2,-8612($2)
  408bb0:	71 00 00 00 00 00 08 00 	add.d $f0,$f0,$f8
  408bb8:	37 00 00 00 50 10 04 1d 	s.d $f4,4176($29)
  408bc0:	37 00 00 00 40 10 00 1d 	s.d $f0,4160($29)
  408bc8:	06 00 00 00 12 00 04 02 	bne $2,$4,408c18 <bcnds_0_+0xa48>
  408bd0:	2b 00 00 00 50 81 14 1c 	l.d $f20,-32432($28)
  408bd8:	71 00 00 00 00 0c 14 00 	add.d $f12,$f0,$f20
  408be0:	97 00 00 00 00 00 00 0c 	sqrt.d $f0,$f12
  408be8:	91 00 00 00 00 00 00 00 	c.eq.d $f0,$f0
  408bf0:	0c 00 00 00 02 00 00 00 	bc1t 408c00 <bcnds_0_+0xa30>
  408bf8:	02 00 00 00 dc 4e 11 00 	jal 453b70 <sqrt>
  408c00:	73 00 00 00 00 00 14 00 	sub.d $f0,$f0,$f20
  408c08:	71 00 00 00 00 00 00 00 	add.d $f0,$f0,$f0
  408c10:	37 00 00 00 40 10 00 1d 	s.d $f0,4160($29)
  408c18:	2b 00 00 00 40 10 02 1d 	l.d $f2,4160($29)
  408c20:	a2 00 00 00 03 10 01 00 	lui $1,4099
  408c28:	2b 00 00 00 98 de 00 01 	l.d $f0,-8552($1)
  408c30:	75 00 00 00 00 02 00 02 	mul.d $f2,$f2,$f0
  408c38:	a2 00 00 00 03 10 01 00 	lui $1,4099
  408c40:	2b 00 00 00 e8 de 00 01 	l.d $f0,-8472($1)
  408c48:	a2 00 00 00 03 10 02 00 	lui $2,4099
  408c50:	28 00 00 00 60 de 02 02 	lw $2,-8608($2)
  408c58:	43 00 00 00 40 10 04 1d 	addiu $4,$29,4160
  408c60:	71 00 00 00 00 00 02 00 	add.d $f0,$f0,$f2
  408c68:	43 00 00 00 01 00 02 02 	addiu $2,$2,1
  408c70:	a2 00 00 00 03 10 01 00 	lui $1,4099
  408c78:	34 00 00 00 60 de 02 01 	sw $2,-8608($1)
  408c80:	37 00 00 00 40 10 02 1d 	s.d $f2,4160($29)
  408c88:	a2 00 00 00 03 10 01 00 	lui $1,4099
  408c90:	37 00 00 00 e8 de 00 01 	s.d $f0,-8472($1)
  408c98:	02 00 00 00 42 26 10 00 	jal 409908 <ibin_>
  408ca0:	a2 00 00 00 01 00 04 00 	lui $4,1
  408ca8:	51 00 00 00 50 0f 04 04 	ori $4,$4,3920
  408cb0:	01 00 00 00 9c 25 10 00 	j 409670 <bcnds_0_+0x14a0>
  408cb8:	43 00 00 00 05 00 02 00 	addiu $2,$0,5
  408cc0:	06 00 00 00 c0 02 02 05 	bne $5,$2,4097c8 <bcnds_0_+0x15f8>
  408cc8:	a2 00 00 00 02 10 04 00 	lui $4,4098
  408cd0:	43 00 00 00 78 be 04 04 	addiu $4,$4,-16776
  408cd8:	43 00 00 00 f8 ff 05 04 	addiu $5,$4,-8
  408ce0:	43 00 00 00 48 10 06 1d 	addiu $6,$29,4168
  408ce8:	a2 00 00 00 1d 10 07 00 	lui $7,4125
  408cf0:	43 00 00 00 b0 b3 07 07 	addiu $7,$7,-19536
  408cf8:	43 00 00 00 00 20 02 07 	addiu $2,$7,8192
  408d00:	34 00 00 00 10 00 02 1d 	sw $2,16($29)
  408d08:	43 00 00 00 00 30 02 07 	addiu $2,$7,12288
  408d10:	34 00 00 00 14 00 02 1d 	sw $2,20($29)
  408d18:	43 00 00 00 00 40 02 07 	addiu $2,$7,16384
  408d20:	34 00 00 00 18 00 02 1d 	sw $2,24($29)
  408d28:	a2 00 00 00 8d 12 02 00 	lui $2,4749
  408d30:	43 00 00 00 10 ab 02 02 	addiu $2,$2,-21744
  408d38:	34 00 00 00 1c 00 02 1d 	sw $2,28($29)
  408d40:	43 00 00 00 00 f0 02 02 	addiu $2,$2,-4096
  408d48:	34 00 00 00 20 00 02 1d 	sw $2,32($29)
  408d50:	43 00 00 00 78 00 02 08 	addiu $2,$8,120
  408d58:	34 00 00 00 24 00 02 1d 	sw $2,36($29)
  408d60:	43 00 00 00 a8 00 02 08 	addiu $2,$8,168
  408d68:	34 00 00 00 28 00 02 1d 	sw $2,40($29)
  408d70:	43 00 00 00 b0 00 02 08 	addiu $2,$8,176
  408d78:	34 00 00 00 2c 00 02 1d 	sw $2,44($29)
  408d80:	43 00 00 00 b8 00 02 08 	addiu $2,$8,184
  408d88:	34 00 00 00 30 00 02 1d 	sw $2,48($29)
  408d90:	a2 00 00 00 03 10 02 00 	lui $2,4099
  408d98:	43 00 00 00 f0 d2 02 02 	addiu $2,$2,-11536
  408da0:	01 00 00 00 ea 25 10 00 	j 4097a8 <bcnds_0_+0x15d8>
  408da8:	a2 00 00 00 03 10 01 00 	lui $1,4099
  408db0:	2b 00 00 00 00 df 06 01 	l.d $f6,-8448($1)
  408db8:	a2 00 00 00 03 10 01 00 	lui $1,4099
  408dc0:	2b 00 00 00 90 de 04 01 	l.d $f4,-8560($1)
  408dc8:	77 00 00 00 00 02 04 06 	div.d $f2,$f6,$f4
  408dd0:	2b 00 00 00 40 81 00 1c 	l.d $f0,-32448($28)
  408dd8:	a2 00 00 00 8e 12 04 00 	lui $4,4750
  408de0:	28 00 00 00 14 bb 04 04 	lw $4,-17644($4)
  408de8:	a2 00 00 00 03 10 08 00 	lui $8,4099
  408df0:	43 00 00 00 28 de 08 08 	addiu $8,$8,-8664
  408df8:	93 00 00 00 00 00 00 02 	c.lt.d $f2,$f0
  408e00:	34 00 00 00 48 10 04 1d 	sw $4,4168($29)
  408e08:	0b 00 00 00 32 00 00 00 	bc1f 408ed8 <bcnds_0_+0xd08>
  408e10:	71 00 00 00 00 00 04 06 	add.d $f0,$f6,$f4
  408e18:	55 00 00 00 03 02 04 00 	sll $2,$4,0x3
  408e20:	a2 00 00 00 03 10 01 00 	lui $1,4099
  408e28:	37 00 00 00 00 df 00 01 	s.d $f0,-8448($1)
  408e30:	a2 00 00 00 1d 10 01 00 	lui $1,4125
  408e38:	42 00 00 00 00 01 01 02 	addu $1,$2,$1
  408e40:	2b 00 00 00 a8 d3 04 01 	l.d $f4,-11352($1)
  408e48:	75 00 00 00 00 00 04 04 	mul.d $f0,$f4,$f4
  408e50:	a2 00 00 00 1d 10 01 00 	lui $1,4125
  408e58:	42 00 00 00 00 01 01 02 	addu $1,$2,$1
  408e60:	2b 00 00 00 a8 e3 06 01 	l.d $f6,-7256($1)
  408e68:	75 00 00 00 00 06 06 06 	mul.d $f6,$f6,$f6
  408e70:	a2 00 00 00 1d 10 01 00 	lui $1,4125
  408e78:	42 00 00 00 00 01 01 02 	addu $1,$2,$1
  408e80:	2b 00 00 00 a8 f3 08 01 	l.d $f8,-3160($1)
  408e88:	75 00 00 00 00 08 08 08 	mul.d $f8,$f8,$f8
  408e90:	2b 00 00 00 58 81 02 1c 	l.d $f2,-32424($28)
  408e98:	71 00 00 00 00 00 06 00 	add.d $f0,$f0,$f6
  408ea0:	a2 00 00 00 1d 10 01 00 	lui $1,4125
  408ea8:	42 00 00 00 00 01 01 02 	addu $1,$2,$1
  408eb0:	37 00 00 00 a8 b3 02 01 	s.d $f2,-19544($1)
  408eb8:	a2 00 00 00 03 10 02 00 	lui $2,4099
  408ec0:	28 00 00 00 5c de 02 02 	lw $2,-8612($2)
  408ec8:	71 00 00 00 00 00 08 00 	add.d $f0,$f0,$f8
  408ed0:	01 00 00 00 28 24 10 00 	j 4090a0 <bcnds_0_+0xed0>
  408ed8:	a2 00 00 00 03 10 03 00 	lui $3,4099
  408ee0:	28 00 00 00 54 de 03 03 	lw $3,-8620($3)
  408ee8:	43 00 00 00 01 00 02 00 	addiu $2,$0,1
  408ef0:	05 00 00 00 02 00 02 03 	beq $3,$2,408f00 <bcnds_0_+0xd30>
  408ef8:	06 00 00 00 2c 00 05 03 	bne $3,$5,408fb0 <bcnds_0_+0xde0>
  408f00:	a2 00 00 00 1d 10 02 00 	lui $2,4125
  408f08:	43 00 00 00 a8 c3 02 02 	addiu $2,$2,-15448
  408f10:	a2 00 00 00 03 10 01 00 	lui $1,4099
  408f18:	2b 00 00 00 10 df 00 01 	l.d $f0,-8432($1)
  408f20:	55 00 00 00 03 04 04 00 	sll $4,$4,0x3
  408f28:	42 00 00 00 00 03 02 04 	addu $3,$4,$2
  408f30:	71 00 00 00 00 00 00 00 	add.d $f0,$f0,$f0
  408f38:	2b 00 00 00 00 00 02 03 	l.d $f2,0($3)
  408f40:	73 00 00 00 00 00 02 00 	sub.d $f0,$f0,$f2
  408f48:	43 00 00 00 00 20 02 02 	addiu $2,$2,8192
  408f50:	42 00 00 00 00 02 02 04 	addu $2,$4,$2
  408f58:	37 00 00 00 00 00 00 03 	s.d $f0,0($3)
  408f60:	2b 00 00 00 00 00 00 02 	l.d $f0,0($2)
  408f68:	7d 00 00 00 00 00 00 00 	neg.d $f0,$f0
  408f70:	37 00 00 00 00 00 00 02 	s.d $f0,0($2)
  408f78:	a2 00 00 00 8d 12 02 00 	lui $2,4749
  408f80:	43 00 00 00 08 bb 02 02 	addiu $2,$2,-17656
  408f88:	42 00 00 00 00 04 02 04 	addu $4,$4,$2
  408f90:	2b 00 00 00 00 00 02 04 	l.d $f2,0($4)
  408f98:	a2 00 00 00 03 10 01 00 	lui $1,4099
  408fa0:	2b 00 00 00 10 df 00 01 	l.d $f0,-8432($1)
  408fa8:	01 00 00 00 22 25 10 00 	j 409488 <bcnds_0_+0x12b8>
  408fb0:	06 00 00 00 06 00 07 03 	bne $3,$7,408fd0 <bcnds_0_+0xe00>
  408fb8:	43 00 00 00 80 80 04 1c 	addiu $4,$28,-32640
  408fc0:	43 00 00 00 70 80 05 1c 	addiu $5,$28,-32656
  408fc8:	01 00 00 00 68 24 10 00 	j 4091a0 <bcnds_0_+0xfd0>
  408fd0:	43 00 00 00 04 00 02 00 	addiu $2,$0,4
  408fd8:	06 00 00 00 66 00 02 03 	bne $3,$2,409178 <bcnds_0_+0xfa8>
  408fe0:	71 00 00 00 00 00 04 06 	add.d $f0,$f6,$f4
  408fe8:	55 00 00 00 03 02 04 00 	sll $2,$4,0x3
  408ff0:	a2 00 00 00 03 10 01 00 	lui $1,4099
  408ff8:	37 00 00 00 00 df 00 01 	s.d $f0,-8448($1)
  409000:	a2 00 00 00 1d 10 01 00 	lui $1,4125
  409008:	42 00 00 00 00 01 01 02 	addu $1,$2,$1
  409010:	2b 00 00 00 a8 d3 04 01 	l.d $f4,-11352($1)
  409018:	75 00 00 00 00 00 04 04 	mul.d $f0,$f4,$f4
  409020:	a2 00 00 00 1d 10 01 00 	lui $1,4125
  409028:	42 00 00 00 00 01 01 02 	addu $1,$2,$1
  409030:	2b 00 00 00 a8 e3 06 01 	l.d $f6,-7256($1)
  409038:	75 00 00 00 00 06 06 06 	mul.d $f6,$f6,$f6
  409040:	a2 00 00 00 1d 10 01 00 	lui $1,4125
  409048:	42 00 00 00 00 01 01 02 	addu $1,$2,$1
  409050:	2b 00 00 00 a8 f3 08 01 	l.d $f8,-3160($1)
  409058:	75 00 00 00 00 08 08 08 	mul.d $f8,$f8,$f8
  409060:	2b 00 00 00 58 81 02 1c 	l.d $f2,-32424($28)
  409068:	71 00 00 00 00 00 06 00 	add.d $f0,$f0,$f6
  409070:	a2 00 00 00 1d 10 01 00 	lui $1,4125
  409078:	42 00 00 00 00 01 01 02 	addu $1,$2,$1
  409080:	37 00 00 00 a8 b3 02 01 	s.d $f2,-19544($1)
  409088:	a2 00 00 00 03 10 02 00 	lui $2,4099
  409090:	28 00 00 00 5c de 02 02 	lw $2,-8612($2)
  409098:	71 00 00 00 00 00 08 00 	add.d $f0,$f0,$f8
  4090a0:	37 00 00 00 50 10 04 1d 	s.d $f4,4176($29)
  4090a8:	37 00 00 00 40 10 00 1d 	s.d $f0,4160($29)
  4090b0:	06 00 00 00 12 00 05 02 	bne $2,$5,409100 <bcnds_0_+0xf30>
  4090b8:	2b 00 00 00 50 81 14 1c 	l.d $f20,-32432($28)
  4090c0:	71 00 00 00 00 0c 14 00 	add.d $f12,$f0,$f20
  4090c8:	97 00 00 00 00 00 00 0c 	sqrt.d $f0,$f12
  4090d0:	91 00 00 00 00 00 00 00 	c.eq.d $f0,$f0
  4090d8:	0c 00 00 00 02 00 00 00 	bc1t 4090e8 <bcnds_0_+0xf18>
  4090e0:	02 00 00 00 dc 4e 11 00 	jal 453b70 <sqrt>
  4090e8:	73 00 00 00 00 00 14 00 	sub.d $f0,$f0,$f20
  4090f0:	71 00 00 00 00 00 00 00 	add.d $f0,$f0,$f0
  4090f8:	37 00 00 00 40 10 00 1d 	s.d $f0,4160($29)
  409100:	2b 00 00 00 40 10 02 1d 	l.d $f2,4160($29)
  409108:	a2 00 00 00 03 10 01 00 	lui $1,4099
  409110:	2b 00 00 00 98 de 00 01 	l.d $f0,-8552($1)
  409118:	75 00 00 00 00 02 00 02 	mul.d $f2,$f2,$f0
  409120:	a2 00 00 00 03 10 01 00 	lui $1,4099
  409128:	2b 00 00 00 e8 de 00 01 	l.d $f0,-8472($1)
  409130:	71 00 00 00 00 00 02 00 	add.d $f0,$f0,$f2
  409138:	43 00 00 00 40 10 04 1d 	addiu $4,$29,4160
  409140:	37 00 00 00 40 10 02 1d 	s.d $f2,4160($29)
  409148:	a2 00 00 00 03 10 01 00 	lui $1,4099
  409150:	37 00 00 00 e8 de 00 01 	s.d $f0,-8472($1)
  409158:	02 00 00 00 42 26 10 00 	jal 409908 <ibin_>
  409160:	a2 00 00 00 01 00 04 00 	lui $4,1
  409168:	51 00 00 00 70 12 04 04 	ori $4,$4,4720
  409170:	01 00 00 00 9c 25 10 00 	j 409670 <bcnds_0_+0x14a0>
  409178:	43 00 00 00 05 00 02 00 	addiu $2,$0,5
  409180:	06 00 00 00 90 01 02 03 	bne $3,$2,4097c8 <bcnds_0_+0x15f8>
  409188:	a2 00 00 00 02 10 04 00 	lui $4,4098
  409190:	43 00 00 00 78 be 04 04 	addiu $4,$4,-16776
  409198:	43 00 00 00 f8 ff 05 04 	addiu $5,$4,-8
  4091a0:	a2 00 00 00 03 10 01 00 	lui $1,4099
  4091a8:	2b 00 00 00 d8 de 00 01 	l.d $f0,-8488($1)
  4091b0:	43 00 00 00 48 10 06 1d 	addiu $6,$29,4168
  4091b8:	a2 00 00 00 1d 10 07 00 	lui $7,4125
  4091c0:	43 00 00 00 b0 c3 07 07 	addiu $7,$7,-15440
  4091c8:	7d 00 00 00 00 00 00 00 	neg.d $f0,$f0
  4091d0:	43 00 00 00 00 20 02 07 	addiu $2,$7,8192
  4091d8:	37 00 00 00 50 10 00 1d 	s.d $f0,4176($29)
  4091e0:	34 00 00 00 10 00 02 1d 	sw $2,16($29)
  4091e8:	43 00 00 00 00 10 02 07 	addiu $2,$7,4096
  4091f0:	34 00 00 00 14 00 02 1d 	sw $2,20($29)
  4091f8:	43 00 00 00 00 30 02 07 	addiu $2,$7,12288
  409200:	34 00 00 00 18 00 02 1d 	sw $2,24($29)
  409208:	a2 00 00 00 8d 12 02 00 	lui $2,4749
  409210:	43 00 00 00 10 bb 02 02 	addiu $2,$2,-17648
  409218:	34 00 00 00 1c 00 02 1d 	sw $2,28($29)
  409220:	43 00 00 00 40 00 02 1d 	addiu $2,$29,64
  409228:	34 00 00 00 20 00 02 1d 	sw $2,32($29)
  409230:	43 00 00 00 e8 00 02 08 	addiu $2,$8,232
  409238:	34 00 00 00 24 00 02 1d 	sw $2,36($29)
  409240:	43 00 00 00 50 10 02 1d 	addiu $2,$29,4176
  409248:	34 00 00 00 28 00 02 1d 	sw $2,40($29)
  409250:	43 00 00 00 a8 00 02 08 	addiu $2,$8,168
  409258:	34 00 00 00 2c 00 02 1d 	sw $2,44($29)
  409260:	43 00 00 00 b8 00 02 08 	addiu $2,$8,184
  409268:	34 00 00 00 30 00 02 1d 	sw $2,48($29)
  409270:	a2 00 00 00 03 10 02 00 	lui $2,4099
  409278:	43 00 00 00 10 d6 02 02 	addiu $2,$2,-10736
  409280:	01 00 00 00 ea 25 10 00 	j 4097a8 <bcnds_0_+0x15d8>
  409288:	a2 00 00 00 03 10 01 00 	lui $1,4099
  409290:	2b 00 00 00 08 df 06 01 	l.d $f6,-8440($1)
  409298:	a2 00 00 00 03 10 01 00 	lui $1,4099
  4092a0:	2b 00 00 00 90 de 04 01 	l.d $f4,-8560($1)
  4092a8:	77 00 00 00 00 02 04 06 	div.d $f2,$f6,$f4
  4092b0:	2b 00 00 00 40 81 00 1c 	l.d $f0,-32448($28)
  4092b8:	a2 00 00 00 8e 12 04 00 	lui $4,4750
  4092c0:	28 00 00 00 14 bb 04 04 	lw $4,-17644($4)
  4092c8:	a2 00 00 00 03 10 08 00 	lui $8,4099
  4092d0:	43 00 00 00 28 de 08 08 	addiu $8,$8,-8664
  4092d8:	93 00 00 00 00 00 00 02 	c.lt.d $f2,$f0
  4092e0:	34 00 00 00 48 10 04 1d 	sw $4,4168($29)
  4092e8:	0b 00 00 00 32 00 00 00 	bc1f 4093b8 <bcnds_0_+0x11e8>
  4092f0:	71 00 00 00 00 00 04 06 	add.d $f0,$f6,$f4
  4092f8:	55 00 00 00 03 02 04 00 	sll $2,$4,0x3
  409300:	a2 00 00 00 03 10 01 00 	lui $1,4099
  409308:	37 00 00 00 08 df 00 01 	s.d $f0,-8440($1)
  409310:	a2 00 00 00 1d 10 01 00 	lui $1,4125
  409318:	42 00 00 00 00 01 01 02 	addu $1,$2,$1
  409320:	2b 00 00 00 a8 d3 04 01 	l.d $f4,-11352($1)
  409328:	75 00 00 00 00 00 04 04 	mul.d $f0,$f4,$f4
  409330:	a2 00 00 00 1d 10 01 00 	lui $1,4125
  409338:	42 00 00 00 00 01 01 02 	addu $1,$2,$1
  409340:	2b 00 00 00 a8 e3 06 01 	l.d $f6,-7256($1)
  409348:	75 00 00 00 00 06 06 06 	mul.d $f6,$f6,$f6
  409350:	a2 00 00 00 1d 10 01 00 	lui $1,4125
  409358:	42 00 00 00 00 01 01 02 	addu $1,$2,$1
  409360:	2b 00 00 00 a8 f3 08 01 	l.d $f8,-3160($1)
  409368:	75 00 00 00 00 08 08 08 	mul.d $f8,$f8,$f8
  409370:	2b 00 00 00 58 81 02 1c 	l.d $f2,-32424($28)
  409378:	71 00 00 00 00 00 06 00 	add.d $f0,$f0,$f6
  409380:	a2 00 00 00 1d 10 01 00 	lui $1,4125
  409388:	42 00 00 00 00 01 01 02 	addu $1,$2,$1
  409390:	37 00 00 00 a8 b3 02 01 	s.d $f2,-19544($1)
  409398:	a2 00 00 00 03 10 02 00 	lui $2,4099
  4093a0:	28 00 00 00 5c de 02 02 	lw $2,-8612($2)
  4093a8:	71 00 00 00 00 00 08 00 	add.d $f0,$f0,$f8
  4093b0:	01 00 00 00 68 25 10 00 	j 4095a0 <bcnds_0_+0x13d0>
  4093b8:	a2 00 00 00 03 10 03 00 	lui $3,4099
  4093c0:	28 00 00 00 58 de 03 03 	lw $3,-8616($3)
  4093c8:	43 00 00 00 01 00 02 00 	addiu $2,$0,1
  4093d0:	05 00 00 00 02 00 02 03 	beq $3,$2,4093e0 <bcnds_0_+0x1210>
  4093d8:	06 00 00 00 36 00 05 03 	bne $3,$5,4094b8 <bcnds_0_+0x12e8>
  4093e0:	a2 00 00 00 1d 10 02 00 	lui $2,4125
  4093e8:	43 00 00 00 a8 c3 02 02 	addiu $2,$2,-15448
  4093f0:	a2 00 00 00 03 10 01 00 	lui $1,4099
  4093f8:	2b 00 00 00 18 df 00 01 	l.d $f0,-8424($1)
  409400:	55 00 00 00 03 04 04 00 	sll $4,$4,0x3
  409408:	42 00 00 00 00 03 02 04 	addu $3,$4,$2
  409410:	71 00 00 00 00 00 00 00 	add.d $f0,$f0,$f0
  409418:	2b 00 00 00 00 00 02 03 	l.d $f2,0($3)
  409420:	73 00 00 00 00 00 02 00 	sub.d $f0,$f0,$f2
  409428:	43 00 00 00 00 20 02 02 	addiu $2,$2,8192
  409430:	42 00 00 00 00 02 02 04 	addu $2,$4,$2
  409438:	37 00 00 00 00 00 00 03 	s.d $f0,0($3)
  409440:	2b 00 00 00 00 00 00 02 	l.d $f0,0($2)
  409448:	7d 00 00 00 00 00 00 00 	neg.d $f0,$f0
  409450:	37 00 00 00 00 00 00 02 	s.d $f0,0($2)
  409458:	a2 00 00 00 8d 12 02 00 	lui $2,4749
  409460:	43 00 00 00 08 bb 02 02 	addiu $2,$2,-17656
  409468:	42 00 00 00 00 04 02 04 	addu $4,$4,$2
  409470:	2b 00 00 00 00 00 02 04 	l.d $f2,0($4)
  409478:	a2 00 00 00 03 10 01 00 	lui $1,4099
  409480:	2b 00 00 00 18 df 00 01 	l.d $f0,-8424($1)
  409488:	93 00 00 00 00 00 00 02 	c.lt.d $f2,$f0
  409490:	0c 00 00 00 cc 00 00 00 	bc1t 4097c8 <bcnds_0_+0x15f8>
  409498:	71 00 00 00 00 00 00 00 	add.d $f0,$f0,$f0
  4094a0:	73 00 00 00 00 00 02 00 	sub.d $f0,$f0,$f2
  4094a8:	37 00 00 00 00 00 00 04 	s.d $f0,0($4)
  4094b0:	01 00 00 00 f2 25 10 00 	j 4097c8 <bcnds_0_+0x15f8>
  4094b8:	06 00 00 00 06 00 07 03 	bne $3,$7,4094d8 <bcnds_0_+0x1308>
  4094c0:	43 00 00 00 80 80 04 1c 	addiu $4,$28,-32640
  4094c8:	43 00 00 00 70 80 05 1c 	addiu $5,$28,-32656
  4094d0:	01 00 00 00 ba 25 10 00 	j 4096e8 <bcnds_0_+0x1518>
  4094d8:	06 00 00 00 78 00 06 03 	bne $3,$6,4096c0 <bcnds_0_+0x14f0>
  4094e0:	71 00 00 00 00 00 04 06 	add.d $f0,$f6,$f4
  4094e8:	55 00 00 00 03 02 04 00 	sll $2,$4,0x3
  4094f0:	a2 00 00 00 03 10 01 00 	lui $1,4099
  4094f8:	37 00 00 00 08 df 00 01 	s.d $f0,-8440($1)
  409500:	a2 00 00 00 1d 10 01 00 	lui $1,4125
  409508:	42 00 00 00 00 01 01 02 	addu $1,$2,$1
  409510:	2b 00 00 00 a8 d3 04 01 	l.d $f4,-11352($1)
  409518:	75 00 00 00 00 00 04 04 	mul.d $f0,$f4,$f4
  409520:	a2 00 00 00 1d 10 01 00 	lui $1,4125
  409528:	42 00 00 00 00 01 01 02 	addu $1,$2,$1
  409530:	2b 00 00 00 a8 e3 06 01 	l.d $f6,-7256($1)
  409538:	75 00 00 00 00 06 06 06 	mul.d $f6,$f6,$f6
  409540:	a2 00 00 00 1d 10 01 00 	lui $1,4125
  409548:	42 00 00 00 00 01 01 02 	addu $1,$2,$1
  409550:	2b 00 00 00 a8 f3 08 01 	l.d $f8,-3160($1)
  409558:	75 00 00 00 00 08 08 08 	mul.d $f8,$f8,$f8
  409560:	2b 00 00 00 58 81 02 1c 	l.d $f2,-32424($28)
  409568:	71 00 00 00 00 00 06 00 	add.d $f0,$f0,$f6
  409570:	a2 00 00 00 1d 10 01 00 	lui $1,4125
  409578:	42 00 00 00 00 01 01 02 	addu $1,$2,$1
  409580:	37 00 00 00 a8 b3 02 01 	s.d $f2,-19544($1)
  409588:	a2 00 00 00 03 10 02 00 	lui $2,4099
  409590:	28 00 00 00 5c de 02 02 	lw $2,-8612($2)
  409598:	71 00 00 00 00 00 08 00 	add.d $f0,$f0,$f8
  4095a0:	37 00 00 00 50 10 04 1d 	s.d $f4,4176($29)
  4095a8:	37 00 00 00 40 10 00 1d 	s.d $f0,4160($29)
  4095b0:	06 00 00 00 12 00 05 02 	bne $2,$5,409600 <bcnds_0_+0x1430>
  4095b8:	2b 00 00 00 50 81 14 1c 	l.d $f20,-32432($28)
  4095c0:	71 00 00 00 00 0c 14 00 	add.d $f12,$f0,$f20
  4095c8:	97 00 00 00 00 00 00 0c 	sqrt.d $f0,$f12
  4095d0:	91 00 00 00 00 00 00 00 	c.eq.d $f0,$f0
  4095d8:	0c 00 00 00 02 00 00 00 	bc1t 4095e8 <bcnds_0_+0x1418>
  4095e0:	02 00 00 00 dc 4e 11 00 	jal 453b70 <sqrt>
  4095e8:	73 00 00 00 00 00 14 00 	sub.d $f0,$f0,$f20
  4095f0:	71 00 00 00 00 00 00 00 	add.d $f0,$f0,$f0
  4095f8:	37 00 00 00 40 10 00 1d 	s.d $f0,4160($29)
  409600:	2b 00 00 00 40 10 02 1d 	l.d $f2,4160($29)
  409608:	a2 00 00 00 03 10 01 00 	lui $1,4099
  409610:	2b 00 00 00 98 de 00 01 	l.d $f0,-8552($1)
  409618:	75 00 00 00 00 02 00 02 	mul.d $f2,$f2,$f0
  409620:	a2 00 00 00 03 10 01 00 	lui $1,4099
  409628:	2b 00 00 00 e8 de 00 01 	l.d $f0,-8472($1)
  409630:	71 00 00 00 00 00 02 00 	add.d $f0,$f0,$f2
  409638:	43 00 00 00 40 10 04 1d 	addiu $4,$29,4160
  409640:	37 00 00 00 40 10 02 1d 	s.d $f2,4160($29)
  409648:	a2 00 00 00 03 10 01 00 	lui $1,4099
  409650:	37 00 00 00 e8 de 00 01 	s.d $f0,-8472($1)
  409658:	02 00 00 00 42 26 10 00 	jal 409908 <ibin_>
  409660:	a2 00 00 00 01 00 04 00 	lui $4,1
  409668:	51 00 00 00 e0 10 04 04 	ori $4,$4,4320
  409670:	a2 00 00 00 02 10 03 00 	lui $3,4098
  409678:	43 00 00 00 98 c3 03 03 	addiu $3,$3,-15464
  409680:	55 00 00 00 03 02 02 00 	sll $2,$2,0x3
  409688:	42 00 00 00 00 02 03 02 	addu $2,$2,$3
  409690:	42 00 00 00 00 02 04 02 	addu $2,$2,$4
  409698:	2b 00 00 00 00 00 00 02 	l.d $f0,0($2)
  4096a0:	2b 00 00 00 40 10 02 1d 	l.d $f2,4160($29)
  4096a8:	71 00 00 00 00 00 02 00 	add.d $f0,$f0,$f2
  4096b0:	37 00 00 00 00 00 00 02 	s.d $f0,0($2)
  4096b8:	01 00 00 00 f2 25 10 00 	j 4097c8 <bcnds_0_+0x15f8>
  4096c0:	43 00 00 00 05 00 02 00 	addiu $2,$0,5
  4096c8:	06 00 00 00 3e 00 02 03 	bne $3,$2,4097c8 <bcnds_0_+0x15f8>
  4096d0:	a2 00 00 00 02 10 04 00 	lui $4,4098
  4096d8:	43 00 00 00 78 be 04 04 	addiu $4,$4,-16776
  4096e0:	43 00 00 00 f8 ff 05 04 	addiu $5,$4,-8
  4096e8:	43 00 00 00 48 10 06 1d 	addiu $6,$29,4168
  4096f0:	a2 00 00 00 1d 10 07 00 	lui $7,4125
  4096f8:	43 00 00 00 b0 c3 07 07 	addiu $7,$7,-15440
  409700:	43 00 00 00 00 20 02 07 	addiu $2,$7,8192
  409708:	34 00 00 00 10 00 02 1d 	sw $2,16($29)
  409710:	43 00 00 00 00 10 02 07 	addiu $2,$7,4096
  409718:	34 00 00 00 14 00 02 1d 	sw $2,20($29)
  409720:	43 00 00 00 00 30 02 07 	addiu $2,$7,12288
  409728:	34 00 00 00 18 00 02 1d 	sw $2,24($29)
  409730:	a2 00 00 00 8d 12 02 00 	lui $2,4749
  409738:	43 00 00 00 10 bb 02 02 	addiu $2,$2,-17648
  409740:	34 00 00 00 1c 00 02 1d 	sw $2,28($29)
  409748:	43 00 00 00 40 00 02 1d 	addiu $2,$29,64
  409750:	34 00 00 00 20 00 02 1d 	sw $2,32($29)
  409758:	43 00 00 00 f0 00 02 08 	addiu $2,$8,240
  409760:	34 00 00 00 24 00 02 1d 	sw $2,36($29)
  409768:	43 00 00 00 b0 00 02 08 	addiu $2,$8,176
  409770:	34 00 00 00 28 00 02 1d 	sw $2,40($29)
  409778:	43 00 00 00 a8 00 02 08 	addiu $2,$8,168
  409780:	34 00 00 00 2c 00 02 1d 	sw $2,44($29)
  409788:	43 00 00 00 b8 00 02 08 	addiu $2,$8,184
  409790:	34 00 00 00 30 00 02 1d 	sw $2,48($29)
  409798:	a2 00 00 00 03 10 02 00 	lui $2,4099
  4097a0:	43 00 00 00 80 d4 02 02 	addiu $2,$2,-11136
  4097a8:	34 00 00 00 34 00 02 1d 	sw $2,52($29)
  4097b0:	43 00 00 00 40 06 02 02 	addiu $2,$2,1600
  4097b8:	34 00 00 00 38 00 02 1d 	sw $2,56($29)
  4097c0:	02 00 00 00 5e 26 10 00 	jal 409978 <recre_>
  4097c8:	42 00 00 00 00 02 00 00 	addu $2,$0,$0
  4097d0:	28 00 00 00 18 11 1f 1d 	lw $31,4376($29)
  4097d8:	2b 00 00 00 20 11 14 1d 	l.d $f20,4384($29)
  4097e0:	43 00 00 00 28 11 1d 1d 	addiu $29,$29,4392
  4097e8:	03 00 00 00 00 00 00 1f 	jr $31

004097f0 <bcnds_>:
  4097f0:	43 00 00 00 e8 ff 1d 1d 	addiu $29,$29,-24
  4097f8:	34 00 00 00 10 00 1f 1d 	sw $31,16($29)
  409800:	42 00 00 00 00 04 00 00 	addu $4,$0,$0
  409808:	02 00 00 00 74 20 10 00 	jal 4081d0 <bcnds_0_>
  409810:	28 00 00 00 10 00 1f 1d 	lw $31,16($29)
  409818:	43 00 00 00 18 00 1d 1d 	addiu $29,$29,24
  409820:	03 00 00 00 00 00 00 1f 	jr $31

00409828 <bcndr_>:
  409828:	43 00 00 00 e8 ff 1d 1d 	addiu $29,$29,-24
  409830:	34 00 00 00 10 00 1f 1d 	sw $31,16($29)
  409838:	43 00 00 00 01 00 04 00 	addiu $4,$0,1
  409840:	02 00 00 00 74 20 10 00 	jal 4081d0 <bcnds_0_>
  409848:	28 00 00 00 10 00 1f 1d 	lw $31,16($29)
  409850:	43 00 00 00 18 00 1d 1d 	addiu $29,$29,24
  409858:	03 00 00 00 00 00 00 1f 	jr $31

00409860 <bcndl_>:
  409860:	43 00 00 00 e8 ff 1d 1d 	addiu $29,$29,-24
  409868:	34 00 00 00 10 00 1f 1d 	sw $31,16($29)
  409870:	43 00 00 00 02 00 04 00 	addiu $4,$0,2
  409878:	02 00 00 00 74 20 10 00 	jal 4081d0 <bcnds_0_>
  409880:	28 00 00 00 10 00 1f 1d 	lw $31,16($29)
  409888:	43 00 00 00 18 00 1d 1d 	addiu $29,$29,24
  409890:	03 00 00 00 00 00 00 1f 	jr $31

00409898 <bcndt_>:
  409898:	43 00 00 00 e8 ff 1d 1d 	addiu $29,$29,-24
  4098a0:	34 00 00 00 10 00 1f 1d 	sw $31,16($29)
  4098a8:	43 00 00 00 03 00 04 00 	addiu $4,$0,3
  4098b0:	02 00 00 00 74 20 10 00 	jal 4081d0 <bcnds_0_>
  4098b8:	28 00 00 00 10 00 1f 1d 	lw $31,16($29)
  4098c0:	43 00 00 00 18 00 1d 1d 	addiu $29,$29,24
