
/home/palmerc/Development/nakajima/newsim/ss_precompiled_spec/perl.ss:     file format ss-coff-little

Disassembly of section .text:

00400140 <__start>:
  400140:	28 00 00 00 00 00 10 1d 	lw $16,0($29)
  400148:	a2 00 00 00 01 10 1c 00 	lui $28,4097
  400150:	43 00 00 00 40 4d 1c 1c 	addiu $28,$28,19776
  400158:	43 00 00 00 04 00 11 1d 	addiu $17,$29,4
  400160:	43 00 00 00 04 00 03 11 	addiu $3,$17,4
  400168:	55 00 00 00 02 02 10 00 	sll $2,$16,0x2
  400170:	42 00 00 00 00 03 02 03 	addu $3,$3,$2
  400178:	42 00 00 00 00 12 03 00 	addu $18,$0,$3
  400180:	34 00 00 00 e4 9e 12 1c 	sw $18,-24860($28)
  400188:	43 00 00 00 e8 ff 1d 1d 	addiu $29,$29,-24
  400190:	42 00 00 00 00 04 10 00 	addu $4,$0,$16
  400198:	42 00 00 00 00 05 11 00 	addu $5,$0,$17
  4001a0:	42 00 00 00 00 06 12 00 	addu $6,$0,$18
  4001a8:	02 00 00 00 48 80 11 00 	jal 460120 <__libc_init>
  4001b0:	34 00 00 00 e0 9e 00 1c 	sw $0,-24864($28)
  4001b8:	42 00 00 00 00 04 10 00 	addu $4,$0,$16
  4001c0:	42 00 00 00 00 05 11 00 	addu $5,$0,$17
  4001c8:	42 00 00 00 00 06 12 00 	addu $6,$0,$18
  4001d0:	02 00 00 00 f4 b8 10 00 	jal 42e3d0 <main>
  4001d8:	42 00 00 00 00 04 02 00 	addu $4,$0,$2
  4001e0:	02 00 00 00 54 80 11 00 	jal 460150 <exit>
	...

004001f0 <afetch>:
  4001f0:	43 00 00 00 e0 ff 1d 1d 	addiu $29,$29,-32
  4001f8:	34 00 00 00 18 00 12 1d 	sw $18,24($29)
  400200:	42 00 00 00 00 12 04 00 	addu $18,$0,$4
  400208:	34 00 00 00 14 00 11 1d 	sw $17,20($29)
  400210:	42 00 00 00 00 11 05 00 	addu $17,$0,$5
  400218:	34 00 00 00 1c 00 1f 1d 	sw $31,28($29)
  400220:	34 00 00 00 10 00 10 1d 	sw $16,16($29)
  400228:	09 00 00 00 06 00 00 11 	bltz $17,400248 <afetch+0x58>
  400230:	28 00 00 00 10 00 02 12 	lw $2,16($18)
  400238:	5b 00 00 00 00 02 11 02 	slt $2,$2,$17
  400240:	05 00 00 00 12 00 00 02 	beq $2,$0,400290 <afetch+0xa0>
  400248:	05 00 00 00 2e 00 00 06 	beq $6,$0,400308 <afetch+0x118>
  400250:	09 00 00 00 2c 00 00 11 	bltz $17,400308 <afetch+0x118>
  400258:	22 00 00 00 14 00 02 12 	lbu $2,20($18)
  400260:	4f 00 00 00 01 00 02 02 	andi $2,$2,1
  400268:	06 00 00 00 14 00 00 02 	bne $2,$0,4002c0 <afetch+0xd0>
  400270:	a2 00 00 00 01 10 04 00 	lui $4,4097
  400278:	43 00 00 00 c0 20 04 04 	addiu $4,$4,8384
  400280:	02 00 00 00 c8 17 11 00 	jal 445f20 <str_mortal>
  400288:	01 00 00 00 b4 00 10 00 	j 4002d0 <afetch+0xe0>
  400290:	28 00 00 00 00 00 03 12 	lw $3,0($18)
  400298:	55 00 00 00 02 02 11 00 	sll $2,$17,0x2
  4002a0:	42 00 00 00 00 02 03 02 	addu $2,$2,$3
  4002a8:	28 00 00 00 00 00 02 02 	lw $2,0($2)
  4002b0:	06 00 00 00 18 00 00 02 	bne $2,$0,400318 <afetch+0x128>
  4002b8:	05 00 00 00 12 00 00 06 	beq $6,$0,400308 <afetch+0x118>
  4002c0:	42 00 00 00 00 04 00 00 	addu $4,$0,$0
  4002c8:	02 00 00 00 18 fa 10 00 	jal 43e860 <str_new>
  4002d0:	42 00 00 00 00 10 02 00 	addu $16,$0,$2
  4002d8:	42 00 00 00 00 04 12 00 	addu $4,$0,$18
  4002e0:	42 00 00 00 00 05 11 00 	addu $5,$0,$17
  4002e8:	42 00 00 00 00 06 10 00 	addu $6,$0,$16
  4002f0:	02 00 00 00 d2 00 10 00 	jal 400348 <astore>
  4002f8:	42 00 00 00 00 02 10 00 	addu $2,$0,$16
  400300:	01 00 00 00 c6 00 10 00 	j 400318 <afetch+0x128>
  400308:	a2 00 00 00 01 10 02 00 	lui $2,4097
  400310:	43 00 00 00 c0 20 02 02 	addiu $2,$2,8384
  400318:	28 00 00 00 1c 00 1f 1d 	lw $31,28($29)
  400320:	28 00 00 00 18 00 12 1d 	lw $18,24($29)
  400328:	28 00 00 00 14 00 11 1d 	lw $17,20($29)
  400330:	28 00 00 00 10 00 10 1d 	lw $16,16($29)
  400338:	43 00 00 00 20 00 1d 1d 	addiu $29,$29,32
  400340:	03 00 00 00 00 00 00 1f 	jr $31

00400348 <astore>:
  400348:	43 00 00 00 d8 ff 1d 1d 	addiu $29,$29,-40
  400350:	34 00 00 00 14 00 11 1d 	sw $17,20($29)
  400358:	42 00 00 00 00 11 04 00 	addu $17,$0,$4
  400360:	34 00 00 00 1c 00 13 1d 	sw $19,28($29)
  400368:	42 00 00 00 00 13 05 00 	addu $19,$0,$5
  400370:	34 00 00 00 20 00 14 1d 	sw $20,32($29)
  400378:	42 00 00 00 00 14 06 00 	addu $20,$0,$6
  400380:	34 00 00 00 24 00 1f 1d 	sw $31,36($29)
  400388:	34 00 00 00 18 00 12 1d 	sw $18,24($29)
  400390:	34 00 00 00 10 00 10 1d 	sw $16,16($29)
  400398:	0a 00 00 00 04 00 00 13 	bgez $19,4003b0 <astore+0x68>
  4003a0:	42 00 00 00 00 02 00 00 	addu $2,$0,$0
  4003a8:	01 00 00 00 ce 01 10 00 	j 400738 <astore+0x3f0>
  4003b0:	28 00 00 00 0c 00 06 11 	lw $6,12($17)
  4003b8:	5b 00 00 00 00 02 13 06 	slt $2,$6,$19
  4003c0:	05 00 00 00 8c 00 00 02 	beq $2,$0,4005f8 <astore+0x2b0>
  4003c8:	28 00 00 00 04 00 04 11 	lw $4,4($17)
  4003d0:	28 00 00 00 00 00 05 11 	lw $5,0($17)
  4003d8:	05 00 00 00 34 00 05 04 	beq $4,$5,4004b0 <astore+0x168>
  4003e0:	45 00 00 00 00 02 04 05 	subu $2,$5,$4
  4003e8:	59 00 00 00 02 12 02 00 	sra $18,$2,0x2
  4003f0:	43 00 00 00 01 00 06 06 	addiu $6,$6,1
  4003f8:	55 00 00 00 02 06 06 00 	sll $6,$6,0x2
  400400:	02 00 00 00 cc 80 11 00 	jal 460330 <memmove>
  400408:	42 00 00 00 00 05 00 00 	addu $5,$0,$0
  400410:	28 00 00 00 0c 00 04 11 	lw $4,12($17)
  400418:	28 00 00 00 04 00 02 11 	lw $2,4($17)
  400420:	55 00 00 00 02 10 12 00 	sll $16,$18,0x2
  400428:	42 00 00 00 00 06 10 00 	addu $6,$0,$16
  400430:	55 00 00 00 02 04 04 00 	sll $4,$4,0x2
  400438:	42 00 00 00 00 04 02 04 	addu $4,$4,$2
  400440:	43 00 00 00 04 00 04 04 	addiu $4,$4,4
  400448:	02 00 00 00 90 81 11 00 	jal 460640 <memset>
  400450:	28 00 00 00 0c 00 02 11 	lw $2,12($17)
  400458:	42 00 00 00 00 02 02 12 	addu $2,$18,$2
  400460:	34 00 00 00 0c 00 02 11 	sw $2,12($17)
  400468:	28 00 00 00 00 00 02 11 	lw $2,0($17)
  400470:	28 00 00 00 0c 00 05 11 	lw $5,12($17)
  400478:	45 00 00 00 00 02 10 02 	subu $2,$2,$16
  400480:	34 00 00 00 00 00 02 11 	sw $2,0($17)
  400488:	43 00 00 00 f6 ff 02 05 	addiu $2,$5,-10
  400490:	5b 00 00 00 00 02 13 02 	slt $2,$2,$19
  400498:	05 00 00 00 56 00 00 02 	beq $2,$0,4005f8 <astore+0x2b0>
  4004a0:	42 00 00 00 00 12 05 13 	addu $18,$19,$5
  4004a8:	01 00 00 00 44 01 10 00 	j 400510 <astore+0x1c8>
  4004b0:	05 00 00 00 30 00 00 04 	beq $4,$0,400578 <astore+0x230>
  4004b8:	a2 00 00 00 66 66 02 00 	lui $2,26214
  4004c0:	51 00 00 00 67 66 02 02 	ori $2,$2,26215
  4004c8:	46 00 00 00 00 00 02 06 	mult $6,$2
  4004d0:	4a 00 00 00 00 03 00 00 	mfhi $3
  4004d8:	4c 00 00 00 00 02 00 00 	mflo $2
  4004e0:	57 00 00 00 00 02 03 00 	srl $2,$3,0x0
  4004e8:	42 00 00 00 00 03 00 00 	addu $3,$0,$0
  4004f0:	59 00 00 00 01 02 02 00 	sra $2,$2,0x1
  4004f8:	59 00 00 00 1f 04 06 00 	sra $4,$6,0x1f
  400500:	45 00 00 00 00 02 04 02 	subu $2,$2,$4
  400508:	42 00 00 00 00 12 02 13 	addu $18,$19,$2
  400510:	28 00 00 00 04 00 04 11 	lw $4,4($17)
  400518:	43 00 00 00 01 00 05 12 	addiu $5,$18,1
  400520:	55 00 00 00 02 05 05 00 	sll $5,$5,0x2
  400528:	02 00 00 00 16 60 11 00 	jal 458058 <saferealloc>
  400530:	28 00 00 00 0c 00 06 11 	lw $6,12($17)
  400538:	42 00 00 00 00 05 00 00 	addu $5,$0,$0
  400540:	34 00 00 00 04 00 02 11 	sw $2,4($17)
  400548:	55 00 00 00 02 04 06 00 	sll $4,$6,0x2
  400550:	43 00 00 00 04 00 04 04 	addiu $4,$4,4
  400558:	42 00 00 00 00 04 02 04 	addu $4,$4,$2
  400560:	45 00 00 00 00 06 06 12 	subu $6,$18,$6
  400568:	55 00 00 00 02 06 06 00 	sll $6,$6,0x2
  400570:	01 00 00 00 76 01 10 00 	j 4005d8 <astore+0x290>
  400578:	42 00 00 00 00 12 13 00 	addu $18,$0,$19
  400580:	5c 00 00 00 04 00 02 13 	slti $2,$19,4
  400588:	05 00 00 00 02 00 00 02 	beq $2,$0,400598 <astore+0x250>
  400590:	43 00 00 00 04 00 12 00 	addiu $18,$0,4
  400598:	43 00 00 00 01 00 10 12 	addiu $16,$18,1
  4005a0:	55 00 00 00 02 10 10 00 	sll $16,$16,0x2
  4005a8:	42 00 00 00 00 04 10 00 	addu $4,$0,$16
  4005b0:	02 00 00 00 f0 5f 11 00 	jal 457fc0 <safemalloc>
  4005b8:	34 00 00 00 04 00 02 11 	sw $2,4($17)
  4005c0:	42 00 00 00 00 04 02 00 	addu $4,$0,$2
  4005c8:	42 00 00 00 00 05 00 00 	addu $5,$0,$0
  4005d0:	42 00 00 00 00 06 10 00 	addu $6,$0,$16
  4005d8:	02 00 00 00 90 81 11 00 	jal 460640 <memset>
  4005e0:	28 00 00 00 04 00 02 11 	lw $2,4($17)
  4005e8:	34 00 00 00 0c 00 12 11 	sw $18,12($17)
  4005f0:	34 00 00 00 00 00 02 11 	sw $2,0($17)
  4005f8:	22 00 00 00 14 00 02 11 	lbu $2,20($17)
  400600:	4f 00 00 00 01 00 02 02 	andi $2,$2,1
  400608:	05 00 00 00 3c 00 00 02 	beq $2,$0,400700 <astore+0x3b8>
  400610:	28 00 00 00 10 00 03 11 	lw $3,16($17)
  400618:	5b 00 00 00 00 02 13 03 	slt $2,$3,$19
  400620:	05 00 00 00 26 00 00 02 	beq $2,$0,4006c0 <astore+0x378>
  400628:	43 00 00 00 01 00 02 03 	addiu $2,$3,1
  400630:	01 00 00 00 aa 01 10 00 	j 4006a8 <astore+0x360>
  400638:	28 00 00 00 10 00 02 11 	lw $2,16($17)
  400640:	28 00 00 00 00 00 03 11 	lw $3,0($17)
  400648:	55 00 00 00 02 02 02 00 	sll $2,$2,0x2
  400650:	42 00 00 00 00 02 03 02 	addu $2,$2,$3
  400658:	28 00 00 00 00 00 04 02 	lw $4,0($2)
  400660:	05 00 00 00 0c 00 00 04 	beq $4,$0,400698 <astore+0x350>
  400668:	02 00 00 00 ec fd 10 00 	jal 43f7b0 <str_free>
  400670:	28 00 00 00 10 00 02 11 	lw $2,16($17)
  400678:	28 00 00 00 00 00 03 11 	lw $3,0($17)
  400680:	55 00 00 00 02 02 02 00 	sll $2,$2,0x2
  400688:	42 00 00 00 00 02 03 02 	addu $2,$2,$3
  400690:	34 00 00 00 00 00 00 02 	sw $0,0($2)
  400698:	28 00 00 00 10 00 02 11 	lw $2,16($17)
  4006a0:	43 00 00 00 01 00 02 02 	addiu $2,$2,1
  4006a8:	34 00 00 00 10 00 02 11 	sw $2,16($17)
  4006b0:	5b 00 00 00 00 02 13 02 	slt $2,$2,$19
  4006b8:	06 00 00 00 de ff 00 02 	bne $2,$0,400638 <astore+0x2f0>
  4006c0:	28 00 00 00 00 00 03 11 	lw $3,0($17)
  4006c8:	55 00 00 00 02 02 13 00 	sll $2,$19,0x2
  4006d0:	42 00 00 00 00 02 03 02 	addu $2,$2,$3
  4006d8:	28 00 00 00 00 00 04 02 	lw $4,0($2)
  4006e0:	5d 00 00 00 00 12 04 00 	sltu $18,$0,$4
  4006e8:	05 00 00 00 06 00 00 12 	beq $18,$0,400708 <astore+0x3c0>
  4006f0:	02 00 00 00 ec fd 10 00 	jal 43f7b0 <str_free>
  4006f8:	01 00 00 00 c2 01 10 00 	j 400708 <astore+0x3c0>
  400700:	42 00 00 00 00 12 00 00 	addu $18,$0,$0
  400708:	28 00 00 00 00 00 04 11 	lw $4,0($17)
  400710:	55 00 00 00 18 02 12 00 	sll $2,$18,0x18
  400718:	59 00 00 00 18 02 02 00 	sra $2,$2,0x18
  400720:	55 00 00 00 02 03 13 00 	sll $3,$19,0x2
  400728:	42 00 00 00 00 03 04 03 	addu $3,$3,$4
  400730:	34 00 00 00 00 00 14 03 	sw $20,0($3)
  400738:	28 00 00 00 24 00 1f 1d 	lw $31,36($29)
  400740:	28 00 00 00 20 00 14 1d 	lw $20,32($29)
  400748:	28 00 00 00 1c 00 13 1d 	lw $19,28($29)
  400750:	28 00 00 00 18 00 12 1d 	lw $18,24($29)
  400758:	28 00 00 00 14 00 11 1d 	lw $17,20($29)
  400760:	28 00 00 00 10 00 10 1d 	lw $16,16($29)
  400768:	43 00 00 00 28 00 1d 1d 	addiu $29,$29,40
  400770:	03 00 00 00 00 00 00 1f 	jr $31

00400778 <anew>:
  400778:	43 00 00 00 d8 ff 1d 1d 	addiu $29,$29,-40
  400780:	34 00 00 00 1c 00 11 1d 	sw $17,28($29)
  400788:	42 00 00 00 00 11 04 00 	addu $17,$0,$4
  400790:	43 00 00 00 18 00 04 00 	addiu $4,$0,24
  400798:	34 00 00 00 20 00 1f 1d 	sw $31,32($29)
  4007a0:	34 00 00 00 18 00 10 1d 	sw $16,24($29)
  4007a8:	02 00 00 00 f0 5f 11 00 	jal 457fc0 <safemalloc>
  4007b0:	42 00 00 00 00 04 00 00 	addu $4,$0,$0
  4007b8:	42 00 00 00 00 10 02 00 	addu $16,$0,$2
  4007c0:	02 00 00 00 18 fa 10 00 	jal 43e860 <str_new>
  4007c8:	34 00 00 00 08 00 02 10 	sw $2,8($16)
  4007d0:	34 00 00 00 00 00 00 10 	sw $0,0($16)
  4007d8:	34 00 00 00 04 00 00 10 	sw $0,4($16)
  4007e0:	34 00 00 00 10 00 00 1d 	sw $0,16($29)
  4007e8:	28 00 00 00 08 00 04 10 	lw $4,8($16)
  4007f0:	42 00 00 00 00 05 11 00 	addu $5,$0,$17
  4007f8:	43 00 00 00 23 00 06 00 	addiu $6,$0,35
  400800:	42 00 00 00 00 07 00 00 	addu $7,$0,$0
  400808:	02 00 00 00 a8 fa 10 00 	jal 43eaa0 <str_magic>
  400810:	42 00 00 00 00 02 10 00 	addu $2,$0,$16
  400818:	43 00 00 00 ff ff 03 00 	addiu $3,$0,-1
  400820:	34 00 00 00 10 00 03 02 	sw $3,16($2)
  400828:	34 00 00 00 0c 00 03 02 	sw $3,12($2)
  400830:	43 00 00 00 01 00 03 00 	addiu $3,$0,1
  400838:	30 00 00 00 14 00 03 02 	sb $3,20($2)
  400840:	28 00 00 00 20 00 1f 1d 	lw $31,32($29)
  400848:	28 00 00 00 1c 00 11 1d 	lw $17,28($29)
  400850:	28 00 00 00 18 00 10 1d 	lw $16,24($29)
  400858:	43 00 00 00 28 00 1d 1d 	addiu $29,$29,40
  400860:	03 00 00 00 00 00 00 1f 	jr $31

00400868 <afake>:
  400868:	43 00 00 00 d0 ff 1d 1d 	addiu $29,$29,-48
  400870:	34 00 00 00 18 00 10 1d 	sw $16,24($29)
  400878:	42 00 00 00 00 10 04 00 	addu $16,$0,$4
  400880:	34 00 00 00 1c 00 11 1d 	sw $17,28($29)
  400888:	42 00 00 00 00 11 05 00 	addu $17,$0,$5
  400890:	34 00 00 00 24 00 13 1d 	sw $19,36($29)
  400898:	42 00 00 00 00 13 06 00 	addu $19,$0,$6
  4008a0:	43 00 00 00 18 00 04 00 	addiu $4,$0,24
  4008a8:	34 00 00 00 28 00 1f 1d 	sw $31,40($29)
  4008b0:	34 00 00 00 20 00 12 1d 	sw $18,32($29)
  4008b8:	02 00 00 00 f0 5f 11 00 	jal 457fc0 <safemalloc>
  4008c0:	43 00 00 00 01 00 04 11 	addiu $4,$17,1
  4008c8:	55 00 00 00 02 04 04 00 	sll $4,$4,0x2
  4008d0:	42 00 00 00 00 12 02 00 	addu $18,$0,$2
  4008d8:	02 00 00 00 f0 5f 11 00 	jal 457fc0 <safemalloc>
  4008e0:	42 00 00 00 00 04 02 00 	addu $4,$0,$2
  4008e8:	42 00 00 00 00 05 13 00 	addu $5,$0,$19
  4008f0:	55 00 00 00 02 06 11 00 	sll $6,$17,0x2
  4008f8:	34 00 00 00 04 00 04 12 	sw $4,4($18)
  400900:	02 00 00 00 ec 81 11 00 	jal 4607b0 <memcpy>
  400908:	28 00 00 00 04 00 02 12 	lw $2,4($18)
  400910:	42 00 00 00 00 04 00 00 	addu $4,$0,$0
  400918:	34 00 00 00 00 00 02 12 	sw $2,0($18)
  400920:	02 00 00 00 18 fa 10 00 	jal 43e860 <str_new>
  400928:	34 00 00 00 08 00 02 12 	sw $2,8($18)
  400930:	34 00 00 00 10 00 00 1d 	sw $0,16($29)
  400938:	28 00 00 00 08 00 04 12 	lw $4,8($18)
  400940:	42 00 00 00 00 05 10 00 	addu $5,$0,$16
  400948:	43 00 00 00 23 00 06 00 	addiu $6,$0,35
  400950:	42 00 00 00 00 07 00 00 	addu $7,$0,$0
  400958:	02 00 00 00 a8 fa 10 00 	jal 43eaa0 <str_magic>
  400960:	43 00 00 00 ff ff 02 11 	addiu $2,$17,-1
  400968:	42 00 00 00 00 11 02 00 	addu $17,$0,$2
  400970:	43 00 00 00 ff ff 02 00 	addiu $2,$0,-1
  400978:	34 00 00 00 10 00 11 12 	sw $17,16($18)
  400980:	34 00 00 00 0c 00 11 12 	sw $17,12($18)
  400988:	30 00 00 00 14 00 00 12 	sb $0,20($18)
  400990:	05 00 00 00 12 00 02 11 	beq $17,$2,4009e0 <afake+0x178>
  400998:	43 00 00 00 ff ff 04 00 	addiu $4,$0,-1
  4009a0:	28 00 00 00 00 00 03 13 	lw $3,0($19)
  4009a8:	05 00 00 00 06 00 00 03 	beq $3,$0,4009c8 <afake+0x160>
  4009b0:	22 00 00 00 18 00 02 03 	lbu $2,24($3)
  4009b8:	4f 00 00 00 7f 00 02 02 	andi $2,$2,127
  4009c0:	30 00 00 00 18 00 02 03 	sb $2,24($3)
  4009c8:	43 00 00 00 04 00 13 13 	addiu $19,$19,4
  4009d0:	43 00 00 00 ff ff 11 11 	addiu $17,$17,-1
  4009d8:	06 00 00 00 f0 ff 04 11 	bne $17,$4,4009a0 <afake+0x138>
  4009e0:	42 00 00 00 00 02 12 00 	addu $2,$0,$18
  4009e8:	28 00 00 00 28 00 1f 1d 	lw $31,40($29)
  4009f0:	28 00 00 00 24 00 13 1d 	lw $19,36($29)
  4009f8:	28 00 00 00 20 00 12 1d 	lw $18,32($29)
  400a00:	28 00 00 00 1c 00 11 1d 	lw $17,28($29)
  400a08:	28 00 00 00 18 00 10 1d 	lw $16,24($29)
  400a10:	43 00 00 00 30 00 1d 1d 	addiu $29,$29,48
  400a18:	03 00 00 00 00 00 00 1f 	jr $31

00400a20 <aclear>:
  400a20:	43 00 00 00 e0 ff 1d 1d 	addiu $29,$29,-32
  400a28:	34 00 00 00 14 00 11 1d 	sw $17,20($29)
  400a30:	42 00 00 00 00 11 04 00 	addu $17,$0,$4
  400a38:	34 00 00 00 18 00 1f 1d 	sw $31,24($29)
  400a40:	34 00 00 00 10 00 10 1d 	sw $16,16($29)
  400a48:	05 00 00 00 48 00 00 11 	beq $17,$0,400b70 <aclear+0x150>
  400a50:	22 00 00 00 14 00 02 11 	lbu $2,20($17)
  400a58:	4f 00 00 00 01 00 02 02 	andi $2,$2,1
  400a60:	05 00 00 00 42 00 00 02 	beq $2,$0,400b70 <aclear+0x150>
  400a68:	28 00 00 00 0c 00 04 11 	lw $4,12($17)
  400a70:	09 00 00 00 3e 00 00 04 	bltz $4,400b70 <aclear+0x150>
  400a78:	28 00 00 00 00 00 02 11 	lw $2,0($17)
  400a80:	28 00 00 00 04 00 03 11 	lw $3,4($17)
  400a88:	45 00 00 00 00 02 03 02 	subu $2,$2,$3
  400a90:	59 00 00 00 02 10 02 00 	sra $16,$2,0x2
  400a98:	05 00 00 00 0c 00 00 10 	beq $16,$0,400ad0 <aclear+0xb0>
  400aa0:	28 00 00 00 00 00 02 11 	lw $2,0($17)
  400aa8:	42 00 00 00 00 03 04 10 	addu $3,$16,$4
  400ab0:	34 00 00 00 0c 00 03 11 	sw $3,12($17)
  400ab8:	55 00 00 00 02 03 10 00 	sll $3,$16,0x2
  400ac0:	45 00 00 00 00 02 03 02 	subu $2,$2,$3
  400ac8:	34 00 00 00 00 00 02 11 	sw $2,0($17)
  400ad0:	28 00 00 00 0c 00 02 11 	lw $2,12($17)
  400ad8:	42 00 00 00 00 10 00 00 	addu $16,$0,$0
  400ae0:	09 00 00 00 12 00 00 02 	bltz $2,400b30 <aclear+0x110>
  400ae8:	28 00 00 00 00 00 02 11 	lw $2,0($17)
  400af0:	55 00 00 00 02 03 10 00 	sll $3,$16,0x2
  400af8:	42 00 00 00 00 03 02 03 	addu $3,$3,$2
  400b00:	28 00 00 00 00 00 04 03 	lw $4,0($3)
  400b08:	02 00 00 00 ec fd 10 00 	jal 43f7b0 <str_free>
  400b10:	28 00 00 00 0c 00 02 11 	lw $2,12($17)
  400b18:	43 00 00 00 01 00 10 10 	addiu $16,$16,1
  400b20:	5b 00 00 00 00 02 10 02 	slt $2,$2,$16
  400b28:	05 00 00 00 ee ff 00 02 	beq $2,$0,400ae8 <aclear+0xc8>
  400b30:	28 00 00 00 00 00 04 11 	lw $4,0($17)
  400b38:	28 00 00 00 0c 00 06 11 	lw $6,12($17)
  400b40:	43 00 00 00 ff ff 02 00 	addiu $2,$0,-1
  400b48:	42 00 00 00 00 05 00 00 	addu $5,$0,$0
  400b50:	34 00 00 00 10 00 02 11 	sw $2,16($17)
  400b58:	43 00 00 00 01 00 06 06 	addiu $6,$6,1
  400b60:	55 00 00 00 02 06 06 00 	sll $6,$6,0x2
  400b68:	02 00 00 00 90 81 11 00 	jal 460640 <memset>
  400b70:	28 00 00 00 18 00 1f 1d 	lw $31,24($29)
  400b78:	28 00 00 00 14 00 11 1d 	lw $17,20($29)
  400b80:	28 00 00 00 10 00 10 1d 	lw $16,16($29)
  400b88:	43 00 00 00 20 00 1d 1d 	addiu $29,$29,32
  400b90:	03 00 00 00 00 00 00 1f 	jr $31

00400b98 <afree>:
  400b98:	43 00 00 00 e0 ff 1d 1d 	addiu $29,$29,-32
  400ba0:	34 00 00 00 14 00 11 1d 	sw $17,20($29)
  400ba8:	42 00 00 00 00 11 04 00 	addu $17,$0,$4
  400bb0:	34 00 00 00 18 00 1f 1d 	sw $31,24($29)
  400bb8:	34 00 00 00 10 00 10 1d 	sw $16,16($29)
  400bc0:	05 00 00 00 42 00 00 11 	beq $17,$0,400cd0 <afree+0x138>
  400bc8:	28 00 00 00 00 00 02 11 	lw $2,0($17)
  400bd0:	28 00 00 00 04 00 03 11 	lw $3,4($17)
  400bd8:	45 00 00 00 00 02 03 02 	subu $2,$2,$3
  400be0:	59 00 00 00 02 10 02 00 	sra $16,$2,0x2
  400be8:	05 00 00 00 0e 00 00 10 	beq $16,$0,400c28 <afree+0x90>
  400bf0:	28 00 00 00 0c 00 02 11 	lw $2,12($17)
  400bf8:	28 00 00 00 00 00 03 11 	lw $3,0($17)
  400c00:	42 00 00 00 00 02 02 10 	addu $2,$16,$2
  400c08:	34 00 00 00 0c 00 02 11 	sw $2,12($17)
  400c10:	55 00 00 00 02 02 10 00 	sll $2,$16,0x2
  400c18:	45 00 00 00 00 03 02 03 	subu $3,$3,$2
  400c20:	34 00 00 00 00 00 03 11 	sw $3,0($17)
  400c28:	22 00 00 00 14 00 02 11 	lbu $2,20($17)
  400c30:	4f 00 00 00 01 00 02 02 	andi $2,$2,1
  400c38:	05 00 00 00 18 00 00 02 	beq $2,$0,400ca0 <afree+0x108>
  400c40:	28 00 00 00 0c 00 02 11 	lw $2,12($17)
  400c48:	42 00 00 00 00 10 00 00 	addu $16,$0,$0
  400c50:	09 00 00 00 12 00 00 02 	bltz $2,400ca0 <afree+0x108>
  400c58:	28 00 00 00 00 00 02 11 	lw $2,0($17)
  400c60:	55 00 00 00 02 03 10 00 	sll $3,$16,0x2
  400c68:	42 00 00 00 00 03 02 03 	addu $3,$3,$2
  400c70:	28 00 00 00 00 00 04 03 	lw $4,0($3)
  400c78:	02 00 00 00 ec fd 10 00 	jal 43f7b0 <str_free>
  400c80:	28 00 00 00 0c 00 02 11 	lw $2,12($17)
  400c88:	43 00 00 00 01 00 10 10 	addiu $16,$16,1
  400c90:	5b 00 00 00 00 02 10 02 	slt $2,$2,$16
  400c98:	05 00 00 00 ee ff 00 02 	beq $2,$0,400c58 <afree+0xc0>
  400ca0:	28 00 00 00 08 00 04 11 	lw $4,8($17)
  400ca8:	02 00 00 00 ec fd 10 00 	jal 43f7b0 <str_free>
  400cb0:	28 00 00 00 04 00 04 11 	lw $4,4($17)
  400cb8:	02 00 00 00 54 60 11 00 	jal 458150 <safefree>
  400cc0:	42 00 00 00 00 04 11 00 	addu $4,$0,$17
  400cc8:	02 00 00 00 54 60 11 00 	jal 458150 <safefree>
  400cd0:	28 00 00 00 18 00 1f 1d 	lw $31,24($29)
  400cd8:	28 00 00 00 14 00 11 1d 	lw $17,20($29)
  400ce0:	28 00 00 00 10 00 10 1d 	lw $16,16($29)
  400ce8:	43 00 00 00 20 00 1d 1d 	addiu $29,$29,32
  400cf0:	03 00 00 00 00 00 00 1f 	jr $31

00400cf8 <apush>:
  400cf8:	43 00 00 00 e8 ff 1d 1d 	addiu $29,$29,-24
  400d00:	42 00 00 00 00 06 05 00 	addu $6,$0,$5
  400d08:	34 00 00 00 10 00 1f 1d 	sw $31,16($29)
  400d10:	28 00 00 00 10 00 05 04 	lw $5,16($4)
  400d18:	43 00 00 00 01 00 05 05 	addiu $5,$5,1
  400d20:	34 00 00 00 10 00 05 04 	sw $5,16($4)
  400d28:	02 00 00 00 d2 00 10 00 	jal 400348 <astore>
  400d30:	55 00 00 00 18 02 02 00 	sll $2,$2,0x18
  400d38:	59 00 00 00 18 02 02 00 	sra $2,$2,0x18
  400d40:	28 00 00 00 10 00 1f 1d 	lw $31,16($29)
  400d48:	43 00 00 00 18 00 1d 1d 	addiu $29,$29,24
  400d50:	03 00 00 00 00 00 00 1f 	jr $31

00400d58 <apop>:
  400d58:	42 00 00 00 00 06 04 00 	addu $6,$0,$4
  400d60:	28 00 00 00 10 00 03 06 	lw $3,16($6)
  400d68:	09 00 00 00 14 00 00 03 	bltz $3,400dc0 <apop+0x68>
  400d70:	28 00 00 00 00 00 02 06 	lw $2,0($6)
  400d78:	55 00 00 00 02 04 03 00 	sll $4,$3,0x2
  400d80:	28 00 00 00 00 00 05 06 	lw $5,0($6)
  400d88:	42 00 00 00 00 02 02 04 	addu $2,$4,$2
  400d90:	28 00 00 00 00 00 02 02 	lw $2,0($2)
  400d98:	43 00 00 00 ff ff 03 03 	addiu $3,$3,-1
  400da0:	42 00 00 00 00 04 05 04 	addu $4,$4,$5
  400da8:	34 00 00 00 10 00 03 06 	sw $3,16($6)
  400db0:	34 00 00 00 00 00 00 04 	sw $0,0($4)
  400db8:	01 00 00 00 72 03 10 00 	j 400dc8 <apop+0x70>
  400dc0:	42 00 00 00 00 02 00 00 	addu $2,$0,$0
  400dc8:	03 00 00 00 00 00 00 1f 	jr $31

00400dd0 <aunshift>:
  400dd0:	43 00 00 00 e0 ff 1d 1d 	addiu $29,$29,-32
  400dd8:	34 00 00 00 14 00 11 1d 	sw $17,20($29)
  400de0:	42 00 00 00 00 11 04 00 	addu $17,$0,$4
  400de8:	34 00 00 00 10 00 10 1d 	sw $16,16($29)
  400df0:	42 00 00 00 00 10 05 00 	addu $16,$0,$5
  400df8:	34 00 00 00 18 00 1f 1d 	sw $31,24($29)
  400e00:	07 00 00 00 5c 00 00 10 	blez $16,400f78 <aunshift+0x1a8>
  400e08:	28 00 00 00 00 00 02 11 	lw $2,0($17)
  400e10:	28 00 00 00 04 00 03 11 	lw $3,4($17)
  400e18:	45 00 00 00 00 02 03 02 	subu $2,$2,$3
  400e20:	59 00 00 00 02 02 02 00 	sra $2,$2,0x2
  400e28:	5b 00 00 00 00 02 10 02 	slt $2,$2,$16
  400e30:	06 00 00 00 22 00 00 02 	bne $2,$0,400ec0 <aunshift+0xf0>
  400e38:	28 00 00 00 0c 00 02 11 	lw $2,12($17)
  400e40:	28 00 00 00 10 00 03 11 	lw $3,16($17)
  400e48:	42 00 00 00 00 02 02 10 	addu $2,$16,$2
  400e50:	42 00 00 00 00 03 03 10 	addu $3,$16,$3
  400e58:	43 00 00 00 ff ff 10 10 	addiu $16,$16,-1
  400e60:	34 00 00 00 0c 00 02 11 	sw $2,12($17)
  400e68:	43 00 00 00 ff ff 02 00 	addiu $2,$0,-1
  400e70:	34 00 00 00 10 00 03 11 	sw $3,16($17)
  400e78:	05 00 00 00 3e 00 02 10 	beq $16,$2,400f78 <aunshift+0x1a8>
  400e80:	43 00 00 00 ff ff 04 00 	addiu $4,$0,-1
  400e88:	28 00 00 00 00 00 03 11 	lw $3,0($17)
  400e90:	43 00 00 00 ff ff 10 10 	addiu $16,$16,-1
  400e98:	43 00 00 00 fc ff 02 03 	addiu $2,$3,-4
  400ea0:	34 00 00 00 00 00 02 11 	sw $2,0($17)
  400ea8:	34 00 00 00 fc ff 00 03 	sw $0,-4($3)
  400eb0:	06 00 00 00 f4 ff 04 10 	bne $16,$4,400e88 <aunshift+0xb8>
  400eb8:	01 00 00 00 de 03 10 00 	j 400f78 <aunshift+0x1a8>
  400ec0:	28 00 00 00 10 00 05 11 	lw $5,16($17)
  400ec8:	42 00 00 00 00 04 11 00 	addu $4,$0,$17
  400ed0:	42 00 00 00 00 06 00 00 	addu $6,$0,$0
  400ed8:	42 00 00 00 00 05 05 10 	addu $5,$16,$5
  400ee0:	02 00 00 00 d2 00 10 00 	jal 400348 <astore>
  400ee8:	28 00 00 00 10 00 04 11 	lw $4,16($17)
  400ef0:	28 00 00 00 00 00 03 11 	lw $3,0($17)
  400ef8:	55 00 00 00 02 02 04 00 	sll $2,$4,0x2
  400f00:	42 00 00 00 00 03 03 02 	addu $3,$2,$3
  400f08:	55 00 00 00 02 02 10 00 	sll $2,$16,0x2
  400f10:	45 00 00 00 00 05 02 03 	subu $5,$3,$2
  400f18:	45 00 00 00 00 04 10 04 	subu $4,$4,$16
  400f20:	09 00 00 00 0c 00 00 04 	bltz $4,400f58 <aunshift+0x188>
  400f28:	28 00 00 00 00 00 02 05 	lw $2,0($5)
  400f30:	43 00 00 00 ff ff 04 04 	addiu $4,$4,-1
  400f38:	43 00 00 00 fc ff 05 05 	addiu $5,$5,-4
  400f40:	34 00 00 00 00 00 02 03 	sw $2,0($3)
  400f48:	43 00 00 00 fc ff 03 03 	addiu $3,$3,-4
  400f50:	0a 00 00 00 f4 ff 00 04 	bgez $4,400f28 <aunshift+0x158>
  400f58:	28 00 00 00 00 00 04 11 	lw $4,0($17)
  400f60:	42 00 00 00 00 05 00 00 	addu $5,$0,$0
  400f68:	55 00 00 00 02 06 10 00 	sll $6,$16,0x2
  400f70:	02 00 00 00 90 81 11 00 	jal 460640 <memset>
  400f78:	28 00 00 00 18 00 1f 1d 	lw $31,24($29)
  400f80:	28 00 00 00 14 00 11 1d 	lw $17,20($29)
  400f88:	28 00 00 00 10 00 10 1d 	lw $16,16($29)
  400f90:	43 00 00 00 20 00 1d 1d 	addiu $29,$29,32
  400f98:	03 00 00 00 00 00 00 1f 	jr $31

00400fa0 <ashift>:
  400fa0:	42 00 00 00 00 05 04 00 	addu $5,$0,$4
  400fa8:	28 00 00 00 10 00 02 05 	lw $2,16($5)
  400fb0:	09 00 00 00 18 00 00 02 	bltz $2,401018 <ashift+0x78>
  400fb8:	28 00 00 00 00 00 03 05 	lw $3,0($5)
  400fc0:	28 00 00 00 00 00 02 03 	lw $2,0($3)
  400fc8:	43 00 00 00 04 00 04 03 	addiu $4,$3,4
  400fd0:	34 00 00 00 00 00 04 05 	sw $4,0($5)
  400fd8:	34 00 00 00 00 00 00 03 	sw $0,0($3)
  400fe0:	28 00 00 00 0c 00 03 05 	lw $3,12($5)
  400fe8:	28 00 00 00 10 00 04 05 	lw $4,16($5)
  400ff0:	43 00 00 00 ff ff 03 03 	addiu $3,$3,-1
  400ff8:	43 00 00 00 ff ff 04 04 	addiu $4,$4,-1
  401000:	34 00 00 00 0c 00 03 05 	sw $3,12($5)
  401008:	34 00 00 00 10 00 04 05 	sw $4,16($5)
  401010:	01 00 00 00 08 04 10 00 	j 401020 <ashift+0x80>
  401018:	42 00 00 00 00 02 00 00 	addu $2,$0,$0
  401020:	03 00 00 00 00 00 00 1f 	jr $31

00401028 <alen>:
  401028:	28 00 00 00 10 00 02 04 	lw $2,16($4)
  401030:	03 00 00 00 00 00 00 1f 	jr $31

00401038 <afill>:
  401038:	43 00 00 00 e8 ff 1d 1d 	addiu $29,$29,-24
  401040:	34 00 00 00 10 00 1f 1d 	sw $31,16($29)
  401048:	0a 00 00 00 02 00 00 05 	bgez $5,401058 <afill+0x20>
  401050:	43 00 00 00 ff ff 05 00 	addiu $5,$0,-1
  401058:	28 00 00 00 0c 00 02 04 	lw $2,12($4)
  401060:	5b 00 00 00 00 02 05 02 	slt $2,$2,$5
  401068:	06 00 00 00 04 00 00 02 	bne $2,$0,401080 <afill+0x48>
  401070:	34 00 00 00 10 00 05 04 	sw $5,16($4)
  401078:	01 00 00 00 24 04 10 00 	j 401090 <afill+0x58>
  401080:	42 00 00 00 00 06 00 00 	addu $6,$0,$0
  401088:	02 00 00 00 d2 00 10 00 	jal 400348 <astore>
  401090:	28 00 00 00 10 00 1f 1d 	lw $31,16($29)
  401098:	43 00 00 00 18 00 1d 1d 	addiu $29,$29,24
  4010a0:	03 00 00 00 00 00 00 1f 	jr $31
	...

004010b0 <cmd_exec>:
  4010b0:	43 00 00 00 90 ff 1d 1d 	addiu $29,$29,-112
  4010b8:	34 00 00 00 70 00 04 1d 	sw $4,112($29)
  4010c0:	34 00 00 00 74 00 05 1d 	sw $5,116($29)
  4010c8:	34 00 00 00 78 00 06 1d 	sw $6,120($29)
  4010d0:	28 00 00 00 70 00 07 1d 	lw $7,112($29)
  4010d8:	28 00 00 00 6c 9f 02 1c 	lw $2,-24724($28)
  4010e0:	34 00 00 00 64 00 1f 1d 	sw $31,100($29)
  4010e8:	34 00 00 00 60 00 12 1d 	sw $18,96($29)
  4010f0:	34 00 00 00 5c 00 11 1d 	sw $17,92($29)
  4010f8:	34 00 00 00 58 00 10 1d 	sw $16,88($29)
  401100:	37 00 00 00 68 00 14 1d 	s.d $f20,104($29)
  401108:	34 00 00 00 28 00 07 1d 	sw $7,40($29)
  401110:	28 00 00 00 00 00 02 02 	lw $2,0($2)
  401118:	28 00 00 00 90 9f 03 1c 	lw $3,-24688($28)
  401120:	34 00 00 00 50 00 02 1d 	sw $2,80($29)
  401128:	28 00 00 00 10 00 02 03 	lw $2,16($3)
  401130:	a2 00 00 00 01 10 07 00 	lui $7,4097
  401138:	43 00 00 00 c0 20 07 07 	addiu $7,$7,8384
  401140:	34 00 00 00 3c 9f 00 1c 	sw $0,-24772($28)
  401148:	34 00 00 00 30 00 07 1d 	sw $7,48($29)
  401150:	43 00 00 00 fe ff 07 00 	addiu $7,$0,-2
  401158:	34 00 00 00 48 00 07 1d 	sw $7,72($29)
  401160:	34 00 00 00 14 00 02 1d 	sw $2,20($29)
  401168:	28 00 00 00 18 94 07 1c 	lw $7,-27624($28)
  401170:	34 00 00 00 40 00 07 1d 	sw $7,64($29)
  401178:	28 00 00 00 28 00 07 1d 	lw $7,40($29)
  401180:	06 00 00 00 26 00 00 07 	bne $7,$0,401220 <cmd_exec+0x170>
  401188:	28 00 00 00 74 00 03 1d 	lw $3,116($29)
  401190:	43 00 00 00 01 00 02 00 	addiu $2,$0,1
  401198:	06 00 00 00 0a 00 02 03 	bne $3,$2,4011c8 <cmd_exec+0x118>
  4011a0:	28 00 00 00 48 00 07 1d 	lw $7,72($29)
  4011a8:	5c 00 00 00 ff ff 02 07 	slti $2,$7,-1
  4011b0:	06 00 00 00 04 00 00 02 	bne $2,$0,4011c8 <cmd_exec+0x118>
  4011b8:	28 00 00 00 48 00 02 1d 	lw $2,72($29)
  4011c0:	01 00 00 00 88 11 10 00 	j 404620 <cmd_exec+0x3570>
  4011c8:	28 00 00 00 78 00 02 1d 	lw $2,120($29)
  4011d0:	43 00 00 00 01 00 02 02 	addiu $2,$2,1
  4011d8:	34 00 00 00 78 00 02 1d 	sw $2,120($29)
  4011e0:	28 00 00 00 78 00 03 1d 	lw $3,120($29)
  4011e8:	28 00 00 00 50 00 07 1d 	lw $7,80($29)
  4011f0:	55 00 00 00 02 03 03 00 	sll $3,$3,0x2
  4011f8:	42 00 00 00 00 03 07 03 	addu $3,$3,$7
  401200:	28 00 00 00 30 00 07 1d 	lw $7,48($29)
  401208:	28 00 00 00 78 00 02 1d 	lw $2,120($29)
  401210:	34 00 00 00 00 00 07 03 	sw $7,0($3)
  401218:	01 00 00 00 88 11 10 00 	j 404620 <cmd_exec+0x3570>
  401220:	28 00 00 00 28 00 07 1d 	lw $7,40($29)
  401228:	26 00 00 00 26 00 02 07 	lhu $2,38($7)
  401230:	28 00 00 00 40 00 07 1d 	lw $7,64($29)
  401238:	55 00 00 00 10 02 02 00 	sll $2,$2,0x10
  401240:	59 00 00 00 10 02 02 00 	sra $2,$2,0x10
  401248:	34 00 00 00 38 00 02 1d 	sw $2,56($29)
  401250:	05 00 00 00 fc 01 00 07 	beq $7,$0,401a48 <cmd_exec+0x998>
  401258:	28 00 00 00 28 00 07 1d 	lw $7,40($29)
  401260:	28 00 00 00 18 00 05 07 	lw $5,24($7)
  401268:	05 00 00 00 0c 00 00 05 	beq $5,$0,4012a0 <cmd_exec+0x1f0>
  401270:	28 00 00 00 40 00 04 1d 	lw $4,64($29)
  401278:	02 00 00 00 5c 82 11 00 	jal 460970 <strcmp>
  401280:	06 00 00 00 06 00 00 02 	bne $2,$0,4012a0 <cmd_exec+0x1f0>
  401288:	34 00 00 00 40 00 00 1d 	sw $0,64($29)
  401290:	34 00 00 00 18 94 00 1c 	sw $0,-27624($28)
  401298:	01 00 00 00 92 06 10 00 	j 401a48 <cmd_exec+0x998>
  4012a0:	28 00 00 00 28 00 07 1d 	lw $7,40($29)
  4012a8:	20 00 00 00 32 00 03 07 	lb $3,50($7)
  4012b0:	43 00 00 00 02 00 02 00 	addiu $2,$0,2
  4012b8:	05 00 00 00 52 00 02 03 	beq $3,$2,401408 <cmd_exec+0x358>
  4012c0:	5c 00 00 00 03 00 02 03 	slti $2,$3,3
  4012c8:	05 00 00 00 06 00 00 02 	beq $2,$0,4012e8 <cmd_exec+0x238>
  4012d0:	43 00 00 00 01 00 02 00 	addiu $2,$0,1
  4012d8:	05 00 00 00 08 00 02 03 	beq $3,$2,401300 <cmd_exec+0x250>
  4012e0:	01 00 00 00 74 06 10 00 	j 4019d0 <cmd_exec+0x920>
  4012e8:	5c 00 00 00 05 00 02 03 	slti $2,$3,5
  4012f0:	05 00 00 00 b6 01 00 02 	beq $2,$0,4019d0 <cmd_exec+0x920>
  4012f8:	01 00 00 00 56 05 10 00 	j 401558 <cmd_exec+0x4a8>
  401300:	28 00 00 00 44 9f 02 1c 	lw $2,-24764($28)
  401308:	28 00 00 00 28 00 07 1d 	lw $7,40($29)
  401310:	34 00 00 00 10 00 02 1d 	sw $2,16($29)
  401318:	28 00 00 00 90 9f 02 1c 	lw $2,-24688($28)
  401320:	28 00 00 00 1c 00 04 07 	lw $4,28($7)
  401328:	28 00 00 00 10 00 02 02 	lw $2,16($2)
  401330:	a2 00 00 00 01 10 07 00 	lui $7,4097
  401338:	43 00 00 00 e0 28 07 07 	addiu $7,$7,10464
  401340:	34 00 00 00 30 00 07 1d 	sw $7,48($29)
  401348:	43 00 00 00 fe ff 07 00 	addiu $7,$0,-2
  401350:	34 00 00 00 48 00 07 1d 	sw $7,72($29)
  401358:	34 00 00 00 18 00 02 1d 	sw $2,24($29)
  401360:	05 00 00 00 20 00 00 04 	beq $4,$0,4013e8 <cmd_exec+0x338>
  401368:	28 00 00 00 74 00 02 1d 	lw $2,116($29)
  401370:	42 00 00 00 00 05 00 00 	addu $5,$0,$0
  401378:	05 00 00 00 06 00 00 02 	beq $2,$0,401398 <cmd_exec+0x2e8>
  401380:	28 00 00 00 38 00 07 1d 	lw $7,56($29)
  401388:	4f 00 00 00 00 40 02 07 	andi $2,$7,16384
  401390:	5d 00 00 00 00 05 02 00 	sltu $5,$0,$2
  401398:	28 00 00 00 78 00 06 1d 	lw $6,120($29)
  4013a0:	02 00 00 00 2c 04 10 00 	jal 4010b0 <cmd_exec>
  4013a8:	28 00 00 00 6c 9f 03 1c 	lw $3,-24724($28)
  4013b0:	28 00 00 00 00 00 03 03 	lw $3,0($3)
  4013b8:	34 00 00 00 48 00 02 1d 	sw $2,72($29)
  4013c0:	55 00 00 00 02 02 02 00 	sll $2,$2,0x2
  4013c8:	42 00 00 00 00 02 03 02 	addu $2,$2,$3
  4013d0:	34 00 00 00 50 00 03 1d 	sw $3,80($29)
  4013d8:	28 00 00 00 00 00 02 02 	lw $2,0($2)
  4013e0:	34 00 00 00 30 00 02 1d 	sw $2,48($29)
  4013e8:	28 00 00 00 18 94 02 1c 	lw $2,-27624($28)
  4013f0:	06 00 00 00 7c 0a 00 02 	bne $2,$0,403de8 <cmd_exec+0x2d38>
  4013f8:	34 00 00 00 40 00 00 1d 	sw $0,64($29)
  401400:	01 00 00 00 7a 0f 10 00 	j 403de8 <cmd_exec+0x2d38>
  401408:	28 00 00 00 44 9f 02 1c 	lw $2,-24764($28)
  401410:	28 00 00 00 28 00 07 1d 	lw $7,40($29)
  401418:	34 00 00 00 10 00 02 1d 	sw $2,16($29)
  401420:	28 00 00 00 90 9f 02 1c 	lw $2,-24688($28)
  401428:	28 00 00 00 1c 00 04 07 	lw $4,28($7)
  401430:	28 00 00 00 10 00 02 02 	lw $2,16($2)
  401438:	a2 00 00 00 01 10 07 00 	lui $7,4097
  401440:	43 00 00 00 c0 20 07 07 	addiu $7,$7,8384
  401448:	34 00 00 00 30 00 07 1d 	sw $7,48($29)
  401450:	43 00 00 00 fe ff 07 00 	addiu $7,$0,-2
  401458:	34 00 00 00 48 00 07 1d 	sw $7,72($29)
  401460:	34 00 00 00 18 00 02 1d 	sw $2,24($29)
  401468:	05 00 00 00 20 00 00 04 	beq $4,$0,4014f0 <cmd_exec+0x440>
  401470:	28 00 00 00 74 00 02 1d 	lw $2,116($29)
  401478:	42 00 00 00 00 05 00 00 	addu $5,$0,$0
  401480:	05 00 00 00 06 00 00 02 	beq $2,$0,4014a0 <cmd_exec+0x3f0>
  401488:	28 00 00 00 38 00 07 1d 	lw $7,56($29)
  401490:	4f 00 00 00 00 40 02 07 	andi $2,$7,16384
  401498:	5d 00 00 00 00 05 02 00 	sltu $5,$0,$2
  4014a0:	28 00 00 00 78 00 06 1d 	lw $6,120($29)
  4014a8:	02 00 00 00 2c 04 10 00 	jal 4010b0 <cmd_exec>
  4014b0:	28 00 00 00 6c 9f 03 1c 	lw $3,-24724($28)
  4014b8:	28 00 00 00 00 00 03 03 	lw $3,0($3)
  4014c0:	34 00 00 00 48 00 02 1d 	sw $2,72($29)
  4014c8:	55 00 00 00 02 02 02 00 	sll $2,$2,0x2
  4014d0:	42 00 00 00 00 02 03 02 	addu $2,$2,$3
  4014d8:	34 00 00 00 50 00 03 1d 	sw $3,80($29)
  4014e0:	28 00 00 00 00 00 02 02 	lw $2,0($2)
  4014e8:	34 00 00 00 30 00 02 1d 	sw $2,48($29)
  4014f0:	28 00 00 00 18 94 02 1c 	lw $2,-27624($28)
  4014f8:	06 00 00 00 02 00 00 02 	bne $2,$0,401508 <cmd_exec+0x458>
  401500:	34 00 00 00 40 00 00 1d 	sw $0,64($29)
  401508:	28 00 00 00 10 00 04 1d 	lw $4,16($29)
  401510:	28 00 00 00 90 9f 02 1c 	lw $2,-24688($28)
  401518:	28 00 00 00 10 00 03 02 	lw $3,16($2)
  401520:	28 00 00 00 18 00 02 1d 	lw $2,24($29)
  401528:	34 00 00 00 44 9f 04 1c 	sw $4,-24764($28)
  401530:	5b 00 00 00 00 02 03 02 	slt $2,$2,$3
  401538:	05 00 00 00 24 01 00 02 	beq $2,$0,4019d0 <cmd_exec+0x920>
  401540:	28 00 00 00 18 00 04 1d 	lw $4,24($29)
  401548:	02 00 00 00 e2 13 10 00 	jal 404f88 <restorelist>
  401550:	01 00 00 00 74 06 10 00 	j 4019d0 <cmd_exec+0x920>
  401558:	28 00 00 00 38 00 07 1d 	lw $7,56($29)
  401560:	4f 00 00 00 00 10 02 07 	andi $2,$7,4096
  401568:	06 00 00 00 36 00 00 02 	bne $2,$0,401648 <cmd_exec+0x598>
  401570:	28 00 00 00 10 94 02 1c 	lw $2,-27632($28)
  401578:	28 00 00 00 14 94 03 1c 	lw $3,-27628($28)
  401580:	51 00 00 00 00 10 07 07 	ori $7,$7,4096
  401588:	34 00 00 00 38 00 07 1d 	sw $7,56($29)
  401590:	43 00 00 00 01 00 02 02 	addiu $2,$2,1
  401598:	34 00 00 00 10 94 02 1c 	sw $2,-27632($28)
  4015a0:	5b 00 00 00 00 02 03 02 	slt $2,$2,$3
  4015a8:	06 00 00 00 10 00 00 02 	bne $2,$0,4015f0 <cmd_exec+0x540>
  4015b0:	28 00 00 00 a4 9f 04 1c 	lw $4,-24668($28)
  4015b8:	43 00 00 00 80 00 02 03 	addiu $2,$3,128
  4015c0:	55 00 00 00 03 05 02 00 	sll $5,$2,0x3
  4015c8:	45 00 00 00 00 05 02 05 	subu $5,$5,$2
  4015d0:	55 00 00 00 04 05 05 00 	sll $5,$5,0x4
  4015d8:	34 00 00 00 14 94 02 1c 	sw $2,-27628($28)
  4015e0:	02 00 00 00 16 60 11 00 	jal 458058 <saferealloc>
  4015e8:	34 00 00 00 a4 9f 02 1c 	sw $2,-24668($28)
  4015f0:	28 00 00 00 10 94 03 1c 	lw $3,-27632($28)
  4015f8:	28 00 00 00 a4 9f 05 1c 	lw $5,-24668($28)
  401600:	28 00 00 00 28 00 07 1d 	lw $7,40($29)
  401608:	28 00 00 00 78 00 04 1d 	lw $4,120($29)
  401610:	55 00 00 00 03 02 03 00 	sll $2,$3,0x3
  401618:	45 00 00 00 00 02 03 02 	subu $2,$2,$3
  401620:	28 00 00 00 18 00 03 07 	lw $3,24($7)
  401628:	55 00 00 00 04 02 02 00 	sll $2,$2,0x4
  401630:	42 00 00 00 00 02 05 02 	addu $2,$2,$5
  401638:	34 00 00 00 00 00 03 02 	sw $3,0($2)
  401640:	34 00 00 00 04 00 04 02 	sw $4,4($2)
  401648:	28 00 00 00 28 00 07 1d 	lw $7,40($29)
  401650:	34 00 00 00 70 00 07 1d 	sw $7,112($29)
  401658:	28 00 00 00 10 94 02 1c 	lw $2,-27632($28)
  401660:	28 00 00 00 a4 9f 03 1c 	lw $3,-24668($28)
  401668:	55 00 00 00 03 04 02 00 	sll $4,$2,0x3
  401670:	45 00 00 00 00 04 02 04 	subu $4,$4,$2
  401678:	55 00 00 00 04 04 04 00 	sll $4,$4,0x4
  401680:	42 00 00 00 00 04 03 04 	addu $4,$4,$3
  401688:	43 00 00 00 08 00 04 04 	addiu $4,$4,8
  401690:	02 00 00 00 74 82 11 00 	jal 4609d0 <__setjmp>
  401698:	42 00 00 00 00 11 02 00 	addu $17,$0,$2
  4016a0:	05 00 00 00 60 00 00 11 	beq $17,$0,401828 <cmd_exec+0x778>
  4016a8:	28 00 00 00 70 00 07 1d 	lw $7,112($29)
  4016b0:	28 00 00 00 6c 9f 02 1c 	lw $2,-24724($28)
  4016b8:	34 00 00 00 28 00 07 1d 	sw $7,40($29)
  4016c0:	26 00 00 00 26 00 03 07 	lhu $3,38($7)
  4016c8:	28 00 00 00 00 00 02 02 	lw $2,0($2)
  4016d0:	28 00 00 00 90 9f 04 1c 	lw $4,-24688($28)
  4016d8:	51 00 00 00 00 10 03 03 	ori $3,$3,4096
  4016e0:	34 00 00 00 50 00 02 1d 	sw $2,80($29)
  4016e8:	28 00 00 00 10 00 04 04 	lw $4,16($4)
  4016f0:	28 00 00 00 18 00 02 1d 	lw $2,24($29)
  4016f8:	55 00 00 00 10 03 03 00 	sll $3,$3,0x10
  401700:	59 00 00 00 10 03 03 00 	sra $3,$3,0x10
  401708:	5b 00 00 00 00 02 04 02 	slt $2,$2,$4
  401710:	34 00 00 00 38 00 03 1d 	sw $3,56($29)
  401718:	05 00 00 00 04 00 00 02 	beq $2,$0,401730 <cmd_exec+0x680>
  401720:	28 00 00 00 18 00 04 1d 	lw $4,24($29)
  401728:	02 00 00 00 e2 13 10 00 	jal 404f88 <restorelist>
  401730:	43 00 00 00 71 00 02 00 	addiu $2,$0,113
  401738:	05 00 00 00 1e 00 02 11 	beq $17,$2,4017b8 <cmd_exec+0x708>
  401740:	5c 00 00 00 72 00 02 11 	slti $2,$17,114
  401748:	05 00 00 00 06 00 00 02 	beq $2,$0,401768 <cmd_exec+0x6b8>
  401750:	43 00 00 00 70 00 02 00 	addiu $2,$0,112
  401758:	05 00 00 00 24 00 02 11 	beq $17,$2,4017f0 <cmd_exec+0x740>
  401760:	01 00 00 00 de 05 10 00 	j 401778 <cmd_exec+0x6c8>
  401768:	43 00 00 00 72 00 02 00 	addiu $2,$0,114
  401770:	05 00 00 00 08 00 02 11 	beq $17,$2,401798 <cmd_exec+0x6e8>
  401778:	a2 00 00 00 00 10 04 00 	lui $4,4096
  401780:	43 00 00 00 00 00 04 04 	addiu $4,$4,0
  401788:	42 00 00 00 00 05 11 00 	addu $5,$0,$17
  401790:	02 00 00 00 50 66 11 00 	jal 459940 <Myfatal>
  401798:	28 00 00 00 48 93 02 1c 	lw $2,-27832($28)
  4017a0:	34 00 00 00 40 00 00 1d 	sw $0,64($29)
  4017a8:	06 00 00 00 8e 0a 00 02 	bne $2,$0,4041e8 <cmd_exec+0x3138>
  4017b0:	01 00 00 00 82 10 10 00 	j 404208 <cmd_exec+0x3158>
  4017b8:	43 00 00 00 fe ff 07 00 	addiu $7,$0,-2
  4017c0:	34 00 00 00 48 00 07 1d 	sw $7,72($29)
  4017c8:	a2 00 00 00 01 10 07 00 	lui $7,4097
  4017d0:	43 00 00 00 c0 20 07 07 	addiu $7,$7,8384
  4017d8:	34 00 00 00 40 00 00 1d 	sw $0,64($29)
  4017e0:	34 00 00 00 30 00 07 1d 	sw $7,48($29)
  4017e8:	01 00 00 00 e2 10 10 00 	j 404388 <cmd_exec+0x32d8>
  4017f0:	43 00 00 00 fe ff 07 00 	addiu $7,$0,-2
  4017f8:	34 00 00 00 48 00 07 1d 	sw $7,72($29)
  401800:	a2 00 00 00 01 10 07 00 	lui $7,4097
  401808:	43 00 00 00 c0 20 07 07 	addiu $7,$7,8384
  401810:	34 00 00 00 40 00 00 1d 	sw $0,64($29)
  401818:	34 00 00 00 30 00 07 1d 	sw $7,48($29)
  401820:	01 00 00 00 bc 10 10 00 	j 4042f0 <cmd_exec+0x3240>
  401828:	28 00 00 00 44 9f 02 1c 	lw $2,-24764($28)
  401830:	28 00 00 00 28 00 07 1d 	lw $7,40($29)
  401838:	34 00 00 00 10 00 02 1d 	sw $2,16($29)
  401840:	28 00 00 00 90 9f 02 1c 	lw $2,-24688($28)
  401848:	28 00 00 00 1c 00 04 07 	lw $4,28($7)
  401850:	28 00 00 00 10 00 02 02 	lw $2,16($2)
  401858:	34 00 00 00 18 00 02 1d 	sw $2,24($29)
  401860:	05 00 00 00 22 00 00 04 	beq $4,$0,4018f0 <cmd_exec+0x840>
  401868:	28 00 00 00 74 00 02 1d 	lw $2,116($29)
  401870:	42 00 00 00 00 05 00 00 	addu $5,$0,$0
  401878:	05 00 00 00 06 00 00 02 	beq $2,$0,401898 <cmd_exec+0x7e8>
  401880:	28 00 00 00 38 00 07 1d 	lw $7,56($29)
  401888:	4f 00 00 00 00 40 02 07 	andi $2,$7,16384
  401890:	5d 00 00 00 00 05 02 00 	sltu $5,$0,$2
  401898:	28 00 00 00 78 00 06 1d 	lw $6,120($29)
  4018a0:	02 00 00 00 2c 04 10 00 	jal 4010b0 <cmd_exec>
  4018a8:	28 00 00 00 6c 9f 03 1c 	lw $3,-24724($28)
  4018b0:	28 00 00 00 00 00 03 03 	lw $3,0($3)
  4018b8:	34 00 00 00 50 00 03 1d 	sw $3,80($29)
  4018c0:	34 00 00 00 48 00 02 1d 	sw $2,72($29)
  4018c8:	09 00 00 00 08 00 00 02 	bltz $2,4018f0 <cmd_exec+0x840>
  4018d0:	55 00 00 00 02 02 02 00 	sll $2,$2,0x2
  4018d8:	42 00 00 00 00 02 03 02 	addu $2,$2,$3
  4018e0:	28 00 00 00 00 00 02 02 	lw $2,0($2)
  4018e8:	34 00 00 00 30 00 02 1d 	sw $2,48($29)
  4018f0:	28 00 00 00 18 94 02 1c 	lw $2,-27624($28)
  4018f8:	06 00 00 00 04 00 00 02 	bne $2,$0,401910 <cmd_exec+0x860>
  401900:	34 00 00 00 40 00 00 1d 	sw $0,64($29)
  401908:	01 00 00 00 e2 10 10 00 	j 404388 <cmd_exec+0x32d8>
  401910:	28 00 00 00 28 00 07 1d 	lw $7,40($29)
  401918:	28 00 00 00 20 00 04 07 	lw $4,32($7)
  401920:	05 00 00 00 22 00 00 04 	beq $4,$0,4019b0 <cmd_exec+0x900>
  401928:	28 00 00 00 74 00 02 1d 	lw $2,116($29)
  401930:	42 00 00 00 00 05 00 00 	addu $5,$0,$0
  401938:	05 00 00 00 06 00 00 02 	beq $2,$0,401958 <cmd_exec+0x8a8>
  401940:	28 00 00 00 38 00 07 1d 	lw $7,56($29)
  401948:	4f 00 00 00 00 40 02 07 	andi $2,$7,16384
  401950:	5d 00 00 00 00 05 02 00 	sltu $5,$0,$2
  401958:	28 00 00 00 78 00 06 1d 	lw $6,120($29)
  401960:	02 00 00 00 2c 04 10 00 	jal 4010b0 <cmd_exec>
  401968:	28 00 00 00 6c 9f 03 1c 	lw $3,-24724($28)
  401970:	28 00 00 00 00 00 03 03 	lw $3,0($3)
  401978:	34 00 00 00 50 00 03 1d 	sw $3,80($29)
  401980:	34 00 00 00 48 00 02 1d 	sw $2,72($29)
  401988:	09 00 00 00 08 00 00 02 	bltz $2,4019b0 <cmd_exec+0x900>
  401990:	55 00 00 00 02 02 02 00 	sll $2,$2,0x2
  401998:	42 00 00 00 00 02 03 02 	addu $2,$2,$3
  4019a0:	28 00 00 00 00 00 02 02 	lw $2,0($2)
  4019a8:	34 00 00 00 30 00 02 1d 	sw $2,48($29)
  4019b0:	28 00 00 00 18 94 02 1c 	lw $2,-27624($28)
  4019b8:	06 00 00 00 04 00 00 02 	bne $2,$0,4019d0 <cmd_exec+0x920>
  4019c0:	34 00 00 00 40 00 00 1d 	sw $0,64($29)
  4019c8:	01 00 00 00 08 11 10 00 	j 404420 <cmd_exec+0x3370>
  4019d0:	28 00 00 00 28 00 07 1d 	lw $7,40($29)
  4019d8:	28 00 00 00 00 00 07 07 	lw $7,0($7)
  4019e0:	34 00 00 00 28 00 07 1d 	sw $7,40($29)
  4019e8:	05 00 00 00 08 00 00 07 	beq $7,$0,401a10 <cmd_exec+0x960>
  4019f0:	28 00 00 00 08 00 02 07 	lw $2,8($7)
  4019f8:	06 00 00 00 04 00 07 02 	bne $2,$7,401a10 <cmd_exec+0x960>
  401a00:	28 00 00 00 78 00 02 1d 	lw $2,120($29)
  401a08:	01 00 00 00 88 11 10 00 	j 404620 <cmd_exec+0x3570>
  401a10:	28 00 00 00 38 00 07 1d 	lw $7,56($29)
  401a18:	4f 00 00 00 00 10 02 07 	andi $2,$7,4096
  401a20:	05 00 00 00 d4 fd 00 02 	beq $2,$0,401178 <cmd_exec+0xc8>
  401a28:	28 00 00 00 10 94 02 1c 	lw $2,-27632($28)
  401a30:	43 00 00 00 ff ff 02 02 	addiu $2,$2,-1
  401a38:	34 00 00 00 10 94 02 1c 	sw $2,-27632($28)
  401a40:	01 00 00 00 5e 04 10 00 	j 401178 <cmd_exec+0xc8>
  401a48:	28 00 00 00 28 00 07 1d 	lw $7,40($29)
  401a50:	34 00 00 00 e0 92 07 1c 	sw $7,-27936($28)
  401a58:	28 00 00 00 38 00 07 1d 	lw $7,56($29)
  401a60:	4f 00 00 00 00 02 02 07 	andi $2,$7,512
  401a68:	05 00 00 00 84 07 00 02 	beq $2,$0,403880 <cmd_exec+0x27d0>
  401a70:	4f 00 00 00 3f 00 03 07 	andi $3,$7,63
  401a78:	5e 00 00 00 10 00 02 03 	sltiu $2,$3,16
  401a80:	05 00 00 00 46 06 00 02 	beq $2,$0,4033a0 <cmd_exec+0x22f0>
  401a88:	55 00 00 00 02 02 03 00 	sll $2,$3,0x2
  401a90:	a2 00 00 00 00 10 01 00 	lui $1,4096
  401a98:	42 00 00 00 00 01 02 01 	addu $1,$1,$2
  401aa0:	28 00 00 00 b0 00 02 01 	lw $2,176($1)
  401aa8:	03 00 00 00 00 00 00 02 	jr $2
  401ab0:	28 00 00 00 28 00 07 1d 	lw $7,40($29)
  401ab8:	28 00 00 00 0c 00 07 07 	lw $7,12($7)
  401ac0:	34 00 00 00 30 00 07 1d 	sw $7,48($29)
  401ac8:	43 00 00 00 fe ff 07 00 	addiu $7,$0,-2
  401ad0:	34 00 00 00 48 00 07 1d 	sw $7,72($29)
  401ad8:	28 00 00 00 38 00 07 1d 	lw $7,56($29)
  401ae0:	42 00 00 00 00 11 00 00 	addu $17,$0,$0
  401ae8:	4f 00 00 00 80 00 02 07 	andi $2,$7,128
  401af0:	06 00 00 00 58 07 00 02 	bne $2,$0,403858 <cmd_exec+0x27a8>
  401af8:	01 00 00 00 e8 0c 10 00 	j 4033a0 <cmd_exec+0x22f0>
  401b00:	28 00 00 00 28 00 07 1d 	lw $7,40($29)
  401b08:	28 00 00 00 0c 00 07 07 	lw $7,12($7)
  401b10:	34 00 00 00 30 00 07 1d 	sw $7,48($29)
  401b18:	43 00 00 00 fe ff 07 00 	addiu $7,$0,-2
  401b20:	34 00 00 00 48 00 07 1d 	sw $7,72($29)
  401b28:	28 00 00 00 38 00 07 1d 	lw $7,56($29)
  401b30:	43 00 00 00 01 00 11 00 	addiu $17,$0,1
  401b38:	01 00 00 00 2c 07 10 00 	j 401cb0 <cmd_exec+0xc00>
  401b40:	28 00 00 00 28 00 07 1d 	lw $7,40($29)
  401b48:	28 00 00 00 10 00 02 07 	lw $2,16($7)
  401b50:	28 00 00 00 00 00 03 02 	lw $3,0($2)
  401b58:	34 00 00 00 70 9f 02 1c 	sw $2,-24720($28)
  401b60:	22 00 00 00 26 00 02 03 	lbu $2,38($3)
  401b68:	4f 00 00 00 01 00 02 02 	andi $2,$2,1
  401b70:	05 00 00 00 0a 00 00 02 	beq $2,$0,401ba0 <cmd_exec+0xaf0>
  401b78:	28 00 00 00 04 00 02 03 	lw $2,4($3)
  401b80:	28 00 00 00 14 00 04 02 	lw $4,20($2)
  401b88:	02 00 00 00 e0 e2 10 00 	jal 438b80 <stab_str>
  401b90:	34 00 00 00 30 00 02 1d 	sw $2,48($29)
  401b98:	01 00 00 00 ec 06 10 00 	j 401bb0 <cmd_exec+0xb00>
  401ba0:	28 00 00 00 04 00 03 03 	lw $3,4($3)
  401ba8:	34 00 00 00 30 00 03 1d 	sw $3,48($29)
  401bb0:	28 00 00 00 30 00 07 1d 	lw $7,48($29)
  401bb8:	34 00 00 00 60 9f 07 1c 	sw $7,-24736($28)
  401bc0:	22 00 00 00 18 00 02 07 	lbu $2,24($7)
  401bc8:	43 00 00 00 fe ff 07 00 	addiu $7,$0,-2
  401bd0:	34 00 00 00 48 00 07 1d 	sw $7,72($29)
  401bd8:	05 00 00 00 1c 00 00 02 	beq $2,$0,401c50 <cmd_exec+0xba0>
  401be0:	28 00 00 00 30 00 07 1d 	lw $7,48($29)
  401be8:	28 00 00 00 00 00 02 07 	lw $2,0($7)
  401bf0:	20 00 00 00 00 00 04 02 	lb $4,0($2)
  401bf8:	42 00 00 00 00 11 00 00 	addu $17,$0,$0
  401c00:	5c 00 00 00 31 00 02 04 	slti $2,$4,49
  401c08:	05 00 00 00 0c 00 00 02 	beq $2,$0,401c40 <cmd_exec+0xb90>
  401c10:	28 00 00 00 10 00 03 07 	lw $3,16($7)
  401c18:	5e 00 00 00 02 00 02 03 	sltiu $2,$3,2
  401c20:	05 00 00 00 06 00 00 02 	beq $2,$0,401c40 <cmd_exec+0xb90>
  401c28:	05 00 00 00 1c 00 00 03 	beq $3,$0,401ca0 <cmd_exec+0xbf0>
  401c30:	43 00 00 00 30 00 02 00 	addiu $2,$0,48
  401c38:	05 00 00 00 18 00 02 04 	beq $4,$2,401ca0 <cmd_exec+0xbf0>
  401c40:	43 00 00 00 01 00 11 00 	addiu $17,$0,1
  401c48:	01 00 00 00 28 07 10 00 	j 401ca0 <cmd_exec+0xbf0>
  401c50:	28 00 00 00 30 00 07 1d 	lw $7,48($29)
  401c58:	22 00 00 00 19 00 02 07 	lbu $2,25($7)
  401c60:	05 00 00 00 0c 00 00 02 	beq $2,$0,401c98 <cmd_exec+0xbe8>
  401c68:	a5 00 00 00 00 00 00 02 	mtc1 $0,$f2
  401c70:	a5 00 00 00 00 00 00 03 	mtc1 $0,$f3
  401c78:	2b 00 00 00 08 00 00 07 	l.d $f0,8($7)
  401c80:	91 00 00 00 00 00 02 00 	c.eq.d $f0,$f2
  401c88:	43 00 00 00 01 00 11 00 	addiu $17,$0,1
  401c90:	0b 00 00 00 02 00 00 00 	bc1f 401ca0 <cmd_exec+0xbf0>
  401c98:	42 00 00 00 00 11 00 00 	addu $17,$0,$0
  401ca0:	05 00 00 00 08 00 00 11 	beq $17,$0,401cc8 <cmd_exec+0xc18>
  401ca8:	28 00 00 00 38 00 07 1d 	lw $7,56($29)
  401cb0:	4f 00 00 00 00 01 02 07 	andi $2,$7,256
  401cb8:	06 00 00 00 6e 06 00 02 	bne $2,$0,403678 <cmd_exec+0x25c8>
  401cc0:	01 00 00 00 e8 0c 10 00 	j 4033a0 <cmd_exec+0x22f0>
  401cc8:	28 00 00 00 38 00 07 1d 	lw $7,56($29)
  401cd0:	4f 00 00 00 80 00 02 07 	andi $2,$7,128
  401cd8:	06 00 00 00 66 06 00 02 	bne $2,$0,403678 <cmd_exec+0x25c8>
  401ce0:	01 00 00 00 e8 0c 10 00 	j 4033a0 <cmd_exec+0x22f0>
  401ce8:	28 00 00 00 e4 93 02 1c 	lw $2,-27676($28)
  401cf0:	05 00 00 00 12 00 00 02 	beq $2,$0,401d40 <cmd_exec+0xc90>
  401cf8:	28 00 00 00 28 00 07 1d 	lw $7,40($29)
  401d00:	28 00 00 00 0c 00 02 07 	lw $2,12($7)
  401d08:	28 00 00 00 00 00 02 02 	lw $2,0($2)
  401d10:	20 00 00 00 00 00 02 02 	lb $2,0($2)
  401d18:	05 00 00 00 a0 05 00 02 	beq $2,$0,4033a0 <cmd_exec+0x22f0>
  401d20:	28 00 00 00 38 00 07 1d 	lw $7,56($29)
  401d28:	4f 00 00 00 00 01 02 07 	andi $2,$7,256
  401d30:	05 00 00 00 f2 00 00 02 	beq $2,$0,402100 <cmd_exec+0x1050>
  401d38:	01 00 00 00 e8 0c 10 00 	j 4033a0 <cmd_exec+0x22f0>
  401d40:	42 00 00 00 00 11 00 00 	addu $17,$0,$0
  401d48:	01 00 00 00 56 07 10 00 	j 401d58 <cmd_exec+0xca8>
  401d50:	43 00 00 00 01 00 11 00 	addiu $17,$0,1
  401d58:	28 00 00 00 28 00 07 1d 	lw $7,40($29)
  401d60:	28 00 00 00 10 00 02 07 	lw $2,16($7)
  401d68:	28 00 00 00 00 00 03 02 	lw $3,0($2)
  401d70:	34 00 00 00 70 9f 02 1c 	sw $2,-24720($28)
  401d78:	22 00 00 00 26 00 02 03 	lbu $2,38($3)
  401d80:	4f 00 00 00 01 00 02 02 	andi $2,$2,1
  401d88:	05 00 00 00 0a 00 00 02 	beq $2,$0,401db8 <cmd_exec+0xd08>
  401d90:	28 00 00 00 04 00 02 03 	lw $2,4($3)
  401d98:	28 00 00 00 14 00 04 02 	lw $4,20($2)
  401da0:	02 00 00 00 e0 e2 10 00 	jal 438b80 <stab_str>
  401da8:	34 00 00 00 30 00 02 1d 	sw $2,48($29)
  401db0:	01 00 00 00 72 07 10 00 	j 401dc8 <cmd_exec+0xd18>
  401db8:	28 00 00 00 04 00 03 03 	lw $3,4($3)
  401dc0:	34 00 00 00 30 00 03 1d 	sw $3,48($29)
  401dc8:	28 00 00 00 28 00 07 1d 	lw $7,40($29)
  401dd0:	28 00 00 00 0c 00 02 07 	lw $2,12($7)
  401dd8:	28 00 00 00 30 00 07 1d 	lw $7,48($29)
  401de0:	28 00 00 00 00 00 10 02 	lw $16,0($2)
  401de8:	34 00 00 00 60 9f 07 1c 	sw $7,-24736($28)
  401df0:	22 00 00 00 18 00 02 07 	lbu $2,24($7)
  401df8:	43 00 00 00 fe ff 07 00 	addiu $7,$0,-2
  401e00:	34 00 00 00 48 00 07 1d 	sw $7,72($29)
  401e08:	05 00 00 00 06 00 00 02 	beq $2,$0,401e28 <cmd_exec+0xd78>
  401e10:	28 00 00 00 30 00 07 1d 	lw $7,48($29)
  401e18:	28 00 00 00 00 00 02 07 	lw $2,0($7)
  401e20:	01 00 00 00 8e 07 10 00 	j 401e38 <cmd_exec+0xd88>
  401e28:	28 00 00 00 30 00 04 1d 	lw $4,48($29)
  401e30:	02 00 00 00 ee f2 10 00 	jal 43cbb8 <str_2ptr>
  401e38:	20 00 00 00 00 00 03 10 	lb $3,0($16)
  401e40:	20 00 00 00 00 00 02 02 	lb $2,0($2)
  401e48:	06 00 00 00 9a 00 02 03 	bne $3,$2,4020b8 <cmd_exec+0x1008>
  401e50:	05 00 00 00 0e 00 00 11 	beq $17,$0,401e90 <cmd_exec+0xde0>
  401e58:	28 00 00 00 28 00 07 1d 	lw $7,40($29)
  401e60:	24 00 00 00 24 00 02 07 	lh $2,36($7)
  401e68:	28 00 00 00 30 00 07 1d 	lw $7,48($29)
  401e70:	28 00 00 00 10 00 03 07 	lw $3,16($7)
  401e78:	43 00 00 00 ff ff 02 02 	addiu $2,$2,-1
  401e80:	05 00 00 00 0e 00 02 03 	beq $3,$2,401ec0 <cmd_exec+0xe10>
  401e88:	01 00 00 00 2e 08 10 00 	j 4020b8 <cmd_exec+0x1008>
  401e90:	28 00 00 00 28 00 07 1d 	lw $7,40($29)
  401e98:	24 00 00 00 24 00 03 07 	lh $3,36($7)
  401ea0:	28 00 00 00 30 00 07 1d 	lw $7,48($29)
  401ea8:	28 00 00 00 10 00 02 07 	lw $2,16($7)
  401eb0:	5d 00 00 00 00 02 03 02 	sltu $2,$2,$3
  401eb8:	06 00 00 00 7e 00 00 02 	bne $2,$0,4020b8 <cmd_exec+0x1008>
  401ec0:	28 00 00 00 30 00 07 1d 	lw $7,48($29)
  401ec8:	34 00 00 00 60 9f 07 1c 	sw $7,-24736($28)
  401ed0:	22 00 00 00 18 00 02 07 	lbu $2,24($7)
  401ed8:	05 00 00 00 04 00 00 02 	beq $2,$0,401ef0 <cmd_exec+0xe40>
  401ee0:	28 00 00 00 00 00 05 07 	lw $5,0($7)
  401ee8:	01 00 00 00 c2 07 10 00 	j 401f08 <cmd_exec+0xe58>
  401ef0:	28 00 00 00 30 00 04 1d 	lw $4,48($29)
  401ef8:	02 00 00 00 ee f2 10 00 	jal 43cbb8 <str_2ptr>
  401f00:	42 00 00 00 00 05 02 00 	addu $5,$0,$2
  401f08:	28 00 00 00 28 00 07 1d 	lw $7,40($29)
  401f10:	28 00 00 00 0c 00 02 07 	lw $2,12($7)
  401f18:	24 00 00 00 24 00 06 07 	lh $6,36($7)
  401f20:	28 00 00 00 00 00 04 02 	lw $4,0($2)
  401f28:	02 00 00 00 7c 82 11 00 	jal 4609f0 <memcmp>
  401f30:	06 00 00 00 60 00 00 02 	bne $2,$0,4020b8 <cmd_exec+0x1008>
  401f38:	28 00 00 00 38 00 07 1d 	lw $7,56($29)
  401f40:	4f 00 00 00 00 01 02 07 	andi $2,$7,256
  401f48:	05 00 00 00 14 05 00 02 	beq $2,$0,4033a0 <cmd_exec+0x22f0>
  401f50:	20 00 00 00 bc 93 02 1c 	lb $2,-27716($28)
  401f58:	05 00 00 00 3c 00 00 02 	beq $2,$0,402050 <cmd_exec+0xfa0>
  401f60:	4f 00 00 00 3f 00 03 07 	andi $3,$7,63
  401f68:	43 00 00 00 04 00 02 00 	addiu $2,$0,4
  401f70:	05 00 00 00 36 00 02 03 	beq $3,$2,402050 <cmd_exec+0xfa0>
  401f78:	28 00 00 00 2c 93 02 1c 	lw $2,-27860($28)
  401f80:	34 00 00 00 44 9f 00 1c 	sw $0,-24764($28)
  401f88:	05 00 00 00 0a 00 00 02 	beq $2,$0,401fb8 <cmd_exec+0xf08>
  401f90:	28 00 00 00 00 00 02 02 	lw $2,0($2)
  401f98:	28 00 00 00 04 00 04 02 	lw $4,4($2)
  401fa0:	43 00 00 00 00 80 05 1c 	addiu $5,$28,-32768
  401fa8:	42 00 00 00 00 06 00 00 	addu $6,$0,$0
  401fb0:	02 00 00 00 a0 f5 10 00 	jal 43d680 <str_nset>
  401fb8:	28 00 00 00 30 93 02 1c 	lw $2,-27856($28)
  401fc0:	05 00 00 00 0a 00 00 02 	beq $2,$0,401ff0 <cmd_exec+0xf40>
  401fc8:	28 00 00 00 28 00 07 1d 	lw $7,40($29)
  401fd0:	28 00 00 00 00 00 02 02 	lw $2,0($2)
  401fd8:	28 00 00 00 0c 00 05 07 	lw $5,12($7)
  401fe0:	28 00 00 00 04 00 04 02 	lw $4,4($2)
  401fe8:	02 00 00 00 66 f4 10 00 	jal 43d198 <str_sset>
  401ff0:	28 00 00 00 34 93 03 1c 	lw $3,-27852($28)
  401ff8:	05 00 00 00 14 00 00 03 	beq $3,$0,402050 <cmd_exec+0xfa0>
  402000:	28 00 00 00 28 00 07 1d 	lw $7,40($29)
  402008:	24 00 00 00 24 00 02 07 	lh $2,36($7)
  402010:	28 00 00 00 30 00 07 1d 	lw $7,48($29)
  402018:	28 00 00 00 00 00 03 03 	lw $3,0($3)
  402020:	28 00 00 00 00 00 05 07 	lw $5,0($7)
  402028:	28 00 00 00 10 00 06 07 	lw $6,16($7)
  402030:	28 00 00 00 04 00 04 03 	lw $4,4($3)
  402038:	42 00 00 00 00 05 05 02 	addu $5,$2,$5
  402040:	45 00 00 00 00 06 02 06 	subu $6,$6,$2
  402048:	02 00 00 00 a0 f5 10 00 	jal 43d680 <str_nset>
  402050:	28 00 00 00 28 00 07 1d 	lw $7,40($29)
  402058:	28 00 00 00 14 00 02 07 	lw $2,20($7)
  402060:	05 00 00 00 02 00 00 02 	beq $2,$0,402070 <cmd_exec+0xfc0>
  402068:	34 00 00 00 38 9f 02 1c 	sw $2,-24776($28)
  402070:	28 00 00 00 38 00 07 1d 	lw $7,56($29)
  402078:	57 00 00 00 06 11 07 00 	srl $17,$7,0x6
  402080:	53 00 00 00 01 00 11 11 	xori $17,$17,1
  402088:	4f 00 00 00 01 00 11 11 	andi $17,$17,1
  402090:	a2 00 00 00 01 10 07 00 	lui $7,4097
  402098:	43 00 00 00 80 20 07 07 	addiu $7,$7,8320
  4020a0:	34 00 00 00 30 00 07 1d 	sw $7,48($29)
  4020a8:	05 00 00 00 d8 05 00 11 	beq $17,$0,403810 <cmd_exec+0x2760>
  4020b0:	01 00 00 00 5e 0a 10 00 	j 402978 <cmd_exec+0x18c8>
  4020b8:	28 00 00 00 38 00 07 1d 	lw $7,56($29)
  4020c0:	4f 00 00 00 80 00 02 07 	andi $2,$7,128
  4020c8:	05 00 00 00 b4 04 00 02 	beq $2,$0,4033a0 <cmd_exec+0x22f0>
  4020d0:	4f 00 00 00 40 00 11 07 	andi $17,$7,64
  4020d8:	a2 00 00 00 01 10 07 00 	lui $7,4097
  4020e0:	43 00 00 00 80 20 07 07 	addiu $7,$7,8320
  4020e8:	34 00 00 00 30 00 07 1d 	sw $7,48($29)
  4020f0:	05 00 00 00 c6 05 00 11 	beq $17,$0,403810 <cmd_exec+0x2760>
  4020f8:	01 00 00 00 5e 0a 10 00 	j 402978 <cmd_exec+0x18c8>
  402100:	28 00 00 00 28 00 07 1d 	lw $7,40($29)
  402108:	28 00 00 00 10 00 02 07 	lw $2,16($7)
  402110:	28 00 00 00 00 00 03 02 	lw $3,0($2)
  402118:	34 00 00 00 70 9f 02 1c 	sw $2,-24720($28)
  402120:	22 00 00 00 26 00 02 03 	lbu $2,38($3)
  402128:	4f 00 00 00 01 00 02 02 	andi $2,$2,1
  402130:	05 00 00 00 0a 00 00 02 	beq $2,$0,402160 <cmd_exec+0x10b0>
  402138:	28 00 00 00 04 00 02 03 	lw $2,4($3)
  402140:	28 00 00 00 14 00 04 02 	lw $4,20($2)
  402148:	02 00 00 00 e0 e2 10 00 	jal 438b80 <stab_str>
  402150:	34 00 00 00 30 00 02 1d 	sw $2,48($29)
  402158:	01 00 00 00 5c 08 10 00 	j 402170 <cmd_exec+0x10c0>
  402160:	28 00 00 00 04 00 03 03 	lw $3,4($3)
  402168:	34 00 00 00 30 00 03 1d 	sw $3,48($29)
  402170:	28 00 00 00 30 00 07 1d 	lw $7,48($29)
  402178:	22 00 00 00 18 00 02 07 	lbu $2,24($7)
  402180:	43 00 00 00 fe ff 07 00 	addiu $7,$0,-2
  402188:	4f 00 00 00 04 00 02 02 	andi $2,$2,4
  402190:	34 00 00 00 48 00 07 1d 	sw $7,72($29)
  402198:	05 00 00 00 1a 00 00 02 	beq $2,$0,402208 <cmd_exec+0x1158>
  4021a0:	28 00 00 00 28 00 07 1d 	lw $7,40($29)
  4021a8:	28 00 00 00 0c 00 05 07 	lw $5,12($7)
  4021b0:	22 00 00 00 1a 00 02 05 	lbu $2,26($5)
  4021b8:	28 00 00 00 c8 8b 03 1c 	lw $3,-29752($28)
  4021c0:	55 00 00 00 02 02 02 00 	sll $2,$2,0x2
  4021c8:	42 00 00 00 00 02 03 02 	addu $2,$2,$3
  4021d0:	28 00 00 00 00 00 02 02 	lw $2,0($2)
  4021d8:	09 00 00 00 06 00 00 02 	bltz $2,4021f8 <cmd_exec+0x1148>
  4021e0:	28 00 00 00 30 00 04 1d 	lw $4,48($29)
  4021e8:	02 00 00 00 ac 63 11 00 	jal 458eb0 <screaminstr>
  4021f0:	01 00 00 00 a2 08 10 00 	j 402288 <cmd_exec+0x11d8>
  4021f8:	42 00 00 00 00 10 00 00 	addu $16,$0,$0
  402200:	01 00 00 00 a4 08 10 00 	j 402290 <cmd_exec+0x11e0>
  402208:	28 00 00 00 30 00 07 1d 	lw $7,48($29)
  402210:	34 00 00 00 60 9f 07 1c 	sw $7,-24736($28)
  402218:	22 00 00 00 18 00 02 07 	lbu $2,24($7)
  402220:	05 00 00 00 04 00 00 02 	beq $2,$0,402238 <cmd_exec+0x1188>
  402228:	28 00 00 00 00 00 10 07 	lw $16,0($7)
  402230:	01 00 00 00 94 08 10 00 	j 402250 <cmd_exec+0x11a0>
  402238:	28 00 00 00 30 00 04 1d 	lw $4,48($29)
  402240:	02 00 00 00 ee f2 10 00 	jal 43cbb8 <str_2ptr>
  402248:	42 00 00 00 00 10 02 00 	addu $16,$0,$2
  402250:	28 00 00 00 30 00 07 1d 	lw $7,48($29)
  402258:	28 00 00 00 10 00 05 07 	lw $5,16($7)
  402260:	28 00 00 00 28 00 07 1d 	lw $7,40($29)
  402268:	28 00 00 00 0c 00 06 07 	lw $6,12($7)
  402270:	42 00 00 00 00 04 10 00 	addu $4,$0,$16
  402278:	42 00 00 00 00 05 05 04 	addu $5,$4,$5
  402280:	02 00 00 00 4a 62 11 00 	jal 458928 <fbminstr>
  402288:	42 00 00 00 00 10 02 00 	addu $16,$0,$2
  402290:	05 00 00 00 72 00 00 10 	beq $16,$0,402460 <cmd_exec+0x13b0>
  402298:	28 00 00 00 38 00 07 1d 	lw $7,56($29)
  4022a0:	4f 00 00 00 00 01 02 07 	andi $2,$7,256
  4022a8:	05 00 00 00 68 00 00 02 	beq $2,$0,402450 <cmd_exec+0x13a0>
  4022b0:	28 00 00 00 28 00 07 1d 	lw $7,40($29)
  4022b8:	28 00 00 00 0c 00 02 07 	lw $2,12($7)
  4022c0:	28 00 00 00 08 00 03 02 	lw $3,8($2)
  4022c8:	20 00 00 00 bc 93 04 1c 	lb $4,-27716($28)
  4022d0:	43 00 00 00 01 00 03 03 	addiu $3,$3,1
  4022d8:	34 00 00 00 08 00 03 02 	sw $3,8($2)
  4022e0:	05 00 00 00 42 00 00 04 	beq $4,$0,4023f0 <cmd_exec+0x1340>
  4022e8:	28 00 00 00 2c 93 02 1c 	lw $2,-27860($28)
  4022f0:	34 00 00 00 44 9f 00 1c 	sw $0,-24764($28)
  4022f8:	05 00 00 00 0c 00 00 02 	beq $2,$0,402330 <cmd_exec+0x1280>
  402300:	28 00 00 00 30 00 07 1d 	lw $7,48($29)
  402308:	28 00 00 00 00 00 02 02 	lw $2,0($2)
  402310:	28 00 00 00 00 00 05 07 	lw $5,0($7)
  402318:	28 00 00 00 04 00 04 02 	lw $4,4($2)
  402320:	45 00 00 00 00 06 05 10 	subu $6,$16,$5
  402328:	02 00 00 00 a0 f5 10 00 	jal 43d680 <str_nset>
  402330:	28 00 00 00 30 93 02 1c 	lw $2,-27856($28)
  402338:	05 00 00 00 0e 00 00 02 	beq $2,$0,402378 <cmd_exec+0x12c8>
  402340:	28 00 00 00 28 00 07 1d 	lw $7,40($29)
  402348:	28 00 00 00 00 00 02 02 	lw $2,0($2)
  402350:	28 00 00 00 0c 00 03 07 	lw $3,12($7)
  402358:	28 00 00 00 04 00 04 02 	lw $4,4($2)
  402360:	28 00 00 00 10 00 06 03 	lw $6,16($3)
  402368:	42 00 00 00 00 05 10 00 	addu $5,$0,$16
  402370:	02 00 00 00 a0 f5 10 00 	jal 43d680 <str_nset>
  402378:	28 00 00 00 34 93 02 1c 	lw $2,-27852($28)
  402380:	05 00 00 00 1a 00 00 02 	beq $2,$0,4023f0 <cmd_exec+0x1340>
  402388:	28 00 00 00 28 00 07 1d 	lw $7,40($29)
  402390:	28 00 00 00 00 00 02 02 	lw $2,0($2)
  402398:	28 00 00 00 0c 00 03 07 	lw $3,12($7)
  4023a0:	28 00 00 00 04 00 04 02 	lw $4,4($2)
  4023a8:	28 00 00 00 30 00 07 1d 	lw $7,48($29)
  4023b0:	28 00 00 00 10 00 03 03 	lw $3,16($3)
  4023b8:	28 00 00 00 00 00 02 07 	lw $2,0($7)
  4023c0:	28 00 00 00 10 00 06 07 	lw $6,16($7)
  4023c8:	42 00 00 00 00 05 03 10 	addu $5,$16,$3
  4023d0:	45 00 00 00 00 02 02 10 	subu $2,$16,$2
  4023d8:	45 00 00 00 00 06 02 06 	subu $6,$6,$2
  4023e0:	45 00 00 00 00 06 03 06 	subu $6,$6,$3
  4023e8:	02 00 00 00 a0 f5 10 00 	jal 43d680 <str_nset>
  4023f0:	28 00 00 00 38 00 07 1d 	lw $7,56($29)
  4023f8:	57 00 00 00 06 11 07 00 	srl $17,$7,0x6
  402400:	28 00 00 00 28 00 07 1d 	lw $7,40($29)
  402408:	28 00 00 00 14 00 02 07 	lw $2,20($7)
  402410:	53 00 00 00 01 00 11 11 	xori $17,$17,1
  402418:	4f 00 00 00 01 00 11 11 	andi $17,$17,1
  402420:	a2 00 00 00 01 10 07 00 	lui $7,4097
  402428:	43 00 00 00 80 20 07 07 	addiu $7,$7,8320
  402430:	34 00 00 00 30 00 07 1d 	sw $7,48($29)
  402438:	34 00 00 00 38 9f 02 1c 	sw $2,-24776($28)
  402440:	05 00 00 00 f2 04 00 11 	beq $17,$0,403810 <cmd_exec+0x2760>
  402448:	01 00 00 00 5e 0a 10 00 	j 402978 <cmd_exec+0x18c8>
  402450:	34 00 00 00 dc 8b 10 1c 	sw $16,-29732($28)
  402458:	01 00 00 00 36 09 10 00 	j 4024d8 <cmd_exec+0x1428>
  402460:	28 00 00 00 38 00 07 1d 	lw $7,56($29)
  402468:	4f 00 00 00 80 00 02 07 	andi $2,$7,128
  402470:	05 00 00 00 18 00 00 02 	beq $2,$0,4024d8 <cmd_exec+0x1428>
  402478:	28 00 00 00 28 00 07 1d 	lw $7,40($29)
  402480:	28 00 00 00 0c 00 03 07 	lw $3,12($7)
  402488:	28 00 00 00 38 00 07 1d 	lw $7,56($29)
  402490:	28 00 00 00 08 00 02 03 	lw $2,8($3)
  402498:	4f 00 00 00 40 00 11 07 	andi $17,$7,64
  4024a0:	a2 00 00 00 01 10 07 00 	lui $7,4097
  4024a8:	43 00 00 00 80 20 07 07 	addiu $7,$7,8320
  4024b0:	43 00 00 00 01 00 02 02 	addiu $2,$2,1
  4024b8:	34 00 00 00 30 00 07 1d 	sw $7,48($29)
  4024c0:	34 00 00 00 08 00 02 03 	sw $2,8($3)
  4024c8:	05 00 00 00 d0 04 00 11 	beq $17,$0,403810 <cmd_exec+0x2760>
  4024d0:	01 00 00 00 5e 0a 10 00 	j 402978 <cmd_exec+0x18c8>
  4024d8:	28 00 00 00 28 00 07 1d 	lw $7,40($29)
  4024e0:	28 00 00 00 0c 00 03 07 	lw $3,12($7)
  4024e8:	28 00 00 00 08 00 02 03 	lw $2,8($3)
  4024f0:	43 00 00 00 ff ff 02 02 	addiu $2,$2,-1
  4024f8:	34 00 00 00 08 00 02 03 	sw $2,8($3)
  402500:	0a 00 00 00 a6 03 00 02 	bgez $2,4033a0 <cmd_exec+0x22f0>
  402508:	28 00 00 00 38 00 07 1d 	lw $7,56($29)
  402510:	43 00 00 00 c0 ff 02 00 	addiu $2,$0,-64
  402518:	4e 00 00 00 00 07 02 07 	and $7,$7,$2
  402520:	51 00 00 00 07 00 07 07 	ori $7,$7,7
  402528:	43 00 00 00 ff ef 02 00 	addiu $2,$0,-4097
  402530:	4e 00 00 00 00 02 02 07 	and $2,$7,$2
  402538:	34 00 00 00 38 00 07 1d 	sw $7,56($29)
  402540:	28 00 00 00 28 00 07 1d 	lw $7,40($29)
  402548:	32 00 00 00 26 00 02 07 	sh $2,38($7)
  402550:	01 00 00 00 e8 0c 10 00 	j 4033a0 <cmd_exec+0x22f0>
  402558:	28 00 00 00 28 00 07 1d 	lw $7,40($29)
  402560:	28 00 00 00 10 00 02 07 	lw $2,16($7)
  402568:	28 00 00 00 00 00 03 02 	lw $3,0($2)
  402570:	34 00 00 00 70 9f 02 1c 	sw $2,-24720($28)
  402578:	22 00 00 00 26 00 02 03 	lbu $2,38($3)
  402580:	4f 00 00 00 01 00 02 02 	andi $2,$2,1
  402588:	05 00 00 00 0a 00 00 02 	beq $2,$0,4025b8 <cmd_exec+0x1508>
  402590:	28 00 00 00 04 00 02 03 	lw $2,4($3)
  402598:	28 00 00 00 14 00 04 02 	lw $4,20($2)
  4025a0:	02 00 00 00 e0 e2 10 00 	jal 438b80 <stab_str>
  4025a8:	34 00 00 00 30 00 02 1d 	sw $2,48($29)
  4025b0:	01 00 00 00 72 09 10 00 	j 4025c8 <cmd_exec+0x1518>
  4025b8:	28 00 00 00 04 00 03 03 	lw $3,4($3)
  4025c0:	34 00 00 00 30 00 03 1d 	sw $3,48($29)
  4025c8:	28 00 00 00 28 00 07 1d 	lw $7,40($29)
  4025d0:	26 00 00 00 24 00 02 07 	lhu $2,36($7)
  4025d8:	43 00 00 00 fe ff 07 00 	addiu $7,$0,-2
  4025e0:	43 00 00 00 e4 ff 02 02 	addiu $2,$2,-28
  4025e8:	55 00 00 00 10 02 02 00 	sll $2,$2,0x10
  4025f0:	59 00 00 00 10 03 02 00 	sra $3,$2,0x10
  4025f8:	5e 00 00 00 06 00 02 03 	sltiu $2,$3,6
  402600:	34 00 00 00 48 00 07 1d 	sw $7,72($29)
  402608:	05 00 00 00 d2 00 00 02 	beq $2,$0,402958 <cmd_exec+0x18a8>
  402610:	55 00 00 00 02 02 03 00 	sll $2,$3,0x2
  402618:	a2 00 00 00 00 10 01 00 	lui $1,4096
  402620:	42 00 00 00 00 01 02 01 	addu $1,$1,$2
  402628:	28 00 00 00 f0 00 02 01 	lw $2,240($1)
  402630:	03 00 00 00 00 00 00 02 	jr $2
  402638:	20 00 00 00 b0 93 02 1c 	lb $2,-27728($28)
  402640:	05 00 00 00 12 00 00 02 	beq $2,$0,402690 <cmd_exec+0x15e0>
  402648:	28 00 00 00 30 00 07 1d 	lw $7,48($29)
  402650:	22 00 00 00 19 00 02 07 	lbu $2,25($7)
  402658:	06 00 00 00 0c 00 00 02 	bne $2,$0,402690 <cmd_exec+0x15e0>
  402660:	28 00 00 00 30 00 04 1d 	lw $4,48($29)
  402668:	02 00 00 00 6a 63 10 00 	jal 418da8 <looks_like_number>
  402670:	06 00 00 00 06 00 00 02 	bne $2,$0,402690 <cmd_exec+0x15e0>
  402678:	a2 00 00 00 00 10 04 00 	lui $4,4096
  402680:	43 00 00 00 20 00 04 04 	addiu $4,$4,32
  402688:	02 00 00 00 e2 66 11 00 	jal 459b88 <warn>
  402690:	28 00 00 00 28 00 07 1d 	lw $7,40($29)
  402698:	28 00 00 00 0c 00 03 07 	lw $3,12($7)
  4026a0:	28 00 00 00 30 00 07 1d 	lw $7,48($29)
  4026a8:	2b 00 00 00 08 00 14 03 	l.d $f20,8($3)
  4026b0:	34 00 00 00 60 9f 07 1c 	sw $7,-24736($28)
  4026b8:	22 00 00 00 19 00 02 07 	lbu $2,25($7)
  4026c0:	05 00 00 00 06 00 00 02 	beq $2,$0,4026e0 <cmd_exec+0x1630>
  4026c8:	2b 00 00 00 08 00 00 07 	l.d $f0,8($7)
  4026d0:	91 00 00 00 00 00 14 00 	c.eq.d $f0,$f20
  4026d8:	01 00 00 00 50 0a 10 00 	j 402940 <cmd_exec+0x1890>
  4026e0:	28 00 00 00 30 00 04 1d 	lw $4,48($29)
  4026e8:	02 00 00 00 fe f3 10 00 	jal 43cff8 <str_2num>
  4026f0:	91 00 00 00 00 00 14 00 	c.eq.d $f0,$f20
  4026f8:	01 00 00 00 50 0a 10 00 	j 402940 <cmd_exec+0x1890>
  402700:	28 00 00 00 28 00 07 1d 	lw $7,40($29)
  402708:	28 00 00 00 0c 00 03 07 	lw $3,12($7)
  402710:	28 00 00 00 30 00 07 1d 	lw $7,48($29)
  402718:	2b 00 00 00 08 00 14 03 	l.d $f20,8($3)
  402720:	34 00 00 00 60 9f 07 1c 	sw $7,-24736($28)
  402728:	22 00 00 00 19 00 02 07 	lbu $2,25($7)
  402730:	05 00 00 00 0a 00 00 02 	beq $2,$0,402760 <cmd_exec+0x16b0>
  402738:	2b 00 00 00 08 00 00 07 	l.d $f0,8($7)
  402740:	91 00 00 00 00 00 14 00 	c.eq.d $f0,$f20
  402748:	43 00 00 00 01 00 11 00 	addiu $17,$0,1
  402750:	0b 00 00 00 80 00 00 00 	bc1f 402958 <cmd_exec+0x18a8>
  402758:	01 00 00 00 54 0a 10 00 	j 402950 <cmd_exec+0x18a0>
  402760:	28 00 00 00 30 00 04 1d 	lw $4,48($29)
  402768:	02 00 00 00 fe f3 10 00 	jal 43cff8 <str_2num>
  402770:	91 00 00 00 00 00 14 00 	c.eq.d $f0,$f20
  402778:	43 00 00 00 01 00 11 00 	addiu $17,$0,1
  402780:	0b 00 00 00 74 00 00 00 	bc1f 402958 <cmd_exec+0x18a8>
  402788:	01 00 00 00 54 0a 10 00 	j 402950 <cmd_exec+0x18a0>
  402790:	28 00 00 00 28 00 07 1d 	lw $7,40($29)
  402798:	28 00 00 00 0c 00 03 07 	lw $3,12($7)
  4027a0:	28 00 00 00 30 00 07 1d 	lw $7,48($29)
  4027a8:	2b 00 00 00 08 00 14 03 	l.d $f20,8($3)
  4027b0:	34 00 00 00 60 9f 07 1c 	sw $7,-24736($28)
  4027b8:	22 00 00 00 19 00 02 07 	lbu $2,25($7)
  4027c0:	05 00 00 00 06 00 00 02 	beq $2,$0,4027e0 <cmd_exec+0x1730>
  4027c8:	2b 00 00 00 08 00 00 07 	l.d $f0,8($7)
  4027d0:	93 00 00 00 00 00 14 00 	c.lt.d $f0,$f20
  4027d8:	01 00 00 00 50 0a 10 00 	j 402940 <cmd_exec+0x1890>
  4027e0:	28 00 00 00 30 00 04 1d 	lw $4,48($29)
  4027e8:	02 00 00 00 fe f3 10 00 	jal 43cff8 <str_2num>
  4027f0:	93 00 00 00 00 00 14 00 	c.lt.d $f0,$f20
  4027f8:	01 00 00 00 50 0a 10 00 	j 402940 <cmd_exec+0x1890>
  402800:	28 00 00 00 28 00 07 1d 	lw $7,40($29)
  402808:	28 00 00 00 0c 00 03 07 	lw $3,12($7)
  402810:	28 00 00 00 30 00 07 1d 	lw $7,48($29)
  402818:	2b 00 00 00 08 00 14 03 	l.d $f20,8($3)
  402820:	34 00 00 00 60 9f 07 1c 	sw $7,-24736($28)
  402828:	22 00 00 00 19 00 02 07 	lbu $2,25($7)
  402830:	05 00 00 00 06 00 00 02 	beq $2,$0,402850 <cmd_exec+0x17a0>
  402838:	2b 00 00 00 08 00 00 07 	l.d $f0,8($7)
  402840:	95 00 00 00 00 00 14 00 	c.le.d $f0,$f20
  402848:	01 00 00 00 50 0a 10 00 	j 402940 <cmd_exec+0x1890>
  402850:	28 00 00 00 30 00 04 1d 	lw $4,48($29)
  402858:	02 00 00 00 fe f3 10 00 	jal 43cff8 <str_2num>
  402860:	95 00 00 00 00 00 14 00 	c.le.d $f0,$f20
  402868:	01 00 00 00 50 0a 10 00 	j 402940 <cmd_exec+0x1890>
  402870:	28 00 00 00 28 00 07 1d 	lw $7,40($29)
  402878:	28 00 00 00 0c 00 03 07 	lw $3,12($7)
  402880:	28 00 00 00 30 00 07 1d 	lw $7,48($29)
  402888:	2b 00 00 00 08 00 14 03 	l.d $f20,8($3)
  402890:	34 00 00 00 60 9f 07 1c 	sw $7,-24736($28)
  402898:	22 00 00 00 19 00 02 07 	lbu $2,25($7)
  4028a0:	05 00 00 00 06 00 00 02 	beq $2,$0,4028c0 <cmd_exec+0x1810>
  4028a8:	2b 00 00 00 08 00 00 07 	l.d $f0,8($7)
  4028b0:	93 00 00 00 00 00 00 14 	c.lt.d $f20,$f0
  4028b8:	01 00 00 00 50 0a 10 00 	j 402940 <cmd_exec+0x1890>
  4028c0:	28 00 00 00 30 00 04 1d 	lw $4,48($29)
  4028c8:	02 00 00 00 fe f3 10 00 	jal 43cff8 <str_2num>
  4028d0:	93 00 00 00 00 00 00 14 	c.lt.d $f20,$f0
  4028d8:	01 00 00 00 50 0a 10 00 	j 402940 <cmd_exec+0x1890>
  4028e0:	28 00 00 00 28 00 07 1d 	lw $7,40($29)
  4028e8:	28 00 00 00 0c 00 03 07 	lw $3,12($7)
  4028f0:	28 00 00 00 30 00 07 1d 	lw $7,48($29)
  4028f8:	2b 00 00 00 08 00 14 03 	l.d $f20,8($3)
  402900:	34 00 00 00 60 9f 07 1c 	sw $7,-24736($28)
  402908:	22 00 00 00 19 00 02 07 	lbu $2,25($7)
  402910:	05 00 00 00 04 00 00 02 	beq $2,$0,402928 <cmd_exec+0x1878>
  402918:	2b 00 00 00 08 00 00 07 	l.d $f0,8($7)
  402920:	01 00 00 00 4e 0a 10 00 	j 402938 <cmd_exec+0x1888>
  402928:	28 00 00 00 30 00 04 1d 	lw $4,48($29)
  402930:	02 00 00 00 fe f3 10 00 	jal 43cff8 <str_2num>
  402938:	95 00 00 00 00 00 00 14 	c.le.d $f20,$f0
  402940:	43 00 00 00 01 00 11 00 	addiu $17,$0,1
  402948:	0c 00 00 00 02 00 00 00 	bc1t 402958 <cmd_exec+0x18a8>
  402950:	42 00 00 00 00 11 00 00 	addu $17,$0,$0
  402958:	05 00 00 00 0e 00 00 11 	beq $17,$0,402998 <cmd_exec+0x18e8>
  402960:	28 00 00 00 38 00 07 1d 	lw $7,56($29)
  402968:	4f 00 00 00 00 01 02 07 	andi $2,$7,256
  402970:	05 00 00 00 8a 02 00 02 	beq $2,$0,4033a0 <cmd_exec+0x22f0>
  402978:	a2 00 00 00 01 10 07 00 	lui $7,4097
  402980:	43 00 00 00 e0 28 07 07 	addiu $7,$7,10464
  402988:	34 00 00 00 30 00 07 1d 	sw $7,48($29)
  402990:	01 00 00 00 9e 0d 10 00 	j 403678 <cmd_exec+0x25c8>
  402998:	28 00 00 00 38 00 07 1d 	lw $7,56($29)
  4029a0:	4f 00 00 00 80 00 02 07 	andi $2,$7,128
  4029a8:	05 00 00 00 7c 02 00 02 	beq $2,$0,4033a0 <cmd_exec+0x22f0>
  4029b0:	a2 00 00 00 01 10 07 00 	lui $7,4097
  4029b8:	43 00 00 00 80 20 07 07 	addiu $7,$7,8320
  4029c0:	34 00 00 00 30 00 07 1d 	sw $7,48($29)
  4029c8:	01 00 00 00 9e 0d 10 00 	j 403678 <cmd_exec+0x25c8>
  4029d0:	28 00 00 00 28 00 07 1d 	lw $7,40($29)
  4029d8:	28 00 00 00 10 00 02 07 	lw $2,16($7)
  4029e0:	28 00 00 00 00 00 04 02 	lw $4,0($2)
  4029e8:	34 00 00 00 70 9f 02 1c 	sw $2,-24720($28)
  4029f0:	22 00 00 00 26 00 02 04 	lbu $2,38($4)
  4029f8:	4f 00 00 00 01 00 02 02 	andi $2,$2,1
  402a00:	05 00 00 00 0a 00 00 02 	beq $2,$0,402a30 <cmd_exec+0x1980>
  402a08:	28 00 00 00 04 00 02 04 	lw $2,4($4)
  402a10:	28 00 00 00 14 00 04 02 	lw $4,20($2)
  402a18:	02 00 00 00 e0 e2 10 00 	jal 438b80 <stab_str>
  402a20:	42 00 00 00 00 04 02 00 	addu $4,$0,$2
  402a28:	01 00 00 00 8e 0a 10 00 	j 402a38 <cmd_exec+0x1988>
  402a30:	28 00 00 00 04 00 04 04 	lw $4,4($4)
  402a38:	34 00 00 00 60 9f 04 1c 	sw $4,-24736($28)
  402a40:	22 00 00 00 18 00 02 04 	lbu $2,24($4)
  402a48:	05 00 00 00 04 00 00 02 	beq $2,$0,402a60 <cmd_exec+0x19b0>
  402a50:	28 00 00 00 00 00 02 04 	lw $2,0($4)
  402a58:	01 00 00 00 9a 0a 10 00 	j 402a68 <cmd_exec+0x19b8>
  402a60:	02 00 00 00 ee f2 10 00 	jal 43cbb8 <str_2ptr>
  402a68:	42 00 00 00 00 04 02 00 	addu $4,$0,$2
  402a70:	43 00 00 00 01 00 05 00 	addiu $5,$0,1
  402a78:	02 00 00 00 04 ef 10 00 	jal 43bc10 <stabent>
  402a80:	28 00 00 00 00 00 03 02 	lw $3,0($2)
  402a88:	28 00 00 00 08 00 03 03 	lw $3,8($3)
  402a90:	34 00 00 00 08 93 02 1c 	sw $2,-27896($28)
  402a98:	06 00 00 00 10 00 00 03 	bne $3,$0,402ae0 <cmd_exec+0x1a30>
  402aa0:	02 00 00 00 40 f1 10 00 	jal 43c500 <stio_new>
  402aa8:	28 00 00 00 08 93 03 1c 	lw $3,-27896($28)
  402ab0:	28 00 00 00 00 00 03 03 	lw $3,0($3)
  402ab8:	34 00 00 00 08 00 02 03 	sw $2,8($3)
  402ac0:	01 00 00 00 b8 0a 10 00 	j 402ae0 <cmd_exec+0x1a30>
  402ac8:	28 00 00 00 28 00 07 1d 	lw $7,40($29)
  402ad0:	28 00 00 00 10 00 02 07 	lw $2,16($7)
  402ad8:	34 00 00 00 08 93 02 1c 	sw $2,-27896($28)
  402ae0:	28 00 00 00 0c 93 03 1c 	lw $3,-27892($28)
  402ae8:	28 00 00 00 08 93 02 1c 	lw $2,-27896($28)
  402af0:	28 00 00 00 00 00 03 03 	lw $3,0($3)
  402af8:	28 00 00 00 00 00 02 02 	lw $2,0($2)
  402b00:	28 00 00 00 04 00 03 03 	lw $3,4($3)
  402b08:	28 00 00 00 08 00 02 02 	lw $2,8($2)
  402b10:	34 00 00 00 30 00 03 1d 	sw $3,48($29)
  402b18:	28 00 00 00 00 00 02 02 	lw $2,0($2)
  402b20:	43 00 00 00 fe ff 07 00 	addiu $7,$0,-2
  402b28:	34 00 00 00 48 00 07 1d 	sw $7,72($29)
  402b30:	34 00 00 00 20 00 02 1d 	sw $2,32($29)
  402b38:	28 00 00 00 20 00 02 1d 	lw $2,32($29)
  402b40:	05 00 00 00 2a 00 00 02 	beq $2,$0,402bf0 <cmd_exec+0x1b40>
  402b48:	28 00 00 00 20 00 05 1d 	lw $5,32($29)
  402b50:	28 00 00 00 30 00 04 1d 	lw $4,48($29)
  402b58:	42 00 00 00 00 06 00 00 	addu $6,$0,$0
  402b60:	02 00 00 00 5a ff 10 00 	jal 43fd68 <str_gets>
  402b68:	05 00 00 00 20 00 00 02 	beq $2,$0,402bf0 <cmd_exec+0x1b40>
  402b70:	28 00 00 00 30 00 07 1d 	lw $7,48($29)
  402b78:	28 00 00 00 00 00 02 07 	lw $2,0($7)
  402b80:	20 00 00 00 00 00 03 02 	lb $3,0($2)
  402b88:	43 00 00 00 01 00 11 00 	addiu $17,$0,1
  402b90:	43 00 00 00 30 00 02 00 	addiu $2,$0,48
  402b98:	06 00 00 00 06 00 02 03 	bne $3,$2,402bb8 <cmd_exec+0x1b08>
  402ba0:	28 00 00 00 10 00 02 07 	lw $2,16($7)
  402ba8:	53 00 00 00 01 00 02 02 	xori $2,$2,1
  402bb0:	5d 00 00 00 00 11 02 00 	sltu $17,$0,$2
  402bb8:	28 00 00 00 08 93 02 1c 	lw $2,-27896($28)
  402bc0:	28 00 00 00 00 00 02 02 	lw $2,0($2)
  402bc8:	28 00 00 00 08 00 03 02 	lw $3,8($2)
  402bd0:	28 00 00 00 08 00 02 03 	lw $2,8($3)
  402bd8:	43 00 00 00 01 00 02 02 	addiu $2,$2,1
  402be0:	34 00 00 00 08 00 02 03 	sw $2,8($3)
  402be8:	01 00 00 00 9e 0d 10 00 	j 403678 <cmd_exec+0x25c8>
  402bf0:	28 00 00 00 08 93 04 1c 	lw $4,-27896($28)
  402bf8:	28 00 00 00 00 00 02 04 	lw $2,0($4)
  402c00:	28 00 00 00 08 00 02 02 	lw $2,8($2)
  402c08:	22 00 00 00 2b 00 02 02 	lbu $2,43($2)
  402c10:	4f 00 00 00 01 00 02 02 	andi $2,$2,1
  402c18:	05 00 00 00 28 00 00 02 	beq $2,$0,402cc0 <cmd_exec+0x1c10>
  402c20:	28 00 00 00 20 00 02 1d 	lw $2,32($29)
  402c28:	05 00 00 00 dc 01 00 02 	beq $2,$0,4033a0 <cmd_exec+0x22f0>
  402c30:	02 00 00 00 be 5d 10 00 	jal 4176f8 <nextargv>
  402c38:	34 00 00 00 20 00 02 1d 	sw $2,32($29)
  402c40:	28 00 00 00 20 00 02 1d 	lw $2,32($29)
  402c48:	06 00 00 00 ba ff 00 02 	bne $2,$0,402b38 <cmd_exec+0x1a88>
  402c50:	28 00 00 00 08 93 04 1c 	lw $4,-27896($28)
  402c58:	42 00 00 00 00 05 00 00 	addu $5,$0,$0
  402c60:	02 00 00 00 4e 5f 10 00 	jal 417d38 <do_close>
  402c68:	28 00 00 00 08 93 02 1c 	lw $2,-27896($28)
  402c70:	28 00 00 00 00 00 02 02 	lw $2,0($2)
  402c78:	28 00 00 00 08 00 03 02 	lw $3,8($2)
  402c80:	22 00 00 00 2b 00 02 03 	lbu $2,43($3)
  402c88:	a2 00 00 00 01 10 07 00 	lui $7,4097
  402c90:	43 00 00 00 c0 20 07 07 	addiu $7,$7,8384
  402c98:	42 00 00 00 00 11 00 00 	addu $17,$0,$0
  402ca0:	51 00 00 00 02 00 02 02 	ori $2,$2,2
  402ca8:	34 00 00 00 30 00 07 1d 	sw $7,48($29)
  402cb0:	30 00 00 00 2b 00 02 03 	sb $2,43($3)
  402cb8:	01 00 00 00 9e 0d 10 00 	j 403678 <cmd_exec+0x25c8>
  402cc0:	a2 00 00 00 01 10 07 00 	lui $7,4097
  402cc8:	43 00 00 00 c0 20 07 07 	addiu $7,$7,8384
  402cd0:	34 00 00 00 30 00 07 1d 	sw $7,48($29)
  402cd8:	42 00 00 00 00 11 00 00 	addu $17,$0,$0
  402ce0:	01 00 00 00 9e 0d 10 00 	j 403678 <cmd_exec+0x25c8>
  402ce8:	28 00 00 00 c0 8b 05 1c 	lw $5,-29760($28)
  402cf0:	28 00 00 00 c4 8b 02 1c 	lw $2,-29756($28)
  402cf8:	5b 00 00 00 00 02 05 02 	slt $2,$2,$5
  402d00:	05 00 00 00 20 00 00 02 	beq $2,$0,402d88 <cmd_exec+0x1cd8>
  402d08:	28 00 00 00 98 9f 03 1c 	lw $3,-24680($28)
  402d10:	55 00 00 00 02 02 05 00 	sll $2,$5,0x2
  402d18:	42 00 00 00 00 02 03 02 	addu $2,$2,$3
  402d20:	28 00 00 00 00 00 04 02 	lw $4,0($2)
  402d28:	02 00 00 00 ec fd 10 00 	jal 43f7b0 <str_free>
  402d30:	28 00 00 00 c0 8b 03 1c 	lw $3,-29760($28)
  402d38:	28 00 00 00 98 9f 04 1c 	lw $4,-24680($28)
  402d40:	43 00 00 00 ff ff 02 03 	addiu $2,$3,-1
  402d48:	42 00 00 00 00 05 02 00 	addu $5,$0,$2
  402d50:	28 00 00 00 c4 8b 02 1c 	lw $2,-29756($28)
  402d58:	55 00 00 00 02 03 03 00 	sll $3,$3,0x2
  402d60:	42 00 00 00 00 03 04 03 	addu $3,$3,$4
  402d68:	34 00 00 00 c0 8b 05 1c 	sw $5,-29760($28)
  402d70:	34 00 00 00 00 00 00 03 	sw $0,0($3)
  402d78:	5b 00 00 00 00 02 05 02 	slt $2,$2,$5
  402d80:	06 00 00 00 e0 ff 00 02 	bne $2,$0,402d08 <cmd_exec+0x1c58>
  402d88:	28 00 00 00 74 00 02 1d 	lw $2,116($29)
  402d90:	42 00 00 00 00 05 00 00 	addu $5,$0,$0
  402d98:	05 00 00 00 06 00 00 02 	beq $2,$0,402db8 <cmd_exec+0x1d08>
  402da0:	28 00 00 00 38 00 07 1d 	lw $7,56($29)
  402da8:	4f 00 00 00 00 40 02 07 	andi $2,$7,16384
  402db0:	5d 00 00 00 00 05 02 00 	sltu $5,$0,$2
  402db8:	28 00 00 00 28 00 07 1d 	lw $7,40($29)
  402dc0:	28 00 00 00 78 00 06 1d 	lw $6,120($29)
  402dc8:	28 00 00 00 04 00 04 07 	lw $4,4($7)
  402dd0:	02 00 00 00 58 8c 10 00 	jal 423160 <eval>
  402dd8:	28 00 00 00 6c 9f 03 1c 	lw $3,-24724($28)
  402de0:	28 00 00 00 00 00 03 03 	lw $3,0($3)
  402de8:	34 00 00 00 48 00 02 1d 	sw $2,72($29)
  402df0:	55 00 00 00 02 02 02 00 	sll $2,$2,0x2
  402df8:	42 00 00 00 00 02 03 02 	addu $2,$2,$3
  402e00:	34 00 00 00 50 00 03 1d 	sw $3,80($29)
  402e08:	28 00 00 00 00 00 02 02 	lw $2,0($2)
  402e10:	34 00 00 00 30 00 02 1d 	sw $2,48($29)
  402e18:	34 00 00 00 60 9f 02 1c 	sw $2,-24736($28)
  402e20:	22 00 00 00 18 00 02 02 	lbu $2,24($2)
  402e28:	05 00 00 00 1c 00 00 02 	beq $2,$0,402ea0 <cmd_exec+0x1df0>
  402e30:	28 00 00 00 30 00 07 1d 	lw $7,48($29)
  402e38:	28 00 00 00 00 00 02 07 	lw $2,0($7)
  402e40:	20 00 00 00 00 00 04 02 	lb $4,0($2)
  402e48:	42 00 00 00 00 11 00 00 	addu $17,$0,$0
  402e50:	5c 00 00 00 31 00 02 04 	slti $2,$4,49
  402e58:	05 00 00 00 0c 00 00 02 	beq $2,$0,402e90 <cmd_exec+0x1de0>
  402e60:	28 00 00 00 10 00 03 07 	lw $3,16($7)
  402e68:	5e 00 00 00 02 00 02 03 	sltiu $2,$3,2
  402e70:	05 00 00 00 06 00 00 02 	beq $2,$0,402e90 <cmd_exec+0x1de0>
  402e78:	05 00 00 00 1c 00 00 03 	beq $3,$0,402ef0 <cmd_exec+0x1e40>
  402e80:	43 00 00 00 30 00 02 00 	addiu $2,$0,48
  402e88:	05 00 00 00 18 00 02 04 	beq $4,$2,402ef0 <cmd_exec+0x1e40>
  402e90:	43 00 00 00 01 00 11 00 	addiu $17,$0,1
  402e98:	01 00 00 00 bc 0b 10 00 	j 402ef0 <cmd_exec+0x1e40>
  402ea0:	28 00 00 00 30 00 07 1d 	lw $7,48($29)
  402ea8:	22 00 00 00 19 00 02 07 	lbu $2,25($7)
  402eb0:	05 00 00 00 0c 00 00 02 	beq $2,$0,402ee8 <cmd_exec+0x1e38>
  402eb8:	a5 00 00 00 00 00 00 02 	mtc1 $0,$f2
  402ec0:	a5 00 00 00 00 00 00 03 	mtc1 $0,$f3
  402ec8:	2b 00 00 00 08 00 00 07 	l.d $f0,8($7)
  402ed0:	91 00 00 00 00 00 02 00 	c.eq.d $f0,$f2
  402ed8:	43 00 00 00 01 00 11 00 	addiu $17,$0,1
  402ee0:	0b 00 00 00 02 00 00 00 	bc1f 402ef0 <cmd_exec+0x1e40>
  402ee8:	42 00 00 00 00 11 00 00 	addu $17,$0,$0
  402ef0:	28 00 00 00 28 00 07 1d 	lw $7,40($29)
  402ef8:	28 00 00 00 04 00 04 07 	lw $4,4($7)
  402f00:	26 00 00 00 06 00 03 04 	lhu $3,6($4)
  402f08:	43 00 00 00 8d 00 02 00 	addiu $2,$0,141
  402f10:	06 00 00 00 50 02 02 03 	bne $3,$2,403858 <cmd_exec+0x27a8>
  402f18:	28 00 00 00 24 00 05 04 	lw $5,36($4)
  402f20:	01 00 00 00 fc 0d 10 00 	j 4037f0 <cmd_exec+0x2740>
  402f28:	28 00 00 00 28 00 07 1d 	lw $7,40($29)
  402f30:	28 00 00 00 10 00 02 07 	lw $2,16($7)
  402f38:	28 00 00 00 00 00 02 02 	lw $2,0($2)
  402f40:	28 00 00 00 04 00 02 02 	lw $2,4($2)
  402f48:	34 00 00 00 30 00 02 1d 	sw $2,48($29)
  402f50:	28 00 00 00 30 00 07 1d 	lw $7,48($29)
  402f58:	34 00 00 00 60 9f 02 1c 	sw $2,-24736($28)
  402f60:	28 00 00 00 10 00 02 02 	lw $2,16($2)
  402f68:	22 00 00 00 18 00 03 07 	lbu $3,24($7)
  402f70:	5d 00 00 00 00 11 02 00 	sltu $17,$0,$2
  402f78:	43 00 00 00 fe ff 07 00 	addiu $7,$0,-2
  402f80:	34 00 00 00 48 00 07 1d 	sw $7,72($29)
  402f88:	05 00 00 00 06 00 00 03 	beq $3,$0,402fa8 <cmd_exec+0x1ef8>
  402f90:	28 00 00 00 30 00 07 1d 	lw $7,48($29)
  402f98:	28 00 00 00 00 00 10 07 	lw $16,0($7)
  402fa0:	01 00 00 00 f0 0b 10 00 	j 402fc0 <cmd_exec+0x1f10>
  402fa8:	28 00 00 00 30 00 04 1d 	lw $4,48($29)
  402fb0:	02 00 00 00 ee f2 10 00 	jal 43cbb8 <str_2ptr>
  402fb8:	42 00 00 00 00 10 02 00 	addu $16,$0,$2
  402fc0:	28 00 00 00 30 00 07 1d 	lw $7,48($29)
  402fc8:	a2 00 00 00 01 10 12 00 	lui $18,4097
  402fd0:	43 00 00 00 c0 ed 12 12 	addiu $18,$18,-4672
  402fd8:	28 00 00 00 10 00 02 07 	lw $2,16($7)
  402fe0:	42 00 00 00 00 04 12 00 	addu $4,$0,$18
  402fe8:	42 00 00 00 00 06 11 00 	addu $6,$0,$17
  402ff0:	45 00 00 00 00 02 11 02 	subu $2,$2,$17
  402ff8:	42 00 00 00 00 10 02 10 	addu $16,$16,$2
  403000:	42 00 00 00 00 05 10 00 	addu $5,$0,$16
  403008:	02 00 00 00 a0 f5 10 00 	jal 43d680 <str_nset>
  403010:	30 00 00 00 00 00 00 10 	sb $0,0($16)
  403018:	28 00 00 00 30 00 07 1d 	lw $7,48($29)
  403020:	28 00 00 00 00 00 02 07 	lw $2,0($7)
  403028:	28 00 00 00 14 00 04 07 	lw $4,20($7)
  403030:	30 00 00 00 19 00 00 07 	sb $0,25($7)
  403038:	45 00 00 00 00 02 02 10 	subu $2,$16,$2
  403040:	34 00 00 00 10 00 02 07 	sw $2,16($7)
  403048:	05 00 00 00 04 00 00 04 	beq $4,$0,403060 <cmd_exec+0x1fb0>
  403050:	28 00 00 00 30 00 05 1d 	lw $5,48($29)
  403058:	02 00 00 00 ec e5 10 00 	jal 4397b0 <stabset>
  403060:	34 00 00 00 30 00 12 1d 	sw $18,48($29)
  403068:	01 00 00 00 9e 0d 10 00 	j 403678 <cmd_exec+0x25c8>
  403070:	28 00 00 00 28 00 07 1d 	lw $7,40($29)
  403078:	28 00 00 00 0c 00 02 07 	lw $2,12($7)
  403080:	28 00 00 00 08 00 11 02 	lw $17,8($2)
  403088:	0a 00 00 00 2c 00 00 11 	bgez $17,403140 <cmd_exec+0x2090>
  403090:	28 00 00 00 04 00 02 07 	lw $2,4($7)
  403098:	28 00 00 00 0c 00 04 02 	lw $4,12($2)
  4030a0:	28 00 00 00 00 00 02 04 	lw $2,0($4)
  4030a8:	28 00 00 00 10 00 02 02 	lw $2,16($2)
  4030b0:	06 00 00 00 06 00 00 02 	bne $2,$0,4030d0 <cmd_exec+0x2020>
  4030b8:	02 00 00 00 78 ee 10 00 	jal 43b9e0 <aadd>
  4030c0:	28 00 00 00 00 00 02 02 	lw $2,0($2)
  4030c8:	28 00 00 00 10 00 02 02 	lw $2,16($2)
  4030d0:	28 00 00 00 28 00 07 1d 	lw $7,40($29)
  4030d8:	34 00 00 00 24 00 02 1d 	sw $2,36($29)
  4030e0:	28 00 00 00 10 00 02 07 	lw $2,16($7)
  4030e8:	28 00 00 00 90 9f 03 1c 	lw $3,-24688($28)
  4030f0:	28 00 00 00 00 00 04 02 	lw $4,0($2)
  4030f8:	28 00 00 00 10 00 02 03 	lw $2,16($3)
  403100:	43 00 00 00 04 00 04 04 	addiu $4,$4,4
  403108:	34 00 00 00 1c 00 02 1d 	sw $2,28($29)
  403110:	02 00 00 00 e0 12 10 00 	jal 404b80 <savesptr>
  403118:	28 00 00 00 28 00 07 1d 	lw $7,40($29)
  403120:	28 00 00 00 0c 00 04 07 	lw $4,12($7)
  403128:	43 00 00 00 08 00 04 04 	addiu $4,$4,8
  403130:	02 00 00 00 ae 12 10 00 	jal 404ab8 <savelong>
  403138:	01 00 00 00 70 0c 10 00 	j 4031c0 <cmd_exec+0x2110>
  403140:	28 00 00 00 28 00 07 1d 	lw $7,40($29)
  403148:	28 00 00 00 04 00 02 07 	lw $2,4($7)
  403150:	28 00 00 00 0c 00 02 02 	lw $2,12($2)
  403158:	28 00 00 00 00 00 02 02 	lw $2,0($2)
  403160:	28 00 00 00 10 00 02 02 	lw $2,16($2)
  403168:	34 00 00 00 24 00 02 1d 	sw $2,36($29)
  403170:	20 00 00 00 32 00 03 07 	lb $3,50($7)
  403178:	43 00 00 00 03 00 02 00 	addiu $2,$0,3
  403180:	05 00 00 00 0e 00 02 03 	beq $3,$2,4031c0 <cmd_exec+0x2110>
  403188:	28 00 00 00 90 9f 02 1c 	lw $2,-24688($28)
  403190:	28 00 00 00 10 00 03 02 	lw $3,16($2)
  403198:	28 00 00 00 14 00 02 1d 	lw $2,20($29)
  4031a0:	5b 00 00 00 00 02 03 02 	slt $2,$2,$3
  4031a8:	05 00 00 00 04 00 00 02 	beq $2,$0,4031c0 <cmd_exec+0x2110>
  4031b0:	28 00 00 00 14 00 04 1d 	lw $4,20($29)
  4031b8:	02 00 00 00 e2 13 10 00 	jal 404f88 <restorelist>
  4031c0:	28 00 00 00 24 00 02 1d 	lw $2,36($29)
  4031c8:	28 00 00 00 10 00 02 02 	lw $2,16($2)
  4031d0:	5b 00 00 00 00 02 02 11 	slt $2,$17,$2
  4031d8:	06 00 00 00 22 00 00 02 	bne $2,$0,403268 <cmd_exec+0x21b8>
  4031e0:	0a 00 00 00 0e 00 00 11 	bgez $17,403220 <cmd_exec+0x2170>
  4031e8:	28 00 00 00 90 9f 02 1c 	lw $2,-24688($28)
  4031f0:	28 00 00 00 10 00 03 02 	lw $3,16($2)
  4031f8:	28 00 00 00 1c 00 02 1d 	lw $2,28($29)
  403200:	5b 00 00 00 00 02 03 02 	slt $2,$2,$3
  403208:	05 00 00 00 04 00 00 02 	beq $2,$0,403220 <cmd_exec+0x2170>
  403210:	28 00 00 00 1c 00 04 1d 	lw $4,28($29)
  403218:	02 00 00 00 e2 13 10 00 	jal 404f88 <restorelist>
  403220:	a2 00 00 00 01 10 07 00 	lui $7,4097
  403228:	43 00 00 00 c0 20 07 07 	addiu $7,$7,8384
  403230:	34 00 00 00 30 00 07 1d 	sw $7,48($29)
  403238:	28 00 00 00 28 00 07 1d 	lw $7,40($29)
  403240:	28 00 00 00 0c 00 03 07 	lw $3,12($7)
  403248:	42 00 00 00 00 11 00 00 	addu $17,$0,$0
  403250:	43 00 00 00 ff ff 02 00 	addiu $2,$0,-1
  403258:	34 00 00 00 08 00 02 03 	sw $2,8($3)
  403260:	01 00 00 00 c6 0c 10 00 	j 403318 <cmd_exec+0x2268>
  403268:	28 00 00 00 24 00 02 1d 	lw $2,36($29)
  403270:	28 00 00 00 00 00 03 02 	lw $3,0($2)
  403278:	43 00 00 00 01 00 11 11 	addiu $17,$17,1
  403280:	55 00 00 00 02 02 11 00 	sll $2,$17,0x2
  403288:	42 00 00 00 00 02 03 02 	addu $2,$2,$3
  403290:	28 00 00 00 00 00 02 02 	lw $2,0($2)
  403298:	34 00 00 00 30 00 02 1d 	sw $2,48($29)
  4032a0:	06 00 00 00 0a 00 00 02 	bne $2,$0,4032d0 <cmd_exec+0x2220>
  4032a8:	28 00 00 00 24 00 04 1d 	lw $4,36($29)
  4032b0:	42 00 00 00 00 05 11 00 	addu $5,$0,$17
  4032b8:	43 00 00 00 01 00 06 00 	addiu $6,$0,1
  4032c0:	02 00 00 00 7c 00 10 00 	jal 4001f0 <afetch>
  4032c8:	34 00 00 00 30 00 02 1d 	sw $2,48($29)
  4032d0:	28 00 00 00 28 00 07 1d 	lw $7,40($29)
  4032d8:	28 00 00 00 10 00 02 07 	lw $2,16($7)
  4032e0:	28 00 00 00 00 00 02 02 	lw $2,0($2)
  4032e8:	28 00 00 00 30 00 07 1d 	lw $7,48($29)
  4032f0:	34 00 00 00 04 00 07 02 	sw $7,4($2)
  4032f8:	28 00 00 00 28 00 07 1d 	lw $7,40($29)
  403300:	28 00 00 00 0c 00 02 07 	lw $2,12($7)
  403308:	34 00 00 00 08 00 11 02 	sw $17,8($2)
  403310:	43 00 00 00 01 00 11 00 	addiu $17,$0,1
  403318:	43 00 00 00 fe ff 07 00 	addiu $7,$0,-2
  403320:	34 00 00 00 48 00 07 1d 	sw $7,72($29)
  403328:	01 00 00 00 16 0e 10 00 	j 403858 <cmd_exec+0x27a8>
  403330:	28 00 00 00 4c 93 02 1c 	lw $2,-27828($28)
  403338:	a5 00 00 00 00 00 00 02 	mtc1 $0,$f2
  403340:	a5 00 00 00 00 00 00 03 	mtc1 $0,$f3
  403348:	2b 00 00 00 08 00 00 02 	l.d $f0,8($2)
  403350:	91 00 00 00 00 00 02 00 	c.eq.d $f0,$f2
  403358:	0b 00 00 00 10 00 00 00 	bc1f 4033a0 <cmd_exec+0x22f0>
  403360:	28 00 00 00 54 93 02 1c 	lw $2,-27820($28)
  403368:	2b 00 00 00 08 00 00 02 	l.d $f0,8($2)
  403370:	91 00 00 00 00 00 02 00 	c.eq.d $f0,$f2
  403378:	0b 00 00 00 08 00 00 00 	bc1f 4033a0 <cmd_exec+0x22f0>
  403380:	28 00 00 00 50 93 02 1c 	lw $2,-27824($28)
  403388:	2b 00 00 00 08 00 00 02 	l.d $f0,8($2)
  403390:	91 00 00 00 00 00 02 00 	c.eq.d $f0,$f2
  403398:	0c 00 00 00 78 04 00 00 	bc1t 404580 <cmd_exec+0x34d0>
  4033a0:	28 00 00 00 74 00 03 1d 	lw $3,116($29)
  4033a8:	43 00 00 00 01 00 02 00 	addiu $2,$0,1
  4033b0:	06 00 00 00 14 00 02 03 	bne $3,$2,403408 <cmd_exec+0x2358>
  4033b8:	34 00 00 00 48 93 00 1c 	sw $0,-27832($28)
  4033c0:	28 00 00 00 78 00 02 1d 	lw $2,120($29)
  4033c8:	28 00 00 00 48 00 07 1d 	lw $7,72($29)
  4033d0:	34 00 00 00 d8 9f 02 1c 	sw $2,-24616($28)
  4033d8:	28 00 00 00 78 00 02 1d 	lw $2,120($29)
  4033e0:	45 00 00 00 00 02 02 07 	subu $2,$7,$2
  4033e8:	34 00 00 00 3c 9f 02 1c 	sw $2,-24772($28)
  4033f0:	0a 00 00 00 08 00 00 02 	bgez $2,403418 <cmd_exec+0x2368>
  4033f8:	34 00 00 00 3c 9f 00 1c 	sw $0,-24772($28)
  403400:	01 00 00 00 06 0d 10 00 	j 403418 <cmd_exec+0x2368>
  403408:	28 00 00 00 30 00 07 1d 	lw $7,48($29)
  403410:	34 00 00 00 48 93 07 1c 	sw $7,-27832($28)
  403418:	28 00 00 00 c0 8b 05 1c 	lw $5,-29760($28)
  403420:	28 00 00 00 c4 8b 02 1c 	lw $2,-29756($28)
  403428:	5b 00 00 00 00 02 05 02 	slt $2,$2,$5
  403430:	05 00 00 00 20 00 00 02 	beq $2,$0,4034b8 <cmd_exec+0x2408>
  403438:	28 00 00 00 98 9f 03 1c 	lw $3,-24680($28)
  403440:	55 00 00 00 02 02 05 00 	sll $2,$5,0x2
  403448:	42 00 00 00 00 02 03 02 	addu $2,$2,$3
  403450:	28 00 00 00 00 00 04 02 	lw $4,0($2)
  403458:	02 00 00 00 ec fd 10 00 	jal 43f7b0 <str_free>
  403460:	28 00 00 00 c0 8b 03 1c 	lw $3,-29760($28)
  403468:	28 00 00 00 98 9f 04 1c 	lw $4,-24680($28)
  403470:	43 00 00 00 ff ff 02 03 	addiu $2,$3,-1
  403478:	42 00 00 00 00 05 02 00 	addu $5,$0,$2
  403480:	28 00 00 00 c4 8b 02 1c 	lw $2,-29756($28)
  403488:	55 00 00 00 02 03 03 00 	sll $3,$3,0x2
  403490:	42 00 00 00 00 03 04 03 	addu $3,$3,$4
  403498:	34 00 00 00 c0 8b 05 1c 	sw $5,-29760($28)
  4034a0:	34 00 00 00 00 00 00 03 	sw $0,0($3)
  4034a8:	5b 00 00 00 00 02 05 02 	slt $2,$2,$5
  4034b0:	06 00 00 00 e0 ff 00 02 	bne $2,$0,403438 <cmd_exec+0x2388>
  4034b8:	28 00 00 00 74 00 02 1d 	lw $2,116($29)
  4034c0:	42 00 00 00 00 05 00 00 	addu $5,$0,$0
  4034c8:	05 00 00 00 12 00 00 02 	beq $2,$0,403518 <cmd_exec+0x2468>
  4034d0:	28 00 00 00 38 00 07 1d 	lw $7,56($29)
  4034d8:	4f 00 00 00 00 40 02 07 	andi $2,$7,16384
  4034e0:	05 00 00 00 0c 00 00 02 	beq $2,$0,403518 <cmd_exec+0x2468>
  4034e8:	28 00 00 00 28 00 07 1d 	lw $7,40($29)
  4034f0:	20 00 00 00 32 00 03 07 	lb $3,50($7)
  4034f8:	43 00 00 00 05 00 02 00 	addiu $2,$0,5
  403500:	06 00 00 00 04 00 02 03 	bne $3,$2,403518 <cmd_exec+0x2468>
  403508:	28 00 00 00 20 00 02 07 	lw $2,32($7)
  403510:	5e 00 00 00 01 00 05 02 	sltiu $5,$2,1
  403518:	28 00 00 00 28 00 07 1d 	lw $7,40($29)
  403520:	28 00 00 00 78 00 06 1d 	lw $6,120($29)
  403528:	28 00 00 00 04 00 04 07 	lw $4,4($7)
  403530:	02 00 00 00 58 8c 10 00 	jal 423160 <eval>
  403538:	28 00 00 00 6c 9f 03 1c 	lw $3,-24724($28)
  403540:	28 00 00 00 00 00 03 03 	lw $3,0($3)
  403548:	34 00 00 00 48 00 02 1d 	sw $2,72($29)
  403550:	55 00 00 00 02 02 02 00 	sll $2,$2,0x2
  403558:	42 00 00 00 00 02 03 02 	addu $2,$2,$3
  403560:	34 00 00 00 50 00 03 1d 	sw $3,80($29)
  403568:	28 00 00 00 78 00 03 1d 	lw $3,120($29)
  403570:	28 00 00 00 48 00 07 1d 	lw $7,72($29)
  403578:	28 00 00 00 00 00 02 02 	lw $2,0($2)
  403580:	5b 00 00 00 00 03 07 03 	slt $3,$3,$7
  403588:	34 00 00 00 30 00 02 1d 	sw $2,48($29)
  403590:	05 00 00 00 34 00 00 03 	beq $3,$0,403668 <cmd_exec+0x25b8>
  403598:	05 00 00 00 32 00 00 02 	beq $2,$0,403668 <cmd_exec+0x25b8>
  4035a0:	34 00 00 00 60 9f 02 1c 	sw $2,-24736($28)
  4035a8:	22 00 00 00 18 00 02 02 	lbu $2,24($2)
  4035b0:	05 00 00 00 1a 00 00 02 	beq $2,$0,403620 <cmd_exec+0x2570>
  4035b8:	28 00 00 00 30 00 07 1d 	lw $7,48($29)
  4035c0:	28 00 00 00 00 00 02 07 	lw $2,0($7)
  4035c8:	20 00 00 00 00 00 04 02 	lb $4,0($2)
  4035d0:	42 00 00 00 00 11 00 00 	addu $17,$0,$0
  4035d8:	5c 00 00 00 31 00 02 04 	slti $2,$4,49
  4035e0:	05 00 00 00 9a 00 00 02 	beq $2,$0,403850 <cmd_exec+0x27a0>
  4035e8:	28 00 00 00 10 00 03 07 	lw $3,16($7)
  4035f0:	5e 00 00 00 02 00 02 03 	sltiu $2,$3,2
  4035f8:	05 00 00 00 94 00 00 02 	beq $2,$0,403850 <cmd_exec+0x27a0>
  403600:	05 00 00 00 94 00 00 03 	beq $3,$0,403858 <cmd_exec+0x27a8>
  403608:	43 00 00 00 30 00 02 00 	addiu $2,$0,48
  403610:	05 00 00 00 90 00 02 04 	beq $4,$2,403858 <cmd_exec+0x27a8>
  403618:	01 00 00 00 14 0e 10 00 	j 403850 <cmd_exec+0x27a0>
  403620:	28 00 00 00 30 00 07 1d 	lw $7,48($29)
  403628:	22 00 00 00 19 00 02 07 	lbu $2,25($7)
  403630:	05 00 00 00 0c 00 00 02 	beq $2,$0,403668 <cmd_exec+0x25b8>
  403638:	a5 00 00 00 00 00 00 02 	mtc1 $0,$f2
  403640:	a5 00 00 00 00 00 00 03 	mtc1 $0,$f3
  403648:	2b 00 00 00 08 00 00 07 	l.d $f0,8($7)
  403650:	91 00 00 00 00 00 02 00 	c.eq.d $f0,$f2
  403658:	43 00 00 00 01 00 11 00 	addiu $17,$0,1
  403660:	0b 00 00 00 7c 00 00 00 	bc1f 403858 <cmd_exec+0x27a8>
  403668:	42 00 00 00 00 11 00 00 	addu $17,$0,$0
  403670:	01 00 00 00 16 0e 10 00 	j 403858 <cmd_exec+0x27a8>
  403678:	05 00 00 00 64 00 00 11 	beq $17,$0,403810 <cmd_exec+0x2760>
  403680:	28 00 00 00 38 00 07 1d 	lw $7,56($29)
  403688:	4f 00 00 00 00 20 02 07 	andi $2,$7,8192
  403690:	05 00 00 00 70 00 00 02 	beq $2,$0,403858 <cmd_exec+0x27a8>
  403698:	28 00 00 00 c0 8b 05 1c 	lw $5,-29760($28)
  4036a0:	28 00 00 00 c4 8b 02 1c 	lw $2,-29756($28)
  4036a8:	5b 00 00 00 00 02 05 02 	slt $2,$2,$5
  4036b0:	05 00 00 00 20 00 00 02 	beq $2,$0,403738 <cmd_exec+0x2688>
  4036b8:	28 00 00 00 98 9f 03 1c 	lw $3,-24680($28)
  4036c0:	55 00 00 00 02 02 05 00 	sll $2,$5,0x2
  4036c8:	42 00 00 00 00 02 03 02 	addu $2,$2,$3
  4036d0:	28 00 00 00 00 00 04 02 	lw $4,0($2)
  4036d8:	02 00 00 00 ec fd 10 00 	jal 43f7b0 <str_free>
  4036e0:	28 00 00 00 c0 8b 03 1c 	lw $3,-29760($28)
  4036e8:	28 00 00 00 98 9f 04 1c 	lw $4,-24680($28)
  4036f0:	43 00 00 00 ff ff 02 03 	addiu $2,$3,-1
  4036f8:	42 00 00 00 00 05 02 00 	addu $5,$0,$2
  403700:	28 00 00 00 c4 8b 02 1c 	lw $2,-29756($28)
  403708:	55 00 00 00 02 03 03 00 	sll $3,$3,0x2
  403710:	42 00 00 00 00 03 04 03 	addu $3,$3,$4
  403718:	34 00 00 00 c0 8b 05 1c 	sw $5,-29760($28)
  403720:	34 00 00 00 00 00 00 03 	sw $0,0($3)
  403728:	5b 00 00 00 00 02 05 02 	slt $2,$2,$5
  403730:	06 00 00 00 e0 ff 00 02 	bne $2,$0,4036b8 <cmd_exec+0x2608>
  403738:	28 00 00 00 28 00 07 1d 	lw $7,40($29)
  403740:	28 00 00 00 04 00 04 07 	lw $4,4($7)
  403748:	26 00 00 00 06 00 02 04 	lhu $2,6($4)
  403750:	43 00 00 00 8e 00 10 00 	addiu $16,$0,142
  403758:	06 00 00 00 12 00 10 02 	bne $2,$16,4037a8 <cmd_exec+0x26f8>
  403760:	28 00 00 00 78 00 06 1d 	lw $6,120($29)
  403768:	42 00 00 00 00 05 00 00 	addu $5,$0,$0
  403770:	02 00 00 00 58 8c 10 00 	jal 423160 <eval>
  403778:	28 00 00 00 28 00 07 1d 	lw $7,40($29)
  403780:	28 00 00 00 04 00 03 07 	lw $3,4($7)
  403788:	28 00 00 00 28 00 04 1d 	lw $4,40($29)
  403790:	28 00 00 00 24 00 05 03 	lw $5,36($3)
  403798:	34 00 00 00 48 00 02 1d 	sw $2,72($29)
  4037a0:	01 00 00 00 fe 0d 10 00 	j 4037f8 <cmd_exec+0x2748>
  4037a8:	28 00 00 00 78 00 06 1d 	lw $6,120($29)
  4037b0:	42 00 00 00 00 05 00 00 	addu $5,$0,$0
  4037b8:	02 00 00 00 58 8c 10 00 	jal 423160 <eval>
  4037c0:	28 00 00 00 28 00 07 1d 	lw $7,40($29)
  4037c8:	28 00 00 00 04 00 04 07 	lw $4,4($7)
  4037d0:	26 00 00 00 06 00 03 04 	lhu $3,6($4)
  4037d8:	34 00 00 00 48 00 02 1d 	sw $2,72($29)
  4037e0:	06 00 00 00 1c 00 10 03 	bne $3,$16,403858 <cmd_exec+0x27a8>
  4037e8:	28 00 00 00 30 00 05 04 	lw $5,48($4)
  4037f0:	28 00 00 00 28 00 04 1d 	lw $4,40($29)
  4037f8:	02 00 00 00 96 11 10 00 	jal 404658 <copyopt>
  403800:	34 00 00 00 38 00 02 1d 	sw $2,56($29)
  403808:	01 00 00 00 16 0e 10 00 	j 403858 <cmd_exec+0x27a8>
  403810:	28 00 00 00 38 00 07 1d 	lw $7,56($29)
  403818:	4f 00 00 00 00 20 02 07 	andi $2,$7,8192
  403820:	05 00 00 00 0c 00 00 02 	beq $2,$0,403858 <cmd_exec+0x27a8>
  403828:	28 00 00 00 28 00 07 1d 	lw $7,40($29)
  403830:	28 00 00 00 04 00 02 07 	lw $2,4($7)
  403838:	26 00 00 00 06 00 03 02 	lhu $3,6($2)
  403840:	43 00 00 00 8e 00 02 00 	addiu $2,$0,142
  403848:	06 00 00 00 02 00 02 03 	bne $3,$2,403858 <cmd_exec+0x27a8>
  403850:	43 00 00 00 01 00 11 00 	addiu $17,$0,1
  403858:	28 00 00 00 38 00 07 1d 	lw $7,56($29)
  403860:	4f 00 00 00 00 08 02 07 	andi $2,$7,2048
  403868:	05 00 00 00 02 00 00 02 	beq $2,$0,403878 <cmd_exec+0x27c8>
  403870:	5e 00 00 00 01 00 11 11 	sltiu $17,$17,1
  403878:	05 00 00 00 40 03 00 11 	beq $17,$0,404580 <cmd_exec+0x34d0>
  403880:	28 00 00 00 28 00 07 1d 	lw $7,40($29)
  403888:	20 00 00 00 32 00 03 07 	lb $3,50($7)
  403890:	5e 00 00 00 0a 00 02 03 	sltiu $2,$3,10
  403898:	05 00 00 00 2c 03 00 02 	beq $2,$0,404550 <cmd_exec+0x34a0>
  4038a0:	55 00 00 00 02 02 03 00 	sll $2,$3,0x2
  4038a8:	a2 00 00 00 00 10 01 00 	lui $1,4096
  4038b0:	42 00 00 00 00 01 02 01 	addu $1,$1,$2
  4038b8:	28 00 00 00 08 01 02 01 	lw $2,264($1)
  4038c0:	03 00 00 00 00 00 00 02 	jr $2
  4038c8:	a2 00 00 00 00 10 04 00 	lui $4,4096
  4038d0:	43 00 00 00 44 00 04 04 	addiu $4,$4,68
  4038d8:	02 00 00 00 50 66 11 00 	jal 459940 <Myfatal>
  4038e0:	28 00 00 00 28 00 07 1d 	lw $7,40($29)
  4038e8:	28 00 00 00 20 00 02 07 	lw $2,32($7)
  4038f0:	05 00 00 00 16 03 00 02 	beq $2,$0,404550 <cmd_exec+0x34a0>
  4038f8:	28 00 00 00 74 00 03 1d 	lw $3,116($29)
  403900:	43 00 00 00 01 00 02 00 	addiu $2,$0,1
  403908:	06 00 00 00 14 00 02 03 	bne $3,$2,403960 <cmd_exec+0x28b0>
  403910:	34 00 00 00 48 93 00 1c 	sw $0,-27832($28)
  403918:	28 00 00 00 78 00 02 1d 	lw $2,120($29)
  403920:	28 00 00 00 48 00 07 1d 	lw $7,72($29)
  403928:	34 00 00 00 d8 9f 02 1c 	sw $2,-24616($28)
  403930:	28 00 00 00 78 00 02 1d 	lw $2,120($29)
  403938:	45 00 00 00 00 02 02 07 	subu $2,$7,$2
  403940:	34 00 00 00 3c 9f 02 1c 	sw $2,-24772($28)
  403948:	0a 00 00 00 08 00 00 02 	bgez $2,403970 <cmd_exec+0x28c0>
  403950:	34 00 00 00 3c 9f 00 1c 	sw $0,-24772($28)
  403958:	01 00 00 00 5c 0e 10 00 	j 403970 <cmd_exec+0x28c0>
  403960:	28 00 00 00 30 00 07 1d 	lw $7,48($29)
  403968:	34 00 00 00 48 93 07 1c 	sw $7,-27832($28)
  403970:	28 00 00 00 c0 8b 05 1c 	lw $5,-29760($28)
  403978:	28 00 00 00 c4 8b 02 1c 	lw $2,-29756($28)
  403980:	5b 00 00 00 00 02 05 02 	slt $2,$2,$5
  403988:	05 00 00 00 20 00 00 02 	beq $2,$0,403a10 <cmd_exec+0x2960>
  403990:	28 00 00 00 98 9f 03 1c 	lw $3,-24680($28)
  403998:	55 00 00 00 02 02 05 00 	sll $2,$5,0x2
  4039a0:	42 00 00 00 00 02 03 02 	addu $2,$2,$3
  4039a8:	28 00 00 00 00 00 04 02 	lw $4,0($2)
  4039b0:	02 00 00 00 ec fd 10 00 	jal 43f7b0 <str_free>
  4039b8:	28 00 00 00 c0 8b 03 1c 	lw $3,-29760($28)
  4039c0:	28 00 00 00 98 9f 04 1c 	lw $4,-24680($28)
  4039c8:	43 00 00 00 ff ff 02 03 	addiu $2,$3,-1
  4039d0:	42 00 00 00 00 05 02 00 	addu $5,$0,$2
  4039d8:	28 00 00 00 c4 8b 02 1c 	lw $2,-29756($28)
  4039e0:	55 00 00 00 02 03 03 00 	sll $3,$3,0x2
  4039e8:	42 00 00 00 00 03 04 03 	addu $3,$3,$4
  4039f0:	34 00 00 00 c0 8b 05 1c 	sw $5,-29760($28)
  4039f8:	34 00 00 00 00 00 00 03 	sw $0,0($3)
  403a00:	5b 00 00 00 00 02 05 02 	slt $2,$2,$5
  403a08:	06 00 00 00 e0 ff 00 02 	bne $2,$0,403990 <cmd_exec+0x28e0>
  403a10:	28 00 00 00 74 00 02 1d 	lw $2,116($29)
  403a18:	42 00 00 00 00 05 00 00 	addu $5,$0,$0
  403a20:	05 00 00 00 06 00 00 02 	beq $2,$0,403a40 <cmd_exec+0x2990>
  403a28:	28 00 00 00 38 00 07 1d 	lw $7,56($29)
  403a30:	4f 00 00 00 00 40 02 07 	andi $2,$7,16384
  403a38:	5d 00 00 00 00 05 02 00 	sltu $5,$0,$2
  403a40:	28 00 00 00 28 00 07 1d 	lw $7,40($29)
  403a48:	28 00 00 00 78 00 06 1d 	lw $6,120($29)
  403a50:	28 00 00 00 20 00 04 07 	lw $4,32($7)
  403a58:	02 00 00 00 58 8c 10 00 	jal 423160 <eval>
  403a60:	28 00 00 00 6c 9f 03 1c 	lw $3,-24724($28)
  403a68:	28 00 00 00 00 00 03 03 	lw $3,0($3)
  403a70:	34 00 00 00 48 00 02 1d 	sw $2,72($29)
  403a78:	55 00 00 00 02 02 02 00 	sll $2,$2,0x2
  403a80:	42 00 00 00 00 02 03 02 	addu $2,$2,$3
  403a88:	34 00 00 00 50 00 03 1d 	sw $3,80($29)
  403a90:	28 00 00 00 00 00 02 02 	lw $2,0($2)
  403a98:	34 00 00 00 30 00 02 1d 	sw $2,48($29)
  403aa0:	01 00 00 00 54 11 10 00 	j 404550 <cmd_exec+0x34a0>
  403aa8:	28 00 00 00 28 00 07 1d 	lw $7,40($29)
  403ab0:	28 00 00 00 10 00 02 07 	lw $2,16($7)
  403ab8:	28 00 00 00 00 00 04 02 	lw $4,0($2)
  403ac0:	34 00 00 00 70 9f 02 1c 	sw $2,-24720($28)
  403ac8:	22 00 00 00 26 00 02 04 	lbu $2,38($4)
  403ad0:	4f 00 00 00 01 00 02 02 	andi $2,$2,1
  403ad8:	05 00 00 00 0a 00 00 02 	beq $2,$0,403b08 <cmd_exec+0x2a58>
  403ae0:	28 00 00 00 04 00 02 04 	lw $2,4($4)
  403ae8:	28 00 00 00 14 00 04 02 	lw $4,20($2)
  403af0:	02 00 00 00 e0 e2 10 00 	jal 438b80 <stab_str>
  403af8:	42 00 00 00 00 04 02 00 	addu $4,$0,$2
  403b00:	01 00 00 00 c4 0e 10 00 	j 403b10 <cmd_exec+0x2a60>
  403b08:	28 00 00 00 04 00 04 04 	lw $4,4($4)
  403b10:	34 00 00 00 60 9f 04 1c 	sw $4,-24736($28)
  403b18:	22 00 00 00 19 00 02 04 	lbu $2,25($4)
  403b20:	05 00 00 00 04 00 00 02 	beq $2,$0,403b38 <cmd_exec+0x2a88>
  403b28:	2b 00 00 00 08 00 02 04 	l.d $f2,8($4)
  403b30:	01 00 00 00 d2 0e 10 00 	j 403b48 <cmd_exec+0x2a98>
  403b38:	02 00 00 00 fe f3 10 00 	jal 43cff8 <str_2num>
  403b40:	7b 00 00 00 00 02 00 00 	mov.d $f2,$f0
  403b48:	a5 00 00 00 00 00 00 00 	mtc1 $0,$f0
  403b50:	a5 00 00 00 00 00 00 01 	mtc1 $0,$f1
  403b58:	93 00 00 00 00 00 00 02 	c.lt.d $f2,$f0
  403b60:	85 00 00 00 00 00 00 02 	cvt.w.d $f0,$f2
  403b68:	a3 00 00 00 00 00 11 00 	mfc1 $17,$f0
  403b70:	0b 00 00 00 38 00 00 00 	bc1f 403c58 <cmd_exec+0x2ba8>
  403b78:	a5 00 00 00 00 00 11 00 	mtc1 $17,$f0
  403b80:	83 00 00 00 00 00 00 00 	cvt.d.w $f0,$f0
  403b88:	93 00 00 00 00 00 00 02 	c.lt.d $f2,$f0
  403b90:	0b 00 00 00 30 00 00 00 	bc1f 403c58 <cmd_exec+0x2ba8>
  403b98:	43 00 00 00 ff ff 11 11 	addiu $17,$17,-1
  403ba0:	01 00 00 00 16 0f 10 00 	j 403c58 <cmd_exec+0x2ba8>
  403ba8:	28 00 00 00 e4 93 02 1c 	lw $2,-27676($28)
  403bb0:	06 00 00 00 92 02 00 02 	bne $2,$0,404600 <cmd_exec+0x3550>
  403bb8:	28 00 00 00 28 00 07 1d 	lw $7,40($29)
  403bc0:	28 00 00 00 10 00 02 07 	lw $2,16($7)
  403bc8:	28 00 00 00 00 00 04 02 	lw $4,0($2)
  403bd0:	34 00 00 00 70 9f 02 1c 	sw $2,-24720($28)
  403bd8:	22 00 00 00 26 00 02 04 	lbu $2,38($4)
  403be0:	4f 00 00 00 01 00 02 02 	andi $2,$2,1
  403be8:	05 00 00 00 0a 00 00 02 	beq $2,$0,403c18 <cmd_exec+0x2b68>
  403bf0:	28 00 00 00 04 00 02 04 	lw $2,4($4)
  403bf8:	28 00 00 00 14 00 04 02 	lw $4,20($2)
  403c00:	02 00 00 00 e0 e2 10 00 	jal 438b80 <stab_str>
  403c08:	42 00 00 00 00 04 02 00 	addu $4,$0,$2
  403c10:	01 00 00 00 08 0f 10 00 	j 403c20 <cmd_exec+0x2b70>
  403c18:	28 00 00 00 04 00 04 04 	lw $4,4($4)
  403c20:	34 00 00 00 60 9f 04 1c 	sw $4,-24736($28)
  403c28:	22 00 00 00 18 00 02 04 	lbu $2,24($4)
  403c30:	05 00 00 00 04 00 00 02 	beq $2,$0,403c48 <cmd_exec+0x2b98>
  403c38:	28 00 00 00 00 00 02 04 	lw $2,0($4)
  403c40:	01 00 00 00 14 0f 10 00 	j 403c50 <cmd_exec+0x2ba0>
  403c48:	02 00 00 00 ee f2 10 00 	jal 43cbb8 <str_2ptr>
  403c50:	22 00 00 00 00 00 11 02 	lbu $17,0($2)
  403c58:	28 00 00 00 28 00 07 1d 	lw $7,40($29)
  403c60:	24 00 00 00 20 00 02 07 	lh $2,32($7)
  403c68:	45 00 00 00 00 11 02 11 	subu $17,$17,$2
  403c70:	0a 00 00 00 04 00 00 11 	bgez $17,403c88 <cmd_exec+0x2bd8>
  403c78:	42 00 00 00 00 11 00 00 	addu $17,$0,$0
  403c80:	01 00 00 00 2c 0f 10 00 	j 403cb0 <cmd_exec+0x2c00>
  403c88:	28 00 00 00 28 00 07 1d 	lw $7,40($29)
  403c90:	24 00 00 00 22 00 03 07 	lh $3,34($7)
  403c98:	5b 00 00 00 00 02 11 03 	slt $2,$3,$17
  403ca0:	05 00 00 00 02 00 00 02 	beq $2,$0,403cb0 <cmd_exec+0x2c00>
  403ca8:	42 00 00 00 00 11 03 00 	addu $17,$0,$3
  403cb0:	28 00 00 00 28 00 07 1d 	lw $7,40($29)
  403cb8:	28 00 00 00 1c 00 03 07 	lw $3,28($7)
  403cc0:	55 00 00 00 02 02 11 00 	sll $2,$17,0x2
  403cc8:	42 00 00 00 00 02 03 02 	addu $2,$2,$3
  403cd0:	28 00 00 00 00 00 02 02 	lw $2,0($2)
  403cd8:	34 00 00 00 28 00 02 1d 	sw $2,40($29)
  403ce0:	01 00 00 00 5e 04 10 00 	j 401178 <cmd_exec+0xc8>
  403ce8:	a2 00 00 00 00 10 04 00 	lui $4,4096
  403cf0:	43 00 00 00 54 00 04 04 	addiu $4,$4,84
  403cf8:	02 00 00 00 50 66 11 00 	jal 459940 <Myfatal>
  403d00:	28 00 00 00 44 9f 02 1c 	lw $2,-24764($28)
  403d08:	28 00 00 00 28 00 07 1d 	lw $7,40($29)
  403d10:	34 00 00 00 10 00 02 1d 	sw $2,16($29)
  403d18:	28 00 00 00 90 9f 02 1c 	lw $2,-24688($28)
  403d20:	28 00 00 00 1c 00 04 07 	lw $4,28($7)
  403d28:	28 00 00 00 10 00 02 02 	lw $2,16($2)
  403d30:	a2 00 00 00 01 10 07 00 	lui $7,4097
  403d38:	43 00 00 00 e0 28 07 07 	addiu $7,$7,10464
  403d40:	34 00 00 00 30 00 07 1d 	sw $7,48($29)
  403d48:	43 00 00 00 fe ff 07 00 	addiu $7,$0,-2
  403d50:	34 00 00 00 48 00 07 1d 	sw $7,72($29)
  403d58:	34 00 00 00 18 00 02 1d 	sw $2,24($29)
  403d60:	05 00 00 00 20 00 00 04 	beq $4,$0,403de8 <cmd_exec+0x2d38>
  403d68:	28 00 00 00 74 00 02 1d 	lw $2,116($29)
  403d70:	42 00 00 00 00 05 00 00 	addu $5,$0,$0
  403d78:	05 00 00 00 06 00 00 02 	beq $2,$0,403d98 <cmd_exec+0x2ce8>
  403d80:	28 00 00 00 38 00 07 1d 	lw $7,56($29)
  403d88:	4f 00 00 00 00 40 02 07 	andi $2,$7,16384
  403d90:	5d 00 00 00 00 05 02 00 	sltu $5,$0,$2
  403d98:	28 00 00 00 78 00 06 1d 	lw $6,120($29)
  403da0:	02 00 00 00 2c 04 10 00 	jal 4010b0 <cmd_exec>
  403da8:	28 00 00 00 6c 9f 03 1c 	lw $3,-24724($28)
  403db0:	28 00 00 00 00 00 03 03 	lw $3,0($3)
  403db8:	34 00 00 00 48 00 02 1d 	sw $2,72($29)
  403dc0:	55 00 00 00 02 02 02 00 	sll $2,$2,0x2
  403dc8:	42 00 00 00 00 02 03 02 	addu $2,$2,$3
  403dd0:	34 00 00 00 50 00 03 1d 	sw $3,80($29)
  403dd8:	28 00 00 00 00 00 02 02 	lw $2,0($2)
  403de0:	34 00 00 00 30 00 02 1d 	sw $2,48($29)
  403de8:	28 00 00 00 10 00 04 1d 	lw $4,16($29)
  403df0:	28 00 00 00 90 9f 02 1c 	lw $2,-24688($28)
  403df8:	28 00 00 00 10 00 03 02 	lw $3,16($2)
  403e00:	28 00 00 00 18 00 02 1d 	lw $2,24($29)
  403e08:	34 00 00 00 44 9f 04 1c 	sw $4,-24764($28)
  403e10:	5b 00 00 00 00 02 03 02 	slt $2,$2,$3
  403e18:	05 00 00 00 04 00 00 02 	beq $2,$0,403e30 <cmd_exec+0x2d80>
  403e20:	28 00 00 00 18 00 04 1d 	lw $4,24($29)
  403e28:	02 00 00 00 e2 13 10 00 	jal 404f88 <restorelist>
  403e30:	28 00 00 00 28 00 07 1d 	lw $7,40($29)
  403e38:	28 00 00 00 20 00 07 07 	lw $7,32($7)
  403e40:	34 00 00 00 28 00 07 1d 	sw $7,40($29)
  403e48:	01 00 00 00 5e 04 10 00 	j 401178 <cmd_exec+0xc8>
  403e50:	28 00 00 00 44 9f 02 1c 	lw $2,-24764($28)
  403e58:	28 00 00 00 28 00 07 1d 	lw $7,40($29)
  403e60:	34 00 00 00 10 00 02 1d 	sw $2,16($29)
  403e68:	28 00 00 00 90 9f 02 1c 	lw $2,-24688($28)
  403e70:	28 00 00 00 1c 00 04 07 	lw $4,28($7)
  403e78:	28 00 00 00 10 00 02 02 	lw $2,16($2)
  403e80:	a2 00 00 00 01 10 07 00 	lui $7,4097
  403e88:	43 00 00 00 c0 20 07 07 	addiu $7,$7,8384
  403e90:	34 00 00 00 30 00 07 1d 	sw $7,48($29)
  403e98:	43 00 00 00 fe ff 07 00 	addiu $7,$0,-2
  403ea0:	34 00 00 00 48 00 07 1d 	sw $7,72($29)
  403ea8:	34 00 00 00 18 00 02 1d 	sw $2,24($29)
  403eb0:	05 00 00 00 20 00 00 04 	beq $4,$0,403f38 <cmd_exec+0x2e88>
  403eb8:	28 00 00 00 74 00 02 1d 	lw $2,116($29)
  403ec0:	42 00 00 00 00 05 00 00 	addu $5,$0,$0
  403ec8:	05 00 00 00 06 00 00 02 	beq $2,$0,403ee8 <cmd_exec+0x2e38>
  403ed0:	28 00 00 00 38 00 07 1d 	lw $7,56($29)
  403ed8:	4f 00 00 00 00 40 02 07 	andi $2,$7,16384
  403ee0:	5d 00 00 00 00 05 02 00 	sltu $5,$0,$2
  403ee8:	28 00 00 00 78 00 06 1d 	lw $6,120($29)
  403ef0:	02 00 00 00 2c 04 10 00 	jal 4010b0 <cmd_exec>
  403ef8:	28 00 00 00 6c 9f 03 1c 	lw $3,-24724($28)
  403f00:	28 00 00 00 00 00 03 03 	lw $3,0($3)
  403f08:	34 00 00 00 48 00 02 1d 	sw $2,72($29)
  403f10:	55 00 00 00 02 02 02 00 	sll $2,$2,0x2
  403f18:	42 00 00 00 00 02 03 02 	addu $2,$2,$3
  403f20:	34 00 00 00 50 00 03 1d 	sw $3,80($29)
  403f28:	28 00 00 00 00 00 02 02 	lw $2,0($2)
  403f30:	34 00 00 00 30 00 02 1d 	sw $2,48($29)
  403f38:	28 00 00 00 10 00 04 1d 	lw $4,16($29)
  403f40:	28 00 00 00 90 9f 02 1c 	lw $2,-24688($28)
  403f48:	28 00 00 00 10 00 03 02 	lw $3,16($2)
  403f50:	28 00 00 00 18 00 02 1d 	lw $2,24($29)
  403f58:	34 00 00 00 44 9f 04 1c 	sw $4,-24764($28)
  403f60:	5b 00 00 00 00 02 03 02 	slt $2,$2,$3
  403f68:	05 00 00 00 78 01 00 02 	beq $2,$0,404550 <cmd_exec+0x34a0>
  403f70:	28 00 00 00 18 00 04 1d 	lw $4,24($29)
  403f78:	02 00 00 00 e2 13 10 00 	jal 404f88 <restorelist>
  403f80:	01 00 00 00 54 11 10 00 	j 404550 <cmd_exec+0x34a0>
  403f88:	28 00 00 00 38 00 07 1d 	lw $7,56($29)
  403f90:	4f 00 00 00 00 10 02 07 	andi $2,$7,4096
  403f98:	06 00 00 00 36 00 00 02 	bne $2,$0,404078 <cmd_exec+0x2fc8>
  403fa0:	28 00 00 00 10 94 02 1c 	lw $2,-27632($28)
  403fa8:	28 00 00 00 14 94 03 1c 	lw $3,-27628($28)
  403fb0:	51 00 00 00 00 10 07 07 	ori $7,$7,4096
  403fb8:	34 00 00 00 38 00 07 1d 	sw $7,56($29)
  403fc0:	43 00 00 00 01 00 02 02 	addiu $2,$2,1
  403fc8:	34 00 00 00 10 94 02 1c 	sw $2,-27632($28)
  403fd0:	5b 00 00 00 00 02 03 02 	slt $2,$2,$3
  403fd8:	06 00 00 00 10 00 00 02 	bne $2,$0,404020 <cmd_exec+0x2f70>
  403fe0:	28 00 00 00 a4 9f 04 1c 	lw $4,-24668($28)
  403fe8:	43 00 00 00 80 00 02 03 	addiu $2,$3,128
  403ff0:	55 00 00 00 03 05 02 00 	sll $5,$2,0x3
  403ff8:	45 00 00 00 00 05 02 05 	subu $5,$5,$2
  404000:	55 00 00 00 04 05 05 00 	sll $5,$5,0x4
  404008:	34 00 00 00 14 94 02 1c 	sw $2,-27628($28)
  404010:	02 00 00 00 16 60 11 00 	jal 458058 <saferealloc>
  404018:	34 00 00 00 a4 9f 02 1c 	sw $2,-24668($28)
  404020:	28 00 00 00 10 94 03 1c 	lw $3,-27632($28)
  404028:	28 00 00 00 a4 9f 05 1c 	lw $5,-24668($28)
  404030:	28 00 00 00 28 00 07 1d 	lw $7,40($29)
  404038:	28 00 00 00 78 00 04 1d 	lw $4,120($29)
  404040:	55 00 00 00 03 02 03 00 	sll $2,$3,0x3
  404048:	45 00 00 00 00 02 03 02 	subu $2,$2,$3
  404050:	28 00 00 00 18 00 03 07 	lw $3,24($7)
  404058:	55 00 00 00 04 02 02 00 	sll $2,$2,0x4
  404060:	42 00 00 00 00 02 05 02 	addu $2,$2,$5
  404068:	34 00 00 00 00 00 03 02 	sw $3,0($2)
  404070:	34 00 00 00 04 00 04 02 	sw $4,4($2)
  404078:	28 00 00 00 28 00 07 1d 	lw $7,40($29)
  404080:	34 00 00 00 70 00 07 1d 	sw $7,112($29)
  404088:	28 00 00 00 10 94 02 1c 	lw $2,-27632($28)
  404090:	28 00 00 00 a4 9f 03 1c 	lw $3,-24668($28)
  404098:	55 00 00 00 03 04 02 00 	sll $4,$2,0x3
  4040a0:	45 00 00 00 00 04 02 04 	subu $4,$4,$2
  4040a8:	55 00 00 00 04 04 04 00 	sll $4,$4,0x4
  4040b0:	42 00 00 00 00 04 03 04 	addu $4,$4,$3
  4040b8:	43 00 00 00 08 00 04 04 	addiu $4,$4,8
  4040c0:	02 00 00 00 74 82 11 00 	jal 4609d0 <__setjmp>
  4040c8:	42 00 00 00 00 11 02 00 	addu $17,$0,$2
  4040d0:	05 00 00 00 7c 00 00 11 	beq $17,$0,4042c8 <cmd_exec+0x3218>
  4040d8:	28 00 00 00 70 00 07 1d 	lw $7,112($29)
  4040e0:	34 00 00 00 28 00 07 1d 	sw $7,40($29)
  4040e8:	26 00 00 00 26 00 03 07 	lhu $3,38($7)
  4040f0:	28 00 00 00 18 94 07 1c 	lw $7,-27624($28)
  4040f8:	28 00 00 00 6c 9f 02 1c 	lw $2,-24724($28)
  404100:	28 00 00 00 90 9f 04 1c 	lw $4,-24688($28)
  404108:	34 00 00 00 40 00 07 1d 	sw $7,64($29)
  404110:	28 00 00 00 00 00 02 02 	lw $2,0($2)
  404118:	51 00 00 00 00 10 03 03 	ori $3,$3,4096
  404120:	34 00 00 00 50 00 02 1d 	sw $2,80($29)
  404128:	28 00 00 00 10 00 04 04 	lw $4,16($4)
  404130:	28 00 00 00 18 00 02 1d 	lw $2,24($29)
  404138:	55 00 00 00 10 03 03 00 	sll $3,$3,0x10
  404140:	59 00 00 00 10 03 03 00 	sra $3,$3,0x10
  404148:	5b 00 00 00 00 02 04 02 	slt $2,$2,$4
  404150:	34 00 00 00 38 00 03 1d 	sw $3,56($29)
  404158:	05 00 00 00 04 00 00 02 	beq $2,$0,404170 <cmd_exec+0x30c0>
  404160:	28 00 00 00 18 00 04 1d 	lw $4,24($29)
  404168:	02 00 00 00 e2 13 10 00 	jal 404f88 <restorelist>
  404170:	43 00 00 00 71 00 02 00 	addiu $2,$0,113
  404178:	05 00 00 00 3a 00 02 11 	beq $17,$2,404268 <cmd_exec+0x31b8>
  404180:	5c 00 00 00 72 00 02 11 	slti $2,$17,114
  404188:	05 00 00 00 06 00 00 02 	beq $2,$0,4041a8 <cmd_exec+0x30f8>
  404190:	43 00 00 00 70 00 02 00 	addiu $2,$0,112
  404198:	05 00 00 00 3e 00 02 11 	beq $17,$2,404298 <cmd_exec+0x31e8>
  4041a0:	01 00 00 00 6e 10 10 00 	j 4041b8 <cmd_exec+0x3108>
  4041a8:	43 00 00 00 72 00 02 00 	addiu $2,$0,114
  4041b0:	05 00 00 00 08 00 02 11 	beq $17,$2,4041d8 <cmd_exec+0x3128>
  4041b8:	a2 00 00 00 00 10 04 00 	lui $4,4096
  4041c0:	43 00 00 00 00 00 04 04 	addiu $4,$4,0
  4041c8:	42 00 00 00 00 05 11 00 	addu $5,$0,$17
  4041d0:	02 00 00 00 50 66 11 00 	jal 459940 <Myfatal>
  4041d8:	28 00 00 00 48 93 02 1c 	lw $2,-27832($28)
  4041e0:	05 00 00 00 08 00 00 02 	beq $2,$0,404208 <cmd_exec+0x3158>
  4041e8:	43 00 00 00 fe ff 07 00 	addiu $7,$0,-2
  4041f0:	34 00 00 00 30 00 02 1d 	sw $2,48($29)
  4041f8:	34 00 00 00 48 00 07 1d 	sw $7,72($29)
  404200:	01 00 00 00 94 10 10 00 	j 404250 <cmd_exec+0x31a0>
  404208:	28 00 00 00 78 00 03 1d 	lw $3,120($29)
  404210:	28 00 00 00 3c 9f 02 1c 	lw $2,-24772($28)
  404218:	28 00 00 00 50 00 07 1d 	lw $7,80($29)
  404220:	42 00 00 00 00 03 02 03 	addu $3,$3,$2
  404228:	55 00 00 00 02 02 03 00 	sll $2,$3,0x2
  404230:	42 00 00 00 00 02 07 02 	addu $2,$2,$7
  404238:	34 00 00 00 48 00 03 1d 	sw $3,72($29)
  404240:	28 00 00 00 00 00 02 02 	lw $2,0($2)
  404248:	34 00 00 00 30 00 02 1d 	sw $2,48($29)
  404250:	28 00 00 00 10 00 02 1d 	lw $2,16($29)
  404258:	34 00 00 00 44 9f 02 1c 	sw $2,-24764($28)
  404260:	01 00 00 00 60 11 10 00 	j 404580 <cmd_exec+0x34d0>
  404268:	43 00 00 00 fe ff 07 00 	addiu $7,$0,-2
  404270:	34 00 00 00 48 00 07 1d 	sw $7,72($29)
  404278:	a2 00 00 00 01 10 07 00 	lui $7,4097
  404280:	43 00 00 00 c0 20 07 07 	addiu $7,$7,8384
  404288:	34 00 00 00 30 00 07 1d 	sw $7,48($29)
  404290:	01 00 00 00 e2 10 10 00 	j 404388 <cmd_exec+0x32d8>
  404298:	43 00 00 00 fe ff 07 00 	addiu $7,$0,-2
  4042a0:	34 00 00 00 48 00 07 1d 	sw $7,72($29)
  4042a8:	a2 00 00 00 01 10 07 00 	lui $7,4097
  4042b0:	43 00 00 00 c0 20 07 07 	addiu $7,$7,8384
  4042b8:	34 00 00 00 30 00 07 1d 	sw $7,48($29)
  4042c0:	01 00 00 00 bc 10 10 00 	j 4042f0 <cmd_exec+0x3240>
  4042c8:	28 00 00 00 44 9f 02 1c 	lw $2,-24764($28)
  4042d0:	34 00 00 00 10 00 02 1d 	sw $2,16($29)
  4042d8:	28 00 00 00 90 9f 02 1c 	lw $2,-24688($28)
  4042e0:	28 00 00 00 10 00 02 02 	lw $2,16($2)
  4042e8:	34 00 00 00 18 00 02 1d 	sw $2,24($29)
  4042f0:	28 00 00 00 28 00 07 1d 	lw $7,40($29)
  4042f8:	28 00 00 00 1c 00 04 07 	lw $4,28($7)
  404300:	05 00 00 00 20 00 00 04 	beq $4,$0,404388 <cmd_exec+0x32d8>
  404308:	28 00 00 00 74 00 02 1d 	lw $2,116($29)
  404310:	42 00 00 00 00 05 00 00 	addu $5,$0,$0
  404318:	05 00 00 00 06 00 00 02 	beq $2,$0,404338 <cmd_exec+0x3288>
  404320:	28 00 00 00 38 00 07 1d 	lw $7,56($29)
  404328:	4f 00 00 00 00 40 02 07 	andi $2,$7,16384
  404330:	5d 00 00 00 00 05 02 00 	sltu $5,$0,$2
  404338:	28 00 00 00 78 00 06 1d 	lw $6,120($29)
  404340:	02 00 00 00 2c 04 10 00 	jal 4010b0 <cmd_exec>
  404348:	28 00 00 00 6c 9f 03 1c 	lw $3,-24724($28)
  404350:	28 00 00 00 00 00 03 03 	lw $3,0($3)
  404358:	34 00 00 00 48 00 02 1d 	sw $2,72($29)
  404360:	55 00 00 00 02 02 02 00 	sll $2,$2,0x2
  404368:	42 00 00 00 00 02 03 02 	addu $2,$2,$3
  404370:	34 00 00 00 50 00 03 1d 	sw $3,80($29)
  404378:	28 00 00 00 00 00 02 02 	lw $2,0($2)
  404380:	34 00 00 00 30 00 02 1d 	sw $2,48($29)
  404388:	28 00 00 00 28 00 07 1d 	lw $7,40($29)
  404390:	28 00 00 00 20 00 04 07 	lw $4,32($7)
  404398:	05 00 00 00 20 00 00 04 	beq $4,$0,404420 <cmd_exec+0x3370>
  4043a0:	28 00 00 00 74 00 02 1d 	lw $2,116($29)
  4043a8:	42 00 00 00 00 05 00 00 	addu $5,$0,$0
  4043b0:	05 00 00 00 06 00 00 02 	beq $2,$0,4043d0 <cmd_exec+0x3320>
  4043b8:	28 00 00 00 38 00 07 1d 	lw $7,56($29)
  4043c0:	4f 00 00 00 00 40 02 07 	andi $2,$7,16384
  4043c8:	5d 00 00 00 00 05 02 00 	sltu $5,$0,$2
  4043d0:	28 00 00 00 78 00 06 1d 	lw $6,120($29)
  4043d8:	02 00 00 00 2c 04 10 00 	jal 4010b0 <cmd_exec>
  4043e0:	28 00 00 00 6c 9f 03 1c 	lw $3,-24724($28)
  4043e8:	28 00 00 00 00 00 03 03 	lw $3,0($3)
  4043f0:	34 00 00 00 48 00 02 1d 	sw $2,72($29)
  4043f8:	55 00 00 00 02 02 02 00 	sll $2,$2,0x2
  404400:	42 00 00 00 00 02 03 02 	addu $2,$2,$3
  404408:	34 00 00 00 50 00 03 1d 	sw $3,80($29)
  404410:	28 00 00 00 00 00 02 02 	lw $2,0($2)
  404418:	34 00 00 00 30 00 02 1d 	sw $2,48($29)
  404420:	28 00 00 00 10 00 04 1d 	lw $4,16($29)
  404428:	28 00 00 00 90 9f 02 1c 	lw $2,-24688($28)
  404430:	28 00 00 00 10 00 03 02 	lw $3,16($2)
  404438:	28 00 00 00 18 00 02 1d 	lw $2,24($29)
  404440:	34 00 00 00 44 9f 04 1c 	sw $4,-24764($28)
  404448:	5b 00 00 00 00 02 03 02 	slt $2,$2,$3
  404450:	05 00 00 00 36 00 00 02 	beq $2,$0,404530 <cmd_exec+0x3480>
  404458:	28 00 00 00 38 00 07 1d 	lw $7,56($29)
  404460:	4f 00 00 00 00 40 02 07 	andi $2,$7,16384
  404468:	05 00 00 00 2c 00 00 02 	beq $2,$0,404520 <cmd_exec+0x3470>
  404470:	28 00 00 00 78 00 02 1d 	lw $2,120($29)
  404478:	28 00 00 00 48 00 07 1d 	lw $7,72($29)
  404480:	43 00 00 00 01 00 11 02 	addiu $17,$2,1
  404488:	5b 00 00 00 00 02 11 07 	slt $2,$7,$17
  404490:	06 00 00 00 16 00 00 02 	bne $2,$0,4044f0 <cmd_exec+0x3440>
  404498:	28 00 00 00 50 00 07 1d 	lw $7,80($29)
  4044a0:	55 00 00 00 02 02 11 00 	sll $2,$17,0x2
  4044a8:	42 00 00 00 00 10 07 02 	addu $16,$2,$7
  4044b0:	28 00 00 00 00 00 04 10 	lw $4,0($16)
  4044b8:	02 00 00 00 c8 17 11 00 	jal 445f20 <str_mortal>
  4044c0:	34 00 00 00 00 00 02 10 	sw $2,0($16)
  4044c8:	28 00 00 00 48 00 07 1d 	lw $7,72($29)
  4044d0:	43 00 00 00 01 00 11 11 	addiu $17,$17,1
  4044d8:	43 00 00 00 04 00 10 10 	addiu $16,$16,4
  4044e0:	5b 00 00 00 00 02 11 07 	slt $2,$7,$17
  4044e8:	05 00 00 00 f0 ff 00 02 	beq $2,$0,4044b0 <cmd_exec+0x3400>
  4044f0:	28 00 00 00 48 00 07 1d 	lw $7,72($29)
  4044f8:	55 00 00 00 02 02 07 00 	sll $2,$7,0x2
  404500:	28 00 00 00 50 00 07 1d 	lw $7,80($29)
  404508:	42 00 00 00 00 02 07 02 	addu $2,$2,$7
  404510:	28 00 00 00 00 00 02 02 	lw $2,0($2)
  404518:	34 00 00 00 30 00 02 1d 	sw $2,48($29)
  404520:	28 00 00 00 18 00 04 1d 	lw $4,24($29)
  404528:	02 00 00 00 e2 13 10 00 	jal 404f88 <restorelist>
  404530:	28 00 00 00 28 00 07 1d 	lw $7,40($29)
  404538:	20 00 00 00 32 00 03 07 	lb $3,50($7)
  404540:	43 00 00 00 04 00 02 00 	addiu $2,$0,4
  404548:	06 00 00 00 3e f5 02 03 	bne $3,$2,401a48 <cmd_exec+0x998>
  404550:	28 00 00 00 38 00 07 1d 	lw $7,56($29)
  404558:	4f 00 00 00 00 04 02 07 	andi $2,$7,1024
  404560:	05 00 00 00 06 00 00 02 	beq $2,$0,404580 <cmd_exec+0x34d0>
  404568:	51 00 00 00 00 02 07 07 	ori $7,$7,512
  404570:	34 00 00 00 38 00 07 1d 	sw $7,56($29)
  404578:	01 00 00 00 92 06 10 00 	j 401a48 <cmd_exec+0x998>
  404580:	28 00 00 00 38 00 07 1d 	lw $7,56($29)
  404588:	4f 00 00 00 00 10 02 07 	andi $2,$7,4096
  404590:	05 00 00 00 1a 00 00 02 	beq $2,$0,404600 <cmd_exec+0x3550>
  404598:	28 00 00 00 10 94 02 1c 	lw $2,-27632($28)
  4045a0:	4f 00 00 00 3f 00 03 07 	andi $3,$7,63
  4045a8:	43 00 00 00 ff ff 02 02 	addiu $2,$2,-1
  4045b0:	34 00 00 00 10 94 02 1c 	sw $2,-27632($28)
  4045b8:	43 00 00 00 0a 00 02 00 	addiu $2,$0,10
  4045c0:	06 00 00 00 0e 00 02 03 	bne $3,$2,404600 <cmd_exec+0x3550>
  4045c8:	28 00 00 00 90 9f 02 1c 	lw $2,-24688($28)
  4045d0:	28 00 00 00 10 00 03 02 	lw $3,16($2)
  4045d8:	28 00 00 00 1c 00 02 1d 	lw $2,28($29)
  4045e0:	5b 00 00 00 00 02 03 02 	slt $2,$2,$3
  4045e8:	05 00 00 00 04 00 00 02 	beq $2,$0,404600 <cmd_exec+0x3550>
  4045f0:	28 00 00 00 1c 00 04 1d 	lw $4,28($29)
  4045f8:	02 00 00 00 e2 13 10 00 	jal 404f88 <restorelist>
  404600:	28 00 00 00 28 00 07 1d 	lw $7,40($29)
  404608:	28 00 00 00 00 00 07 07 	lw $7,0($7)
  404610:	34 00 00 00 28 00 07 1d 	sw $7,40($29)
  404618:	01 00 00 00 5e 04 10 00 	j 401178 <cmd_exec+0xc8>
  404620:	28 00 00 00 64 00 1f 1d 	lw $31,100($29)
  404628:	28 00 00 00 60 00 12 1d 	lw $18,96($29)
  404630:	28 00 00 00 5c 00 11 1d 	lw $17,92($29)
  404638:	28 00 00 00 58 00 10 1d 	lw $16,88($29)
  404640:	2b 00 00 00 68 00 14 1d 	l.d $f20,104($29)
  404648:	43 00 00 00 70 00 1d 1d 	addiu $29,$29,112
  404650:	03 00 00 00 00 00 00 1f 	jr $31

00404658 <copyopt>:
  404658:	26 00 00 00 26 00 02 04 	lhu $2,38($4)
  404660:	4f 00 00 00 00 16 02 02 	andi $2,$2,5632
  404668:	32 00 00 00 26 00 02 04 	sh $2,38($4)
  404670:	26 00 00 00 26 00 02 04 	lhu $2,38($4)
  404678:	26 00 00 00 26 00 03 05 	lhu $3,38($5)
  404680:	50 00 00 00 00 02 03 02 	or $2,$2,$3
  404688:	32 00 00 00 26 00 02 04 	sh $2,38($4)
  404690:	28 00 00 00 0c 00 02 05 	lw $2,12($5)
  404698:	34 00 00 00 0c 00 02 04 	sw $2,12($4)
  4046a0:	26 00 00 00 24 00 02 05 	lhu $2,36($5)
  4046a8:	32 00 00 00 24 00 02 04 	sh $2,36($4)
  4046b0:	26 00 00 00 26 00 02 04 	lhu $2,38($4)
  4046b8:	28 00 00 00 10 00 03 05 	lw $3,16($5)
  4046c0:	55 00 00 00 10 02 02 00 	sll $2,$2,0x10
  4046c8:	59 00 00 00 10 02 02 00 	sra $2,$2,0x10
  4046d0:	34 00 00 00 10 00 03 04 	sw $3,16($4)
  4046d8:	03 00 00 00 00 00 00 1f 	jr $31

004046e0 <saveary>:
  4046e0:	43 00 00 00 e0 ff 1d 1d 	addiu $29,$29,-32
  4046e8:	34 00 00 00 14 00 11 1d 	sw $17,20($29)
  4046f0:	42 00 00 00 00 11 04 00 	addu $17,$0,$4
  4046f8:	42 00 00 00 00 04 00 00 	addu $4,$0,$0
  404700:	34 00 00 00 18 00 1f 1d 	sw $31,24($29)
  404708:	34 00 00 00 10 00 10 1d 	sw $16,16($29)
  404710:	02 00 00 00 18 fa 10 00 	jal 43e860 <str_new>
  404718:	42 00 00 00 00 10 02 00 	addu $16,$0,$2
  404720:	28 00 00 00 00 00 04 10 	lw $4,0($16)
  404728:	43 00 00 00 02 00 02 00 	addiu $2,$0,2
  404730:	30 00 00 00 1b 00 02 10 	sb $2,27($16)
  404738:	34 00 00 00 08 00 11 10 	sw $17,8($16)
  404740:	05 00 00 00 06 00 00 04 	beq $4,$0,404760 <saveary+0x80>
  404748:	02 00 00 00 54 60 11 00 	jal 458150 <safefree>
  404750:	34 00 00 00 00 00 00 10 	sw $0,0($16)
  404758:	34 00 00 00 04 00 00 10 	sw $0,4($16)
  404760:	28 00 00 00 00 00 02 11 	lw $2,0($17)
  404768:	28 00 00 00 10 00 02 02 	lw $2,16($2)
  404770:	06 00 00 00 08 00 00 02 	bne $2,$0,404798 <saveary+0xb8>
  404778:	42 00 00 00 00 04 11 00 	addu $4,$0,$17
  404780:	02 00 00 00 78 ee 10 00 	jal 43b9e0 <aadd>
  404788:	28 00 00 00 00 00 02 02 	lw $2,0($2)
  404790:	28 00 00 00 10 00 02 02 	lw $2,16($2)
  404798:	28 00 00 00 90 9f 04 1c 	lw $4,-24688($28)
  4047a0:	42 00 00 00 00 05 10 00 	addu $5,$0,$16
  4047a8:	34 00 00 00 00 00 02 10 	sw $2,0($16)
  4047b0:	02 00 00 00 3e 03 10 00 	jal 400cf8 <apush>
  4047b8:	28 00 00 00 00 00 02 11 	lw $2,0($17)
  4047c0:	42 00 00 00 00 04 11 00 	addu $4,$0,$17
  4047c8:	34 00 00 00 10 00 00 02 	sw $0,16($2)
  4047d0:	02 00 00 00 78 ee 10 00 	jal 43b9e0 <aadd>
  4047d8:	28 00 00 00 00 00 02 02 	lw $2,0($2)
  4047e0:	28 00 00 00 10 00 02 02 	lw $2,16($2)
  4047e8:	28 00 00 00 18 00 1f 1d 	lw $31,24($29)
  4047f0:	28 00 00 00 14 00 11 1d 	lw $17,20($29)
  4047f8:	28 00 00 00 10 00 10 1d 	lw $16,16($29)
  404800:	43 00 00 00 20 00 1d 1d 	addiu $29,$29,32
  404808:	03 00 00 00 00 00 00 1f 	jr $31

00404810 <savehash>:
  404810:	43 00 00 00 e0 ff 1d 1d 	addiu $29,$29,-32
  404818:	34 00 00 00 14 00 11 1d 	sw $17,20($29)
  404820:	42 00 00 00 00 11 04 00 	addu $17,$0,$4
  404828:	42 00 00 00 00 04 00 00 	addu $4,$0,$0
  404830:	34 00 00 00 18 00 1f 1d 	sw $31,24($29)
  404838:	34 00 00 00 10 00 10 1d 	sw $16,16($29)
  404840:	02 00 00 00 18 fa 10 00 	jal 43e860 <str_new>
  404848:	42 00 00 00 00 10 02 00 	addu $16,$0,$2
  404850:	28 00 00 00 00 00 04 10 	lw $4,0($16)
  404858:	43 00 00 00 03 00 02 00 	addiu $2,$0,3
  404860:	30 00 00 00 1b 00 02 10 	sb $2,27($16)
  404868:	34 00 00 00 08 00 11 10 	sw $17,8($16)
  404870:	05 00 00 00 06 00 00 04 	beq $4,$0,404890 <savehash+0x80>
  404878:	02 00 00 00 54 60 11 00 	jal 458150 <safefree>
  404880:	34 00 00 00 00 00 00 10 	sw $0,0($16)
  404888:	34 00 00 00 04 00 00 10 	sw $0,4($16)
  404890:	28 00 00 00 00 00 02 11 	lw $2,0($17)
  404898:	28 00 00 00 14 00 02 02 	lw $2,20($2)
  4048a0:	06 00 00 00 08 00 00 02 	bne $2,$0,4048c8 <savehash+0xb8>
  4048a8:	42 00 00 00 00 04 11 00 	addu $4,$0,$17
  4048b0:	02 00 00 00 96 ee 10 00 	jal 43ba58 <hadd>
  4048b8:	28 00 00 00 00 00 02 02 	lw $2,0($2)
  4048c0:	28 00 00 00 14 00 02 02 	lw $2,20($2)
  4048c8:	28 00 00 00 90 9f 04 1c 	lw $4,-24688($28)
  4048d0:	42 00 00 00 00 05 10 00 	addu $5,$0,$16
  4048d8:	34 00 00 00 00 00 02 10 	sw $2,0($16)
  4048e0:	02 00 00 00 3e 03 10 00 	jal 400cf8 <apush>
  4048e8:	28 00 00 00 00 00 02 11 	lw $2,0($17)
  4048f0:	42 00 00 00 00 04 11 00 	addu $4,$0,$17
  4048f8:	34 00 00 00 14 00 00 02 	sw $0,20($2)
  404900:	02 00 00 00 96 ee 10 00 	jal 43ba58 <hadd>
  404908:	28 00 00 00 00 00 02 02 	lw $2,0($2)
  404910:	28 00 00 00 14 00 02 02 	lw $2,20($2)
  404918:	28 00 00 00 18 00 1f 1d 	lw $31,24($29)
  404920:	28 00 00 00 14 00 11 1d 	lw $17,20($29)
  404928:	28 00 00 00 10 00 10 1d 	lw $16,16($29)
  404930:	43 00 00 00 20 00 1d 1d 	addiu $29,$29,32
  404938:	03 00 00 00 00 00 00 1f 	jr $31

00404940 <saveitem>:
  404940:	43 00 00 00 e0 ff 1d 1d 	addiu $29,$29,-32
  404948:	34 00 00 00 14 00 11 1d 	sw $17,20($29)
  404950:	42 00 00 00 00 11 04 00 	addu $17,$0,$4
  404958:	28 00 00 00 90 9f 04 1c 	lw $4,-24688($28)
  404960:	42 00 00 00 00 05 11 00 	addu $5,$0,$17
  404968:	34 00 00 00 18 00 1f 1d 	sw $31,24($29)
  404970:	34 00 00 00 10 00 10 1d 	sw $16,16($29)
  404978:	02 00 00 00 3e 03 10 00 	jal 400cf8 <apush>
  404980:	42 00 00 00 00 04 00 00 	addu $4,$0,$0
  404988:	02 00 00 00 18 fa 10 00 	jal 43e860 <str_new>
  404990:	42 00 00 00 00 10 02 00 	addu $16,$0,$2
  404998:	42 00 00 00 00 04 10 00 	addu $4,$0,$16
  4049a0:	42 00 00 00 00 05 11 00 	addu $5,$0,$17
  4049a8:	02 00 00 00 66 f4 10 00 	jal 43d198 <str_sset>
  4049b0:	28 00 00 00 90 9f 04 1c 	lw $4,-24688($28)
  4049b8:	42 00 00 00 00 05 10 00 	addu $5,$0,$16
  4049c0:	02 00 00 00 3e 03 10 00 	jal 400cf8 <apush>
  4049c8:	28 00 00 00 18 00 1f 1d 	lw $31,24($29)
  4049d0:	28 00 00 00 14 00 11 1d 	lw $17,20($29)
  4049d8:	28 00 00 00 10 00 10 1d 	lw $16,16($29)
  4049e0:	43 00 00 00 20 00 1d 1d 	addiu $29,$29,32
  4049e8:	03 00 00 00 00 00 00 1f 	jr $31

004049f0 <saveint>:
  4049f0:	43 00 00 00 e0 ff 1d 1d 	addiu $29,$29,-32
  4049f8:	34 00 00 00 14 00 11 1d 	sw $17,20($29)
  404a00:	42 00 00 00 00 11 04 00 	addu $17,$0,$4
  404a08:	42 00 00 00 00 04 00 00 	addu $4,$0,$0
  404a10:	34 00 00 00 18 00 1f 1d 	sw $31,24($29)
  404a18:	34 00 00 00 10 00 10 1d 	sw $16,16($29)
  404a20:	02 00 00 00 18 fa 10 00 	jal 43e860 <str_new>
  404a28:	42 00 00 00 00 10 02 00 	addu $16,$0,$2
  404a30:	43 00 00 00 04 00 02 00 	addiu $2,$0,4
  404a38:	30 00 00 00 1b 00 02 10 	sb $2,27($16)
  404a40:	28 00 00 00 00 00 02 11 	lw $2,0($17)
  404a48:	28 00 00 00 00 00 04 10 	lw $4,0($16)
  404a50:	34 00 00 00 08 00 02 10 	sw $2,8($16)
  404a58:	05 00 00 00 04 00 00 04 	beq $4,$0,404a70 <saveint+0x80>
  404a60:	02 00 00 00 54 60 11 00 	jal 458150 <safefree>
  404a68:	34 00 00 00 04 00 00 10 	sw $0,4($16)
  404a70:	28 00 00 00 90 9f 04 1c 	lw $4,-24688($28)
  404a78:	42 00 00 00 00 05 10 00 	addu $5,$0,$16
  404a80:	34 00 00 00 00 00 11 10 	sw $17,0($16)
  404a88:	02 00 00 00 3e 03 10 00 	jal 400cf8 <apush>
  404a90:	28 00 00 00 18 00 1f 1d 	lw $31,24($29)
  404a98:	28 00 00 00 14 00 11 1d 	lw $17,20($29)
  404aa0:	28 00 00 00 10 00 10 1d 	lw $16,16($29)
  404aa8:	43 00 00 00 20 00 1d 1d 	addiu $29,$29,32
  404ab0:	03 00 00 00 00 00 00 1f 	jr $31

00404ab8 <savelong>:
  404ab8:	43 00 00 00 e0 ff 1d 1d 	addiu $29,$29,-32
  404ac0:	34 00 00 00 14 00 11 1d 	sw $17,20($29)
  404ac8:	42 00 00 00 00 11 04 00 	addu $17,$0,$4
  404ad0:	42 00 00 00 00 04 00 00 	addu $4,$0,$0
  404ad8:	34 00 00 00 18 00 1f 1d 	sw $31,24($29)
  404ae0:	34 00 00 00 10 00 10 1d 	sw $16,16($29)
  404ae8:	02 00 00 00 18 fa 10 00 	jal 43e860 <str_new>
  404af0:	42 00 00 00 00 10 02 00 	addu $16,$0,$2
  404af8:	43 00 00 00 05 00 02 00 	addiu $2,$0,5
  404b00:	30 00 00 00 1b 00 02 10 	sb $2,27($16)
  404b08:	28 00 00 00 00 00 02 11 	lw $2,0($17)
  404b10:	28 00 00 00 00 00 04 10 	lw $4,0($16)
  404b18:	34 00 00 00 08 00 02 10 	sw $2,8($16)
  404b20:	05 00 00 00 04 00 00 04 	beq $4,$0,404b38 <savelong+0x80>
  404b28:	02 00 00 00 54 60 11 00 	jal 458150 <safefree>
  404b30:	34 00 00 00 04 00 00 10 	sw $0,4($16)
  404b38:	28 00 00 00 90 9f 04 1c 	lw $4,-24688($28)
  404b40:	42 00 00 00 00 05 10 00 	addu $5,$0,$16
  404b48:	34 00 00 00 00 00 11 10 	sw $17,0($16)
  404b50:	02 00 00 00 3e 03 10 00 	jal 400cf8 <apush>
  404b58:	28 00 00 00 18 00 1f 1d 	lw $31,24($29)
  404b60:	28 00 00 00 14 00 11 1d 	lw $17,20($29)
  404b68:	28 00 00 00 10 00 10 1d 	lw $16,16($29)
  404b70:	43 00 00 00 20 00 1d 1d 	addiu $29,$29,32
  404b78:	03 00 00 00 00 00 00 1f 	jr $31

00404b80 <savesptr>:
  404b80:	43 00 00 00 e0 ff 1d 1d 	addiu $29,$29,-32
  404b88:	34 00 00 00 14 00 11 1d 	sw $17,20($29)
  404b90:	42 00 00 00 00 11 04 00 	addu $17,$0,$4
  404b98:	42 00 00 00 00 04 00 00 	addu $4,$0,$0
  404ba0:	34 00 00 00 18 00 1f 1d 	sw $31,24($29)
  404ba8:	34 00 00 00 10 00 10 1d 	sw $16,16($29)
  404bb0:	02 00 00 00 18 fa 10 00 	jal 43e860 <str_new>
  404bb8:	42 00 00 00 00 10 02 00 	addu $16,$0,$2
  404bc0:	43 00 00 00 06 00 02 00 	addiu $2,$0,6
  404bc8:	30 00 00 00 1b 00 02 10 	sb $2,27($16)
  404bd0:	28 00 00 00 00 00 02 11 	lw $2,0($17)
  404bd8:	28 00 00 00 00 00 04 10 	lw $4,0($16)
  404be0:	34 00 00 00 14 00 02 10 	sw $2,20($16)
  404be8:	05 00 00 00 04 00 00 04 	beq $4,$0,404c00 <savesptr+0x80>
  404bf0:	02 00 00 00 54 60 11 00 	jal 458150 <safefree>
  404bf8:	34 00 00 00 04 00 00 10 	sw $0,4($16)
  404c00:	28 00 00 00 90 9f 04 1c 	lw $4,-24688($28)
  404c08:	42 00 00 00 00 05 10 00 	addu $5,$0,$16
  404c10:	34 00 00 00 00 00 11 10 	sw $17,0($16)
  404c18:	02 00 00 00 3e 03 10 00 	jal 400cf8 <apush>
  404c20:	28 00 00 00 18 00 1f 1d 	lw $31,24($29)
  404c28:	28 00 00 00 14 00 11 1d 	lw $17,20($29)
  404c30:	28 00 00 00 10 00 10 1d 	lw $16,16($29)
  404c38:	43 00 00 00 20 00 1d 1d 	addiu $29,$29,32
  404c40:	03 00 00 00 00 00 00 1f 	jr $31

00404c48 <savenostab>:
  404c48:	43 00 00 00 e8 ff 1d 1d 	addiu $29,$29,-24
  404c50:	34 00 00 00 10 00 10 1d 	sw $16,16($29)
  404c58:	42 00 00 00 00 10 04 00 	addu $16,$0,$4
  404c60:	42 00 00 00 00 04 00 00 	addu $4,$0,$0
  404c68:	34 00 00 00 14 00 1f 1d 	sw $31,20($29)
  404c70:	02 00 00 00 18 fa 10 00 	jal 43e860 <str_new>
  404c78:	43 00 00 00 08 00 03 00 	addiu $3,$0,8
  404c80:	30 00 00 00 1b 00 03 02 	sb $3,27($2)
  404c88:	28 00 00 00 90 9f 04 1c 	lw $4,-24688($28)
  404c90:	42 00 00 00 00 05 02 00 	addu $5,$0,$2
  404c98:	34 00 00 00 14 00 10 02 	sw $16,20($2)
  404ca0:	02 00 00 00 3e 03 10 00 	jal 400cf8 <apush>
  404ca8:	28 00 00 00 14 00 1f 1d 	lw $31,20($29)
  404cb0:	28 00 00 00 10 00 10 1d 	lw $16,16($29)
  404cb8:	43 00 00 00 18 00 1d 1d 	addiu $29,$29,24
  404cc0:	03 00 00 00 00 00 00 1f 	jr $31

00404cc8 <savehptr>:
  404cc8:	43 00 00 00 e0 ff 1d 1d 	addiu $29,$29,-32
  404cd0:	34 00 00 00 14 00 11 1d 	sw $17,20($29)
  404cd8:	42 00 00 00 00 11 04 00 	addu $17,$0,$4
  404ce0:	42 00 00 00 00 04 00 00 	addu $4,$0,$0
  404ce8:	34 00 00 00 18 00 1f 1d 	sw $31,24($29)
  404cf0:	34 00 00 00 10 00 10 1d 	sw $16,16($29)
  404cf8:	02 00 00 00 18 fa 10 00 	jal 43e860 <str_new>
  404d00:	42 00 00 00 00 10 02 00 	addu $16,$0,$2
  404d08:	43 00 00 00 07 00 02 00 	addiu $2,$0,7
  404d10:	30 00 00 00 1b 00 02 10 	sb $2,27($16)
  404d18:	28 00 00 00 00 00 02 11 	lw $2,0($17)
  404d20:	28 00 00 00 00 00 04 10 	lw $4,0($16)
  404d28:	34 00 00 00 08 00 02 10 	sw $2,8($16)
  404d30:	05 00 00 00 04 00 00 04 	beq $4,$0,404d48 <savehptr+0x80>
  404d38:	02 00 00 00 54 60 11 00 	jal 458150 <safefree>
  404d40:	34 00 00 00 04 00 00 10 	sw $0,4($16)
  404d48:	28 00 00 00 90 9f 04 1c 	lw $4,-24688($28)
  404d50:	42 00 00 00 00 05 10 00 	addu $5,$0,$16
  404d58:	34 00 00 00 00 00 11 10 	sw $17,0($16)
  404d60:	02 00 00 00 3e 03 10 00 	jal 400cf8 <apush>
  404d68:	28 00 00 00 18 00 1f 1d 	lw $31,24($29)
  404d70:	28 00 00 00 14 00 11 1d 	lw $17,20($29)
  404d78:	28 00 00 00 10 00 10 1d 	lw $16,16($29)
  404d80:	43 00 00 00 20 00 1d 1d 	addiu $29,$29,32
  404d88:	03 00 00 00 00 00 00 1f 	jr $31

00404d90 <saveaptr>:
  404d90:	43 00 00 00 e0 ff 1d 1d 	addiu $29,$29,-32
  404d98:	34 00 00 00 14 00 11 1d 	sw $17,20($29)
  404da0:	42 00 00 00 00 11 04 00 	addu $17,$0,$4
  404da8:	42 00 00 00 00 04 00 00 	addu $4,$0,$0
  404db0:	34 00 00 00 18 00 1f 1d 	sw $31,24($29)
  404db8:	34 00 00 00 10 00 10 1d 	sw $16,16($29)
  404dc0:	02 00 00 00 18 fa 10 00 	jal 43e860 <str_new>
  404dc8:	42 00 00 00 00 10 02 00 	addu $16,$0,$2
  404dd0:	43 00 00 00 0a 00 02 00 	addiu $2,$0,10
  404dd8:	30 00 00 00 1b 00 02 10 	sb $2,27($16)
  404de0:	28 00 00 00 00 00 02 11 	lw $2,0($17)
  404de8:	28 00 00 00 00 00 04 10 	lw $4,0($16)
  404df0:	34 00 00 00 08 00 02 10 	sw $2,8($16)
  404df8:	05 00 00 00 04 00 00 04 	beq $4,$0,404e10 <saveaptr+0x80>
  404e00:	02 00 00 00 54 60 11 00 	jal 458150 <safefree>
  404e08:	34 00 00 00 04 00 00 10 	sw $0,4($16)
  404e10:	28 00 00 00 90 9f 04 1c 	lw $4,-24688($28)
  404e18:	42 00 00 00 00 05 10 00 	addu $5,$0,$16
  404e20:	34 00 00 00 00 00 11 10 	sw $17,0($16)
  404e28:	02 00 00 00 3e 03 10 00 	jal 400cf8 <apush>
  404e30:	28 00 00 00 18 00 1f 1d 	lw $31,24($29)
  404e38:	28 00 00 00 14 00 11 1d 	lw $17,20($29)
  404e40:	28 00 00 00 10 00 10 1d 	lw $16,16($29)
  404e48:	43 00 00 00 20 00 1d 1d 	addiu $29,$29,32
  404e50:	03 00 00 00 00 00 00 1f 	jr $31

00404e58 <savelist>:
  404e58:	43 00 00 00 d8 ff 1d 1d 	addiu $29,$29,-40
  404e60:	34 00 00 00 1c 00 13 1d 	sw $19,28($29)
  404e68:	42 00 00 00 00 13 05 00 	addu $19,$0,$5
  404e70:	34 00 00 00 18 00 12 1d 	sw $18,24($29)
  404e78:	43 00 00 00 01 00 12 00 	addiu $18,$0,1
  404e80:	34 00 00 00 24 00 1f 1d 	sw $31,36($29)
  404e88:	34 00 00 00 20 00 14 1d 	sw $20,32($29)
  404e90:	34 00 00 00 14 00 11 1d 	sw $17,20($29)
  404e98:	34 00 00 00 10 00 10 1d 	sw $16,16($29)
  404ea0:	07 00 00 00 28 00 00 13 	blez $19,404f48 <savelist+0xf0>
  404ea8:	43 00 00 00 ff ff 14 00 	addiu $20,$0,-1
  404eb0:	43 00 00 00 04 00 11 04 	addiu $17,$4,4
  404eb8:	28 00 00 00 90 9f 04 1c 	lw $4,-24688($28)
  404ec0:	28 00 00 00 00 00 05 11 	lw $5,0($17)
  404ec8:	02 00 00 00 3e 03 10 00 	jal 400cf8 <apush>
  404ed0:	42 00 00 00 00 04 00 00 	addu $4,$0,$0
  404ed8:	02 00 00 00 18 fa 10 00 	jal 43e860 <str_new>
  404ee0:	28 00 00 00 00 00 05 11 	lw $5,0($17)
  404ee8:	42 00 00 00 00 10 02 00 	addu $16,$0,$2
  404ef0:	42 00 00 00 00 04 10 00 	addu $4,$0,$16
  404ef8:	02 00 00 00 66 f4 10 00 	jal 43d198 <str_sset>
  404f00:	28 00 00 00 90 9f 04 1c 	lw $4,-24688($28)
  404f08:	42 00 00 00 00 05 10 00 	addu $5,$0,$16
  404f10:	02 00 00 00 3e 03 10 00 	jal 400cf8 <apush>
  404f18:	28 00 00 00 00 00 02 11 	lw $2,0($17)
  404f20:	43 00 00 00 01 00 12 12 	addiu $18,$18,1
  404f28:	43 00 00 00 04 00 11 11 	addiu $17,$17,4
  404f30:	34 00 00 00 08 00 14 02 	sw $20,8($2)
  404f38:	5b 00 00 00 00 02 12 13 	slt $2,$19,$18
  404f40:	05 00 00 00 dc ff 00 02 	beq $2,$0,404eb8 <savelist+0x60>
  404f48:	28 00 00 00 24 00 1f 1d 	lw $31,36($29)
  404f50:	28 00 00 00 20 00 14 1d 	lw $20,32($29)
  404f58:	28 00 00 00 1c 00 13 1d 	lw $19,28($29)
  404f60:	28 00 00 00 18 00 12 1d 	lw $18,24($29)
  404f68:	28 00 00 00 14 00 11 1d 	lw $17,20($29)
  404f70:	28 00 00 00 10 00 10 1d 	lw $16,16($29)
  404f78:	43 00 00 00 28 00 1d 1d 	addiu $29,$29,40
  404f80:	03 00 00 00 00 00 00 1f 	jr $31

00404f88 <restorelist>:
  404f88:	43 00 00 00 e0 ff 1d 1d 	addiu $29,$29,-32
  404f90:	34 00 00 00 18 00 12 1d 	sw $18,24($29)
  404f98:	42 00 00 00 00 12 04 00 	addu $18,$0,$4
  404fa0:	5c 00 00 00 ff ff 02 12 	slti $2,$18,-1
  404fa8:	34 00 00 00 1c 00 1f 1d 	sw $31,28($29)
  404fb0:	34 00 00 00 14 00 11 1d 	sw $17,20($29)
  404fb8:	34 00 00 00 10 00 10 1d 	sw $16,16($29)
  404fc0:	05 00 00 00 a8 00 00 02 	beq $2,$0,405268 <restorelist+0x2e0>
  404fc8:	a2 00 00 00 00 10 04 00 	lui $4,4096
  404fd0:	43 00 00 00 64 00 04 04 	addiu $4,$4,100
  404fd8:	01 00 00 00 98 14 10 00 	j 405260 <restorelist+0x2d8>
  404fe0:	28 00 00 00 90 9f 04 1c 	lw $4,-24688($28)
  404fe8:	02 00 00 00 56 03 10 00 	jal 400d58 <apop>
  404ff0:	42 00 00 00 00 11 02 00 	addu $17,$0,$2
  404ff8:	22 00 00 00 1b 00 03 11 	lbu $3,27($17)
  405000:	5e 00 00 00 0b 00 02 03 	sltiu $2,$3,11
  405008:	05 00 00 00 90 00 00 02 	beq $2,$0,405250 <restorelist+0x2c8>
  405010:	55 00 00 00 02 02 03 00 	sll $2,$3,0x2
  405018:	a2 00 00 00 00 10 01 00 	lui $1,4096
  405020:	42 00 00 00 00 01 02 01 	addu $1,$1,$2
  405028:	28 00 00 00 30 01 02 01 	lw $2,304($1)
  405030:	03 00 00 00 00 00 00 02 	jr $2
  405038:	28 00 00 00 90 9f 04 1c 	lw $4,-24688($28)
  405040:	02 00 00 00 56 03 10 00 	jal 400d58 <apop>
  405048:	42 00 00 00 00 10 02 00 	addu $16,$0,$2
  405050:	42 00 00 00 00 04 10 00 	addu $4,$0,$16
  405058:	42 00 00 00 00 05 11 00 	addu $5,$0,$17
  405060:	02 00 00 00 5e fd 10 00 	jal 43f578 <str_replace>
  405068:	28 00 00 00 14 00 04 10 	lw $4,20($16)
  405070:	05 00 00 00 7c 00 00 04 	beq $4,$0,405268 <restorelist+0x2e0>
  405078:	42 00 00 00 00 05 10 00 	addu $5,$0,$16
  405080:	02 00 00 00 ec e5 10 00 	jal 4397b0 <stabset>
  405088:	01 00 00 00 9a 14 10 00 	j 405268 <restorelist+0x2e0>
  405090:	28 00 00 00 08 00 10 11 	lw $16,8($17)
  405098:	28 00 00 00 00 00 02 10 	lw $2,0($16)
  4050a0:	28 00 00 00 10 00 04 02 	lw $4,16($2)
  4050a8:	02 00 00 00 e6 02 10 00 	jal 400b98 <afree>
  4050b0:	28 00 00 00 00 00 03 10 	lw $3,0($16)
  4050b8:	28 00 00 00 00 00 02 11 	lw $2,0($17)
  4050c0:	42 00 00 00 00 04 11 00 	addu $4,$0,$17
  4050c8:	34 00 00 00 10 00 02 03 	sw $2,16($3)
  4050d0:	01 00 00 00 5e 14 10 00 	j 405178 <restorelist+0x1f0>
  4050d8:	28 00 00 00 08 00 10 11 	lw $16,8($17)
  4050e0:	28 00 00 00 00 00 02 10 	lw $2,0($16)
  4050e8:	28 00 00 00 14 00 04 02 	lw $4,20($2)
  4050f0:	42 00 00 00 00 05 00 00 	addu $5,$0,$0
  4050f8:	02 00 00 00 2e 6f 11 00 	jal 45bcb8 <hfree>
  405100:	28 00 00 00 00 00 03 10 	lw $3,0($16)
  405108:	28 00 00 00 00 00 02 11 	lw $2,0($17)
  405110:	42 00 00 00 00 04 11 00 	addu $4,$0,$17
  405118:	34 00 00 00 14 00 02 03 	sw $2,20($3)
  405120:	01 00 00 00 5e 14 10 00 	j 405178 <restorelist+0x1f0>
  405128:	28 00 00 00 00 00 03 11 	lw $3,0($17)
  405130:	28 00 00 00 14 00 02 11 	lw $2,20($17)
  405138:	42 00 00 00 00 04 11 00 	addu $4,$0,$17
  405140:	34 00 00 00 00 00 02 03 	sw $2,0($3)
  405148:	34 00 00 00 14 00 00 04 	sw $0,20($4)
  405150:	01 00 00 00 5e 14 10 00 	j 405178 <restorelist+0x1f0>
  405158:	28 00 00 00 00 00 03 11 	lw $3,0($17)
  405160:	28 00 00 00 08 00 02 11 	lw $2,8($17)
  405168:	42 00 00 00 00 04 11 00 	addu $4,$0,$17
  405170:	34 00 00 00 00 00 02 03 	sw $2,0($3)
  405178:	34 00 00 00 00 00 00 04 	sw $0,0($4)
  405180:	02 00 00 00 ec fd 10 00 	jal 43f7b0 <str_free>
  405188:	01 00 00 00 9a 14 10 00 	j 405268 <restorelist+0x2e0>
  405190:	28 00 00 00 14 00 10 11 	lw $16,20($17)
  405198:	42 00 00 00 00 04 10 00 	addu $4,$0,$16
  4051a0:	34 00 00 00 14 00 00 11 	sw $0,20($17)
  4051a8:	02 00 00 00 d4 f1 10 00 	jal 43c750 <stab_clear>
  4051b0:	01 00 00 00 8e 14 10 00 	j 405238 <restorelist+0x2b0>
  4051b8:	28 00 00 00 00 00 10 11 	lw $16,0($17)
  4051c0:	28 00 00 00 0c 00 03 10 	lw $3,12($16)
  4051c8:	28 00 00 00 08 00 04 10 	lw $4,8($16)
  4051d0:	28 00 00 00 00 00 05 10 	lw $5,0($16)
  4051d8:	28 00 00 00 18 00 02 10 	lw $2,24($16)
  4051e0:	34 00 00 00 e0 92 03 1c 	sw $3,-27936($28)
  4051e8:	34 00 00 00 e4 92 04 1c 	sw $4,-27932($28)
  4051f0:	34 00 00 00 10 00 02 05 	sw $2,16($5)
  4051f8:	20 00 00 00 20 00 02 10 	lb $2,32($16)
  405200:	05 00 00 00 0c 00 00 02 	beq $2,$0,405238 <restorelist+0x2b0>
  405208:	28 00 00 00 14 00 04 10 	lw $4,20($16)
  405210:	02 00 00 00 e6 02 10 00 	jal 400b98 <afree>
  405218:	28 00 00 00 0c 93 02 1c 	lw $2,-27892($28)
  405220:	28 00 00 00 00 00 03 02 	lw $3,0($2)
  405228:	28 00 00 00 10 00 02 10 	lw $2,16($16)
  405230:	34 00 00 00 10 00 02 03 	sw $2,16($3)
  405238:	42 00 00 00 00 04 11 00 	addu $4,$0,$17
  405240:	02 00 00 00 ec fd 10 00 	jal 43f7b0 <str_free>
  405248:	01 00 00 00 9a 14 10 00 	j 405268 <restorelist+0x2e0>
  405250:	a2 00 00 00 00 10 04 00 	lui $4,4096
  405258:	43 00 00 00 88 00 04 04 	addiu $4,$4,136
  405260:	02 00 00 00 50 66 11 00 	jal 459940 <Myfatal>
  405268:	28 00 00 00 90 9f 02 1c 	lw $2,-24688($28)
  405270:	28 00 00 00 10 00 02 02 	lw $2,16($2)
  405278:	5b 00 00 00 00 02 02 12 	slt $2,$18,$2
  405280:	06 00 00 00 56 ff 00 02 	bne $2,$0,404fe0 <restorelist+0x58>
  405288:	28 00 00 00 1c 00 1f 1d 	lw $31,28($29)
  405290:	28 00 00 00 18 00 12 1d 	lw $18,24($29)
  405298:	28 00 00 00 14 00 11 1d 	lw $17,20($29)
  4052a0:	28 00 00 00 10 00 10 1d 	lw $16,16($29)
  4052a8:	43 00 00 00 20 00 1d 1d 	addiu $29,$29,32
  4052b0:	03 00 00 00 00 00 00 1f 	jr $31
	...

004052c0 <make_sub>:
  4052c0:	43 00 00 00 c0 ff 1d 1d 	addiu $29,$29,-64
  4052c8:	34 00 00 00 34 00 15 1d 	sw $21,52($29)
  4052d0:	42 00 00 00 00 15 04 00 	addu $21,$0,$4
  4052d8:	34 00 00 00 20 00 10 1d 	sw $16,32($29)
  4052e0:	42 00 00 00 00 10 05 00 	addu $16,$0,$5
  4052e8:	43 00 00 00 01 00 05 00 	addiu $5,$0,1
  4052f0:	34 00 00 00 38 00 1f 1d 	sw $31,56($29)
  4052f8:	34 00 00 00 30 00 14 1d 	sw $20,48($29)
  405300:	34 00 00 00 2c 00 13 1d 	sw $19,44($29)
  405308:	34 00 00 00 28 00 12 1d 	sw $18,40($29)
  405310:	34 00 00 00 24 00 11 1d 	sw $17,36($29)
  405318:	02 00 00 00 04 ef 10 00 	jal 43bc10 <stabent>
  405320:	42 00 00 00 00 14 02 00 	addu $20,$0,$2
  405328:	28 00 00 00 00 00 02 14 	lw $2,0($20)
  405330:	28 00 00 00 1c 00 13 02 	lw $19,28($2)
  405338:	05 00 00 00 28 00 00 13 	beq $19,$0,4053e0 <make_sub+0x120>
  405340:	20 00 00 00 b0 93 02 1c 	lb $2,-27728($28)
  405348:	05 00 00 00 10 00 00 02 	beq $2,$0,405390 <make_sub+0xd0>
  405350:	28 00 00 00 e0 92 11 1c 	lw $17,-27936($28)
  405358:	05 00 00 00 02 00 00 10 	beq $16,$0,405368 <make_sub+0xa8>
  405360:	34 00 00 00 e0 92 10 1c 	sw $16,-27936($28)
  405368:	a2 00 00 00 00 10 04 00 	lui $4,4096
  405370:	43 00 00 00 60 01 04 04 	addiu $4,$4,352
  405378:	42 00 00 00 00 05 15 00 	addu $5,$0,$21
  405380:	02 00 00 00 e2 66 11 00 	jal 459b88 <warn>
  405388:	34 00 00 00 e0 92 11 1c 	sw $17,-27936($28)
  405390:	28 00 00 00 04 00 02 13 	lw $2,4($19)
  405398:	06 00 00 00 0c 00 00 02 	bne $2,$0,4053d0 <make_sub+0x110>
  4053a0:	28 00 00 00 00 00 04 13 	lw $4,0($19)
  4053a8:	05 00 00 00 08 00 00 04 	beq $4,$0,4053d0 <make_sub+0x110>
  4053b0:	02 00 00 00 54 26 10 00 	jal 409950 <cmd_free>
  4053b8:	28 00 00 00 14 00 04 13 	lw $4,20($19)
  4053c0:	34 00 00 00 00 00 00 13 	sw $0,0($19)
  4053c8:	02 00 00 00 e6 02 10 00 	jal 400b98 <afree>
  4053d0:	42 00 00 00 00 04 13 00 	addu $4,$0,$19
  4053d8:	02 00 00 00 54 60 11 00 	jal 458150 <safefree>
  4053e0:	43 00 00 00 18 00 04 00 	addiu $4,$0,24
  4053e8:	02 00 00 00 f0 5f 11 00 	jal 457fc0 <safemalloc>
  4053f0:	42 00 00 00 00 13 02 00 	addu $19,$0,$2
  4053f8:	42 00 00 00 00 04 13 00 	addu $4,$0,$19
  405400:	42 00 00 00 00 05 00 00 	addu $5,$0,$0
  405408:	43 00 00 00 18 00 06 00 	addiu $6,$0,24
  405410:	02 00 00 00 90 81 11 00 	jal 460640 <memset>
  405418:	28 00 00 00 00 00 02 14 	lw $2,0($20)
  405420:	28 00 00 00 e0 92 03 1c 	lw $3,-27936($28)
  405428:	34 00 00 00 1c 00 13 02 	sw $19,28($2)
  405430:	28 00 00 00 2c 00 02 03 	lw $2,44($3)
  405438:	42 00 00 00 00 04 00 00 	addu $4,$0,$0
  405440:	30 00 00 00 b0 9d 00 1c 	sb $0,-25168($28)
  405448:	34 00 00 00 0c 00 02 13 	sw $2,12($19)
  405450:	02 00 00 00 de 01 10 00 	jal 400778 <anew>
  405458:	42 00 00 00 00 04 10 00 	addu $4,$0,$16
  405460:	42 00 00 00 00 05 00 00 	addu $5,$0,$0
  405468:	34 00 00 00 d0 9f 02 1c 	sw $2,-24624($28)
  405470:	34 00 00 00 10 00 00 02 	sw $0,16($2)
  405478:	02 00 00 00 40 28 10 00 	jal 40a100 <cmd_tosave>
  405480:	28 00 00 00 d0 9f 02 1c 	lw $2,-24624($28)
  405488:	20 00 00 00 b0 9d 03 1c 	lb $3,-25168($28)
  405490:	34 00 00 00 14 00 02 13 	sw $2,20($19)
  405498:	05 00 00 00 2a 00 00 03 	beq $3,$0,405548 <make_sub+0x288>
  4054a0:	43 00 00 00 10 80 04 1c 	addiu $4,$28,-32752
  4054a8:	34 00 00 00 18 00 10 1d 	sw $16,24($29)
  4054b0:	34 00 00 00 1c 00 00 1d 	sw $0,28($29)
  4054b8:	02 00 00 00 6a 64 11 00 	jal 4591a8 <savestr>
  4054c0:	28 00 00 00 1c 00 03 1d 	lw $3,28($29)
  4054c8:	43 00 00 00 04 00 04 00 	addiu $4,$0,4
  4054d0:	42 00 00 00 00 05 00 00 	addu $5,$0,$0
  4054d8:	34 00 00 00 14 00 03 1d 	sw $3,20($29)
  4054e0:	28 00 00 00 18 00 07 1d 	lw $7,24($29)
  4054e8:	42 00 00 00 00 06 00 00 	addu $6,$0,$0
  4054f0:	42 00 00 00 00 10 02 00 	addu $16,$0,$2
  4054f8:	02 00 00 00 ba 1b 10 00 	jal 406ee8 <make_ccmd>
  405500:	42 00 00 00 00 04 10 00 	addu $4,$0,$16
  405508:	42 00 00 00 00 05 02 00 	addu $5,$0,$2
  405510:	02 00 00 00 c2 21 10 00 	jal 408708 <add_label>
  405518:	42 00 00 00 00 10 02 00 	addu $16,$0,$2
  405520:	26 00 00 00 26 00 02 10 	lhu $2,38($16)
  405528:	30 00 00 00 b0 9d 00 1c 	sb $0,-25168($28)
  405530:	34 00 00 00 08 00 10 10 	sw $16,8($16)
  405538:	51 00 00 00 00 40 02 02 	ori $2,$2,16384
  405540:	32 00 00 00 26 00 02 10 	sh $2,38($16)
  405548:	28 00 00 00 08 94 02 1c 	lw $2,-27640($28)
  405550:	34 00 00 00 00 00 10 13 	sw $16,0($19)
  405558:	05 00 00 00 52 00 00 02 	beq $2,$0,4056a8 <make_sub+0x3e8>
  405560:	a2 00 00 00 01 10 04 00 	lui $4,4097
  405568:	43 00 00 00 c0 20 04 04 	addiu $4,$4,8384
  405570:	02 00 00 00 c8 17 11 00 	jal 445f20 <str_mortal>
  405578:	28 00 00 00 e0 92 03 1c 	lw $3,-27936($28)
  405580:	28 00 00 00 2c 00 03 03 	lw $3,44($3)
  405588:	28 00 00 00 00 00 03 03 	lw $3,0($3)
  405590:	a2 00 00 00 01 10 10 00 	lui $16,4097
  405598:	43 00 00 00 e0 24 10 10 	addiu $16,$16,9440
  4055a0:	28 00 00 00 04 00 03 03 	lw $3,4($3)
  4055a8:	42 00 00 00 00 04 10 00 	addu $4,$0,$16
  4055b0:	28 00 00 00 f8 92 07 1c 	lw $7,-27912($28)
  4055b8:	28 00 00 00 00 00 06 03 	lw $6,0($3)
  4055c0:	43 00 00 00 18 80 05 1c 	addiu $5,$28,-32744
  4055c8:	42 00 00 00 00 12 02 00 	addu $18,$0,$2
  4055d0:	02 00 00 00 90 84 11 00 	jal 461240 <sprintf>
  4055d8:	42 00 00 00 00 04 10 00 	addu $4,$0,$16
  4055e0:	42 00 00 00 00 05 00 00 	addu $5,$0,$0
  4055e8:	02 00 00 00 74 18 11 00 	jal 4461d0 <str_make>
  4055f0:	42 00 00 00 00 11 02 00 	addu $17,$0,$2
  4055f8:	42 00 00 00 00 04 11 00 	addu $4,$0,$17
  405600:	43 00 00 00 20 80 05 1c 	addiu $5,$28,-32736
  405608:	02 00 00 00 6a f8 10 00 	jal 43e1a8 <str_cat>
  405610:	28 00 00 00 e0 92 02 1c 	lw $2,-27936($28)
  405618:	26 00 00 00 30 00 06 02 	lhu $6,48($2)
  405620:	42 00 00 00 00 04 10 00 	addu $4,$0,$16
  405628:	43 00 00 00 24 80 05 1c 	addiu $5,$28,-32732
  405630:	02 00 00 00 90 84 11 00 	jal 461240 <sprintf>
  405638:	42 00 00 00 00 04 11 00 	addu $4,$0,$17
  405640:	42 00 00 00 00 05 10 00 	addu $5,$0,$16
  405648:	02 00 00 00 6a f8 10 00 	jal 43e1a8 <str_cat>
  405650:	42 00 00 00 00 04 12 00 	addu $4,$0,$18
  405658:	42 00 00 00 00 05 14 00 	addu $5,$0,$20
  405660:	02 00 00 00 0a f1 10 00 	jal 43c428 <stab_efullname>
  405668:	28 00 00 00 40 93 02 1c 	lw $2,-27840($28)
  405670:	28 00 00 00 00 00 02 02 	lw $2,0($2)
  405678:	34 00 00 00 10 00 00 1d 	sw $0,16($29)
  405680:	28 00 00 00 14 00 04 02 	lw $4,20($2)
  405688:	28 00 00 00 00 00 05 12 	lw $5,0($18)
  405690:	28 00 00 00 10 00 06 12 	lw $6,16($18)
  405698:	42 00 00 00 00 07 11 00 	addu $7,$0,$17
  4056a0:	02 00 00 00 e8 6b 11 00 	jal 45afa0 <hstore>
  4056a8:	42 00 00 00 00 04 15 00 	addu $4,$0,$21
  4056b0:	02 00 00 00 54 60 11 00 	jal 458150 <safefree>
  4056b8:	42 00 00 00 00 02 13 00 	addu $2,$0,$19
  4056c0:	28 00 00 00 38 00 1f 1d 	lw $31,56($29)
  4056c8:	28 00 00 00 34 00 15 1d 	lw $21,52($29)
  4056d0:	28 00 00 00 30 00 14 1d 	lw $20,48($29)
  4056d8:	28 00 00 00 2c 00 13 1d 	lw $19,44($29)
  4056e0:	28 00 00 00 28 00 12 1d 	lw $18,40($29)
  4056e8:	28 00 00 00 24 00 11 1d 	lw $17,36($29)
  4056f0:	28 00 00 00 20 00 10 1d 	lw $16,32($29)
  4056f8:	43 00 00 00 40 00 1d 1d 	addiu $29,$29,64
  405700:	03 00 00 00 00 00 00 1f 	jr $31

00405708 <make_usub>:
  405708:	43 00 00 00 d0 ff 1d 1d 	addiu $29,$29,-48
  405710:	34 00 00 00 24 00 15 1d 	sw $21,36($29)
  405718:	42 00 00 00 00 15 05 00 	addu $21,$0,$5
  405720:	20 00 00 00 b8 93 05 1c 	lb $5,-27720($28)
  405728:	34 00 00 00 18 00 12 1d 	sw $18,24($29)
  405730:	42 00 00 00 00 12 04 00 	addu $18,$0,$4
  405738:	34 00 00 00 20 00 14 1d 	sw $20,32($29)
  405740:	42 00 00 00 00 14 06 00 	addu $20,$0,$6
  405748:	34 00 00 00 1c 00 13 1d 	sw $19,28($29)
  405750:	42 00 00 00 00 13 07 00 	addu $19,$0,$7
  405758:	34 00 00 00 28 00 1f 1d 	sw $31,40($29)
  405760:	34 00 00 00 14 00 11 1d 	sw $17,20($29)
  405768:	34 00 00 00 10 00 10 1d 	sw $16,16($29)
  405770:	02 00 00 00 04 ef 10 00 	jal 43bc10 <stabent>
  405778:	42 00 00 00 00 11 02 00 	addu $17,$0,$2
  405780:	06 00 00 00 04 00 00 11 	bne $17,$0,405798 <make_usub+0x90>
  405788:	42 00 00 00 00 02 00 00 	addu $2,$0,$0
  405790:	01 00 00 00 2a 16 10 00 	j 4058a8 <make_usub+0x1a0>
  405798:	28 00 00 00 00 00 02 11 	lw $2,0($17)
  4057a0:	28 00 00 00 1c 00 10 02 	lw $16,28($2)
  4057a8:	05 00 00 00 20 00 00 10 	beq $16,$0,405830 <make_usub+0x128>
  4057b0:	20 00 00 00 b0 93 02 1c 	lb $2,-27728($28)
  4057b8:	05 00 00 00 08 00 00 02 	beq $2,$0,4057e0 <make_usub+0xd8>
  4057c0:	a2 00 00 00 00 10 04 00 	lui $4,4096
  4057c8:	43 00 00 00 60 01 04 04 	addiu $4,$4,352
  4057d0:	42 00 00 00 00 05 12 00 	addu $5,$0,$18
  4057d8:	02 00 00 00 e2 66 11 00 	jal 459b88 <warn>
  4057e0:	28 00 00 00 04 00 02 10 	lw $2,4($16)
  4057e8:	06 00 00 00 0c 00 00 02 	bne $2,$0,405820 <make_usub+0x118>
  4057f0:	28 00 00 00 00 00 04 10 	lw $4,0($16)
  4057f8:	05 00 00 00 08 00 00 04 	beq $4,$0,405820 <make_usub+0x118>
  405800:	02 00 00 00 54 26 10 00 	jal 409950 <cmd_free>
  405808:	28 00 00 00 14 00 04 10 	lw $4,20($16)
  405810:	34 00 00 00 00 00 00 10 	sw $0,0($16)
  405818:	02 00 00 00 e6 02 10 00 	jal 400b98 <afree>
  405820:	42 00 00 00 00 04 10 00 	addu $4,$0,$16
  405828:	02 00 00 00 54 60 11 00 	jal 458150 <safefree>
  405830:	43 00 00 00 18 00 04 00 	addiu $4,$0,24
  405838:	02 00 00 00 f0 5f 11 00 	jal 457fc0 <safemalloc>
  405840:	42 00 00 00 00 10 02 00 	addu $16,$0,$2
  405848:	42 00 00 00 00 04 10 00 	addu $4,$0,$16
  405850:	42 00 00 00 00 05 00 00 	addu $5,$0,$0
  405858:	43 00 00 00 18 00 06 00 	addiu $6,$0,24
  405860:	02 00 00 00 90 81 11 00 	jal 460640 <memset>
  405868:	28 00 00 00 00 00 02 11 	lw $2,0($17)
  405870:	42 00 00 00 00 04 13 00 	addu $4,$0,$19
  405878:	34 00 00 00 1c 00 10 02 	sw $16,28($2)
  405880:	02 00 00 00 b6 ee 10 00 	jal 43bad8 <fstab>
  405888:	34 00 00 00 0c 00 02 10 	sw $2,12($16)
  405890:	42 00 00 00 00 02 10 00 	addu $2,$0,$16
  405898:	34 00 00 00 04 00 14 02 	sw $20,4($2)
  4058a0:	34 00 00 00 08 00 15 02 	sw $21,8($2)
  4058a8:	28 00 00 00 28 00 1f 1d 	lw $31,40($29)
  4058b0:	28 00 00 00 24 00 15 1d 	lw $21,36($29)
  4058b8:	28 00 00 00 20 00 14 1d 	lw $20,32($29)
  4058c0:	28 00 00 00 1c 00 13 1d 	lw $19,28($29)
  4058c8:	28 00 00 00 18 00 12 1d 	lw $18,24($29)
  4058d0:	28 00 00 00 14 00 11 1d 	lw $17,20($29)
  4058d8:	28 00 00 00 10 00 10 1d 	lw $16,16($29)
  4058e0:	43 00 00 00 30 00 1d 1d 	addiu $29,$29,48
  4058e8:	03 00 00 00 00 00 00 1f 	jr $31

004058f0 <make_form>:
  4058f0:	43 00 00 00 d8 ff 1d 1d 	addiu $29,$29,-40
  4058f8:	34 00 00 00 18 00 12 1d 	sw $18,24($29)
  405900:	42 00 00 00 00 12 04 00 	addu $18,$0,$4
  405908:	34 00 00 00 20 00 1f 1d 	sw $31,32($29)
  405910:	34 00 00 00 1c 00 13 1d 	sw $19,28($29)
  405918:	34 00 00 00 14 00 11 1d 	sw $17,20($29)
  405920:	34 00 00 00 10 00 10 1d 	sw $16,16($29)
  405928:	28 00 00 00 00 00 02 12 	lw $2,0($18)
  405930:	28 00 00 00 0c 00 04 02 	lw $4,12($2)
  405938:	42 00 00 00 00 13 05 00 	addu $19,$0,$5
  405940:	05 00 00 00 1e 00 00 04 	beq $4,$0,4059c0 <make_form+0xd0>
  405948:	42 00 00 00 00 10 04 00 	addu $16,$0,$4
  405950:	28 00 00 00 04 00 04 10 	lw $4,4($16)
  405958:	28 00 00 00 00 00 11 10 	lw $17,0($16)
  405960:	05 00 00 00 02 00 00 04 	beq $4,$0,405970 <make_form+0x80>
  405968:	02 00 00 00 ce 26 10 00 	jal 409b38 <arg_free>
  405970:	28 00 00 00 08 00 04 10 	lw $4,8($16)
  405978:	05 00 00 00 02 00 00 04 	beq $4,$0,405988 <make_form+0x98>
  405980:	02 00 00 00 ec fd 10 00 	jal 43f7b0 <str_free>
  405988:	28 00 00 00 10 00 04 10 	lw $4,16($16)
  405990:	05 00 00 00 02 00 00 04 	beq $4,$0,4059a0 <make_form+0xb0>
  405998:	02 00 00 00 54 60 11 00 	jal 458150 <safefree>
  4059a0:	42 00 00 00 00 04 10 00 	addu $4,$0,$16
  4059a8:	02 00 00 00 54 60 11 00 	jal 458150 <safefree>
  4059b0:	42 00 00 00 00 10 11 00 	addu $16,$0,$17
  4059b8:	06 00 00 00 e4 ff 00 10 	bne $16,$0,405950 <make_form+0x60>
  4059c0:	28 00 00 00 00 00 02 12 	lw $2,0($18)
  4059c8:	34 00 00 00 0c 00 13 02 	sw $19,12($2)
  4059d0:	28 00 00 00 20 00 1f 1d 	lw $31,32($29)
  4059d8:	28 00 00 00 1c 00 13 1d 	lw $19,28($29)
  4059e0:	28 00 00 00 18 00 12 1d 	lw $18,24($29)
  4059e8:	28 00 00 00 14 00 11 1d 	lw $17,20($29)
  4059f0:	28 00 00 00 10 00 10 1d 	lw $16,16($29)
  4059f8:	43 00 00 00 28 00 1d 1d 	addiu $29,$29,40
  405a00:	03 00 00 00 00 00 00 1f 	jr $31

00405a08 <block_head>:
  405a08:	43 00 00 00 c8 ff 1d 1d 	addiu $29,$29,-56
  405a10:	34 00 00 00 10 00 10 1d 	sw $16,16($29)
  405a18:	42 00 00 00 00 10 04 00 	addu $16,$0,$4
  405a20:	34 00 00 00 1c 00 13 1d 	sw $19,28($29)
  405a28:	42 00 00 00 00 13 00 00 	addu $19,$0,$0
  405a30:	34 00 00 00 24 00 15 1d 	sw $21,36($29)
  405a38:	42 00 00 00 00 15 00 00 	addu $21,$0,$0
  405a40:	34 00 00 00 18 00 12 1d 	sw $18,24($29)
  405a48:	42 00 00 00 00 12 00 00 	addu $18,$0,$0
  405a50:	34 00 00 00 20 00 14 1d 	sw $20,32($29)
  405a58:	42 00 00 00 00 14 00 00 	addu $20,$0,$0
  405a60:	34 00 00 00 30 00 1f 1d 	sw $31,48($29)
  405a68:	34 00 00 00 2c 00 17 1d 	sw $23,44($29)
  405a70:	34 00 00 00 28 00 16 1d 	sw $22,40($29)
  405a78:	34 00 00 00 14 00 11 1d 	sw $17,20($29)
  405a80:	06 00 00 00 04 00 00 10 	bne $16,$0,405a98 <block_head+0x90>
  405a88:	42 00 00 00 00 02 00 00 	addu $2,$0,$0
  405a90:	01 00 00 00 84 17 10 00 	j 405e10 <block_head+0x408>
  405a98:	28 00 00 00 08 00 16 10 	lw $22,8($16)
  405aa0:	42 00 00 00 00 10 16 00 	addu $16,$0,$22
  405aa8:	05 00 00 00 c0 00 00 16 	beq $22,$0,405db0 <block_head+0x3a8>
  405ab0:	43 00 00 00 0c 00 17 00 	addiu $23,$0,12
  405ab8:	20 00 00 00 32 00 03 10 	lb $3,50($16)
  405ac0:	43 00 00 00 01 00 02 00 	addiu $2,$0,1
  405ac8:	06 00 00 00 0a 00 02 03 	bne $3,$2,405af8 <block_head+0xf0>
  405ad0:	28 00 00 00 20 00 02 10 	lw $2,32($16)
  405ad8:	28 00 00 00 00 00 02 02 	lw $2,0($2)
  405ae0:	34 00 00 00 20 00 02 10 	sw $2,32($16)
  405ae8:	06 00 00 00 26 00 00 02 	bne $2,$0,405b88 <block_head+0x180>
  405af0:	01 00 00 00 dc 16 10 00 	j 405b70 <block_head+0x168>
  405af8:	43 00 00 00 05 00 02 00 	addiu $2,$0,5
  405b00:	06 00 00 00 20 00 02 03 	bne $3,$2,405b88 <block_head+0x180>
  405b08:	28 00 00 00 20 00 02 10 	lw $2,32($16)
  405b10:	05 00 00 00 04 00 00 02 	beq $2,$0,405b28 <block_head+0x120>
  405b18:	42 00 00 00 00 04 02 00 	addu $4,$0,$2
  405b20:	01 00 00 00 cc 16 10 00 	j 405b30 <block_head+0x128>
  405b28:	28 00 00 00 04 00 04 10 	lw $4,4($16)
  405b30:	05 00 00 00 14 00 00 04 	beq $4,$0,405b88 <block_head+0x180>
  405b38:	26 00 00 00 06 00 03 04 	lhu $3,6($4)
  405b40:	43 00 00 00 6f 00 02 00 	addiu $2,$0,111
  405b48:	05 00 00 00 08 00 02 03 	beq $3,$2,405b70 <block_head+0x168>
  405b50:	43 00 00 00 02 00 02 00 	addiu $2,$0,2
  405b58:	06 00 00 00 0a 00 02 03 	bne $3,$2,405b88 <block_head+0x180>
  405b60:	26 00 00 00 12 00 02 04 	lhu $2,18($4)
  405b68:	06 00 00 00 06 00 03 02 	bne $2,$3,405b88 <block_head+0x180>
  405b70:	26 00 00 00 26 00 02 10 	lhu $2,38($16)
  405b78:	51 00 00 00 00 40 02 02 	ori $2,$2,16384
  405b80:	32 00 00 00 26 00 02 10 	sh $2,38($16)
  405b88:	28 00 00 00 00 00 02 10 	lw $2,0($16)
  405b90:	06 00 00 00 06 00 00 02 	bne $2,$0,405bb0 <block_head+0x1a8>
  405b98:	26 00 00 00 26 00 02 10 	lhu $2,38($16)
  405ba0:	51 00 00 00 00 40 02 02 	ori $2,$2,16384
  405ba8:	32 00 00 00 26 00 02 10 	sh $2,38($16)
  405bb0:	28 00 00 00 04 00 02 10 	lw $2,4($16)
  405bb8:	05 00 00 00 12 00 00 02 	beq $2,$0,405c08 <block_head+0x200>
  405bc0:	26 00 00 00 26 00 02 10 	lhu $2,38($16)
  405bc8:	4f 00 00 00 3f 00 02 02 	andi $2,$2,63
  405bd0:	06 00 00 00 0c 00 00 02 	bne $2,$0,405c08 <block_head+0x200>
  405bd8:	20 00 00 00 32 00 06 10 	lb $6,50($16)
  405be0:	42 00 00 00 00 04 10 00 	addu $4,$0,$16
  405be8:	43 00 00 00 01 00 05 00 	addiu $5,$0,1
  405bf0:	53 00 00 00 05 00 06 06 	xori $6,$6,5
  405bf8:	5e 00 00 00 01 00 06 06 	sltiu $6,$6,1
  405c00:	02 00 00 00 66 1d 10 00 	jal 407598 <opt_arg>
  405c08:	26 00 00 00 26 00 02 10 	lhu $2,38($16)
  405c10:	4f 00 00 00 7f 08 03 02 	andi $3,$2,2175
  405c18:	05 00 00 00 1e 00 17 03 	beq $3,$23,405c98 <block_head+0x290>
  405c20:	5c 00 00 00 0d 00 02 03 	slti $2,$3,13
  405c28:	06 00 00 00 06 00 00 02 	bne $2,$0,405c48 <block_head+0x240>
  405c30:	43 00 00 00 0d 00 02 00 	addiu $2,$0,13
  405c38:	05 00 00 00 12 00 02 03 	beq $3,$2,405c88 <block_head+0x280>
  405c40:	01 00 00 00 38 17 10 00 	j 405ce0 <block_head+0x2d8>
  405c48:	5c 00 00 00 05 00 02 03 	slti $2,$3,5
  405c50:	05 00 00 00 22 00 00 02 	beq $2,$0,405ce0 <block_head+0x2d8>
  405c58:	5c 00 00 00 03 00 02 03 	slti $2,$3,3
  405c60:	06 00 00 00 1e 00 00 02 	bne $2,$0,405ce0 <block_head+0x2d8>
  405c68:	26 00 00 00 26 00 02 10 	lhu $2,38($16)
  405c70:	57 00 00 00 05 02 02 00 	srl $2,$2,0x5
  405c78:	4f 00 00 00 04 00 11 02 	andi $17,$2,4
  405c80:	01 00 00 00 3a 17 10 00 	j 405ce8 <block_head+0x2e0>
  405c88:	43 00 00 00 04 00 11 00 	addiu $17,$0,4
  405c90:	01 00 00 00 3a 17 10 00 	j 405ce8 <block_head+0x2e0>
  405c98:	24 00 00 00 24 00 02 10 	lh $2,36($16)
  405ca0:	26 00 00 00 26 00 03 10 	lhu $3,38($16)
  405ca8:	53 00 00 00 21 00 02 02 	xori $2,$2,33
  405cb0:	5d 00 00 00 00 02 02 00 	sltu $2,$0,$2
  405cb8:	45 00 00 00 00 02 02 00 	subu $2,$0,$2
  405cc0:	4f 00 00 00 0c 00 11 02 	andi $17,$2,12
  405cc8:	4f 00 00 00 80 01 03 03 	andi $3,$3,384
  405cd0:	43 00 00 00 80 01 02 00 	addiu $2,$0,384
  405cd8:	05 00 00 00 02 00 02 03 	beq $3,$2,405ce8 <block_head+0x2e0>
  405ce0:	42 00 00 00 00 11 00 00 	addu $17,$0,$0
  405ce8:	05 00 00 00 0a 00 00 11 	beq $17,$0,405d18 <block_head+0x310>
  405cf0:	06 00 00 00 08 00 13 11 	bne $17,$19,405d18 <block_head+0x310>
  405cf8:	28 00 00 00 10 00 02 10 	lw $2,16($16)
  405d00:	06 00 00 00 04 00 15 02 	bne $2,$21,405d18 <block_head+0x310>
  405d08:	43 00 00 00 01 00 12 12 	addiu $18,$18,1
  405d10:	01 00 00 00 64 17 10 00 	j 405d90 <block_head+0x388>
  405d18:	5c 00 00 00 03 00 02 12 	slti $2,$18,3
  405d20:	06 00 00 00 10 00 00 02 	bne $2,$0,405d68 <block_head+0x360>
  405d28:	06 00 00 00 08 00 17 13 	bne $19,$23,405d50 <block_head+0x348>
  405d30:	42 00 00 00 00 04 14 00 	addu $4,$0,$20
  405d38:	42 00 00 00 00 05 12 00 	addu $5,$0,$18
  405d40:	02 00 00 00 ac 18 10 00 	jal 4062b0 <make_nswitch>
  405d48:	01 00 00 00 5a 17 10 00 	j 405d68 <block_head+0x360>
  405d50:	42 00 00 00 00 04 14 00 	addu $4,$0,$20
  405d58:	42 00 00 00 00 05 12 00 	addu $5,$0,$18
  405d60:	02 00 00 00 9a 17 10 00 	jal 405e68 <make_cswitch>
  405d68:	05 00 00 00 06 00 00 11 	beq $17,$0,405d88 <block_head+0x380>
  405d70:	43 00 00 00 01 00 12 00 	addiu $18,$0,1
  405d78:	42 00 00 00 00 14 10 00 	addu $20,$0,$16
  405d80:	01 00 00 00 64 17 10 00 	j 405d90 <block_head+0x388>
  405d88:	42 00 00 00 00 12 00 00 	addu $18,$0,$0
  405d90:	28 00 00 00 10 00 15 10 	lw $21,16($16)
  405d98:	28 00 00 00 00 00 10 10 	lw $16,0($16)
  405da0:	42 00 00 00 00 13 11 00 	addu $19,$0,$17
  405da8:	06 00 00 00 42 ff 00 10 	bne $16,$0,405ab8 <block_head+0xb0>
  405db0:	5c 00 00 00 03 00 02 12 	slti $2,$18,3
  405db8:	06 00 00 00 12 00 00 02 	bne $2,$0,405e08 <block_head+0x400>
  405dc0:	43 00 00 00 0c 00 02 00 	addiu $2,$0,12
  405dc8:	06 00 00 00 08 00 02 13 	bne $19,$2,405df0 <block_head+0x3e8>
  405dd0:	42 00 00 00 00 04 14 00 	addu $4,$0,$20
  405dd8:	42 00 00 00 00 05 12 00 	addu $5,$0,$18
  405de0:	02 00 00 00 ac 18 10 00 	jal 4062b0 <make_nswitch>
  405de8:	01 00 00 00 82 17 10 00 	j 405e08 <block_head+0x400>
  405df0:	42 00 00 00 00 04 14 00 	addu $4,$0,$20
  405df8:	42 00 00 00 00 05 12 00 	addu $5,$0,$18
  405e00:	02 00 00 00 9a 17 10 00 	jal 405e68 <make_cswitch>
  405e08:	42 00 00 00 00 02 16 00 	addu $2,$0,$22
  405e10:	28 00 00 00 30 00 1f 1d 	lw $31,48($29)
  405e18:	28 00 00 00 2c 00 17 1d 	lw $23,44($29)
  405e20:	28 00 00 00 28 00 16 1d 	lw $22,40($29)
  405e28:	28 00 00 00 24 00 15 1d 	lw $21,36($29)
  405e30:	28 00 00 00 20 00 14 1d 	lw $20,32($29)
  405e38:	28 00 00 00 1c 00 13 1d 	lw $19,28($29)
  405e40:	28 00 00 00 18 00 12 1d 	lw $18,24($29)
  405e48:	28 00 00 00 14 00 11 1d 	lw $17,20($29)
  405e50:	28 00 00 00 10 00 10 1d 	lw $16,16($29)
  405e58:	43 00 00 00 38 00 1d 1d 	addiu $29,$29,56
  405e60:	03 00 00 00 00 00 00 1f 	jr $31

00405e68 <make_cswitch>:
  405e68:	43 00 00 00 d0 ff 1d 1d 	addiu $29,$29,-48
  405e70:	34 00 00 00 24 00 15 1d 	sw $21,36($29)
  405e78:	42 00 00 00 00 15 04 00 	addu $21,$0,$4
  405e80:	34 00 00 00 20 00 14 1d 	sw $20,32($29)
  405e88:	42 00 00 00 00 14 05 00 	addu $20,$0,$5
  405e90:	34 00 00 00 1c 00 13 1d 	sw $19,28($29)
  405e98:	43 00 00 00 ff 00 13 00 	addiu $19,$0,255
  405ea0:	34 00 00 00 18 00 12 1d 	sw $18,24($29)
  405ea8:	42 00 00 00 00 12 00 00 	addu $18,$0,$0
  405eb0:	43 00 00 00 34 00 04 00 	addiu $4,$0,52
  405eb8:	34 00 00 00 28 00 1f 1d 	sw $31,40($29)
  405ec0:	34 00 00 00 14 00 11 1d 	sw $17,20($29)
  405ec8:	34 00 00 00 10 00 10 1d 	sw $16,16($29)
  405ed0:	02 00 00 00 f0 5f 11 00 	jal 457fc0 <safemalloc>
  405ed8:	42 00 00 00 00 10 02 00 	addu $16,$0,$2
  405ee0:	42 00 00 00 00 07 10 00 	addu $7,$0,$16
  405ee8:	42 00 00 00 00 06 15 00 	addu $6,$0,$21
  405ef0:	43 00 00 00 30 00 08 15 	addiu $8,$21,48
  405ef8:	28 00 00 00 00 00 02 06 	lw $2,0($6)
  405f00:	28 00 00 00 04 00 03 06 	lw $3,4($6)
  405f08:	28 00 00 00 08 00 04 06 	lw $4,8($6)
  405f10:	28 00 00 00 0c 00 05 06 	lw $5,12($6)
  405f18:	34 00 00 00 00 00 02 07 	sw $2,0($7)
  405f20:	34 00 00 00 04 00 03 07 	sw $3,4($7)
  405f28:	34 00 00 00 08 00 04 07 	sw $4,8($7)
  405f30:	34 00 00 00 0c 00 05 07 	sw $5,12($7)
  405f38:	43 00 00 00 10 00 06 06 	addiu $6,$6,16
  405f40:	43 00 00 00 10 00 07 07 	addiu $7,$7,16
  405f48:	06 00 00 00 ea ff 08 06 	bne $6,$8,405ef8 <make_cswitch+0x90>
  405f50:	28 00 00 00 00 00 02 06 	lw $2,0($6)
  405f58:	34 00 00 00 00 00 02 07 	sw $2,0($7)
  405f60:	42 00 00 00 00 04 15 00 	addu $4,$0,$21
  405f68:	42 00 00 00 00 05 00 00 	addu $5,$0,$0
  405f70:	43 00 00 00 34 00 06 00 	addiu $6,$0,52
  405f78:	02 00 00 00 90 81 11 00 	jal 460640 <memset>
  405f80:	28 00 00 00 08 00 02 10 	lw $2,8($16)
  405f88:	34 00 00 00 08 00 02 15 	sw $2,8($21)
  405f90:	43 00 00 00 08 00 02 00 	addiu $2,$0,8
  405f98:	30 00 00 00 32 00 02 15 	sb $2,50($21)
  405fa0:	34 00 00 00 00 00 10 15 	sw $16,0($21)
  405fa8:	28 00 00 00 10 00 02 10 	lw $2,16($16)
  405fb0:	43 00 00 00 08 04 04 00 	addiu $4,$0,1032
  405fb8:	43 00 00 00 ff ff 14 14 	addiu $20,$20,-1
  405fc0:	34 00 00 00 10 00 02 15 	sw $2,16($21)
  405fc8:	02 00 00 00 f0 5f 11 00 	jal 457fc0 <safemalloc>
  405fd0:	42 00 00 00 00 11 02 00 	addu $17,$0,$2
  405fd8:	42 00 00 00 00 04 11 00 	addu $4,$0,$17
  405fe0:	42 00 00 00 00 05 00 00 	addu $5,$0,$0
  405fe8:	43 00 00 00 08 04 06 00 	addiu $6,$0,1032
  405ff0:	02 00 00 00 90 81 11 00 	jal 460640 <memset>
  405ff8:	43 00 00 00 04 00 11 11 	addiu $17,$17,4
  406000:	43 00 00 00 ff ff 02 00 	addiu $2,$0,-1
  406008:	05 00 00 00 5e 00 02 14 	beq $20,$2,406188 <make_cswitch+0x320>
  406010:	43 00 00 00 0d 00 07 00 	addiu $7,$0,13
  406018:	43 00 00 00 ff ff 06 00 	addiu $6,$0,-1
  406020:	26 00 00 00 26 00 02 10 	lhu $2,38($16)
  406028:	4f 00 00 00 3f 00 02 02 	andi $2,$2,63
  406030:	06 00 00 00 32 00 07 02 	bne $2,$7,406100 <make_cswitch+0x298>
  406038:	42 00 00 00 00 04 00 00 	addu $4,$0,$0
  406040:	42 00 00 00 00 05 11 00 	addu $5,$0,$17
  406048:	28 00 00 00 00 00 02 05 	lw $2,0($5)
  406050:	06 00 00 00 20 00 00 02 	bne $2,$0,4060d8 <make_cswitch+0x270>
  406058:	28 00 00 00 0c 00 02 10 	lw $2,12($16)
  406060:	28 00 00 00 00 00 02 02 	lw $2,0($2)
  406068:	59 00 00 00 03 03 04 00 	sra $3,$4,0x3
  406070:	42 00 00 00 00 02 03 02 	addu $2,$2,$3
  406078:	20 00 00 00 00 00 02 02 	lb $2,0($2)
  406080:	4f 00 00 00 07 00 03 04 	andi $3,$4,7
  406088:	5a 00 00 00 00 02 02 03 	srav $2,$2,$3
  406090:	4f 00 00 00 01 00 02 02 	andi $2,$2,1
  406098:	05 00 00 00 0e 00 00 02 	beq $2,$0,4060d8 <make_cswitch+0x270>
  4060a0:	34 00 00 00 00 00 10 05 	sw $16,0($5)
  4060a8:	5b 00 00 00 00 02 13 04 	slt $2,$4,$19
  4060b0:	05 00 00 00 02 00 00 02 	beq $2,$0,4060c0 <make_cswitch+0x258>
  4060b8:	42 00 00 00 00 13 04 00 	addu $19,$0,$4
  4060c0:	5b 00 00 00 00 02 04 12 	slt $2,$18,$4
  4060c8:	05 00 00 00 02 00 00 02 	beq $2,$0,4060d8 <make_cswitch+0x270>
  4060d0:	42 00 00 00 00 12 04 00 	addu $18,$0,$4
  4060d8:	43 00 00 00 04 00 05 05 	addiu $5,$5,4
  4060e0:	43 00 00 00 01 00 04 04 	addiu $4,$4,1
  4060e8:	5c 00 00 00 00 01 02 04 	slti $2,$4,256
  4060f0:	06 00 00 00 d4 ff 00 02 	bne $2,$0,406048 <make_cswitch+0x1e0>
  4060f8:	01 00 00 00 5c 18 10 00 	j 406170 <make_cswitch+0x308>
  406100:	28 00 00 00 0c 00 02 10 	lw $2,12($16)
  406108:	28 00 00 00 00 00 02 02 	lw $2,0($2)
  406110:	22 00 00 00 00 00 04 02 	lbu $4,0($2)
  406118:	55 00 00 00 02 02 04 00 	sll $2,$4,0x2
  406120:	42 00 00 00 00 03 11 02 	addu $3,$2,$17
  406128:	28 00 00 00 00 00 02 03 	lw $2,0($3)
  406130:	06 00 00 00 0e 00 00 02 	bne $2,$0,406170 <make_cswitch+0x308>
  406138:	34 00 00 00 00 00 10 03 	sw $16,0($3)
  406140:	5b 00 00 00 00 02 13 04 	slt $2,$4,$19
  406148:	05 00 00 00 02 00 00 02 	beq $2,$0,406158 <make_cswitch+0x2f0>
  406150:	42 00 00 00 00 13 04 00 	addu $19,$0,$4
  406158:	5b 00 00 00 00 02 04 12 	slt $2,$18,$4
  406160:	05 00 00 00 02 00 00 02 	beq $2,$0,406170 <make_cswitch+0x308>
  406168:	42 00 00 00 00 12 04 00 	addu $18,$0,$4
  406170:	28 00 00 00 00 00 10 10 	lw $16,0($16)
  406178:	43 00 00 00 ff ff 14 14 	addiu $20,$20,-1
  406180:	06 00 00 00 a6 ff 06 14 	bne $20,$6,406020 <make_cswitch+0x1b8>
  406188:	43 00 00 00 01 00 12 12 	addiu $18,$18,1
  406190:	07 00 00 00 0c 00 00 13 	blez $19,4061c8 <make_cswitch+0x360>
  406198:	42 00 00 00 00 04 11 00 	addu $4,$0,$17
  4061a0:	55 00 00 00 02 05 13 00 	sll $5,$19,0x2
  4061a8:	42 00 00 00 00 05 05 11 	addu $5,$17,$5
  4061b0:	45 00 00 00 00 06 13 12 	subu $6,$18,$19
  4061b8:	55 00 00 00 02 06 06 00 	sll $6,$6,0x2
  4061c0:	02 00 00 00 cc 80 11 00 	jal 460330 <memmove>
  4061c8:	43 00 00 00 fc ff 11 11 	addiu $17,$17,-4
  4061d0:	43 00 00 00 ff ff 13 13 	addiu $19,$19,-1
  4061d8:	45 00 00 00 00 12 13 12 	subu $18,$18,$19
  4061e0:	42 00 00 00 00 04 00 00 	addu $4,$0,$0
  4061e8:	09 00 00 00 10 00 00 12 	bltz $18,406230 <make_cswitch+0x3c8>
  4061f0:	42 00 00 00 00 03 11 00 	addu $3,$0,$17
  4061f8:	28 00 00 00 00 00 02 03 	lw $2,0($3)
  406200:	06 00 00 00 02 00 00 02 	bne $2,$0,406210 <make_cswitch+0x3a8>
  406208:	34 00 00 00 00 00 10 03 	sw $16,0($3)
  406210:	43 00 00 00 04 00 03 03 	addiu $3,$3,4
  406218:	43 00 00 00 01 00 04 04 	addiu $4,$4,1
  406220:	5b 00 00 00 00 02 04 12 	slt $2,$18,$4
  406228:	05 00 00 00 f2 ff 00 02 	beq $2,$0,4061f8 <make_cswitch+0x390>
  406230:	42 00 00 00 00 04 11 00 	addu $4,$0,$17
  406238:	43 00 00 00 01 00 05 12 	addiu $5,$18,1
  406240:	55 00 00 00 02 05 05 00 	sll $5,$5,0x2
  406248:	02 00 00 00 16 60 11 00 	jal 458058 <saferealloc>
  406250:	32 00 00 00 20 00 13 15 	sh $19,32($21)
  406258:	32 00 00 00 22 00 12 15 	sh $18,34($21)
  406260:	34 00 00 00 1c 00 02 15 	sw $2,28($21)
  406268:	28 00 00 00 28 00 1f 1d 	lw $31,40($29)
  406270:	28 00 00 00 24 00 15 1d 	lw $21,36($29)
  406278:	28 00 00 00 20 00 14 1d 	lw $20,32($29)
  406280:	28 00 00 00 1c 00 13 1d 	lw $19,28($29)
  406288:	28 00 00 00 18 00 12 1d 	lw $18,24($29)
  406290:	28 00 00 00 14 00 11 1d 	lw $17,20($29)
  406298:	28 00 00 00 10 00 10 1d 	lw $16,16($29)
  4062a0:	43 00 00 00 30 00 1d 1d 	addiu $29,$29,48
  4062a8:	03 00 00 00 00 00 00 1f 	jr $31

004062b0 <make_nswitch>:
  4062b0:	43 00 00 00 c8 ff 1d 1d 	addiu $29,$29,-56
  4062b8:	34 00 00 00 28 00 16 1d 	sw $22,40($29)
  4062c0:	42 00 00 00 00 16 04 00 	addu $22,$0,$4
  4062c8:	34 00 00 00 18 00 12 1d 	sw $18,24($29)
  4062d0:	42 00 00 00 00 12 05 00 	addu $18,$0,$5
  4062d8:	34 00 00 00 14 00 11 1d 	sw $17,20($29)
  4062e0:	42 00 00 00 00 11 16 00 	addu $17,$0,$22
  4062e8:	34 00 00 00 24 00 15 1d 	sw $21,36($29)
  4062f0:	43 00 00 00 ff 7f 15 00 	addiu $21,$0,32767
  4062f8:	34 00 00 00 1c 00 13 1d 	sw $19,28($29)
  406300:	43 00 00 00 00 80 13 00 	addiu $19,$0,-32768
  406308:	34 00 00 00 10 00 10 1d 	sw $16,16($29)
  406310:	42 00 00 00 00 10 12 00 	addu $16,$0,$18
  406318:	43 00 00 00 ff ff 12 12 	addiu $18,$18,-1
  406320:	43 00 00 00 ff ff 02 00 	addiu $2,$0,-1
  406328:	34 00 00 00 34 00 1f 1d 	sw $31,52($29)
  406330:	34 00 00 00 30 00 1e 1d 	sw $30,48($29)
  406338:	34 00 00 00 2c 00 17 1d 	sw $23,44($29)
  406340:	34 00 00 00 20 00 14 1d 	sw $20,32($29)
  406348:	05 00 00 00 48 00 02 12 	beq $18,$2,406470 <make_nswitch+0x1c0>
  406350:	43 00 00 00 1e 00 1e 00 	addiu $30,$0,30
  406358:	43 00 00 00 1f 00 17 00 	addiu $23,$0,31
  406360:	43 00 00 00 ff ff 14 00 	addiu $20,$0,-1
  406368:	28 00 00 00 0c 00 04 11 	lw $4,12($17)
  406370:	34 00 00 00 60 9f 04 1c 	sw $4,-24736($28)
  406378:	22 00 00 00 19 00 02 04 	lbu $2,25($4)
  406380:	05 00 00 00 04 00 00 02 	beq $2,$0,406398 <make_nswitch+0xe8>
  406388:	2b 00 00 00 08 00 00 04 	l.d $f0,8($4)
  406390:	01 00 00 00 e8 18 10 00 	j 4063a0 <make_nswitch+0xf0>
  406398:	02 00 00 00 fe f3 10 00 	jal 43cff8 <str_2num>
  4063a0:	85 00 00 00 00 02 00 00 	cvt.w.d $f2,$f0
  4063a8:	a3 00 00 00 00 00 03 02 	mfc1 $3,$f2
  4063b0:	28 00 00 00 0c 00 02 11 	lw $2,12($17)
  4063b8:	2b 00 00 00 08 00 02 02 	l.d $f2,8($2)
  4063c0:	a5 00 00 00 00 00 03 00 	mtc1 $3,$f0
  4063c8:	83 00 00 00 00 00 00 00 	cvt.d.w $f0,$f0
  4063d0:	91 00 00 00 00 00 02 00 	c.eq.d $f0,$f2
  4063d8:	0b 00 00 00 20 01 00 00 	bc1f 406860 <make_nswitch+0x5b0>
  4063e0:	55 00 00 00 10 02 03 00 	sll $2,$3,0x10
  4063e8:	59 00 00 00 10 02 02 00 	sra $2,$2,0x10
  4063f0:	06 00 00 00 1a 01 03 02 	bne $2,$3,406860 <make_nswitch+0x5b0>
  4063f8:	24 00 00 00 24 00 02 11 	lh $2,36($17)
  406400:	06 00 00 00 04 00 1e 02 	bne $2,$30,406418 <make_nswitch+0x168>
  406408:	43 00 00 00 01 00 03 03 	addiu $3,$3,1
  406410:	01 00 00 00 0a 19 10 00 	j 406428 <make_nswitch+0x178>
  406418:	06 00 00 00 02 00 17 02 	bne $2,$23,406428 <make_nswitch+0x178>
  406420:	43 00 00 00 ff ff 03 03 	addiu $3,$3,-1
  406428:	5b 00 00 00 00 02 15 03 	slt $2,$3,$21
  406430:	05 00 00 00 02 00 00 02 	beq $2,$0,406440 <make_nswitch+0x190>
  406438:	42 00 00 00 00 15 03 00 	addu $21,$0,$3
  406440:	5b 00 00 00 00 02 03 13 	slt $2,$19,$3
  406448:	05 00 00 00 02 00 00 02 	beq $2,$0,406458 <make_nswitch+0x1a8>
  406450:	42 00 00 00 00 13 03 00 	addu $19,$0,$3
  406458:	28 00 00 00 00 00 11 11 	lw $17,0($17)
  406460:	43 00 00 00 ff ff 12 12 	addiu $18,$18,-1
  406468:	06 00 00 00 be ff 14 12 	bne $18,$20,406368 <make_nswitch+0xb8>
  406470:	42 00 00 00 00 12 10 00 	addu $18,$0,$16
  406478:	45 00 00 00 00 03 15 13 	subu $3,$19,$21
  406480:	55 00 00 00 01 02 12 00 	sll $2,$18,0x1
  406488:	43 00 00 00 0a 00 02 02 	addiu $2,$2,10
  406490:	5b 00 00 00 00 02 03 02 	slt $2,$2,$3
  406498:	06 00 00 00 f0 00 00 02 	bne $2,$0,406860 <make_nswitch+0x5b0>
  4064a0:	43 00 00 00 34 00 04 00 	addiu $4,$0,52
  4064a8:	02 00 00 00 f0 5f 11 00 	jal 457fc0 <safemalloc>
  4064b0:	42 00 00 00 00 11 02 00 	addu $17,$0,$2
  4064b8:	42 00 00 00 00 07 11 00 	addu $7,$0,$17
  4064c0:	42 00 00 00 00 06 16 00 	addu $6,$0,$22
  4064c8:	43 00 00 00 30 00 08 16 	addiu $8,$22,48
  4064d0:	28 00 00 00 00 00 02 06 	lw $2,0($6)
  4064d8:	28 00 00 00 04 00 03 06 	lw $3,4($6)
  4064e0:	28 00 00 00 08 00 04 06 	lw $4,8($6)
  4064e8:	28 00 00 00 0c 00 05 06 	lw $5,12($6)
  4064f0:	34 00 00 00 00 00 02 07 	sw $2,0($7)
  4064f8:	34 00 00 00 04 00 03 07 	sw $3,4($7)
  406500:	34 00 00 00 08 00 04 07 	sw $4,8($7)
  406508:	34 00 00 00 0c 00 05 07 	sw $5,12($7)
  406510:	43 00 00 00 10 00 06 06 	addiu $6,$6,16
  406518:	43 00 00 00 10 00 07 07 	addiu $7,$7,16
  406520:	06 00 00 00 ea ff 08 06 	bne $6,$8,4064d0 <make_nswitch+0x220>
  406528:	28 00 00 00 00 00 02 06 	lw $2,0($6)
  406530:	34 00 00 00 00 00 02 07 	sw $2,0($7)
  406538:	42 00 00 00 00 04 16 00 	addu $4,$0,$22
  406540:	42 00 00 00 00 05 00 00 	addu $5,$0,$0
  406548:	43 00 00 00 34 00 06 00 	addiu $6,$0,52
  406550:	02 00 00 00 90 81 11 00 	jal 460640 <memset>
  406558:	28 00 00 00 08 00 02 11 	lw $2,8($17)
  406560:	45 00 00 00 00 03 15 13 	subu $3,$19,$21
  406568:	43 00 00 00 03 00 10 03 	addiu $16,$3,3
  406570:	55 00 00 00 02 10 10 00 	sll $16,$16,0x2
  406578:	42 00 00 00 00 04 10 00 	addu $4,$0,$16
  406580:	34 00 00 00 08 00 02 16 	sw $2,8($22)
  406588:	43 00 00 00 09 00 02 00 	addiu $2,$0,9
  406590:	30 00 00 00 32 00 02 16 	sb $2,50($22)
  406598:	34 00 00 00 00 00 11 16 	sw $17,0($22)
  4065a0:	28 00 00 00 10 00 02 11 	lw $2,16($17)
  4065a8:	43 00 00 00 01 00 13 03 	addiu $19,$3,1
  4065b0:	43 00 00 00 ff ff 12 12 	addiu $18,$18,-1
  4065b8:	34 00 00 00 10 00 02 16 	sw $2,16($22)
  4065c0:	02 00 00 00 f0 5f 11 00 	jal 457fc0 <safemalloc>
  4065c8:	42 00 00 00 00 14 02 00 	addu $20,$0,$2
  4065d0:	42 00 00 00 00 04 14 00 	addu $4,$0,$20
  4065d8:	42 00 00 00 00 05 00 00 	addu $5,$0,$0
  4065e0:	42 00 00 00 00 06 10 00 	addu $6,$0,$16
  4065e8:	02 00 00 00 90 81 11 00 	jal 460640 <memset>
  4065f0:	43 00 00 00 04 00 14 14 	addiu $20,$20,4
  4065f8:	43 00 00 00 ff ff 02 00 	addiu $2,$0,-1
  406600:	05 00 00 00 76 00 02 12 	beq $18,$2,4067e0 <make_nswitch+0x530>
  406608:	a2 00 00 00 00 10 10 00 	lui $16,4096
  406610:	43 00 00 00 88 02 10 10 	addiu $16,$16,648
  406618:	28 00 00 00 0c 00 04 11 	lw $4,12($17)
  406620:	34 00 00 00 60 9f 04 1c 	sw $4,-24736($28)
  406628:	22 00 00 00 19 00 02 04 	lbu $2,25($4)
  406630:	05 00 00 00 04 00 00 02 	beq $2,$0,406648 <make_nswitch+0x398>
  406638:	2b 00 00 00 08 00 00 04 	l.d $f0,8($4)
  406640:	01 00 00 00 94 19 10 00 	j 406650 <make_nswitch+0x3a0>
  406648:	02 00 00 00 fe f3 10 00 	jal 43cff8 <str_2num>
  406650:	85 00 00 00 00 02 00 00 	cvt.w.d $f2,$f0
  406658:	a3 00 00 00 00 00 03 02 	mfc1 $3,$f2
  406660:	26 00 00 00 24 00 02 11 	lhu $2,36($17)
  406668:	45 00 00 00 00 03 15 03 	subu $3,$3,$21
  406670:	43 00 00 00 e4 ff 02 02 	addiu $2,$2,-28
  406678:	55 00 00 00 10 02 02 00 	sll $2,$2,0x10
  406680:	59 00 00 00 10 04 02 00 	sra $4,$2,0x10
  406688:	5e 00 00 00 05 00 02 04 	sltiu $2,$4,5
  406690:	05 00 00 00 4a 00 00 02 	beq $2,$0,4067c0 <make_nswitch+0x510>
  406698:	55 00 00 00 02 02 04 00 	sll $2,$4,0x2
  4066a0:	42 00 00 00 00 02 10 02 	addu $2,$2,$16
  4066a8:	28 00 00 00 00 00 02 02 	lw $2,0($2)
  4066b0:	03 00 00 00 00 00 00 02 	jr $2
  4066b8:	43 00 00 00 01 00 03 03 	addiu $3,$3,1
  4066c0:	43 00 00 00 ff ff 03 03 	addiu $3,$3,-1
  4066c8:	5c 00 00 00 ff ff 02 03 	slti $2,$3,-1
  4066d0:	06 00 00 00 3a 00 00 02 	bne $2,$0,4067c0 <make_nswitch+0x510>
  4066d8:	55 00 00 00 02 02 03 00 	sll $2,$3,0x2
  4066e0:	42 00 00 00 00 04 14 02 	addu $4,$2,$20
  4066e8:	28 00 00 00 00 00 02 04 	lw $2,0($4)
  4066f0:	06 00 00 00 02 00 00 02 	bne $2,$0,406700 <make_nswitch+0x450>
  4066f8:	34 00 00 00 00 00 11 04 	sw $17,0($4)
  406700:	43 00 00 00 fc ff 04 04 	addiu $4,$4,-4
  406708:	43 00 00 00 ff ff 03 03 	addiu $3,$3,-1
  406710:	5c 00 00 00 ff ff 02 03 	slti $2,$3,-1
  406718:	05 00 00 00 f2 ff 00 02 	beq $2,$0,4066e8 <make_nswitch+0x438>
  406720:	01 00 00 00 f0 19 10 00 	j 4067c0 <make_nswitch+0x510>
  406728:	43 00 00 00 ff ff 03 03 	addiu $3,$3,-1
  406730:	43 00 00 00 01 00 03 03 	addiu $3,$3,1
  406738:	5b 00 00 00 00 02 03 13 	slt $2,$19,$3
  406740:	06 00 00 00 1e 00 00 02 	bne $2,$0,4067c0 <make_nswitch+0x510>
  406748:	55 00 00 00 02 02 03 00 	sll $2,$3,0x2
  406750:	42 00 00 00 00 04 14 02 	addu $4,$2,$20
  406758:	28 00 00 00 00 00 02 04 	lw $2,0($4)
  406760:	06 00 00 00 02 00 00 02 	bne $2,$0,406770 <make_nswitch+0x4c0>
  406768:	34 00 00 00 00 00 11 04 	sw $17,0($4)
  406770:	43 00 00 00 04 00 04 04 	addiu $4,$4,4
  406778:	43 00 00 00 01 00 03 03 	addiu $3,$3,1
  406780:	5b 00 00 00 00 02 03 13 	slt $2,$19,$3
  406788:	05 00 00 00 f2 ff 00 02 	beq $2,$0,406758 <make_nswitch+0x4a8>
  406790:	01 00 00 00 f0 19 10 00 	j 4067c0 <make_nswitch+0x510>
  406798:	55 00 00 00 02 02 03 00 	sll $2,$3,0x2
  4067a0:	42 00 00 00 00 03 14 02 	addu $3,$2,$20
  4067a8:	28 00 00 00 00 00 02 03 	lw $2,0($3)
  4067b0:	06 00 00 00 02 00 00 02 	bne $2,$0,4067c0 <make_nswitch+0x510>
  4067b8:	34 00 00 00 00 00 11 03 	sw $17,0($3)
  4067c0:	28 00 00 00 00 00 11 11 	lw $17,0($17)
  4067c8:	43 00 00 00 ff ff 12 12 	addiu $18,$18,-1
  4067d0:	43 00 00 00 ff ff 02 00 	addiu $2,$0,-1
  4067d8:	06 00 00 00 8e ff 02 12 	bne $18,$2,406618 <make_nswitch+0x368>
  4067e0:	43 00 00 00 fc ff 14 14 	addiu $20,$20,-4
  4067e8:	43 00 00 00 ff ff 15 15 	addiu $21,$21,-1
  4067f0:	43 00 00 00 01 00 13 13 	addiu $19,$19,1
  4067f8:	42 00 00 00 00 03 00 00 	addu $3,$0,$0
  406800:	09 00 00 00 10 00 00 13 	bltz $19,406848 <make_nswitch+0x598>
  406808:	42 00 00 00 00 04 14 00 	addu $4,$0,$20
  406810:	28 00 00 00 00 00 02 04 	lw $2,0($4)
  406818:	06 00 00 00 02 00 00 02 	bne $2,$0,406828 <make_nswitch+0x578>
  406820:	34 00 00 00 00 00 11 04 	sw $17,0($4)
  406828:	43 00 00 00 04 00 04 04 	addiu $4,$4,4
  406830:	43 00 00 00 01 00 03 03 	addiu $3,$3,1
  406838:	5b 00 00 00 00 02 03 13 	slt $2,$19,$3
  406840:	05 00 00 00 f2 ff 00 02 	beq $2,$0,406810 <make_nswitch+0x560>
  406848:	32 00 00 00 20 00 15 16 	sh $21,32($22)
  406850:	32 00 00 00 22 00 13 16 	sh $19,34($22)
  406858:	34 00 00 00 1c 00 14 16 	sw $20,28($22)
  406860:	28 00 00 00 34 00 1f 1d 	lw $31,52($29)
  406868:	28 00 00 00 30 00 1e 1d 	lw $30,48($29)
  406870:	28 00 00 00 2c 00 17 1d 	lw $23,44($29)
  406878:	28 00 00 00 28 00 16 1d 	lw $22,40($29)
  406880:	28 00 00 00 24 00 15 1d 	lw $21,36($29)
  406888:	28 00 00 00 20 00 14 1d 	lw $20,32($29)
  406890:	28 00 00 00 1c 00 13 1d 	lw $19,28($29)
  406898:	28 00 00 00 18 00 12 1d 	lw $18,24($29)
  4068a0:	28 00 00 00 14 00 11 1d 	lw $17,20($29)
  4068a8:	28 00 00 00 10 00 10 1d 	lw $16,16($29)
  4068b0:	43 00 00 00 38 00 1d 1d 	addiu $29,$29,56
  4068b8:	03 00 00 00 00 00 00 1f 	jr $31

004068c0 <append_line>:
  4068c0:	06 00 00 00 04 00 00 05 	bne $5,$0,4068d8 <append_line+0x18>
  4068c8:	42 00 00 00 00 02 04 00 	addu $2,$0,$4
  4068d0:	01 00 00 00 6a 1a 10 00 	j 4069a8 <append_line+0xe8>
  4068d8:	28 00 00 00 08 00 02 05 	lw $2,8($5)
  4068e0:	06 00 00 00 02 00 00 02 	bne $2,$0,4068f0 <append_line+0x30>
  4068e8:	34 00 00 00 08 00 05 05 	sw $5,8($5)
  4068f0:	05 00 00 00 26 00 00 04 	beq $4,$0,406990 <append_line+0xd0>
  4068f8:	28 00 00 00 08 00 02 04 	lw $2,8($4)
  406900:	28 00 00 00 08 00 05 05 	lw $5,8($5)
  406908:	06 00 00 00 0c 00 00 02 	bne $2,$0,406940 <append_line+0x80>
  406910:	34 00 00 00 08 00 04 04 	sw $4,8($4)
  406918:	01 00 00 00 50 1a 10 00 	j 406940 <append_line+0x80>
  406920:	28 00 00 00 00 00 02 04 	lw $2,0($4)
  406928:	28 00 00 00 08 00 03 04 	lw $3,8($4)
  406930:	34 00 00 00 08 00 03 02 	sw $3,8($2)
  406938:	28 00 00 00 00 00 04 04 	lw $4,0($4)
  406940:	28 00 00 00 00 00 02 04 	lw $2,0($4)
  406948:	06 00 00 00 f4 ff 00 02 	bne $2,$0,406920 <append_line+0x60>
  406950:	28 00 00 00 08 00 02 04 	lw $2,8($4)
  406958:	34 00 00 00 00 00 05 04 	sw $5,0($4)
  406960:	34 00 00 00 08 00 02 05 	sw $2,8($5)
  406968:	01 00 00 00 64 1a 10 00 	j 406990 <append_line+0xd0>
  406970:	28 00 00 00 00 00 02 05 	lw $2,0($5)
  406978:	28 00 00 00 08 00 03 05 	lw $3,8($5)
  406980:	34 00 00 00 08 00 03 02 	sw $3,8($2)
  406988:	28 00 00 00 00 00 05 05 	lw $5,0($5)
  406990:	28 00 00 00 00 00 02 05 	lw $2,0($5)
  406998:	06 00 00 00 f4 ff 00 02 	bne $2,$0,406970 <append_line+0xb0>
  4069a0:	42 00 00 00 00 02 05 00 	addu $2,$0,$5
  4069a8:	03 00 00 00 00 00 00 1f 	jr $31

004069b0 <dodb>:
  4069b0:	43 00 00 00 d0 ff 1d 1d 	addiu $29,$29,-48
  4069b8:	34 00 00 00 24 00 13 1d 	sw $19,36($29)
  4069c0:	42 00 00 00 00 13 04 00 	addu $19,$0,$4
  4069c8:	34 00 00 00 28 00 1f 1d 	sw $31,40($29)
  4069d0:	34 00 00 00 20 00 12 1d 	sw $18,32($29)
  4069d8:	34 00 00 00 1c 00 11 1d 	sw $17,28($29)
  4069e0:	34 00 00 00 18 00 10 1d 	sw $16,24($29)
  4069e8:	28 00 00 00 08 00 12 13 	lw $18,8($19)
  4069f0:	06 00 00 00 02 00 00 12 	bne $18,$0,406a00 <dodb+0x50>
  4069f8:	42 00 00 00 00 12 13 00 	addu $18,$0,$19
  406a00:	26 00 00 00 30 00 05 12 	lhu $5,48($18)
  406a08:	05 00 00 00 18 00 00 05 	beq $5,$0,406a70 <dodb+0xc0>
  406a10:	28 00 00 00 e0 92 02 1c 	lw $2,-27936($28)
  406a18:	28 00 00 00 2c 00 02 02 	lw $2,44($2)
  406a20:	28 00 00 00 00 00 02 02 	lw $2,0($2)
  406a28:	28 00 00 00 10 00 04 02 	lw $4,16($2)
  406a30:	42 00 00 00 00 06 00 00 	addu $6,$0,$0
  406a38:	02 00 00 00 7c 00 10 00 	jal 4001f0 <afetch>
  406a40:	42 00 00 00 00 11 02 00 	addu $17,$0,$2
  406a48:	a2 00 00 00 01 10 02 00 	lui $2,4097
  406a50:	43 00 00 00 c0 20 02 02 	addiu $2,$2,8384
  406a58:	05 00 00 00 04 00 02 11 	beq $17,$2,406a70 <dodb+0xc0>
  406a60:	22 00 00 00 19 00 02 11 	lbu $2,25($17)
  406a68:	05 00 00 00 04 00 00 02 	beq $2,$0,406a80 <dodb+0xd0>
  406a70:	42 00 00 00 00 02 13 00 	addu $2,$0,$19
  406a78:	01 00 00 00 3e 1b 10 00 	j 406cf8 <dodb+0x348>
  406a80:	26 00 00 00 30 00 02 12 	lhu $2,48($18)
  406a88:	43 00 00 00 34 00 04 00 	addiu $4,$0,52
  406a90:	a5 00 00 00 00 00 02 00 	mtc1 $2,$f0
  406a98:	83 00 00 00 00 00 00 00 	cvt.d.w $f0,$f0
  406aa0:	43 00 00 00 01 00 02 00 	addiu $2,$0,1
  406aa8:	37 00 00 00 08 00 00 11 	s.d $f0,8($17)
  406ab0:	30 00 00 00 19 00 02 11 	sb $2,25($17)
  406ab8:	02 00 00 00 f0 5f 11 00 	jal 457fc0 <safemalloc>
  406ac0:	42 00 00 00 00 10 02 00 	addu $16,$0,$2
  406ac8:	42 00 00 00 00 04 10 00 	addu $4,$0,$16
  406ad0:	42 00 00 00 00 05 00 00 	addu $5,$0,$0
  406ad8:	43 00 00 00 34 00 06 00 	addiu $6,$0,52
  406ae0:	02 00 00 00 90 81 11 00 	jal 460640 <memset>
  406ae8:	28 00 00 00 e0 92 02 1c 	lw $2,-27936($28)
  406af0:	42 00 00 00 00 04 11 00 	addu $4,$0,$17
  406af8:	34 00 00 00 10 00 00 1d 	sw $0,16($29)
  406b00:	28 00 00 00 2c 00 05 02 	lw $5,44($2)
  406b08:	42 00 00 00 00 06 00 00 	addu $6,$0,$0
  406b10:	42 00 00 00 00 07 00 00 	addu $7,$0,$0
  406b18:	02 00 00 00 a8 fa 10 00 	jal 43eaa0 <str_magic>
  406b20:	28 00 00 00 14 00 02 11 	lw $2,20($17)
  406b28:	34 00 00 00 08 00 10 02 	sw $16,8($2)
  406b30:	43 00 00 00 05 00 02 00 	addiu $2,$0,5
  406b38:	30 00 00 00 32 00 02 10 	sb $2,50($16)
  406b40:	28 00 00 00 38 93 05 1c 	lw $5,-27848($28)
  406b48:	43 00 00 00 0f 00 04 00 	addiu $4,$0,15
  406b50:	34 00 00 00 1c 00 00 10 	sw $0,28($16)
  406b58:	34 00 00 00 20 00 00 10 	sw $0,32($16)
  406b60:	02 00 00 00 d6 3b 10 00 	jal 40ef58 <stab2arg>
  406b68:	43 00 00 00 59 00 04 00 	addiu $4,$0,89
  406b70:	43 00 00 00 02 00 05 00 	addiu $5,$0,2
  406b78:	42 00 00 00 00 06 02 00 	addu $6,$0,$2
  406b80:	42 00 00 00 00 07 00 00 	addu $7,$0,$0
  406b88:	34 00 00 00 10 00 00 1d 	sw $0,16($29)
  406b90:	02 00 00 00 6e 2b 10 00 	jal 40adb8 <make_op>
  406b98:	26 00 00 00 26 00 03 10 	lhu $3,38($16)
  406ba0:	34 00 00 00 04 00 02 10 	sw $2,4($16)
  406ba8:	43 00 00 00 0e 82 02 00 	addiu $2,$0,-32242
  406bb0:	50 00 00 00 00 03 02 03 	or $3,$3,$2
  406bb8:	32 00 00 00 26 00 03 10 	sh $3,38($16)
  406bc0:	26 00 00 00 30 00 02 12 	lhu $2,48($18)
  406bc8:	28 00 00 00 e0 92 03 1c 	lw $3,-27936($28)
  406bd0:	32 00 00 00 30 00 02 10 	sh $2,48($16)
  406bd8:	28 00 00 00 18 00 02 12 	lw $2,24($18)
  406be0:	34 00 00 00 18 00 02 10 	sw $2,24($16)
  406be8:	28 00 00 00 2c 00 02 03 	lw $2,44($3)
  406bf0:	28 00 00 00 bc 9f 03 1c 	lw $3,-24644($28)
  406bf8:	42 00 00 00 00 04 13 00 	addu $4,$0,$19
  406c00:	34 00 00 00 2c 00 02 10 	sw $2,44($16)
  406c08:	34 00 00 00 28 00 03 10 	sw $3,40($16)
  406c10:	06 00 00 00 04 00 00 04 	bne $4,$0,406c28 <dodb+0x278>
  406c18:	42 00 00 00 00 02 10 00 	addu $2,$0,$16
  406c20:	01 00 00 00 3e 1b 10 00 	j 406cf8 <dodb+0x348>
  406c28:	28 00 00 00 08 00 02 04 	lw $2,8($4)
  406c30:	06 00 00 00 02 00 00 02 	bne $2,$0,406c40 <dodb+0x290>
  406c38:	34 00 00 00 08 00 04 04 	sw $4,8($4)
  406c40:	05 00 00 00 26 00 00 10 	beq $16,$0,406ce0 <dodb+0x330>
  406c48:	28 00 00 00 08 00 02 10 	lw $2,8($16)
  406c50:	28 00 00 00 08 00 04 04 	lw $4,8($4)
  406c58:	06 00 00 00 0c 00 00 02 	bne $2,$0,406c90 <dodb+0x2e0>
  406c60:	34 00 00 00 08 00 10 10 	sw $16,8($16)
  406c68:	01 00 00 00 24 1b 10 00 	j 406c90 <dodb+0x2e0>
  406c70:	28 00 00 00 00 00 02 10 	lw $2,0($16)
  406c78:	28 00 00 00 08 00 03 10 	lw $3,8($16)
  406c80:	34 00 00 00 08 00 03 02 	sw $3,8($2)
  406c88:	28 00 00 00 00 00 10 10 	lw $16,0($16)
  406c90:	28 00 00 00 00 00 02 10 	lw $2,0($16)
  406c98:	06 00 00 00 f4 ff 00 02 	bne $2,$0,406c70 <dodb+0x2c0>
  406ca0:	28 00 00 00 08 00 02 10 	lw $2,8($16)
  406ca8:	34 00 00 00 00 00 04 10 	sw $4,0($16)
  406cb0:	34 00 00 00 08 00 02 04 	sw $2,8($4)
  406cb8:	01 00 00 00 38 1b 10 00 	j 406ce0 <dodb+0x330>
  406cc0:	28 00 00 00 00 00 02 04 	lw $2,0($4)
  406cc8:	28 00 00 00 08 00 03 04 	lw $3,8($4)
  406cd0:	34 00 00 00 08 00 03 02 	sw $3,8($2)
  406cd8:	28 00 00 00 00 00 04 04 	lw $4,0($4)
  406ce0:	28 00 00 00 00 00 02 04 	lw $2,0($4)
  406ce8:	06 00 00 00 f4 ff 00 02 	bne $2,$0,406cc0 <dodb+0x310>
  406cf0:	42 00 00 00 00 02 04 00 	addu $2,$0,$4
  406cf8:	28 00 00 00 28 00 1f 1d 	lw $31,40($29)
  406d00:	28 00 00 00 24 00 13 1d 	lw $19,36($29)
  406d08:	28 00 00 00 20 00 12 1d 	lw $18,32($29)
  406d10:	28 00 00 00 1c 00 11 1d 	lw $17,28($29)
  406d18:	28 00 00 00 18 00 10 1d 	lw $16,24($29)
  406d20:	43 00 00 00 30 00 1d 1d 	addiu $29,$29,48
  406d28:	03 00 00 00 00 00 00 1f 	jr $31

00406d30 <make_acmd>:
  406d30:	43 00 00 00 d8 ff 1d 1d 	addiu $29,$29,-40
  406d38:	34 00 00 00 18 00 12 1d 	sw $18,24($29)
  406d40:	42 00 00 00 00 12 04 00 	addu $18,$0,$4
  406d48:	34 00 00 00 1c 00 13 1d 	sw $19,28($29)
  406d50:	42 00 00 00 00 13 05 00 	addu $19,$0,$5
  406d58:	34 00 00 00 10 00 10 1d 	sw $16,16($29)
  406d60:	42 00 00 00 00 10 06 00 	addu $16,$0,$6
  406d68:	34 00 00 00 14 00 11 1d 	sw $17,20($29)
  406d70:	42 00 00 00 00 11 07 00 	addu $17,$0,$7
  406d78:	43 00 00 00 34 00 04 00 	addiu $4,$0,52
  406d80:	34 00 00 00 24 00 1f 1d 	sw $31,36($29)
  406d88:	34 00 00 00 20 00 14 1d 	sw $20,32($29)
  406d90:	02 00 00 00 f0 5f 11 00 	jal 457fc0 <safemalloc>
  406d98:	42 00 00 00 00 14 02 00 	addu $20,$0,$2
  406da0:	42 00 00 00 00 04 14 00 	addu $4,$0,$20
  406da8:	42 00 00 00 00 05 00 00 	addu $5,$0,$0
  406db0:	43 00 00 00 34 00 06 00 	addiu $6,$0,52
  406db8:	02 00 00 00 90 81 11 00 	jal 460640 <memset>
  406dc0:	30 00 00 00 32 00 12 14 	sb $18,50($20)
  406dc8:	34 00 00 00 1c 00 13 14 	sw $19,28($20)
  406dd0:	34 00 00 00 20 00 11 14 	sw $17,32($20)
  406dd8:	34 00 00 00 04 00 10 14 	sw $16,4($20)
  406de0:	05 00 00 00 06 00 00 10 	beq $16,$0,406e00 <make_acmd+0xd0>
  406de8:	26 00 00 00 26 00 02 14 	lhu $2,38($20)
  406df0:	51 00 00 00 00 02 02 02 	ori $2,$2,512
  406df8:	32 00 00 00 26 00 02 14 	sh $2,38($20)
  406e00:	26 00 00 00 0c 94 03 1c 	lhu $3,-27636($28)
  406e08:	51 00 00 00 ff ff 02 00 	ori $2,$0,65535
  406e10:	06 00 00 00 08 00 02 03 	bne $3,$2,406e38 <make_acmd+0x108>
  406e18:	28 00 00 00 e0 92 02 1c 	lw $2,-27936($28)
  406e20:	26 00 00 00 30 00 02 02 	lhu $2,48($2)
  406e28:	32 00 00 00 30 00 02 14 	sh $2,48($20)
  406e30:	01 00 00 00 94 1b 10 00 	j 406e50 <make_acmd+0x120>
  406e38:	51 00 00 00 ff ff 02 00 	ori $2,$0,65535
  406e40:	32 00 00 00 30 00 03 14 	sh $3,48($20)
  406e48:	32 00 00 00 0c 94 02 1c 	sh $2,-27636($28)
  406e50:	28 00 00 00 e0 92 02 1c 	lw $2,-27936($28)
  406e58:	28 00 00 00 bc 9f 03 1c 	lw $3,-24644($28)
  406e60:	28 00 00 00 08 94 04 1c 	lw $4,-27640($28)
  406e68:	28 00 00 00 2c 00 02 02 	lw $2,44($2)
  406e70:	34 00 00 00 2c 00 02 14 	sw $2,44($20)
  406e78:	34 00 00 00 28 00 03 14 	sw $3,40($20)
  406e80:	05 00 00 00 06 00 00 04 	beq $4,$0,406ea0 <make_acmd+0x170>
  406e88:	42 00 00 00 00 04 14 00 	addu $4,$0,$20
  406e90:	02 00 00 00 6c 1a 10 00 	jal 4069b0 <dodb>
  406e98:	42 00 00 00 00 14 02 00 	addu $20,$0,$2
  406ea0:	42 00 00 00 00 02 14 00 	addu $2,$0,$20
  406ea8:	28 00 00 00 24 00 1f 1d 	lw $31,36($29)
  406eb0:	28 00 00 00 20 00 14 1d 	lw $20,32($29)
  406eb8:	28 00 00 00 1c 00 13 1d 	lw $19,28($29)
  406ec0:	28 00 00 00 18 00 12 1d 	lw $18,24($29)
  406ec8:	28 00 00 00 14 00 11 1d 	lw $17,20($29)
  406ed0:	28 00 00 00 10 00 10 1d 	lw $16,16($29)
  406ed8:	43 00 00 00 28 00 1d 1d 	addiu $29,$29,40
  406ee0:	03 00 00 00 00 00 00 1f 	jr $31

00406ee8 <make_ccmd>:
  406ee8:	43 00 00 00 d8 ff 1d 1d 	addiu $29,$29,-40
  406ef0:	34 00 00 00 14 00 11 1d 	sw $17,20($29)
  406ef8:	42 00 00 00 00 11 04 00 	addu $17,$0,$4
  406f00:	34 00 00 00 1c 00 13 1d 	sw $19,28($29)
  406f08:	42 00 00 00 00 13 05 00 	addu $19,$0,$5
  406f10:	34 00 00 00 10 00 10 1d 	sw $16,16($29)
  406f18:	42 00 00 00 00 10 06 00 	addu $16,$0,$6
  406f20:	43 00 00 00 34 00 04 00 	addiu $4,$0,52
  406f28:	34 00 00 00 20 00 1f 1d 	sw $31,32($29)
  406f30:	34 00 00 00 18 00 12 1d 	sw $18,24($29)
  406f38:	34 00 00 00 38 00 07 1d 	sw $7,56($29)
  406f40:	02 00 00 00 f0 5f 11 00 	jal 457fc0 <safemalloc>
  406f48:	42 00 00 00 00 12 02 00 	addu $18,$0,$2
  406f50:	42 00 00 00 00 04 12 00 	addu $4,$0,$18
  406f58:	42 00 00 00 00 05 00 00 	addu $5,$0,$0
  406f60:	43 00 00 00 34 00 06 00 	addiu $6,$0,52
  406f68:	02 00 00 00 90 81 11 00 	jal 460640 <memset>
  406f70:	30 00 00 00 32 00 11 12 	sb $17,50($18)
  406f78:	34 00 00 00 04 00 10 12 	sw $16,4($18)
  406f80:	28 00 00 00 38 00 02 1d 	lw $2,56($29)
  406f88:	34 00 00 00 1c 00 02 12 	sw $2,28($18)
  406f90:	28 00 00 00 3c 00 02 1d 	lw $2,60($29)
  406f98:	34 00 00 00 20 00 02 12 	sw $2,32($18)
  406fa0:	05 00 00 00 06 00 00 10 	beq $16,$0,406fc0 <make_ccmd+0xd8>
  406fa8:	26 00 00 00 26 00 02 12 	lhu $2,38($18)
  406fb0:	51 00 00 00 00 02 02 02 	ori $2,$2,512
  406fb8:	32 00 00 00 26 00 02 12 	sh $2,38($18)
  406fc0:	26 00 00 00 0c 94 03 1c 	lhu $3,-27636($28)
  406fc8:	51 00 00 00 ff ff 02 00 	ori $2,$0,65535
  406fd0:	06 00 00 00 08 00 02 03 	bne $3,$2,406ff8 <make_ccmd+0x110>
  406fd8:	28 00 00 00 e0 92 02 1c 	lw $2,-27936($28)
  406fe0:	26 00 00 00 30 00 02 02 	lhu $2,48($2)
  406fe8:	32 00 00 00 30 00 02 12 	sh $2,48($18)
  406ff0:	01 00 00 00 04 1c 10 00 	j 407010 <make_ccmd+0x128>
  406ff8:	51 00 00 00 ff ff 02 00 	ori $2,$0,65535
  407000:	32 00 00 00 30 00 03 12 	sh $3,48($18)
  407008:	32 00 00 00 0c 94 02 1c 	sh $2,-27636($28)
  407010:	28 00 00 00 e0 92 02 1c 	lw $2,-27936($28)
  407018:	28 00 00 00 bc 9f 03 1c 	lw $3,-24644($28)
  407020:	28 00 00 00 08 94 04 1c 	lw $4,-27640($28)
  407028:	28 00 00 00 2c 00 02 02 	lw $2,44($2)
  407030:	34 00 00 00 2c 00 02 12 	sw $2,44($18)
  407038:	34 00 00 00 28 00 03 12 	sw $3,40($18)
  407040:	05 00 00 00 08 00 00 04 	beq $4,$0,407068 <make_ccmd+0x180>
  407048:	05 00 00 00 06 00 00 13 	beq $19,$0,407068 <make_ccmd+0x180>
  407050:	42 00 00 00 00 04 12 00 	addu $4,$0,$18
  407058:	02 00 00 00 6c 1a 10 00 	jal 4069b0 <dodb>
  407060:	42 00 00 00 00 12 02 00 	addu $18,$0,$2
  407068:	42 00 00 00 00 02 12 00 	addu $2,$0,$18
  407070:	28 00 00 00 20 00 1f 1d 	lw $31,32($29)
  407078:	28 00 00 00 1c 00 13 1d 	lw $19,28($29)
  407080:	28 00 00 00 18 00 12 1d 	lw $18,24($29)
  407088:	28 00 00 00 14 00 11 1d 	lw $17,20($29)
  407090:	28 00 00 00 10 00 10 1d 	lw $16,16($29)
  407098:	43 00 00 00 28 00 1d 1d 	addiu $29,$29,40
  4070a0:	03 00 00 00 00 00 00 1f 	jr $31

004070a8 <make_icmd>:
  4070a8:	43 00 00 00 b8 ff 1d 1d 	addiu $29,$29,-72
  4070b0:	34 00 00 00 30 00 10 1d 	sw $16,48($29)
  4070b8:	42 00 00 00 00 10 04 00 	addu $16,$0,$4
  4070c0:	34 00 00 00 34 00 11 1d 	sw $17,52($29)
  4070c8:	42 00 00 00 00 11 05 00 	addu $17,$0,$5
  4070d0:	43 00 00 00 34 00 04 00 	addiu $4,$0,52
  4070d8:	34 00 00 00 44 00 1f 1d 	sw $31,68($29)
  4070e0:	34 00 00 00 40 00 14 1d 	sw $20,64($29)
  4070e8:	34 00 00 00 3c 00 13 1d 	sw $19,60($29)
  4070f0:	34 00 00 00 38 00 12 1d 	sw $18,56($29)
  4070f8:	34 00 00 00 50 00 06 1d 	sw $6,80($29)
  407100:	34 00 00 00 54 00 07 1d 	sw $7,84($29)
  407108:	02 00 00 00 f0 5f 11 00 	jal 457fc0 <safemalloc>
  407110:	42 00 00 00 00 12 02 00 	addu $18,$0,$2
  407118:	42 00 00 00 00 04 12 00 	addu $4,$0,$18
  407120:	42 00 00 00 00 05 00 00 	addu $5,$0,$0
  407128:	43 00 00 00 34 00 06 00 	addiu $6,$0,52
  407130:	02 00 00 00 90 81 11 00 	jal 460640 <memset>
  407138:	30 00 00 00 32 00 10 12 	sb $16,50($18)
  407140:	34 00 00 00 04 00 11 12 	sw $17,4($18)
  407148:	28 00 00 00 50 00 02 1d 	lw $2,80($29)
  407150:	34 00 00 00 1c 00 02 12 	sw $2,28($18)
  407158:	28 00 00 00 54 00 02 1d 	lw $2,84($29)
  407160:	42 00 00 00 00 14 12 00 	addu $20,$0,$18
  407168:	34 00 00 00 20 00 02 12 	sw $2,32($18)
  407170:	05 00 00 00 06 00 00 11 	beq $17,$0,407190 <make_icmd+0xe8>
  407178:	26 00 00 00 26 00 02 12 	lhu $2,38($18)
  407180:	51 00 00 00 00 02 02 02 	ori $2,$2,512
  407188:	32 00 00 00 26 00 02 12 	sh $2,38($18)
  407190:	26 00 00 00 0c 94 03 1c 	lhu $3,-27636($28)
  407198:	51 00 00 00 ff ff 02 00 	ori $2,$0,65535
  4071a0:	06 00 00 00 08 00 02 03 	bne $3,$2,4071c8 <make_icmd+0x120>
  4071a8:	28 00 00 00 e0 92 02 1c 	lw $2,-27936($28)
  4071b0:	26 00 00 00 30 00 02 02 	lhu $2,48($2)
  4071b8:	32 00 00 00 30 00 02 12 	sh $2,48($18)
  4071c0:	01 00 00 00 78 1c 10 00 	j 4071e0 <make_icmd+0x138>
  4071c8:	51 00 00 00 ff ff 02 00 	ori $2,$0,65535
  4071d0:	32 00 00 00 30 00 03 12 	sh $3,48($18)
  4071d8:	32 00 00 00 0c 94 02 1c 	sh $2,-27636($28)
  4071e0:	28 00 00 00 e0 92 02 1c 	lw $2,-27936($28)
  4071e8:	28 00 00 00 bc 9f 03 1c 	lw $3,-24644($28)
  4071f0:	28 00 00 00 2c 00 02 02 	lw $2,44($2)
  4071f8:	34 00 00 00 2c 00 02 12 	sw $2,44($18)
  407200:	34 00 00 00 28 00 03 12 	sw $3,40($18)
  407208:	28 00 00 00 54 00 04 1d 	lw $4,84($29)
  407210:	42 00 00 00 00 10 12 00 	addu $16,$0,$18
  407218:	05 00 00 00 a0 00 00 04 	beq $4,$0,4074a0 <make_icmd+0x3f8>
  407220:	43 00 00 00 07 00 03 00 	addiu $3,$0,7
  407228:	20 00 00 00 32 00 02 04 	lb $2,50($4)
  407230:	06 00 00 00 06 00 03 02 	bne $2,$3,407250 <make_icmd+0x1a8>
  407238:	42 00 00 00 00 10 04 00 	addu $16,$0,$4
  407240:	28 00 00 00 20 00 04 10 	lw $4,32($16)
  407248:	06 00 00 00 f6 ff 00 04 	bne $4,$0,407228 <make_icmd+0x180>
  407250:	05 00 00 00 92 00 00 04 	beq $4,$0,4074a0 <make_icmd+0x3f8>
  407258:	34 00 00 00 10 00 04 1d 	sw $4,16($29)
  407260:	34 00 00 00 14 00 00 1d 	sw $0,20($29)
  407268:	28 00 00 00 10 00 02 1d 	lw $2,16($29)
  407270:	28 00 00 00 14 00 03 1d 	lw $3,20($29)
  407278:	34 00 00 00 28 00 02 1d 	sw $2,40($29)
  407280:	34 00 00 00 2c 00 03 1d 	sw $3,44($29)
  407288:	43 00 00 00 34 00 04 00 	addiu $4,$0,52
  407290:	02 00 00 00 f0 5f 11 00 	jal 457fc0 <safemalloc>
  407298:	42 00 00 00 00 11 02 00 	addu $17,$0,$2
  4072a0:	42 00 00 00 00 04 11 00 	addu $4,$0,$17
  4072a8:	42 00 00 00 00 05 00 00 	addu $5,$0,$0
  4072b0:	43 00 00 00 34 00 06 00 	addiu $6,$0,52
  4072b8:	02 00 00 00 90 81 11 00 	jal 460640 <memset>
  4072c0:	43 00 00 00 02 00 02 00 	addiu $2,$0,2
  4072c8:	30 00 00 00 32 00 02 11 	sb $2,50($17)
  4072d0:	34 00 00 00 04 00 00 11 	sw $0,4($17)
  4072d8:	28 00 00 00 28 00 02 1d 	lw $2,40($29)
  4072e0:	26 00 00 00 0c 94 03 1c 	lhu $3,-27636($28)
  4072e8:	34 00 00 00 1c 00 02 11 	sw $2,28($17)
  4072f0:	28 00 00 00 2c 00 02 1d 	lw $2,44($29)
  4072f8:	42 00 00 00 00 13 10 00 	addu $19,$0,$16
  407300:	34 00 00 00 20 00 02 11 	sw $2,32($17)
  407308:	51 00 00 00 ff ff 02 00 	ori $2,$0,65535
  407310:	06 00 00 00 08 00 02 03 	bne $3,$2,407338 <make_icmd+0x290>
  407318:	28 00 00 00 e0 92 02 1c 	lw $2,-27936($28)
  407320:	26 00 00 00 30 00 02 02 	lhu $2,48($2)
  407328:	32 00 00 00 30 00 02 11 	sh $2,48($17)
  407330:	01 00 00 00 d4 1c 10 00 	j 407350 <make_icmd+0x2a8>
  407338:	51 00 00 00 ff ff 02 00 	ori $2,$0,65535
  407340:	32 00 00 00 30 00 03 11 	sh $3,48($17)
  407348:	32 00 00 00 0c 94 02 1c 	sh $2,-27636($28)
  407350:	28 00 00 00 e0 92 02 1c 	lw $2,-27936($28)
  407358:	28 00 00 00 bc 9f 03 1c 	lw $3,-24644($28)
  407360:	28 00 00 00 08 94 04 1c 	lw $4,-27640($28)
  407368:	28 00 00 00 2c 00 02 02 	lw $2,44($2)
  407370:	34 00 00 00 2c 00 02 11 	sw $2,44($17)
  407378:	34 00 00 00 28 00 03 11 	sw $3,40($17)
  407380:	05 00 00 00 06 00 00 04 	beq $4,$0,4073a0 <make_icmd+0x2f8>
  407388:	42 00 00 00 00 04 11 00 	addu $4,$0,$17
  407390:	02 00 00 00 6c 1a 10 00 	jal 4069b0 <dodb>
  407398:	42 00 00 00 00 11 02 00 	addu $17,$0,$2
  4073a0:	42 00 00 00 00 05 13 00 	addu $5,$0,$19
  4073a8:	42 00 00 00 00 04 11 00 	addu $4,$0,$17
  4073b0:	06 00 00 00 04 00 00 04 	bne $4,$0,4073c8 <make_icmd+0x320>
  4073b8:	42 00 00 00 00 04 05 00 	addu $4,$0,$5
  4073c0:	01 00 00 00 24 1d 10 00 	j 407490 <make_icmd+0x3e8>
  4073c8:	28 00 00 00 08 00 02 04 	lw $2,8($4)
  4073d0:	06 00 00 00 02 00 00 02 	bne $2,$0,4073e0 <make_icmd+0x338>
  4073d8:	34 00 00 00 08 00 04 04 	sw $4,8($4)
  4073e0:	05 00 00 00 26 00 00 05 	beq $5,$0,407480 <make_icmd+0x3d8>
  4073e8:	28 00 00 00 08 00 02 05 	lw $2,8($5)
  4073f0:	28 00 00 00 08 00 04 04 	lw $4,8($4)
  4073f8:	06 00 00 00 0c 00 00 02 	bne $2,$0,407430 <make_icmd+0x388>
  407400:	34 00 00 00 08 00 05 05 	sw $5,8($5)
  407408:	01 00 00 00 0c 1d 10 00 	j 407430 <make_icmd+0x388>
  407410:	28 00 00 00 00 00 02 05 	lw $2,0($5)
  407418:	28 00 00 00 08 00 03 05 	lw $3,8($5)
  407420:	34 00 00 00 08 00 03 02 	sw $3,8($2)
  407428:	28 00 00 00 00 00 05 05 	lw $5,0($5)
  407430:	28 00 00 00 00 00 02 05 	lw $2,0($5)
  407438:	06 00 00 00 f4 ff 00 02 	bne $2,$0,407410 <make_icmd+0x368>
  407440:	28 00 00 00 08 00 02 05 	lw $2,8($5)
  407448:	34 00 00 00 00 00 04 05 	sw $4,0($5)
  407450:	34 00 00 00 08 00 02 04 	sw $2,8($4)
  407458:	01 00 00 00 20 1d 10 00 	j 407480 <make_icmd+0x3d8>
  407460:	28 00 00 00 00 00 02 04 	lw $2,0($4)
  407468:	28 00 00 00 08 00 03 04 	lw $3,8($4)
  407470:	34 00 00 00 08 00 03 02 	sw $3,8($2)
  407478:	28 00 00 00 00 00 04 04 	lw $4,0($4)
  407480:	28 00 00 00 00 00 02 04 	lw $2,0($4)
  407488:	06 00 00 00 f4 ff 00 02 	bne $2,$0,407460 <make_icmd+0x3b8>
  407490:	34 00 00 00 20 00 04 10 	sw $4,32($16)
  407498:	01 00 00 00 2a 1d 10 00 	j 4074a8 <make_icmd+0x400>
  4074a0:	42 00 00 00 00 04 10 00 	addu $4,$0,$16
  4074a8:	42 00 00 00 00 10 12 00 	addu $16,$0,$18
  4074b0:	05 00 00 00 1c 00 00 10 	beq $16,$0,407528 <make_icmd+0x480>
  4074b8:	43 00 00 00 07 00 05 00 	addiu $5,$0,7
  4074c0:	43 00 00 00 01 00 03 00 	addiu $3,$0,1
  4074c8:	42 00 00 00 00 10 12 00 	addu $16,$0,$18
  4074d0:	28 00 00 00 20 00 12 10 	lw $18,32($16)
  4074d8:	20 00 00 00 32 00 02 10 	lb $2,50($16)
  4074e0:	34 00 00 00 08 00 14 10 	sw $20,8($16)
  4074e8:	06 00 00 00 02 00 05 02 	bne $2,$5,4074f8 <make_icmd+0x450>
  4074f0:	30 00 00 00 32 00 03 10 	sb $3,50($16)
  4074f8:	20 00 00 00 32 00 02 10 	lb $2,50($16)
  407500:	06 00 00 00 02 00 03 02 	bne $2,$3,407510 <make_icmd+0x468>
  407508:	34 00 00 00 20 00 04 10 	sw $4,32($16)
  407510:	05 00 00 00 04 00 04 10 	beq $16,$4,407528 <make_icmd+0x480>
  407518:	34 00 00 00 00 00 12 10 	sw $18,0($16)
  407520:	06 00 00 00 e8 ff 00 12 	bne $18,$0,4074c8 <make_icmd+0x420>
  407528:	28 00 00 00 08 94 02 1c 	lw $2,-27640($28)
  407530:	05 00 00 00 06 00 00 02 	beq $2,$0,407550 <make_icmd+0x4a8>
  407538:	42 00 00 00 00 04 10 00 	addu $4,$0,$16
  407540:	02 00 00 00 6c 1a 10 00 	jal 4069b0 <dodb>
  407548:	42 00 00 00 00 10 02 00 	addu $16,$0,$2
  407550:	42 00 00 00 00 02 10 00 	addu $2,$0,$16
  407558:	28 00 00 00 44 00 1f 1d 	lw $31,68($29)
  407560:	28 00 00 00 40 00 14 1d 	lw $20,64($29)
  407568:	28 00 00 00 3c 00 13 1d 	lw $19,60($29)
  407570:	28 00 00 00 38 00 12 1d 	lw $18,56($29)
  407578:	28 00 00 00 34 00 11 1d 	lw $17,52($29)
  407580:	28 00 00 00 30 00 10 1d 	lw $16,48($29)
  407588:	43 00 00 00 48 00 1d 1d 	addiu $29,$29,72
  407590:	03 00 00 00 00 00 00 1f 	jr $31

00407598 <opt_arg>:
  407598:	43 00 00 00 c8 ff 1d 1d 	addiu $29,$29,-56
  4075a0:	34 00 00 00 14 00 11 1d 	sw $17,20($29)
  4075a8:	42 00 00 00 00 11 04 00 	addu $17,$0,$4
  4075b0:	34 00 00 00 2c 00 17 1d 	sw $23,44($29)
  4075b8:	42 00 00 00 00 17 05 00 	addu $23,$0,$5
  4075c0:	34 00 00 00 30 00 1e 1d 	sw $30,48($29)
  4075c8:	42 00 00 00 00 1e 06 00 	addu $30,$0,$6
  4075d0:	34 00 00 00 20 00 14 1d 	sw $20,32($29)
  4075d8:	43 00 00 00 07 00 14 00 	addiu $20,$0,7
  4075e0:	34 00 00 00 18 00 12 1d 	sw $18,24($29)
  4075e8:	42 00 00 00 00 12 00 00 	addu $18,$0,$0
  4075f0:	34 00 00 00 24 00 15 1d 	sw $21,36($29)
  4075f8:	42 00 00 00 00 15 00 00 	addu $21,$0,$0
  407600:	34 00 00 00 1c 00 13 1d 	sw $19,28($29)
  407608:	42 00 00 00 00 13 17 00 	addu $19,$0,$23
  407610:	34 00 00 00 34 00 1f 1d 	sw $31,52($29)
  407618:	34 00 00 00 28 00 16 1d 	sw $22,40($29)
  407620:	34 00 00 00 10 00 10 1d 	sw $16,16($29)
  407628:	05 00 00 00 1e 04 00 11 	beq $17,$0,4086a8 <opt_arg+0x1110>
  407630:	28 00 00 00 04 00 10 11 	lw $16,4($17)
  407638:	06 00 00 00 06 00 00 10 	bne $16,$0,407658 <opt_arg+0xc0>
  407640:	26 00 00 00 26 00 02 11 	lhu $2,38($17)
  407648:	4f 00 00 00 ff fd 02 02 	andi $2,$2,65023
  407650:	01 00 00 00 a8 21 10 00 	j 4086a0 <opt_arg+0x1108>
  407658:	05 00 00 00 40 00 00 1e 	beq $30,$0,407760 <opt_arg+0x1c8>
  407660:	28 00 00 00 20 00 02 11 	lw $2,32($17)
  407668:	06 00 00 00 3c 00 00 02 	bne $2,$0,407760 <opt_arg+0x1c8>
  407670:	26 00 00 00 26 00 02 11 	lhu $2,38($17)
  407678:	4f 00 00 00 00 40 02 02 	andi $2,$2,16384
  407680:	06 00 00 00 36 00 00 02 	bne $2,$0,407760 <opt_arg+0x1c8>
  407688:	26 00 00 00 06 00 02 10 	lhu $2,6($16)
  407690:	43 00 00 00 da ff 02 02 	addiu $2,$2,-38
  407698:	5e 00 00 00 02 00 02 02 	sltiu $2,$2,2
  4076a0:	05 00 00 00 2e 00 00 02 	beq $2,$0,407760 <opt_arg+0x1c8>
  4076a8:	42 00 00 00 00 04 10 00 	addu $4,$0,$16
  4076b0:	43 00 00 00 01 00 05 00 	addiu $5,$0,1
  4076b8:	02 00 00 00 68 39 10 00 	jal 40e5a0 <dehoist>
  4076c0:	26 00 00 00 1e 00 02 10 	lhu $2,30($16)
  4076c8:	42 00 00 00 00 04 10 00 	addu $4,$0,$16
  4076d0:	43 00 00 00 02 00 05 00 	addiu $5,$0,2
  4076d8:	4f 00 00 00 1f 00 02 02 	andi $2,$2,31
  4076e0:	32 00 00 00 1e 00 02 10 	sh $2,30($16)
  4076e8:	02 00 00 00 68 39 10 00 	jal 40e5a0 <dehoist>
  4076f0:	28 00 00 00 18 00 02 10 	lw $2,24($16)
  4076f8:	34 00 00 00 20 00 02 11 	sw $2,32($17)
  407700:	28 00 00 00 0c 00 02 10 	lw $2,12($16)
  407708:	34 00 00 00 04 00 02 11 	sw $2,4($17)
  407710:	26 00 00 00 06 00 03 10 	lhu $3,6($16)
  407718:	43 00 00 00 27 00 02 00 	addiu $2,$0,39
  407720:	06 00 00 00 06 00 02 03 	bne $3,$2,407740 <opt_arg+0x1a8>
  407728:	26 00 00 00 26 00 02 11 	lhu $2,38($17)
  407730:	53 00 00 00 00 08 02 02 	xori $2,$2,2048
  407738:	32 00 00 00 26 00 02 11 	sh $2,38($17)
  407740:	42 00 00 00 00 04 10 00 	addu $4,$0,$16
  407748:	32 00 00 00 04 00 00 04 	sh $0,4($4)
  407750:	02 00 00 00 60 3c 10 00 	jal 40f180 <free_arg>
  407758:	28 00 00 00 04 00 10 11 	lw $16,4($17)
  407760:	26 00 00 00 26 00 02 11 	lhu $2,38($17)
  407768:	4f 00 00 00 00 40 02 02 	andi $2,$2,16384
  407770:	06 00 00 00 22 00 00 02 	bne $2,$0,407800 <opt_arg+0x268>
  407778:	26 00 00 00 06 00 03 10 	lhu $3,6($16)
  407780:	43 00 00 00 2b 00 02 00 	addiu $2,$0,43
  407788:	06 00 00 00 1c 00 02 03 	bne $3,$2,407800 <opt_arg+0x268>
  407790:	43 00 00 00 2b 00 16 00 	addiu $22,$0,43
  407798:	42 00 00 00 00 04 10 00 	addu $4,$0,$16
  4077a0:	43 00 00 00 01 00 05 00 	addiu $5,$0,1
  4077a8:	02 00 00 00 68 39 10 00 	jal 40e5a0 <dehoist>
  4077b0:	26 00 00 00 26 00 02 11 	lhu $2,38($17)
  4077b8:	53 00 00 00 00 08 02 02 	xori $2,$2,2048
  4077c0:	32 00 00 00 26 00 02 11 	sh $2,38($17)
  4077c8:	28 00 00 00 0c 00 02 10 	lw $2,12($16)
  4077d0:	42 00 00 00 00 04 10 00 	addu $4,$0,$16
  4077d8:	34 00 00 00 04 00 02 11 	sw $2,4($17)
  4077e0:	02 00 00 00 60 3c 10 00 	jal 40f180 <free_arg>
  4077e8:	28 00 00 00 04 00 10 11 	lw $16,4($17)
  4077f0:	26 00 00 00 06 00 02 10 	lhu $2,6($16)
  4077f8:	05 00 00 00 e6 ff 16 02 	beq $2,$22,407798 <opt_arg+0x200>
  407800:	24 00 00 00 04 00 02 10 	lh $2,4($16)
  407808:	06 00 00 00 06 00 00 02 	bne $2,$0,407828 <opt_arg+0x290>
  407810:	26 00 00 00 26 00 02 11 	lhu $2,38($17)
  407818:	50 00 00 00 00 02 14 02 	or $2,$2,$20
  407820:	01 00 00 00 a8 21 10 00 	j 4086a0 <opt_arg+0x1108>
  407828:	26 00 00 00 06 00 03 10 	lhu $3,6($16)
  407830:	43 00 00 00 8d 00 02 00 	addiu $2,$0,141
  407838:	06 00 00 00 02 00 02 03 	bne $3,$2,407848 <opt_arg+0x2b0>
  407840:	51 00 00 00 04 00 15 15 	ori $21,$21,4
  407848:	26 00 00 00 06 00 03 10 	lhu $3,6($16)
  407850:	43 00 00 00 26 00 02 00 	addiu $2,$0,38
  407858:	06 00 00 00 04 00 02 03 	bne $3,$2,407870 <opt_arg+0x2d8>
  407860:	51 00 00 00 01 00 15 15 	ori $21,$21,1
  407868:	01 00 00 00 22 1e 10 00 	j 407888 <opt_arg+0x2f0>
  407870:	43 00 00 00 27 00 02 00 	addiu $2,$0,39
  407878:	06 00 00 00 02 00 02 03 	bne $3,$2,407888 <opt_arg+0x2f0>
  407880:	51 00 00 00 02 00 15 15 	ori $21,$21,2
  407888:	05 00 00 00 1c 00 00 15 	beq $21,$0,407900 <opt_arg+0x368>
  407890:	55 00 00 00 01 02 13 00 	sll $2,$19,0x1
  407898:	42 00 00 00 00 02 13 02 	addu $2,$2,$19
  4078a0:	55 00 00 00 02 02 02 00 	sll $2,$2,0x2
  4078a8:	42 00 00 00 00 04 10 02 	addu $4,$2,$16
  4078b0:	26 00 00 00 06 00 02 04 	lhu $2,6($4)
  4078b8:	43 00 00 00 01 00 03 00 	addiu $3,$0,1
  4078c0:	4f 00 00 00 1f 00 02 02 	andi $2,$2,31
  4078c8:	06 00 00 00 0c 00 03 02 	bne $2,$3,407900 <opt_arg+0x368>
  4078d0:	28 00 00 00 00 00 10 04 	lw $16,0($4)
  4078d8:	26 00 00 00 06 00 02 10 	lhu $2,6($16)
  4078e0:	43 00 00 00 01 00 13 00 	addiu $19,$0,1
  4078e8:	43 00 00 00 da ff 02 02 	addiu $2,$2,-38
  4078f0:	5e 00 00 00 02 00 02 02 	sltiu $2,$2,2
  4078f8:	06 00 00 00 d2 ff 00 02 	bne $2,$0,407848 <opt_arg+0x2b0>
  407900:	4f 00 00 00 03 00 03 15 	andi $3,$21,3
  407908:	43 00 00 00 03 00 02 00 	addiu $2,$0,3
  407910:	05 00 00 00 64 03 02 03 	beq $3,$2,4086a8 <opt_arg+0x1110>
  407918:	55 00 00 00 01 02 13 00 	sll $2,$19,0x1
  407920:	42 00 00 00 00 02 13 02 	addu $2,$2,$19
  407928:	55 00 00 00 02 02 02 00 	sll $2,$2,0x2
  407930:	42 00 00 00 00 04 10 02 	addu $4,$2,$16
  407938:	26 00 00 00 08 00 02 04 	lhu $2,8($4)
  407940:	4f 00 00 00 06 00 02 02 	andi $2,$2,6
  407948:	05 00 00 00 24 00 00 02 	beq $2,$0,4079e0 <opt_arg+0x448>
  407950:	26 00 00 00 26 00 02 11 	lhu $2,38($17)
  407958:	50 00 00 00 00 02 14 02 	or $2,$2,$20
  407960:	32 00 00 00 26 00 02 11 	sh $2,38($17)
  407968:	05 00 00 00 4e 03 00 1e 	beq $30,$0,4086a8 <opt_arg+0x1110>
  407970:	28 00 00 00 20 00 02 11 	lw $2,32($17)
  407978:	06 00 00 00 4a 03 00 02 	bne $2,$0,4086a8 <opt_arg+0x1110>
  407980:	26 00 00 00 26 00 02 11 	lhu $2,38($17)
  407988:	4f 00 00 00 00 40 02 02 	andi $2,$2,16384
  407990:	06 00 00 00 44 03 00 02 	bne $2,$0,4086a8 <opt_arg+0x1110>
  407998:	28 00 00 00 04 00 02 11 	lw $2,4($17)
  4079a0:	26 00 00 00 06 00 03 02 	lhu $3,6($2)
  4079a8:	43 00 00 00 02 00 02 00 	addiu $2,$0,2
  4079b0:	06 00 00 00 3c 03 02 03 	bne $3,$2,4086a8 <opt_arg+0x1110>
  4079b8:	26 00 00 00 08 00 02 04 	lhu $2,8($4)
  4079c0:	4f 00 00 00 fd ff 02 02 	andi $2,$2,65533
  4079c8:	51 00 00 00 04 00 02 02 	ori $2,$2,4
  4079d0:	32 00 00 00 08 00 02 04 	sh $2,8($4)
  4079d8:	01 00 00 00 aa 21 10 00 	j 4086a8 <opt_arg+0x1110>
  4079e0:	26 00 00 00 06 00 04 10 	lhu $4,6($16)
  4079e8:	43 00 00 00 02 00 06 00 	addiu $6,$0,2
  4079f0:	05 00 00 00 0c 00 06 04 	beq $4,$6,407a28 <opt_arg+0x490>
  4079f8:	43 00 00 00 8d 00 02 00 	addiu $2,$0,141
  407a00:	05 00 00 00 08 00 02 04 	beq $4,$2,407a28 <opt_arg+0x490>
  407a08:	26 00 00 00 06 00 03 10 	lhu $3,6($16)
  407a10:	43 00 00 00 da ff 02 03 	addiu $2,$3,-38
  407a18:	5e 00 00 00 02 00 02 02 	sltiu $2,$2,2
  407a20:	05 00 00 00 84 00 00 02 	beq $2,$0,407c38 <opt_arg+0x6a0>
  407a28:	55 00 00 00 01 02 13 00 	sll $2,$19,0x1
  407a30:	42 00 00 00 00 02 13 02 	addu $2,$2,$19
  407a38:	55 00 00 00 02 02 02 00 	sll $2,$2,0x2
  407a40:	42 00 00 00 00 03 10 02 	addu $3,$2,$16
  407a48:	26 00 00 00 06 00 02 03 	lhu $2,6($3)
  407a50:	4f 00 00 00 1f 00 04 02 	andi $4,$2,31
  407a58:	43 00 00 00 05 00 02 00 	addiu $2,$0,5
  407a60:	06 00 00 00 46 00 02 04 	bne $4,$2,407b80 <opt_arg+0x5e8>
  407a68:	28 00 00 00 00 00 03 03 	lw $3,0($3)
  407a70:	34 00 00 00 60 9f 03 1c 	sw $3,-24736($28)
  407a78:	22 00 00 00 18 00 02 03 	lbu $2,24($3)
  407a80:	05 00 00 00 1c 00 00 02 	beq $2,$0,407af8 <opt_arg+0x560>
  407a88:	28 00 00 00 00 00 02 03 	lw $2,0($3)
  407a90:	20 00 00 00 00 00 04 02 	lb $4,0($2)
  407a98:	42 00 00 00 00 14 00 00 	addu $20,$0,$0
  407aa0:	5c 00 00 00 31 00 02 04 	slti $2,$4,49
  407aa8:	05 00 00 00 0c 00 00 02 	beq $2,$0,407ae0 <opt_arg+0x548>
  407ab0:	28 00 00 00 10 00 03 03 	lw $3,16($3)
  407ab8:	5e 00 00 00 02 00 02 03 	sltiu $2,$3,2
  407ac0:	05 00 00 00 06 00 00 02 	beq $2,$0,407ae0 <opt_arg+0x548>
  407ac8:	05 00 00 00 06 00 00 03 	beq $3,$0,407ae8 <opt_arg+0x550>
  407ad0:	43 00 00 00 30 00 02 00 	addiu $2,$0,48
  407ad8:	05 00 00 00 02 00 02 04 	beq $4,$2,407ae8 <opt_arg+0x550>
  407ae0:	43 00 00 00 01 00 14 00 	addiu $20,$0,1
  407ae8:	5d 00 00 00 00 14 14 00 	sltu $20,$0,$20
  407af0:	01 00 00 00 d0 1e 10 00 	j 407b40 <opt_arg+0x5a8>
  407af8:	22 00 00 00 19 00 02 03 	lbu $2,25($3)
  407b00:	05 00 00 00 0c 00 00 02 	beq $2,$0,407b38 <opt_arg+0x5a0>
  407b08:	a5 00 00 00 00 00 00 02 	mtc1 $0,$f2
  407b10:	a5 00 00 00 00 00 00 03 	mtc1 $0,$f3
  407b18:	2b 00 00 00 08 00 00 03 	l.d $f0,8($3)
  407b20:	91 00 00 00 00 00 02 00 	c.eq.d $f0,$f2
  407b28:	43 00 00 00 01 00 14 00 	addiu $20,$0,1
  407b30:	0b 00 00 00 02 00 00 00 	bc1f 407b40 <opt_arg+0x5a8>
  407b38:	42 00 00 00 00 14 00 00 	addu $20,$0,$0
  407b40:	55 00 00 00 01 02 13 00 	sll $2,$19,0x1
  407b48:	42 00 00 00 00 02 13 02 	addu $2,$2,$19
  407b50:	55 00 00 00 02 02 02 00 	sll $2,$2,0x2
  407b58:	42 00 00 00 00 02 10 02 	addu $2,$2,$16
  407b60:	28 00 00 00 00 00 04 02 	lw $4,0($2)
  407b68:	02 00 00 00 68 19 11 00 	jal 4465a0 <str_smake>
  407b70:	34 00 00 00 0c 00 02 11 	sw $2,12($17)
  407b78:	01 00 00 00 f0 1e 10 00 	j 407bc0 <opt_arg+0x628>
  407b80:	43 00 00 00 fd ff 02 04 	addiu $2,$4,-3
  407b88:	5e 00 00 00 02 00 02 02 	sltiu $2,$2,2
  407b90:	05 00 00 00 44 02 00 02 	beq $2,$0,4084a8 <opt_arg+0xf10>
  407b98:	28 00 00 00 00 00 02 03 	lw $2,0($3)
  407ba0:	34 00 00 00 10 00 02 11 	sw $2,16($17)
  407ba8:	06 00 00 00 02 00 00 15 	bne $21,$0,407bb8 <opt_arg+0x620>
  407bb0:	34 00 00 00 00 00 00 03 	sw $0,0($3)
  407bb8:	43 00 00 00 02 00 14 00 	addiu $20,$0,2
  407bc0:	06 00 00 00 06 00 00 15 	bne $21,$0,407be0 <opt_arg+0x648>
  407bc8:	42 00 00 00 00 04 10 00 	addu $4,$0,$16
  407bd0:	02 00 00 00 ce 26 10 00 	jal 409b38 <arg_free>
  407bd8:	34 00 00 00 04 00 00 11 	sw $0,4($17)
  407be0:	4f 00 00 00 01 00 02 15 	andi $2,$21,1
  407be8:	06 00 00 00 06 00 00 02 	bne $2,$0,407c08 <opt_arg+0x670>
  407bf0:	26 00 00 00 26 00 02 11 	lhu $2,38($17)
  407bf8:	51 00 00 00 00 01 02 02 	ori $2,$2,256
  407c00:	32 00 00 00 26 00 02 11 	sh $2,38($17)
  407c08:	4f 00 00 00 02 00 02 15 	andi $2,$21,2
  407c10:	06 00 00 00 24 02 00 02 	bne $2,$0,4084a8 <opt_arg+0xf10>
  407c18:	26 00 00 00 26 00 02 11 	lhu $2,38($17)
  407c20:	51 00 00 00 80 00 02 02 	ori $2,$2,128
  407c28:	32 00 00 00 26 00 02 11 	sh $2,38($17)
  407c30:	01 00 00 00 2a 21 10 00 	j 4084a8 <opt_arg+0xf10>
  407c38:	43 00 00 00 08 00 05 00 	addiu $5,$0,8
  407c40:	05 00 00 00 0a 00 05 04 	beq $4,$5,407c70 <opt_arg+0x6d8>
  407c48:	43 00 00 00 f7 ff 02 03 	addiu $2,$3,-9
  407c50:	5e 00 00 00 02 00 02 02 	sltiu $2,$2,2
  407c58:	06 00 00 00 04 00 00 02 	bne $2,$0,407c70 <opt_arg+0x6d8>
  407c60:	43 00 00 00 0b 00 02 00 	addiu $2,$0,11
  407c68:	06 00 00 00 c4 00 02 04 	bne $4,$2,407f80 <opt_arg+0x9e8>
  407c70:	26 00 00 00 12 00 02 10 	lhu $2,18($16)
  407c78:	43 00 00 00 fd ff 02 02 	addiu $2,$2,-3
  407c80:	5e 00 00 00 02 00 02 02 	sltiu $2,$2,2
  407c88:	05 00 00 00 06 02 00 02 	beq $2,$0,4084a8 <opt_arg+0xf10>
  407c90:	26 00 00 00 1e 00 02 10 	lhu $2,30($16)
  407c98:	43 00 00 00 09 00 03 00 	addiu $3,$0,9
  407ca0:	4f 00 00 00 1f 00 02 02 	andi $2,$2,31
  407ca8:	06 00 00 00 fe 01 03 02 	bne $2,$3,4084a8 <opt_arg+0xf10>
  407cb0:	28 00 00 00 18 00 03 10 	lw $3,24($16)
  407cb8:	28 00 00 00 10 00 02 03 	lw $2,16($3)
  407cc0:	05 00 00 00 f8 01 00 02 	beq $2,$0,4084a8 <opt_arg+0xf10>
  407cc8:	26 00 00 00 06 00 02 10 	lhu $2,6($16)
  407cd0:	43 00 00 00 f6 ff 02 02 	addiu $2,$2,-10
  407cd8:	5e 00 00 00 02 00 02 02 	sltiu $2,$2,2
  407ce0:	06 00 00 00 06 00 00 02 	bne $2,$0,407d00 <opt_arg+0x768>
  407ce8:	26 00 00 00 14 00 02 03 	lhu $2,20($3)
  407cf0:	4f 00 00 00 00 01 02 02 	andi $2,$2,256
  407cf8:	06 00 00 00 ea 01 00 02 	bne $2,$0,4084a8 <opt_arg+0xf10>
  407d00:	28 00 00 00 0c 00 02 10 	lw $2,12($16)
  407d08:	34 00 00 00 10 00 02 11 	sw $2,16($17)
  407d10:	28 00 00 00 18 00 02 10 	lw $2,24($16)
  407d18:	28 00 00 00 10 00 04 02 	lw $4,16($2)
  407d20:	02 00 00 00 68 19 11 00 	jal 4465a0 <str_smake>
  407d28:	34 00 00 00 0c 00 02 11 	sw $2,12($17)
  407d30:	28 00 00 00 18 00 02 10 	lw $2,24($16)
  407d38:	22 00 00 00 16 00 02 02 	lbu $2,22($2)
  407d40:	55 00 00 00 18 02 02 00 	sll $2,$2,0x18
  407d48:	59 00 00 00 18 02 02 00 	sra $2,$2,0x18
  407d50:	32 00 00 00 24 00 02 11 	sh $2,36($17)
  407d58:	28 00 00 00 18 00 02 10 	lw $2,24($16)
  407d60:	28 00 00 00 14 00 02 02 	lw $2,20($2)
  407d68:	43 00 00 00 08 00 03 00 	addiu $3,$0,8
  407d70:	4f 00 00 00 0a 00 02 02 	andi $2,$2,10
  407d78:	06 00 00 00 0a 00 03 02 	bne $2,$3,407da8 <opt_arg+0x810>
  407d80:	26 00 00 00 06 00 02 10 	lhu $2,6($16)
  407d88:	43 00 00 00 f8 ff 02 02 	addiu $2,$2,-8
  407d90:	5e 00 00 00 02 00 02 02 	sltiu $2,$2,2
  407d98:	05 00 00 00 02 00 00 02 	beq $2,$0,407da8 <opt_arg+0x810>
  407da0:	51 00 00 00 00 01 12 12 	ori $18,$18,256
  407da8:	26 00 00 00 06 00 03 10 	lhu $3,6($16)
  407db0:	43 00 00 00 0a 00 02 00 	addiu $2,$0,10
  407db8:	05 00 00 00 0e 00 02 03 	beq $3,$2,407df8 <opt_arg+0x860>
  407dc0:	28 00 00 00 18 00 02 10 	lw $2,24($16)
  407dc8:	28 00 00 00 10 00 04 02 	lw $4,16($2)
  407dd0:	02 00 00 00 ec fd 10 00 	jal 43f7b0 <str_free>
  407dd8:	28 00 00 00 18 00 02 10 	lw $2,24($16)
  407de0:	34 00 00 00 10 00 00 02 	sw $0,16($2)
  407de8:	28 00 00 00 18 00 02 10 	lw $2,24($16)
  407df0:	30 00 00 00 16 00 00 02 	sb $0,22($2)
  407df8:	26 00 00 00 06 00 03 10 	lhu $3,6($16)
  407e00:	51 00 00 00 80 00 12 12 	ori $18,$18,128
  407e08:	43 00 00 00 09 00 02 00 	addiu $2,$0,9
  407e10:	05 00 00 00 04 00 02 03 	beq $3,$2,407e28 <opt_arg+0x890>
  407e18:	43 00 00 00 0b 00 02 00 	addiu $2,$0,11
  407e20:	06 00 00 00 06 00 02 03 	bne $3,$2,407e40 <opt_arg+0x8a8>
  407e28:	26 00 00 00 26 00 02 11 	lhu $2,38($17)
  407e30:	51 00 00 00 40 00 02 02 	ori $2,$2,64
  407e38:	32 00 00 00 26 00 02 11 	sh $2,38($17)
  407e40:	4f 00 00 00 01 00 02 15 	andi $2,$21,1
  407e48:	05 00 00 00 0a 00 00 02 	beq $2,$0,407e78 <opt_arg+0x8e0>
  407e50:	26 00 00 00 26 00 02 11 	lhu $2,38($17)
  407e58:	4f 00 00 00 40 00 02 02 	andi $2,$2,64
  407e60:	06 00 00 00 12 00 00 02 	bne $2,$0,407eb0 <opt_arg+0x918>
  407e68:	43 00 00 00 ff fe 02 00 	addiu $2,$0,-257
  407e70:	01 00 00 00 ae 1f 10 00 	j 407eb8 <opt_arg+0x920>
  407e78:	4f 00 00 00 02 00 02 15 	andi $2,$21,2
  407e80:	05 00 00 00 0e 00 00 02 	beq $2,$0,407ec0 <opt_arg+0x928>
  407e88:	26 00 00 00 26 00 02 11 	lhu $2,38($17)
  407e90:	4f 00 00 00 40 00 02 02 	andi $2,$2,64
  407e98:	05 00 00 00 04 00 00 02 	beq $2,$0,407eb0 <opt_arg+0x918>
  407ea0:	43 00 00 00 ff fe 02 00 	addiu $2,$0,-257
  407ea8:	01 00 00 00 ae 1f 10 00 	j 407eb8 <opt_arg+0x920>
  407eb0:	43 00 00 00 7f ff 02 00 	addiu $2,$0,-129
  407eb8:	4e 00 00 00 00 12 02 12 	and $18,$18,$2
  407ec0:	4f 00 00 00 80 01 02 12 	andi $2,$18,384
  407ec8:	05 00 00 00 76 01 00 02 	beq $2,$0,4084a8 <opt_arg+0xf10>
  407ed0:	28 00 00 00 18 00 04 10 	lw $4,24($16)
  407ed8:	26 00 00 00 14 00 02 04 	lhu $2,20($4)
  407ee0:	43 00 00 00 03 00 14 00 	addiu $20,$0,3
  407ee8:	4f 00 00 00 04 00 02 02 	andi $2,$2,4
  407ef0:	05 00 00 00 02 00 00 02 	beq $2,$0,407f00 <opt_arg+0x968>
  407ef8:	43 00 00 00 05 00 14 00 	addiu $20,$0,5
  407f00:	43 00 00 00 80 01 02 00 	addiu $2,$0,384
  407f08:	06 00 00 00 14 00 02 12 	bne $18,$2,407f60 <opt_arg+0x9c8>
  407f10:	26 00 00 00 06 00 03 10 	lhu $3,6($16)
  407f18:	43 00 00 00 08 00 02 00 	addiu $2,$0,8
  407f20:	06 00 00 00 0e 00 02 03 	bne $3,$2,407f60 <opt_arg+0x9c8>
  407f28:	4f 00 00 00 04 00 02 15 	andi $2,$21,4
  407f30:	05 00 00 00 0a 00 00 02 	beq $2,$0,407f60 <opt_arg+0x9c8>
  407f38:	43 00 00 00 01 00 02 00 	addiu $2,$0,1
  407f40:	06 00 00 00 06 00 02 17 	bne $23,$2,407f60 <opt_arg+0x9c8>
  407f48:	02 00 00 00 ca 27 10 00 	jal 409f28 <spat_free>
  407f50:	34 00 00 00 18 00 00 10 	sw $0,24($16)
  407f58:	01 00 00 00 dc 1f 10 00 	j 407f70 <opt_arg+0x9d8>
  407f60:	28 00 00 00 18 00 02 10 	lw $2,24($16)
  407f68:	34 00 00 00 14 00 02 11 	sw $2,20($17)
  407f70:	26 00 00 00 26 00 02 11 	lhu $2,38($17)
  407f78:	01 00 00 00 ce 20 10 00 	j 408338 <opt_arg+0xda0>
  407f80:	43 00 00 00 aa ff 02 03 	addiu $2,$3,-86
  407f88:	5e 00 00 00 02 00 02 02 	sltiu $2,$2,2
  407f90:	06 00 00 00 06 00 00 02 	bne $2,$0,407fb0 <opt_arg+0xa18>
  407f98:	43 00 00 00 ae ff 02 03 	addiu $2,$3,-82
  407fa0:	5e 00 00 00 02 00 02 02 	sltiu $2,$2,2
  407fa8:	05 00 00 00 78 00 00 02 	beq $2,$0,408190 <opt_arg+0xbf8>
  407fb0:	26 00 00 00 12 00 02 10 	lhu $2,18($16)
  407fb8:	43 00 00 00 fd ff 02 02 	addiu $2,$2,-3
  407fc0:	5e 00 00 00 02 00 02 02 	sltiu $2,$2,2
  407fc8:	05 00 00 00 36 01 00 02 	beq $2,$0,4084a8 <opt_arg+0xf10>
  407fd0:	26 00 00 00 1e 00 03 10 	lhu $3,30($16)
  407fd8:	43 00 00 00 05 00 02 00 	addiu $2,$0,5
  407fe0:	06 00 00 00 30 01 02 03 	bne $3,$2,4084a8 <opt_arg+0xf10>
  407fe8:	28 00 00 00 18 00 04 10 	lw $4,24($16)
  407ff0:	34 00 00 00 60 9f 04 1c 	sw $4,-24736($28)
  407ff8:	22 00 00 00 18 00 02 04 	lbu $2,24($4)
  408000:	06 00 00 00 02 00 00 02 	bne $2,$0,408010 <opt_arg+0xa78>
  408008:	02 00 00 00 ee f2 10 00 	jal 43cbb8 <str_2ptr>
  408010:	28 00 00 00 0c 00 02 10 	lw $2,12($16)
  408018:	34 00 00 00 10 00 02 11 	sw $2,16($17)
  408020:	28 00 00 00 18 00 04 10 	lw $4,24($16)
  408028:	02 00 00 00 68 19 11 00 	jal 4465a0 <str_smake>
  408030:	34 00 00 00 0c 00 02 11 	sw $2,12($17)
  408038:	26 00 00 00 10 00 02 02 	lhu $2,16($2)
  408040:	43 00 00 00 01 00 02 02 	addiu $2,$2,1
  408048:	32 00 00 00 24 00 02 11 	sh $2,36($17)
  408050:	26 00 00 00 06 00 04 10 	lhu $4,6($16)
  408058:	5c 00 00 00 52 00 02 04 	slti $2,$4,82
  408060:	06 00 00 00 20 00 00 02 	bne $2,$0,4080e8 <opt_arg+0xb50>
  408068:	5c 00 00 00 54 00 02 04 	slti $2,$4,84
  408070:	06 00 00 00 0a 00 00 02 	bne $2,$0,4080a0 <opt_arg+0xb08>
  408078:	43 00 00 00 56 00 02 00 	addiu $2,$0,86
  408080:	05 00 00 00 16 00 02 04 	beq $4,$2,4080e0 <opt_arg+0xb48>
  408088:	43 00 00 00 57 00 02 00 	addiu $2,$0,87
  408090:	05 00 00 00 0c 00 02 04 	beq $4,$2,4080c8 <opt_arg+0xb30>
  408098:	01 00 00 00 3a 20 10 00 	j 4080e8 <opt_arg+0xb50>
  4080a0:	26 00 00 00 26 00 02 11 	lhu $2,38($17)
  4080a8:	51 00 00 00 00 01 12 12 	ori $18,$18,256
  4080b0:	51 00 00 00 40 00 02 02 	ori $2,$2,64
  4080b8:	32 00 00 00 26 00 02 11 	sh $2,38($17)
  4080c0:	01 00 00 00 3a 20 10 00 	j 4080e8 <opt_arg+0xb50>
  4080c8:	26 00 00 00 26 00 02 11 	lhu $2,38($17)
  4080d0:	51 00 00 00 40 00 02 02 	ori $2,$2,64
  4080d8:	32 00 00 00 26 00 02 11 	sh $2,38($17)
  4080e0:	51 00 00 00 80 01 12 12 	ori $18,$18,384
  4080e8:	4f 00 00 00 01 00 02 15 	andi $2,$21,1
  4080f0:	05 00 00 00 0a 00 00 02 	beq $2,$0,408120 <opt_arg+0xb88>
  4080f8:	26 00 00 00 26 00 02 11 	lhu $2,38($17)
  408100:	4f 00 00 00 40 00 02 02 	andi $2,$2,64
  408108:	06 00 00 00 12 00 00 02 	bne $2,$0,408158 <opt_arg+0xbc0>
  408110:	43 00 00 00 ff fe 02 00 	addiu $2,$0,-257
  408118:	01 00 00 00 58 20 10 00 	j 408160 <opt_arg+0xbc8>
  408120:	4f 00 00 00 02 00 02 15 	andi $2,$21,2
  408128:	05 00 00 00 0e 00 00 02 	beq $2,$0,408168 <opt_arg+0xbd0>
  408130:	26 00 00 00 26 00 02 11 	lhu $2,38($17)
  408138:	4f 00 00 00 40 00 02 02 	andi $2,$2,64
  408140:	05 00 00 00 04 00 00 02 	beq $2,$0,408158 <opt_arg+0xbc0>
  408148:	43 00 00 00 ff fe 02 00 	addiu $2,$0,-257
  408150:	01 00 00 00 58 20 10 00 	j 408160 <opt_arg+0xbc8>
  408158:	43 00 00 00 7f ff 02 00 	addiu $2,$0,-129
  408160:	4e 00 00 00 00 12 02 12 	and $18,$18,$2
  408168:	4f 00 00 00 80 01 02 12 	andi $2,$18,384
  408170:	05 00 00 00 cc 00 00 02 	beq $2,$0,4084a8 <opt_arg+0xf10>
  408178:	26 00 00 00 26 00 02 11 	lhu $2,38($17)
  408180:	43 00 00 00 04 00 14 00 	addiu $20,$0,4
  408188:	01 00 00 00 ce 20 10 00 	j 408338 <opt_arg+0xda0>
  408190:	43 00 00 00 e0 ff 02 03 	addiu $2,$3,-32
  408198:	5e 00 00 00 02 00 02 02 	sltiu $2,$2,2
  4081a0:	06 00 00 00 0c 00 00 02 	bne $2,$0,4081d8 <opt_arg+0xc40>
  4081a8:	43 00 00 00 e2 ff 02 03 	addiu $2,$3,-30
  4081b0:	5e 00 00 00 02 00 02 02 	sltiu $2,$2,2
  4081b8:	06 00 00 00 06 00 00 02 	bne $2,$0,4081d8 <opt_arg+0xc40>
  4081c0:	43 00 00 00 e4 ff 02 03 	addiu $2,$3,-28
  4081c8:	5e 00 00 00 02 00 02 02 	sltiu $2,$2,2
  4081d0:	05 00 00 00 5e 00 00 02 	beq $2,$0,408350 <opt_arg+0xdb8>
  4081d8:	26 00 00 00 12 00 02 10 	lhu $2,18($16)
  4081e0:	43 00 00 00 fd ff 02 02 	addiu $2,$2,-3
  4081e8:	5e 00 00 00 02 00 02 02 	sltiu $2,$2,2
  4081f0:	05 00 00 00 ac 00 00 02 	beq $2,$0,4084a8 <opt_arg+0xf10>
  4081f8:	26 00 00 00 1e 00 03 10 	lhu $3,30($16)
  408200:	43 00 00 00 05 00 02 00 	addiu $2,$0,5
  408208:	06 00 00 00 a6 00 02 03 	bne $3,$2,4084a8 <opt_arg+0xf10>
  408210:	28 00 00 00 0c 00 02 10 	lw $2,12($16)
  408218:	20 00 00 00 b0 93 03 1c 	lb $3,-27728($28)
  408220:	34 00 00 00 10 00 02 11 	sw $2,16($17)
  408228:	05 00 00 00 10 00 00 03 	beq $3,$0,408270 <opt_arg+0xcd8>
  408230:	28 00 00 00 18 00 04 10 	lw $4,24($16)
  408238:	22 00 00 00 19 00 02 04 	lbu $2,25($4)
  408240:	06 00 00 00 0a 00 00 02 	bne $2,$0,408270 <opt_arg+0xcd8>
  408248:	02 00 00 00 6a 63 10 00 	jal 418da8 <looks_like_number>
  408250:	06 00 00 00 06 00 00 02 	bne $2,$0,408270 <opt_arg+0xcd8>
  408258:	a2 00 00 00 00 10 04 00 	lui $4,4096
  408260:	43 00 00 00 78 01 04 04 	addiu $4,$4,376
  408268:	02 00 00 00 e2 66 11 00 	jal 459b88 <warn>
  408270:	28 00 00 00 18 00 04 10 	lw $4,24($16)
  408278:	34 00 00 00 60 9f 04 1c 	sw $4,-24736($28)
  408280:	22 00 00 00 19 00 02 04 	lbu $2,25($4)
  408288:	05 00 00 00 04 00 00 02 	beq $2,$0,4082a0 <opt_arg+0xd08>
  408290:	2b 00 00 00 08 00 00 04 	l.d $f0,8($4)
  408298:	01 00 00 00 aa 20 10 00 	j 4082a8 <opt_arg+0xd10>
  4082a0:	02 00 00 00 fe f3 10 00 	jal 43cff8 <str_2num>
  4082a8:	7b 00 00 00 00 0c 00 00 	mov.d $f12,$f0
  4082b0:	02 00 00 00 1a 19 11 00 	jal 446468 <str_nmake>
  4082b8:	34 00 00 00 0c 00 02 11 	sw $2,12($17)
  4082c0:	26 00 00 00 06 00 02 10 	lhu $2,6($16)
  4082c8:	51 00 00 00 80 01 12 12 	ori $18,$18,384
  4082d0:	32 00 00 00 24 00 02 11 	sh $2,36($17)
  4082d8:	4f 00 00 00 01 00 02 15 	andi $2,$21,1
  4082e0:	05 00 00 00 04 00 00 02 	beq $2,$0,4082f8 <opt_arg+0xd60>
  4082e8:	43 00 00 00 ff fe 02 00 	addiu $2,$0,-257
  4082f0:	01 00 00 00 c4 20 10 00 	j 408310 <opt_arg+0xd78>
  4082f8:	4f 00 00 00 02 00 02 15 	andi $2,$21,2
  408300:	05 00 00 00 04 00 00 02 	beq $2,$0,408318 <opt_arg+0xd80>
  408308:	43 00 00 00 7f ff 02 00 	addiu $2,$0,-129
  408310:	4e 00 00 00 00 12 02 12 	and $18,$18,$2
  408318:	4f 00 00 00 80 01 02 12 	andi $2,$18,384
  408320:	05 00 00 00 60 00 00 02 	beq $2,$0,4084a8 <opt_arg+0xf10>
  408328:	26 00 00 00 26 00 02 11 	lhu $2,38($17)
  408330:	43 00 00 00 0c 00 14 00 	addiu $20,$0,12
  408338:	50 00 00 00 00 02 12 02 	or $2,$2,$18
  408340:	32 00 00 00 26 00 02 11 	sh $2,38($17)
  408348:	01 00 00 00 2a 21 10 00 	j 4084a8 <opt_arg+0xf10>
  408350:	43 00 00 00 0c 00 02 00 	addiu $2,$0,12
  408358:	06 00 00 00 38 00 02 04 	bne $4,$2,408440 <opt_arg+0xea8>
  408360:	26 00 00 00 12 00 02 10 	lhu $2,18($16)
  408368:	43 00 00 00 fd ff 02 02 	addiu $2,$2,-3
  408370:	5e 00 00 00 02 00 02 02 	sltiu $2,$2,2
  408378:	05 00 00 00 30 00 00 02 	beq $2,$0,408440 <opt_arg+0xea8>
  408380:	28 00 00 00 0c 00 03 10 	lw $3,12($16)
  408388:	28 00 00 00 0c 93 02 1c 	lw $2,-27892($28)
  408390:	06 00 00 00 2a 00 02 03 	bne $3,$2,408440 <opt_arg+0xea8>
  408398:	26 00 00 00 1e 00 03 10 	lhu $3,30($16)
  4083a0:	43 00 00 00 01 00 02 00 	addiu $2,$0,1
  4083a8:	06 00 00 00 24 00 02 03 	bne $3,$2,408440 <opt_arg+0xea8>
  4083b0:	28 00 00 00 18 00 04 10 	lw $4,24($16)
  4083b8:	26 00 00 00 06 00 02 04 	lhu $2,6($4)
  4083c0:	06 00 00 00 38 00 06 02 	bne $2,$6,4084a8 <opt_arg+0xf10>
  4083c8:	26 00 00 00 12 00 02 04 	lhu $2,18($4)
  4083d0:	06 00 00 00 34 00 05 02 	bne $2,$5,4084a8 <opt_arg+0xf10>
  4083d8:	28 00 00 00 0c 00 02 04 	lw $2,12($4)
  4083e0:	34 00 00 00 10 00 02 11 	sw $2,16($17)
  4083e8:	28 00 00 00 0c 00 02 04 	lw $2,12($4)
  4083f0:	28 00 00 00 00 00 02 02 	lw $2,0($2)
  4083f8:	28 00 00 00 08 00 02 02 	lw $2,8($2)
  408400:	22 00 00 00 2b 00 02 02 	lbu $2,43($2)
  408408:	43 00 00 00 06 00 14 00 	addiu $20,$0,6
  408410:	4f 00 00 00 01 00 02 02 	andi $2,$2,1
  408418:	06 00 00 00 22 00 00 02 	bne $2,$0,4084a8 <opt_arg+0xf10>
  408420:	02 00 00 00 60 3c 10 00 	jal 40f180 <free_arg>
  408428:	42 00 00 00 00 04 10 00 	addu $4,$0,$16
  408430:	34 00 00 00 18 00 00 04 	sw $0,24($4)
  408438:	01 00 00 00 26 21 10 00 	j 408498 <opt_arg+0xf00>
  408440:	26 00 00 00 06 00 03 10 	lhu $3,6($16)
  408448:	43 00 00 00 10 00 02 00 	addiu $2,$0,16
  408450:	06 00 00 00 14 00 02 03 	bne $3,$2,4084a8 <opt_arg+0xf10>
  408458:	26 00 00 00 12 00 02 10 	lhu $2,18($16)
  408460:	43 00 00 00 fd ff 02 02 	addiu $2,$2,-3
  408468:	5e 00 00 00 02 00 02 02 	sltiu $2,$2,2
  408470:	05 00 00 00 0c 00 00 02 	beq $2,$0,4084a8 <opt_arg+0xf10>
  408478:	28 00 00 00 0c 00 02 10 	lw $2,12($16)
  408480:	43 00 00 00 09 00 14 00 	addiu $20,$0,9
  408488:	42 00 00 00 00 04 10 00 	addu $4,$0,$16
  408490:	34 00 00 00 10 00 02 11 	sw $2,16($17)
  408498:	02 00 00 00 60 3c 10 00 	jal 40f180 <free_arg>
  4084a0:	34 00 00 00 04 00 00 11 	sw $0,4($17)
  4084a8:	4f 00 00 00 04 00 02 15 	andi $2,$21,4
  4084b0:	05 00 00 00 02 00 00 02 	beq $2,$0,4084c0 <opt_arg+0xf28>
  4084b8:	51 00 00 00 00 20 14 14 	ori $20,$20,8192
  4084c0:	26 00 00 00 26 00 02 11 	lhu $2,38($17)
  4084c8:	50 00 00 00 00 02 14 02 	or $2,$2,$20
  4084d0:	32 00 00 00 26 00 02 11 	sh $2,38($17)
  4084d8:	26 00 00 00 26 00 02 11 	lhu $2,38($17)
  4084e0:	4f 00 00 00 00 20 02 02 	andi $2,$2,8192
  4084e8:	05 00 00 00 6e 00 00 02 	beq $2,$0,4086a8 <opt_arg+0x1110>
  4084f0:	43 00 00 00 01 00 02 00 	addiu $2,$0,1
  4084f8:	06 00 00 00 5c 00 02 17 	bne $23,$2,408670 <opt_arg+0x10d8>
  408500:	28 00 00 00 04 00 10 11 	lw $16,4($17)
  408508:	43 00 00 00 34 00 04 00 	addiu $4,$0,52
  408510:	02 00 00 00 f0 5f 11 00 	jal 457fc0 <safemalloc>
  408518:	42 00 00 00 00 07 02 00 	addu $7,$0,$2
  408520:	42 00 00 00 00 06 11 00 	addu $6,$0,$17
  408528:	43 00 00 00 30 00 08 11 	addiu $8,$17,48
  408530:	34 00 00 00 24 00 07 10 	sw $7,36($16)
  408538:	28 00 00 00 00 00 02 06 	lw $2,0($6)
  408540:	28 00 00 00 04 00 03 06 	lw $3,4($6)
  408548:	28 00 00 00 08 00 04 06 	lw $4,8($6)
  408550:	28 00 00 00 0c 00 05 06 	lw $5,12($6)
  408558:	34 00 00 00 00 00 02 07 	sw $2,0($7)
  408560:	34 00 00 00 04 00 03 07 	sw $3,4($7)
  408568:	34 00 00 00 08 00 04 07 	sw $4,8($7)
  408570:	34 00 00 00 0c 00 05 07 	sw $5,12($7)
  408578:	43 00 00 00 10 00 06 06 	addiu $6,$6,16
  408580:	43 00 00 00 10 00 07 07 	addiu $7,$7,16
  408588:	06 00 00 00 ea ff 08 06 	bne $6,$8,408538 <opt_arg+0xfa0>
  408590:	28 00 00 00 00 00 02 06 	lw $2,0($6)
  408598:	34 00 00 00 00 00 02 07 	sw $2,0($7)
  4085a0:	43 00 00 00 34 00 04 00 	addiu $4,$0,52
  4085a8:	02 00 00 00 f0 5f 11 00 	jal 457fc0 <safemalloc>
  4085b0:	34 00 00 00 30 00 02 10 	sw $2,48($16)
  4085b8:	42 00 00 00 00 07 02 00 	addu $7,$0,$2
  4085c0:	42 00 00 00 00 06 11 00 	addu $6,$0,$17
  4085c8:	43 00 00 00 30 00 08 06 	addiu $8,$6,48
  4085d0:	28 00 00 00 00 00 02 06 	lw $2,0($6)
  4085d8:	28 00 00 00 04 00 03 06 	lw $3,4($6)
  4085e0:	28 00 00 00 08 00 04 06 	lw $4,8($6)
  4085e8:	28 00 00 00 0c 00 05 06 	lw $5,12($6)
  4085f0:	34 00 00 00 00 00 02 07 	sw $2,0($7)
  4085f8:	34 00 00 00 04 00 03 07 	sw $3,4($7)
  408600:	34 00 00 00 08 00 04 07 	sw $4,8($7)
  408608:	34 00 00 00 0c 00 05 07 	sw $5,12($7)
  408610:	43 00 00 00 10 00 06 06 	addiu $6,$6,16
  408618:	43 00 00 00 10 00 07 07 	addiu $7,$7,16
  408620:	06 00 00 00 ea ff 08 06 	bne $6,$8,4085d0 <opt_arg+0x1038>
  408628:	28 00 00 00 00 00 02 06 	lw $2,0($6)
  408630:	34 00 00 00 00 00 02 07 	sw $2,0($7)
  408638:	28 00 00 00 30 00 04 10 	lw $4,48($16)
  408640:	43 00 00 00 02 00 05 00 	addiu $5,$0,2
  408648:	42 00 00 00 00 06 1e 00 	addu $6,$0,$30
  408650:	02 00 00 00 66 1d 10 00 	jal 407598 <opt_arg>
  408658:	43 00 00 00 02 00 02 00 	addiu $2,$0,2
  408660:	32 00 00 00 04 00 02 10 	sh $2,4($16)
  408668:	01 00 00 00 aa 21 10 00 	j 4086a8 <opt_arg+0x1110>
  408670:	4f 00 00 00 3f 00 03 14 	andi $3,$20,63
  408678:	43 00 00 00 07 00 02 00 	addiu $2,$0,7
  408680:	06 00 00 00 08 00 02 03 	bne $3,$2,4086a8 <opt_arg+0x1110>
  408688:	26 00 00 00 26 00 02 11 	lhu $2,38($17)
  408690:	4f 00 00 00 c0 ff 02 02 	andi $2,$2,65472
  408698:	51 00 00 00 08 00 02 02 	ori $2,$2,8
  4086a0:	32 00 00 00 26 00 02 11 	sh $2,38($17)
  4086a8:	28 00 00 00 34 00 1f 1d 	lw $31,52($29)
  4086b0:	28 00 00 00 30 00 1e 1d 	lw $30,48($29)
  4086b8:	28 00 00 00 2c 00 17 1d 	lw $23,44($29)
  4086c0:	28 00 00 00 28 00 16 1d 	lw $22,40($29)
  4086c8:	28 00 00 00 24 00 15 1d 	lw $21,36($29)
  4086d0:	28 00 00 00 20 00 14 1d 	lw $20,32($29)
  4086d8:	28 00 00 00 1c 00 13 1d 	lw $19,28($29)
  4086e0:	28 00 00 00 18 00 12 1d 	lw $18,24($29)
  4086e8:	28 00 00 00 14 00 11 1d 	lw $17,20($29)
  4086f0:	28 00 00 00 10 00 10 1d 	lw $16,16($29)
  4086f8:	43 00 00 00 38 00 1d 1d 	addiu $29,$29,56
  408700:	03 00 00 00 00 00 00 1f 	jr $31

00408708 <add_label>:
  408708:	42 00 00 00 00 02 05 00 	addu $2,$0,$5
  408710:	05 00 00 00 02 00 00 02 	beq $2,$0,408720 <add_label+0x18>
  408718:	34 00 00 00 18 00 04 02 	sw $4,24($2)
  408720:	03 00 00 00 00 00 00 1f 	jr $31

00408728 <addcond>:
  408728:	42 00 00 00 00 02 04 00 	addu $2,$0,$4
  408730:	26 00 00 00 26 00 03 02 	lhu $3,38($2)
  408738:	34 00 00 00 04 00 05 02 	sw $5,4($2)
  408740:	51 00 00 00 00 02 03 03 	ori $3,$3,512
  408748:	32 00 00 00 26 00 03 02 	sh $3,38($2)
  408750:	03 00 00 00 00 00 00 1f 	jr $31

00408758 <addloop>:
  408758:	43 00 00 00 e8 ff 1d 1d 	addiu $29,$29,-24
  408760:	34 00 00 00 10 00 10 1d 	sw $16,16($29)
  408768:	42 00 00 00 00 10 04 00 	addu $16,$0,$4
  408770:	34 00 00 00 14 00 1f 1d 	sw $31,20($29)
  408778:	26 00 00 00 26 00 02 10 	lhu $2,38($16)
  408780:	51 00 00 00 00 06 02 02 	ori $2,$2,1536
  408788:	32 00 00 00 26 00 02 10 	sh $2,38($16)
  408790:	26 00 00 00 26 00 02 10 	lhu $2,38($16)
  408798:	34 00 00 00 04 00 05 10 	sw $5,4($16)
  4087a0:	4f 00 00 00 00 08 02 02 	andi $2,$2,2048
  4087a8:	06 00 00 00 02 00 00 02 	bne $2,$0,4087b8 <addloop+0x60>
  4087b0:	02 00 00 00 f0 23 10 00 	jal 408fc0 <while_io>
  4087b8:	20 00 00 00 32 00 03 10 	lb $3,50($16)
  4087c0:	43 00 00 00 04 00 02 00 	addiu $2,$0,4
  4087c8:	05 00 00 00 24 00 02 03 	beq $3,$2,408860 <addloop+0x108>
  4087d0:	28 00 00 00 20 00 03 10 	lw $3,32($16)
  4087d8:	05 00 00 00 26 00 00 03 	beq $3,$0,408878 <addloop+0x120>
  4087e0:	26 00 00 00 06 00 04 03 	lhu $4,6($3)
  4087e8:	43 00 00 00 02 00 02 00 	addiu $2,$0,2
  4087f0:	06 00 00 00 0a 00 02 04 	bne $4,$2,408820 <addloop+0xc8>
  4087f8:	26 00 00 00 12 00 02 03 	lhu $2,18($3)
  408800:	06 00 00 00 06 00 04 02 	bne $2,$4,408820 <addloop+0xc8>
  408808:	26 00 00 00 26 00 02 10 	lhu $2,38($16)
  408810:	4f 00 00 00 ff fd 02 02 	andi $2,$2,65023
  408818:	32 00 00 00 26 00 02 10 	sh $2,38($16)
  408820:	05 00 00 00 14 00 00 03 	beq $3,$0,408878 <addloop+0x120>
  408828:	26 00 00 00 08 00 02 03 	lhu $2,8($3)
  408830:	4f 00 00 00 20 00 02 02 	andi $2,$2,32
  408838:	05 00 00 00 0e 00 00 02 	beq $2,$0,408878 <addloop+0x120>
  408840:	26 00 00 00 06 00 02 03 	lhu $2,6($3)
  408848:	43 00 00 00 a7 ff 02 02 	addiu $2,$2,-89
  408850:	5e 00 00 00 02 00 02 02 	sltiu $2,$2,2
  408858:	05 00 00 00 06 00 00 02 	beq $2,$0,408878 <addloop+0x120>
  408860:	26 00 00 00 26 00 02 10 	lhu $2,38($16)
  408868:	4f 00 00 00 ff fd 02 02 	andi $2,$2,65023
  408870:	32 00 00 00 26 00 02 10 	sh $2,38($16)
  408878:	42 00 00 00 00 02 10 00 	addu $2,$0,$16
  408880:	28 00 00 00 14 00 1f 1d 	lw $31,20($29)
  408888:	28 00 00 00 10 00 10 1d 	lw $16,16($29)
  408890:	43 00 00 00 18 00 1d 1d 	addiu $29,$29,24
  408898:	03 00 00 00 00 00 00 1f 	jr $31

004088a0 <invert>:
  4088a0:	28 00 00 00 08 00 02 04 	lw $2,8($4)
  4088a8:	42 00 00 00 00 03 04 00 	addu $3,$0,$4
  4088b0:	05 00 00 00 02 00 00 02 	beq $2,$0,4088c0 <invert+0x20>
  4088b8:	42 00 00 00 00 03 02 00 	addu $3,$0,$2
  4088c0:	26 00 00 00 26 00 02 03 	lhu $2,38($3)
  4088c8:	4f 00 00 00 00 80 02 02 	andi $2,$2,32768
  4088d0:	05 00 00 00 02 00 00 02 	beq $2,$0,4088e0 <invert+0x40>
  4088d8:	28 00 00 00 00 00 03 03 	lw $3,0($3)
  4088e0:	26 00 00 00 26 00 02 03 	lhu $2,38($3)
  4088e8:	53 00 00 00 00 08 02 02 	xori $2,$2,2048
  4088f0:	32 00 00 00 26 00 02 03 	sh $2,38($3)
  4088f8:	42 00 00 00 00 02 04 00 	addu $2,$0,$4
  408900:	03 00 00 00 00 00 00 1f 	jr $31

00408908 <cpy7bit>:
  408908:	43 00 00 00 f8 ff 1d 1d 	addiu $29,$29,-8
  408910:	43 00 00 00 ff ff 03 06 	addiu $3,$6,-1
  408918:	05 00 00 00 10 00 00 06 	beq $6,$0,408960 <cpy7bit+0x58>
  408920:	43 00 00 00 ff ff 06 00 	addiu $6,$0,-1
  408928:	22 00 00 00 00 00 02 05 	lbu $2,0($5)
  408930:	43 00 00 00 ff ff 03 03 	addiu $3,$3,-1
  408938:	43 00 00 00 01 00 05 05 	addiu $5,$5,1
  408940:	4f 00 00 00 7f 00 02 02 	andi $2,$2,127
  408948:	30 00 00 00 00 00 02 04 	sb $2,0($4)
  408950:	43 00 00 00 01 00 04 04 	addiu $4,$4,1
  408958:	06 00 00 00 f2 ff 06 03 	bne $3,$6,408928 <cpy7bit+0x20>
  408960:	30 00 00 00 00 00 00 04 	sb $0,0($4)
  408968:	43 00 00 00 08 00 1d 1d 	addiu $29,$29,8
  408970:	03 00 00 00 00 00 00 1f 	jr $31

00408978 <yyerror>:
  408978:	43 00 00 00 c8 fd 1d 1d 	addiu $29,$29,-568
  408980:	34 00 00 00 30 02 12 1d 	sw $18,560($29)
  408988:	42 00 00 00 00 12 04 00 	addu $18,$0,$4
  408990:	28 00 00 00 b0 9f 04 1c 	lw $4,-24656($28)
  408998:	28 00 00 00 30 9f 03 1c 	lw $3,-24784($28)
  4089a0:	34 00 00 00 2c 02 11 1d 	sw $17,556($29)
  4089a8:	43 00 00 00 18 00 11 1d 	addiu $17,$29,24
  4089b0:	34 00 00 00 34 02 1f 1d 	sw $31,564($29)
  4089b8:	34 00 00 00 28 02 10 1d 	sw $16,552($29)
  4089c0:	5d 00 00 00 00 02 03 04 	sltu $2,$4,$3
  4089c8:	05 00 00 00 5a 00 00 02 	beq $2,$0,408b38 <yyerror+0x1c0>
  4089d0:	45 00 00 00 00 02 04 03 	subu $2,$3,$4
  4089d8:	5c 00 00 00 c8 00 02 02 	slti $2,$2,200
  4089e0:	05 00 00 00 54 00 00 02 	beq $2,$0,408b38 <yyerror+0x1c0>
  4089e8:	28 00 00 00 ec 9f 02 1c 	lw $2,-24596($28)
  4089f0:	05 00 00 00 50 00 02 04 	beq $4,$2,408b38 <yyerror+0x1c0>
  4089f8:	05 00 00 00 4e 00 03 02 	beq $2,$3,408b38 <yyerror+0x1c0>
  408a00:	20 00 00 00 00 00 02 04 	lb $2,0($4)
  408a08:	28 00 00 00 a0 94 05 1c 	lw $5,-27488($28)
  408a10:	55 00 00 00 01 02 02 00 	sll $2,$2,0x1
  408a18:	42 00 00 00 00 02 05 02 	addu $2,$2,$5
  408a20:	26 00 00 00 00 00 02 02 	lhu $2,0($2)
  408a28:	4f 00 00 00 10 00 02 02 	andi $2,$2,16
  408a30:	05 00 00 00 14 00 00 02 	beq $2,$0,408a88 <yyerror+0x110>
  408a38:	43 00 00 00 01 00 03 04 	addiu $3,$4,1
  408a40:	42 00 00 00 00 02 04 00 	addu $2,$0,$4
  408a48:	34 00 00 00 b0 9f 03 1c 	sw $3,-24656($28)
  408a50:	20 00 00 00 01 00 02 02 	lb $2,1($2)
  408a58:	55 00 00 00 01 02 02 00 	sll $2,$2,0x1
  408a60:	42 00 00 00 00 02 05 02 	addu $2,$2,$5
  408a68:	26 00 00 00 00 00 02 02 	lhu $2,0($2)
  408a70:	42 00 00 00 00 04 03 00 	addu $4,$0,$3
  408a78:	4f 00 00 00 10 00 02 02 	andi $2,$2,16
  408a80:	06 00 00 00 ec ff 00 02 	bne $2,$0,408a38 <yyerror+0xc0>
  408a88:	28 00 00 00 b0 9f 02 1c 	lw $2,-24656($28)
  408a90:	28 00 00 00 30 9f 03 1c 	lw $3,-24784($28)
  408a98:	43 00 00 00 20 01 05 1d 	addiu $5,$29,288
  408aa0:	42 00 00 00 00 04 02 00 	addu $4,$0,$2
  408aa8:	45 00 00 00 00 03 04 03 	subu $3,$3,$4
  408ab0:	43 00 00 00 ff ff 03 03 	addiu $3,$3,-1
  408ab8:	43 00 00 00 ff ff 02 00 	addiu $2,$0,-1
  408ac0:	05 00 00 00 10 00 02 03 	beq $3,$2,408b08 <yyerror+0x190>
  408ac8:	43 00 00 00 ff ff 06 00 	addiu $6,$0,-1
  408ad0:	22 00 00 00 00 00 02 04 	lbu $2,0($4)
  408ad8:	43 00 00 00 ff ff 03 03 	addiu $3,$3,-1
  408ae0:	43 00 00 00 01 00 04 04 	addiu $4,$4,1
  408ae8:	4f 00 00 00 7f 00 02 02 	andi $2,$2,127
  408af0:	30 00 00 00 00 00 02 05 	sb $2,0($5)
  408af8:	43 00 00 00 01 00 05 05 	addiu $5,$5,1
  408b00:	06 00 00 00 f2 ff 06 03 	bne $3,$6,408ad0 <yyerror+0x158>
  408b08:	30 00 00 00 00 00 00 05 	sb $0,0($5)
  408b10:	42 00 00 00 00 04 11 00 	addu $4,$0,$17
  408b18:	a2 00 00 00 00 10 05 00 	lui $5,4096
  408b20:	43 00 00 00 9c 01 05 05 	addiu $5,$5,412
  408b28:	43 00 00 00 20 01 06 1d 	addiu $6,$29,288
  408b30:	01 00 00 00 68 23 10 00 	j 408da0 <yyerror+0x428>
  408b38:	28 00 00 00 ec 9f 04 1c 	lw $4,-24596($28)
  408b40:	28 00 00 00 30 9f 03 1c 	lw $3,-24784($28)
  408b48:	5d 00 00 00 00 02 03 04 	sltu $2,$4,$3
  408b50:	05 00 00 00 54 00 00 02 	beq $2,$0,408ca8 <yyerror+0x330>
  408b58:	45 00 00 00 00 02 04 03 	subu $2,$3,$4
  408b60:	5c 00 00 00 c8 00 02 02 	slti $2,$2,200
  408b68:	05 00 00 00 4e 00 00 02 	beq $2,$0,408ca8 <yyerror+0x330>
  408b70:	20 00 00 00 00 00 02 04 	lb $2,0($4)
  408b78:	28 00 00 00 a0 94 05 1c 	lw $5,-27488($28)
  408b80:	55 00 00 00 01 02 02 00 	sll $2,$2,0x1
  408b88:	42 00 00 00 00 02 05 02 	addu $2,$2,$5
  408b90:	26 00 00 00 00 00 02 02 	lhu $2,0($2)
  408b98:	4f 00 00 00 10 00 02 02 	andi $2,$2,16
  408ba0:	05 00 00 00 14 00 00 02 	beq $2,$0,408bf8 <yyerror+0x280>
  408ba8:	43 00 00 00 01 00 03 04 	addiu $3,$4,1
  408bb0:	42 00 00 00 00 02 04 00 	addu $2,$0,$4
  408bb8:	34 00 00 00 ec 9f 03 1c 	sw $3,-24596($28)
  408bc0:	20 00 00 00 01 00 02 02 	lb $2,1($2)
  408bc8:	55 00 00 00 01 02 02 00 	sll $2,$2,0x1
  408bd0:	42 00 00 00 00 02 05 02 	addu $2,$2,$5
  408bd8:	26 00 00 00 00 00 02 02 	lhu $2,0($2)
  408be0:	42 00 00 00 00 04 03 00 	addu $4,$0,$3
  408be8:	4f 00 00 00 10 00 02 02 	andi $2,$2,16
  408bf0:	06 00 00 00 ec ff 00 02 	bne $2,$0,408ba8 <yyerror+0x230>
  408bf8:	28 00 00 00 ec 9f 02 1c 	lw $2,-24596($28)
  408c00:	28 00 00 00 30 9f 03 1c 	lw $3,-24784($28)
  408c08:	43 00 00 00 20 01 05 1d 	addiu $5,$29,288
  408c10:	42 00 00 00 00 04 02 00 	addu $4,$0,$2
  408c18:	45 00 00 00 00 03 04 03 	subu $3,$3,$4
  408c20:	43 00 00 00 ff ff 03 03 	addiu $3,$3,-1
  408c28:	43 00 00 00 ff ff 02 00 	addiu $2,$0,-1
  408c30:	05 00 00 00 10 00 02 03 	beq $3,$2,408c78 <yyerror+0x300>
  408c38:	43 00 00 00 ff ff 06 00 	addiu $6,$0,-1
  408c40:	22 00 00 00 00 00 02 04 	lbu $2,0($4)
  408c48:	43 00 00 00 ff ff 03 03 	addiu $3,$3,-1
  408c50:	43 00 00 00 01 00 04 04 	addiu $4,$4,1
  408c58:	4f 00 00 00 7f 00 02 02 	andi $2,$2,127
  408c60:	30 00 00 00 00 00 02 05 	sb $2,0($5)
  408c68:	43 00 00 00 01 00 05 05 	addiu $5,$5,1
  408c70:	06 00 00 00 f2 ff 06 03 	bne $3,$6,408c40 <yyerror+0x2c8>
  408c78:	30 00 00 00 00 00 00 05 	sb $0,0($5)
  408c80:	42 00 00 00 00 04 11 00 	addu $4,$0,$17
  408c88:	a2 00 00 00 00 10 05 00 	lui $5,4096
  408c90:	43 00 00 00 b0 01 05 05 	addiu $5,$5,432
  408c98:	43 00 00 00 20 01 06 1d 	addiu $6,$29,288
  408ca0:	01 00 00 00 68 23 10 00 	j 408da0 <yyerror+0x428>
  408ca8:	28 00 00 00 e8 9f 06 1c 	lw $6,-24600($28)
  408cb0:	5c 00 00 00 01 01 02 06 	slti $2,$6,257
  408cb8:	06 00 00 00 06 00 00 02 	bne $2,$0,408cd8 <yyerror+0x360>
  408cc0:	a2 00 00 00 00 10 11 00 	lui $17,4096
  408cc8:	43 00 00 00 c0 01 11 11 	addiu $17,$17,448
  408cd0:	01 00 00 00 6a 23 10 00 	j 408da8 <yyerror+0x430>
  408cd8:	05 00 00 00 12 00 00 06 	beq $6,$0,408d28 <yyerror+0x3b0>
  408ce0:	5c 00 00 00 20 00 02 06 	slti $2,$6,32
  408ce8:	05 00 00 00 0a 00 00 02 	beq $2,$0,408d18 <yyerror+0x3a0>
  408cf0:	42 00 00 00 00 04 11 00 	addu $4,$0,$17
  408cf8:	a2 00 00 00 00 10 05 00 	lui $5,4096
  408d00:	43 00 00 00 d0 01 05 05 	addiu $5,$5,464
  408d08:	43 00 00 00 40 00 06 06 	addiu $6,$6,64
  408d10:	01 00 00 00 68 23 10 00 	j 408da0 <yyerror+0x428>
  408d18:	43 00 00 00 7f 00 02 00 	addiu $2,$0,127
  408d20:	06 00 00 00 18 00 02 06 	bne $6,$2,408d88 <yyerror+0x410>
  408d28:	43 00 00 00 28 80 05 1c 	addiu $5,$28,-32728
  408d30:	2c 00 00 00 03 00 02 05 	lwl $2,3($5)
  408d38:	2d 00 00 00 00 00 02 05 	lwr $2,0($5)
  408d40:	20 00 00 00 04 00 03 05 	lb $3,4($5)
  408d48:	20 00 00 00 05 00 04 05 	lb $4,5($5)
  408d50:	39 00 00 00 03 00 02 11 	swl $2,3($17)
  408d58:	3a 00 00 00 00 00 02 11 	swr $2,0($17)
  408d60:	30 00 00 00 04 00 03 11 	sb $3,4($17)
  408d68:	30 00 00 00 05 00 04 11 	sb $4,5($17)
  408d70:	20 00 00 00 06 00 02 05 	lb $2,6($5)
  408d78:	30 00 00 00 06 00 02 11 	sb $2,6($17)
  408d80:	01 00 00 00 6a 23 10 00 	j 408da8 <yyerror+0x430>
  408d88:	42 00 00 00 00 04 11 00 	addu $4,$0,$17
  408d90:	a2 00 00 00 00 10 05 00 	lui $5,4096
  408d98:	43 00 00 00 e0 01 05 05 	addiu $5,$5,480
  408da0:	02 00 00 00 90 84 11 00 	jal 461240 <sprintf>
  408da8:	28 00 00 00 e0 92 02 1c 	lw $2,-27936($28)
  408db0:	28 00 00 00 2c 00 02 02 	lw $2,44($2)
  408db8:	28 00 00 00 00 00 02 02 	lw $2,0($2)
  408dc0:	28 00 00 00 e0 92 03 1c 	lw $3,-27936($28)
  408dc8:	28 00 00 00 04 00 05 02 	lw $5,4($2)
  408dd0:	26 00 00 00 30 00 02 03 	lhu $2,48($3)
  408dd8:	a2 00 00 00 01 10 10 00 	lui $16,4097
  408de0:	43 00 00 00 e0 24 10 10 	addiu $16,$16,9440
  408de8:	34 00 00 00 10 00 02 1d 	sw $2,16($29)
  408df0:	34 00 00 00 14 00 11 1d 	sw $17,20($29)
  408df8:	28 00 00 00 00 00 07 05 	lw $7,0($5)
  408e00:	42 00 00 00 00 04 10 00 	addu $4,$0,$16
  408e08:	42 00 00 00 00 06 12 00 	addu $6,$0,$18
  408e10:	a2 00 00 00 00 10 05 00 	lui $5,4096
  408e18:	43 00 00 00 f0 01 05 05 	addiu $5,$5,496
  408e20:	02 00 00 00 90 84 11 00 	jal 461240 <sprintf>
  408e28:	28 00 00 00 e0 92 02 1c 	lw $2,-27936($28)
  408e30:	26 00 00 00 30 00 03 02 	lhu $3,48($2)
  408e38:	28 00 00 00 f4 93 02 1c 	lw $2,-27660($28)
  408e40:	06 00 00 00 1a 00 02 03 	bne $3,$2,408eb0 <yyerror+0x538>
  408e48:	28 00 00 00 f0 93 02 1c 	lw $2,-27664($28)
  408e50:	5b 00 00 00 00 02 03 02 	slt $2,$2,$3
  408e58:	05 00 00 00 14 00 00 02 	beq $2,$0,408eb0 <yyerror+0x538>
  408e60:	42 00 00 00 00 04 10 00 	addu $4,$0,$16
  408e68:	02 00 00 00 a4 84 11 00 	jal 461290 <strlen>
  408e70:	42 00 00 00 00 04 10 02 	addu $4,$2,$16
  408e78:	28 00 00 00 f8 93 06 1c 	lw $6,-27656($28)
  408e80:	28 00 00 00 fc 93 07 1c 	lw $7,-27652($28)
  408e88:	28 00 00 00 f0 93 02 1c 	lw $2,-27664($28)
  408e90:	a2 00 00 00 00 10 05 00 	lui $5,4096
  408e98:	43 00 00 00 10 02 05 05 	addiu $5,$5,528
  408ea0:	34 00 00 00 10 00 02 1d 	sw $2,16($29)
  408ea8:	02 00 00 00 90 84 11 00 	jal 461240 <sprintf>
  408eb0:	28 00 00 00 e0 93 02 1c 	lw $2,-27680($28)
  408eb8:	05 00 00 00 12 00 00 02 	beq $2,$0,408f08 <yyerror+0x590>
  408ec0:	43 00 00 00 30 80 04 1c 	addiu $4,$28,-32720
  408ec8:	43 00 00 00 01 00 05 00 	addiu $5,$0,1
  408ed0:	02 00 00 00 04 ef 10 00 	jal 43bc10 <stabent>
  408ed8:	28 00 00 00 00 00 02 02 	lw $2,0($2)
  408ee0:	28 00 00 00 04 00 04 02 	lw $4,4($2)
  408ee8:	a2 00 00 00 01 10 05 00 	lui $5,4097
  408ef0:	43 00 00 00 e0 24 05 05 	addiu $5,$5,9440
  408ef8:	02 00 00 00 6a f8 10 00 	jal 43e1a8 <str_cat>
  408f00:	01 00 00 00 ca 23 10 00 	j 408f28 <yyerror+0x5b0>
  408f08:	28 00 00 00 98 94 05 1c 	lw $5,-27496($28)
  408f10:	a2 00 00 00 01 10 04 00 	lui $4,4097
  408f18:	43 00 00 00 e0 24 04 04 	addiu $4,$4,9440
  408f20:	02 00 00 00 f8 84 11 00 	jal 4613e0 <fputs>
  408f28:	28 00 00 00 ec 93 02 1c 	lw $2,-27668($28)
  408f30:	43 00 00 00 01 00 02 02 	addiu $2,$2,1
  408f38:	34 00 00 00 ec 93 02 1c 	sw $2,-27668($28)
  408f40:	5c 00 00 00 0a 00 02 02 	slti $2,$2,10
  408f48:	06 00 00 00 10 00 00 02 	bne $2,$0,408f90 <yyerror+0x618>
  408f50:	28 00 00 00 e0 92 02 1c 	lw $2,-27936($28)
  408f58:	28 00 00 00 2c 00 02 02 	lw $2,44($2)
  408f60:	28 00 00 00 00 00 02 02 	lw $2,0($2)
  408f68:	28 00 00 00 04 00 02 02 	lw $2,4($2)
  408f70:	28 00 00 00 00 00 05 02 	lw $5,0($2)
  408f78:	a2 00 00 00 00 10 04 00 	lui $4,4096
  408f80:	43 00 00 00 54 02 04 04 	addiu $4,$4,596
  408f88:	02 00 00 00 50 66 11 00 	jal 459940 <Myfatal>
  408f90:	28 00 00 00 34 02 1f 1d 	lw $31,564($29)
  408f98:	28 00 00 00 30 02 12 1d 	lw $18,560($29)
  408fa0:	28 00 00 00 2c 02 11 1d 	lw $17,556($29)
  408fa8:	28 00 00 00 28 02 10 1d 	lw $16,552($29)
  408fb0:	43 00 00 00 38 02 1d 1d 	addiu $29,$29,568
  408fb8:	03 00 00 00 00 00 00 1f 	jr $31

00408fc0 <while_io>:
  408fc0:	43 00 00 00 d8 ff 1d 1d 	addiu $29,$29,-40
  408fc8:	34 00 00 00 1c 00 11 1d 	sw $17,28($29)
  408fd0:	42 00 00 00 00 11 04 00 	addu $17,$0,$4
  408fd8:	34 00 00 00 20 00 1f 1d 	sw $31,32($29)
  408fe0:	34 00 00 00 18 00 10 1d 	sw $16,24($29)
  408fe8:	28 00 00 00 04 00 10 11 	lw $16,4($17)
  408ff0:	05 00 00 00 a4 00 00 10 	beq $16,$0,409288 <while_io+0x2c8>
  408ff8:	26 00 00 00 06 00 03 10 	lhu $3,6($16)
  409000:	43 00 00 00 02 00 02 00 	addiu $2,$0,2
  409008:	06 00 00 00 40 00 02 03 	bne $3,$2,409110 <while_io+0x150>
  409010:	26 00 00 00 12 00 03 10 	lhu $3,18($16)
  409018:	43 00 00 00 08 00 02 00 	addiu $2,$0,8
  409020:	06 00 00 00 3a 00 02 03 	bne $3,$2,409110 <while_io+0x150>
  409028:	26 00 00 00 26 00 02 11 	lhu $2,38($17)
  409030:	4f 00 00 00 c0 ff 02 02 	andi $2,$2,65472
  409038:	32 00 00 00 26 00 02 11 	sh $2,38($17)
  409040:	26 00 00 00 26 00 02 11 	lhu $2,38($17)
  409048:	51 00 00 00 06 00 02 02 	ori $2,$2,6
  409050:	32 00 00 00 26 00 02 11 	sh $2,38($17)
  409058:	28 00 00 00 0c 00 02 10 	lw $2,12($16)
  409060:	34 00 00 00 10 00 02 11 	sw $2,16($17)
  409068:	28 00 00 00 0c 00 02 10 	lw $2,12($16)
  409070:	28 00 00 00 00 00 02 02 	lw $2,0($2)
  409078:	28 00 00 00 08 00 02 02 	lw $2,8($2)
  409080:	22 00 00 00 2b 00 02 02 	lbu $2,43($2)
  409088:	4f 00 00 00 01 00 02 02 	andi $2,$2,1
  409090:	05 00 00 00 1a 00 00 02 	beq $2,$0,409100 <while_io+0x140>
  409098:	28 00 00 00 0c 93 05 1c 	lw $5,-27892($28)
  4090a0:	43 00 00 00 04 00 04 00 	addiu $4,$0,4
  4090a8:	02 00 00 00 d6 3b 10 00 	jal 40ef58 <stab2arg>
  4090b0:	43 00 00 00 0c 00 04 00 	addiu $4,$0,12
  4090b8:	43 00 00 00 02 00 05 00 	addiu $5,$0,2
  4090c0:	42 00 00 00 00 06 02 00 	addu $6,$0,$2
  4090c8:	42 00 00 00 00 07 10 00 	addu $7,$0,$16
  4090d0:	34 00 00 00 10 00 00 1d 	sw $0,16($29)
  4090d8:	02 00 00 00 6e 2b 10 00 	jal 40adb8 <make_op>
  4090e0:	42 00 00 00 00 04 02 00 	addu $4,$0,$2
  4090e8:	02 00 00 00 c0 35 10 00 	jal 40d700 <l>
  4090f0:	34 00 00 00 04 00 02 11 	sw $2,4($17)
  4090f8:	01 00 00 00 a2 24 10 00 	j 409288 <while_io+0x2c8>
  409100:	42 00 00 00 00 04 10 00 	addu $4,$0,$16
  409108:	01 00 00 00 64 24 10 00 	j 409190 <while_io+0x1d0>
  409110:	05 00 00 00 5c 00 00 10 	beq $16,$0,409288 <while_io+0x2c8>
  409118:	26 00 00 00 06 00 03 10 	lhu $3,6($16)
  409120:	43 00 00 00 02 00 02 00 	addiu $2,$0,2
  409128:	06 00 00 00 1e 00 02 03 	bne $3,$2,4091a8 <while_io+0x1e8>
  409130:	26 00 00 00 12 00 03 10 	lhu $3,18($16)
  409138:	43 00 00 00 10 00 02 00 	addiu $2,$0,16
  409140:	06 00 00 00 18 00 02 03 	bne $3,$2,4091a8 <while_io+0x1e8>
  409148:	26 00 00 00 26 00 02 11 	lhu $2,38($17)
  409150:	4f 00 00 00 c0 ff 02 02 	andi $2,$2,65472
  409158:	32 00 00 00 26 00 02 11 	sh $2,38($17)
  409160:	26 00 00 00 26 00 02 11 	lhu $2,38($17)
  409168:	51 00 00 00 0b 00 02 02 	ori $2,$2,11
  409170:	32 00 00 00 26 00 02 11 	sh $2,38($17)
  409178:	28 00 00 00 0c 00 02 10 	lw $2,12($16)
  409180:	42 00 00 00 00 04 10 00 	addu $4,$0,$16
  409188:	34 00 00 00 10 00 02 11 	sw $2,16($17)
  409190:	02 00 00 00 60 3c 10 00 	jal 40f180 <free_arg>
  409198:	34 00 00 00 04 00 00 11 	sw $0,4($17)
  4091a0:	01 00 00 00 a2 24 10 00 	j 409288 <while_io+0x2c8>
  4091a8:	05 00 00 00 36 00 00 10 	beq $16,$0,409288 <while_io+0x2c8>
  4091b0:	26 00 00 00 06 00 03 10 	lhu $3,6($16)
  4091b8:	43 00 00 00 02 00 02 00 	addiu $2,$0,2
  4091c0:	06 00 00 00 30 00 02 03 	bne $3,$2,409288 <while_io+0x2c8>
  4091c8:	26 00 00 00 12 00 03 10 	lhu $3,18($16)
  4091d0:	43 00 00 00 0e 00 02 00 	addiu $2,$0,14
  4091d8:	06 00 00 00 2a 00 02 03 	bne $3,$2,409288 <while_io+0x2c8>
  4091e0:	26 00 00 00 26 00 02 11 	lhu $2,38($17)
  4091e8:	43 00 00 00 0a 00 03 00 	addiu $3,$0,10
  4091f0:	4f 00 00 00 3f 00 02 02 	andi $2,$2,63
  4091f8:	06 00 00 00 04 00 03 02 	bne $2,$3,409210 <while_io+0x250>
  409200:	28 00 00 00 10 00 05 11 	lw $5,16($17)
  409208:	01 00 00 00 86 24 10 00 	j 409218 <while_io+0x258>
  409210:	28 00 00 00 0c 93 05 1c 	lw $5,-27892($28)
  409218:	43 00 00 00 04 00 04 00 	addiu $4,$0,4
  409220:	02 00 00 00 d6 3b 10 00 	jal 40ef58 <stab2arg>
  409228:	43 00 00 00 0c 00 04 00 	addiu $4,$0,12
  409230:	43 00 00 00 02 00 05 00 	addiu $5,$0,2
  409238:	42 00 00 00 00 06 02 00 	addu $6,$0,$2
  409240:	42 00 00 00 00 07 10 00 	addu $7,$0,$16
  409248:	34 00 00 00 10 00 00 1d 	sw $0,16($29)
  409250:	02 00 00 00 6e 2b 10 00 	jal 40adb8 <make_op>
  409258:	42 00 00 00 00 04 02 00 	addu $4,$0,$2
  409260:	02 00 00 00 c0 35 10 00 	jal 40d700 <l>
  409268:	26 00 00 00 26 00 03 11 	lhu $3,38($17)
  409270:	34 00 00 00 04 00 02 11 	sw $2,4($17)
  409278:	4f 00 00 00 c0 ff 03 03 	andi $3,$3,65472
  409280:	32 00 00 00 26 00 03 11 	sh $3,38($17)
  409288:	28 00 00 00 20 00 1f 1d 	lw $31,32($29)
  409290:	28 00 00 00 1c 00 11 1d 	lw $17,28($29)
  409298:	28 00 00 00 18 00 10 1d 	lw $16,24($29)
  4092a0:	43 00 00 00 28 00 1d 1d 	addiu $29,$29,40
  4092a8:	03 00 00 00 00 00 00 1f 	jr $31

004092b0 <wopt>:
  4092b0:	43 00 00 00 d8 ff 1d 1d 	addiu $29,$29,-40
  4092b8:	34 00 00 00 1c 00 11 1d 	sw $17,28($29)
  4092c0:	42 00 00 00 00 11 04 00 	addu $17,$0,$4
  4092c8:	34 00 00 00 24 00 1f 1d 	sw $31,36($29)
  4092d0:	34 00 00 00 20 00 12 1d 	sw $18,32($29)
  4092d8:	34 00 00 00 18 00 10 1d 	sw $16,24($29)
  4092e0:	28 00 00 00 04 00 02 11 	lw $2,4($17)
  4092e8:	05 00 00 00 10 00 00 02 	beq $2,$0,409330 <wopt+0x80>
  4092f0:	26 00 00 00 26 00 02 11 	lhu $2,38($17)
  4092f8:	4f 00 00 00 3f 00 02 02 	andi $2,$2,63
  409300:	06 00 00 00 0a 00 00 02 	bne $2,$0,409330 <wopt+0x80>
  409308:	20 00 00 00 32 00 06 11 	lb $6,50($17)
  409310:	43 00 00 00 01 00 05 00 	addiu $5,$0,1
  409318:	53 00 00 00 05 00 06 06 	xori $6,$6,5
  409320:	5e 00 00 00 01 00 06 06 	sltiu $6,$6,1
  409328:	02 00 00 00 66 1d 10 00 	jal 407598 <opt_arg>
  409330:	42 00 00 00 00 04 11 00 	addu $4,$0,$17
  409338:	02 00 00 00 f0 23 10 00 	jal 408fc0 <while_io>
  409340:	28 00 00 00 1c 00 10 11 	lw $16,28($17)
  409348:	06 00 00 00 04 00 00 10 	bne $16,$0,409360 <wopt+0xb0>
  409350:	42 00 00 00 00 02 11 00 	addu $2,$0,$17
  409358:	01 00 00 00 1c 26 10 00 	j 409870 <wopt+0x5c0>
  409360:	43 00 00 00 34 00 04 00 	addiu $4,$0,52
  409368:	02 00 00 00 f0 5f 11 00 	jal 457fc0 <safemalloc>
  409370:	42 00 00 00 00 12 02 00 	addu $18,$0,$2
  409378:	20 00 00 00 32 00 03 10 	lb $3,50($16)
  409380:	43 00 00 00 05 00 02 00 	addiu $2,$0,5
  409388:	06 00 00 00 32 00 02 03 	bne $3,$2,409458 <wopt+0x1a8>
  409390:	28 00 00 00 20 00 05 10 	lw $5,32($16)
  409398:	05 00 00 00 2e 00 00 05 	beq $5,$0,409458 <wopt+0x1a8>
  4093a0:	26 00 00 00 06 00 03 05 	lhu $3,6($5)
  4093a8:	43 00 00 00 71 00 02 00 	addiu $2,$0,113
  4093b0:	06 00 00 00 28 00 02 03 	bne $3,$2,409458 <wopt+0x1a8>
  4093b8:	24 00 00 00 04 00 02 05 	lh $2,4($5)
  4093c0:	05 00 00 00 0c 00 00 02 	beq $2,$0,4093f8 <wopt+0x148>
  4093c8:	28 00 00 00 18 00 04 11 	lw $4,24($17)
  4093d0:	05 00 00 00 20 00 00 04 	beq $4,$0,409458 <wopt+0x1a8>
  4093d8:	28 00 00 00 0c 00 02 05 	lw $2,12($5)
  4093e0:	28 00 00 00 00 00 05 02 	lw $5,0($2)
  4093e8:	02 00 00 00 5c 82 11 00 	jal 460970 <strcmp>
  4093f0:	06 00 00 00 18 00 00 02 	bne $2,$0,409458 <wopt+0x1a8>
  4093f8:	28 00 00 00 20 00 04 10 	lw $4,32($16)
  409400:	02 00 00 00 ce 26 10 00 	jal 409b38 <arg_free>
  409408:	43 00 00 00 06 00 02 00 	addiu $2,$0,6
  409410:	34 00 00 00 20 00 00 10 	sw $0,32($16)
  409418:	30 00 00 00 32 00 02 10 	sb $2,50($16)
  409420:	28 00 00 00 20 00 02 11 	lw $2,32($17)
  409428:	05 00 00 00 04 00 00 02 	beq $2,$0,409440 <wopt+0x190>
  409430:	34 00 00 00 20 00 02 10 	sw $2,32($16)
  409438:	01 00 00 00 12 25 10 00 	j 409448 <wopt+0x198>
  409440:	34 00 00 00 20 00 12 10 	sw $18,32($16)
  409448:	34 00 00 00 1c 00 00 10 	sw $0,28($16)
  409450:	01 00 00 00 64 25 10 00 	j 409590 <wopt+0x2e0>
  409458:	20 00 00 00 32 00 03 10 	lb $3,50($16)
  409460:	43 00 00 00 01 00 02 00 	addiu $2,$0,1
  409468:	06 00 00 00 10 00 02 03 	bne $3,$2,4094b0 <wopt+0x200>
  409470:	28 00 00 00 20 00 02 10 	lw $2,32($16)
  409478:	06 00 00 00 0c 00 00 02 	bne $2,$0,4094b0 <wopt+0x200>
  409480:	28 00 00 00 20 00 02 11 	lw $2,32($17)
  409488:	05 00 00 00 04 00 00 02 	beq $2,$0,4094a0 <wopt+0x1f0>
  409490:	34 00 00 00 20 00 02 10 	sw $2,32($16)
  409498:	01 00 00 00 64 25 10 00 	j 409590 <wopt+0x2e0>
  4094a0:	34 00 00 00 20 00 12 10 	sw $18,32($16)
  4094a8:	01 00 00 00 64 25 10 00 	j 409590 <wopt+0x2e0>
  4094b0:	22 00 00 00 32 00 02 10 	lbu $2,50($16)
  4094b8:	43 00 00 00 f8 ff 02 02 	addiu $2,$2,-8
  4094c0:	5e 00 00 00 02 00 02 02 	sltiu $2,$2,2
  4094c8:	05 00 00 00 30 00 00 02 	beq $2,$0,409590 <wopt+0x2e0>
  4094d0:	28 00 00 00 20 00 02 11 	lw $2,32($17)
  4094d8:	05 00 00 00 18 00 00 02 	beq $2,$0,409540 <wopt+0x290>
  4094e0:	24 00 00 00 22 00 04 10 	lh $4,34($16)
  4094e8:	09 00 00 00 28 00 00 04 	bltz $4,409590 <wopt+0x2e0>
  4094f0:	28 00 00 00 1c 00 02 10 	lw $2,28($16)
  4094f8:	55 00 00 00 02 03 04 00 	sll $3,$4,0x2
  409500:	42 00 00 00 00 03 02 03 	addu $3,$3,$2
  409508:	28 00 00 00 00 00 02 03 	lw $2,0($3)
  409510:	06 00 00 00 04 00 00 02 	bne $2,$0,409528 <wopt+0x278>
  409518:	28 00 00 00 20 00 02 11 	lw $2,32($17)
  409520:	34 00 00 00 00 00 02 03 	sw $2,0($3)
  409528:	43 00 00 00 ff ff 04 04 	addiu $4,$4,-1
  409530:	0a 00 00 00 ee ff 00 04 	bgez $4,4094f0 <wopt+0x240>
  409538:	01 00 00 00 64 25 10 00 	j 409590 <wopt+0x2e0>
  409540:	24 00 00 00 22 00 04 10 	lh $4,34($16)
