
/home/palmerc/Development/nakajima/newsim/ss_precompiled_spec/compress95.ss:     file format ss-coff-little

Disassembly of section .text:

00400140 <__start>:
  400140:	28 00 00 00 00 00 10 1d 	lw $16,0($29)
  400148:	a2 00 00 00 02 10 1c 00 	lui $28,4098
  400150:	43 00 00 00 60 a2 1c 1c 	addiu $28,$28,-23968
  400158:	43 00 00 00 04 00 11 1d 	addiu $17,$29,4
  400160:	43 00 00 00 04 00 03 11 	addiu $3,$17,4
  400168:	55 00 00 00 02 02 10 00 	sll $2,$16,0x2
  400170:	42 00 00 00 00 03 02 03 	addu $3,$3,$2
  400178:	42 00 00 00 00 12 03 00 	addu $18,$0,$3
  400180:	34 00 00 00 64 84 12 1c 	sw $18,-31644($28)
  400188:	43 00 00 00 e8 ff 1d 1d 	addiu $29,$29,-24
  400190:	42 00 00 00 00 04 10 00 	addu $4,$0,$16
  400198:	42 00 00 00 00 05 11 00 	addu $5,$0,$17
  4001a0:	42 00 00 00 00 06 12 00 	addu $6,$0,$18
  4001a8:	02 00 00 00 d0 0a 10 00 	jal 402b40 <__libc_init>
  4001b0:	34 00 00 00 60 84 00 1c 	sw $0,-31648($28)
  4001b8:	42 00 00 00 00 04 10 00 	addu $4,$0,$16
  4001c0:	42 00 00 00 00 05 11 00 	addu $5,$0,$17
  4001c8:	42 00 00 00 00 06 12 00 	addu $6,$0,$18
  4001d0:	02 00 00 00 38 09 10 00 	jal 4024e0 <main>
  4001d8:	42 00 00 00 00 04 02 00 	addu $4,$0,$2
  4001e0:	02 00 00 00 dc 0a 10 00 	jal 402b70 <exit>
	...

004001f0 <spec_select_action>:
  4001f0:	28 00 00 00 00 80 02 1c 	lw $2,-32768($28)
  4001f8:	43 00 00 00 a0 ff 1d 1d 	addiu $29,$29,-96
  400200:	34 00 00 00 54 00 11 1d 	sw $17,84($29)
  400208:	42 00 00 00 00 11 07 00 	addu $17,$0,$7
  400210:	34 00 00 00 58 00 1f 1d 	sw $31,88($29)
  400218:	34 00 00 00 50 00 10 1d 	sw $16,80($29)
  400220:	5c 00 00 00 09 00 02 02 	slti $2,$2,9
  400228:	05 00 00 00 04 00 00 02 	beq $2,$0,400240 <spec_select_action+0x50>
  400230:	43 00 00 00 09 00 02 00 	addiu $2,$0,9
  400238:	34 00 00 00 00 80 02 1c 	sw $2,-32768($28)
  400240:	28 00 00 00 00 80 02 1c 	lw $2,-32768($28)
  400248:	5c 00 00 00 11 00 02 02 	slti $2,$2,17
  400250:	06 00 00 00 04 00 00 02 	bne $2,$0,400268 <spec_select_action+0x78>
  400258:	43 00 00 00 10 00 02 00 	addiu $2,$0,16
  400260:	34 00 00 00 00 80 02 1c 	sw $2,-32768($28)
  400268:	28 00 00 00 00 80 02 1c 	lw $2,-32768($28)
  400270:	43 00 00 00 01 00 10 00 	addiu $16,$0,1
  400278:	34 00 00 00 80 84 05 1c 	sw $5,-31616($28)
  400280:	34 00 00 00 70 84 04 1c 	sw $4,-31632($28)
  400288:	34 00 00 00 74 84 11 1c 	sw $17,-31628($28)
  400290:	34 00 00 00 34 80 06 1c 	sw $6,-32716($28)
  400298:	56 00 00 00 00 02 10 02 	sllv $2,$16,$2
  4002a0:	34 00 00 00 04 80 02 1c 	sw $2,-32764($28)
  4002a8:	06 00 00 00 04 00 00 06 	bne $6,$0,4002c0 <spec_select_action+0xd0>
  4002b0:	02 00 00 00 08 01 10 00 	jal 400420 <compress>
  4002b8:	01 00 00 00 fa 00 10 00 	j 4003e8 <spec_select_action+0x1f8>
  4002c0:	28 00 00 00 14 80 02 1c 	lw $2,-32748($28)
  4002c8:	06 00 00 00 44 00 00 02 	bne $2,$0,4003e0 <spec_select_action+0x1f0>
  4002d0:	02 00 00 00 94 06 10 00 	jal 401a50 <getbyte>
  4002d8:	a2 00 00 00 00 10 03 00 	lui $3,4096
  4002e0:	22 00 00 00 00 16 03 03 	lbu $3,5632($3)
  4002e8:	06 00 00 00 08 00 03 02 	bne $2,$3,400310 <spec_select_action+0x120>
  4002f0:	02 00 00 00 94 06 10 00 	jal 401a50 <getbyte>
  4002f8:	a2 00 00 00 00 10 03 00 	lui $3,4096
  400300:	22 00 00 00 01 16 03 03 	lbu $3,5633($3)
  400308:	05 00 00 00 0c 00 03 02 	beq $2,$3,400340 <spec_select_action+0x150>
  400310:	28 00 00 00 98 80 04 1c 	lw $4,-32616($28)
  400318:	a2 00 00 00 00 10 05 00 	lui $5,4096
  400320:	43 00 00 00 00 00 05 05 	addiu $5,$5,0
  400328:	02 00 00 00 54 0b 10 00 	jal 402d50 <fprintf>
  400330:	43 00 00 00 01 00 04 00 	addiu $4,$0,1
  400338:	02 00 00 00 dc 0a 10 00 	jal 402b70 <exit>
  400340:	02 00 00 00 94 06 10 00 	jal 401a50 <getbyte>
  400348:	a2 00 00 00 01 00 04 00 	lui $4,1
  400350:	51 00 00 00 a0 86 04 04 	ori $4,$4,34464
  400358:	4f 00 00 00 80 00 03 02 	andi $3,$2,128
  400360:	4f 00 00 00 1f 00 06 02 	andi $6,$2,31
  400368:	34 00 00 00 00 80 02 1c 	sw $2,-32768($28)
  400370:	56 00 00 00 00 02 10 06 	sllv $2,$16,$6
  400378:	34 00 00 00 04 80 02 1c 	sw $2,-32764($28)
  400380:	5c 00 00 00 11 00 02 06 	slti $2,$6,17
  400388:	34 00 00 00 20 80 03 1c 	sw $3,-32736($28)
  400390:	34 00 00 00 00 80 06 1c 	sw $6,-32768($28)
  400398:	34 00 00 00 88 84 04 1c 	sw $4,-31608($28)
  4003a0:	06 00 00 00 0e 00 00 02 	bne $2,$0,4003e0 <spec_select_action+0x1f0>
  4003a8:	28 00 00 00 98 80 04 1c 	lw $4,-32616($28)
  4003b0:	a2 00 00 00 00 10 05 00 	lui $5,4096
  4003b8:	43 00 00 00 24 00 05 05 	addiu $5,$5,36
  4003c0:	43 00 00 00 10 00 07 00 	addiu $7,$0,16
  4003c8:	02 00 00 00 54 0b 10 00 	jal 402d50 <fprintf>
  4003d0:	43 00 00 00 01 00 04 00 	addiu $4,$0,1
  4003d8:	02 00 00 00 dc 0a 10 00 	jal 402b70 <exit>
  4003e0:	02 00 00 00 30 03 10 00 	jal 400cc0 <decompress>
  4003e8:	28 00 00 00 74 84 02 1c 	lw $2,-31628($28)
  4003f0:	45 00 00 00 00 02 11 02 	subu $2,$2,$17
  4003f8:	28 00 00 00 58 00 1f 1d 	lw $31,88($29)
  400400:	28 00 00 00 54 00 11 1d 	lw $17,84($29)
  400408:	28 00 00 00 50 00 10 1d 	lw $16,80($29)
  400410:	43 00 00 00 60 00 1d 1d 	addiu $29,$29,96
  400418:	03 00 00 00 00 00 00 1f 	jr $31

00400420 <compress>:
  400420:	28 00 00 00 14 80 02 1c 	lw $2,-32748($28)
  400428:	43 00 00 00 c8 ff 1d 1d 	addiu $29,$29,-56
  400430:	34 00 00 00 30 00 1f 1d 	sw $31,48($29)
  400438:	34 00 00 00 2c 00 17 1d 	sw $23,44($29)
  400440:	34 00 00 00 28 00 16 1d 	sw $22,40($29)
  400448:	34 00 00 00 24 00 15 1d 	sw $21,36($29)
  400450:	34 00 00 00 20 00 14 1d 	sw $20,32($29)
  400458:	34 00 00 00 1c 00 13 1d 	sw $19,28($29)
  400460:	34 00 00 00 18 00 12 1d 	sw $18,24($29)
  400468:	34 00 00 00 14 00 11 1d 	sw $17,20($29)
  400470:	34 00 00 00 10 00 10 1d 	sw $16,16($29)
  400478:	06 00 00 00 18 00 00 02 	bne $2,$0,4004e0 <compress+0xc0>
  400480:	a2 00 00 00 00 10 04 00 	lui $4,4096
  400488:	22 00 00 00 00 16 04 04 	lbu $4,5632($4)
  400490:	02 00 00 00 aa 06 10 00 	jal 401aa8 <putbyte>
  400498:	a2 00 00 00 00 10 04 00 	lui $4,4096
  4004a0:	22 00 00 00 01 16 04 04 	lbu $4,5633($4)
  4004a8:	02 00 00 00 aa 06 10 00 	jal 401aa8 <putbyte>
  4004b0:	22 00 00 00 00 80 04 1c 	lbu $4,-32768($28)
  4004b8:	22 00 00 00 20 80 02 1c 	lbu $2,-32736($28)
  4004c0:	50 00 00 00 00 04 02 04 	or $4,$4,$2
  4004c8:	55 00 00 00 18 04 04 00 	sll $4,$4,0x18
  4004d0:	59 00 00 00 18 04 04 00 	sra $4,$4,0x18
  4004d8:	02 00 00 00 aa 06 10 00 	jal 401aa8 <putbyte>
  4004e0:	28 00 00 00 20 80 03 1c 	lw $3,-32736($28)
  4004e8:	43 00 00 00 00 01 04 00 	addiu $4,$0,256
  4004f0:	43 00 00 00 03 00 02 00 	addiu $2,$0,3
  4004f8:	34 00 00 00 78 84 02 1c 	sw $2,-31624($28)
  400500:	43 00 00 00 01 00 02 00 	addiu $2,$0,1
  400508:	34 00 00 00 38 80 02 1c 	sw $2,-32712($28)
  400510:	43 00 00 00 10 27 02 00 	addiu $2,$0,10000
  400518:	34 00 00 00 2c 80 02 1c 	sw $2,-32724($28)
  400520:	43 00 00 00 09 00 02 00 	addiu $2,$0,9
  400528:	34 00 00 00 7c 84 02 1c 	sw $2,-31620($28)
  400530:	43 00 00 00 ff 01 02 00 	addiu $2,$0,511
  400538:	34 00 00 00 40 84 00 1c 	sw $0,-31680($28)
  400540:	34 00 00 00 3c 80 00 1c 	sw $0,-32708($28)
  400548:	34 00 00 00 24 80 00 1c 	sw $0,-32732($28)
  400550:	34 00 00 00 28 80 00 1c 	sw $0,-32728($28)
  400558:	34 00 00 00 84 84 02 1c 	sw $2,-31612($28)
  400560:	05 00 00 00 02 00 00 03 	beq $3,$0,400570 <compress+0x150>
  400568:	43 00 00 00 01 01 04 00 	addiu $4,$0,257
  400570:	34 00 00 00 0c 80 04 1c 	sw $4,-32756($28)
  400578:	02 00 00 00 94 06 10 00 	jal 401a50 <getbyte>
  400580:	42 00 00 00 00 13 02 00 	addu $19,$0,$2
  400588:	28 00 00 00 08 80 11 1c 	lw $17,-32760($28)
  400590:	42 00 00 00 00 14 00 00 	addu $20,$0,$0
  400598:	51 00 00 00 ff ff 02 00 	ori $2,$0,65535
  4005a0:	5b 00 00 00 00 02 11 02 	slt $2,$2,$17
  4005a8:	06 00 00 00 0a 00 00 02 	bne $2,$0,4005d8 <compress+0x1b8>
  4005b0:	51 00 00 00 ff ff 03 00 	ori $3,$0,65535
  4005b8:	43 00 00 00 01 00 14 14 	addiu $20,$20,1
  4005c0:	55 00 00 00 01 11 11 00 	sll $17,$17,0x1
  4005c8:	5b 00 00 00 00 02 11 03 	slt $2,$3,$17
  4005d0:	05 00 00 00 f8 ff 00 02 	beq $2,$0,4005b8 <compress+0x198>
  4005d8:	43 00 00 00 08 00 02 00 	addiu $2,$0,8
  4005e0:	45 00 00 00 00 14 14 02 	subu $20,$2,$20
  4005e8:	28 00 00 00 08 80 15 1c 	lw $21,-32760($28)
  4005f0:	a2 00 00 00 01 10 17 00 	lui $23,4097
  4005f8:	43 00 00 00 90 2b 17 17 	addiu $23,$23,11152
  400600:	a2 00 00 00 05 10 16 00 	lui $22,4101
  400608:	43 00 00 00 30 62 16 16 	addiu $22,$22,25136
  400610:	42 00 00 00 00 04 15 00 	addu $4,$0,$21
  400618:	02 00 00 00 82 05 10 00 	jal 401608 <cl_hash>
  400620:	02 00 00 00 94 06 10 00 	jal 401a50 <getbyte>
  400628:	42 00 00 00 00 12 02 00 	addu $18,$0,$2
  400630:	43 00 00 00 ff ff 02 00 	addiu $2,$0,-1
  400638:	05 00 00 00 6e 00 02 12 	beq $18,$2,4007f8 <compress+0x3d8>
  400640:	28 00 00 00 00 80 04 1c 	lw $4,-32768($28)
  400648:	56 00 00 00 00 02 12 14 	sllv $2,$18,$20
  400650:	52 00 00 00 00 10 13 02 	xor $16,$2,$19
  400658:	28 00 00 00 38 80 03 1c 	lw $3,-32712($28)
  400660:	55 00 00 00 02 02 10 00 	sll $2,$16,0x2
  400668:	42 00 00 00 00 02 17 02 	addu $2,$2,$23
  400670:	28 00 00 00 00 00 02 02 	lw $2,0($2)
  400678:	56 00 00 00 00 04 12 04 	sllv $4,$18,$4
  400680:	42 00 00 00 00 11 13 04 	addu $17,$4,$19
  400688:	43 00 00 00 01 00 03 03 	addiu $3,$3,1
  400690:	34 00 00 00 38 80 03 1c 	sw $3,-32712($28)
  400698:	05 00 00 00 16 00 11 02 	beq $2,$17,4006f8 <compress+0x2d8>
  4006a0:	09 00 00 00 1e 00 00 02 	bltz $2,400720 <compress+0x300>
  4006a8:	45 00 00 00 00 03 10 15 	subu $3,$21,$16
  4006b0:	06 00 00 00 02 00 00 10 	bne $16,$0,4006c0 <compress+0x2a0>
  4006b8:	43 00 00 00 01 00 03 00 	addiu $3,$0,1
  4006c0:	45 00 00 00 00 10 03 10 	subu $16,$16,$3
  4006c8:	0a 00 00 00 02 00 00 10 	bgez $16,4006d8 <compress+0x2b8>
  4006d0:	42 00 00 00 00 10 15 10 	addu $16,$16,$21
  4006d8:	55 00 00 00 02 02 10 00 	sll $2,$16,0x2
  4006e0:	42 00 00 00 00 02 17 02 	addu $2,$2,$23
  4006e8:	28 00 00 00 00 00 02 02 	lw $2,0($2)
  4006f0:	06 00 00 00 08 00 11 02 	bne $2,$17,400718 <compress+0x2f8>
  4006f8:	55 00 00 00 01 02 10 00 	sll $2,$16,0x1
  400700:	42 00 00 00 00 02 16 02 	addu $2,$2,$22
  400708:	26 00 00 00 00 00 13 02 	lhu $19,0($2)
  400710:	01 00 00 00 88 01 10 00 	j 400620 <compress+0x200>
  400718:	08 00 00 00 e8 ff 00 02 	bgtz $2,4006c0 <compress+0x2a0>
  400720:	42 00 00 00 00 04 13 00 	addu $4,$0,$19
  400728:	02 00 00 00 48 02 10 00 	jal 400920 <output>
  400730:	28 00 00 00 3c 80 02 1c 	lw $2,-32708($28)
  400738:	28 00 00 00 0c 80 04 1c 	lw $4,-32756($28)
  400740:	28 00 00 00 04 80 03 1c 	lw $3,-32764($28)
  400748:	42 00 00 00 00 13 12 00 	addu $19,$0,$18
  400750:	43 00 00 00 01 00 02 02 	addiu $2,$2,1
  400758:	5b 00 00 00 00 03 03 04 	slt $3,$4,$3
  400760:	34 00 00 00 3c 80 02 1c 	sw $2,-32708($28)
  400768:	05 00 00 00 12 00 00 03 	beq $3,$0,4007b8 <compress+0x398>
  400770:	43 00 00 00 01 00 02 04 	addiu $2,$4,1
  400778:	34 00 00 00 0c 80 02 1c 	sw $2,-32756($28)
  400780:	55 00 00 00 01 02 10 00 	sll $2,$16,0x1
  400788:	42 00 00 00 00 02 16 02 	addu $2,$2,$22
  400790:	32 00 00 00 00 00 04 02 	sh $4,0($2)
  400798:	55 00 00 00 02 02 10 00 	sll $2,$16,0x2
  4007a0:	42 00 00 00 00 02 17 02 	addu $2,$2,$23
  4007a8:	34 00 00 00 00 00 11 02 	sw $17,0($2)
  4007b0:	01 00 00 00 88 01 10 00 	j 400620 <compress+0x200>
  4007b8:	28 00 00 00 38 80 02 1c 	lw $2,-32712($28)
  4007c0:	28 00 00 00 2c 80 03 1c 	lw $3,-32724($28)
  4007c8:	5b 00 00 00 00 02 03 02 	slt $2,$2,$3
  4007d0:	06 00 00 00 92 ff 00 02 	bne $2,$0,400620 <compress+0x200>
  4007d8:	28 00 00 00 20 80 02 1c 	lw $2,-32736($28)
  4007e0:	05 00 00 00 8e ff 00 02 	beq $2,$0,400620 <compress+0x200>
  4007e8:	02 00 00 00 18 05 10 00 	jal 401460 <cl_block>
  4007f0:	01 00 00 00 88 01 10 00 	j 400620 <compress+0x200>
  4007f8:	42 00 00 00 00 04 13 00 	addu $4,$0,$19
  400800:	02 00 00 00 48 02 10 00 	jal 400920 <output>
  400808:	28 00 00 00 3c 80 02 1c 	lw $2,-32708($28)
  400810:	43 00 00 00 ff ff 04 00 	addiu $4,$0,-1
  400818:	43 00 00 00 01 00 02 02 	addiu $2,$2,1
  400820:	34 00 00 00 3c 80 02 1c 	sw $2,-32708($28)
  400828:	02 00 00 00 48 02 10 00 	jal 400920 <output>
  400830:	28 00 00 00 18 80 02 1c 	lw $2,-32744($28)
  400838:	06 00 00 00 16 00 00 02 	bne $2,$0,400898 <compress+0x478>
  400840:	28 00 00 00 1c 80 02 1c 	lw $2,-32740($28)
  400848:	06 00 00 00 12 00 00 02 	bne $2,$0,400898 <compress+0x478>
  400850:	28 00 00 00 98 80 04 1c 	lw $4,-32616($28)
  400858:	a2 00 00 00 00 10 05 00 	lui $5,4096
  400860:	43 00 00 00 60 00 05 05 	addiu $5,$5,96
  400868:	02 00 00 00 54 0b 10 00 	jal 402d50 <fprintf>
  400870:	28 00 00 00 38 80 06 1c 	lw $6,-32712($28)
  400878:	28 00 00 00 78 84 05 1c 	lw $5,-31624($28)
  400880:	28 00 00 00 98 80 04 1c 	lw $4,-32616($28)
  400888:	45 00 00 00 00 05 05 06 	subu $5,$6,$5
  400890:	02 00 00 00 c6 05 10 00 	jal 401718 <prratio>
  400898:	28 00 00 00 78 84 03 1c 	lw $3,-31624($28)
  4008a0:	28 00 00 00 38 80 02 1c 	lw $2,-32712($28)
  4008a8:	5b 00 00 00 00 02 03 02 	slt $2,$2,$3
  4008b0:	05 00 00 00 04 00 00 02 	beq $2,$0,4008c8 <compress+0x4a8>
  4008b8:	43 00 00 00 02 00 02 00 	addiu $2,$0,2
  4008c0:	34 00 00 00 10 80 02 1c 	sw $2,-32752($28)
  4008c8:	28 00 00 00 30 00 1f 1d 	lw $31,48($29)
  4008d0:	28 00 00 00 2c 00 17 1d 	lw $23,44($29)
  4008d8:	28 00 00 00 28 00 16 1d 	lw $22,40($29)
  4008e0:	28 00 00 00 24 00 15 1d 	lw $21,36($29)
  4008e8:	28 00 00 00 20 00 14 1d 	lw $20,32($29)
  4008f0:	28 00 00 00 1c 00 13 1d 	lw $19,28($29)
  4008f8:	28 00 00 00 18 00 12 1d 	lw $18,24($29)
  400900:	28 00 00 00 14 00 11 1d 	lw $17,20($29)
  400908:	28 00 00 00 10 00 10 1d 	lw $16,16($29)
  400910:	43 00 00 00 38 00 1d 1d 	addiu $29,$29,56
  400918:	03 00 00 00 00 00 00 1f 	jr $31

00400920 <output>:
  400920:	28 00 00 00 40 84 07 1c 	lw $7,-31680($28)
  400928:	43 00 00 00 e0 ff 1d 1d 	addiu $29,$29,-32
  400930:	34 00 00 00 14 00 11 1d 	sw $17,20($29)
  400938:	28 00 00 00 7c 84 11 1c 	lw $17,-31620($28)
  400940:	42 00 00 00 00 08 04 00 	addu $8,$0,$4
  400948:	34 00 00 00 10 00 10 1d 	sw $16,16($29)
  400950:	a2 00 00 00 01 10 10 00 	lui $16,4097
  400958:	43 00 00 00 80 27 10 10 	addiu $16,$16,10112
  400960:	34 00 00 00 18 00 1f 1d 	sw $31,24($29)
  400968:	09 00 00 00 aa 00 00 08 	bltz $8,400c18 <output+0x2f8>
  400970:	59 00 00 00 03 02 07 00 	sra $2,$7,0x3
  400978:	42 00 00 00 00 10 10 02 	addu $16,$2,$16
  400980:	4f 00 00 00 07 00 07 07 	andi $7,$7,7
  400988:	43 00 00 00 f8 ff 02 11 	addiu $2,$17,-8
  400990:	42 00 00 00 00 11 07 02 	addu $17,$2,$7
  400998:	22 00 00 00 00 00 03 10 	lbu $3,0($16)
  4009a0:	a2 00 00 00 00 10 06 00 	lui $6,4096
  4009a8:	42 00 00 00 00 06 07 06 	addu $6,$6,$7
  4009b0:	22 00 00 00 48 16 06 06 	lbu $6,5704($6)
  4009b8:	56 00 00 00 00 04 08 07 	sllv $4,$8,$7
  4009c0:	a2 00 00 00 00 10 05 00 	lui $5,4096
  4009c8:	42 00 00 00 00 05 07 05 	addu $5,$5,$7
  4009d0:	22 00 00 00 3c 16 05 05 	lbu $5,5692($5)
  4009d8:	43 00 00 00 08 00 02 00 	addiu $2,$0,8
  4009e0:	45 00 00 00 00 02 07 02 	subu $2,$2,$7
  4009e8:	5a 00 00 00 00 08 08 02 	srav $8,$8,$2
  4009f0:	5c 00 00 00 08 00 02 11 	slti $2,$17,8
  4009f8:	4e 00 00 00 00 03 06 03 	and $3,$3,$6
  400a00:	4e 00 00 00 00 04 05 04 	and $4,$4,$5
  400a08:	50 00 00 00 00 03 04 03 	or $3,$3,$4
  400a10:	30 00 00 00 00 00 03 10 	sb $3,0($16)
  400a18:	43 00 00 00 01 00 10 10 	addiu $16,$16,1
  400a20:	06 00 00 00 08 00 00 02 	bne $2,$0,400a48 <output+0x128>
  400a28:	30 00 00 00 00 00 08 10 	sb $8,0($16)
  400a30:	43 00 00 00 01 00 10 10 	addiu $16,$16,1
  400a38:	59 00 00 00 08 08 08 00 	sra $8,$8,0x8
  400a40:	43 00 00 00 f8 ff 11 11 	addiu $17,$17,-8
  400a48:	05 00 00 00 02 00 00 11 	beq $17,$0,400a58 <output+0x138>
  400a50:	30 00 00 00 00 00 08 10 	sb $8,0($16)
  400a58:	28 00 00 00 40 84 02 1c 	lw $2,-31680($28)
  400a60:	28 00 00 00 7c 84 04 1c 	lw $4,-31620($28)
  400a68:	42 00 00 00 00 02 04 02 	addu $2,$2,$4
  400a70:	55 00 00 00 03 03 04 00 	sll $3,$4,0x3
  400a78:	34 00 00 00 40 84 02 1c 	sw $2,-31680($28)
  400a80:	06 00 00 00 18 00 03 02 	bne $2,$3,400ae8 <output+0x1c8>
  400a88:	28 00 00 00 78 84 02 1c 	lw $2,-31624($28)
  400a90:	a2 00 00 00 01 10 10 00 	lui $16,4097
  400a98:	43 00 00 00 80 27 10 10 	addiu $16,$16,10112
  400aa0:	42 00 00 00 00 11 04 00 	addu $17,$0,$4
  400aa8:	42 00 00 00 00 02 02 11 	addu $2,$17,$2
  400ab0:	34 00 00 00 78 84 02 1c 	sw $2,-31624($28)
  400ab8:	20 00 00 00 00 00 04 10 	lb $4,0($16)
  400ac0:	43 00 00 00 ff ff 11 11 	addiu $17,$17,-1
  400ac8:	43 00 00 00 01 00 10 10 	addiu $16,$16,1
  400ad0:	02 00 00 00 aa 06 10 00 	jal 401aa8 <putbyte>
  400ad8:	06 00 00 00 f6 ff 00 11 	bne $17,$0,400ab8 <output+0x198>
  400ae0:	34 00 00 00 40 84 00 1c 	sw $0,-31680($28)
  400ae8:	28 00 00 00 0c 80 03 1c 	lw $3,-32756($28)
  400af0:	28 00 00 00 84 84 02 1c 	lw $2,-31612($28)
  400af8:	5b 00 00 00 00 02 03 02 	slt $2,$2,$3
  400b00:	06 00 00 00 04 00 00 02 	bne $2,$0,400b18 <output+0x1f8>
  400b08:	28 00 00 00 24 80 02 1c 	lw $2,-32732($28)
  400b10:	07 00 00 00 60 00 00 02 	blez $2,400c98 <output+0x378>
  400b18:	28 00 00 00 40 84 02 1c 	lw $2,-31680($28)
  400b20:	07 00 00 00 10 00 00 02 	blez $2,400b68 <output+0x248>
  400b28:	28 00 00 00 7c 84 05 1c 	lw $5,-31620($28)
  400b30:	a2 00 00 00 01 10 04 00 	lui $4,4097
  400b38:	43 00 00 00 80 27 04 04 	addiu $4,$4,10112
  400b40:	02 00 00 00 e6 06 10 00 	jal 401b98 <writebytes>
  400b48:	28 00 00 00 78 84 02 1c 	lw $2,-31624($28)
  400b50:	28 00 00 00 7c 84 03 1c 	lw $3,-31620($28)
  400b58:	42 00 00 00 00 02 03 02 	addu $2,$2,$3
  400b60:	34 00 00 00 78 84 02 1c 	sw $2,-31624($28)
  400b68:	28 00 00 00 24 80 02 1c 	lw $2,-32732($28)
  400b70:	34 00 00 00 40 84 00 1c 	sw $0,-31680($28)
  400b78:	05 00 00 00 0c 00 00 02 	beq $2,$0,400bb0 <output+0x290>
  400b80:	43 00 00 00 09 00 02 00 	addiu $2,$0,9
  400b88:	34 00 00 00 7c 84 02 1c 	sw $2,-31620($28)
  400b90:	43 00 00 00 ff 01 02 00 	addiu $2,$0,511
  400b98:	34 00 00 00 84 84 02 1c 	sw $2,-31612($28)
  400ba0:	34 00 00 00 24 80 00 1c 	sw $0,-32732($28)
  400ba8:	01 00 00 00 26 03 10 00 	j 400c98 <output+0x378>
  400bb0:	28 00 00 00 7c 84 02 1c 	lw $2,-31620($28)
  400bb8:	28 00 00 00 00 80 03 1c 	lw $3,-32768($28)
  400bc0:	43 00 00 00 01 00 04 02 	addiu $4,$2,1
  400bc8:	34 00 00 00 7c 84 04 1c 	sw $4,-31620($28)
  400bd0:	06 00 00 00 06 00 03 04 	bne $4,$3,400bf0 <output+0x2d0>
  400bd8:	28 00 00 00 04 80 02 1c 	lw $2,-32764($28)
  400be0:	34 00 00 00 84 84 02 1c 	sw $2,-31612($28)
  400be8:	01 00 00 00 26 03 10 00 	j 400c98 <output+0x378>
  400bf0:	43 00 00 00 01 00 02 00 	addiu $2,$0,1
  400bf8:	56 00 00 00 00 02 02 04 	sllv $2,$2,$4
  400c00:	43 00 00 00 ff ff 02 02 	addiu $2,$2,-1
  400c08:	34 00 00 00 84 84 02 1c 	sw $2,-31612($28)
  400c10:	01 00 00 00 26 03 10 00 	j 400c98 <output+0x378>
  400c18:	07 00 00 00 0c 00 00 07 	blez $7,400c50 <output+0x330>
  400c20:	43 00 00 00 07 00 05 07 	addiu $5,$7,7
  400c28:	0a 00 00 00 02 00 00 05 	bgez $5,400c38 <output+0x318>
  400c30:	43 00 00 00 0e 00 05 07 	addiu $5,$7,14
  400c38:	42 00 00 00 00 04 10 00 	addu $4,$0,$16
  400c40:	59 00 00 00 03 05 05 00 	sra $5,$5,0x3
  400c48:	02 00 00 00 e6 06 10 00 	jal 401b98 <writebytes>
  400c50:	28 00 00 00 40 84 03 1c 	lw $3,-31680($28)
  400c58:	43 00 00 00 07 00 02 03 	addiu $2,$3,7
  400c60:	0a 00 00 00 02 00 00 02 	bgez $2,400c70 <output+0x350>
  400c68:	43 00 00 00 0e 00 02 03 	addiu $2,$3,14
  400c70:	28 00 00 00 78 84 03 1c 	lw $3,-31624($28)
  400c78:	59 00 00 00 03 02 02 00 	sra $2,$2,0x3
  400c80:	34 00 00 00 40 84 00 1c 	sw $0,-31680($28)
  400c88:	42 00 00 00 00 02 03 02 	addu $2,$2,$3
  400c90:	34 00 00 00 78 84 02 1c 	sw $2,-31624($28)
  400c98:	28 00 00 00 18 00 1f 1d 	lw $31,24($29)
  400ca0:	28 00 00 00 14 00 11 1d 	lw $17,20($29)
  400ca8:	28 00 00 00 10 00 10 1d 	lw $16,16($29)
  400cb0:	43 00 00 00 20 00 1d 1d 	addiu $29,$29,32
  400cb8:	03 00 00 00 00 00 00 1f 	jr $31

00400cc0 <decompress>:
  400cc0:	43 00 00 00 d0 ff 1d 1d 	addiu $29,$29,-48
  400cc8:	43 00 00 00 ff 00 03 00 	addiu $3,$0,255
  400cd0:	a2 00 00 00 05 10 04 00 	lui $4,4101
  400cd8:	43 00 00 00 2e 64 04 04 	addiu $4,$4,25646
  400ce0:	43 00 00 00 09 00 02 00 	addiu $2,$0,9
  400ce8:	34 00 00 00 7c 84 02 1c 	sw $2,-31620($28)
  400cf0:	43 00 00 00 ff 01 02 00 	addiu $2,$0,511
  400cf8:	34 00 00 00 2c 00 1f 1d 	sw $31,44($29)
  400d00:	34 00 00 00 28 00 16 1d 	sw $22,40($29)
  400d08:	34 00 00 00 24 00 15 1d 	sw $21,36($29)
  400d10:	34 00 00 00 20 00 14 1d 	sw $20,32($29)
  400d18:	34 00 00 00 1c 00 13 1d 	sw $19,28($29)
  400d20:	34 00 00 00 18 00 12 1d 	sw $18,24($29)
  400d28:	34 00 00 00 14 00 11 1d 	sw $17,20($29)
  400d30:	34 00 00 00 10 00 10 1d 	sw $16,16($29)
  400d38:	34 00 00 00 84 84 02 1c 	sw $2,-31612($28)
  400d40:	32 00 00 00 00 00 00 04 	sh $0,0($4)
  400d48:	43 00 00 00 fe ff 04 04 	addiu $4,$4,-2
  400d50:	a2 00 00 00 01 10 01 00 	lui $1,4097
  400d58:	42 00 00 00 00 01 03 01 	addu $1,$1,$3
  400d60:	30 00 00 00 90 2b 03 01 	sb $3,11152($1)
  400d68:	43 00 00 00 ff ff 03 03 	addiu $3,$3,-1
  400d70:	0a 00 00 00 f2 ff 00 03 	bgez $3,400d40 <decompress+0x80>
  400d78:	28 00 00 00 20 80 02 1c 	lw $2,-32736($28)
  400d80:	43 00 00 00 00 01 03 00 	addiu $3,$0,256
  400d88:	05 00 00 00 02 00 00 02 	beq $2,$0,400d98 <decompress+0xd8>
  400d90:	43 00 00 00 01 01 03 00 	addiu $3,$0,257
  400d98:	34 00 00 00 0c 80 03 1c 	sw $3,-32756($28)
  400da0:	02 00 00 00 12 04 10 00 	jal 401048 <getcode>
  400da8:	42 00 00 00 00 12 02 00 	addu $18,$0,$2
  400db0:	42 00 00 00 00 11 12 00 	addu $17,$0,$18
  400db8:	43 00 00 00 ff ff 02 00 	addiu $2,$0,-1
  400dc0:	05 00 00 00 8c 00 02 12 	beq $18,$2,400ff8 <decompress+0x338>
  400dc8:	55 00 00 00 18 04 12 00 	sll $4,$18,0x18
  400dd0:	59 00 00 00 18 04 04 00 	sra $4,$4,0x18
  400dd8:	02 00 00 00 aa 06 10 00 	jal 401aa8 <putbyte>
  400de0:	a2 00 00 00 02 10 10 00 	lui $16,4098
  400de8:	43 00 00 00 90 2b 10 10 	addiu $16,$16,11152
  400df0:	43 00 00 00 00 01 15 00 	addiu $21,$0,256
  400df8:	a2 00 00 00 05 10 14 00 	lui $20,4101
  400e00:	43 00 00 00 30 62 14 14 	addiu $20,$20,25136
  400e08:	42 00 00 00 00 16 10 00 	addu $22,$0,$16
  400e10:	02 00 00 00 12 04 10 00 	jal 401048 <getcode>
  400e18:	42 00 00 00 00 03 02 00 	addu $3,$0,$2
  400e20:	09 00 00 00 74 00 00 03 	bltz $3,400ff8 <decompress+0x338>
  400e28:	06 00 00 00 1e 00 15 03 	bne $3,$21,400ea8 <decompress+0x1e8>
  400e30:	28 00 00 00 20 80 02 1c 	lw $2,-32736($28)
  400e38:	05 00 00 00 1a 00 00 02 	beq $2,$0,400ea8 <decompress+0x1e8>
  400e40:	43 00 00 00 ff 00 03 00 	addiu $3,$0,255
  400e48:	43 00 00 00 fe 01 02 14 	addiu $2,$20,510
  400e50:	32 00 00 00 00 00 00 02 	sh $0,0($2)
  400e58:	43 00 00 00 fe ff 02 02 	addiu $2,$2,-2
  400e60:	43 00 00 00 ff ff 03 03 	addiu $3,$3,-1
  400e68:	0a 00 00 00 f8 ff 00 03 	bgez $3,400e50 <decompress+0x190>
  400e70:	43 00 00 00 01 00 02 00 	addiu $2,$0,1
  400e78:	34 00 00 00 24 80 02 1c 	sw $2,-32732($28)
  400e80:	34 00 00 00 0c 80 15 1c 	sw $21,-32756($28)
  400e88:	02 00 00 00 12 04 10 00 	jal 401048 <getcode>
  400e90:	42 00 00 00 00 03 02 00 	addu $3,$0,$2
  400e98:	43 00 00 00 ff ff 02 00 	addiu $2,$0,-1
  400ea0:	05 00 00 00 54 00 02 03 	beq $3,$2,400ff8 <decompress+0x338>
  400ea8:	28 00 00 00 0c 80 02 1c 	lw $2,-32756($28)
  400eb0:	42 00 00 00 00 13 03 00 	addu $19,$0,$3
  400eb8:	5b 00 00 00 00 02 02 13 	slt $2,$19,$2
  400ec0:	06 00 00 00 18 00 00 02 	bne $2,$0,400f28 <decompress+0x268>
  400ec8:	30 00 00 00 00 00 11 10 	sb $17,0($16)
  400ed0:	43 00 00 00 01 00 10 10 	addiu $16,$16,1
  400ed8:	42 00 00 00 00 03 12 00 	addu $3,$0,$18
  400ee0:	01 00 00 00 ca 03 10 00 	j 400f28 <decompress+0x268>
  400ee8:	a2 00 00 00 01 10 02 00 	lui $2,4097
  400ef0:	42 00 00 00 00 02 03 02 	addu $2,$2,$3
  400ef8:	22 00 00 00 90 2b 02 02 	lbu $2,11152($2)
  400f00:	30 00 00 00 00 00 02 10 	sb $2,0($16)
  400f08:	55 00 00 00 01 02 03 00 	sll $2,$3,0x1
  400f10:	42 00 00 00 00 02 14 02 	addu $2,$2,$20
  400f18:	26 00 00 00 00 00 03 02 	lhu $3,0($2)
  400f20:	43 00 00 00 01 00 10 10 	addiu $16,$16,1
  400f28:	5c 00 00 00 00 01 02 03 	slti $2,$3,256
  400f30:	05 00 00 00 ec ff 00 02 	beq $2,$0,400ee8 <decompress+0x228>
  400f38:	a2 00 00 00 01 10 11 00 	lui $17,4097
  400f40:	42 00 00 00 00 11 03 11 	addu $17,$17,$3
  400f48:	22 00 00 00 90 2b 11 11 	lbu $17,11152($17)
  400f50:	30 00 00 00 00 00 11 10 	sb $17,0($16)
  400f58:	43 00 00 00 01 00 10 10 	addiu $16,$16,1
  400f60:	43 00 00 00 ff ff 10 10 	addiu $16,$16,-1
  400f68:	22 00 00 00 00 00 04 10 	lbu $4,0($16)
  400f70:	02 00 00 00 aa 06 10 00 	jal 401aa8 <putbyte>
  400f78:	5d 00 00 00 00 02 10 16 	sltu $2,$22,$16
  400f80:	06 00 00 00 f6 ff 00 02 	bne $2,$0,400f60 <decompress+0x2a0>
  400f88:	28 00 00 00 0c 80 03 1c 	lw $3,-32756($28)
  400f90:	28 00 00 00 04 80 02 1c 	lw $2,-32764($28)
  400f98:	5b 00 00 00 00 02 02 03 	slt $2,$3,$2
  400fa0:	05 00 00 00 10 00 00 02 	beq $2,$0,400fe8 <decompress+0x328>
  400fa8:	55 00 00 00 01 02 03 00 	sll $2,$3,0x1
  400fb0:	42 00 00 00 00 02 14 02 	addu $2,$2,$20
  400fb8:	32 00 00 00 00 00 12 02 	sh $18,0($2)
  400fc0:	43 00 00 00 01 00 02 03 	addiu $2,$3,1
  400fc8:	a2 00 00 00 01 10 01 00 	lui $1,4097
  400fd0:	42 00 00 00 00 01 03 01 	addu $1,$1,$3
  400fd8:	30 00 00 00 90 2b 11 01 	sb $17,11152($1)
  400fe0:	34 00 00 00 0c 80 02 1c 	sw $2,-32756($28)
  400fe8:	42 00 00 00 00 12 13 00 	addu $18,$0,$19
  400ff0:	01 00 00 00 84 03 10 00 	j 400e10 <decompress+0x150>
  400ff8:	28 00 00 00 2c 00 1f 1d 	lw $31,44($29)
  401000:	28 00 00 00 28 00 16 1d 	lw $22,40($29)
  401008:	28 00 00 00 24 00 15 1d 	lw $21,36($29)
  401010:	28 00 00 00 20 00 14 1d 	lw $20,32($29)
  401018:	28 00 00 00 1c 00 13 1d 	lw $19,28($29)
  401020:	28 00 00 00 18 00 12 1d 	lw $18,24($29)
  401028:	28 00 00 00 14 00 11 1d 	lw $17,20($29)
  401030:	28 00 00 00 10 00 10 1d 	lw $16,16($29)
  401038:	43 00 00 00 30 00 1d 1d 	addiu $29,$29,48
  401040:	03 00 00 00 00 00 00 1f 	jr $31

00401048 <getcode>:
  401048:	28 00 00 00 24 80 02 1c 	lw $2,-32732($28)
  401050:	43 00 00 00 e8 ff 1d 1d 	addiu $29,$29,-24
  401058:	34 00 00 00 10 00 10 1d 	sw $16,16($29)
  401060:	a2 00 00 00 01 10 10 00 	lui $16,4097
  401068:	43 00 00 00 70 27 10 10 	addiu $16,$16,10096
  401070:	34 00 00 00 14 00 1f 1d 	sw $31,20($29)
  401078:	08 00 00 00 10 00 00 02 	bgtz $2,4010c0 <getcode+0x78>
  401080:	28 00 00 00 40 80 02 1c 	lw $2,-32704($28)
  401088:	28 00 00 00 44 80 03 1c 	lw $3,-32700($28)
  401090:	5b 00 00 00 00 02 03 02 	slt $2,$2,$3
  401098:	05 00 00 00 08 00 00 02 	beq $2,$0,4010c0 <getcode+0x78>
  4010a0:	28 00 00 00 0c 80 03 1c 	lw $3,-32756($28)
  4010a8:	28 00 00 00 84 84 02 1c 	lw $2,-31612($28)
  4010b0:	5b 00 00 00 00 02 03 02 	slt $2,$2,$3
  4010b8:	05 00 00 00 48 00 00 02 	beq $2,$0,4011e0 <getcode+0x198>
  4010c0:	28 00 00 00 0c 80 03 1c 	lw $3,-32756($28)
  4010c8:	28 00 00 00 84 84 02 1c 	lw $2,-31612($28)
  4010d0:	5b 00 00 00 00 02 03 02 	slt $2,$2,$3
  4010d8:	05 00 00 00 16 00 00 02 	beq $2,$0,401138 <getcode+0xf0>
  4010e0:	28 00 00 00 7c 84 02 1c 	lw $2,-31620($28)
  4010e8:	28 00 00 00 00 80 03 1c 	lw $3,-32768($28)
  4010f0:	43 00 00 00 01 00 04 02 	addiu $4,$2,1
  4010f8:	34 00 00 00 7c 84 04 1c 	sw $4,-31620($28)
  401100:	06 00 00 00 04 00 03 04 	bne $4,$3,401118 <getcode+0xd0>
  401108:	28 00 00 00 04 80 02 1c 	lw $2,-32764($28)
  401110:	01 00 00 00 4c 04 10 00 	j 401130 <getcode+0xe8>
  401118:	43 00 00 00 01 00 02 00 	addiu $2,$0,1
  401120:	56 00 00 00 00 02 02 04 	sllv $2,$2,$4
  401128:	43 00 00 00 ff ff 02 02 	addiu $2,$2,-1
  401130:	34 00 00 00 84 84 02 1c 	sw $2,-31612($28)
  401138:	28 00 00 00 24 80 02 1c 	lw $2,-32732($28)
  401140:	07 00 00 00 0a 00 00 02 	blez $2,401170 <getcode+0x128>
  401148:	43 00 00 00 09 00 02 00 	addiu $2,$0,9
  401150:	34 00 00 00 7c 84 02 1c 	sw $2,-31620($28)
  401158:	43 00 00 00 ff 01 02 00 	addiu $2,$0,511
  401160:	34 00 00 00 84 84 02 1c 	sw $2,-31612($28)
  401168:	34 00 00 00 24 80 00 1c 	sw $0,-32732($28)
  401170:	28 00 00 00 7c 84 05 1c 	lw $5,-31620($28)
  401178:	a2 00 00 00 01 10 04 00 	lui $4,4097
  401180:	43 00 00 00 70 27 04 04 	addiu $4,$4,10096
  401188:	02 00 00 00 b4 06 10 00 	jal 401ad0 <readbytes>
  401190:	34 00 00 00 44 80 02 1c 	sw $2,-32700($28)
  401198:	08 00 00 00 04 00 00 02 	bgtz $2,4011b0 <getcode+0x168>
  4011a0:	43 00 00 00 ff ff 02 00 	addiu $2,$0,-1
  4011a8:	01 00 00 00 b6 04 10 00 	j 4012d8 <getcode+0x290>
  4011b0:	28 00 00 00 7c 84 03 1c 	lw $3,-31620($28)
  4011b8:	55 00 00 00 03 02 02 00 	sll $2,$2,0x3
  4011c0:	43 00 00 00 01 00 02 02 	addiu $2,$2,1
  4011c8:	34 00 00 00 40 80 00 1c 	sw $0,-32704($28)
  4011d0:	45 00 00 00 00 02 03 02 	subu $2,$2,$3
  4011d8:	34 00 00 00 44 80 02 1c 	sw $2,-32700($28)
  4011e0:	28 00 00 00 40 80 05 1c 	lw $5,-32704($28)
  4011e8:	28 00 00 00 7c 84 04 1c 	lw $4,-31620($28)
  4011f0:	59 00 00 00 03 02 05 00 	sra $2,$5,0x3
  4011f8:	42 00 00 00 00 10 02 10 	addu $16,$16,$2
  401200:	4f 00 00 00 07 00 05 05 	andi $5,$5,7
  401208:	22 00 00 00 00 00 03 10 	lbu $3,0($16)
  401210:	43 00 00 00 f8 ff 02 04 	addiu $2,$4,-8
  401218:	42 00 00 00 00 04 05 02 	addu $4,$2,$5
  401220:	43 00 00 00 08 00 02 00 	addiu $2,$0,8
  401228:	5a 00 00 00 00 06 03 05 	srav $6,$3,$5
  401230:	43 00 00 00 01 00 10 10 	addiu $16,$16,1
  401238:	45 00 00 00 00 05 05 02 	subu $5,$2,$5
  401240:	5c 00 00 00 08 00 02 04 	slti $2,$4,8
  401248:	06 00 00 00 0c 00 00 02 	bne $2,$0,401280 <getcode+0x238>
  401250:	22 00 00 00 00 00 02 10 	lbu $2,0($16)
  401258:	43 00 00 00 f8 ff 04 04 	addiu $4,$4,-8
  401260:	56 00 00 00 00 02 02 05 	sllv $2,$2,$5
  401268:	50 00 00 00 00 06 02 06 	or $6,$6,$2
  401270:	43 00 00 00 01 00 10 10 	addiu $16,$16,1
  401278:	43 00 00 00 08 00 05 05 	addiu $5,$5,8
  401280:	22 00 00 00 00 00 02 10 	lbu $2,0($16)
  401288:	a2 00 00 00 00 10 03 00 	lui $3,4096
  401290:	42 00 00 00 00 03 04 03 	addu $3,$3,$4
  401298:	22 00 00 00 48 16 03 03 	lbu $3,5704($3)
  4012a0:	4e 00 00 00 00 02 03 02 	and $2,$2,$3
  4012a8:	28 00 00 00 40 80 03 1c 	lw $3,-32704($28)
  4012b0:	28 00 00 00 7c 84 04 1c 	lw $4,-31620($28)
  4012b8:	56 00 00 00 00 02 02 05 	sllv $2,$2,$5
  4012c0:	50 00 00 00 00 02 02 06 	or $2,$6,$2
  4012c8:	42 00 00 00 00 03 04 03 	addu $3,$3,$4
  4012d0:	34 00 00 00 40 80 03 1c 	sw $3,-32704($28)
  4012d8:	28 00 00 00 14 00 1f 1d 	lw $31,20($29)
  4012e0:	28 00 00 00 10 00 10 1d 	lw $16,16($29)
  4012e8:	43 00 00 00 18 00 1d 1d 	addiu $29,$29,24
  4012f0:	03 00 00 00 00 00 00 1f 	jr $31

004012f8 <rindex>:
  4012f8:	22 00 00 00 00 00 03 04 	lbu $3,0($4)
  401300:	20 00 00 00 00 00 02 04 	lb $2,0($4)
  401308:	43 00 00 00 f0 ff 1d 1d 	addiu $29,$29,-16
  401310:	42 00 00 00 00 06 00 00 	addu $6,$0,$0
  401318:	05 00 00 00 14 00 00 02 	beq $2,$0,401370 <rindex+0x78>
  401320:	55 00 00 00 18 02 05 00 	sll $2,$5,0x18
  401328:	59 00 00 00 18 05 02 00 	sra $5,$2,0x18
  401330:	55 00 00 00 18 02 03 00 	sll $2,$3,0x18
  401338:	59 00 00 00 18 02 02 00 	sra $2,$2,0x18
  401340:	06 00 00 00 02 00 05 02 	bne $2,$5,401350 <rindex+0x58>
  401348:	42 00 00 00 00 06 04 00 	addu $6,$0,$4
  401350:	43 00 00 00 01 00 04 04 	addiu $4,$4,1
  401358:	20 00 00 00 00 00 02 04 	lb $2,0($4)
  401360:	22 00 00 00 00 00 03 04 	lbu $3,0($4)
  401368:	06 00 00 00 f0 ff 00 02 	bne $2,$0,401330 <rindex+0x38>
  401370:	42 00 00 00 00 02 06 00 	addu $2,$0,$6
  401378:	43 00 00 00 10 00 1d 1d 	addiu $29,$29,16
  401380:	03 00 00 00 00 00 00 1f 	jr $31

00401388 <onintr>:
  401388:	43 00 00 00 e8 ff 1d 1d 	addiu $29,$29,-24
  401390:	34 00 00 00 10 00 1f 1d 	sw $31,16($29)
  401398:	a2 00 00 00 05 10 04 00 	lui $4,4101
  4013a0:	43 00 00 00 c0 61 04 04 	addiu $4,$4,25024
  4013a8:	02 00 00 00 68 0b 10 00 	jal 402da0 <unlink>
  4013b0:	43 00 00 00 01 00 04 00 	addiu $4,$0,1
  4013b8:	02 00 00 00 dc 0a 10 00 	jal 402b70 <exit>
  4013c0:	28 00 00 00 10 00 1f 1d 	lw $31,16($29)
  4013c8:	43 00 00 00 18 00 1d 1d 	addiu $29,$29,24
  4013d0:	03 00 00 00 00 00 00 1f 	jr $31

004013d8 <oops>:
  4013d8:	28 00 00 00 34 80 03 1c 	lw $3,-32716($28)
  4013e0:	43 00 00 00 e8 ff 1d 1d 	addiu $29,$29,-24
  4013e8:	43 00 00 00 01 00 02 00 	addiu $2,$0,1
  4013f0:	34 00 00 00 10 00 1f 1d 	sw $31,16($29)
  4013f8:	06 00 00 00 08 00 02 03 	bne $3,$2,401420 <oops+0x48>
  401400:	28 00 00 00 98 80 04 1c 	lw $4,-32616($28)
  401408:	a2 00 00 00 00 10 05 00 	lui $5,4096
  401410:	43 00 00 00 70 00 05 05 	addiu $5,$5,112
  401418:	02 00 00 00 54 0b 10 00 	jal 402d50 <fprintf>
  401420:	a2 00 00 00 05 10 04 00 	lui $4,4101
  401428:	43 00 00 00 c0 61 04 04 	addiu $4,$4,25024
  401430:	02 00 00 00 68 0b 10 00 	jal 402da0 <unlink>
  401438:	43 00 00 00 01 00 04 00 	addiu $4,$0,1
  401440:	02 00 00 00 dc 0a 10 00 	jal 402b70 <exit>
  401448:	28 00 00 00 10 00 1f 1d 	lw $31,16($29)
  401450:	43 00 00 00 18 00 1d 1d 	addiu $29,$29,24
  401458:	03 00 00 00 00 00 00 1f 	jr $31

00401460 <cl_block>:
  401460:	43 00 00 00 e8 ff 1d 1d 	addiu $29,$29,-24
  401468:	28 00 00 00 38 80 04 1c 	lw $4,-32712($28)
  401470:	a2 00 00 00 7f 00 03 00 	lui $3,127
  401478:	51 00 00 00 ff ff 03 03 	ori $3,$3,65535
  401480:	34 00 00 00 10 00 1f 1d 	sw $31,16($29)
  401488:	43 00 00 00 10 27 02 04 	addiu $2,$4,10000
  401490:	5b 00 00 00 00 03 04 03 	slt $3,$3,$4
  401498:	34 00 00 00 2c 80 02 1c 	sw $2,-32724($28)
  4014a0:	05 00 00 00 20 00 00 03 	beq $3,$0,401528 <cl_block+0xc8>
  4014a8:	28 00 00 00 78 84 02 1c 	lw $2,-31624($28)
  4014b0:	59 00 00 00 08 03 02 00 	sra $3,$2,0x8
  4014b8:	06 00 00 00 06 00 00 03 	bne $3,$0,4014d8 <cl_block+0x78>
  4014c0:	a2 00 00 00 ff 7f 03 00 	lui $3,32767
  4014c8:	51 00 00 00 ff ff 03 03 	ori $3,$3,65535
  4014d0:	01 00 00 00 60 05 10 00 	j 401580 <cl_block+0x120>
  4014d8:	48 00 00 00 00 00 03 04 	div $0,$4,$3
  4014e0:	06 00 00 00 02 00 00 03 	bne $3,$0,4014f0 <cl_block+0x90>
  4014e8:	a1 00 00 00 07 00 00 00 	break 
  4014f0:	43 00 00 00 ff ff 01 00 	addiu $1,$0,-1
  4014f8:	06 00 00 00 06 00 01 03 	bne $3,$1,401518 <cl_block+0xb8>
  401500:	a2 00 00 00 00 80 01 00 	lui $1,32768
  401508:	06 00 00 00 02 00 01 04 	bne $4,$1,401518 <cl_block+0xb8>
  401510:	a1 00 00 00 06 00 00 00 	break 
  401518:	4c 00 00 00 00 03 00 00 	mflo $3
  401520:	01 00 00 00 60 05 10 00 	j 401580 <cl_block+0x120>
  401528:	28 00 00 00 78 84 02 1c 	lw $2,-31624($28)
  401530:	55 00 00 00 08 03 04 00 	sll $3,$4,0x8
  401538:	48 00 00 00 00 00 02 03 	div $0,$3,$2
  401540:	06 00 00 00 02 00 00 02 	bne $2,$0,401550 <cl_block+0xf0>
  401548:	a1 00 00 00 07 00 00 00 	break 
  401550:	43 00 00 00 ff ff 01 00 	addiu $1,$0,-1
  401558:	06 00 00 00 06 00 01 02 	bne $2,$1,401578 <cl_block+0x118>
  401560:	a2 00 00 00 00 80 01 00 	lui $1,32768
  401568:	06 00 00 00 02 00 01 03 	bne $3,$1,401578 <cl_block+0x118>
  401570:	a1 00 00 00 06 00 00 00 	break 
  401578:	4c 00 00 00 00 03 00 00 	mflo $3
  401580:	28 00 00 00 28 80 02 1c 	lw $2,-32728($28)
  401588:	5b 00 00 00 00 02 03 02 	slt $2,$2,$3
  401590:	05 00 00 00 04 00 00 02 	beq $2,$0,4015a8 <cl_block+0x148>
  401598:	34 00 00 00 28 80 03 1c 	sw $3,-32728($28)
  4015a0:	01 00 00 00 7c 05 10 00 	j 4015f0 <cl_block+0x190>
  4015a8:	28 00 00 00 08 80 04 1c 	lw $4,-32760($28)
  4015b0:	34 00 00 00 28 80 00 1c 	sw $0,-32728($28)
  4015b8:	02 00 00 00 82 05 10 00 	jal 401608 <cl_hash>
  4015c0:	43 00 00 00 00 01 04 00 	addiu $4,$0,256
  4015c8:	43 00 00 00 01 01 02 00 	addiu $2,$0,257
  4015d0:	34 00 00 00 0c 80 02 1c 	sw $2,-32756($28)
  4015d8:	43 00 00 00 01 00 02 00 	addiu $2,$0,1
  4015e0:	34 00 00 00 24 80 02 1c 	sw $2,-32732($28)
  4015e8:	02 00 00 00 48 02 10 00 	jal 400920 <output>
  4015f0:	28 00 00 00 10 00 1f 1d 	lw $31,16($29)
  4015f8:	43 00 00 00 18 00 1d 1d 	addiu $29,$29,24
  401600:	03 00 00 00 00 00 00 1f 	jr $31

00401608 <cl_hash>:
  401608:	55 00 00 00 02 03 04 00 	sll $3,$4,0x2
  401610:	a2 00 00 00 01 10 02 00 	lui $2,4097
  401618:	43 00 00 00 90 2b 02 02 	addiu $2,$2,11152
  401620:	42 00 00 00 00 03 02 03 	addu $3,$3,$2
  401628:	43 00 00 00 ff ff 05 00 	addiu $5,$0,-1
  401630:	43 00 00 00 f0 ff 04 04 	addiu $4,$4,-16
  401638:	43 00 00 00 fc ff 02 03 	addiu $2,$3,-4
  401640:	34 00 00 00 c4 ff 05 02 	sw $5,-60($2)
  401648:	34 00 00 00 c8 ff 05 02 	sw $5,-56($2)
  401650:	34 00 00 00 cc ff 05 02 	sw $5,-52($2)
  401658:	34 00 00 00 d0 ff 05 02 	sw $5,-48($2)
  401660:	34 00 00 00 d4 ff 05 02 	sw $5,-44($2)
  401668:	34 00 00 00 d8 ff 05 02 	sw $5,-40($2)
  401670:	34 00 00 00 dc ff 05 02 	sw $5,-36($2)
  401678:	34 00 00 00 e0 ff 05 02 	sw $5,-32($2)
  401680:	34 00 00 00 e4 ff 05 02 	sw $5,-28($2)
  401688:	34 00 00 00 e8 ff 05 02 	sw $5,-24($2)
  401690:	34 00 00 00 ec ff 05 02 	sw $5,-20($2)
  401698:	34 00 00 00 f0 ff 05 02 	sw $5,-16($2)
  4016a0:	34 00 00 00 f4 ff 05 02 	sw $5,-12($2)
  4016a8:	34 00 00 00 f8 ff 05 02 	sw $5,-8($2)
  4016b0:	34 00 00 00 fc ff 05 02 	sw $5,-4($2)
  4016b8:	34 00 00 00 00 00 05 02 	sw $5,0($2)
  4016c0:	43 00 00 00 c0 ff 02 02 	addiu $2,$2,-64
  4016c8:	43 00 00 00 c0 ff 03 03 	addiu $3,$3,-64
  4016d0:	43 00 00 00 f0 ff 04 04 	addiu $4,$4,-16
  4016d8:	0a 00 00 00 d8 ff 00 04 	bgez $4,401640 <cl_hash+0x38>
  4016e0:	43 00 00 00 10 00 04 04 	addiu $4,$4,16
  4016e8:	07 00 00 00 08 00 00 04 	blez $4,401710 <cl_hash+0x108>
  4016f0:	43 00 00 00 fc ff 03 03 	addiu $3,$3,-4
  4016f8:	34 00 00 00 00 00 05 03 	sw $5,0($3)
  401700:	43 00 00 00 ff ff 04 04 	addiu $4,$4,-1
  401708:	08 00 00 00 f8 ff 00 04 	bgtz $4,4016f0 <cl_hash+0xe8>
  401710:	03 00 00 00 00 00 00 1f 	jr $31

00401718 <prratio>:
  401718:	43 00 00 00 e0 ff 1d 1d 	addiu $29,$29,-32
  401720:	34 00 00 00 14 00 11 1d 	sw $17,20($29)
  401728:	42 00 00 00 00 11 04 00 	addu $17,$0,$4
  401730:	a2 00 00 00 03 00 02 00 	lui $2,3
  401738:	51 00 00 00 dc 46 02 02 	ori $2,$2,18140
  401740:	5b 00 00 00 00 02 05 02 	slt $2,$2,$5
  401748:	34 00 00 00 18 00 1f 1d 	sw $31,24($29)
  401750:	34 00 00 00 10 00 10 1d 	sw $16,16($29)
  401758:	05 00 00 00 28 00 00 02 	beq $2,$0,401800 <prratio+0xe8>
  401760:	a2 00 00 00 db 68 02 00 	lui $2,26843
  401768:	51 00 00 00 ad 8b 02 02 	ori $2,$2,35757
  401770:	46 00 00 00 00 00 02 06 	mult $6,$2
  401778:	4a 00 00 00 00 03 00 00 	mfhi $3
  401780:	4c 00 00 00 00 02 00 00 	mflo $2
  401788:	57 00 00 00 00 02 03 00 	srl $2,$3,0x0
  401790:	42 00 00 00 00 03 00 00 	addu $3,$0,$0
  401798:	59 00 00 00 0c 02 02 00 	sra $2,$2,0xc
  4017a0:	59 00 00 00 1f 04 06 00 	sra $4,$6,0x1f
  4017a8:	45 00 00 00 00 02 04 02 	subu $2,$2,$4
  4017b0:	48 00 00 00 00 00 02 05 	div $0,$5,$2
  4017b8:	06 00 00 00 02 00 00 02 	bne $2,$0,4017c8 <prratio+0xb0>
  4017c0:	a1 00 00 00 07 00 00 00 	break 
  4017c8:	43 00 00 00 ff ff 01 00 	addiu $1,$0,-1
  4017d0:	06 00 00 00 06 00 01 02 	bne $2,$1,4017f0 <prratio+0xd8>
  4017d8:	a2 00 00 00 00 80 01 00 	lui $1,32768
  4017e0:	06 00 00 00 02 00 01 05 	bne $5,$1,4017f0 <prratio+0xd8>
  4017e8:	a1 00 00 00 06 00 00 00 	break 
  4017f0:	4c 00 00 00 00 10 00 00 	mflo $16
  4017f8:	01 00 00 00 20 06 10 00 	j 401880 <prratio+0x168>
  401800:	55 00 00 00 02 02 05 00 	sll $2,$5,0x2
  401808:	42 00 00 00 00 02 05 02 	addu $2,$2,$5
  401810:	55 00 00 00 03 02 02 00 	sll $2,$2,0x3
  401818:	45 00 00 00 00 02 05 02 	subu $2,$2,$5
  401820:	55 00 00 00 04 02 02 00 	sll $2,$2,0x4
  401828:	42 00 00 00 00 02 05 02 	addu $2,$2,$5
  401830:	55 00 00 00 04 02 02 00 	sll $2,$2,0x4
  401838:	48 00 00 00 00 00 06 02 	div $0,$2,$6
  401840:	06 00 00 00 02 00 00 06 	bne $6,$0,401850 <prratio+0x138>
  401848:	a1 00 00 00 07 00 00 00 	break 
  401850:	43 00 00 00 ff ff 01 00 	addiu $1,$0,-1
  401858:	06 00 00 00 06 00 01 06 	bne $6,$1,401878 <prratio+0x160>
  401860:	a2 00 00 00 00 80 01 00 	lui $1,32768
  401868:	06 00 00 00 02 00 01 02 	bne $2,$1,401878 <prratio+0x160>
  401870:	a1 00 00 00 06 00 00 00 	break 
  401878:	4c 00 00 00 00 10 00 00 	mflo $16
  401880:	0a 00 00 00 1a 00 00 10 	bgez $16,4018f0 <prratio+0x1d8>
  401888:	28 00 00 00 04 00 03 11 	lw $3,4($17)
  401890:	28 00 00 00 0c 00 02 11 	lw $2,12($17)
  401898:	5d 00 00 00 00 02 02 03 	sltu $2,$3,$2
  4018a0:	05 00 00 00 0a 00 00 02 	beq $2,$0,4018d0 <prratio+0x1b8>
  4018a8:	43 00 00 00 01 00 02 03 	addiu $2,$3,1
  4018b0:	34 00 00 00 04 00 02 11 	sw $2,4($17)
  4018b8:	43 00 00 00 2d 00 02 00 	addiu $2,$0,45
  4018c0:	30 00 00 00 00 00 02 03 	sb $2,0($3)
  4018c8:	01 00 00 00 3a 06 10 00 	j 4018e8 <prratio+0x1d0>
  4018d0:	42 00 00 00 00 04 11 00 	addu $4,$0,$17
  4018d8:	43 00 00 00 2d 00 05 00 	addiu $5,$0,45
  4018e0:	02 00 00 00 84 0f 10 00 	jal 403e10 <__flshfp>
  4018e8:	45 00 00 00 00 10 10 00 	subu $16,$0,$16
  4018f0:	a2 00 00 00 eb 51 06 00 	lui $6,20971
  4018f8:	51 00 00 00 1f 85 06 06 	ori $6,$6,34079
  401900:	46 00 00 00 00 00 06 10 	mult $16,$6
  401908:	4a 00 00 00 00 07 00 00 	mfhi $7
  401910:	4c 00 00 00 00 06 00 00 	mflo $6
  401918:	42 00 00 00 00 04 11 00 	addu $4,$0,$17
  401920:	a2 00 00 00 00 10 05 00 	lui $5,4096
  401928:	43 00 00 00 8c 00 05 05 	addiu $5,$5,140
  401930:	57 00 00 00 00 06 07 00 	srl $6,$7,0x0
  401938:	42 00 00 00 00 07 00 00 	addu $7,$0,$0
  401940:	59 00 00 00 05 06 06 00 	sra $6,$6,0x5
  401948:	59 00 00 00 1f 02 10 00 	sra $2,$16,0x1f
  401950:	45 00 00 00 00 06 02 06 	subu $6,$6,$2
  401958:	55 00 00 00 01 02 06 00 	sll $2,$6,0x1
  401960:	42 00 00 00 00 02 06 02 	addu $2,$2,$6
  401968:	55 00 00 00 03 02 02 00 	sll $2,$2,0x3
  401970:	42 00 00 00 00 02 06 02 	addu $2,$2,$6
  401978:	55 00 00 00 02 02 02 00 	sll $2,$2,0x2
  401980:	45 00 00 00 00 07 02 10 	subu $7,$16,$2
  401988:	02 00 00 00 54 0b 10 00 	jal 402d50 <fprintf>
  401990:	28 00 00 00 18 00 1f 1d 	lw $31,24($29)
  401998:	28 00 00 00 14 00 11 1d 	lw $17,20($29)
  4019a0:	28 00 00 00 10 00 10 1d 	lw $16,16($29)
  4019a8:	43 00 00 00 20 00 1d 1d 	addiu $29,$29,32
  4019b0:	03 00 00 00 00 00 00 1f 	jr $31

004019b8 <version>:
  4019b8:	43 00 00 00 e8 ff 1d 1d 	addiu $29,$29,-24
  4019c0:	28 00 00 00 98 80 04 1c 	lw $4,-32616($28)
  4019c8:	43 00 00 00 48 80 05 1c 	addiu $5,$28,-32696
  4019d0:	a2 00 00 00 00 10 06 00 	lui $6,4096
  4019d8:	43 00 00 00 04 16 06 06 	addiu $6,$6,5636
  4019e0:	34 00 00 00 10 00 1f 1d 	sw $31,16($29)
  4019e8:	02 00 00 00 54 0b 10 00 	jal 402d50 <fprintf>
  4019f0:	28 00 00 00 98 80 04 1c 	lw $4,-32616($28)
  4019f8:	a2 00 00 00 00 10 05 00 	lui $5,4096
  401a00:	43 00 00 00 98 00 05 05 	addiu $5,$5,152
  401a08:	02 00 00 00 54 0b 10 00 	jal 402d50 <fprintf>
  401a10:	28 00 00 00 98 80 04 1c 	lw $4,-32616($28)
  401a18:	a2 00 00 00 00 10 05 00 	lui $5,4096
  401a20:	43 00 00 00 a4 00 05 05 	addiu $5,$5,164
  401a28:	43 00 00 00 10 00 06 00 	addiu $6,$0,16
  401a30:	02 00 00 00 54 0b 10 00 	jal 402d50 <fprintf>
  401a38:	28 00 00 00 10 00 1f 1d 	lw $31,16($29)
  401a40:	43 00 00 00 18 00 1d 1d 	addiu $29,$29,24
  401a48:	03 00 00 00 00 00 00 1f 	jr $31

00401a50 <getbyte>:
  401a50:	28 00 00 00 80 84 03 1c 	lw $3,-31616($28)
  401a58:	08 00 00 00 04 00 00 03 	bgtz $3,401a70 <getbyte+0x20>
  401a60:	43 00 00 00 ff ff 02 00 	addiu $2,$0,-1
  401a68:	01 00 00 00 a8 06 10 00 	j 401aa0 <getbyte+0x50>
  401a70:	28 00 00 00 70 84 02 1c 	lw $2,-31632($28)
  401a78:	43 00 00 00 ff ff 03 03 	addiu $3,$3,-1
  401a80:	34 00 00 00 80 84 03 1c 	sw $3,-31616($28)
  401a88:	43 00 00 00 01 00 03 02 	addiu $3,$2,1
  401a90:	34 00 00 00 70 84 03 1c 	sw $3,-31632($28)
  401a98:	22 00 00 00 00 00 02 02 	lbu $2,0($2)
  401aa0:	03 00 00 00 00 00 00 1f 	jr $31

00401aa8 <putbyte>:
  401aa8:	28 00 00 00 74 84 03 1c 	lw $3,-31628($28)
  401ab0:	43 00 00 00 01 00 02 03 	addiu $2,$3,1
  401ab8:	34 00 00 00 74 84 02 1c 	sw $2,-31628($28)
  401ac0:	30 00 00 00 00 00 04 03 	sb $4,0($3)
  401ac8:	03 00 00 00 00 00 00 1f 	jr $31

00401ad0 <readbytes>:
  401ad0:	28 00 00 00 80 84 03 1c 	lw $3,-31616($28)
  401ad8:	43 00 00 00 f8 ff 1d 1d 	addiu $29,$29,-8
  401ae0:	08 00 00 00 04 00 00 03 	bgtz $3,401af8 <readbytes+0x28>
  401ae8:	43 00 00 00 ff ff 02 00 	addiu $2,$0,-1
  401af0:	01 00 00 00 e2 06 10 00 	j 401b88 <readbytes+0xb8>
  401af8:	5b 00 00 00 00 02 05 03 	slt $2,$3,$5
  401b00:	05 00 00 00 02 00 00 02 	beq $2,$0,401b10 <readbytes+0x40>
  401b08:	42 00 00 00 00 05 03 00 	addu $5,$0,$3
  401b10:	42 00 00 00 00 06 00 00 	addu $6,$0,$0
  401b18:	07 00 00 00 18 00 00 05 	blez $5,401b80 <readbytes+0xb0>
  401b20:	28 00 00 00 70 84 03 1c 	lw $3,-31632($28)
  401b28:	43 00 00 00 01 00 02 03 	addiu $2,$3,1
  401b30:	34 00 00 00 70 84 02 1c 	sw $2,-31632($28)
  401b38:	22 00 00 00 00 00 02 03 	lbu $2,0($3)
  401b40:	30 00 00 00 00 00 02 04 	sb $2,0($4)
  401b48:	28 00 00 00 80 84 02 1c 	lw $2,-31616($28)
  401b50:	43 00 00 00 01 00 06 06 	addiu $6,$6,1
  401b58:	43 00 00 00 01 00 04 04 	addiu $4,$4,1
  401b60:	43 00 00 00 ff ff 02 02 	addiu $2,$2,-1
  401b68:	34 00 00 00 80 84 02 1c 	sw $2,-31616($28)
  401b70:	5b 00 00 00 00 02 05 06 	slt $2,$6,$5
  401b78:	06 00 00 00 e8 ff 00 02 	bne $2,$0,401b20 <readbytes+0x50>
  401b80:	42 00 00 00 00 02 06 00 	addu $2,$0,$6
  401b88:	43 00 00 00 08 00 1d 1d 	addiu $29,$29,8
  401b90:	03 00 00 00 00 00 00 1f 	jr $31

00401b98 <writebytes>:
  401b98:	07 00 00 00 12 00 00 05 	blez $5,401be8 <writebytes+0x50>
  401ba0:	42 00 00 00 00 05 04 05 	addu $5,$5,$4
  401ba8:	28 00 00 00 74 84 03 1c 	lw $3,-31628($28)
  401bb0:	43 00 00 00 01 00 02 03 	addiu $2,$3,1
  401bb8:	34 00 00 00 74 84 02 1c 	sw $2,-31628($28)
  401bc0:	22 00 00 00 00 00 02 04 	lbu $2,0($4)
  401bc8:	43 00 00 00 01 00 04 04 	addiu $4,$4,1
  401bd0:	30 00 00 00 00 00 02 03 	sb $2,0($3)
  401bd8:	5b 00 00 00 00 02 05 04 	slt $2,$4,$5
  401be0:	06 00 00 00 f0 ff 00 02 	bne $2,$0,401ba8 <writebytes+0x10>
  401be8:	03 00 00 00 00 00 00 1f 	jr $31

00401bf0 <add_line>:
  401bf0:	42 00 00 00 00 08 05 00 	addu $8,$0,$5
  401bf8:	42 00 00 00 00 06 06 05 	addu $6,$5,$6
  401c00:	5b 00 00 00 00 02 06 05 	slt $2,$5,$6
  401c08:	05 00 00 00 0c 00 00 02 	beq $2,$0,401c40 <add_line+0x50>
  401c10:	42 00 00 00 00 05 04 05 	addu $5,$5,$4
  401c18:	30 00 00 00 00 00 07 05 	sb $7,0($5)
  401c20:	43 00 00 00 01 00 05 05 	addiu $5,$5,1
  401c28:	43 00 00 00 01 00 08 08 	addiu $8,$8,1
  401c30:	5b 00 00 00 00 02 06 08 	slt $2,$8,$6
  401c38:	06 00 00 00 f6 ff 00 02 	bne $2,$0,401c18 <add_line+0x28>
  401c40:	42 00 00 00 00 05 08 00 	addu $5,$0,$8
  401c48:	42 00 00 00 00 03 05 04 	addu $3,$4,$5
  401c50:	43 00 00 00 0a 00 02 00 	addiu $2,$0,10
  401c58:	30 00 00 00 00 00 02 03 	sb $2,0($3)
  401c60:	43 00 00 00 01 00 02 05 	addiu $2,$5,1
  401c68:	03 00 00 00 00 00 00 1f 	jr $31

00401c70 <fill_text_buffer>:
  401c70:	43 00 00 00 d8 ff 1d 1d 	addiu $29,$29,-40
  401c78:	34 00 00 00 1c 00 13 1d 	sw $19,28($29)
  401c80:	42 00 00 00 00 13 04 00 	addu $19,$0,$4
  401c88:	34 00 00 00 20 00 14 1d 	sw $20,32($29)
  401c90:	42 00 00 00 00 14 06 00 	addu $20,$0,$6
  401c98:	42 00 00 00 00 09 00 00 	addu $9,$0,$0
  401ca0:	a2 00 00 00 00 10 08 00 	lui $8,4096
  401ca8:	43 00 00 00 60 16 08 08 	addiu $8,$8,5728
  401cb0:	a2 00 00 00 e5 10 0a 00 	lui $10,4325
  401cb8:	43 00 00 00 f0 bd 0a 0a 	addiu $10,$10,-16912
  401cc0:	34 00 00 00 24 00 1f 1d 	sw $31,36($29)
  401cc8:	34 00 00 00 18 00 12 1d 	sw $18,24($29)
  401cd0:	34 00 00 00 14 00 11 1d 	sw $17,20($29)
  401cd8:	34 00 00 00 10 00 10 1d 	sw $16,16($29)
  401ce0:	42 00 00 00 00 07 00 00 	addu $7,$0,$0
  401ce8:	42 00 00 00 00 06 00 00 	addu $6,$0,$0
  401cf0:	42 00 00 00 00 03 08 00 	addu $3,$0,$8
  401cf8:	28 00 00 00 00 00 02 03 	lw $2,0($3)
  401d00:	43 00 00 00 01 00 06 06 	addiu $6,$6,1
  401d08:	42 00 00 00 00 07 02 07 	addu $7,$7,$2
  401d10:	43 00 00 00 04 00 03 03 	addiu $3,$3,4
  401d18:	5c 00 00 00 80 00 02 06 	slti $2,$6,128
  401d20:	06 00 00 00 f4 ff 00 02 	bne $2,$0,401cf8 <fill_text_buffer+0x88>
  401d28:	08 00 00 00 02 00 00 07 	bgtz $7,401d38 <fill_text_buffer+0xc8>
  401d30:	43 00 00 00 01 00 07 00 	addiu $7,$0,1
  401d38:	42 00 00 00 00 06 00 00 	addu $6,$0,$0
  401d40:	a5 00 00 00 00 00 07 02 	mtc1 $7,$f2
  401d48:	83 00 00 00 00 02 00 02 	cvt.d.w $f2,$f2
  401d50:	42 00 00 00 00 07 0a 00 	addu $7,$0,$10
  401d58:	42 00 00 00 00 03 08 00 	addu $3,$0,$8
  401d60:	2a 00 00 00 00 00 00 03 	l.s $f0,0($3)
  401d68:	83 00 00 00 00 00 00 00 	cvt.d.w $f0,$f0
  401d70:	77 00 00 00 00 00 02 00 	div.d $f0,$f0,$f2
  401d78:	43 00 00 00 04 00 03 03 	addiu $3,$3,4
  401d80:	43 00 00 00 01 00 06 06 	addiu $6,$6,1
  401d88:	5c 00 00 00 80 00 02 06 	slti $2,$6,128
  401d90:	37 00 00 00 00 00 00 07 	s.d $f0,0($7)
  401d98:	43 00 00 00 08 00 07 07 	addiu $7,$7,8
  401da0:	06 00 00 00 ee ff 00 02 	bne $2,$0,401d60 <fill_text_buffer+0xf0>
  401da8:	43 00 00 00 00 02 08 08 	addiu $8,$8,512
  401db0:	43 00 00 00 00 04 0a 0a 	addiu $10,$10,1024
  401db8:	43 00 00 00 01 00 09 09 	addiu $9,$9,1
  401dc0:	5c 00 00 00 80 00 02 09 	slti $2,$9,128
  401dc8:	06 00 00 00 c4 ff 00 02 	bne $2,$0,401ce0 <fill_text_buffer+0x70>
  401dd0:	42 00 00 00 00 09 00 00 	addu $9,$0,$0
  401dd8:	a2 00 00 00 e5 10 07 00 	lui $7,4325
  401de0:	43 00 00 00 f0 bd 07 07 	addiu $7,$7,-16912
  401de8:	43 00 00 00 01 00 06 00 	addiu $6,$0,1
  401df0:	43 00 00 00 08 00 03 07 	addiu $3,$7,8
  401df8:	2b 00 00 00 00 00 00 03 	l.d $f0,0($3)
  401e00:	2b 00 00 00 f8 ff 02 03 	l.d $f2,-8($3)
  401e08:	71 00 00 00 00 00 02 00 	add.d $f0,$f0,$f2
  401e10:	43 00 00 00 01 00 06 06 	addiu $6,$6,1
  401e18:	5c 00 00 00 80 00 02 06 	slti $2,$6,128
  401e20:	37 00 00 00 00 00 00 03 	s.d $f0,0($3)
  401e28:	43 00 00 00 08 00 03 03 	addiu $3,$3,8
  401e30:	06 00 00 00 f0 ff 00 02 	bne $2,$0,401df8 <fill_text_buffer+0x188>
  401e38:	43 00 00 00 00 04 07 07 	addiu $7,$7,1024
  401e40:	43 00 00 00 01 00 09 09 	addiu $9,$9,1
  401e48:	5c 00 00 00 80 00 02 09 	slti $2,$9,128
  401e50:	06 00 00 00 e4 ff 00 02 	bne $2,$0,401de8 <fill_text_buffer+0x178>
  401e58:	42 00 00 00 00 11 05 00 	addu $17,$0,$5
  401e60:	43 00 00 00 ff ff 13 13 	addiu $19,$19,-1
  401e68:	42 00 00 00 00 12 00 00 	addu $18,$0,$0
  401e70:	07 00 00 00 1a 00 00 13 	blez $19,401ee0 <fill_text_buffer+0x270>
  401e78:	42 00 00 00 00 10 14 00 	addu $16,$0,$20
  401e80:	43 00 00 00 01 00 12 12 	addiu $18,$18,1
  401e88:	43 00 00 00 ff ff 13 13 	addiu $19,$19,-1
  401e90:	02 00 00 00 3a 08 10 00 	jal 4020e8 <ran2>
  401e98:	55 00 00 00 18 04 11 00 	sll $4,$17,0x18
  401ea0:	a7 00 00 00 00 00 06 00 	dmfc1 $6,$f0
  401ea8:	59 00 00 00 18 04 04 00 	sra $4,$4,0x18
  401eb0:	02 00 00 00 f2 07 10 00 	jal 401fc8 <getranchar>
  401eb8:	42 00 00 00 00 05 02 00 	addu $5,$0,$2
  401ec0:	30 00 00 00 00 00 05 10 	sb $5,0($16)
  401ec8:	43 00 00 00 01 00 10 10 	addiu $16,$16,1
  401ed0:	42 00 00 00 00 11 05 00 	addu $17,$0,$5
  401ed8:	08 00 00 00 e8 ff 00 13 	bgtz $19,401e80 <fill_text_buffer+0x210>
  401ee0:	43 00 00 00 0a 00 05 00 	addiu $5,$0,10
  401ee8:	42 00 00 00 00 02 12 14 	addu $2,$20,$18
  401ef0:	30 00 00 00 00 00 05 02 	sb $5,0($2)
  401ef8:	28 00 00 00 24 00 1f 1d 	lw $31,36($29)
  401f00:	28 00 00 00 20 00 14 1d 	lw $20,32($29)
  401f08:	28 00 00 00 1c 00 13 1d 	lw $19,28($29)
  401f10:	28 00 00 00 18 00 12 1d 	lw $18,24($29)
  401f18:	28 00 00 00 14 00 11 1d 	lw $17,20($29)
  401f20:	28 00 00 00 10 00 10 1d 	lw $16,16($29)
  401f28:	43 00 00 00 28 00 1d 1d 	addiu $29,$29,40
  401f30:	03 00 00 00 00 00 00 1f 	jr $31

00401f38 <print_buffer>:
  401f38:	43 00 00 00 e0 ff 1d 1d 	addiu $29,$29,-32
  401f40:	34 00 00 00 18 00 1f 1d 	sw $31,24($29)
  401f48:	34 00 00 00 14 00 11 1d 	sw $17,20($29)
  401f50:	34 00 00 00 10 00 10 1d 	sw $16,16($29)
  401f58:	07 00 00 00 10 00 00 04 	blez $4,401fa0 <print_buffer+0x68>
  401f60:	42 00 00 00 00 10 05 00 	addu $16,$0,$5
  401f68:	42 00 00 00 00 11 10 04 	addu $17,$4,$16
  401f70:	20 00 00 00 00 00 05 10 	lb $5,0($16)
  401f78:	43 00 00 00 50 80 04 1c 	addiu $4,$28,-32688
  401f80:	02 00 00 00 54 12 10 00 	jal 404950 <printf>
  401f88:	43 00 00 00 01 00 10 10 	addiu $16,$16,1
  401f90:	5b 00 00 00 00 02 11 10 	slt $2,$16,$17
  401f98:	06 00 00 00 f4 ff 00 02 	bne $2,$0,401f70 <print_buffer+0x38>
  401fa0:	28 00 00 00 18 00 1f 1d 	lw $31,24($29)
  401fa8:	28 00 00 00 14 00 11 1d 	lw $17,20($29)
  401fb0:	28 00 00 00 10 00 10 1d 	lw $16,16($29)
  401fb8:	43 00 00 00 20 00 1d 1d 	addiu $29,$29,32
  401fc0:	03 00 00 00 00 00 00 1f 	jr $31

00401fc8 <getranchar>:
  401fc8:	55 00 00 00 18 04 04 00 	sll $4,$4,0x18
  401fd0:	59 00 00 00 0e 04 04 00 	sra $4,$4,0xe
  401fd8:	a2 00 00 00 e5 10 01 00 	lui $1,4325
  401fe0:	42 00 00 00 00 01 01 04 	addu $1,$4,$1
  401fe8:	2b 00 00 00 e8 c1 00 01 	l.d $f0,-15896($1)
  401ff0:	a8 00 00 00 00 00 06 02 	dmtc1 $6,$f2
  401ff8:	42 00 00 00 00 06 00 00 	addu $6,$0,$0
  402000:	93 00 00 00 00 00 02 00 	c.lt.d $f0,$f2
  402008:	43 00 00 00 7f 00 07 00 	addiu $7,$0,127
  402010:	0b 00 00 00 08 00 00 00 	bc1f 402038 <getranchar+0x70>
  402018:	43 00 00 00 65 00 02 00 	addiu $2,$0,101
  402020:	01 00 00 00 38 08 10 00 	j 4020e0 <getranchar+0x118>
  402028:	55 00 00 00 18 02 03 00 	sll $2,$3,0x18
  402030:	01 00 00 00 36 08 10 00 	j 4020d8 <getranchar+0x110>
  402038:	42 00 00 00 00 05 00 00 	addu $5,$0,$0
  402040:	a2 00 00 00 e5 10 02 00 	lui $2,4325
  402048:	43 00 00 00 f0 bd 02 02 	addiu $2,$2,-16912
  402050:	42 00 00 00 00 04 02 04 	addu $4,$4,$2
  402058:	42 00 00 00 00 02 07 06 	addu $2,$6,$7
  402060:	59 00 00 00 01 03 02 00 	sra $3,$2,0x1
  402068:	55 00 00 00 03 02 03 00 	sll $2,$3,0x3
  402070:	42 00 00 00 00 02 04 02 	addu $2,$2,$4
  402078:	2b 00 00 00 00 00 00 02 	l.d $f0,0($2)
  402080:	93 00 00 00 00 00 00 02 	c.lt.d $f2,$f0
  402088:	0b 00 00 00 04 00 00 00 	bc1f 4020a0 <getranchar+0xd8>
  402090:	42 00 00 00 00 07 03 00 	addu $7,$0,$3
  402098:	01 00 00 00 2e 08 10 00 	j 4020b8 <getranchar+0xf0>
  4020a0:	93 00 00 00 00 00 02 00 	c.lt.d $f0,$f2
  4020a8:	0b 00 00 00 de ff 00 00 	bc1f 402028 <getranchar+0x60>
  4020b0:	43 00 00 00 01 00 06 03 	addiu $6,$3,1
  4020b8:	43 00 00 00 01 00 05 05 	addiu $5,$5,1
  4020c0:	5c 00 00 00 07 00 02 05 	slti $2,$5,7
  4020c8:	06 00 00 00 e2 ff 00 02 	bne $2,$0,402058 <getranchar+0x90>
  4020d0:	55 00 00 00 18 02 06 00 	sll $2,$6,0x18
  4020d8:	59 00 00 00 18 02 02 00 	sra $2,$2,0x18
  4020e0:	03 00 00 00 00 00 00 1f 	jr $31

004020e8 <ran2>:
  4020e8:	28 00 00 00 90 84 04 1c 	lw $4,-31600($28)
  4020f0:	a2 00 00 00 ff 00 05 00 	lui $5,255
  4020f8:	51 00 00 00 ff ff 05 05 	ori $5,$5,65535
  402100:	2b 00 00 00 58 80 02 1c 	l.d $f2,-32680($28)
  402108:	55 00 00 00 01 02 04 00 	sll $2,$4,0x1
  402110:	42 00 00 00 00 02 04 02 	addu $2,$2,$4
  402118:	55 00 00 00 07 02 02 00 	sll $2,$2,0x7
  402120:	42 00 00 00 00 02 04 02 	addu $2,$2,$4
  402128:	55 00 00 00 04 03 02 00 	sll $3,$2,0x4
  402130:	42 00 00 00 00 02 03 02 	addu $2,$2,$3
  402138:	55 00 00 00 04 02 02 00 	sll $2,$2,0x4
  402140:	45 00 00 00 00 02 04 02 	subu $2,$2,$4
  402148:	55 00 00 00 02 03 02 00 	sll $3,$2,0x2
  402150:	45 00 00 00 00 03 02 03 	subu $3,$3,$2
  402158:	43 00 00 00 13 00 03 03 	addiu $3,$3,19
  402160:	4e 00 00 00 00 03 05 03 	and $3,$3,$5
  402168:	34 00 00 00 90 84 03 1c 	sw $3,-31600($28)
  402170:	2a 00 00 00 90 84 00 1c 	l.s $f0,-31600($28)
  402178:	83 00 00 00 00 00 00 00 	cvt.d.w $f0,$f0
  402180:	77 00 00 00 00 00 02 00 	div.d $f0,$f0,$f2
  402188:	03 00 00 00 00 00 00 1f 	jr $31

00402190 <ran>:
  402190:	28 00 00 00 90 84 06 1c 	lw $6,-31600($28)
  402198:	a2 00 00 00 4e 83 04 00 	lui $4,33614
  4021a0:	51 00 00 00 5f 0b 04 04 	ori $4,$4,2911
  4021a8:	46 00 00 00 00 00 04 06 	mult $6,$4
  4021b0:	4a 00 00 00 00 05 00 00 	mfhi $5
  4021b8:	4c 00 00 00 00 04 00 00 	mflo $4
  4021c0:	57 00 00 00 00 04 05 00 	srl $4,$5,0x0
  4021c8:	42 00 00 00 00 05 00 00 	addu $5,$0,$0
  4021d0:	42 00 00 00 00 04 04 06 	addu $4,$6,$4
  4021d8:	59 00 00 00 10 04 04 00 	sra $4,$4,0x10
  4021e0:	59 00 00 00 1f 02 06 00 	sra $2,$6,0x1f
  4021e8:	45 00 00 00 00 04 02 04 	subu $4,$4,$2
  4021f0:	55 00 00 00 04 02 04 00 	sll $2,$4,0x4
  4021f8:	45 00 00 00 00 02 04 02 	subu $2,$2,$4
  402200:	55 00 00 00 03 02 02 00 	sll $2,$2,0x3
  402208:	42 00 00 00 00 02 04 02 	addu $2,$2,$4
  402210:	55 00 00 00 05 03 02 00 	sll $3,$2,0x5
  402218:	42 00 00 00 00 02 03 02 	addu $2,$2,$3
  402220:	55 00 00 00 03 02 02 00 	sll $2,$2,0x3
  402228:	45 00 00 00 00 02 04 02 	subu $2,$2,$4
  402230:	55 00 00 00 02 02 02 00 	sll $2,$2,0x2
  402238:	42 00 00 00 00 02 04 02 	addu $2,$2,$4
  402240:	45 00 00 00 00 06 02 06 	subu $6,$6,$2
  402248:	55 00 00 00 02 03 06 00 	sll $3,$6,0x2
  402250:	42 00 00 00 00 03 06 03 	addu $3,$3,$6
  402258:	55 00 00 00 04 02 03 00 	sll $2,$3,0x4
  402260:	45 00 00 00 00 02 03 02 	subu $2,$2,$3
  402268:	55 00 00 00 05 02 02 00 	sll $2,$2,0x5
  402270:	42 00 00 00 00 02 06 02 	addu $2,$2,$6
  402278:	55 00 00 00 03 06 02 00 	sll $6,$2,0x3
  402280:	45 00 00 00 00 06 02 06 	subu $6,$6,$2
  402288:	55 00 00 00 01 02 04 00 	sll $2,$4,0x1
  402290:	42 00 00 00 00 02 04 02 	addu $2,$2,$4
  402298:	55 00 00 00 04 03 02 00 	sll $3,$2,0x4
  4022a0:	45 00 00 00 00 03 02 03 	subu $3,$3,$2
  4022a8:	55 00 00 00 06 02 03 00 	sll $2,$3,0x6
  4022b0:	45 00 00 00 00 02 03 02 	subu $2,$2,$3
  4022b8:	42 00 00 00 00 02 04 02 	addu $2,$2,$4
  4022c0:	45 00 00 00 00 06 02 06 	subu $6,$6,$2
  4022c8:	07 00 00 00 04 00 00 06 	blez $6,4022e0 <ran+0x150>
  4022d0:	34 00 00 00 90 84 06 1c 	sw $6,-31600($28)
  4022d8:	01 00 00 00 c0 08 10 00 	j 402300 <ran+0x170>
  4022e0:	a2 00 00 00 ff 7f 02 00 	lui $2,32767
  4022e8:	51 00 00 00 ff ff 02 02 	ori $2,$2,65535
  4022f0:	42 00 00 00 00 02 02 06 	addu $2,$6,$2
  4022f8:	34 00 00 00 90 84 02 1c 	sw $2,-31600($28)
  402300:	2a 00 00 00 60 80 02 1c 	l.s $f2,-32672($28)
  402308:	2a 00 00 00 90 84 00 1c 	l.s $f0,-31600($28)
  402310:	81 00 00 00 00 00 00 00 	cvt.s.w $f0,$f0
  402318:	76 00 00 00 00 00 02 00 	div.s $f0,$f0,$f2
  402320:	82 00 00 00 00 00 00 00 	cvt.d.s $f0,$f0
  402328:	03 00 00 00 00 00 00 1f 	jr $31

00402330 <compare_buffer>:
  402330:	43 00 00 00 d8 ff 1d 1d 	addiu $29,$29,-40
  402338:	34 00 00 00 14 00 11 1d 	sw $17,20($29)
  402340:	42 00 00 00 00 11 04 00 	addu $17,$0,$4
  402348:	34 00 00 00 1c 00 13 1d 	sw $19,28($29)
  402350:	42 00 00 00 00 13 05 00 	addu $19,$0,$5
  402358:	34 00 00 00 18 00 12 1d 	sw $18,24($29)
  402360:	42 00 00 00 00 12 06 00 	addu $18,$0,$6
  402368:	34 00 00 00 10 00 10 1d 	sw $16,16($29)
  402370:	42 00 00 00 00 10 07 00 	addu $16,$0,$7
  402378:	34 00 00 00 20 00 1f 1d 	sw $31,32($29)
  402380:	06 00 00 00 3e 00 10 13 	bne $19,$16,402480 <compare_buffer+0x150>
  402388:	a2 00 00 00 00 10 04 00 	lui $4,4096
  402390:	43 00 00 00 b0 00 04 04 	addiu $4,$4,176
  402398:	42 00 00 00 00 05 10 00 	addu $5,$0,$16
  4023a0:	02 00 00 00 54 12 10 00 	jal 404950 <printf>
  4023a8:	07 00 00 00 3e 00 00 10 	blez $16,4024a8 <compare_buffer+0x178>
  4023b0:	20 00 00 00 00 00 05 11 	lb $5,0($17)
  4023b8:	20 00 00 00 00 00 02 12 	lb $2,0($18)
  4023c0:	06 00 00 00 10 00 02 05 	bne $5,$2,402408 <compare_buffer+0xd8>
  4023c8:	42 00 00 00 00 02 11 10 	addu $2,$16,$17
  4023d0:	20 00 00 00 ff ff 06 02 	lb $6,-1($2)
  4023d8:	42 00 00 00 00 03 12 10 	addu $3,$16,$18
  4023e0:	20 00 00 00 ff ff 02 03 	lb $2,-1($3)
  4023e8:	06 00 00 00 06 00 02 06 	bne $6,$2,402408 <compare_buffer+0xd8>
  4023f0:	a2 00 00 00 00 10 04 00 	lui $4,4096
  4023f8:	43 00 00 00 cc 00 04 04 	addiu $4,$4,204
  402400:	01 00 00 00 28 09 10 00 	j 4024a0 <compare_buffer+0x170>
  402408:	a2 00 00 00 00 10 04 00 	lui $4,4096
  402410:	43 00 00 00 04 01 04 04 	addiu $4,$4,260
  402418:	02 00 00 00 54 12 10 00 	jal 404950 <printf>
  402420:	20 00 00 00 00 00 05 11 	lb $5,0($17)
  402428:	20 00 00 00 00 00 06 12 	lb $6,0($18)
  402430:	a2 00 00 00 00 10 04 00 	lui $4,4096
  402438:	43 00 00 00 30 01 04 04 	addiu $4,$4,304
  402440:	02 00 00 00 54 12 10 00 	jal 404950 <printf>
  402448:	42 00 00 00 00 02 11 13 	addu $2,$19,$17
  402450:	20 00 00 00 ff ff 05 02 	lb $5,-1($2)
  402458:	42 00 00 00 00 02 12 10 	addu $2,$16,$18
  402460:	20 00 00 00 ff ff 06 02 	lb $6,-1($2)
  402468:	a2 00 00 00 00 10 04 00 	lui $4,4096
  402470:	43 00 00 00 48 01 04 04 	addiu $4,$4,328
  402478:	01 00 00 00 28 09 10 00 	j 4024a0 <compare_buffer+0x170>
  402480:	a2 00 00 00 00 10 04 00 	lui $4,4096
  402488:	43 00 00 00 64 01 04 04 	addiu $4,$4,356
  402490:	42 00 00 00 00 05 13 00 	addu $5,$0,$19
  402498:	42 00 00 00 00 06 10 00 	addu $6,$0,$16
  4024a0:	02 00 00 00 54 12 10 00 	jal 404950 <printf>
  4024a8:	28 00 00 00 20 00 1f 1d 	lw $31,32($29)
  4024b0:	28 00 00 00 1c 00 13 1d 	lw $19,28($29)
  4024b8:	28 00 00 00 18 00 12 1d 	lw $18,24($29)
  4024c0:	28 00 00 00 14 00 11 1d 	lw $17,20($29)
  4024c8:	28 00 00 00 10 00 10 1d 	lw $16,16($29)
  4024d0:	43 00 00 00 28 00 1d 1d 	addiu $29,$29,40
  4024d8:	03 00 00 00 00 00 00 1f 	jr $31

004024e0 <main>:
  4024e0:	43 00 00 00 c0 ff 1d 1d 	addiu $29,$29,-64
  4024e8:	34 00 00 00 38 00 1f 1d 	sw $31,56($29)
  4024f0:	34 00 00 00 34 00 17 1d 	sw $23,52($29)
  4024f8:	34 00 00 00 30 00 16 1d 	sw $22,48($29)
  402500:	34 00 00 00 2c 00 15 1d 	sw $21,44($29)
  402508:	34 00 00 00 28 00 14 1d 	sw $20,40($29)
  402510:	34 00 00 00 24 00 13 1d 	sw $19,36($29)
  402518:	34 00 00 00 20 00 12 1d 	sw $18,32($29)
  402520:	34 00 00 00 1c 00 11 1d 	sw $17,28($29)
  402528:	34 00 00 00 18 00 10 1d 	sw $16,24($29)
  402530:	02 00 00 00 ba 0a 10 00 	jal 402ae8 <__main>
  402538:	a2 00 00 00 00 10 04 00 	lui $4,4096
  402540:	43 00 00 00 94 01 04 04 	addiu $4,$4,404
  402548:	02 00 00 00 54 12 10 00 	jal 404950 <printf>
  402550:	a2 00 00 00 00 10 04 00 	lui $4,4096
  402558:	43 00 00 00 b0 01 04 04 	addiu $4,$4,432
  402560:	43 00 00 00 10 00 05 1d 	addiu $5,$29,16
  402568:	43 00 00 00 14 00 06 1d 	addiu $6,$29,20
  402570:	43 00 00 00 90 84 07 1c 	addiu $7,$28,-31600
  402578:	02 00 00 00 70 12 10 00 	jal 4049c0 <scanf>
  402580:	a2 00 00 00 00 10 04 00 	lui $4,4096
  402588:	43 00 00 00 bc 01 04 04 	addiu $4,$4,444
  402590:	28 00 00 00 10 00 05 1d 	lw $5,16($29)
  402598:	20 00 00 00 14 00 06 1d 	lb $6,20($29)
  4025a0:	28 00 00 00 90 84 07 1c 	lw $7,-31600($28)
  4025a8:	43 00 00 00 01 00 12 00 	addiu $18,$0,1
  4025b0:	a2 00 00 00 07 10 02 00 	lui $2,4103
  4025b8:	43 00 00 00 50 7d 02 02 	addiu $2,$2,32080
  4025c0:	42 00 00 00 00 15 02 00 	addu $21,$0,$2
  4025c8:	a2 00 00 00 c4 11 17 00 	lui $23,4548
  4025d0:	43 00 00 00 90 fe 17 17 	addiu $23,$23,-368
  4025d8:	02 00 00 00 54 12 10 00 	jal 404950 <printf>
  4025e0:	28 00 00 00 10 00 04 1d 	lw $4,16($29)
  4025e8:	20 00 00 00 14 00 05 1d 	lb $5,20($29)
  4025f0:	a2 00 00 00 e7 10 16 00 	lui $22,4327
  4025f8:	43 00 00 00 f0 bd 16 16 	addiu $22,$22,-16912
  402600:	42 00 00 00 00 06 15 00 	addu $6,$0,$21
  402608:	02 00 00 00 1c 07 10 00 	jal 401c70 <fill_text_buffer>
  402610:	28 00 00 00 10 00 03 1d 	lw $3,16($29)
  402618:	22 00 00 00 14 00 06 1d 	lbu $6,20($29)
  402620:	42 00 00 00 00 04 03 00 	addu $4,$0,$3
  402628:	42 00 00 00 00 05 12 03 	addu $5,$3,$18
  402630:	5b 00 00 00 00 02 05 03 	slt $2,$3,$5
  402638:	05 00 00 00 0c 00 00 02 	beq $2,$0,402670 <main+0x190>
  402640:	42 00 00 00 00 03 15 03 	addu $3,$3,$21
  402648:	30 00 00 00 00 00 06 03 	sb $6,0($3)
  402650:	43 00 00 00 01 00 03 03 	addiu $3,$3,1
  402658:	43 00 00 00 01 00 04 04 	addiu $4,$4,1
  402660:	5b 00 00 00 00 02 05 04 	slt $2,$4,$5
  402668:	06 00 00 00 f6 ff 00 02 	bne $2,$0,402648 <main+0x168>
  402670:	42 00 00 00 00 03 04 00 	addu $3,$0,$4
  402678:	43 00 00 00 01 00 10 03 	addiu $16,$3,1
  402680:	a2 00 00 00 00 10 04 00 	lui $4,4096
  402688:	43 00 00 00 e8 01 04 04 	addiu $4,$4,488
  402690:	42 00 00 00 00 05 10 00 	addu $5,$0,$16
  402698:	42 00 00 00 00 02 03 15 	addu $2,$21,$3
  4026a0:	43 00 00 00 0a 00 03 00 	addiu $3,$0,10
  4026a8:	30 00 00 00 00 00 03 02 	sb $3,0($2)
  4026b0:	34 00 00 00 10 00 05 1d 	sw $5,16($29)
  4026b8:	02 00 00 00 54 12 10 00 	jal 404950 <printf>
  4026c0:	42 00 00 00 00 04 15 00 	addu $4,$0,$21
  4026c8:	28 00 00 00 10 00 05 1d 	lw $5,16($29)
  4026d0:	42 00 00 00 00 06 00 00 	addu $6,$0,$0
  4026d8:	42 00 00 00 00 07 17 00 	addu $7,$0,$23
  4026e0:	02 00 00 00 7c 00 10 00 	jal 4001f0 <spec_select_action>
  4026e8:	a2 00 00 00 00 10 04 00 	lui $4,4096
  4026f0:	43 00 00 00 04 02 04 04 	addiu $4,$4,516
  4026f8:	42 00 00 00 00 10 02 00 	addu $16,$0,$2
  402700:	42 00 00 00 00 05 10 00 	addu $5,$0,$16
  402708:	02 00 00 00 54 12 10 00 	jal 404950 <printf>
  402710:	42 00 00 00 00 04 17 00 	addu $4,$0,$23
  402718:	42 00 00 00 00 05 10 00 	addu $5,$0,$16
  402720:	43 00 00 00 01 00 06 00 	addiu $6,$0,1
  402728:	42 00 00 00 00 07 16 00 	addu $7,$0,$22
  402730:	02 00 00 00 7c 00 10 00 	jal 4001f0 <spec_select_action>
  402738:	42 00 00 00 00 10 02 00 	addu $16,$0,$2
  402740:	a2 00 00 00 00 10 04 00 	lui $4,4096
  402748:	43 00 00 00 20 02 04 04 	addiu $4,$4,544
  402750:	42 00 00 00 00 05 10 00 	addu $5,$0,$16
  402758:	02 00 00 00 54 12 10 00 	jal 404950 <printf>
  402760:	28 00 00 00 10 00 11 1d 	lw $17,16($29)
  402768:	42 00 00 00 00 13 15 00 	addu $19,$0,$21
  402770:	42 00 00 00 00 14 16 00 	addu $20,$0,$22
  402778:	06 00 00 00 46 00 10 11 	bne $17,$16,402898 <main+0x3b8>
  402780:	a2 00 00 00 00 10 04 00 	lui $4,4096
  402788:	43 00 00 00 b0 00 04 04 	addiu $4,$4,176
  402790:	42 00 00 00 00 05 10 00 	addu $5,$0,$16
  402798:	02 00 00 00 54 12 10 00 	jal 404950 <printf>
  4027a0:	07 00 00 00 46 00 00 10 	blez $16,4028c0 <main+0x3e0>
  4027a8:	a2 00 00 00 07 10 05 00 	lui $5,4103
  4027b0:	20 00 00 00 50 7d 05 05 	lb $5,32080($5)
  4027b8:	a2 00 00 00 e7 10 02 00 	lui $2,4327
  4027c0:	20 00 00 00 f0 bd 02 02 	lb $2,-16912($2)
  4027c8:	06 00 00 00 10 00 02 05 	bne $5,$2,402810 <main+0x330>
  4027d0:	42 00 00 00 00 02 13 10 	addu $2,$16,$19
  4027d8:	20 00 00 00 ff ff 06 02 	lb $6,-1($2)
  4027e0:	42 00 00 00 00 03 14 10 	addu $3,$16,$20
  4027e8:	20 00 00 00 ff ff 02 03 	lb $2,-1($3)
  4027f0:	06 00 00 00 06 00 02 06 	bne $6,$2,402810 <main+0x330>
  4027f8:	a2 00 00 00 00 10 04 00 	lui $4,4096
  402800:	43 00 00 00 cc 00 04 04 	addiu $4,$4,204
  402808:	01 00 00 00 2e 0a 10 00 	j 4028b8 <main+0x3d8>
  402810:	a2 00 00 00 00 10 04 00 	lui $4,4096
  402818:	43 00 00 00 04 01 04 04 	addiu $4,$4,260
  402820:	02 00 00 00 54 12 10 00 	jal 404950 <printf>
  402828:	a2 00 00 00 07 10 05 00 	lui $5,4103
  402830:	20 00 00 00 50 7d 05 05 	lb $5,32080($5)
  402838:	a2 00 00 00 e7 10 06 00 	lui $6,4327
  402840:	20 00 00 00 f0 bd 06 06 	lb $6,-16912($6)
  402848:	a2 00 00 00 00 10 04 00 	lui $4,4096
  402850:	43 00 00 00 30 01 04 04 	addiu $4,$4,304
  402858:	02 00 00 00 54 12 10 00 	jal 404950 <printf>
  402860:	42 00 00 00 00 02 13 11 	addu $2,$17,$19
  402868:	20 00 00 00 ff ff 05 02 	lb $5,-1($2)
  402870:	42 00 00 00 00 02 14 10 	addu $2,$16,$20
  402878:	20 00 00 00 ff ff 06 02 	lb $6,-1($2)
  402880:	a2 00 00 00 00 10 04 00 	lui $4,4096
  402888:	43 00 00 00 48 01 04 04 	addiu $4,$4,328
  402890:	01 00 00 00 2e 0a 10 00 	j 4028b8 <main+0x3d8>
  402898:	a2 00 00 00 00 10 04 00 	lui $4,4096
  4028a0:	43 00 00 00 64 01 04 04 	addiu $4,$4,356
  4028a8:	42 00 00 00 00 05 11 00 	addu $5,$0,$17
  4028b0:	42 00 00 00 00 06 10 00 	addu $6,$0,$16
  4028b8:	02 00 00 00 54 12 10 00 	jal 404950 <printf>
  4028c0:	43 00 00 00 01 00 12 12 	addiu $18,$18,1
  4028c8:	5c 00 00 00 1a 00 02 12 	slti $2,$18,26
  4028d0:	06 00 00 00 4e ff 00 02 	bne $2,$0,402610 <main+0x130>
  4028d8:	42 00 00 00 00 02 00 00 	addu $2,$0,$0
  4028e0:	28 00 00 00 38 00 1f 1d 	lw $31,56($29)
  4028e8:	28 00 00 00 34 00 17 1d 	lw $23,52($29)
  4028f0:	28 00 00 00 30 00 16 1d 	lw $22,48($29)
  4028f8:	28 00 00 00 2c 00 15 1d 	lw $21,44($29)
  402900:	28 00 00 00 28 00 14 1d 	lw $20,40($29)
  402908:	28 00 00 00 24 00 13 1d 	lw $19,36($29)
  402910:	28 00 00 00 20 00 12 1d 	lw $18,32($29)
  402918:	28 00 00 00 1c 00 11 1d 	lw $17,28($29)
  402920:	28 00 00 00 18 00 10 1d 	lw $16,24($29)
  402928:	43 00 00 00 40 00 1d 1d 	addiu $29,$29,64
  402930:	03 00 00 00 00 00 00 1f 	jr $31
	...

00402940 <__do_global_dtors>:
  402940:	43 00 00 00 e8 ff 1d 1d 	addiu $29,$29,-24
  402948:	34 00 00 00 10 00 10 1d 	sw $16,16($29)
  402950:	a2 00 00 00 01 10 10 00 	lui $16,4097
  402958:	43 00 00 00 0c 27 10 10 	addiu $16,$16,9996
  402960:	34 00 00 00 14 00 1f 1d 	sw $31,20($29)
  402968:	28 00 00 00 00 00 02 10 	lw $2,0($16)
  402970:	05 00 00 00 0a 00 00 02 	beq $2,$0,4029a0 <__do_global_dtors+0x60>
  402978:	28 00 00 00 00 00 02 10 	lw $2,0($16)
  402980:	43 00 00 00 04 00 10 10 	addiu $16,$16,4
  402988:	04 00 00 00 00 1f 00 02 	jalr $31,$2
  402990:	28 00 00 00 00 00 02 10 	lw $2,0($16)
  402998:	06 00 00 00 f6 ff 00 02 	bne $2,$0,402978 <__do_global_dtors+0x38>
  4029a0:	28 00 00 00 14 00 1f 1d 	lw $31,20($29)
  4029a8:	28 00 00 00 10 00 10 1d 	lw $16,16($29)
  4029b0:	43 00 00 00 18 00 1d 1d 	addiu $29,$29,24
  4029b8:	03 00 00 00 00 00 00 1f 	jr $31

004029c0 <__do_global_ctors>:
  4029c0:	43 00 00 00 e0 ff 1d 1d 	addiu $29,$29,-32
  4029c8:	34 00 00 00 18 00 1f 1d 	sw $31,24($29)
  4029d0:	34 00 00 00 14 00 11 1d 	sw $17,20($29)
  4029d8:	34 00 00 00 10 00 10 1d 	sw $16,16($29)
  4029e0:	a2 00 00 00 01 10 03 00 	lui $3,4097
  4029e8:	43 00 00 00 00 27 03 03 	addiu $3,$3,9984
  4029f0:	28 00 00 00 00 00 04 03 	lw $4,0($3)
  4029f8:	43 00 00 00 ff ff 02 00 	addiu $2,$0,-1
  402a00:	06 00 00 00 12 00 02 04 	bne $4,$2,402a50 <__do_global_ctors+0x90>
  402a08:	a2 00 00 00 01 10 02 00 	lui $2,4097
  402a10:	28 00 00 00 04 27 02 02 	lw $2,9988($2)
  402a18:	42 00 00 00 00 04 00 00 	addu $4,$0,$0
  402a20:	05 00 00 00 0a 00 00 02 	beq $2,$0,402a50 <__do_global_ctors+0x90>
  402a28:	43 00 00 00 04 00 03 03 	addiu $3,$3,4
  402a30:	43 00 00 00 04 00 03 03 	addiu $3,$3,4
  402a38:	28 00 00 00 00 00 02 03 	lw $2,0($3)
  402a40:	43 00 00 00 01 00 04 04 	addiu $4,$4,1
  402a48:	06 00 00 00 f8 ff 00 02 	bne $2,$0,402a30 <__do_global_ctors+0x70>
  402a50:	42 00 00 00 00 11 04 00 	addu $17,$0,$4
  402a58:	05 00 00 00 12 00 00 11 	beq $17,$0,402aa8 <__do_global_ctors+0xe8>
  402a60:	a2 00 00 00 01 10 03 00 	lui $3,4097
  402a68:	43 00 00 00 00 27 03 03 	addiu $3,$3,9984
  402a70:	55 00 00 00 02 02 11 00 	sll $2,$17,0x2
  402a78:	42 00 00 00 00 10 03 02 	addu $16,$2,$3
  402a80:	28 00 00 00 00 00 02 10 	lw $2,0($16)
  402a88:	43 00 00 00 ff ff 11 11 	addiu $17,$17,-1
  402a90:	04 00 00 00 00 1f 00 02 	jalr $31,$2
  402a98:	43 00 00 00 fc ff 10 10 	addiu $16,$16,-4
  402aa0:	06 00 00 00 f6 ff 00 11 	bne $17,$0,402a80 <__do_global_ctors+0xc0>
  402aa8:	a2 00 00 00 40 00 04 00 	lui $4,64
  402ab0:	43 00 00 00 40 29 04 04 	addiu $4,$4,10560
  402ab8:	02 00 00 00 8c 12 10 00 	jal 404a30 <atexit>
  402ac0:	28 00 00 00 18 00 1f 1d 	lw $31,24($29)
  402ac8:	28 00 00 00 14 00 11 1d 	lw $17,20($29)
  402ad0:	28 00 00 00 10 00 10 1d 	lw $16,16($29)
  402ad8:	43 00 00 00 20 00 1d 1d 	addiu $29,$29,32
  402ae0:	03 00 00 00 00 00 00 1f 	jr $31

00402ae8 <__main>:
  402ae8:	28 00 00 00 74 80 02 1c 	lw $2,-32652($28)
  402af0:	43 00 00 00 e8 ff 1d 1d 	addiu $29,$29,-24
  402af8:	34 00 00 00 10 00 1f 1d 	sw $31,16($29)
  402b00:	06 00 00 00 06 00 00 02 	bne $2,$0,402b20 <__main+0x38>
  402b08:	43 00 00 00 01 00 02 00 	addiu $2,$0,1
  402b10:	34 00 00 00 74 80 02 1c 	sw $2,-32652($28)
  402b18:	02 00 00 00 70 0a 10 00 	jal 4029c0 <__do_global_ctors>
  402b20:	28 00 00 00 10 00 1f 1d 	lw $31,16($29)
  402b28:	43 00 00 00 18 00 1d 1d 	addiu $29,$29,24
  402b30:	03 00 00 00 00 00 00 1f 	jr $31
	...

00402b40 <__libc_init>:
  402b40:	43 00 00 00 e8 ff 1d 1d 	addiu $29,$29,-24
  402b48:	34 00 00 00 10 00 1f 1d 	sw $31,16($29)
  402b50:	02 00 00 00 10 13 10 00 	jal 404c40 <__init_misc>
  402b58:	28 00 00 00 10 00 1f 1d 	lw $31,16($29)
  402b60:	43 00 00 00 18 00 1d 1d 	addiu $29,$29,24
  402b68:	03 00 00 00 00 00 00 1f 	jr $31

00402b70 <exit>:
  402b70:	43 00 00 00 d0 ff 1d 1d 	addiu $29,$29,-48
  402b78:	34 00 00 00 18 00 12 1d 	sw $18,24($29)
  402b80:	28 00 00 00 b0 80 12 1c 	lw $18,-32592($28)
  402b88:	34 00 00 00 1c 00 13 1d 	sw $19,28($29)
  402b90:	42 00 00 00 00 13 04 00 	addu $19,$0,$4
  402b98:	34 00 00 00 28 00 1f 1d 	sw $31,40($29)
  402ba0:	34 00 00 00 24 00 15 1d 	sw $21,36($29)
  402ba8:	34 00 00 00 20 00 14 1d 	sw $20,32($29)
  402bb0:	34 00 00 00 14 00 11 1d 	sw $17,20($29)
  402bb8:	34 00 00 00 10 00 10 1d 	sw $16,16($29)
  402bc0:	05 00 00 00 3a 00 00 12 	beq $18,$0,402cb0 <exit+0x140>
  402bc8:	43 00 00 00 01 00 15 00 	addiu $21,$0,1
  402bd0:	43 00 00 00 02 00 14 00 	addiu $20,$0,2
  402bd8:	28 00 00 00 04 00 10 12 	lw $16,4($18)
  402be0:	42 00 00 00 00 02 10 00 	addu $2,$0,$16
  402be8:	43 00 00 00 ff ff 10 10 	addiu $16,$16,-1
  402bf0:	05 00 00 00 2a 00 00 02 	beq $2,$0,402ca0 <exit+0x130>
  402bf8:	55 00 00 00 01 02 10 00 	sll $2,$16,0x1
  402c00:	42 00 00 00 00 02 10 02 	addu $2,$2,$16
  402c08:	55 00 00 00 02 02 02 00 	sll $2,$2,0x2
  402c10:	43 00 00 00 08 00 11 02 	addiu $17,$2,8
  402c18:	42 00 00 00 00 03 11 12 	addu $3,$18,$17
  402c20:	28 00 00 00 00 00 02 03 	lw $2,0($3)
  402c28:	05 00 00 00 06 00 15 02 	beq $2,$21,402c48 <exit+0xd8>
  402c30:	05 00 00 00 12 00 00 02 	beq $2,$0,402c80 <exit+0x110>
  402c38:	05 00 00 00 0c 00 14 02 	beq $2,$20,402c70 <exit+0x100>
  402c40:	01 00 00 00 20 0b 10 00 	j 402c80 <exit+0x110>
  402c48:	28 00 00 00 04 00 02 03 	lw $2,4($3)
  402c50:	28 00 00 00 08 00 05 03 	lw $5,8($3)
  402c58:	42 00 00 00 00 04 13 00 	addu $4,$0,$19
  402c60:	04 00 00 00 00 1f 00 02 	jalr $31,$2
  402c68:	01 00 00 00 20 0b 10 00 	j 402c80 <exit+0x110>
  402c70:	28 00 00 00 04 00 02 03 	lw $2,4($3)
  402c78:	04 00 00 00 00 1f 00 02 	jalr $31,$2
  402c80:	43 00 00 00 f4 ff 11 11 	addiu $17,$17,-12
  402c88:	42 00 00 00 00 02 10 00 	addu $2,$0,$16
  402c90:	43 00 00 00 ff ff 10 10 	addiu $16,$16,-1
  402c98:	06 00 00 00 de ff 00 02 	bne $2,$0,402c18 <exit+0xa8>
  402ca0:	28 00 00 00 00 00 12 12 	lw $18,0($18)
  402ca8:	06 00 00 00 ca ff 00 12 	bne $18,$0,402bd8 <exit+0x68>
  402cb0:	02 00 00 00 44 0b 10 00 	jal 402d10 <_cleanup>
  402cb8:	42 00 00 00 00 04 13 00 	addu $4,$0,$19
  402cc0:	02 00 00 00 38 13 10 00 	jal 404ce0 <_exit>
  402cc8:	28 00 00 00 28 00 1f 1d 	lw $31,40($29)
  402cd0:	28 00 00 00 24 00 15 1d 	lw $21,36($29)
  402cd8:	28 00 00 00 20 00 14 1d 	lw $20,32($29)
  402ce0:	28 00 00 00 1c 00 13 1d 	lw $19,28($29)
  402ce8:	28 00 00 00 18 00 12 1d 	lw $18,24($29)
  402cf0:	28 00 00 00 14 00 11 1d 	lw $17,20($29)
  402cf8:	28 00 00 00 10 00 10 1d 	lw $16,16($29)
  402d00:	43 00 00 00 30 00 1d 1d 	addiu $29,$29,48
  402d08:	03 00 00 00 00 00 00 1f 	jr $31

00402d10 <_cleanup>:
  402d10:	43 00 00 00 e8 ff 1d 1d 	addiu $29,$29,-24
  402d18:	34 00 00 00 10 00 1f 1d 	sw $31,16($29)
  402d20:	42 00 00 00 00 04 00 00 	addu $4,$0,$0
  402d28:	02 00 00 00 40 13 10 00 	jal 404d00 <fclose>
  402d30:	28 00 00 00 10 00 1f 1d 	lw $31,16($29)
  402d38:	43 00 00 00 18 00 1d 1d 	addiu $29,$29,24
  402d40:	03 00 00 00 00 00 00 1f 	jr $31
	...

00402d50 <fprintf>:
  402d50:	34 00 00 00 04 00 05 1d 	sw $5,4($29)
  402d58:	34 00 00 00 08 00 06 1d 	sw $6,8($29)
  402d60:	34 00 00 00 0c 00 07 1d 	sw $7,12($29)
  402d68:	43 00 00 00 e8 ff 1d 1d 	addiu $29,$29,-24
  402d70:	43 00 00 00 20 00 06 1d 	addiu $6,$29,32
  402d78:	34 00 00 00 10 00 1f 1d 	sw $31,16($29)
  402d80:	02 00 00 00 e0 13 10 00 	jal 404f80 <vfprintf>
  402d88:	28 00 00 00 10 00 1f 1d 	lw $31,16($29)
  402d90:	43 00 00 00 18 00 1d 1d 	addiu $29,$29,24
  402d98:	03 00 00 00 00 00 00 1f 	jr $31

00402da0 <unlink>:
  402da0:	43 00 00 00 e8 ff 1d 1d 	addiu $29,$29,-24
  402da8:	34 00 00 00 10 00 1f 1d 	sw $31,16($29)
  402db0:	02 00 00 00 40 1f 10 00 	jal 407d00 <__unlink>
  402db8:	28 00 00 00 10 00 1f 1d 	lw $31,16($29)
  402dc0:	43 00 00 00 18 00 1d 1d 	addiu $29,$29,24
  402dc8:	03 00 00 00 00 00 00 1f 	jr $31

00402dd0 <__stdio_check_funcs>:
  402dd0:	43 00 00 00 e8 ff 1d 1d 	addiu $29,$29,-24
  402dd8:	34 00 00 00 10 00 10 1d 	sw $16,16($29)
  402de0:	42 00 00 00 00 10 04 00 	addu $16,$0,$4
  402de8:	34 00 00 00 14 00 1f 1d 	sw $31,20($29)
  402df0:	28 00 00 00 4c 00 02 10 	lw $2,76($16)
  402df8:	4f 00 00 00 00 40 02 02 	andi $2,$2,16384
  402e00:	06 00 00 00 2c 00 00 02 	bne $2,$0,402eb8 <__stdio_check_funcs+0xe8>
  402e08:	28 00 00 00 a0 80 02 1c 	lw $2,-32608($28)
  402e10:	a2 00 00 00 01 10 03 00 	lui $3,4097
  402e18:	28 00 00 00 04 23 03 03 	lw $3,8964($3)
  402e20:	34 00 00 00 34 00 02 10 	sw $2,52($16)
  402e28:	34 00 00 00 38 00 03 10 	sw $3,56($16)
  402e30:	a2 00 00 00 00 10 05 00 	lui $5,4096
  402e38:	43 00 00 00 50 02 05 05 	addiu $5,$5,592
  402e40:	28 00 00 00 00 00 02 05 	lw $2,0($5)
  402e48:	28 00 00 00 04 00 03 05 	lw $3,4($5)
  402e50:	28 00 00 00 08 00 04 05 	lw $4,8($5)
  402e58:	34 00 00 00 20 00 02 10 	sw $2,32($16)
  402e60:	34 00 00 00 24 00 03 10 	sw $3,36($16)
  402e68:	34 00 00 00 28 00 04 10 	sw $4,40($16)
  402e70:	28 00 00 00 0c 00 02 05 	lw $2,12($5)
  402e78:	28 00 00 00 10 00 03 05 	lw $3,16($5)
  402e80:	34 00 00 00 2c 00 02 10 	sw $2,44($16)
  402e88:	34 00 00 00 30 00 03 10 	sw $3,48($16)
  402e90:	42 00 00 00 00 04 10 00 	addu $4,$0,$16
  402e98:	02 00 00 00 dc 20 10 00 	jal 408370 <__stdio_init_stream>
  402ea0:	28 00 00 00 4c 00 02 10 	lw $2,76($16)
  402ea8:	51 00 00 00 00 40 02 02 	ori $2,$2,16384
  402eb0:	34 00 00 00 4c 00 02 10 	sw $2,76($16)
  402eb8:	28 00 00 00 14 00 1f 1d 	lw $31,20($29)
  402ec0:	28 00 00 00 10 00 10 1d 	lw $16,16($29)
  402ec8:	43 00 00 00 18 00 1d 1d 	addiu $29,$29,24
  402ed0:	03 00 00 00 00 00 00 1f 	jr $31

00402ed8 <__stdio_check_offset>:
  402ed8:	43 00 00 00 d8 ff 1d 1d 	addiu $29,$29,-40
  402ee0:	34 00 00 00 18 00 10 1d 	sw $16,24($29)
  402ee8:	42 00 00 00 00 10 04 00 	addu $16,$0,$4
  402ef0:	34 00 00 00 20 00 1f 1d 	sw $31,32($29)
  402ef8:	34 00 00 00 1c 00 11 1d 	sw $17,28($29)
  402f00:	28 00 00 00 4c 00 02 10 	lw $2,76($16)
  402f08:	4f 00 00 00 00 40 02 02 	andi $2,$2,16384
  402f10:	06 00 00 00 2c 00 00 02 	bne $2,$0,402fc8 <__stdio_check_offset+0xf0>
  402f18:	28 00 00 00 a0 80 02 1c 	lw $2,-32608($28)
  402f20:	a2 00 00 00 01 10 03 00 	lui $3,4097
  402f28:	28 00 00 00 04 23 03 03 	lw $3,8964($3)
  402f30:	34 00 00 00 34 00 02 10 	sw $2,52($16)
  402f38:	34 00 00 00 38 00 03 10 	sw $3,56($16)
  402f40:	a2 00 00 00 00 10 05 00 	lui $5,4096
  402f48:	43 00 00 00 50 02 05 05 	addiu $5,$5,592
  402f50:	28 00 00 00 00 00 02 05 	lw $2,0($5)
  402f58:	28 00 00 00 04 00 03 05 	lw $3,4($5)
  402f60:	28 00 00 00 08 00 04 05 	lw $4,8($5)
  402f68:	34 00 00 00 20 00 02 10 	sw $2,32($16)
  402f70:	34 00 00 00 24 00 03 10 	sw $3,36($16)
  402f78:	34 00 00 00 28 00 04 10 	sw $4,40($16)
  402f80:	28 00 00 00 0c 00 02 05 	lw $2,12($5)
  402f88:	28 00 00 00 10 00 03 05 	lw $3,16($5)
  402f90:	34 00 00 00 2c 00 02 10 	sw $2,44($16)
  402f98:	34 00 00 00 30 00 03 10 	sw $3,48($16)
  402fa0:	42 00 00 00 00 04 10 00 	addu $4,$0,$16
  402fa8:	02 00 00 00 dc 20 10 00 	jal 408370 <__stdio_init_stream>
  402fb0:	28 00 00 00 4c 00 02 10 	lw $2,76($16)
  402fb8:	51 00 00 00 00 40 02 02 	ori $2,$2,16384
  402fc0:	34 00 00 00 4c 00 02 10 	sw $2,76($16)
  402fc8:	28 00 00 00 10 00 02 10 	lw $2,16($16)
  402fd0:	06 00 00 00 36 00 00 02 	bne $2,$0,4030b0 <__stdio_check_offset+0x1d8>
  402fd8:	28 00 00 00 4c 00 02 10 	lw $2,76($16)
  402fe0:	4f 00 00 00 00 08 02 02 	andi $2,$2,2048
  402fe8:	06 00 00 00 30 00 00 02 	bne $2,$0,4030b0 <__stdio_check_offset+0x1d8>
  402ff0:	28 00 00 00 14 00 02 10 	lw $2,20($16)
  402ff8:	06 00 00 00 04 00 00 02 	bne $2,$0,403010 <__stdio_check_offset+0x138>
  403000:	43 00 00 00 00 04 02 00 	addiu $2,$0,1024
  403008:	34 00 00 00 14 00 02 10 	sw $2,20($16)
  403010:	28 00 00 00 14 00 04 10 	lw $4,20($16)
  403018:	28 00 00 00 60 84 11 1c 	lw $17,-31648($28)
  403020:	5e 00 00 00 80 00 02 04 	sltiu $2,$4,128
  403028:	06 00 00 00 12 00 00 02 	bne $2,$0,403078 <__stdio_check_offset+0x1a0>
  403030:	02 00 00 00 96 22 10 00 	jal 408a58 <malloc>
  403038:	34 00 00 00 10 00 02 10 	sw $2,16($16)
  403040:	06 00 00 00 0c 00 00 02 	bne $2,$0,403078 <__stdio_check_offset+0x1a0>
  403048:	28 00 00 00 14 00 02 10 	lw $2,20($16)
  403050:	57 00 00 00 01 02 02 00 	srl $2,$2,0x1
  403058:	42 00 00 00 00 04 02 00 	addu $4,$0,$2
  403060:	5e 00 00 00 80 00 02 04 	sltiu $2,$4,128
  403068:	34 00 00 00 14 00 04 10 	sw $4,20($16)
  403070:	05 00 00 00 ee ff 00 02 	beq $2,$0,403030 <__stdio_check_offset+0x158>
  403078:	28 00 00 00 10 00 02 10 	lw $2,16($16)
  403080:	34 00 00 00 60 84 11 1c 	sw $17,-31648($28)
  403088:	06 00 00 00 08 00 00 02 	bne $2,$0,4030b0 <__stdio_check_offset+0x1d8>
  403090:	28 00 00 00 4c 00 02 10 	lw $2,76($16)
  403098:	34 00 00 00 14 00 00 10 	sw $0,20($16)
  4030a0:	51 00 00 00 00 08 02 02 	ori $2,$2,2048
  4030a8:	34 00 00 00 4c 00 02 10 	sw $2,76($16)
  4030b0:	28 00 00 00 04 00 02 10 	lw $2,4($16)
  4030b8:	06 00 00 00 0a 00 00 02 	bne $2,$0,4030e8 <__stdio_check_offset+0x210>
  4030c0:	28 00 00 00 10 00 02 10 	lw $2,16($16)
  4030c8:	28 00 00 00 10 00 03 10 	lw $3,16($16)
  4030d0:	34 00 00 00 04 00 02 10 	sw $2,4($16)
  4030d8:	34 00 00 00 08 00 03 10 	sw $3,8($16)
  4030e0:	34 00 00 00 0c 00 03 10 	sw $3,12($16)
  4030e8:	28 00 00 00 3c 00 03 10 	lw $3,60($16)
  4030f0:	43 00 00 00 ff ff 02 00 	addiu $2,$0,-1
  4030f8:	06 00 00 00 28 00 02 03 	bne $3,$2,4031a0 <__stdio_check_offset+0x2c8>
  403100:	28 00 00 00 28 00 02 10 	lw $2,40($16)
  403108:	06 00 00 00 08 00 00 02 	bne $2,$0,403130 <__stdio_check_offset+0x258>
  403110:	43 00 00 00 1d 00 02 00 	addiu $2,$0,29
  403118:	34 00 00 00 60 84 02 1c 	sw $2,-31648($28)
  403120:	43 00 00 00 ff ff 02 00 	addiu $2,$0,-1
  403128:	01 00 00 00 74 0c 10 00 	j 4031d0 <__stdio_check_offset+0x2f8>
  403130:	28 00 00 00 18 00 04 10 	lw $4,24($16)
  403138:	34 00 00 00 10 00 00 1d 	sw $0,16($29)
  403140:	28 00 00 00 28 00 02 10 	lw $2,40($16)
  403148:	43 00 00 00 10 00 05 1d 	addiu $5,$29,16
  403150:	43 00 00 00 01 00 06 00 	addiu $6,$0,1
  403158:	04 00 00 00 00 1f 00 02 	jalr $31,$2
  403160:	0a 00 00 00 0a 00 00 02 	bgez $2,403190 <__stdio_check_offset+0x2b8>
  403168:	28 00 00 00 60 84 03 1c 	lw $3,-31648($28)
  403170:	43 00 00 00 1d 00 02 00 	addiu $2,$0,29
  403178:	06 00 00 00 e8 ff 02 03 	bne $3,$2,403120 <__stdio_check_offset+0x248>
  403180:	34 00 00 00 28 00 00 10 	sw $0,40($16)
  403188:	01 00 00 00 48 0c 10 00 	j 403120 <__stdio_check_offset+0x248>
  403190:	28 00 00 00 10 00 02 1d 	lw $2,16($29)
  403198:	34 00 00 00 3c 00 02 10 	sw $2,60($16)
  4031a0:	28 00 00 00 40 00 03 10 	lw $3,64($16)
  4031a8:	43 00 00 00 ff ff 02 00 	addiu $2,$0,-1
  4031b0:	06 00 00 00 04 00 02 03 	bne $3,$2,4031c8 <__stdio_check_offset+0x2f0>
  4031b8:	28 00 00 00 3c 00 02 10 	lw $2,60($16)
  4031c0:	34 00 00 00 40 00 02 10 	sw $2,64($16)
  4031c8:	42 00 00 00 00 02 00 00 	addu $2,$0,$0
  4031d0:	28 00 00 00 20 00 1f 1d 	lw $31,32($29)
  4031d8:	28 00 00 00 1c 00 11 1d 	lw $17,28($29)
  4031e0:	28 00 00 00 18 00 10 1d 	lw $16,24($29)
  4031e8:	43 00 00 00 28 00 1d 1d 	addiu $29,$29,40
  4031f0:	03 00 00 00 00 00 00 1f 	jr $31

004031f8 <flushbuf>:
  4031f8:	43 00 00 00 b8 ff 1d 1d 	addiu $29,$29,-72
  403200:	34 00 00 00 20 00 10 1d 	sw $16,32($29)
  403208:	42 00 00 00 00 10 04 00 	addu $16,$0,$4
  403210:	34 00 00 00 30 00 14 1d 	sw $20,48($29)
  403218:	42 00 00 00 00 14 05 00 	addu $20,$0,$5
  403220:	54 00 00 00 00 02 14 00 	nor $2,$0,$20
  403228:	34 00 00 00 34 00 15 1d 	sw $21,52($29)
  403230:	5e 00 00 00 01 00 15 02 	sltiu $21,$2,1
  403238:	34 00 00 00 40 00 1f 1d 	sw $31,64($29)
  403240:	34 00 00 00 3c 00 17 1d 	sw $23,60($29)
  403248:	34 00 00 00 38 00 16 1d 	sw $22,56($29)
  403250:	34 00 00 00 2c 00 13 1d 	sw $19,44($29)
  403258:	34 00 00 00 28 00 12 1d 	sw $18,40($29)
  403260:	34 00 00 00 24 00 11 1d 	sw $17,36($29)
  403268:	28 00 00 00 0c 00 05 10 	lw $5,12($16)
  403270:	28 00 00 00 10 00 02 10 	lw $2,16($16)
  403278:	42 00 00 00 00 17 00 00 	addu $23,$0,$0
  403280:	43 00 00 00 ff ff 16 00 	addiu $22,$0,-1
  403288:	06 00 00 00 a8 00 02 05 	bne $5,$2,403530 <flushbuf+0x338>
  403290:	42 00 00 00 00 13 00 00 	addu $19,$0,$0
  403298:	28 00 00 00 04 00 02 10 	lw $2,4($16)
  4032a0:	28 00 00 00 40 00 03 10 	lw $3,64($16)
  4032a8:	28 00 00 00 1c 00 04 10 	lw $4,28($16)
  4032b0:	45 00 00 00 00 02 05 02 	subu $2,$2,$5
  4032b8:	42 00 00 00 00 02 03 02 	addu $2,$2,$3
  4032c0:	34 00 00 00 40 00 02 10 	sw $2,64($16)
  4032c8:	4f 00 00 00 01 00 02 04 	andi $2,$4,1
  4032d0:	05 00 00 00 6c 00 00 02 	beq $2,$0,403488 <flushbuf+0x290>
  4032d8:	28 00 00 00 34 00 02 10 	lw $2,52($16)
  4032e0:	05 00 00 00 68 00 00 02 	beq $2,$0,403488 <flushbuf+0x290>
  4032e8:	4f 00 00 00 04 00 02 04 	andi $2,$4,4
  4032f0:	06 00 00 00 64 00 00 02 	bne $2,$0,403488 <flushbuf+0x290>
  4032f8:	28 00 00 00 60 84 12 1c 	lw $18,-31648($28)
  403300:	28 00 00 00 10 00 02 10 	lw $2,16($16)
  403308:	42 00 00 00 00 11 00 00 	addu $17,$0,$0
  403310:	05 00 00 00 14 00 00 02 	beq $2,$0,403368 <flushbuf+0x170>
  403318:	42 00 00 00 00 04 10 00 	addu $4,$0,$16
  403320:	02 00 00 00 b6 0b 10 00 	jal 402ed8 <__stdio_check_offset>
  403328:	05 00 00 00 0e 00 16 02 	beq $2,$22,403368 <flushbuf+0x170>
  403330:	28 00 00 00 40 00 02 10 	lw $2,64($16)
  403338:	28 00 00 00 14 00 03 10 	lw $3,20($16)
  403340:	49 00 00 00 00 00 03 02 	divu $0,$2,$3
  403348:	06 00 00 00 02 00 00 03 	bne $3,$0,403358 <flushbuf+0x160>
  403350:	a1 00 00 00 07 00 00 00 	break 
  403358:	4a 00 00 00 00 03 00 00 	mfhi $3
  403360:	06 00 00 00 02 00 00 03 	bne $3,$0,403370 <flushbuf+0x178>
  403368:	43 00 00 00 01 00 11 00 	addiu $17,$0,1
  403370:	34 00 00 00 60 84 12 1c 	sw $18,-31648($28)
  403378:	06 00 00 00 40 00 00 11 	bne $17,$0,403480 <flushbuf+0x288>
  403380:	28 00 00 00 40 00 03 10 	lw $3,64($16)
  403388:	28 00 00 00 14 00 02 10 	lw $2,20($16)
  403390:	49 00 00 00 00 00 02 03 	divu $0,$3,$2
  403398:	06 00 00 00 02 00 00 02 	bne $2,$0,4033a8 <flushbuf+0x1b0>
  4033a0:	a1 00 00 00 07 00 00 00 	break 
  4033a8:	4a 00 00 00 00 11 00 00 	mfhi $17
  4033b0:	28 00 00 00 34 00 02 10 	lw $2,52($16)
  4033b8:	42 00 00 00 00 04 10 00 	addu $4,$0,$16
  4033c0:	45 00 00 00 00 03 11 03 	subu $3,$3,$17
  4033c8:	34 00 00 00 40 00 03 10 	sw $3,64($16)
  4033d0:	04 00 00 00 00 1f 00 02 	jalr $31,$2
  4033d8:	43 00 00 00 ff ff 03 00 	addiu $3,$0,-1
  4033e0:	06 00 00 00 06 00 03 02 	bne $2,$3,403400 <flushbuf+0x208>
  4033e8:	28 00 00 00 4c 00 02 10 	lw $2,76($16)
  4033f0:	4f 00 00 00 00 04 02 02 	andi $2,$2,1024
  4033f8:	06 00 00 00 4a 01 00 02 	bne $2,$0,403928 <flushbuf+0x730>
  403400:	28 00 00 00 4c 00 03 10 	lw $3,76($16)
  403408:	43 00 00 00 ff fd 02 00 	addiu $2,$0,-513
  403410:	28 00 00 00 08 00 04 10 	lw $4,8($16)
  403418:	28 00 00 00 10 00 05 10 	lw $5,16($16)
  403420:	4e 00 00 00 00 03 02 03 	and $3,$3,$2
  403428:	43 00 00 00 ff fb 02 00 	addiu $2,$0,-1025
  403430:	4e 00 00 00 00 03 02 03 	and $3,$3,$2
  403438:	45 00 00 00 00 04 05 04 	subu $4,$4,$5
  403440:	5d 00 00 00 00 04 11 04 	sltu $4,$4,$17
  403448:	34 00 00 00 4c 00 03 10 	sw $3,76($16)
  403450:	05 00 00 00 08 00 00 04 	beq $4,$0,403478 <flushbuf+0x280>
  403458:	28 00 00 00 40 00 02 10 	lw $2,64($16)
  403460:	42 00 00 00 00 02 02 11 	addu $2,$17,$2
  403468:	34 00 00 00 40 00 02 10 	sw $2,64($16)
  403470:	01 00 00 00 20 0d 10 00 	j 403480 <flushbuf+0x288>
  403478:	42 00 00 00 00 13 11 00 	addu $19,$0,$17
  403480:	43 00 00 00 01 00 17 00 	addiu $23,$0,1
  403488:	28 00 00 00 10 00 04 10 	lw $4,16($16)
  403490:	05 00 00 00 26 00 00 04 	beq $4,$0,403530 <flushbuf+0x338>
  403498:	28 00 00 00 14 00 02 10 	lw $2,20($16)
  4034a0:	28 00 00 00 10 00 03 10 	lw $3,16($16)
  4034a8:	42 00 00 00 00 02 02 04 	addu $2,$4,$2
  4034b0:	42 00 00 00 00 03 03 13 	addu $3,$19,$3
  4034b8:	34 00 00 00 0c 00 02 10 	sw $2,12($16)
  4034c0:	34 00 00 00 04 00 03 10 	sw $3,4($16)
  4034c8:	06 00 00 00 18 00 00 15 	bne $21,$0,403530 <flushbuf+0x338>
  4034d0:	43 00 00 00 01 00 02 03 	addiu $2,$3,1
  4034d8:	34 00 00 00 04 00 02 10 	sw $2,4($16)
  4034e0:	30 00 00 00 00 00 14 03 	sb $20,0($3)
  4034e8:	28 00 00 00 4c 00 02 10 	lw $2,76($16)
  4034f0:	4f 00 00 00 00 10 02 02 	andi $2,$2,4096
  4034f8:	05 00 00 00 06 00 00 02 	beq $2,$0,403518 <flushbuf+0x320>
  403500:	4f 00 00 00 ff 00 03 14 	andi $3,$20,255
  403508:	43 00 00 00 0a 00 02 00 	addiu $2,$0,10
  403510:	05 00 00 00 04 00 02 03 	beq $3,$2,403528 <flushbuf+0x330>
  403518:	42 00 00 00 00 13 00 00 	addu $19,$0,$0
  403520:	01 00 00 00 34 0e 10 00 	j 4038d0 <flushbuf+0x6d8>
  403528:	43 00 00 00 01 00 15 00 	addiu $21,$0,1
  403530:	28 00 00 00 04 00 02 10 	lw $2,4($16)
  403538:	28 00 00 00 10 00 04 10 	lw $4,16($16)
  403540:	45 00 00 00 00 13 04 02 	subu $19,$2,$4
  403548:	05 00 00 00 0c 00 00 13 	beq $19,$0,403580 <flushbuf+0x388>
  403550:	28 00 00 00 08 00 03 10 	lw $3,8($16)
  403558:	42 00 00 00 00 12 13 00 	addu $18,$0,$19
  403560:	5d 00 00 00 00 02 03 02 	sltu $2,$2,$3
  403568:	05 00 00 00 06 00 00 02 	beq $2,$0,403588 <flushbuf+0x390>
  403570:	45 00 00 00 00 12 04 03 	subu $18,$3,$4
  403578:	01 00 00 00 62 0d 10 00 	j 403588 <flushbuf+0x390>
  403580:	42 00 00 00 00 12 00 00 	addu $18,$0,$0
  403588:	28 00 00 00 24 00 02 10 	lw $2,36($16)
  403590:	05 00 00 00 04 00 00 02 	beq $2,$0,4035a8 <flushbuf+0x3b0>
  403598:	06 00 00 00 0e 00 00 12 	bne $18,$0,4035d8 <flushbuf+0x3e0>
  4035a0:	05 00 00 00 84 00 00 15 	beq $21,$0,4037b8 <flushbuf+0x5c0>
  4035a8:	28 00 00 00 3c 00 02 10 	lw $2,60($16)
  4035b0:	28 00 00 00 10 00 03 10 	lw $3,16($16)
  4035b8:	42 00 00 00 00 02 02 12 	addu $2,$18,$2
  4035c0:	34 00 00 00 04 00 03 10 	sw $3,4($16)
  4035c8:	34 00 00 00 3c 00 02 10 	sw $2,60($16)
  4035d0:	01 00 00 00 34 0e 10 00 	j 4038d0 <flushbuf+0x6d8>
  4035d8:	28 00 00 00 1c 00 02 10 	lw $2,28($16)
  4035e0:	4f 00 00 00 04 00 02 02 	andi $2,$2,4
  4035e8:	06 00 00 00 42 00 00 02 	bne $2,$0,4036f8 <flushbuf+0x500>
  4035f0:	28 00 00 00 60 84 11 1c 	lw $17,-31648($28)
  4035f8:	42 00 00 00 00 04 10 00 	addu $4,$0,$16
  403600:	02 00 00 00 b6 0b 10 00 	jal 402ed8 <__stdio_check_offset>
  403608:	43 00 00 00 ff ff 03 00 	addiu $3,$0,-1
  403610:	06 00 00 00 0a 00 03 02 	bne $2,$3,403640 <flushbuf+0x448>
  403618:	28 00 00 00 60 84 03 1c 	lw $3,-31648($28)
  403620:	43 00 00 00 1d 00 02 00 	addiu $2,$0,29
  403628:	06 00 00 00 2c 00 02 03 	bne $3,$2,4036e0 <flushbuf+0x4e8>
  403630:	34 00 00 00 60 84 11 1c 	sw $17,-31648($28)
  403638:	01 00 00 00 be 0d 10 00 	j 4036f8 <flushbuf+0x500>
  403640:	28 00 00 00 40 00 03 10 	lw $3,64($16)
  403648:	28 00 00 00 3c 00 02 10 	lw $2,60($16)
  403650:	05 00 00 00 28 00 02 03 	beq $3,$2,4036f8 <flushbuf+0x500>
  403658:	28 00 00 00 28 00 02 10 	lw $2,40($16)
  403660:	06 00 00 00 08 00 00 02 	bne $2,$0,403688 <flushbuf+0x490>
  403668:	28 00 00 00 4c 00 02 10 	lw $2,76($16)
  403670:	43 00 00 00 1d 00 03 00 	addiu $3,$0,29
  403678:	34 00 00 00 60 84 03 1c 	sw $3,-31648($28)
  403680:	01 00 00 00 ba 0d 10 00 	j 4036e8 <flushbuf+0x4f0>
  403688:	28 00 00 00 18 00 04 10 	lw $4,24($16)
  403690:	28 00 00 00 28 00 02 10 	lw $2,40($16)
  403698:	43 00 00 00 10 00 05 1d 	addiu $5,$29,16
  4036a0:	42 00 00 00 00 06 00 00 	addu $6,$0,$0
  4036a8:	34 00 00 00 10 00 03 1d 	sw $3,16($29)
  4036b0:	04 00 00 00 00 1f 00 02 	jalr $31,$2
  4036b8:	09 00 00 00 08 00 00 02 	bltz $2,4036e0 <flushbuf+0x4e8>
  4036c0:	28 00 00 00 10 00 02 1d 	lw $2,16($29)
  4036c8:	28 00 00 00 40 00 03 10 	lw $3,64($16)
  4036d0:	34 00 00 00 3c 00 02 10 	sw $2,60($16)
  4036d8:	05 00 00 00 06 00 03 02 	beq $2,$3,4036f8 <flushbuf+0x500>
  4036e0:	28 00 00 00 4c 00 02 10 	lw $2,76($16)
  4036e8:	51 00 00 00 00 04 02 02 	ori $2,$2,1024
  4036f0:	34 00 00 00 4c 00 02 10 	sw $2,76($16)
  4036f8:	28 00 00 00 4c 00 02 10 	lw $2,76($16)
  403700:	4f 00 00 00 00 04 02 02 	andi $2,$2,1024
  403708:	06 00 00 00 2a 00 00 02 	bne $2,$0,4037b8 <flushbuf+0x5c0>
  403710:	28 00 00 00 18 00 04 10 	lw $4,24($16)
  403718:	28 00 00 00 10 00 05 10 	lw $5,16($16)
  403720:	28 00 00 00 24 00 02 10 	lw $2,36($16)
  403728:	42 00 00 00 00 06 12 00 	addu $6,$0,$18
  403730:	04 00 00 00 00 1f 00 02 	jalr $31,$2
  403738:	42 00 00 00 00 03 02 00 	addu $3,$0,$2
  403740:	07 00 00 00 12 00 00 03 	blez $3,403790 <flushbuf+0x598>
  403748:	28 00 00 00 1c 00 02 10 	lw $2,28($16)
  403750:	4f 00 00 00 04 00 02 02 	andi $2,$2,4
  403758:	05 00 00 00 06 00 00 02 	beq $2,$0,403778 <flushbuf+0x580>
  403760:	43 00 00 00 ff ff 02 00 	addiu $2,$0,-1
  403768:	34 00 00 00 40 00 02 10 	sw $2,64($16)
  403770:	01 00 00 00 e2 0d 10 00 	j 403788 <flushbuf+0x590>
  403778:	28 00 00 00 3c 00 02 10 	lw $2,60($16)
  403780:	42 00 00 00 00 02 02 03 	addu $2,$3,$2
  403788:	34 00 00 00 3c 00 02 10 	sw $2,60($16)
  403790:	5b 00 00 00 00 02 12 03 	slt $2,$3,$18
  403798:	05 00 00 00 06 00 00 02 	beq $2,$0,4037b8 <flushbuf+0x5c0>
  4037a0:	28 00 00 00 4c 00 02 10 	lw $2,76($16)
  4037a8:	51 00 00 00 00 04 02 02 	ori $2,$2,1024
  4037b0:	34 00 00 00 4c 00 02 10 	sw $2,76($16)
  4037b8:	28 00 00 00 10 00 02 10 	lw $2,16($16)
  4037c0:	34 00 00 00 04 00 02 10 	sw $2,4($16)
  4037c8:	06 00 00 00 40 00 00 15 	bne $21,$0,4038d0 <flushbuf+0x6d8>
  4037d0:	28 00 00 00 4c 00 03 10 	lw $3,76($16)
  4037d8:	4f 00 00 00 00 04 02 03 	andi $2,$3,1024
  4037e0:	06 00 00 00 3a 00 00 02 	bne $2,$0,4038d0 <flushbuf+0x6d8>
  4037e8:	28 00 00 00 10 00 02 10 	lw $2,16($16)
  4037f0:	05 00 00 00 0a 00 00 02 	beq $2,$0,403820 <flushbuf+0x628>
  4037f8:	4f 00 00 00 00 10 02 03 	andi $2,$3,4096
  403800:	05 00 00 00 2a 00 00 02 	beq $2,$0,4038b0 <flushbuf+0x6b8>
  403808:	4f 00 00 00 ff 00 03 14 	andi $3,$20,255
  403810:	43 00 00 00 0a 00 02 00 	addiu $2,$0,10
  403818:	06 00 00 00 24 00 02 03 	bne $3,$2,4038b0 <flushbuf+0x6b8>
  403820:	28 00 00 00 18 00 04 10 	lw $4,24($16)
  403828:	28 00 00 00 24 00 02 10 	lw $2,36($16)
  403830:	43 00 00 00 18 00 05 1d 	addiu $5,$29,24
  403838:	43 00 00 00 01 00 06 00 	addiu $6,$0,1
  403840:	30 00 00 00 18 00 14 1d 	sb $20,24($29)
  403848:	04 00 00 00 00 1f 00 02 	jalr $31,$2
  403850:	08 00 00 00 08 00 00 02 	bgtz $2,403878 <flushbuf+0x680>
  403858:	28 00 00 00 4c 00 02 10 	lw $2,76($16)
  403860:	51 00 00 00 00 04 02 02 	ori $2,$2,1024
  403868:	34 00 00 00 4c 00 02 10 	sw $2,76($16)
  403870:	01 00 00 00 34 0e 10 00 	j 4038d0 <flushbuf+0x6d8>
  403878:	28 00 00 00 3c 00 02 10 	lw $2,60($16)
  403880:	28 00 00 00 40 00 03 10 	lw $3,64($16)
  403888:	43 00 00 00 01 00 02 02 	addiu $2,$2,1
  403890:	43 00 00 00 01 00 03 03 	addiu $3,$3,1
  403898:	34 00 00 00 3c 00 02 10 	sw $2,60($16)
  4038a0:	34 00 00 00 40 00 03 10 	sw $3,64($16)
  4038a8:	01 00 00 00 34 0e 10 00 	j 4038d0 <flushbuf+0x6d8>
  4038b0:	28 00 00 00 04 00 03 10 	lw $3,4($16)
  4038b8:	43 00 00 00 01 00 02 03 	addiu $2,$3,1
  4038c0:	34 00 00 00 04 00 02 10 	sw $2,4($16)
  4038c8:	30 00 00 00 00 00 14 03 	sb $20,0($3)
  4038d0:	06 00 00 00 0a 00 00 17 	bne $23,$0,403900 <flushbuf+0x708>
  4038d8:	28 00 00 00 40 00 02 10 	lw $2,64($16)
  4038e0:	28 00 00 00 10 00 03 10 	lw $3,16($16)
  4038e8:	42 00 00 00 00 02 02 13 	addu $2,$19,$2
  4038f0:	34 00 00 00 40 00 02 10 	sw $2,64($16)
  4038f8:	34 00 00 00 08 00 03 10 	sw $3,8($16)
  403900:	28 00 00 00 4c 00 02 10 	lw $2,76($16)
  403908:	4f 00 00 00 00 06 02 02 	andi $2,$2,1536
  403910:	05 00 00 00 04 00 00 02 	beq $2,$0,403928 <flushbuf+0x730>
  403918:	28 00 00 00 0c 00 02 10 	lw $2,12($16)
  403920:	34 00 00 00 04 00 02 10 	sw $2,4($16)
  403928:	28 00 00 00 40 00 1f 1d 	lw $31,64($29)
  403930:	28 00 00 00 3c 00 17 1d 	lw $23,60($29)
  403938:	28 00 00 00 38 00 16 1d 	lw $22,56($29)
  403940:	28 00 00 00 34 00 15 1d 	lw $21,52($29)
  403948:	28 00 00 00 30 00 14 1d 	lw $20,48($29)
  403950:	28 00 00 00 2c 00 13 1d 	lw $19,44($29)
  403958:	28 00 00 00 28 00 12 1d 	lw $18,40($29)
  403960:	28 00 00 00 24 00 11 1d 	lw $17,36($29)
  403968:	28 00 00 00 20 00 10 1d 	lw $16,32($29)
  403970:	43 00 00 00 48 00 1d 1d 	addiu $29,$29,72
  403978:	03 00 00 00 00 00 00 1f 	jr $31

00403980 <fillbuf>:
  403980:	43 00 00 00 c0 ff 1d 1d 	addiu $29,$29,-64
  403988:	34 00 00 00 20 00 10 1d 	sw $16,32($29)
  403990:	42 00 00 00 00 10 04 00 	addu $16,$0,$4
  403998:	34 00 00 00 3c 00 1f 1d 	sw $31,60($29)
  4039a0:	34 00 00 00 38 00 16 1d 	sw $22,56($29)
  4039a8:	34 00 00 00 34 00 15 1d 	sw $21,52($29)
  4039b0:	34 00 00 00 30 00 14 1d 	sw $20,48($29)
  4039b8:	34 00 00 00 2c 00 13 1d 	sw $19,44($29)
  4039c0:	34 00 00 00 28 00 12 1d 	sw $18,40($29)
  4039c8:	34 00 00 00 24 00 11 1d 	sw $17,36($29)
  4039d0:	28 00 00 00 20 00 02 10 	lw $2,32($16)
  4039d8:	42 00 00 00 00 15 00 00 	addu $21,$0,$0
  4039e0:	42 00 00 00 00 14 00 00 	addu $20,$0,$0
  4039e8:	06 00 00 00 08 00 00 02 	bne $2,$0,403a10 <fillbuf+0x90>
  4039f0:	28 00 00 00 4c 00 02 10 	lw $2,76($16)
  4039f8:	51 00 00 00 00 02 02 02 	ori $2,$2,512
  403a00:	34 00 00 00 4c 00 02 10 	sw $2,76($16)
  403a08:	01 00 00 00 4e 0f 10 00 	j 403d38 <fillbuf+0x3b8>
  403a10:	28 00 00 00 10 00 05 10 	lw $5,16($16)
  403a18:	06 00 00 00 06 00 00 05 	bne $5,$0,403a38 <fillbuf+0xb8>
  403a20:	43 00 00 00 10 00 12 1d 	addiu $18,$29,16
  403a28:	43 00 00 00 01 00 11 00 	addiu $17,$0,1
  403a30:	01 00 00 00 92 0e 10 00 	j 403a48 <fillbuf+0xc8>
  403a38:	42 00 00 00 00 12 05 00 	addu $18,$0,$5
  403a40:	28 00 00 00 14 00 11 10 	lw $17,20($16)
  403a48:	42 00 00 00 00 04 10 00 	addu $4,$0,$16
  403a50:	28 00 00 00 4c 00 02 10 	lw $2,76($16)
  403a58:	28 00 00 00 60 84 16 1c 	lw $22,-31648($28)
  403a60:	43 00 00 00 ff fd 03 00 	addiu $3,$0,-513
  403a68:	4e 00 00 00 00 02 03 02 	and $2,$2,$3
  403a70:	34 00 00 00 4c 00 02 10 	sw $2,76($16)
  403a78:	02 00 00 00 b6 0b 10 00 	jal 402ed8 <__stdio_check_offset>
  403a80:	06 00 00 00 58 00 00 02 	bne $2,$0,403be8 <fillbuf+0x268>
  403a88:	28 00 00 00 40 00 03 10 	lw $3,64($16)
  403a90:	28 00 00 00 3c 00 02 10 	lw $2,60($16)
  403a98:	05 00 00 00 52 00 02 03 	beq $3,$2,403be8 <fillbuf+0x268>
  403aa0:	28 00 00 00 14 00 02 10 	lw $2,20($16)
  403aa8:	05 00 00 00 0c 00 00 02 	beq $2,$0,403ae0 <fillbuf+0x160>
  403ab0:	49 00 00 00 00 00 02 03 	divu $0,$3,$2
  403ab8:	06 00 00 00 02 00 00 02 	bne $2,$0,403ac8 <fillbuf+0x148>
  403ac0:	a1 00 00 00 07 00 00 00 	break 
  403ac8:	4a 00 00 00 00 15 00 00 	mfhi $21
  403ad0:	45 00 00 00 00 02 15 03 	subu $2,$3,$21
  403ad8:	34 00 00 00 40 00 02 10 	sw $2,64($16)
  403ae0:	28 00 00 00 60 84 13 1c 	lw $19,-31648($28)
  403ae8:	42 00 00 00 00 04 10 00 	addu $4,$0,$16
  403af0:	02 00 00 00 b6 0b 10 00 	jal 402ed8 <__stdio_check_offset>
  403af8:	43 00 00 00 ff ff 03 00 	addiu $3,$0,-1
  403b00:	06 00 00 00 0a 00 03 02 	bne $2,$3,403b30 <fillbuf+0x1b0>
  403b08:	28 00 00 00 60 84 03 1c 	lw $3,-31648($28)
  403b10:	43 00 00 00 1d 00 02 00 	addiu $2,$0,29
  403b18:	06 00 00 00 2c 00 02 03 	bne $3,$2,403bd0 <fillbuf+0x250>
  403b20:	34 00 00 00 60 84 13 1c 	sw $19,-31648($28)
  403b28:	01 00 00 00 fa 0e 10 00 	j 403be8 <fillbuf+0x268>
  403b30:	28 00 00 00 40 00 03 10 	lw $3,64($16)
  403b38:	28 00 00 00 3c 00 02 10 	lw $2,60($16)
  403b40:	05 00 00 00 28 00 02 03 	beq $3,$2,403be8 <fillbuf+0x268>
  403b48:	28 00 00 00 28 00 02 10 	lw $2,40($16)
  403b50:	06 00 00 00 08 00 00 02 	bne $2,$0,403b78 <fillbuf+0x1f8>
  403b58:	28 00 00 00 4c 00 02 10 	lw $2,76($16)
  403b60:	43 00 00 00 1d 00 03 00 	addiu $3,$0,29
  403b68:	34 00 00 00 60 84 03 1c 	sw $3,-31648($28)
  403b70:	01 00 00 00 f6 0e 10 00 	j 403bd8 <fillbuf+0x258>
  403b78:	28 00 00 00 18 00 04 10 	lw $4,24($16)
  403b80:	28 00 00 00 28 00 02 10 	lw $2,40($16)
  403b88:	43 00 00 00 18 00 05 1d 	addiu $5,$29,24
  403b90:	42 00 00 00 00 06 00 00 	addu $6,$0,$0
  403b98:	34 00 00 00 18 00 03 1d 	sw $3,24($29)
  403ba0:	04 00 00 00 00 1f 00 02 	jalr $31,$2
  403ba8:	09 00 00 00 08 00 00 02 	bltz $2,403bd0 <fillbuf+0x250>
  403bb0:	28 00 00 00 18 00 02 1d 	lw $2,24($29)
  403bb8:	28 00 00 00 40 00 03 10 	lw $3,64($16)
  403bc0:	34 00 00 00 3c 00 02 10 	sw $2,60($16)
  403bc8:	05 00 00 00 06 00 03 02 	beq $2,$3,403be8 <fillbuf+0x268>
  403bd0:	28 00 00 00 4c 00 02 10 	lw $2,76($16)
  403bd8:	51 00 00 00 00 04 02 02 	ori $2,$2,1024
  403be0:	34 00 00 00 4c 00 02 10 	sw $2,76($16)
  403be8:	28 00 00 00 4c 00 02 10 	lw $2,76($16)
  403bf0:	34 00 00 00 60 84 16 1c 	sw $22,-31648($28)
  403bf8:	4f 00 00 00 00 06 02 02 	andi $2,$2,1536
  403c00:	06 00 00 00 36 00 00 02 	bne $2,$0,403ce0 <fillbuf+0x360>
  403c08:	5d 00 00 00 00 02 14 15 	sltu $2,$21,$20
  403c10:	06 00 00 00 32 00 00 02 	bne $2,$0,403ce0 <fillbuf+0x360>
  403c18:	28 00 00 00 18 00 04 10 	lw $4,24($16)
  403c20:	28 00 00 00 20 00 02 10 	lw $2,32($16)
  403c28:	42 00 00 00 00 05 12 00 	addu $5,$0,$18
  403c30:	42 00 00 00 00 06 11 00 	addu $6,$0,$17
  403c38:	04 00 00 00 00 1f 00 02 	jalr $31,$2
  403c40:	42 00 00 00 00 03 02 00 	addu $3,$0,$2
  403c48:	06 00 00 00 08 00 00 03 	bne $3,$0,403c70 <fillbuf+0x2f0>
  403c50:	28 00 00 00 4c 00 02 10 	lw $2,76($16)
  403c58:	51 00 00 00 00 02 02 02 	ori $2,$2,512
  403c60:	34 00 00 00 4c 00 02 10 	sw $2,76($16)
  403c68:	01 00 00 00 32 0f 10 00 	j 403cc8 <fillbuf+0x348>
  403c70:	0a 00 00 00 08 00 00 03 	bgez $3,403c98 <fillbuf+0x318>
  403c78:	28 00 00 00 4c 00 02 10 	lw $2,76($16)
  403c80:	51 00 00 00 00 04 02 02 	ori $2,$2,1024
  403c88:	34 00 00 00 4c 00 02 10 	sw $2,76($16)
  403c90:	01 00 00 00 32 0f 10 00 	j 403cc8 <fillbuf+0x348>
  403c98:	42 00 00 00 00 12 03 12 	addu $18,$18,$3
  403ca0:	28 00 00 00 3c 00 02 10 	lw $2,60($16)
  403ca8:	42 00 00 00 00 14 03 14 	addu $20,$20,$3
  403cb0:	45 00 00 00 00 11 03 11 	subu $17,$17,$3
  403cb8:	42 00 00 00 00 02 02 03 	addu $2,$3,$2
  403cc0:	34 00 00 00 3c 00 02 10 	sw $2,60($16)
  403cc8:	28 00 00 00 4c 00 02 10 	lw $2,76($16)
  403cd0:	4f 00 00 00 00 06 02 02 	andi $2,$2,1536
  403cd8:	05 00 00 00 ca ff 00 02 	beq $2,$0,403c08 <fillbuf+0x288>
  403ce0:	28 00 00 00 10 00 02 10 	lw $2,16($16)
  403ce8:	06 00 00 00 0e 00 00 02 	bne $2,$0,403d28 <fillbuf+0x3a8>
  403cf0:	28 00 00 00 4c 00 02 10 	lw $2,76($16)
  403cf8:	43 00 00 00 ff ff 03 00 	addiu $3,$0,-1
  403d00:	4f 00 00 00 00 06 02 02 	andi $2,$2,1536
  403d08:	06 00 00 00 02 00 00 02 	bne $2,$0,403d18 <fillbuf+0x398>
  403d10:	22 00 00 00 10 00 03 1d 	lbu $3,16($29)
  403d18:	42 00 00 00 00 02 03 00 	addu $2,$0,$3
  403d20:	01 00 00 00 70 0f 10 00 	j 403dc0 <fillbuf+0x440>
  403d28:	42 00 00 00 00 02 02 15 	addu $2,$21,$2
  403d30:	34 00 00 00 04 00 02 10 	sw $2,4($16)
  403d38:	28 00 00 00 4c 00 02 10 	lw $2,76($16)
  403d40:	4f 00 00 00 00 06 02 02 	andi $2,$2,1536
  403d48:	06 00 00 00 14 00 00 02 	bne $2,$0,403da0 <fillbuf+0x420>
  403d50:	28 00 00 00 10 00 02 10 	lw $2,16($16)
  403d58:	28 00 00 00 10 00 03 10 	lw $3,16($16)
  403d60:	28 00 00 00 04 00 04 10 	lw $4,4($16)
  403d68:	42 00 00 00 00 02 02 14 	addu $2,$20,$2
  403d70:	34 00 00 00 08 00 02 10 	sw $2,8($16)
  403d78:	43 00 00 00 01 00 02 04 	addiu $2,$4,1
  403d80:	34 00 00 00 0c 00 03 10 	sw $3,12($16)
  403d88:	34 00 00 00 04 00 02 10 	sw $2,4($16)
  403d90:	22 00 00 00 00 00 02 04 	lbu $2,0($4)
  403d98:	01 00 00 00 70 0f 10 00 	j 403dc0 <fillbuf+0x440>
  403da0:	28 00 00 00 10 00 03 10 	lw $3,16($16)
  403da8:	43 00 00 00 ff ff 02 00 	addiu $2,$0,-1
  403db0:	34 00 00 00 08 00 03 10 	sw $3,8($16)
  403db8:	34 00 00 00 0c 00 03 10 	sw $3,12($16)
  403dc0:	28 00 00 00 3c 00 1f 1d 	lw $31,60($29)
  403dc8:	28 00 00 00 38 00 16 1d 	lw $22,56($29)
  403dd0:	28 00 00 00 34 00 15 1d 	lw $21,52($29)
  403dd8:	28 00 00 00 30 00 14 1d 	lw $20,48($29)
  403de0:	28 00 00 00 2c 00 13 1d 	lw $19,44($29)
  403de8:	28 00 00 00 28 00 12 1d 	lw $18,40($29)
  403df0:	28 00 00 00 24 00 11 1d 	lw $17,36($29)
  403df8:	28 00 00 00 20 00 10 1d 	lw $16,32($29)
  403e00:	43 00 00 00 40 00 1d 1d 	addiu $29,$29,64
  403e08:	03 00 00 00 00 00 00 1f 	jr $31

00403e10 <__flshfp>:
  403e10:	43 00 00 00 d8 ff 1d 1d 	addiu $29,$29,-40
  403e18:	34 00 00 00 10 00 10 1d 	sw $16,16($29)
  403e20:	42 00 00 00 00 10 04 00 	addu $16,$0,$4
  403e28:	34 00 00 00 18 00 12 1d 	sw $18,24($29)
  403e30:	42 00 00 00 00 12 05 00 	addu $18,$0,$5
  403e38:	54 00 00 00 00 02 12 00 	nor $2,$0,$18
  403e40:	34 00 00 00 1c 00 13 1d 	sw $19,28($29)
  403e48:	5e 00 00 00 01 00 13 02 	sltiu $19,$2,1
  403e50:	34 00 00 00 20 00 1f 1d 	sw $31,32($29)
  403e58:	34 00 00 00 14 00 11 1d 	sw $17,20($29)
  403e60:	05 00 00 00 1a 00 00 10 	beq $16,$0,403ed0 <__flshfp+0xc0>
  403e68:	28 00 00 00 00 00 03 10 	lw $3,0($16)
  403e70:	a2 00 00 00 ed fe 02 00 	lui $2,65261
  403e78:	51 00 00 00 be ba 02 02 	ori $2,$2,47806
  403e80:	06 00 00 00 04 00 02 03 	bne $3,$2,403e98 <__flshfp+0x88>
  403e88:	28 00 00 00 04 00 02 10 	lw $2,4($16)
  403e90:	28 00 00 00 00 00 10 02 	lw $16,0($2)
  403e98:	28 00 00 00 00 00 03 10 	lw $3,0($16)
  403ea0:	a2 00 00 00 da fe 02 00 	lui $2,65242
  403ea8:	51 00 00 00 eb be 02 02 	ori $2,$2,48875
  403eb0:	06 00 00 00 06 00 02 03 	bne $3,$2,403ed0 <__flshfp+0xc0>
  403eb8:	28 00 00 00 1c 00 02 10 	lw $2,28($16)
  403ec0:	4f 00 00 00 02 00 02 02 	andi $2,$2,2
  403ec8:	06 00 00 00 08 00 00 02 	bne $2,$0,403ef0 <__flshfp+0xe0>
  403ed0:	43 00 00 00 16 00 02 00 	addiu $2,$0,22
  403ed8:	34 00 00 00 60 84 02 1c 	sw $2,-31648($28)
  403ee0:	43 00 00 00 ff ff 02 00 	addiu $2,$0,-1
  403ee8:	01 00 00 00 c4 10 10 00 	j 404310 <__flshfp+0x500>
  403ef0:	28 00 00 00 4c 00 03 10 	lw $3,76($16)
  403ef8:	4f 00 00 00 00 04 02 03 	andi $2,$3,1024
  403f00:	06 00 00 00 f6 ff 00 02 	bne $2,$0,403ee0 <__flshfp+0xd0>
  403f08:	4f 00 00 00 00 01 02 03 	andi $2,$3,256
  403f10:	05 00 00 00 0c 00 00 02 	beq $2,$0,403f48 <__flshfp+0x138>
  403f18:	28 00 00 00 48 00 02 10 	lw $2,72($16)
  403f20:	28 00 00 00 4c 00 03 10 	lw $3,76($16)
  403f28:	34 00 00 00 04 00 02 10 	sw $2,4($16)
  403f30:	43 00 00 00 ff fe 02 00 	addiu $2,$0,-257
  403f38:	4e 00 00 00 00 03 02 03 	and $3,$3,$2
  403f40:	34 00 00 00 4c 00 03 10 	sw $3,76($16)
  403f48:	28 00 00 00 4c 00 02 10 	lw $2,76($16)
  403f50:	4f 00 00 00 00 40 02 02 	andi $2,$2,16384
  403f58:	06 00 00 00 2c 00 00 02 	bne $2,$0,404010 <__flshfp+0x200>
  403f60:	28 00 00 00 a0 80 02 1c 	lw $2,-32608($28)
  403f68:	a2 00 00 00 01 10 03 00 	lui $3,4097
  403f70:	28 00 00 00 04 23 03 03 	lw $3,8964($3)
  403f78:	34 00 00 00 34 00 02 10 	sw $2,52($16)
  403f80:	34 00 00 00 38 00 03 10 	sw $3,56($16)
  403f88:	a2 00 00 00 00 10 05 00 	lui $5,4096
  403f90:	43 00 00 00 50 02 05 05 	addiu $5,$5,592
  403f98:	28 00 00 00 00 00 02 05 	lw $2,0($5)
  403fa0:	28 00 00 00 04 00 03 05 	lw $3,4($5)
  403fa8:	28 00 00 00 08 00 04 05 	lw $4,8($5)
  403fb0:	34 00 00 00 20 00 02 10 	sw $2,32($16)
  403fb8:	34 00 00 00 24 00 03 10 	sw $3,36($16)
  403fc0:	34 00 00 00 28 00 04 10 	sw $4,40($16)
  403fc8:	28 00 00 00 0c 00 02 05 	lw $2,12($5)
  403fd0:	28 00 00 00 10 00 03 05 	lw $3,16($5)
  403fd8:	34 00 00 00 2c 00 02 10 	sw $2,44($16)
  403fe0:	34 00 00 00 30 00 03 10 	sw $3,48($16)
  403fe8:	42 00 00 00 00 04 10 00 	addu $4,$0,$16
  403ff0:	02 00 00 00 dc 20 10 00 	jal 408370 <__stdio_init_stream>
  403ff8:	28 00 00 00 4c 00 02 10 	lw $2,76($16)
  404000:	51 00 00 00 00 40 02 02 	ori $2,$2,16384
  404008:	34 00 00 00 4c 00 02 10 	sw $2,76($16)
  404010:	28 00 00 00 10 00 02 10 	lw $2,16($16)
  404018:	06 00 00 00 36 00 00 02 	bne $2,$0,4040f8 <__flshfp+0x2e8>
  404020:	28 00 00 00 4c 00 02 10 	lw $2,76($16)
  404028:	4f 00 00 00 00 08 02 02 	andi $2,$2,2048
  404030:	06 00 00 00 30 00 00 02 	bne $2,$0,4040f8 <__flshfp+0x2e8>
  404038:	28 00 00 00 14 00 02 10 	lw $2,20($16)
  404040:	06 00 00 00 04 00 00 02 	bne $2,$0,404058 <__flshfp+0x248>
  404048:	43 00 00 00 00 04 02 00 	addiu $2,$0,1024
  404050:	34 00 00 00 14 00 02 10 	sw $2,20($16)
  404058:	28 00 00 00 14 00 04 10 	lw $4,20($16)
  404060:	28 00 00 00 60 84 11 1c 	lw $17,-31648($28)
  404068:	5e 00 00 00 80 00 02 04 	sltiu $2,$4,128
  404070:	06 00 00 00 12 00 00 02 	bne $2,$0,4040c0 <__flshfp+0x2b0>
  404078:	02 00 00 00 96 22 10 00 	jal 408a58 <malloc>
  404080:	34 00 00 00 10 00 02 10 	sw $2,16($16)
  404088:	06 00 00 00 0c 00 00 02 	bne $2,$0,4040c0 <__flshfp+0x2b0>
  404090:	28 00 00 00 14 00 02 10 	lw $2,20($16)
  404098:	57 00 00 00 01 02 02 00 	srl $2,$2,0x1
  4040a0:	42 00 00 00 00 04 02 00 	addu $4,$0,$2
  4040a8:	5e 00 00 00 80 00 02 04 	sltiu $2,$4,128
  4040b0:	34 00 00 00 14 00 04 10 	sw $4,20($16)
  4040b8:	05 00 00 00 ee ff 00 02 	beq $2,$0,404078 <__flshfp+0x268>
  4040c0:	28 00 00 00 10 00 02 10 	lw $2,16($16)
  4040c8:	34 00 00 00 60 84 11 1c 	sw $17,-31648($28)
  4040d0:	06 00 00 00 08 00 00 02 	bne $2,$0,4040f8 <__flshfp+0x2e8>
  4040d8:	28 00 00 00 4c 00 02 10 	lw $2,76($16)
  4040e0:	34 00 00 00 14 00 00 10 	sw $0,20($16)
  4040e8:	51 00 00 00 00 08 02 02 	ori $2,$2,2048
  4040f0:	34 00 00 00 4c 00 02 10 	sw $2,76($16)
  4040f8:	28 00 00 00 04 00 02 10 	lw $2,4($16)
  404100:	06 00 00 00 0a 00 00 02 	bne $2,$0,404130 <__flshfp+0x320>
  404108:	28 00 00 00 10 00 02 10 	lw $2,16($16)
  404110:	28 00 00 00 10 00 03 10 	lw $3,16($16)
  404118:	34 00 00 00 04 00 02 10 	sw $2,4($16)
  404120:	34 00 00 00 08 00 03 10 	sw $3,8($16)
  404128:	34 00 00 00 0c 00 03 10 	sw $3,12($16)
  404130:	28 00 00 00 38 00 02 10 	lw $2,56($16)
  404138:	06 00 00 00 0a 00 00 02 	bne $2,$0,404168 <__flshfp+0x358>
  404140:	28 00 00 00 4c 00 03 10 	lw $3,76($16)
  404148:	43 00 00 00 ff ff 02 00 	addiu $2,$0,-1
  404150:	51 00 00 00 00 04 03 03 	ori $3,$3,1024
  404158:	34 00 00 00 4c 00 03 10 	sw $3,76($16)
  404160:	01 00 00 00 c4 10 10 00 	j 404310 <__flshfp+0x500>
  404168:	06 00 00 00 30 00 00 13 	bne $19,$0,404230 <__flshfp+0x420>
  404170:	28 00 00 00 4c 00 02 10 	lw $2,76($16)
  404178:	28 00 00 00 04 00 04 10 	lw $4,4($16)
  404180:	4f 00 00 00 00 20 02 02 	andi $2,$2,8192
  404188:	05 00 00 00 0c 00 00 02 	beq $2,$0,4041c0 <__flshfp+0x3b0>
  404190:	28 00 00 00 10 00 02 10 	lw $2,16($16)
  404198:	28 00 00 00 14 00 03 10 	lw $3,20($16)
  4041a0:	42 00 00 00 00 02 03 02 	addu $2,$2,$3
  4041a8:	5d 00 00 00 00 02 02 04 	sltu $2,$4,$2
  4041b0:	06 00 00 00 08 00 00 02 	bne $2,$0,4041d8 <__flshfp+0x3c8>
  4041b8:	01 00 00 00 8c 10 10 00 	j 404230 <__flshfp+0x420>
  4041c0:	28 00 00 00 0c 00 02 10 	lw $2,12($16)
  4041c8:	5d 00 00 00 00 02 02 04 	sltu $2,$4,$2
  4041d0:	05 00 00 00 16 00 00 02 	beq $2,$0,404230 <__flshfp+0x420>
  4041d8:	28 00 00 00 04 00 03 10 	lw $3,4($16)
  4041e0:	43 00 00 00 01 00 02 03 	addiu $2,$3,1
  4041e8:	34 00 00 00 04 00 02 10 	sw $2,4($16)
  4041f0:	30 00 00 00 00 00 12 03 	sb $18,0($3)
  4041f8:	28 00 00 00 4c 00 02 10 	lw $2,76($16)
  404200:	4f 00 00 00 00 10 02 02 	andi $2,$2,4096
  404208:	05 00 00 00 3a 00 00 02 	beq $2,$0,4042f8 <__flshfp+0x4e8>
  404210:	4f 00 00 00 ff 00 03 12 	andi $3,$18,255
  404218:	43 00 00 00 0a 00 02 00 	addiu $2,$0,10
  404220:	06 00 00 00 34 00 02 03 	bne $3,$2,4042f8 <__flshfp+0x4e8>
  404228:	43 00 00 00 01 00 13 00 	addiu $19,$0,1
  404230:	28 00 00 00 4c 00 02 10 	lw $2,76($16)
  404238:	4f 00 00 00 00 20 02 02 	andi $2,$2,8192
  404240:	05 00 00 00 08 00 00 02 	beq $2,$0,404268 <__flshfp+0x458>
  404248:	28 00 00 00 10 00 02 10 	lw $2,16($16)
  404250:	28 00 00 00 14 00 03 10 	lw $3,20($16)
  404258:	42 00 00 00 00 02 03 02 	addu $2,$2,$3
  404260:	34 00 00 00 0c 00 02 10 	sw $2,12($16)
  404268:	43 00 00 00 ff ff 05 00 	addiu $5,$0,-1
  404270:	06 00 00 00 02 00 00 13 	bne $19,$0,404280 <__flshfp+0x470>
  404278:	4f 00 00 00 ff 00 05 12 	andi $5,$18,255
  404280:	28 00 00 00 38 00 02 10 	lw $2,56($16)
  404288:	42 00 00 00 00 04 10 00 	addu $4,$0,$16
  404290:	04 00 00 00 00 1f 00 02 	jalr $31,$2
  404298:	28 00 00 00 4c 00 02 10 	lw $2,76($16)
  4042a0:	4f 00 00 00 00 10 02 02 	andi $2,$2,4096
  4042a8:	05 00 00 00 0a 00 00 02 	beq $2,$0,4042d8 <__flshfp+0x4c8>
  4042b0:	28 00 00 00 4c 00 02 10 	lw $2,76($16)
  4042b8:	28 00 00 00 10 00 03 10 	lw $3,16($16)
  4042c0:	51 00 00 00 00 20 02 02 	ori $2,$2,8192
  4042c8:	34 00 00 00 0c 00 03 10 	sw $3,12($16)
  4042d0:	34 00 00 00 4c 00 02 10 	sw $2,76($16)
  4042d8:	28 00 00 00 4c 00 02 10 	lw $2,76($16)
  4042e0:	4f 00 00 00 00 04 02 02 	andi $2,$2,1024
  4042e8:	06 00 00 00 fc fe 00 02 	bne $2,$0,403ee0 <__flshfp+0xd0>
  4042f0:	06 00 00 00 04 00 00 13 	bne $19,$0,404308 <__flshfp+0x4f8>
  4042f8:	4f 00 00 00 ff 00 02 12 	andi $2,$18,255
  404300:	01 00 00 00 c4 10 10 00 	j 404310 <__flshfp+0x500>
  404308:	42 00 00 00 00 02 00 00 	addu $2,$0,$0
  404310:	28 00 00 00 20 00 1f 1d 	lw $31,32($29)
  404318:	28 00 00 00 1c 00 13 1d 	lw $19,28($29)
  404320:	28 00 00 00 18 00 12 1d 	lw $18,24($29)
  404328:	28 00 00 00 14 00 11 1d 	lw $17,20($29)
  404330:	28 00 00 00 10 00 10 1d 	lw $16,16($29)
  404338:	43 00 00 00 28 00 1d 1d 	addiu $29,$29,40
  404340:	03 00 00 00 00 00 00 1f 	jr $31

00404348 <__fillbf>:
  404348:	43 00 00 00 d8 ff 1d 1d 	addiu $29,$29,-40
  404350:	34 00 00 00 14 00 11 1d 	sw $17,20($29)
  404358:	42 00 00 00 00 11 04 00 	addu $17,$0,$4
  404360:	34 00 00 00 20 00 1f 1d 	sw $31,32($29)
  404368:	34 00 00 00 1c 00 13 1d 	sw $19,28($29)
  404370:	34 00 00 00 18 00 12 1d 	sw $18,24($29)
  404378:	34 00 00 00 10 00 10 1d 	sw $16,16($29)
  404380:	05 00 00 00 1a 00 00 11 	beq $17,$0,4043f0 <__fillbf+0xa8>
  404388:	28 00 00 00 00 00 03 11 	lw $3,0($17)
  404390:	a2 00 00 00 ed fe 02 00 	lui $2,65261
  404398:	51 00 00 00 be ba 02 02 	ori $2,$2,47806
  4043a0:	06 00 00 00 04 00 02 03 	bne $3,$2,4043b8 <__fillbf+0x70>
  4043a8:	28 00 00 00 04 00 02 11 	lw $2,4($17)
  4043b0:	28 00 00 00 00 00 11 02 	lw $17,0($2)
  4043b8:	28 00 00 00 00 00 03 11 	lw $3,0($17)
  4043c0:	a2 00 00 00 da fe 02 00 	lui $2,65242
  4043c8:	51 00 00 00 eb be 02 02 	ori $2,$2,48875
  4043d0:	06 00 00 00 06 00 02 03 	bne $3,$2,4043f0 <__fillbf+0xa8>
  4043d8:	28 00 00 00 1c 00 02 11 	lw $2,28($17)
  4043e0:	4f 00 00 00 01 00 02 02 	andi $2,$2,1
  4043e8:	06 00 00 00 08 00 00 02 	bne $2,$0,404410 <__fillbf+0xc8>
  4043f0:	43 00 00 00 16 00 02 00 	addiu $2,$0,22
  4043f8:	34 00 00 00 60 84 02 1c 	sw $2,-31648($28)
  404400:	43 00 00 00 ff ff 02 00 	addiu $2,$0,-1
  404408:	01 00 00 00 28 12 10 00 	j 4048a0 <__fillbf+0x558>
  404410:	28 00 00 00 4c 00 03 11 	lw $3,76($17)
  404418:	4f 00 00 00 00 01 02 03 	andi $2,$3,256
  404420:	05 00 00 00 10 00 00 02 	beq $2,$0,404468 <__fillbf+0x120>
  404428:	28 00 00 00 4c 00 02 11 	lw $2,76($17)
  404430:	43 00 00 00 ff fe 03 00 	addiu $3,$0,-257
  404438:	4e 00 00 00 00 02 03 02 	and $2,$2,$3
  404440:	28 00 00 00 48 00 03 11 	lw $3,72($17)
  404448:	34 00 00 00 4c 00 02 11 	sw $2,76($17)
  404450:	22 00 00 00 4c 00 02 11 	lbu $2,76($17)
  404458:	34 00 00 00 04 00 03 11 	sw $3,4($17)
  404460:	01 00 00 00 28 12 10 00 	j 4048a0 <__fillbf+0x558>
  404468:	4f 00 00 00 00 40 02 03 	andi $2,$3,16384
  404470:	06 00 00 00 2c 00 00 02 	bne $2,$0,404528 <__fillbf+0x1e0>
  404478:	28 00 00 00 a0 80 02 1c 	lw $2,-32608($28)
  404480:	a2 00 00 00 01 10 03 00 	lui $3,4097
  404488:	28 00 00 00 04 23 03 03 	lw $3,8964($3)
  404490:	34 00 00 00 34 00 02 11 	sw $2,52($17)
  404498:	34 00 00 00 38 00 03 11 	sw $3,56($17)
  4044a0:	a2 00 00 00 00 10 05 00 	lui $5,4096
  4044a8:	43 00 00 00 50 02 05 05 	addiu $5,$5,592
  4044b0:	28 00 00 00 00 00 02 05 	lw $2,0($5)
  4044b8:	28 00 00 00 04 00 03 05 	lw $3,4($5)
  4044c0:	28 00 00 00 08 00 04 05 	lw $4,8($5)
  4044c8:	34 00 00 00 20 00 02 11 	sw $2,32($17)
  4044d0:	34 00 00 00 24 00 03 11 	sw $3,36($17)
  4044d8:	34 00 00 00 28 00 04 11 	sw $4,40($17)
  4044e0:	28 00 00 00 0c 00 02 05 	lw $2,12($5)
  4044e8:	28 00 00 00 10 00 03 05 	lw $3,16($5)
  4044f0:	34 00 00 00 2c 00 02 11 	sw $2,44($17)
  4044f8:	34 00 00 00 30 00 03 11 	sw $3,48($17)
  404500:	42 00 00 00 00 04 11 00 	addu $4,$0,$17
  404508:	02 00 00 00 dc 20 10 00 	jal 408370 <__stdio_init_stream>
  404510:	28 00 00 00 4c 00 02 11 	lw $2,76($17)
  404518:	51 00 00 00 00 40 02 02 	ori $2,$2,16384
  404520:	34 00 00 00 4c 00 02 11 	sw $2,76($17)
  404528:	28 00 00 00 10 00 02 11 	lw $2,16($17)
  404530:	06 00 00 00 36 00 00 02 	bne $2,$0,404610 <__fillbf+0x2c8>
  404538:	28 00 00 00 4c 00 02 11 	lw $2,76($17)
  404540:	4f 00 00 00 00 08 02 02 	andi $2,$2,2048
  404548:	06 00 00 00 30 00 00 02 	bne $2,$0,404610 <__fillbf+0x2c8>
  404550:	28 00 00 00 14 00 02 11 	lw $2,20($17)
  404558:	06 00 00 00 04 00 00 02 	bne $2,$0,404570 <__fillbf+0x228>
  404560:	43 00 00 00 00 04 02 00 	addiu $2,$0,1024
  404568:	34 00 00 00 14 00 02 11 	sw $2,20($17)
  404570:	28 00 00 00 14 00 04 11 	lw $4,20($17)
  404578:	28 00 00 00 60 84 10 1c 	lw $16,-31648($28)
  404580:	5e 00 00 00 80 00 02 04 	sltiu $2,$4,128
  404588:	06 00 00 00 12 00 00 02 	bne $2,$0,4045d8 <__fillbf+0x290>
  404590:	02 00 00 00 96 22 10 00 	jal 408a58 <malloc>
  404598:	34 00 00 00 10 00 02 11 	sw $2,16($17)
  4045a0:	06 00 00 00 0c 00 00 02 	bne $2,$0,4045d8 <__fillbf+0x290>
  4045a8:	28 00 00 00 14 00 02 11 	lw $2,20($17)
  4045b0:	57 00 00 00 01 02 02 00 	srl $2,$2,0x1
  4045b8:	42 00 00 00 00 04 02 00 	addu $4,$0,$2
  4045c0:	5e 00 00 00 80 00 02 04 	sltiu $2,$4,128
  4045c8:	34 00 00 00 14 00 04 11 	sw $4,20($17)
  4045d0:	05 00 00 00 ee ff 00 02 	beq $2,$0,404590 <__fillbf+0x248>
  4045d8:	28 00 00 00 10 00 02 11 	lw $2,16($17)
  4045e0:	34 00 00 00 60 84 10 1c 	sw $16,-31648($28)
  4045e8:	06 00 00 00 08 00 00 02 	bne $2,$0,404610 <__fillbf+0x2c8>
  4045f0:	28 00 00 00 4c 00 02 11 	lw $2,76($17)
  4045f8:	34 00 00 00 14 00 00 11 	sw $0,20($17)
  404600:	51 00 00 00 00 08 02 02 	ori $2,$2,2048
  404608:	34 00 00 00 4c 00 02 11 	sw $2,76($17)
  404610:	28 00 00 00 04 00 02 11 	lw $2,4($17)
  404618:	06 00 00 00 0a 00 00 02 	bne $2,$0,404648 <__fillbf+0x300>
  404620:	28 00 00 00 10 00 02 11 	lw $2,16($17)
  404628:	28 00 00 00 10 00 03 11 	lw $3,16($17)
  404630:	34 00 00 00 04 00 02 11 	sw $2,4($17)
  404638:	34 00 00 00 08 00 03 11 	sw $3,8($17)
  404640:	34 00 00 00 0c 00 03 11 	sw $3,12($17)
  404648:	28 00 00 00 10 00 02 11 	lw $2,16($17)
  404650:	05 00 00 00 06 00 00 02 	beq $2,$0,404670 <__fillbf+0x328>
  404658:	28 00 00 00 4c 00 02 11 	lw $2,76($17)
  404660:	4f 00 00 00 00 10 02 02 	andi $2,$2,4096
  404668:	05 00 00 00 2e 00 00 02 	beq $2,$0,404728 <__fillbf+0x3e0>
  404670:	28 00 00 00 9c 80 10 1c 	lw $16,-32612($28)
  404678:	05 00 00 00 2a 00 00 10 	beq $16,$0,404728 <__fillbf+0x3e0>
  404680:	a2 00 00 00 ed fe 13 00 	lui $19,65261
  404688:	51 00 00 00 be ba 13 13 	ori $19,$19,47806
  404690:	a2 00 00 00 da fe 12 00 	lui $18,65242
  404698:	51 00 00 00 eb be 12 12 	ori $18,$18,48875
  4046a0:	28 00 00 00 00 00 02 10 	lw $2,0($16)
  4046a8:	06 00 00 00 04 00 13 02 	bne $2,$19,4046c0 <__fillbf+0x378>
  4046b0:	28 00 00 00 04 00 02 10 	lw $2,4($16)
  4046b8:	28 00 00 00 00 00 10 02 	lw $16,0($2)
  4046c0:	28 00 00 00 00 00 02 10 	lw $2,0($16)
  4046c8:	06 00 00 00 12 00 12 02 	bne $2,$18,404718 <__fillbf+0x3d0>
  4046d0:	28 00 00 00 4c 00 02 10 	lw $2,76($16)
  4046d8:	4f 00 00 00 00 10 02 02 	andi $2,$2,4096
  4046e0:	05 00 00 00 0c 00 00 02 	beq $2,$0,404718 <__fillbf+0x3d0>
  4046e8:	28 00 00 00 1c 00 02 10 	lw $2,28($16)
  4046f0:	4f 00 00 00 02 00 02 02 	andi $2,$2,2
  4046f8:	05 00 00 00 06 00 00 02 	beq $2,$0,404718 <__fillbf+0x3d0>
  404700:	42 00 00 00 00 04 10 00 	addu $4,$0,$16
  404708:	43 00 00 00 ff ff 05 00 	addiu $5,$0,-1
  404710:	02 00 00 00 84 0f 10 00 	jal 403e10 <__flshfp>
  404718:	28 00 00 00 44 00 10 10 	lw $16,68($16)
  404720:	06 00 00 00 de ff 00 10 	bne $16,$0,4046a0 <__fillbf+0x358>
  404728:	28 00 00 00 4c 00 02 11 	lw $2,76($17)
  404730:	4f 00 00 00 00 20 02 02 	andi $2,$2,8192
  404738:	05 00 00 00 10 00 00 02 	beq $2,$0,404780 <__fillbf+0x438>
  404740:	28 00 00 00 10 00 02 11 	lw $2,16($17)
  404748:	28 00 00 00 14 00 04 11 	lw $4,20($17)
  404750:	28 00 00 00 4c 00 03 11 	lw $3,76($17)
  404758:	42 00 00 00 00 02 04 02 	addu $2,$2,$4
  404760:	34 00 00 00 0c 00 02 11 	sw $2,12($17)
  404768:	43 00 00 00 ff df 02 00 	addiu $2,$0,-8193
  404770:	4e 00 00 00 00 03 02 03 	and $3,$3,$2
  404778:	34 00 00 00 4c 00 03 11 	sw $3,76($17)
  404780:	28 00 00 00 08 00 03 11 	lw $3,8($17)
  404788:	28 00 00 00 10 00 02 11 	lw $2,16($17)
  404790:	28 00 00 00 40 00 04 11 	lw $4,64($17)
  404798:	28 00 00 00 0c 00 05 11 	lw $5,12($17)
  4047a0:	45 00 00 00 00 03 02 03 	subu $3,$3,$2
  4047a8:	42 00 00 00 00 10 04 03 	addu $16,$3,$4
  4047b0:	5d 00 00 00 00 02 05 02 	sltu $2,$2,$5
  4047b8:	05 00 00 00 12 00 00 02 	beq $2,$0,404808 <__fillbf+0x4c0>
  4047c0:	28 00 00 00 38 00 02 11 	lw $2,56($17)
  4047c8:	06 00 00 00 08 00 00 02 	bne $2,$0,4047f0 <__fillbf+0x4a8>
  4047d0:	28 00 00 00 4c 00 02 11 	lw $2,76($17)
  4047d8:	51 00 00 00 00 04 02 02 	ori $2,$2,1024
  4047e0:	34 00 00 00 4c 00 02 11 	sw $2,76($17)
  4047e8:	01 00 00 00 02 12 10 00 	j 404808 <__fillbf+0x4c0>
  4047f0:	42 00 00 00 00 04 11 00 	addu $4,$0,$17
  4047f8:	43 00 00 00 ff ff 05 00 	addiu $5,$0,-1
  404800:	04 00 00 00 00 1f 00 02 	jalr $31,$2
  404808:	28 00 00 00 4c 00 03 11 	lw $3,76($17)
  404810:	34 00 00 00 40 00 10 11 	sw $16,64($17)
  404818:	4f 00 00 00 00 04 02 03 	andi $2,$3,1024
  404820:	06 00 00 00 1a 00 00 02 	bne $2,$0,404890 <__fillbf+0x548>
  404828:	28 00 00 00 34 00 02 11 	lw $2,52($17)
  404830:	05 00 00 00 12 00 00 02 	beq $2,$0,404880 <__fillbf+0x538>
  404838:	42 00 00 00 00 04 11 00 	addu $4,$0,$17
  404840:	04 00 00 00 00 1f 00 02 	jalr $31,$2
  404848:	28 00 00 00 10 00 03 11 	lw $3,16($17)
  404850:	42 00 00 00 00 04 02 00 	addu $4,$0,$2
  404858:	06 00 00 00 0e 00 00 03 	bne $3,$0,404898 <__fillbf+0x550>
  404860:	28 00 00 00 40 00 02 11 	lw $2,64($17)
  404868:	43 00 00 00 01 00 02 02 	addiu $2,$2,1
  404870:	34 00 00 00 40 00 02 11 	sw $2,64($17)
  404878:	01 00 00 00 26 12 10 00 	j 404898 <__fillbf+0x550>
  404880:	51 00 00 00 00 02 02 03 	ori $2,$3,512
  404888:	34 00 00 00 4c 00 02 11 	sw $2,76($17)
  404890:	43 00 00 00 ff ff 04 00 	addiu $4,$0,-1
  404898:	42 00 00 00 00 02 04 00 	addu $2,$0,$4
  4048a0:	28 00 00 00 20 00 1f 1d 	lw $31,32($29)
  4048a8:	28 00 00 00 1c 00 13 1d 	lw $19,28($29)
  4048b0:	28 00 00 00 18 00 12 1d 	lw $18,24($29)
  4048b8:	28 00 00 00 14 00 11 1d 	lw $17,20($29)
  4048c0:	28 00 00 00 10 00 10 1d 	lw $16,16($29)
  4048c8:	43 00 00 00 28 00 1d 1d 	addiu $29,$29,40
  4048d0:	03 00 00 00 00 00 00 1f 	jr $31

004048d8 <__invalidate>:
  4048d8:	43 00 00 00 e0 ff 1d 1d 	addiu $29,$29,-32
  4048e0:	34 00 00 00 10 00 10 1d 	sw $16,16($29)
  4048e8:	42 00 00 00 00 10 04 00 	addu $16,$0,$4
  4048f0:	34 00 00 00 18 00 1f 1d 	sw $31,24($29)
  4048f8:	34 00 00 00 14 00 11 1d 	sw $17,20($29)
  404900:	28 00 00 00 44 00 11 10 	lw $17,68($16)
  404908:	42 00 00 00 00 05 00 00 	addu $5,$0,$0
  404910:	43 00 00 00 50 00 06 00 	addiu $6,$0,80
  404918:	02 00 00 00 f8 24 10 00 	jal 4093e0 <memset>
  404920:	34 00 00 00 44 00 11 10 	sw $17,68($16)
  404928:	28 00 00 00 18 00 1f 1d 	lw $31,24($29)
  404930:	28 00 00 00 14 00 11 1d 	lw $17,20($29)
  404938:	28 00 00 00 10 00 10 1d 	lw $16,16($29)
  404940:	43 00 00 00 20 00 1d 1d 	addiu $29,$29,32
  404948:	03 00 00 00 00 00 00 1f 	jr $31

00404950 <printf>:
  404950:	34 00 00 00 04 00 05 1d 	sw $5,4($29)
  404958:	42 00 00 00 00 05 04 00 	addu $5,$0,$4
  404960:	34 00 00 00 00 00 04 1d 	sw $4,0($29)
  404968:	28 00 00 00 94 80 04 1c 	lw $4,-32620($28)
  404970:	34 00 00 00 08 00 06 1d 	sw $6,8($29)
  404978:	34 00 00 00 0c 00 07 1d 	sw $7,12($29)
  404980:	43 00 00 00 e8 ff 1d 1d 	addiu $29,$29,-24
  404988:	43 00 00 00 1c 00 06 1d 	addiu $6,$29,28
  404990:	34 00 00 00 10 00 1f 1d 	sw $31,16($29)
  404998:	02 00 00 00 e0 13 10 00 	jal 404f80 <vfprintf>
  4049a0:	28 00 00 00 10 00 1f 1d 	lw $31,16($29)
  4049a8:	43 00 00 00 18 00 1d 1d 	addiu $29,$29,24
  4049b0:	03 00 00 00 00 00 00 1f 	jr $31
	...

004049c0 <scanf>:
  4049c0:	34 00 00 00 04 00 05 1d 	sw $5,4($29)
  4049c8:	42 00 00 00 00 05 04 00 	addu $5,$0,$4
  4049d0:	34 00 00 00 00 00 04 1d 	sw $4,0($29)
  4049d8:	28 00 00 00 90 80 04 1c 	lw $4,-32624($28)
  4049e0:	34 00 00 00 08 00 06 1d 	sw $6,8($29)
  4049e8:	34 00 00 00 0c 00 07 1d 	sw $7,12($29)
  4049f0:	43 00 00 00 e8 ff 1d 1d 	addiu $29,$29,-24
  4049f8:	43 00 00 00 1c 00 06 1d 	addiu $6,$29,28
  404a00:	34 00 00 00 10 00 1f 1d 	sw $31,16($29)
  404a08:	02 00 00 00 54 25 10 00 	jal 409550 <__vfscanf>
  404a10:	28 00 00 00 10 00 1f 1d 	lw $31,16($29)
  404a18:	43 00 00 00 18 00 1d 1d 	addiu $29,$29,24
  404a20:	03 00 00 00 00 00 00 1f 	jr $31
	...

00404a30 <atexit>:
  404a30:	43 00 00 00 e8 ff 1d 1d 	addiu $29,$29,-24
  404a38:	34 00 00 00 10 00 10 1d 	sw $16,16($29)
  404a40:	42 00 00 00 00 10 04 00 	addu $16,$0,$4
  404a48:	34 00 00 00 14 00 1f 1d 	sw $31,20($29)
  404a50:	02 00 00 00 ae 12 10 00 	jal 404ab8 <__new_exitfn>
  404a58:	42 00 00 00 00 04 02 00 	addu $4,$0,$2
  404a60:	05 00 00 00 0a 00 00 04 	beq $4,$0,404a90 <atexit+0x60>
  404a68:	42 00 00 00 00 02 00 00 	addu $2,$0,$0
  404a70:	43 00 00 00 02 00 03 00 	addiu $3,$0,2
  404a78:	34 00 00 00 00 00 03 04 	sw $3,0($4)
  404a80:	34 00 00 00 04 00 10 04 	sw $16,4($4)
  404a88:	01 00 00 00 a6 12 10 00 	j 404a98 <atexit+0x68>
  404a90:	43 00 00 00 ff ff 02 00 	addiu $2,$0,-1
  404a98:	28 00 00 00 14 00 1f 1d 	lw $31,20($29)
  404aa0:	28 00 00 00 10 00 10 1d 	lw $16,16($29)
  404aa8:	43 00 00 00 18 00 1d 1d 	addiu $29,$29,24
  404ab0:	03 00 00 00 00 00 00 1f 	jr $31

00404ab8 <__new_exitfn>:
  404ab8:	28 00 00 00 b0 80 07 1c 	lw $7,-32592($28)
  404ac0:	43 00 00 00 e0 ff 1d 1d 	addiu $29,$29,-32
  404ac8:	34 00 00 00 18 00 1f 1d 	sw $31,24($29)
  404ad0:	05 00 00 00 26 00 00 07 	beq $7,$0,404b70 <__new_exitfn+0xb8>
  404ad8:	28 00 00 00 04 00 02 07 	lw $2,4($7)
  404ae0:	42 00 00 00 00 04 00 00 	addu $4,$0,$0
  404ae8:	05 00 00 00 16 00 00 02 	beq $2,$0,404b48 <__new_exitfn+0x90>
  404af0:	42 00 00 00 00 08 02 00 	addu $8,$0,$2
  404af8:	42 00 00 00 00 03 07 00 	addu $3,$0,$7
  404b00:	42 00 00 00 00 06 00 00 	addu $6,$0,$0
  404b08:	28 00 00 00 08 00 02 03 	lw $2,8($3)
  404b10:	42 00 00 00 00 05 06 00 	addu $5,$0,$6
  404b18:	05 00 00 00 2a 00 00 02 	beq $2,$0,404bc8 <__new_exitfn+0x110>
  404b20:	43 00 00 00 0c 00 03 03 	addiu $3,$3,12
  404b28:	43 00 00 00 0c 00 06 05 	addiu $6,$5,12
  404b30:	43 00 00 00 01 00 04 04 	addiu $4,$4,1
  404b38:	5d 00 00 00 00 02 08 04 	sltu $2,$4,$8
  404b40:	06 00 00 00 f0 ff 00 02 	bne $2,$0,404b08 <__new_exitfn+0x50>
  404b48:	28 00 00 00 04 00 03 07 	lw $3,4($7)
  404b50:	5e 00 00 00 20 00 02 03 	sltiu $2,$3,32
  404b58:	06 00 00 00 20 00 00 02 	bne $2,$0,404be0 <__new_exitfn+0x128>
  404b60:	28 00 00 00 00 00 07 07 	lw $7,0($7)
  404b68:	06 00 00 00 da ff 00 07 	bne $7,$0,404ad8 <__new_exitfn+0x20>
  404b70:	43 00 00 00 88 01 04 00 	addiu $4,$0,392
  404b78:	02 00 00 00 96 22 10 00 	jal 408a58 <malloc>
  404b80:	42 00 00 00 00 07 02 00 	addu $7,$0,$2
  404b88:	05 00 00 00 24 00 00 07 	beq $7,$0,404c20 <__new_exitfn+0x168>
  404b90:	28 00 00 00 b0 80 04 1c 	lw $4,-32592($28)
  404b98:	43 00 00 00 08 00 02 07 	addiu $2,$7,8
  404ba0:	43 00 00 00 01 00 03 00 	addiu $3,$0,1
  404ba8:	34 00 00 00 04 00 03 07 	sw $3,4($7)
  404bb0:	34 00 00 00 00 00 04 07 	sw $4,0($7)
  404bb8:	34 00 00 00 b0 80 07 1c 	sw $7,-32592($28)
  404bc0:	01 00 00 00 0a 13 10 00 	j 404c28 <__new_exitfn+0x170>
  404bc8:	43 00 00 00 08 00 02 06 	addiu $2,$6,8
  404bd0:	42 00 00 00 00 02 02 07 	addu $2,$7,$2
  404bd8:	01 00 00 00 0a 13 10 00 	j 404c28 <__new_exitfn+0x170>
  404be0:	43 00 00 00 01 00 02 03 	addiu $2,$3,1
  404be8:	34 00 00 00 04 00 02 07 	sw $2,4($7)
  404bf0:	55 00 00 00 01 02 03 00 	sll $2,$3,0x1
  404bf8:	42 00 00 00 00 02 03 02 	addu $2,$2,$3
  404c00:	55 00 00 00 02 02 02 00 	sll $2,$2,0x2
  404c08:	43 00 00 00 08 00 02 02 	addiu $2,$2,8
  404c10:	42 00 00 00 00 02 02 07 	addu $2,$7,$2
  404c18:	01 00 00 00 0a 13 10 00 	j 404c28 <__new_exitfn+0x170>
  404c20:	42 00 00 00 00 02 00 00 	addu $2,$0,$0
  404c28:	28 00 00 00 18 00 1f 1d 	lw $31,24($29)
  404c30:	43 00 00 00 20 00 1d 1d 	addiu $29,$29,32
  404c38:	03 00 00 00 00 00 00 1f 	jr $31

00404c40 <__init_misc>:
  404c40:	43 00 00 00 e8 ff 1d 1d 	addiu $29,$29,-24
  404c48:	34 00 00 00 10 00 10 1d 	sw $16,16($29)
  404c50:	42 00 00 00 00 10 05 00 	addu $16,$0,$5
  404c58:	34 00 00 00 14 00 1f 1d 	sw $31,20($29)
  404c60:	05 00 00 00 12 00 00 10 	beq $16,$0,404cb0 <__init_misc+0x70>
  404c68:	28 00 00 00 00 00 04 10 	lw $4,0($16)
  404c70:	05 00 00 00 0e 00 00 04 	beq $4,$0,404cb0 <__init_misc+0x70>
  404c78:	43 00 00 00 2f 00 05 00 	addiu $5,$0,47
  404c80:	02 00 00 00 b0 2d 10 00 	jal 40b6c0 <strrchr>
  404c88:	06 00 00 00 04 00 00 02 	bne $2,$0,404ca0 <__init_misc+0x60>
  404c90:	28 00 00 00 00 00 02 10 	lw $2,0($16)
  404c98:	01 00 00 00 2a 13 10 00 	j 404ca8 <__init_misc+0x68>
  404ca0:	43 00 00 00 01 00 02 02 	addiu $2,$2,1
  404ca8:	34 00 00 00 c4 80 02 1c 	sw $2,-32572($28)
  404cb0:	28 00 00 00 14 00 1f 1d 	lw $31,20($29)
  404cb8:	28 00 00 00 10 00 10 1d 	lw $16,16($29)
  404cc0:	43 00 00 00 18 00 1d 1d 	addiu $29,$29,24
  404cc8:	03 00 00 00 00 00 00 1f 	jr $31
  404cd0:	01 00 00 00 dc 2d 10 00 	j 40b770 <syscall_error>
	...

00404ce0 <_exit>:
  404ce0:	43 00 00 00 01 00 02 00 	addiu $2,$0,1
  404ce8:	a0 00 00 00 00 00 00 00 	syscall 
  404cf0:	06 00 00 00 f6 ff 00 07 	bne $7,$0,404cd0 <__init_misc+0x90>
	...

00404d00 <fclose>:
  404d00:	43 00 00 00 e0 ff 1d 1d 	addiu $29,$29,-32
  404d08:	34 00 00 00 10 00 10 1d 	sw $16,16($29)
  404d10:	42 00 00 00 00 10 04 00 	addu $16,$0,$4
  404d18:	34 00 00 00 1c 00 1f 1d 	sw $31,28($29)
  404d20:	34 00 00 00 18 00 12 1d 	sw $18,24($29)
  404d28:	34 00 00 00 14 00 11 1d 	sw $17,20($29)
  404d30:	06 00 00 00 24 00 00 10 	bne $16,$0,404dc8 <fclose+0xc8>
  404d38:	28 00 00 00 9c 80 10 1c 	lw $16,-32612($28)
  404d40:	05 00 00 00 1c 00 00 10 	beq $16,$0,404db8 <fclose+0xb8>
  404d48:	a2 00 00 00 ed fe 12 00 	lui $18,65261
  404d50:	51 00 00 00 be ba 12 12 	ori $18,$18,47806
  404d58:	a2 00 00 00 da fe 11 00 	lui $17,65242
  404d60:	51 00 00 00 eb be 11 11 	ori $17,$17,48875
  404d68:	28 00 00 00 00 00 02 10 	lw $2,0($16)
  404d70:	06 00 00 00 04 00 12 02 	bne $2,$18,404d88 <fclose+0x88>
  404d78:	28 00 00 00 04 00 02 10 	lw $2,4($16)
  404d80:	28 00 00 00 00 00 10 02 	lw $16,0($2)
  404d88:	28 00 00 00 00 00 02 10 	lw $2,0($16)
  404d90:	06 00 00 00 04 00 11 02 	bne $2,$17,404da8 <fclose+0xa8>
  404d98:	42 00 00 00 00 04 10 00 	addu $4,$0,$16
  404da0:	02 00 00 00 40 13 10 00 	jal 404d00 <fclose>
  404da8:	28 00 00 00 44 00 10 10 	lw $16,68($16)
  404db0:	06 00 00 00 ec ff 00 10 	bne $16,$0,404d68 <fclose+0x68>
  404db8:	42 00 00 00 00 02 00 00 	addu $2,$0,$0
  404dc0:	01 00 00 00 d2 13 10 00 	j 404f48 <fclose+0x248>
  404dc8:	28 00 00 00 00 00 03 10 	lw $3,0($16)
  404dd0:	a2 00 00 00 ed fe 02 00 	lui $2,65261
  404dd8:	51 00 00 00 be ba 02 02 	ori $2,$2,47806
  404de0:	06 00 00 00 04 00 02 03 	bne $3,$2,404df8 <fclose+0xf8>
  404de8:	28 00 00 00 04 00 02 10 	lw $2,4($16)
  404df0:	28 00 00 00 00 00 10 02 	lw $16,0($2)
  404df8:	28 00 00 00 00 00 03 10 	lw $3,0($16)
  404e00:	a2 00 00 00 da fe 02 00 	lui $2,65242
  404e08:	51 00 00 00 eb be 02 02 	ori $2,$2,48875
  404e10:	05 00 00 00 08 00 02 03 	beq $3,$2,404e38 <fclose+0x138>
  404e18:	43 00 00 00 16 00 02 00 	addiu $2,$0,22
  404e20:	34 00 00 00 60 84 02 1c 	sw $2,-31648($28)
  404e28:	43 00 00 00 ff ff 02 00 	addiu $2,$0,-1
  404e30:	01 00 00 00 d2 13 10 00 	j 404f48 <fclose+0x248>
  404e38:	28 00 00 00 1c 00 02 10 	lw $2,28($16)
  404e40:	4f 00 00 00 02 00 02 02 	andi $2,$2,2
  404e48:	05 00 00 00 0e 00 00 02 	beq $2,$0,404e88 <fclose+0x188>
  404e50:	42 00 00 00 00 04 10 00 	addu $4,$0,$16
  404e58:	43 00 00 00 ff ff 05 00 	addiu $5,$0,-1
  404e60:	02 00 00 00 84 0f 10 00 	jal 403e10 <__flshfp>
  404e68:	43 00 00 00 ff ff 03 00 	addiu $3,$0,-1
  404e70:	06 00 00 00 04 00 03 02 	bne $2,$3,404e88 <fclose+0x188>
  404e78:	43 00 00 00 ff ff 02 00 	addiu $2,$0,-1
  404e80:	01 00 00 00 d2 13 10 00 	j 404f48 <fclose+0x248>
  404e88:	28 00 00 00 10 00 04 10 	lw $4,16($16)
  404e90:	05 00 00 00 08 00 00 04 	beq $4,$0,404eb8 <fclose+0x1b8>
  404e98:	28 00 00 00 4c 00 02 10 	lw $2,76($16)
  404ea0:	4f 00 00 00 00 08 02 02 	andi $2,$2,2048
  404ea8:	06 00 00 00 02 00 00 02 	bne $2,$0,404eb8 <fclose+0x1b8>
  404eb0:	02 00 00 00 10 30 10 00 	jal 40c040 <free>
  404eb8:	28 00 00 00 2c 00 02 10 	lw $2,44($16)
  404ec0:	05 00 00 00 08 00 00 02 	beq $2,$0,404ee8 <fclose+0x1e8>
  404ec8:	28 00 00 00 18 00 04 10 	lw $4,24($16)
  404ed0:	04 00 00 00 00 1f 00 02 	jalr $31,$2
  404ed8:	42 00 00 00 00 11 02 00 	addu $17,$0,$2
  404ee0:	01 00 00 00 cc 13 10 00 	j 404f30 <fclose+0x230>
  404ee8:	28 00 00 00 4c 00 02 10 	lw $2,76($16)
  404ef0:	4f 00 00 00 00 40 02 02 	andi $2,$2,16384
  404ef8:	06 00 00 00 0a 00 00 02 	bne $2,$0,404f28 <fclose+0x228>
  404f00:	28 00 00 00 18 00 04 10 	lw $4,24($16)
  404f08:	05 00 00 00 06 00 00 04 	beq $4,$0,404f28 <fclose+0x228>
  404f10:	02 00 00 00 b4 1f 10 00 	jal 407ed0 <__stdio_close>
  404f18:	42 00 00 00 00 11 02 00 	addu $17,$0,$2
  404f20:	01 00 00 00 cc 13 10 00 	j 404f30 <fclose+0x230>
  404f28:	42 00 00 00 00 11 00 00 	addu $17,$0,$0
  404f30:	42 00 00 00 00 04 10 00 	addu $4,$0,$16
  404f38:	02 00 00 00 36 12 10 00 	jal 4048d8 <__invalidate>
  404f40:	59 00 00 00 1f 02 11 00 	sra $2,$17,0x1f
  404f48:	28 00 00 00 1c 00 1f 1d 	lw $31,28($29)
  404f50:	28 00 00 00 18 00 12 1d 	lw $18,24($29)
  404f58:	28 00 00 00 14 00 11 1d 	lw $17,20($29)
  404f60:	28 00 00 00 10 00 10 1d 	lw $16,16($29)
  404f68:	43 00 00 00 20 00 1d 1d 	addiu $29,$29,32
  404f70:	03 00 00 00 00 00 00 1f 	jr $31
	...

00404f80 <vfprintf>:
  404f80:	43 00 00 00 48 f6 1d 1d 	addiu $29,$29,-2488
  404f88:	34 00 00 00 a0 09 14 1d 	sw $20,2464($29)
  404f90:	42 00 00 00 00 14 04 00 	addu $20,$0,$4
  404f98:	34 00 00 00 90 09 10 1d 	sw $16,2448($29)
  404fa0:	42 00 00 00 00 10 05 00 	addu $16,$0,$5
  404fa8:	34 00 00 00 a4 09 15 1d 	sw $21,2468($29)
  404fb0:	42 00 00 00 00 15 00 00 	addu $21,$0,$0
  404fb8:	34 00 00 00 b4 09 1f 1d 	sw $31,2484($29)
  404fc0:	34 00 00 00 b0 09 1e 1d 	sw $30,2480($29)
  404fc8:	34 00 00 00 ac 09 17 1d 	sw $23,2476($29)
  404fd0:	34 00 00 00 a8 09 16 1d 	sw $22,2472($29)
  404fd8:	34 00 00 00 9c 09 13 1d 	sw $19,2460($29)
  404fe0:	34 00 00 00 98 09 12 1d 	sw $18,2456($29)
  404fe8:	34 00 00 00 94 09 11 1d 	sw $17,2452($29)
  404ff0:	34 00 00 00 c0 09 06 1d 	sw $6,2496($29)
  404ff8:	05 00 00 00 1c 00 00 14 	beq $20,$0,405070 <vfprintf+0xf0>
  405000:	28 00 00 00 00 00 03 14 	lw $3,0($20)
  405008:	a2 00 00 00 ed fe 02 00 	lui $2,65261
  405010:	51 00 00 00 be ba 02 02 	ori $2,$2,47806
  405018:	06 00 00 00 04 00 02 03 	bne $3,$2,405030 <vfprintf+0xb0>
  405020:	28 00 00 00 04 00 02 14 	lw $2,4($20)
  405028:	28 00 00 00 00 00 14 02 	lw $20,0($2)
  405030:	28 00 00 00 00 00 03 14 	lw $3,0($20)
  405038:	a2 00 00 00 da fe 02 00 	lui $2,65242
  405040:	51 00 00 00 eb be 02 02 	ori $2,$2,48875
  405048:	06 00 00 00 08 00 02 03 	bne $3,$2,405070 <vfprintf+0xf0>
  405050:	28 00 00 00 1c 00 02 14 	lw $2,28($20)
  405058:	4f 00 00 00 02 00 02 02 	andi $2,$2,2
  405060:	05 00 00 00 02 00 00 02 	beq $2,$0,405070 <vfprintf+0xf0>
  405068:	06 00 00 00 08 00 00 10 	bne $16,$0,405090 <vfprintf+0x110>
  405070:	43 00 00 00 16 00 02 00 	addiu $2,$0,22
  405078:	34 00 00 00 60 84 02 1c 	sw $2,-31648($28)
  405080:	43 00 00 00 ff ff 02 00 	addiu $2,$0,-1
  405088:	01 00 00 00 26 1d 10 00 	j 407498 <vfprintf+0x2518>
  405090:	28 00 00 00 4c 00 02 14 	lw $2,76($20)
  405098:	4f 00 00 00 00 40 02 02 	andi $2,$2,16384
  4050a0:	06 00 00 00 0a 00 00 02 	bne $2,$0,4050d0 <vfprintf+0x150>
  4050a8:	42 00 00 00 00 04 14 00 	addu $4,$0,$20
  4050b0:	43 00 00 00 ff ff 05 00 	addiu $5,$0,-1
  4050b8:	02 00 00 00 84 0f 10 00 	jal 403e10 <__flshfp>
  4050c0:	43 00 00 00 ff ff 03 00 	addiu $3,$0,-1
  4050c8:	05 00 00 00 ec ff 03 02 	beq $2,$3,405080 <vfprintf+0x100>
  4050d0:	28 00 00 00 10 00 02 14 	lw $2,16($20)
  4050d8:	5e 00 00 00 01 00 02 02 	sltiu $2,$2,1
  4050e0:	30 00 00 00 20 09 02 1d 	sb $2,2336($29)
  4050e8:	05 00 00 00 14 00 00 02 	beq $2,$0,405140 <vfprintf+0x1c0>
  4050f0:	43 00 00 00 10 00 02 1d 	addiu $2,$29,16
  4050f8:	34 00 00 00 10 00 02 14 	sw $2,16($20)
  405100:	28 00 00 00 10 00 03 14 	lw $3,16($20)
  405108:	28 00 00 00 10 00 04 14 	lw $4,16($20)
  405110:	34 00 00 00 04 00 02 14 	sw $2,4($20)
  405118:	43 00 00 00 00 04 02 00 	addiu $2,$0,1024
  405120:	34 00 00 00 14 00 02 14 	sw $2,20($20)
  405128:	43 00 00 00 00 04 03 03 	addiu $3,$3,1024
  405130:	34 00 00 00 0c 00 03 14 	sw $3,12($20)
  405138:	34 00 00 00 08 00 04 14 	sw $4,8($20)
  405140:	42 00 00 00 00 04 00 00 	addu $4,$0,$0
  405148:	42 00 00 00 00 05 00 00 	addu $5,$0,$0
  405150:	42 00 00 00 00 06 00 00 	addu $6,$0,$0
  405158:	02 00 00 00 5c 30 10 00 	jal 40c170 <mbtowc>
  405160:	42 00 00 00 00 08 10 00 	addu $8,$0,$16
  405168:	01 00 00 00 06 1d 10 00 	j 407418 <vfprintf+0x2498>
  405170:	4f 00 00 00 80 00 02 03 	andi $2,$3,128
  405178:	05 00 00 00 4c 00 00 02 	beq $2,$0,4052b0 <vfprintf+0x330>
  405180:	42 00 00 00 00 04 08 00 	addu $4,$0,$8
  405188:	34 00 00 00 80 09 08 1d 	sw $8,2432($29)
  405190:	02 00 00 00 e8 30 10 00 	jal 40c3a0 <strlen>
  405198:	28 00 00 00 80 09 08 1d 	lw $8,2432($29)
  4051a0:	42 00 00 00 00 04 00 00 	addu $4,$0,$0
  4051a8:	42 00 00 00 00 06 02 00 	addu $6,$0,$2
  4051b0:	42 00 00 00 00 05 08 00 	addu $5,$0,$8
  4051b8:	02 00 00 00 5c 30 10 00 	jal 40c170 <mbtowc>
  4051c0:	28 00 00 00 80 09 08 1d 	lw $8,2432($29)
  4051c8:	42 00 00 00 00 10 02 00 	addu $16,$0,$2
  4051d0:	07 00 00 00 36 00 00 10 	blez $16,4052b0 <vfprintf+0x330>
  4051d8:	43 00 00 00 ff ff 10 10 	addiu $16,$16,-1
  4051e0:	20 00 00 00 00 00 05 08 	lb $5,0($8)
  4051e8:	28 00 00 00 04 00 03 14 	lw $3,4($20)
  4051f0:	28 00 00 00 0c 00 02 14 	lw $2,12($20)
  4051f8:	43 00 00 00 01 00 08 08 	addiu $8,$8,1
  405200:	5d 00 00 00 00 02 02 03 	sltu $2,$3,$2
  405208:	05 00 00 00 10 00 00 02 	beq $2,$0,405250 <vfprintf+0x2d0>
  405210:	43 00 00 00 01 00 02 03 	addiu $2,$3,1
  405218:	34 00 00 00 04 00 02 14 	sw $2,4($20)
  405220:	42 00 00 00 00 02 05 00 	addu $2,$0,$5
  405228:	30 00 00 00 00 00 02 03 	sb $2,0($3)
  405230:	4f 00 00 00 ff 00 02 02 	andi $2,$2,255
  405238:	43 00 00 00 ff ff 0f 00 	addiu $15,$0,-1
  405240:	05 00 00 00 ac 00 0f 02 	beq $2,$15,4054f8 <vfprintf+0x578>
  405248:	01 00 00 00 a2 14 10 00 	j 405288 <vfprintf+0x308>
  405250:	42 00 00 00 00 04 14 00 	addu $4,$0,$20
  405258:	4f 00 00 00 ff 00 05 05 	andi $5,$5,255
  405260:	34 00 00 00 80 09 08 1d 	sw $8,2432($29)
  405268:	02 00 00 00 84 0f 10 00 	jal 403e10 <__flshfp>
  405270:	28 00 00 00 80 09 08 1d 	lw $8,2432($29)
  405278:	43 00 00 00 ff ff 0e 00 	addiu $14,$0,-1
  405280:	05 00 00 00 9c 00 0e 02 	beq $2,$14,4054f8 <vfprintf+0x578>
  405288:	43 00 00 00 01 00 15 15 	addiu $21,$21,1
  405290:	42 00 00 00 00 02 10 00 	addu $2,$0,$16
  405298:	43 00 00 00 ff ff 10 10 	addiu $16,$16,-1
  4052a0:	08 00 00 00 ce ff 00 02 	bgtz $2,4051e0 <vfprintf+0x260>
  4052a8:	01 00 00 00 06 1d 10 00 	j 407418 <vfprintf+0x2498>
  4052b0:	20 00 00 00 00 00 03 08 	lb $3,0($8)
  4052b8:	43 00 00 00 25 00 02 00 	addiu $2,$0,37
  4052c0:	05 00 00 00 6e 00 02 03 	beq $3,$2,405480 <vfprintf+0x500>
  4052c8:	43 00 00 00 01 00 10 08 	addiu $16,$8,1
  4052d0:	42 00 00 00 00 04 10 00 	addu $4,$0,$16
  4052d8:	43 00 00 00 25 00 05 00 	addiu $5,$0,37
  4052e0:	34 00 00 00 80 09 08 1d 	sw $8,2432($29)
  4052e8:	02 00 00 00 3c 31 10 00 	jal 40c4f0 <strchr>
  4052f0:	28 00 00 00 80 09 08 1d 	lw $8,2432($29)
  4052f8:	42 00 00 00 00 11 02 00 	addu $17,$0,$2
  405300:	06 00 00 00 0c 00 00 11 	bne $17,$0,405338 <vfprintf+0x3b8>
  405308:	42 00 00 00 00 04 10 00 	addu $4,$0,$16
  405310:	42 00 00 00 00 05 00 00 	addu $5,$0,$0
  405318:	34 00 00 00 80 09 08 1d 	sw $8,2432($29)
  405320:	02 00 00 00 3c 31 10 00 	jal 40c4f0 <strchr>
  405328:	42 00 00 00 00 11 02 00 	addu $17,$0,$2
  405330:	28 00 00 00 80 09 08 1d 	lw $8,2432($29)
  405338:	45 00 00 00 00 10 08 11 	subu $16,$17,$8
  405340:	5c 00 00 00 15 00 02 10 	slti $2,$16,21
  405348:	06 00 00 00 16 00 00 02 	bne $2,$0,4053a8 <vfprintf+0x428>
  405350:	42 00 00 00 00 04 08 00 	addu $4,$0,$8
  405358:	43 00 00 00 01 00 05 00 	addiu $5,$0,1
  405360:	42 00 00 00 00 06 10 00 	addu $6,$0,$16
  405368:	42 00 00 00 00 07 14 00 	addu $7,$0,$20
  405370:	34 00 00 00 80 09 08 1d 	sw $8,2432($29)
  405378:	02 00 00 00 a4 31 10 00 	jal 40c690 <fwrite>
  405380:	28 00 00 00 80 09 08 1d 	lw $8,2432($29)
  405388:	42 00 00 00 00 15 02 15 	addu $21,$21,$2
  405390:	06 00 00 00 26 08 10 02 	bne $2,$16,407430 <vfprintf+0x24b0>
  405398:	42 00 00 00 00 08 02 08 	addu $8,$8,$2
  4053a0:	01 00 00 00 06 1d 10 00 	j 407418 <vfprintf+0x2498>
  4053a8:	5d 00 00 00 00 02 11 08 	sltu $2,$8,$17
  4053b0:	05 00 00 00 18 08 00 02 	beq $2,$0,407418 <vfprintf+0x2498>
  4053b8:	20 00 00 00 00 00 05 08 	lb $5,0($8)
  4053c0:	28 00 00 00 04 00 03 14 	lw $3,4($20)
  4053c8:	28 00 00 00 0c 00 02 14 	lw $2,12($20)
  4053d0:	43 00 00 00 01 00 08 08 	addiu $8,$8,1
  4053d8:	5d 00 00 00 00 02 02 03 	sltu $2,$3,$2
  4053e0:	05 00 00 00 10 00 00 02 	beq $2,$0,405428 <vfprintf+0x4a8>
  4053e8:	43 00 00 00 01 00 02 03 	addiu $2,$3,1
  4053f0:	34 00 00 00 04 00 02 14 	sw $2,4($20)
  4053f8:	42 00 00 00 00 02 05 00 	addu $2,$0,$5
  405400:	30 00 00 00 00 00 02 03 	sb $2,0($3)
  405408:	4f 00 00 00 ff 00 02 02 	andi $2,$2,255
  405410:	43 00 00 00 ff ff 0f 00 	addiu $15,$0,-1
  405418:	05 00 00 00 36 00 0f 02 	beq $2,$15,4054f8 <vfprintf+0x578>
  405420:	01 00 00 00 18 15 10 00 	j 405460 <vfprintf+0x4e0>
  405428:	42 00 00 00 00 04 14 00 	addu $4,$0,$20
  405430:	4f 00 00 00 ff 00 05 05 	andi $5,$5,255
  405438:	34 00 00 00 80 09 08 1d 	sw $8,2432($29)
  405440:	02 00 00 00 84 0f 10 00 	jal 403e10 <__flshfp>
  405448:	28 00 00 00 80 09 08 1d 	lw $8,2432($29)
  405450:	43 00 00 00 ff ff 0e 00 	addiu $14,$0,-1
  405458:	05 00 00 00 26 00 0e 02 	beq $2,$14,4054f8 <vfprintf+0x578>
  405460:	43 00 00 00 01 00 15 15 	addiu $21,$21,1
  405468:	5d 00 00 00 00 02 11 08 	sltu $2,$8,$17
  405470:	06 00 00 00 d0 ff 00 02 	bne $2,$0,4053b8 <vfprintf+0x438>
  405478:	01 00 00 00 06 1d 10 00 	j 407418 <vfprintf+0x2498>
  405480:	43 00 00 00 01 00 08 08 	addiu $8,$8,1
  405488:	20 00 00 00 00 00 02 08 	lb $2,0($8)
  405490:	06 00 00 00 28 00 03 02 	bne $2,$3,405538 <vfprintf+0x5b8>
  405498:	43 00 00 00 01 00 08 08 	addiu $8,$8,1
  4054a0:	28 00 00 00 04 00 03 14 	lw $3,4($20)
  4054a8:	28 00 00 00 0c 00 02 14 	lw $2,12($20)
  4054b0:	5d 00 00 00 00 02 02 03 	sltu $2,$3,$2
  4054b8:	06 00 00 00 12 00 00 02 	bne $2,$0,405508 <vfprintf+0x588>
  4054c0:	42 00 00 00 00 04 14 00 	addu $4,$0,$20
  4054c8:	43 00 00 00 25 00 05 00 	addiu $5,$0,37
  4054d0:	34 00 00 00 80 09 08 1d 	sw $8,2432($29)
  4054d8:	02 00 00 00 84 0f 10 00 	jal 403e10 <__flshfp>
  4054e0:	28 00 00 00 80 09 08 1d 	lw $8,2432($29)
  4054e8:	43 00 00 00 ff ff 0f 00 	addiu $15,$0,-1
  4054f0:	06 00 00 00 0c 00 0f 02 	bne $2,$15,405528 <vfprintf+0x5a8>
  4054f8:	43 00 00 00 ff ff 15 00 	addiu $21,$0,-1
  405500:	01 00 00 00 0c 1d 10 00 	j 407430 <vfprintf+0x24b0>
  405508:	43 00 00 00 01 00 02 03 	addiu $2,$3,1
  405510:	34 00 00 00 04 00 02 14 	sw $2,4($20)
  405518:	43 00 00 00 25 00 02 00 	addiu $2,$0,37
  405520:	30 00 00 00 00 00 02 03 	sb $2,0($3)
  405528:	43 00 00 00 01 00 15 15 	addiu $21,$21,1
  405530:	01 00 00 00 06 1d 10 00 	j 407418 <vfprintf+0x2498>
  405538:	42 00 00 00 00 0d 00 00 	addu $13,$0,$0
  405540:	42 00 00 00 00 0c 00 00 	addu $12,$0,$0
  405548:	43 00 00 00 20 00 0e 00 	addiu $14,$0,32
  405550:	43 00 00 00 2b 00 07 00 	addiu $7,$0,43
  405558:	43 00 00 00 2d 00 06 00 	addiu $6,$0,45
  405560:	43 00 00 00 23 00 05 00 	addiu $5,$0,35
  405568:	43 00 00 00 30 00 04 00 	addiu $4,$0,48
  405570:	a2 00 00 00 00 10 09 00 	lui $9,4096
  405578:	43 00 00 00 88 02 09 09 	addiu $9,$9,648
  405580:	43 00 00 00 20 00 0f 00 	addiu $15,$0,32
  405588:	30 00 00 00 38 09 00 1d 	sb $0,2360($29)
  405590:	30 00 00 00 30 09 00 1d 	sb $0,2352($29)
  405598:	30 00 00 00 40 09 0e 1d 	sb $14,2368($29)
  4055a0:	01 00 00 00 9c 15 10 00 	j 405670 <vfprintf+0x6f0>
  4055a8:	22 00 00 00 00 00 02 08 	lbu $2,0($8)
  4055b0:	43 00 00 00 01 00 08 08 	addiu $8,$8,1
  4055b8:	43 00 00 00 e0 ff 02 02 	addiu $2,$2,-32
  4055c0:	55 00 00 00 18 02 02 00 	sll $2,$2,0x18
  4055c8:	59 00 00 00 18 03 02 00 	sra $3,$2,0x18
  4055d0:	5e 00 00 00 11 00 02 03 	sltiu $2,$3,17
  4055d8:	05 00 00 00 20 00 00 02 	beq $2,$0,405660 <vfprintf+0x6e0>
  4055e0:	55 00 00 00 02 02 03 00 	sll $2,$3,0x2
  4055e8:	42 00 00 00 00 02 09 02 	addu $2,$2,$9
  4055f0:	28 00 00 00 00 00 02 02 	lw $2,0($2)
  4055f8:	03 00 00 00 00 00 00 02 	jr $2
  405600:	43 00 00 00 01 00 0c 00 	addiu $12,$0,1
  405608:	01 00 00 00 98 15 10 00 	j 405660 <vfprintf+0x6e0>
  405610:	43 00 00 00 01 00 0d 00 	addiu $13,$0,1
  405618:	01 00 00 00 98 15 10 00 	j 405660 <vfprintf+0x6e0>
  405620:	43 00 00 00 01 00 0e 00 	addiu $14,$0,1
  405628:	30 00 00 00 30 09 0e 1d 	sb $14,2352($29)
  405630:	01 00 00 00 98 15 10 00 	j 405660 <vfprintf+0x6e0>
  405638:	43 00 00 00 01 00 0f 00 	addiu $15,$0,1
  405640:	30 00 00 00 38 09 0f 1d 	sb $15,2360($29)
  405648:	01 00 00 00 98 15 10 00 	j 405660 <vfprintf+0x6e0>
  405650:	43 00 00 00 30 00 0e 00 	addiu $14,$0,48
  405658:	30 00 00 00 40 09 0e 1d 	sb $14,2368($29)
  405660:	20 00 00 00 00 00 02 08 	lb $2,0($8)
  405668:	43 00 00 00 20 00 0f 00 	addiu $15,$0,32
  405670:	05 00 00 00 cc ff 0f 02 	beq $2,$15,4055a8 <vfprintf+0x628>
  405678:	05 00 00 00 ca ff 07 02 	beq $2,$7,4055a8 <vfprintf+0x628>
  405680:	05 00 00 00 c8 ff 06 02 	beq $2,$6,4055a8 <vfprintf+0x628>
  405688:	05 00 00 00 c6 ff 05 02 	beq $2,$5,4055a8 <vfprintf+0x628>
  405690:	05 00 00 00 c4 ff 04 02 	beq $2,$4,4055a8 <vfprintf+0x628>
  405698:	22 00 00 00 30 09 0e 1d 	lbu $14,2352($29)
  4056a0:	42 00 00 00 00 02 0e 00 	addu $2,$0,$14
  4056a8:	05 00 00 00 04 00 00 02 	beq $2,$0,4056c0 <vfprintf+0x740>
  4056b0:	43 00 00 00 20 00 0f 00 	addiu $15,$0,32
  4056b8:	30 00 00 00 40 09 0f 1d 	sb $15,2368($29)
  4056c0:	20 00 00 00 00 00 03 08 	lb $3,0($8)
  4056c8:	42 00 00 00 00 16 00 00 	addu $22,$0,$0
  4056d0:	43 00 00 00 2a 00 02 00 	addiu $2,$0,42
  4056d8:	06 00 00 00 1a 00 02 03 	bne $3,$2,405748 <vfprintf+0x7c8>
  4056e0:	28 00 00 00 c0 09 02 1d 	lw $2,2496($29)
  4056e8:	43 00 00 00 fc ff 03 00 	addiu $3,$0,-4
  4056f0:	43 00 00 00 03 00 02 02 	addiu $2,$2,3
  4056f8:	4e 00 00 00 00 02 03 02 	and $2,$2,$3
  405700:	28 00 00 00 00 00 16 02 	lw $22,0($2)
  405708:	43 00 00 00 04 00 02 02 	addiu $2,$2,4
  405710:	34 00 00 00 c0 09 02 1d 	sw $2,2496($29)
  405718:	0a 00 00 00 06 00 00 16 	bgez $22,405738 <vfprintf+0x7b8>
  405720:	45 00 00 00 00 16 16 00 	subu $22,$0,$22
  405728:	43 00 00 00 01 00 0e 00 	addiu $14,$0,1
  405730:	30 00 00 00 30 09 0e 1d 	sb $14,2352($29)
  405738:	43 00 00 00 01 00 08 08 	addiu $8,$8,1
  405740:	01 00 00 00 f8 15 10 00 	j 4057e0 <vfprintf+0x860>
  405748:	28 00 00 00 20 81 05 1c 	lw $5,-32480($28)
  405750:	55 00 00 00 01 02 03 00 	sll $2,$3,0x1
  405758:	42 00 00 00 00 02 05 02 	addu $2,$2,$5
  405760:	26 00 00 00 00 00 02 02 	lhu $2,0($2)
  405768:	4f 00 00 00 08 00 02 02 	andi $2,$2,8
  405770:	05 00 00 00 1a 00 00 02 	beq $2,$0,4057e0 <vfprintf+0x860>
  405778:	20 00 00 00 00 00 04 08 	lb $4,0($8)
  405780:	55 00 00 00 02 03 16 00 	sll $3,$22,0x2
  405788:	43 00 00 00 01 00 08 08 	addiu $8,$8,1
  405790:	20 00 00 00 00 00 02 08 	lb $2,0($8)
  405798:	42 00 00 00 00 03 16 03 	addu $3,$3,$22
  4057a0:	55 00 00 00 01 16 03 00 	sll $22,$3,0x1
  4057a8:	55 00 00 00 01 02 02 00 	sll $2,$2,0x1
  4057b0:	42 00 00 00 00 02 05 02 	addu $2,$2,$5
  4057b8:	26 00 00 00 00 00 03 02 	lhu $3,0($2)
  4057c0:	43 00 00 00 d0 ff 02 16 	addiu $2,$22,-48
  4057c8:	42 00 00 00 00 16 04 02 	addu $22,$2,$4
  4057d0:	4f 00 00 00 08 00 03 03 	andi $3,$3,8
  4057d8:	06 00 00 00 e6 ff 00 03 	bne $3,$0,405778 <vfprintf+0x7f8>
  4057e0:	20 00 00 00 00 00 03 08 	lb $3,0($8)
  4057e8:	43 00 00 00 ff ff 1e 00 	addiu $30,$0,-1
  4057f0:	43 00 00 00 2e 00 02 00 	addiu $2,$0,46
  4057f8:	06 00 00 00 4c 00 02 03 	bne $3,$2,405930 <vfprintf+0x9b0>
  405800:	43 00 00 00 01 00 08 08 	addiu $8,$8,1
  405808:	20 00 00 00 00 00 03 08 	lb $3,0($8)
  405810:	43 00 00 00 2a 00 02 00 	addiu $2,$0,42
  405818:	06 00 00 00 16 00 02 03 	bne $3,$2,405878 <vfprintf+0x8f8>
  405820:	28 00 00 00 c0 09 02 1d 	lw $2,2496($29)
  405828:	43 00 00 00 fc ff 03 00 	addiu $3,$0,-4
  405830:	43 00 00 00 03 00 02 02 	addiu $2,$2,3
  405838:	4e 00 00 00 00 02 03 02 	and $2,$2,$3
  405840:	28 00 00 00 00 00 1e 02 	lw $30,0($2)
  405848:	43 00 00 00 04 00 02 02 	addiu $2,$2,4
  405850:	34 00 00 00 c0 09 02 1d 	sw $2,2496($29)
  405858:	0a 00 00 00 02 00 00 1e 	bgez $30,405868 <vfprintf+0x8e8>
  405860:	43 00 00 00 ff ff 1e 00 	addiu $30,$0,-1
  405868:	43 00 00 00 01 00 08 08 	addiu $8,$8,1
  405870:	01 00 00 00 4c 16 10 00 	j 405930 <vfprintf+0x9b0>
  405878:	28 00 00 00 20 81 04 1c 	lw $4,-32480($28)
  405880:	55 00 00 00 01 02 03 00 	sll $2,$3,0x1
  405888:	42 00 00 00 00 02 04 02 	addu $2,$2,$4
  405890:	26 00 00 00 00 00 02 02 	lhu $2,0($2)
  405898:	4f 00 00 00 08 00 02 02 	andi $2,$2,8
  4058a0:	05 00 00 00 22 00 00 02 	beq $2,$0,405930 <vfprintf+0x9b0>
  4058a8:	42 00 00 00 00 1e 00 00 	addu $30,$0,$0
  4058b0:	05 00 00 00 1e 00 00 03 	beq $3,$0,405930 <vfprintf+0x9b0>
  4058b8:	42 00 00 00 00 05 04 00 	addu $5,$0,$4
  4058c0:	20 00 00 00 00 00 04 08 	lb $4,0($8)
  4058c8:	55 00 00 00 01 02 04 00 	sll $2,$4,0x1
  4058d0:	42 00 00 00 00 02 05 02 	addu $2,$2,$5
  4058d8:	26 00 00 00 00 00 02 02 	lhu $2,0($2)
  4058e0:	4f 00 00 00 08 00 02 02 	andi $2,$2,8
  4058e8:	05 00 00 00 10 00 00 02 	beq $2,$0,405930 <vfprintf+0x9b0>
  4058f0:	55 00 00 00 02 02 1e 00 	sll $2,$30,0x2
  4058f8:	42 00 00 00 00 02 1e 02 	addu $2,$2,$30
  405900:	55 00 00 00 01 1e 02 00 	sll $30,$2,0x1
  405908:	43 00 00 00 01 00 08 08 	addiu $8,$8,1
  405910:	20 00 00 00 00 00 03 08 	lb $3,0($8)
  405918:	43 00 00 00 d0 ff 02 1e 	addiu $2,$30,-48
  405920:	42 00 00 00 00 1e 04 02 	addu $30,$2,$4
  405928:	06 00 00 00 e4 ff 00 03 	bne $3,$0,4058c0 <vfprintf+0x940>
  405930:	42 00 00 00 00 07 00 00 	addu $7,$0,$0
  405938:	42 00 00 00 00 0a 00 00 	addu $10,$0,$0
  405940:	20 00 00 00 00 00 03 08 	lb $3,0($8)
  405948:	42 00 00 00 00 0b 00 00 	addu $11,$0,$0
  405950:	01 00 00 00 84 16 10 00 	j 405a10 <vfprintf+0xa90>
  405958:	22 00 00 00 00 00 02 08 	lbu $2,0($8)
  405960:	43 00 00 00 01 00 08 08 	addiu $8,$8,1
  405968:	43 00 00 00 b4 ff 02 02 	addiu $2,$2,-76
  405970:	55 00 00 00 18 02 02 00 	sll $2,$2,0x18
  405978:	59 00 00 00 18 03 02 00 	sra $3,$2,0x18
  405980:	5e 00 00 00 26 00 02 03 	sltiu $2,$3,38
  405988:	05 00 00 00 1e 00 00 02 	beq $2,$0,405a08 <vfprintf+0xa88>
  405990:	55 00 00 00 02 02 03 00 	sll $2,$3,0x2
  405998:	a2 00 00 00 00 10 01 00 	lui $1,4096
  4059a0:	42 00 00 00 00 01 02 01 	addu $1,$1,$2
  4059a8:	28 00 00 00 d0 02 02 01 	lw $2,720($1)
  4059b0:	03 00 00 00 00 00 00 02 	jr $2
  4059b8:	43 00 00 00 01 00 0b 00 	addiu $11,$0,1
  4059c0:	01 00 00 00 82 16 10 00 	j 405a08 <vfprintf+0xa88>
  4059c8:	42 00 00 00 00 02 0a 00 	addu $2,$0,$10
  4059d0:	06 00 00 00 0a 00 00 02 	bne $2,$0,405a00 <vfprintf+0xa80>
  4059d8:	43 00 00 00 01 00 0a 00 	addiu $10,$0,1
  4059e0:	01 00 00 00 82 16 10 00 	j 405a08 <vfprintf+0xa88>
  4059e8:	42 00 00 00 00 07 00 00 	addu $7,$0,$0
  4059f0:	42 00 00 00 00 0a 00 00 	addu $10,$0,$0
  4059f8:	01 00 00 00 82 16 10 00 	j 405a08 <vfprintf+0xa88>
  405a00:	43 00 00 00 01 00 07 00 	addiu $7,$0,1
  405a08:	20 00 00 00 00 00 03 08 	lb $3,0($8)
  405a10:	43 00 00 00 68 00 02 00 	addiu $2,$0,104
  405a18:	05 00 00 00 ce ff 02 03 	beq $3,$2,405958 <vfprintf+0x9d8>
  405a20:	43 00 00 00 6c 00 02 00 	addiu $2,$0,108
  405a28:	05 00 00 00 ca ff 02 03 	beq $3,$2,405958 <vfprintf+0x9d8>
  405a30:	43 00 00 00 4c 00 02 00 	addiu $2,$0,76
  405a38:	05 00 00 00 c6 ff 02 03 	beq $3,$2,405958 <vfprintf+0x9d8>
  405a40:	43 00 00 00 71 00 02 00 	addiu $2,$0,113
  405a48:	05 00 00 00 c2 ff 02 03 	beq $3,$2,405958 <vfprintf+0x9d8>
  405a50:	22 00 00 00 00 00 0f 08 	lbu $15,0($8)
  405a58:	28 00 00 00 f0 84 03 1c 	lw $3,-31504($28)
  405a60:	43 00 00 00 01 00 08 08 	addiu $8,$8,1
  405a68:	30 00 00 00 50 09 0f 1d 	sb $15,2384($29)
  405a70:	05 00 00 00 0a 00 00 03 	beq $3,$0,405aa0 <vfprintf+0xb20>
  405a78:	55 00 00 00 18 02 0f 00 	sll $2,$15,0x18
  405a80:	59 00 00 00 16 02 02 00 	sra $2,$2,0x16
  405a88:	42 00 00 00 00 02 03 02 	addu $2,$2,$3
  405a90:	28 00 00 00 00 00 09 02 	lw $9,0($2)
  405a98:	01 00 00 00 aa 16 10 00 	j 405aa8 <vfprintf+0xb28>
  405aa0:	42 00 00 00 00 09 00 00 	addu $9,$0,$0
  405aa8:	06 00 00 00 fe 05 00 09 	bne $9,$0,4072a8 <vfprintf+0x2328>
  405ab0:	22 00 00 00 50 09 0e 1d 	lbu $14,2384($29)
  405ab8:	43 00 00 00 bb ff 02 0e 	addiu $2,$14,-69
  405ac0:	55 00 00 00 18 02 02 00 	sll $2,$2,0x18
  405ac8:	59 00 00 00 18 03 02 00 	sra $3,$2,0x18
  405ad0:	5e 00 00 00 34 00 02 03 	sltiu $2,$3,52
  405ad8:	05 00 00 00 ee 05 00 02 	beq $2,$0,407298 <vfprintf+0x2318>
  405ae0:	55 00 00 00 02 02 03 00 	sll $2,$3,0x2
  405ae8:	a2 00 00 00 00 10 01 00 	lui $1,4096
  405af0:	42 00 00 00 00 01 02 01 	addu $1,$1,$2
  405af8:	28 00 00 00 68 03 02 01 	lw $2,872($1)
  405b00:	03 00 00 00 00 00 00 02 	jr $2
  405b08:	43 00 00 00 0a 00 0f 00 	addiu $15,$0,10
  405b10:	34 00 00 00 58 09 0f 1d 	sw $15,2392($29)
  405b18:	42 00 00 00 00 02 07 00 	addu $2,$0,$7
  405b20:	05 00 00 00 10 00 00 02 	beq $2,$0,405b68 <vfprintf+0xbe8>
  405b28:	28 00 00 00 c0 09 02 1d 	lw $2,2496($29)
  405b30:	43 00 00 00 f8 ff 03 00 	addiu $3,$0,-8
  405b38:	43 00 00 00 07 00 02 02 	addiu $2,$2,7
  405b40:	4e 00 00 00 00 02 03 02 	and $2,$2,$3
  405b48:	28 00 00 00 00 00 04 02 	lw $4,0($2)
  405b50:	28 00 00 00 04 00 05 02 	lw $5,4($2)
  405b58:	43 00 00 00 08 00 02 02 	addiu $2,$2,8
  405b60:	01 00 00 00 14 17 10 00 	j 405c50 <vfprintf+0xcd0>
  405b68:	42 00 00 00 00 02 0a 00 	addu $2,$0,$10
  405b70:	05 00 00 00 10 00 00 02 	beq $2,$0,405bb8 <vfprintf+0xc38>
  405b78:	28 00 00 00 c0 09 02 1d 	lw $2,2496($29)
  405b80:	43 00 00 00 fc ff 03 00 	addiu $3,$0,-4
  405b88:	43 00 00 00 03 00 02 02 	addiu $2,$2,3
  405b90:	4e 00 00 00 00 02 03 02 	and $2,$2,$3
  405b98:	28 00 00 00 00 00 03 02 	lw $3,0($2)
  405ba0:	43 00 00 00 04 00 02 02 	addiu $2,$2,4
  405ba8:	42 00 00 00 00 04 03 00 	addu $4,$0,$3
  405bb0:	01 00 00 00 12 17 10 00 	j 405c48 <vfprintf+0xcc8>
  405bb8:	42 00 00 00 00 02 0b 00 	addu $2,$0,$11
  405bc0:	06 00 00 00 10 00 00 02 	bne $2,$0,405c08 <vfprintf+0xc88>
  405bc8:	28 00 00 00 c0 09 02 1d 	lw $2,2496($29)
  405bd0:	43 00 00 00 fc ff 03 00 	addiu $3,$0,-4
  405bd8:	43 00 00 00 03 00 02 02 	addiu $2,$2,3
  405be0:	4e 00 00 00 00 02 03 02 	and $2,$2,$3
  405be8:	28 00 00 00 00 00 03 02 	lw $3,0($2)
  405bf0:	43 00 00 00 04 00 02 02 	addiu $2,$2,4
  405bf8:	42 00 00 00 00 04 03 00 	addu $4,$0,$3
  405c00:	01 00 00 00 12 17 10 00 	j 405c48 <vfprintf+0xcc8>
  405c08:	28 00 00 00 c0 09 02 1d 	lw $2,2496($29)
  405c10:	43 00 00 00 fc ff 03 00 	addiu $3,$0,-4
  405c18:	43 00 00 00 03 00 02 02 	addiu $2,$2,3
  405c20:	4e 00 00 00 00 02 03 02 	and $2,$2,$3
  405c28:	26 00 00 00 00 00 03 02 	lhu $3,0($2)
  405c30:	43 00 00 00 04 00 02 02 	addiu $2,$2,4
  405c38:	55 00 00 00 10 03 03 00 	sll $3,$3,0x10
  405c40:	59 00 00 00 10 04 03 00 	sra $4,$3,0x10
  405c48:	59 00 00 00 1f 05 03 00 	sra $5,$3,0x1f
  405c50:	34 00 00 00 c0 09 02 1d 	sw $2,2496($29)
  405c58:	57 00 00 00 1f 02 05 00 	srl $2,$5,0x1f
  405c60:	30 00 00 00 48 09 02 1d 	sb $2,2376($29)
  405c68:	42 00 00 00 00 10 04 00 	addu $16,$0,$4
  405c70:	42 00 00 00 00 11 05 00 	addu $17,$0,$5
  405c78:	05 00 00 00 62 00 00 02 	beq $2,$0,405e08 <vfprintf+0xe88>
  405c80:	45 00 00 00 00 10 10 00 	subu $16,$0,$16
  405c88:	45 00 00 00 00 11 11 00 	subu $17,$0,$17
  405c90:	5d 00 00 00 00 02 10 00 	sltu $2,$0,$16
  405c98:	45 00 00 00 00 11 02 11 	subu $17,$17,$2
  405ca0:	01 00 00 00 82 17 10 00 	j 405e08 <vfprintf+0xe88>
  405ca8:	43 00 00 00 0a 00 0e 00 	addiu $14,$0,10
  405cb0:	01 00 00 00 36 17 10 00 	j 405cd8 <vfprintf+0xd58>
  405cb8:	43 00 00 00 08 00 0f 00 	addiu $15,$0,8
  405cc0:	34 00 00 00 58 09 0f 1d 	sw $15,2392($29)
  405cc8:	01 00 00 00 38 17 10 00 	j 405ce0 <vfprintf+0xd60>
  405cd0:	43 00 00 00 10 00 0e 00 	addiu $14,$0,16
  405cd8:	34 00 00 00 58 09 0e 1d 	sw $14,2392($29)
  405ce0:	42 00 00 00 00 02 07 00 	addu $2,$0,$7
  405ce8:	05 00 00 00 10 00 00 02 	beq $2,$0,405d30 <vfprintf+0xdb0>
  405cf0:	28 00 00 00 c0 09 02 1d 	lw $2,2496($29)
  405cf8:	43 00 00 00 f8 ff 03 00 	addiu $3,$0,-8
  405d00:	43 00 00 00 07 00 02 02 	addiu $2,$2,7
  405d08:	4e 00 00 00 00 02 03 02 	and $2,$2,$3
  405d10:	28 00 00 00 00 00 10 02 	lw $16,0($2)
  405d18:	28 00 00 00 04 00 11 02 	lw $17,4($2)
  405d20:	43 00 00 00 08 00 02 02 	addiu $2,$2,8
  405d28:	01 00 00 00 7a 17 10 00 	j 405de8 <vfprintf+0xe68>
  405d30:	42 00 00 00 00 02 0a 00 	addu $2,$0,$10
  405d38:	05 00 00 00 0c 00 00 02 	beq $2,$0,405d70 <vfprintf+0xdf0>
  405d40:	28 00 00 00 c0 09 02 1d 	lw $2,2496($29)
  405d48:	43 00 00 00 fc ff 03 00 	addiu $3,$0,-4
  405d50:	43 00 00 00 03 00 02 02 	addiu $2,$2,3
  405d58:	4e 00 00 00 00 02 03 02 	and $2,$2,$3
  405d60:	28 00 00 00 00 00 10 02 	lw $16,0($2)
  405d68:	01 00 00 00 76 17 10 00 	j 405dd8 <vfprintf+0xe58>
  405d70:	42 00 00 00 00 02 0b 00 	addu $2,$0,$11
  405d78:	06 00 00 00 0c 00 00 02 	bne $2,$0,405db0 <vfprintf+0xe30>
  405d80:	28 00 00 00 c0 09 02 1d 	lw $2,2496($29)
  405d88:	43 00 00 00 fc ff 03 00 	addiu $3,$0,-4
  405d90:	43 00 00 00 03 00 02 02 	addiu $2,$2,3
  405d98:	4e 00 00 00 00 02 03 02 	and $2,$2,$3
  405da0:	28 00 00 00 00 00 10 02 	lw $16,0($2)
  405da8:	01 00 00 00 76 17 10 00 	j 405dd8 <vfprintf+0xe58>
  405db0:	28 00 00 00 c0 09 02 1d 	lw $2,2496($29)
  405db8:	43 00 00 00 fc ff 03 00 	addiu $3,$0,-4
  405dc0:	43 00 00 00 03 00 02 02 	addiu $2,$2,3
  405dc8:	4e 00 00 00 00 02 03 02 	and $2,$2,$3
  405dd0:	26 00 00 00 00 00 10 02 	lhu $16,0($2)
  405dd8:	43 00 00 00 04 00 02 02 	addiu $2,$2,4
  405de0:	42 00 00 00 00 11 00 00 	addu $17,$0,$0
  405de8:	34 00 00 00 c0 09 02 1d 	sw $2,2496($29)
  405df0:	42 00 00 00 00 0c 00 00 	addu $12,$0,$0
  405df8:	42 00 00 00 00 0d 00 00 	addu $13,$0,$0
  405e00:	30 00 00 00 48 09 00 1d 	sb $0,2376($29)
  405e08:	43 00 00 00 0f 09 0f 1d 	addiu $15,$29,2319
  405e10:	34 00 00 00 60 09 0f 1d 	sw $15,2400($29)
  405e18:	43 00 00 00 ff ff 0e 00 	addiu $14,$0,-1
  405e20:	06 00 00 00 02 00 0e 1e 	bne $30,$14,405e30 <vfprintf+0xeb0>
  405e28:	43 00 00 00 01 00 1e 00 	addiu $30,$0,1
  405e30:	42 00 00 00 00 12 10 00 	addu $18,$0,$16
  405e38:	42 00 00 00 00 13 11 00 	addu $19,$0,$17
  405e40:	22 00 00 00 50 09 0e 1d 	lbu $14,2384($29)
  405e48:	a2 00 00 00 00 10 0f 00 	lui $15,4096
  405e50:	43 00 00 00 40 0e 0f 0f 	addiu $15,$15,3648
  405e58:	43 00 00 00 10 09 03 1d 	addiu $3,$29,2320
  405e60:	34 00 00 00 68 09 0f 1d 	sw $15,2408($29)
  405e68:	55 00 00 00 18 02 0e 00 	sll $2,$14,0x18
  405e70:	59 00 00 00 18 02 02 00 	sra $2,$2,0x18
  405e78:	53 00 00 00 58 00 02 02 	xori $2,$2,88
  405e80:	06 00 00 00 06 00 00 02 	bne $2,$0,405ea0 <vfprintf+0xf20>
  405e88:	a2 00 00 00 00 10 0f 00 	lui $15,4096
  405e90:	43 00 00 00 68 0e 0f 0f 	addiu $15,$15,3688
  405e98:	34 00 00 00 68 09 0f 1d 	sw $15,2408($29)
  405ea0:	42 00 00 00 00 17 03 00 	addu $23,$0,$3
  405ea8:	06 00 00 00 02 00 00 10 	bne $16,$0,405eb8 <vfprintf+0xf38>
  405eb0:	05 00 00 00 36 00 00 11 	beq $17,$0,405f90 <vfprintf+0x1010>
  405eb8:	28 00 00 00 58 09 10 1d 	lw $16,2392($29)
  405ec0:	42 00 00 00 00 04 12 00 	addu $4,$0,$18
  405ec8:	42 00 00 00 00 05 13 00 	addu $5,$0,$19
  405ed0:	34 00 00 00 80 09 08 1d 	sw $8,2432($29)
  405ed8:	34 00 00 00 84 09 0c 1d 	sw $12,2436($29)
  405ee0:	34 00 00 00 88 09 0d 1d 	sw $13,2440($29)
  405ee8:	42 00 00 00 00 11 00 00 	addu $17,$0,$0
  405ef0:	42 00 00 00 00 06 10 00 	addu $6,$0,$16
  405ef8:	42 00 00 00 00 07 11 00 	addu $7,$0,$17
  405f00:	02 00 00 00 5c 62 10 00 	jal 418970 <__umoddi3>
  405f08:	28 00 00 00 68 09 0e 1d 	lw $14,2408($29)
  405f10:	43 00 00 00 ff ff 17 17 	addiu $23,$23,-1
  405f18:	42 00 00 00 00 02 02 0e 	addu $2,$14,$2
  405f20:	22 00 00 00 00 00 02 02 	lbu $2,0($2)
  405f28:	42 00 00 00 00 04 12 00 	addu $4,$0,$18
  405f30:	42 00 00 00 00 05 13 00 	addu $5,$0,$19
  405f38:	42 00 00 00 00 06 10 00 	addu $6,$0,$16
  405f40:	42 00 00 00 00 07 11 00 	addu $7,$0,$17
  405f48:	30 00 00 00 00 00 02 17 	sb $2,0($23)
  405f50:	02 00 00 00 70 62 10 00 	jal 4189c0 <__udivdi3>
  405f58:	28 00 00 00 80 09 08 1d 	lw $8,2432($29)
  405f60:	28 00 00 00 84 09 0c 1d 	lw $12,2436($29)
  405f68:	28 00 00 00 88 09 0d 1d 	lw $13,2440($29)
  405f70:	42 00 00 00 00 12 02 00 	addu $18,$0,$2
  405f78:	42 00 00 00 00 13 03 00 	addu $19,$0,$3
  405f80:	06 00 00 00 cc ff 00 12 	bne $18,$0,405eb8 <vfprintf+0xf38>
  405f88:	06 00 00 00 ca ff 00 13 	bne $19,$0,405eb8 <vfprintf+0xf38>
  405f90:	28 00 00 00 60 09 0f 1d 	lw $15,2400($29)
  405f98:	43 00 00 00 ff ff 10 17 	addiu $16,$23,-1
  405fa0:	22 00 00 00 38 09 0e 1d 	lbu $14,2360($29)
  405fa8:	45 00 00 00 00 02 10 0f 	subu $2,$15,$16
  405fb0:	45 00 00 00 00 16 02 16 	subu $22,$22,$2
  405fb8:	45 00 00 00 00 1e 02 1e 	subu $30,$30,$2
  405fc0:	42 00 00 00 00 02 0e 00 	addu $2,$0,$14
  405fc8:	05 00 00 00 10 00 00 02 	beq $2,$0,406010 <vfprintf+0x1090>
  405fd0:	28 00 00 00 58 09 0f 1d 	lw $15,2392($29)
  405fd8:	43 00 00 00 08 00 02 00 	addiu $2,$0,8
  405fe0:	06 00 00 00 0a 00 02 0f 	bne $15,$2,406010 <vfprintf+0x1090>
  405fe8:	08 00 00 00 0a 00 00 1e 	bgtz $30,406018 <vfprintf+0x1098>
  405ff0:	43 00 00 00 30 00 02 00 	addiu $2,$0,48
  405ff8:	30 00 00 00 ff ff 02 17 	sb $2,-1($23)
  406000:	43 00 00 00 ff ff 10 10 	addiu $16,$16,-1
  406008:	43 00 00 00 ff ff 16 16 	addiu $22,$22,-1
  406010:	07 00 00 00 14 00 00 1e 	blez $30,406068 <vfprintf+0x10e8>
  406018:	45 00 00 00 00 16 1e 16 	subu $22,$22,$30
  406020:	42 00 00 00 00 02 1e 00 	addu $2,$0,$30
  406028:	43 00 00 00 ff ff 1e 1e 	addiu $30,$30,-1
  406030:	07 00 00 00 0c 00 00 02 	blez $2,406068 <vfprintf+0x10e8>
  406038:	43 00 00 00 30 00 03 00 	addiu $3,$0,48
  406040:	30 00 00 00 00 00 03 10 	sb $3,0($16)
  406048:	43 00 00 00 ff ff 10 10 	addiu $16,$16,-1
  406050:	42 00 00 00 00 02 1e 00 	addu $2,$0,$30
  406058:	43 00 00 00 ff ff 1e 1e 	addiu $30,$30,-1
  406060:	08 00 00 00 f6 ff 00 02 	bgtz $2,406040 <vfprintf+0x10c0>
  406068:	22 00 00 00 38 09 0e 1d 	lbu $14,2360($29)
  406070:	42 00 00 00 00 02 0e 00 	addu $2,$0,$14
  406078:	05 00 00 00 08 00 00 02 	beq $2,$0,4060a0 <vfprintf+0x1120>
  406080:	28 00 00 00 58 09 0f 1d 	lw $15,2392($29)
  406088:	43 00 00 00 10 00 02 00 	addiu $2,$0,16
  406090:	06 00 00 00 02 00 02 0f 	bne $15,$2,4060a0 <vfprintf+0x1120>
  406098:	43 00 00 00 fe ff 16 16 	addiu $22,$22,-2
  4060a0:	22 00 00 00 48 09 0e 1d 	lbu $14,2376($29)
  4060a8:	42 00 00 00 00 02 0e 00 	addu $2,$0,$14
  4060b0:	06 00 00 00 08 00 00 02 	bne $2,$0,4060d8 <vfprintf+0x1158>
  4060b8:	42 00 00 00 00 02 0d 00 	addu $2,$0,$13
  4060c0:	06 00 00 00 04 00 00 02 	bne $2,$0,4060d8 <vfprintf+0x1158>
  4060c8:	42 00 00 00 00 02 0c 00 	addu $2,$0,$12
  4060d0:	05 00 00 00 02 00 00 02 	beq $2,$0,4060e0 <vfprintf+0x1160>
  4060d8:	43 00 00 00 ff ff 16 16 	addiu $22,$22,-1
  4060e0:	22 00 00 00 30 09 0f 1d 	lbu $15,2352($29)
  4060e8:	42 00 00 00 00 02 0f 00 	addu $2,$0,$15
  4060f0:	06 00 00 00 38 00 00 02 	bne $2,$0,4061d8 <vfprintf+0x1258>
  4060f8:	22 00 00 00 40 09 0e 1d 	lbu $14,2368($29)
  406100:	43 00 00 00 20 00 0f 00 	addiu $15,$0,32
  406108:	06 00 00 00 32 00 0f 0e 	bne $14,$15,4061d8 <vfprintf+0x1258>
  406110:	01 00 00 00 70 18 10 00 	j 4061c0 <vfprintf+0x1240>
  406118:	28 00 00 00 04 00 03 14 	lw $3,4($20)
  406120:	28 00 00 00 0c 00 02 14 	lw $2,12($20)
  406128:	5d 00 00 00 00 02 02 03 	sltu $2,$3,$2
  406130:	06 00 00 00 18 00 00 02 	bne $2,$0,406198 <vfprintf+0x1218>
  406138:	42 00 00 00 00 04 14 00 	addu $4,$0,$20
  406140:	43 00 00 00 20 00 05 00 	addiu $5,$0,32
  406148:	34 00 00 00 80 09 08 1d 	sw $8,2432($29)
  406150:	34 00 00 00 84 09 0c 1d 	sw $12,2436($29)
  406158:	34 00 00 00 88 09 0d 1d 	sw $13,2440($29)
  406160:	02 00 00 00 84 0f 10 00 	jal 403e10 <__flshfp>
  406168:	28 00 00 00 80 09 08 1d 	lw $8,2432($29)
  406170:	28 00 00 00 84 09 0c 1d 	lw $12,2436($29)
  406178:	28 00 00 00 88 09 0d 1d 	lw $13,2440($29)
  406180:	43 00 00 00 ff ff 0e 00 	addiu $14,$0,-1
  406188:	06 00 00 00 0a 00 0e 02 	bne $2,$14,4061b8 <vfprintf+0x1238>
  406190:	01 00 00 00 3e 15 10 00 	j 4054f8 <vfprintf+0x578>
  406198:	43 00 00 00 01 00 02 03 	addiu $2,$3,1
  4061a0:	34 00 00 00 04 00 02 14 	sw $2,4($20)
  4061a8:	43 00 00 00 20 00 0f 00 	addiu $15,$0,32
  4061b0:	30 00 00 00 00 00 0f 03 	sb $15,0($3)
  4061b8:	43 00 00 00 01 00 15 15 	addiu $21,$21,1
  4061c0:	42 00 00 00 00 02 16 00 	addu $2,$0,$22
  4061c8:	43 00 00 00 ff ff 16 16 	addiu $22,$22,-1
  4061d0:	08 00 00 00 d0 ff 00 02 	bgtz $2,406118 <vfprintf+0x1198>
  4061d8:	22 00 00 00 48 09 0e 1d 	lbu $14,2376($29)
  4061e0:	42 00 00 00 00 02 0e 00 	addu $2,$0,$14
  4061e8:	05 00 00 00 18 00 00 02 	beq $2,$0,406250 <vfprintf+0x12d0>
  4061f0:	28 00 00 00 04 00 03 14 	lw $3,4($20)
  4061f8:	28 00 00 00 0c 00 02 14 	lw $2,12($20)
  406200:	5d 00 00 00 00 02 02 03 	sltu $2,$3,$2
  406208:	06 00 00 00 06 00 00 02 	bne $2,$0,406228 <vfprintf+0x12a8>
  406210:	42 00 00 00 00 04 14 00 	addu $4,$0,$20
  406218:	43 00 00 00 2d 00 05 00 	addiu $5,$0,45
  406220:	01 00 00 00 ca 18 10 00 	j 406328 <vfprintf+0x13a8>
  406228:	43 00 00 00 01 00 02 03 	addiu $2,$3,1
  406230:	34 00 00 00 04 00 02 14 	sw $2,4($20)
  406238:	43 00 00 00 2d 00 02 00 	addiu $2,$0,45
  406240:	30 00 00 00 00 00 02 03 	sb $2,0($3)
  406248:	01 00 00 00 de 18 10 00 	j 406378 <vfprintf+0x13f8>
  406250:	42 00 00 00 00 02 0d 00 	addu $2,$0,$13
  406258:	05 00 00 00 22 00 00 02 	beq $2,$0,4062e8 <vfprintf+0x1368>
  406260:	28 00 00 00 04 00 03 14 	lw $3,4($20)
  406268:	28 00 00 00 0c 00 02 14 	lw $2,12($20)
  406270:	5d 00 00 00 00 02 02 03 	sltu $2,$3,$2
  406278:	06 00 00 00 10 00 00 02 	bne $2,$0,4062c0 <vfprintf+0x1340>
  406280:	42 00 00 00 00 04 14 00 	addu $4,$0,$20
  406288:	43 00 00 00 2b 00 05 00 	addiu $5,$0,43
  406290:	34 00 00 00 80 09 08 1d 	sw $8,2432($29)
  406298:	02 00 00 00 84 0f 10 00 	jal 403e10 <__flshfp>
  4062a0:	28 00 00 00 80 09 08 1d 	lw $8,2432($29)
  4062a8:	43 00 00 00 ff ff 0e 00 	addiu $14,$0,-1
  4062b0:	06 00 00 00 30 00 0e 02 	bne $2,$14,406378 <vfprintf+0x13f8>
  4062b8:	01 00 00 00 3e 15 10 00 	j 4054f8 <vfprintf+0x578>
  4062c0:	43 00 00 00 01 00 02 03 	addiu $2,$3,1
  4062c8:	34 00 00 00 04 00 02 14 	sw $2,4($20)
  4062d0:	43 00 00 00 2b 00 02 00 	addiu $2,$0,43
  4062d8:	30 00 00 00 00 00 02 03 	sb $2,0($3)
  4062e0:	01 00 00 00 de 18 10 00 	j 406378 <vfprintf+0x13f8>
  4062e8:	42 00 00 00 00 02 0c 00 	addu $2,$0,$12
  4062f0:	05 00 00 00 22 00 00 02 	beq $2,$0,406380 <vfprintf+0x1400>
  4062f8:	28 00 00 00 04 00 03 14 	lw $3,4($20)
  406300:	28 00 00 00 0c 00 02 14 	lw $2,12($20)
  406308:	5d 00 00 00 00 02 02 03 	sltu $2,$3,$2
  406310:	06 00 00 00 10 00 00 02 	bne $2,$0,406358 <vfprintf+0x13d8>
  406318:	42 00 00 00 00 04 14 00 	addu $4,$0,$20
  406320:	43 00 00 00 20 00 05 00 	addiu $5,$0,32
  406328:	34 00 00 00 80 09 08 1d 	sw $8,2432($29)
  406330:	02 00 00 00 84 0f 10 00 	jal 403e10 <__flshfp>
  406338:	28 00 00 00 80 09 08 1d 	lw $8,2432($29)
  406340:	43 00 00 00 ff ff 0f 00 	addiu $15,$0,-1
  406348:	06 00 00 00 0a 00 0f 02 	bne $2,$15,406378 <vfprintf+0x13f8>
  406350:	01 00 00 00 3e 15 10 00 	j 4054f8 <vfprintf+0x578>
  406358:	43 00 00 00 01 00 02 03 	addiu $2,$3,1
  406360:	34 00 00 00 04 00 02 14 	sw $2,4($20)
  406368:	43 00 00 00 20 00 0e 00 	addiu $14,$0,32
  406370:	30 00 00 00 00 00 0e 03 	sb $14,0($3)
  406378:	43 00 00 00 01 00 15 15 	addiu $21,$21,1
  406380:	22 00 00 00 38 09 0f 1d 	lbu $15,2360($29)
  406388:	42 00 00 00 00 02 0f 00 	addu $2,$0,$15
  406390:	05 00 00 00 56 00 00 02 	beq $2,$0,4064f0 <vfprintf+0x1570>
  406398:	28 00 00 00 58 09 0e 1d 	lw $14,2392($29)
  4063a0:	43 00 00 00 10 00 02 00 	addiu $2,$0,16
  4063a8:	06 00 00 00 50 00 02 0e 	bne $14,$2,4064f0 <vfprintf+0x1570>
  4063b0:	28 00 00 00 04 00 03 14 	lw $3,4($20)
  4063b8:	28 00 00 00 0c 00 02 14 	lw $2,12($20)
  4063c0:	5d 00 00 00 00 02 02 03 	sltu $2,$3,$2
  4063c8:	06 00 00 00 10 00 00 02 	bne $2,$0,406410 <vfprintf+0x1490>
  4063d0:	42 00 00 00 00 04 14 00 	addu $4,$0,$20
  4063d8:	43 00 00 00 30 00 05 00 	addiu $5,$0,48
  4063e0:	34 00 00 00 80 09 08 1d 	sw $8,2432($29)
  4063e8:	02 00 00 00 84 0f 10 00 	jal 403e10 <__flshfp>
  4063f0:	28 00 00 00 80 09 08 1d 	lw $8,2432($29)
  4063f8:	43 00 00 00 ff ff 0f 00 	addiu $15,$0,-1
  406400:	06 00 00 00 0a 00 0f 02 	bne $2,$15,406430 <vfprintf+0x14b0>
  406408:	01 00 00 00 3e 15 10 00 	j 4054f8 <vfprintf+0x578>
  406410:	43 00 00 00 01 00 02 03 	addiu $2,$3,1
  406418:	34 00 00 00 04 00 02 14 	sw $2,4($20)
  406420:	43 00 00 00 30 00 02 00 	addiu $2,$0,48
  406428:	30 00 00 00 00 00 02 03 	sb $2,0($3)
  406430:	43 00 00 00 01 00 15 15 	addiu $21,$21,1
  406438:	22 00 00 00 50 09 0e 1d 	lbu $14,2384($29)
  406440:	55 00 00 00 18 03 0e 00 	sll $3,$14,0x18
  406448:	28 00 00 00 04 00 04 14 	lw $4,4($20)
  406450:	28 00 00 00 0c 00 02 14 	lw $2,12($20)
  406458:	59 00 00 00 18 03 03 00 	sra $3,$3,0x18
  406460:	5d 00 00 00 00 02 02 04 	sltu $2,$4,$2
  406468:	05 00 00 00 10 00 00 02 	beq $2,$0,4064b0 <vfprintf+0x1530>
  406470:	43 00 00 00 01 00 02 04 	addiu $2,$4,1
  406478:	34 00 00 00 04 00 02 14 	sw $2,4($20)
  406480:	42 00 00 00 00 02 03 00 	addu $2,$0,$3
  406488:	30 00 00 00 00 00 02 04 	sb $2,0($4)
  406490:	4f 00 00 00 ff 00 02 02 	andi $2,$2,255
  406498:	43 00 00 00 ff ff 0f 00 	addiu $15,$0,-1
  4064a0:	05 00 00 00 14 fc 0f 02 	beq $2,$15,4054f8 <vfprintf+0x578>
  4064a8:	01 00 00 00 3a 19 10 00 	j 4064e8 <vfprintf+0x1568>
  4064b0:	42 00 00 00 00 04 14 00 	addu $4,$0,$20
  4064b8:	4f 00 00 00 ff 00 05 03 	andi $5,$3,255
  4064c0:	34 00 00 00 80 09 08 1d 	sw $8,2432($29)
  4064c8:	02 00 00 00 84 0f 10 00 	jal 403e10 <__flshfp>
  4064d0:	28 00 00 00 80 09 08 1d 	lw $8,2432($29)
  4064d8:	43 00 00 00 ff ff 0e 00 	addiu $14,$0,-1
  4064e0:	05 00 00 00 04 fc 0e 02 	beq $2,$14,4054f8 <vfprintf+0x578>
  4064e8:	43 00 00 00 01 00 15 15 	addiu $21,$21,1
  4064f0:	22 00 00 00 30 09 0f 1d 	lbu $15,2352($29)
  4064f8:	42 00 00 00 00 02 0f 00 	addu $2,$0,$15
  406500:	06 00 00 00 36 00 00 02 	bne $2,$0,4065e0 <vfprintf+0x1660>
  406508:	22 00 00 00 40 09 0e 1d 	lbu $14,2368($29)
  406510:	43 00 00 00 30 00 02 00 	addiu $2,$0,48
  406518:	42 00 00 00 00 03 0e 00 	addu $3,$0,$14
  406520:	06 00 00 00 2e 00 02 03 	bne $3,$2,4065e0 <vfprintf+0x1660>
  406528:	42 00 00 00 00 02 16 00 	addu $2,$0,$22
  406530:	43 00 00 00 ff ff 16 16 	addiu $22,$22,-1
  406538:	07 00 00 00 28 00 00 02 	blez $2,4065e0 <vfprintf+0x1660>
  406540:	43 00 00 00 30 00 11 00 	addiu $17,$0,48
  406548:	28 00 00 00 04 00 03 14 	lw $3,4($20)
  406550:	28 00 00 00 0c 00 02 14 	lw $2,12($20)
  406558:	5d 00 00 00 00 02 02 03 	sltu $2,$3,$2
  406560:	06 00 00 00 10 00 00 02 	bne $2,$0,4065a8 <vfprintf+0x1628>
  406568:	42 00 00 00 00 04 14 00 	addu $4,$0,$20
  406570:	43 00 00 00 30 00 05 00 	addiu $5,$0,48
  406578:	34 00 00 00 80 09 08 1d 	sw $8,2432($29)
  406580:	02 00 00 00 84 0f 10 00 	jal 403e10 <__flshfp>
  406588:	28 00 00 00 80 09 08 1d 	lw $8,2432($29)
  406590:	43 00 00 00 ff ff 0f 00 	addiu $15,$0,-1
  406598:	06 00 00 00 08 00 0f 02 	bne $2,$15,4065c0 <vfprintf+0x1640>
  4065a0:	01 00 00 00 3e 15 10 00 	j 4054f8 <vfprintf+0x578>
  4065a8:	43 00 00 00 01 00 02 03 	addiu $2,$3,1
  4065b0:	34 00 00 00 04 00 02 14 	sw $2,4($20)
  4065b8:	30 00 00 00 00 00 11 03 	sb $17,0($3)
  4065c0:	43 00 00 00 01 00 15 15 	addiu $21,$21,1
  4065c8:	42 00 00 00 00 02 16 00 	addu $2,$0,$22
  4065d0:	43 00 00 00 ff ff 16 16 	addiu $22,$22,-1
  4065d8:	08 00 00 00 da ff 00 02 	bgtz $2,406548 <vfprintf+0x15c8>
  4065e0:	28 00 00 00 60 09 0e 1d 	lw $14,2400($29)
  4065e8:	43 00 00 00 01 00 10 10 	addiu $16,$16,1
  4065f0:	5d 00 00 00 00 02 10 0e 	sltu $2,$14,$16
  4065f8:	06 00 00 00 32 00 00 02 	bne $2,$0,4066c8 <vfprintf+0x1748>
  406600:	28 00 00 00 04 00 03 14 	lw $3,4($20)
  406608:	28 00 00 00 0c 00 02 14 	lw $2,12($20)
  406610:	20 00 00 00 00 00 05 10 	lb $5,0($16)
  406618:	5d 00 00 00 00 02 02 03 	sltu $2,$3,$2
  406620:	05 00 00 00 10 00 00 02 	beq $2,$0,406668 <vfprintf+0x16e8>
  406628:	43 00 00 00 01 00 02 03 	addiu $2,$3,1
  406630:	34 00 00 00 04 00 02 14 	sw $2,4($20)
  406638:	42 00 00 00 00 02 05 00 	addu $2,$0,$5
  406640:	30 00 00 00 00 00 02 03 	sb $2,0($3)
  406648:	4f 00 00 00 ff 00 02 02 	andi $2,$2,255
  406650:	43 00 00 00 ff ff 0f 00 	addiu $15,$0,-1
  406658:	05 00 00 00 a6 fb 0f 02 	beq $2,$15,4054f8 <vfprintf+0x578>
  406660:	01 00 00 00 a8 19 10 00 	j 4066a0 <vfprintf+0x1720>
  406668:	42 00 00 00 00 04 14 00 	addu $4,$0,$20
  406670:	4f 00 00 00 ff 00 05 05 	andi $5,$5,255
  406678:	34 00 00 00 80 09 08 1d 	sw $8,2432($29)
  406680:	02 00 00 00 84 0f 10 00 	jal 403e10 <__flshfp>
  406688:	28 00 00 00 80 09 08 1d 	lw $8,2432($29)
  406690:	43 00 00 00 ff ff 0e 00 	addiu $14,$0,-1
  406698:	05 00 00 00 96 fb 0e 02 	beq $2,$14,4054f8 <vfprintf+0x578>
  4066a0:	43 00 00 00 01 00 15 15 	addiu $21,$21,1
  4066a8:	43 00 00 00 01 00 10 10 	addiu $16,$16,1
  4066b0:	28 00 00 00 60 09 0f 1d 	lw $15,2400($29)
  4066b8:	5d 00 00 00 00 02 10 0f 	sltu $2,$15,$16
  4066c0:	05 00 00 00 ce ff 00 02 	beq $2,$0,406600 <vfprintf+0x1680>
  4066c8:	22 00 00 00 30 09 0e 1d 	lbu $14,2352($29)
  4066d0:	42 00 00 00 00 02 0e 00 	addu $2,$0,$14
  4066d8:	05 00 00 00 4e 03 00 02 	beq $2,$0,407418 <vfprintf+0x2498>
  4066e0:	42 00 00 00 00 02 16 00 	addu $2,$0,$22
  4066e8:	43 00 00 00 ff ff 16 16 	addiu $22,$22,-1
  4066f0:	07 00 00 00 48 03 00 02 	blez $2,407418 <vfprintf+0x2498>
  4066f8:	28 00 00 00 04 00 03 14 	lw $3,4($20)
  406700:	28 00 00 00 0c 00 02 14 	lw $2,12($20)
  406708:	5d 00 00 00 00 02 02 03 	sltu $2,$3,$2
  406710:	06 00 00 00 10 00 00 02 	bne $2,$0,406758 <vfprintf+0x17d8>
  406718:	42 00 00 00 00 04 14 00 	addu $4,$0,$20
  406720:	43 00 00 00 20 00 05 00 	addiu $5,$0,32
  406728:	34 00 00 00 80 09 08 1d 	sw $8,2432($29)
  406730:	02 00 00 00 84 0f 10 00 	jal 403e10 <__flshfp>
  406738:	28 00 00 00 80 09 08 1d 	lw $8,2432($29)
  406740:	43 00 00 00 ff ff 0f 00 	addiu $15,$0,-1
  406748:	06 00 00 00 0a 00 0f 02 	bne $2,$15,406778 <vfprintf+0x17f8>
  406750:	01 00 00 00 3e 15 10 00 	j 4054f8 <vfprintf+0x578>
  406758:	43 00 00 00 01 00 02 03 	addiu $2,$3,1
  406760:	34 00 00 00 04 00 02 14 	sw $2,4($20)
  406768:	43 00 00 00 20 00 0e 00 	addiu $14,$0,32
  406770:	30 00 00 00 00 00 0e 03 	sb $14,0($3)
  406778:	43 00 00 00 01 00 15 15 	addiu $21,$21,1
  406780:	42 00 00 00 00 02 16 00 	addu $2,$0,$22
  406788:	43 00 00 00 ff ff 16 16 	addiu $22,$22,-1
  406790:	08 00 00 00 d8 ff 00 02 	bgtz $2,4066f8 <vfprintf+0x1778>
  406798:	01 00 00 00 06 1d 10 00 	j 407418 <vfprintf+0x2498>
  4067a0:	a2 00 00 00 41 00 09 00 	lui $9,65
  4067a8:	43 00 00 00 10 cf 09 09 	addiu $9,$9,-12528
  4067b0:	01 00 00 00 aa 1c 10 00 	j 4072a8 <vfprintf+0x2328>
  4067b8:	28 00 00 00 c0 09 02 1d 	lw $2,2496($29)
  4067c0:	43 00 00 00 fc ff 03 00 	addiu $3,$0,-4
  4067c8:	43 00 00 00 03 00 02 02 	addiu $2,$2,3
  4067d0:	4e 00 00 00 00 02 03 02 	and $2,$2,$3
  4067d8:	28 00 00 00 00 00 03 02 	lw $3,0($2)
  4067e0:	22 00 00 00 30 09 0f 1d 	lbu $15,2352($29)
  4067e8:	43 00 00 00 04 00 02 02 	addiu $2,$2,4
  4067f0:	42 00 00 00 00 10 03 00 	addu $16,$0,$3
  4067f8:	59 00 00 00 1f 11 03 00 	sra $17,$3,0x1f
  406800:	34 00 00 00 c0 09 02 1d 	sw $2,2496($29)
  406808:	42 00 00 00 00 02 0f 00 	addu $2,$0,$15
  406810:	06 00 00 00 2a 00 00 02 	bne $2,$0,4068c0 <vfprintf+0x1940>
  406818:	43 00 00 00 ff ff 16 16 	addiu $22,$22,-1
  406820:	07 00 00 00 26 00 00 16 	blez $22,4068c0 <vfprintf+0x1940>
  406828:	28 00 00 00 04 00 03 14 	lw $3,4($20)
  406830:	28 00 00 00 0c 00 02 14 	lw $2,12($20)
  406838:	5d 00 00 00 00 02 02 03 	sltu $2,$3,$2
  406840:	06 00 00 00 10 00 00 02 	bne $2,$0,406888 <vfprintf+0x1908>
  406848:	42 00 00 00 00 04 14 00 	addu $4,$0,$20
  406850:	43 00 00 00 20 00 05 00 	addiu $5,$0,32
  406858:	34 00 00 00 80 09 08 1d 	sw $8,2432($29)
  406860:	02 00 00 00 84 0f 10 00 	jal 403e10 <__flshfp>
  406868:	28 00 00 00 80 09 08 1d 	lw $8,2432($29)
  406870:	43 00 00 00 ff ff 0e 00 	addiu $14,$0,-1
  406878:	06 00 00 00 0a 00 0e 02 	bne $2,$14,4068a8 <vfprintf+0x1928>
  406880:	01 00 00 00 3e 15 10 00 	j 4054f8 <vfprintf+0x578>
  406888:	43 00 00 00 01 00 02 03 	addiu $2,$3,1
  406890:	34 00 00 00 04 00 02 14 	sw $2,4($20)
  406898:	43 00 00 00 20 00 0f 00 	addiu $15,$0,32
  4068a0:	30 00 00 00 00 00 0f 03 	sb $15,0($3)
  4068a8:	43 00 00 00 01 00 15 15 	addiu $21,$21,1
  4068b0:	43 00 00 00 ff ff 16 16 	addiu $22,$22,-1
  4068b8:	08 00 00 00 da ff 00 16 	bgtz $22,406828 <vfprintf+0x18a8>
  4068c0:	28 00 00 00 04 00 04 14 	lw $4,4($20)
  4068c8:	28 00 00 00 0c 00 02 14 	lw $2,12($20)
  4068d0:	4f 00 00 00 ff 00 05 10 	andi $5,$16,255
  4068d8:	5d 00 00 00 00 02 02 04 	sltu $2,$4,$2
  4068e0:	05 00 00 00 10 00 00 02 	beq $2,$0,406928 <vfprintf+0x19a8>
  4068e8:	43 00 00 00 01 00 02 04 	addiu $2,$4,1
  4068f0:	34 00 00 00 04 00 02 14 	sw $2,4($20)
  4068f8:	42 00 00 00 00 02 05 00 	addu $2,$0,$5
  406900:	30 00 00 00 00 00 02 04 	sb $2,0($4)
  406908:	4f 00 00 00 ff 00 02 02 	andi $2,$2,255
  406910:	43 00 00 00 ff ff 0e 00 	addiu $14,$0,-1
  406918:	05 00 00 00 f6 fa 0e 02 	beq $2,$14,4054f8 <vfprintf+0x578>
  406920:	01 00 00 00 56 1a 10 00 	j 406958 <vfprintf+0x19d8>
  406928:	42 00 00 00 00 04 14 00 	addu $4,$0,$20
  406930:	34 00 00 00 80 09 08 1d 	sw $8,2432($29)
  406938:	02 00 00 00 84 0f 10 00 	jal 403e10 <__flshfp>
  406940:	28 00 00 00 80 09 08 1d 	lw $8,2432($29)
  406948:	43 00 00 00 ff ff 0f 00 	addiu $15,$0,-1
  406950:	05 00 00 00 e8 fa 0f 02 	beq $2,$15,4054f8 <vfprintf+0x578>
  406958:	43 00 00 00 01 00 15 15 	addiu $21,$21,1
  406960:	22 00 00 00 30 09 0e 1d 	lbu $14,2352($29)
  406968:	42 00 00 00 00 02 0e 00 	addu $2,$0,$14
  406970:	05 00 00 00 a8 02 00 02 	beq $2,$0,407418 <vfprintf+0x2498>
  406978:	43 00 00 00 ff ff 16 16 	addiu $22,$22,-1
  406980:	07 00 00 00 a4 02 00 16 	blez $22,407418 <vfprintf+0x2498>
  406988:	28 00 00 00 04 00 03 14 	lw $3,4($20)
  406990:	28 00 00 00 0c 00 02 14 	lw $2,12($20)
  406998:	5d 00 00 00 00 02 02 03 	sltu $2,$3,$2
  4069a0:	06 00 00 00 10 00 00 02 	bne $2,$0,4069e8 <vfprintf+0x1a68>
  4069a8:	42 00 00 00 00 04 14 00 	addu $4,$0,$20
  4069b0:	43 00 00 00 20 00 05 00 	addiu $5,$0,32
  4069b8:	34 00 00 00 80 09 08 1d 	sw $8,2432($29)
  4069c0:	02 00 00 00 84 0f 10 00 	jal 403e10 <__flshfp>
  4069c8:	28 00 00 00 80 09 08 1d 	lw $8,2432($29)
  4069d0:	43 00 00 00 ff ff 0f 00 	addiu $15,$0,-1
  4069d8:	06 00 00 00 0a 00 0f 02 	bne $2,$15,406a08 <vfprintf+0x1a88>
  4069e0:	01 00 00 00 3e 15 10 00 	j 4054f8 <vfprintf+0x578>
  4069e8:	43 00 00 00 01 00 02 03 	addiu $2,$3,1
  4069f0:	34 00 00 00 04 00 02 14 	sw $2,4($20)
  4069f8:	43 00 00 00 20 00 0e 00 	addiu $14,$0,32
  406a00:	30 00 00 00 00 00 0e 03 	sb $14,0($3)
  406a08:	43 00 00 00 01 00 15 15 	addiu $21,$21,1
  406a10:	43 00 00 00 ff ff 16 16 	addiu $22,$22,-1
  406a18:	08 00 00 00 da ff 00 16 	bgtz $22,406988 <vfprintf+0x1a08>
  406a20:	01 00 00 00 06 1d 10 00 	j 407418 <vfprintf+0x2498>
  406a28:	28 00 00 00 c0 09 02 1d 	lw $2,2496($29)
  406a30:	43 00 00 00 fc ff 03 00 	addiu $3,$0,-4
  406a38:	43 00 00 00 03 00 02 02 	addiu $2,$2,3
  406a40:	4e 00 00 00 00 02 03 02 	and $2,$2,$3
  406a48:	28 00 00 00 00 00 10 02 	lw $16,0($2)
  406a50:	43 00 00 00 04 00 02 02 	addiu $2,$2,4
  406a58:	34 00 00 00 c0 09 02 1d 	sw $2,2496($29)
  406a60:	06 00 00 00 14 00 00 10 	bne $16,$0,406ab8 <vfprintf+0x1b38>
  406a68:	43 00 00 00 ff ff 0f 00 	addiu $15,$0,-1
  406a70:	05 00 00 00 04 00 0f 1e 	beq $30,$15,406a88 <vfprintf+0x1b08>
  406a78:	5c 00 00 00 06 00 02 1e 	slti $2,$30,6
  406a80:	06 00 00 00 06 00 00 02 	bne $2,$0,406aa0 <vfprintf+0x1b20>
  406a88:	43 00 00 00 d0 80 10 1c 	addiu $16,$28,-32560
  406a90:	43 00 00 00 06 00 11 00 	addiu $17,$0,6
  406a98:	01 00 00 00 b8 1a 10 00 	j 406ae0 <vfprintf+0x1b60>
  406aa0:	43 00 00 00 d8 80 10 1c 	addiu $16,$28,-32552
  406aa8:	42 00 00 00 00 11 00 00 	addu $17,$0,$0
  406ab0:	01 00 00 00 b8 1a 10 00 	j 406ae0 <vfprintf+0x1b60>
  406ab8:	42 00 00 00 00 04 10 00 	addu $4,$0,$16
  406ac0:	34 00 00 00 80 09 08 1d 	sw $8,2432($29)
  406ac8:	02 00 00 00 e8 30 10 00 	jal 40c3a0 <strlen>
  406ad0:	42 00 00 00 00 11 02 00 	addu $17,$0,$2
  406ad8:	28 00 00 00 80 09 08 1d 	lw $8,2432($29)
  406ae0:	43 00 00 00 ff ff 0e 00 	addiu $14,$0,-1
  406ae8:	05 00 00 00 06 00 0e 1e 	beq $30,$14,406b08 <vfprintf+0x1b88>
  406af0:	5d 00 00 00 00 02 11 1e 	sltu $2,$30,$17
  406af8:	05 00 00 00 02 00 00 02 	beq $2,$0,406b08 <vfprintf+0x1b88>
  406b00:	42 00 00 00 00 11 1e 00 	addu $17,$0,$30
  406b08:	22 00 00 00 30 09 0f 1d 	lbu $15,2352($29)
  406b10:	45 00 00 00 00 16 11 16 	subu $22,$22,$17
  406b18:	42 00 00 00 00 02 0f 00 	addu $2,$0,$15
  406b20:	06 00 00 00 2a 00 00 02 	bne $2,$0,406bd0 <vfprintf+0x1c50>
  406b28:	01 00 00 00 ee 1a 10 00 	j 406bb8 <vfprintf+0x1c38>
  406b30:	28 00 00 00 04 00 03 14 	lw $3,4($20)
  406b38:	28 00 00 00 0c 00 02 14 	lw $2,12($20)
  406b40:	5d 00 00 00 00 02 02 03 	sltu $2,$3,$2
  406b48:	06 00 00 00 10 00 00 02 	bne $2,$0,406b90 <vfprintf+0x1c10>
  406b50:	42 00 00 00 00 04 14 00 	addu $4,$0,$20
  406b58:	43 00 00 00 20 00 05 00 	addiu $5,$0,32
  406b60:	34 00 00 00 80 09 08 1d 	sw $8,2432($29)
  406b68:	02 00 00 00 84 0f 10 00 	jal 403e10 <__flshfp>
  406b70:	28 00 00 00 80 09 08 1d 	lw $8,2432($29)
  406b78:	43 00 00 00 ff ff 0e 00 	addiu $14,$0,-1
  406b80:	06 00 00 00 0a 00 0e 02 	bne $2,$14,406bb0 <vfprintf+0x1c30>
  406b88:	01 00 00 00 3e 15 10 00 	j 4054f8 <vfprintf+0x578>
  406b90:	43 00 00 00 01 00 02 03 	addiu $2,$3,1
  406b98:	34 00 00 00 04 00 02 14 	sw $2,4($20)
  406ba0:	43 00 00 00 20 00 0f 00 	addiu $15,$0,32
  406ba8:	30 00 00 00 00 00 0f 03 	sb $15,0($3)
  406bb0:	43 00 00 00 01 00 15 15 	addiu $21,$21,1
  406bb8:	42 00 00 00 00 02 16 00 	addu $2,$0,$22
  406bc0:	43 00 00 00 ff ff 16 16 	addiu $22,$22,-1
  406bc8:	08 00 00 00 d8 ff 00 02 	bgtz $2,406b30 <vfprintf+0x1bb0>
  406bd0:	5e 00 00 00 14 00 02 11 	sltiu $2,$17,20
  406bd8:	05 00 00 00 3a 00 00 02 	beq $2,$0,406cc8 <vfprintf+0x1d48>
  406be0:	42 00 00 00 00 02 11 00 	addu $2,$0,$17
  406be8:	43 00 00 00 ff ff 11 11 	addiu $17,$17,-1
  406bf0:	05 00 00 00 46 00 00 02 	beq $2,$0,406d10 <vfprintf+0x1d90>
  406bf8:	20 00 00 00 00 00 05 10 	lb $5,0($16)
  406c00:	28 00 00 00 04 00 03 14 	lw $3,4($20)
  406c08:	28 00 00 00 0c 00 02 14 	lw $2,12($20)
  406c10:	43 00 00 00 01 00 10 10 	addiu $16,$16,1
  406c18:	5d 00 00 00 00 02 02 03 	sltu $2,$3,$2
  406c20:	05 00 00 00 10 00 00 02 	beq $2,$0,406c68 <vfprintf+0x1ce8>
  406c28:	43 00 00 00 01 00 02 03 	addiu $2,$3,1
  406c30:	34 00 00 00 04 00 02 14 	sw $2,4($20)
  406c38:	42 00 00 00 00 02 05 00 	addu $2,$0,$5
  406c40:	30 00 00 00 00 00 02 03 	sb $2,0($3)
  406c48:	4f 00 00 00 ff 00 02 02 	andi $2,$2,255
  406c50:	43 00 00 00 ff ff 0e 00 	addiu $14,$0,-1
  406c58:	05 00 00 00 26 fa 0e 02 	beq $2,$14,4054f8 <vfprintf+0x578>
  406c60:	01 00 00 00 28 1b 10 00 	j 406ca0 <vfprintf+0x1d20>
  406c68:	42 00 00 00 00 04 14 00 	addu $4,$0,$20
  406c70:	4f 00 00 00 ff 00 05 05 	andi $5,$5,255
  406c78:	34 00 00 00 80 09 08 1d 	sw $8,2432($29)
  406c80:	02 00 00 00 84 0f 10 00 	jal 403e10 <__flshfp>
  406c88:	28 00 00 00 80 09 08 1d 	lw $8,2432($29)
  406c90:	43 00 00 00 ff ff 0f 00 	addiu $15,$0,-1
  406c98:	05 00 00 00 16 fa 0f 02 	beq $2,$15,4054f8 <vfprintf+0x578>
  406ca0:	43 00 00 00 01 00 15 15 	addiu $21,$21,1
  406ca8:	42 00 00 00 00 02 11 00 	addu $2,$0,$17
  406cb0:	43 00 00 00 ff ff 11 11 	addiu $17,$17,-1
  406cb8:	06 00 00 00 ce ff 00 02 	bne $2,$0,406bf8 <vfprintf+0x1c78>
  406cc0:	01 00 00 00 44 1b 10 00 	j 406d10 <vfprintf+0x1d90>
  406cc8:	42 00 00 00 00 04 10 00 	addu $4,$0,$16
  406cd0:	43 00 00 00 01 00 05 00 	addiu $5,$0,1
  406cd8:	42 00 00 00 00 06 11 00 	addu $6,$0,$17
  406ce0:	42 00 00 00 00 07 14 00 	addu $7,$0,$20
  406ce8:	34 00 00 00 80 09 08 1d 	sw $8,2432($29)
  406cf0:	02 00 00 00 a4 31 10 00 	jal 40c690 <fwrite>
  406cf8:	28 00 00 00 80 09 08 1d 	lw $8,2432($29)
  406d00:	06 00 00 00 fc f9 11 02 	bne $2,$17,4054f8 <vfprintf+0x578>
  406d08:	42 00 00 00 00 15 11 15 	addu $21,$21,$17
  406d10:	22 00 00 00 30 09 0e 1d 	lbu $14,2352($29)
  406d18:	42 00 00 00 00 02 0e 00 	addu $2,$0,$14
  406d20:	05 00 00 00 bc 01 00 02 	beq $2,$0,407418 <vfprintf+0x2498>
  406d28:	42 00 00 00 00 02 16 00 	addu $2,$0,$22
  406d30:	43 00 00 00 ff ff 16 16 	addiu $22,$22,-1
  406d38:	07 00 00 00 b6 01 00 02 	blez $2,407418 <vfprintf+0x2498>
  406d40:	28 00 00 00 04 00 03 14 	lw $3,4($20)
  406d48:	28 00 00 00 0c 00 02 14 	lw $2,12($20)
  406d50:	5d 00 00 00 00 02 02 03 	sltu $2,$3,$2
  406d58:	06 00 00 00 10 00 00 02 	bne $2,$0,406da0 <vfprintf+0x1e20>
  406d60:	42 00 00 00 00 04 14 00 	addu $4,$0,$20
  406d68:	43 00 00 00 20 00 05 00 	addiu $5,$0,32
  406d70:	34 00 00 00 80 09 08 1d 	sw $8,2432($29)
  406d78:	02 00 00 00 84 0f 10 00 	jal 403e10 <__flshfp>
  406d80:	28 00 00 00 80 09 08 1d 	lw $8,2432($29)
  406d88:	43 00 00 00 ff ff 0f 00 	addiu $15,$0,-1
  406d90:	06 00 00 00 0a 00 0f 02 	bne $2,$15,406dc0 <vfprintf+0x1e40>
  406d98:	01 00 00 00 3e 15 10 00 	j 4054f8 <vfprintf+0x578>
  406da0:	43 00 00 00 01 00 02 03 	addiu $2,$3,1
  406da8:	34 00 00 00 04 00 02 14 	sw $2,4($20)
  406db0:	43 00 00 00 20 00 0e 00 	addiu $14,$0,32
  406db8:	30 00 00 00 00 00 0e 03 	sb $14,0($3)
  406dc0:	43 00 00 00 01 00 15 15 	addiu $21,$21,1
  406dc8:	42 00 00 00 00 02 16 00 	addu $2,$0,$22
  406dd0:	43 00 00 00 ff ff 16 16 	addiu $22,$22,-1
  406dd8:	08 00 00 00 d8 ff 00 02 	bgtz $2,406d40 <vfprintf+0x1dc0>
  406de0:	01 00 00 00 06 1d 10 00 	j 407418 <vfprintf+0x2498>
  406de8:	28 00 00 00 c0 09 02 1d 	lw $2,2496($29)
  406df0:	43 00 00 00 fc ff 03 00 	addiu $3,$0,-4
  406df8:	43 00 00 00 03 00 02 02 	addiu $2,$2,3
  406e00:	4e 00 00 00 00 02 03 02 	and $2,$2,$3
  406e08:	28 00 00 00 00 00 03 02 	lw $3,0($2)
  406e10:	43 00 00 00 04 00 02 02 	addiu $2,$2,4
  406e18:	34 00 00 00 c0 09 02 1d 	sw $2,2496($29)
  406e20:	05 00 00 00 12 00 00 03 	beq $3,$0,406e70 <vfprintf+0x1ef0>
  406e28:	43 00 00 00 10 00 0f 00 	addiu $15,$0,16
  406e30:	43 00 00 00 78 00 0e 00 	addiu $14,$0,120
  406e38:	34 00 00 00 58 09 0f 1d 	sw $15,2392($29)
  406e40:	43 00 00 00 01 00 0f 00 	addiu $15,$0,1
  406e48:	42 00 00 00 00 10 03 00 	addu $16,$0,$3
  406e50:	42 00 00 00 00 11 00 00 	addu $17,$0,$0
  406e58:	30 00 00 00 50 09 0e 1d 	sb $14,2384($29)
  406e60:	30 00 00 00 38 09 0f 1d 	sb $15,2360($29)
  406e68:	01 00 00 00 80 17 10 00 	j 405e00 <vfprintf+0xe80>
  406e70:	22 00 00 00 30 09 0e 1d 	lbu $14,2352($29)
  406e78:	43 00 00 00 fb ff 16 16 	addiu $22,$22,-5
  406e80:	42 00 00 00 00 02 0e 00 	addu $2,$0,$14
  406e88:	06 00 00 00 2a 00 00 02 	bne $2,$0,406f38 <vfprintf+0x1fb8>
  406e90:	01 00 00 00 c8 1b 10 00 	j 406f20 <vfprintf+0x1fa0>
  406e98:	28 00 00 00 04 00 03 14 	lw $3,4($20)
  406ea0:	28 00 00 00 0c 00 02 14 	lw $2,12($20)
  406ea8:	5d 00 00 00 00 02 02 03 	sltu $2,$3,$2
  406eb0:	06 00 00 00 10 00 00 02 	bne $2,$0,406ef8 <vfprintf+0x1f78>
  406eb8:	42 00 00 00 00 04 14 00 	addu $4,$0,$20
  406ec0:	43 00 00 00 20 00 05 00 	addiu $5,$0,32
  406ec8:	34 00 00 00 80 09 08 1d 	sw $8,2432($29)
  406ed0:	02 00 00 00 84 0f 10 00 	jal 403e10 <__flshfp>
  406ed8:	28 00 00 00 80 09 08 1d 	lw $8,2432($29)
  406ee0:	43 00 00 00 ff ff 0f 00 	addiu $15,$0,-1
  406ee8:	06 00 00 00 0a 00 0f 02 	bne $2,$15,406f18 <vfprintf+0x1f98>
  406ef0:	01 00 00 00 3e 15 10 00 	j 4054f8 <vfprintf+0x578>
  406ef8:	43 00 00 00 01 00 02 03 	addiu $2,$3,1
  406f00:	34 00 00 00 04 00 02 14 	sw $2,4($20)
  406f08:	43 00 00 00 20 00 0e 00 	addiu $14,$0,32
  406f10:	30 00 00 00 00 00 0e 03 	sb $14,0($3)
  406f18:	43 00 00 00 01 00 15 15 	addiu $21,$21,1
  406f20:	42 00 00 00 00 02 16 00 	addu $2,$0,$22
  406f28:	43 00 00 00 ff ff 16 16 	addiu $22,$22,-1
  406f30:	08 00 00 00 d8 ff 00 02 	bgtz $2,406e98 <vfprintf+0x1f18>
  406f38:	20 00 00 00 dc 80 02 1c 	lb $2,-32548($28)
  406f40:	43 00 00 00 dc 80 10 1c 	addiu $16,$28,-32548
  406f48:	05 00 00 00 30 00 00 02 	beq $2,$0,407010 <vfprintf+0x2090>
  406f50:	28 00 00 00 04 00 03 14 	lw $3,4($20)
  406f58:	28 00 00 00 0c 00 02 14 	lw $2,12($20)
  406f60:	20 00 00 00 00 00 05 10 	lb $5,0($16)
  406f68:	5d 00 00 00 00 02 02 03 	sltu $2,$3,$2
  406f70:	05 00 00 00 10 00 00 02 	beq $2,$0,406fb8 <vfprintf+0x2038>
  406f78:	43 00 00 00 01 00 02 03 	addiu $2,$3,1
  406f80:	34 00 00 00 04 00 02 14 	sw $2,4($20)
  406f88:	42 00 00 00 00 02 05 00 	addu $2,$0,$5
  406f90:	30 00 00 00 00 00 02 03 	sb $2,0($3)
  406f98:	4f 00 00 00 ff 00 02 02 	andi $2,$2,255
  406fa0:	43 00 00 00 ff ff 0f 00 	addiu $15,$0,-1
  406fa8:	05 00 00 00 52 f9 0f 02 	beq $2,$15,4054f8 <vfprintf+0x578>
  406fb0:	01 00 00 00 fc 1b 10 00 	j 406ff0 <vfprintf+0x2070>
  406fb8:	42 00 00 00 00 04 14 00 	addu $4,$0,$20
  406fc0:	4f 00 00 00 ff 00 05 05 	andi $5,$5,255
  406fc8:	34 00 00 00 80 09 08 1d 	sw $8,2432($29)
  406fd0:	02 00 00 00 84 0f 10 00 	jal 403e10 <__flshfp>
  406fd8:	28 00 00 00 80 09 08 1d 	lw $8,2432($29)
  406fe0:	43 00 00 00 ff ff 0e 00 	addiu $14,$0,-1
  406fe8:	05 00 00 00 42 f9 0e 02 	beq $2,$14,4054f8 <vfprintf+0x578>
  406ff0:	43 00 00 00 01 00 15 15 	addiu $21,$21,1
  406ff8:	43 00 00 00 01 00 10 10 	addiu $16,$16,1
  407000:	20 00 00 00 00 00 02 10 	lb $2,0($16)
  407008:	06 00 00 00 d0 ff 00 02 	bne $2,$0,406f50 <vfprintf+0x1fd0>
  407010:	22 00 00 00 30 09 0f 1d 	lbu $15,2352($29)
  407018:	42 00 00 00 00 02 0f 00 	addu $2,$0,$15
  407020:	05 00 00 00 fc 00 00 02 	beq $2,$0,407418 <vfprintf+0x2498>
  407028:	42 00 00 00 00 02 16 00 	addu $2,$0,$22
  407030:	43 00 00 00 ff ff 16 16 	addiu $22,$22,-1
  407038:	07 00 00 00 f6 00 00 02 	blez $2,407418 <vfprintf+0x2498>
  407040:	28 00 00 00 04 00 03 14 	lw $3,4($20)
  407048:	28 00 00 00 0c 00 02 14 	lw $2,12($20)
  407050:	5d 00 00 00 00 02 02 03 	sltu $2,$3,$2
  407058:	06 00 00 00 10 00 00 02 	bne $2,$0,4070a0 <vfprintf+0x2120>
  407060:	42 00 00 00 00 04 14 00 	addu $4,$0,$20
  407068:	43 00 00 00 20 00 05 00 	addiu $5,$0,32
  407070:	34 00 00 00 80 09 08 1d 	sw $8,2432($29)
  407078:	02 00 00 00 84 0f 10 00 	jal 403e10 <__flshfp>
  407080:	28 00 00 00 80 09 08 1d 	lw $8,2432($29)
  407088:	43 00 00 00 ff ff 0e 00 	addiu $14,$0,-1
  407090:	06 00 00 00 0a 00 0e 02 	bne $2,$14,4070c0 <vfprintf+0x2140>
  407098:	01 00 00 00 3e 15 10 00 	j 4054f8 <vfprintf+0x578>
  4070a0:	43 00 00 00 01 00 02 03 	addiu $2,$3,1
  4070a8:	34 00 00 00 04 00 02 14 	sw $2,4($20)
  4070b0:	43 00 00 00 20 00 0f 00 	addiu $15,$0,32
  4070b8:	30 00 00 00 00 00 0f 03 	sb $15,0($3)
  4070c0:	43 00 00 00 01 00 15 15 	addiu $21,$21,1
  4070c8:	42 00 00 00 00 02 16 00 	addu $2,$0,$22
  4070d0:	43 00 00 00 ff ff 16 16 	addiu $22,$22,-1
  4070d8:	08 00 00 00 d8 ff 00 02 	bgtz $2,407040 <vfprintf+0x20c0>
  4070e0:	01 00 00 00 06 1d 10 00 	j 407418 <vfprintf+0x2498>
  4070e8:	42 00 00 00 00 02 07 00 	addu $2,$0,$7
  4070f0:	05 00 00 00 18 00 00 02 	beq $2,$0,407158 <vfprintf+0x21d8>
  4070f8:	28 00 00 00 c0 09 04 1d 	lw $4,2496($29)
  407100:	43 00 00 00 fc ff 05 00 	addiu $5,$0,-4
  407108:	43 00 00 00 03 00 04 04 	addiu $4,$4,3
  407110:	4e 00 00 00 00 04 05 04 	and $4,$4,$5
  407118:	28 00 00 00 00 00 05 04 	lw $5,0($4)
  407120:	42 00 00 00 00 02 15 00 	addu $2,$0,$21
  407128:	42 00 00 00 00 03 00 00 	addu $3,$0,$0
  407130:	43 00 00 00 04 00 04 04 	addiu $4,$4,4
  407138:	34 00 00 00 c0 09 04 1d 	sw $4,2496($29)
  407140:	34 00 00 00 00 00 02 05 	sw $2,0($5)
  407148:	34 00 00 00 04 00 03 05 	sw $3,4($5)
  407150:	01 00 00 00 06 1d 10 00 	j 407418 <vfprintf+0x2498>
  407158:	42 00 00 00 00 02 0a 00 	addu $2,$0,$10
  407160:	06 00 00 00 04 00 00 02 	bne $2,$0,407178 <vfprintf+0x21f8>
  407168:	42 00 00 00 00 02 0b 00 	addu $2,$0,$11
  407170:	06 00 00 00 12 00 00 02 	bne $2,$0,4071c0 <vfprintf+0x2240>
  407178:	28 00 00 00 c0 09 02 1d 	lw $2,2496($29)
  407180:	43 00 00 00 fc ff 03 00 	addiu $3,$0,-4
  407188:	43 00 00 00 03 00 02 02 	addiu $2,$2,3
  407190:	4e 00 00 00 00 02 03 02 	and $2,$2,$3
  407198:	28 00 00 00 00 00 03 02 	lw $3,0($2)
  4071a0:	43 00 00 00 04 00 02 02 	addiu $2,$2,4
  4071a8:	34 00 00 00 c0 09 02 1d 	sw $2,2496($29)
  4071b0:	34 00 00 00 00 00 15 03 	sw $21,0($3)
  4071b8:	01 00 00 00 06 1d 10 00 	j 407418 <vfprintf+0x2498>
  4071c0:	28 00 00 00 c0 09 02 1d 	lw $2,2496($29)
  4071c8:	43 00 00 00 fc ff 03 00 	addiu $3,$0,-4
  4071d0:	43 00 00 00 03 00 02 02 	addiu $2,$2,3
  4071d8:	4e 00 00 00 00 02 03 02 	and $2,$2,$3
  4071e0:	28 00 00 00 00 00 03 02 	lw $3,0($2)
  4071e8:	43 00 00 00 04 00 02 02 	addiu $2,$2,4
  4071f0:	34 00 00 00 c0 09 02 1d 	sw $2,2496($29)
  4071f8:	32 00 00 00 00 00 15 03 	sh $21,0($3)
  407200:	01 00 00 00 06 1d 10 00 	j 407418 <vfprintf+0x2498>
  407208:	28 00 00 00 60 84 06 1c 	lw $6,-31648($28)
  407210:	09 00 00 00 06 00 00 06 	bltz $6,407230 <vfprintf+0x22b0>
  407218:	28 00 00 00 10 81 02 1c 	lw $2,-32496($28)
  407220:	5b 00 00 00 00 02 06 02 	slt $2,$2,$6
  407228:	05 00 00 00 10 00 00 02 	beq $2,$0,407270 <vfprintf+0x22f0>
  407230:	43 00 00 00 10 04 10 1d 	addiu $16,$29,1040
  407238:	42 00 00 00 00 04 10 00 	addu $4,$0,$16
  407240:	a2 00 00 00 00 10 05 00 	lui $5,4096
  407248:	43 00 00 00 70 02 05 05 	addiu $5,$5,624
  407250:	34 00 00 00 80 09 08 1d 	sw $8,2432($29)
  407258:	02 00 00 00 60 46 10 00 	jal 411980 <sprintf>
  407260:	28 00 00 00 80 09 08 1d 	lw $8,2432($29)
  407268:	01 00 00 00 98 1a 10 00 	j 406a60 <vfprintf+0x1ae0>
  407270:	55 00 00 00 02 02 06 00 	sll $2,$6,0x2
  407278:	a2 00 00 00 00 10 10 00 	lui $16,4096
  407280:	42 00 00 00 00 10 02 10 	addu $16,$16,$2
  407288:	28 00 00 00 30 06 10 10 	lw $16,1584($16)
  407290:	01 00 00 00 98 1a 10 00 	j 406a60 <vfprintf+0x1ae0>
  407298:	a2 00 00 00 40 00 09 00 	lui $9,64
  4072a0:	43 00 00 00 f8 74 09 09 	addiu $9,$9,29944
  4072a8:	22 00 00 00 50 09 0e 1d 	lbu $14,2384($29)
  4072b0:	22 00 00 00 38 09 0f 1d 	lbu $15,2360($29)
  4072b8:	42 00 00 00 00 04 14 00 	addu $4,$0,$20
  4072c0:	43 00 00 00 10 09 05 1d 	addiu $5,$29,2320
  4072c8:	30 00 00 00 18 09 0e 1d 	sb $14,2328($29)
  4072d0:	28 00 00 00 18 09 02 1d 	lw $2,2328($29)
  4072d8:	43 00 00 00 c0 09 06 1d 	addiu $6,$29,2496
  4072e0:	43 00 00 00 ff fe 03 00 	addiu $3,$0,-257
  4072e8:	34 00 00 00 10 09 1e 1d 	sw $30,2320($29)
  4072f0:	34 00 00 00 14 09 16 1d 	sw $22,2324($29)
  4072f8:	34 00 00 00 80 09 08 1d 	sw $8,2432($29)
  407300:	22 00 00 00 30 09 0e 1d 	lbu $14,2352($29)
  407308:	4e 00 00 00 00 02 03 02 	and $2,$2,$3
  407310:	55 00 00 00 08 03 07 00 	sll $3,$7,0x8
  407318:	50 00 00 00 00 02 03 02 	or $2,$2,$3
  407320:	43 00 00 00 ff fd 03 00 	addiu $3,$0,-513
  407328:	4e 00 00 00 00 02 03 02 	and $2,$2,$3
  407330:	55 00 00 00 09 03 0b 00 	sll $3,$11,0x9
  407338:	50 00 00 00 00 02 03 02 	or $2,$2,$3
  407340:	43 00 00 00 ff fb 03 00 	addiu $3,$0,-1025
  407348:	4e 00 00 00 00 02 03 02 	and $2,$2,$3
  407350:	55 00 00 00 0a 03 0a 00 	sll $3,$10,0xa
  407358:	50 00 00 00 00 02 03 02 	or $2,$2,$3
  407360:	43 00 00 00 ff f7 03 00 	addiu $3,$0,-2049
  407368:	4e 00 00 00 00 02 03 02 	and $2,$2,$3
  407370:	55 00 00 00 0b 03 0f 00 	sll $3,$15,0xb
  407378:	50 00 00 00 00 02 03 02 	or $2,$2,$3
  407380:	43 00 00 00 ff ef 03 00 	addiu $3,$0,-4097
  407388:	4e 00 00 00 00 02 03 02 	and $2,$2,$3
  407390:	55 00 00 00 0c 03 0c 00 	sll $3,$12,0xc
  407398:	50 00 00 00 00 02 03 02 	or $2,$2,$3
  4073a0:	43 00 00 00 ff df 03 00 	addiu $3,$0,-8193
  4073a8:	4e 00 00 00 00 02 03 02 	and $2,$2,$3
  4073b0:	55 00 00 00 0d 03 0e 00 	sll $3,$14,0xd
  4073b8:	50 00 00 00 00 02 03 02 	or $2,$2,$3
  4073c0:	43 00 00 00 ff bf 03 00 	addiu $3,$0,-16385
  4073c8:	4e 00 00 00 00 02 03 02 	and $2,$2,$3
  4073d0:	22 00 00 00 40 09 0f 1d 	lbu $15,2368($29)
  4073d8:	55 00 00 00 0e 03 0d 00 	sll $3,$13,0xe
  4073e0:	50 00 00 00 00 02 03 02 	or $2,$2,$3
  4073e8:	34 00 00 00 18 09 02 1d 	sw $2,2328($29)
  4073f0:	30 00 00 00 1a 09 0f 1d 	sb $15,2330($29)
  4073f8:	04 00 00 00 00 1f 00 09 	jalr $31,$9
  407400:	28 00 00 00 80 09 08 1d 	lw $8,2432($29)
  407408:	09 00 00 00 3a f8 00 02 	bltz $2,4054f8 <vfprintf+0x578>
  407410:	42 00 00 00 00 15 02 15 	addu $21,$21,$2
  407418:	20 00 00 00 00 00 02 08 	lb $2,0($8)
  407420:	22 00 00 00 00 00 03 08 	lbu $3,0($8)
  407428:	06 00 00 00 50 f7 00 02 	bne $2,$0,405170 <vfprintf+0x1f0>
  407430:	22 00 00 00 20 09 0e 1d 	lbu $14,2336($29)
  407438:	42 00 00 00 00 02 0e 00 	addu $2,$0,$14
  407440:	05 00 00 00 12 00 00 02 	beq $2,$0,407490 <vfprintf+0x2510>
  407448:	42 00 00 00 00 04 14 00 	addu $4,$0,$20
  407450:	02 00 00 00 74 46 10 00 	jal 4119d0 <fflush>
  407458:	43 00 00 00 ff ff 03 00 	addiu $3,$0,-1
  407460:	05 00 00 00 06 f7 03 02 	beq $2,$3,405080 <vfprintf+0x100>
  407468:	34 00 00 00 0c 00 00 14 	sw $0,12($20)
  407470:	34 00 00 00 08 00 00 14 	sw $0,8($20)
  407478:	34 00 00 00 04 00 00 14 	sw $0,4($20)
  407480:	34 00 00 00 10 00 00 14 	sw $0,16($20)
  407488:	34 00 00 00 14 00 00 14 	sw $0,20($20)
  407490:	42 00 00 00 00 02 15 00 	addu $2,$0,$21
  407498:	28 00 00 00 b4 09 1f 1d 	lw $31,2484($29)
  4074a0:	28 00 00 00 b0 09 1e 1d 	lw $30,2480($29)
  4074a8:	28 00 00 00 ac 09 17 1d 	lw $23,2476($29)
  4074b0:	28 00 00 00 a8 09 16 1d 	lw $22,2472($29)
  4074b8:	28 00 00 00 a4 09 15 1d 	lw $21,2468($29)
  4074c0:	28 00 00 00 a0 09 14 1d 	lw $20,2464($29)
  4074c8:	28 00 00 00 9c 09 13 1d 	lw $19,2460($29)
  4074d0:	28 00 00 00 98 09 12 1d 	lw $18,2456($29)
  4074d8:	28 00 00 00 94 09 11 1d 	lw $17,2452($29)
  4074e0:	28 00 00 00 90 09 10 1d 	lw $16,2448($29)
  4074e8:	43 00 00 00 b8 09 1d 1d 	addiu $29,$29,2488
  4074f0:	03 00 00 00 00 00 00 1f 	jr $31

004074f8 <printf_unknown>:
  4074f8:	43 00 00 00 d0 fb 1d 1d 	addiu $29,$29,-1072
  407500:	34 00 00 00 10 04 10 1d 	sw $16,1040($29)
  407508:	42 00 00 00 00 10 04 00 	addu $16,$0,$4
  407510:	34 00 00 00 24 04 15 1d 	sw $21,1060($29)
  407518:	42 00 00 00 00 15 05 00 	addu $21,$0,$5
  407520:	34 00 00 00 2c 04 1f 1d 	sw $31,1068($29)
  407528:	34 00 00 00 28 04 16 1d 	sw $22,1064($29)
  407530:	34 00 00 00 20 04 14 1d 	sw $20,1056($29)
  407538:	34 00 00 00 1c 04 13 1d 	sw $19,1052($29)
  407540:	34 00 00 00 18 04 12 1d 	sw $18,1048($29)
  407548:	34 00 00 00 14 04 11 1d 	sw $17,1044($29)
  407550:	28 00 00 00 00 00 14 15 	lw $20,0($21)
  407558:	28 00 00 00 04 00 13 15 	lw $19,4($21)
  407560:	42 00 00 00 00 12 00 00 	addu $18,$0,$0
  407568:	43 00 00 00 0f 04 16 1d 	addiu $22,$29,1039
  407570:	28 00 00 00 04 00 03 10 	lw $3,4($16)
  407578:	28 00 00 00 0c 00 02 10 	lw $2,12($16)
  407580:	5d 00 00 00 00 02 02 03 	sltu $2,$3,$2
  407588:	05 00 00 00 0a 00 00 02 	beq $2,$0,4075b8 <printf_unknown+0xc0>
  407590:	43 00 00 00 01 00 02 03 	addiu $2,$3,1
  407598:	34 00 00 00 04 00 02 10 	sw $2,4($16)
  4075a0:	43 00 00 00 25 00 02 00 	addiu $2,$0,37
  4075a8:	30 00 00 00 00 00 02 03 	sb $2,0($3)
  4075b0:	01 00 00 00 78 1d 10 00 	j 4075e0 <printf_unknown+0xe8>
  4075b8:	42 00 00 00 00 04 10 00 	addu $4,$0,$16
  4075c0:	43 00 00 00 25 00 05 00 	addiu $5,$0,37
  4075c8:	02 00 00 00 84 0f 10 00 	jal 403e10 <__flshfp>
  4075d0:	43 00 00 00 ff ff 03 00 	addiu $3,$0,-1
  4075d8:	05 00 00 00 a8 01 03 02 	beq $2,$3,407c80 <printf_unknown+0x788>
  4075e0:	43 00 00 00 01 00 12 12 	addiu $18,$18,1
  4075e8:	28 00 00 00 08 00 02 15 	lw $2,8($21)
  4075f0:	4f 00 00 00 00 08 02 02 	andi $2,$2,2048
  4075f8:	05 00 00 00 1e 00 00 02 	beq $2,$0,407678 <printf_unknown+0x180>
  407600:	28 00 00 00 04 00 03 10 	lw $3,4($16)
  407608:	28 00 00 00 0c 00 02 10 	lw $2,12($16)
  407610:	5d 00 00 00 00 02 02 03 	sltu $2,$3,$2
  407618:	05 00 00 00 0a 00 00 02 	beq $2,$0,407648 <printf_unknown+0x150>
  407620:	43 00 00 00 01 00 02 03 	addiu $2,$3,1
  407628:	34 00 00 00 04 00 02 10 	sw $2,4($16)
  407630:	43 00 00 00 23 00 02 00 	addiu $2,$0,35
  407638:	30 00 00 00 00 00 02 03 	sb $2,0($3)
  407640:	01 00 00 00 9c 1d 10 00 	j 407670 <printf_unknown+0x178>
  407648:	42 00 00 00 00 04 10 00 	addu $4,$0,$16
  407650:	43 00 00 00 23 00 05 00 	addiu $5,$0,35
  407658:	02 00 00 00 84 0f 10 00 	jal 403e10 <__flshfp>
  407660:	43 00 00 00 ff ff 03 00 	addiu $3,$0,-1
  407668:	05 00 00 00 84 01 03 02 	beq $2,$3,407c80 <printf_unknown+0x788>
  407670:	43 00 00 00 01 00 12 12 	addiu $18,$18,1
  407678:	28 00 00 00 08 00 03 15 	lw $3,8($21)
  407680:	4f 00 00 00 00 40 02 03 	andi $2,$3,16384
  407688:	05 00 00 00 1e 00 00 02 	beq $2,$0,407708 <printf_unknown+0x210>
  407690:	28 00 00 00 04 00 03 10 	lw $3,4($16)
  407698:	28 00 00 00 0c 00 02 10 	lw $2,12($16)
  4076a0:	5d 00 00 00 00 02 02 03 	sltu $2,$3,$2
  4076a8:	05 00 00 00 0a 00 00 02 	beq $2,$0,4076d8 <printf_unknown+0x1e0>
  4076b0:	43 00 00 00 01 00 02 03 	addiu $2,$3,1
  4076b8:	34 00 00 00 04 00 02 10 	sw $2,4($16)
  4076c0:	43 00 00 00 2b 00 02 00 	addiu $2,$0,43
  4076c8:	30 00 00 00 00 00 02 03 	sb $2,0($3)
  4076d0:	01 00 00 00 e2 1d 10 00 	j 407788 <printf_unknown+0x290>
  4076d8:	42 00 00 00 00 04 10 00 	addu $4,$0,$16
  4076e0:	43 00 00 00 2b 00 05 00 	addiu $5,$0,43
  4076e8:	02 00 00 00 84 0f 10 00 	jal 403e10 <__flshfp>
  4076f0:	43 00 00 00 ff ff 03 00 	addiu $3,$0,-1
  4076f8:	06 00 00 00 22 00 03 02 	bne $2,$3,407788 <printf_unknown+0x290>
  407700:	01 00 00 00 20 1f 10 00 	j 407c80 <printf_unknown+0x788>
  407708:	4f 00 00 00 00 10 02 03 	andi $2,$3,4096
  407710:	05 00 00 00 1e 00 00 02 	beq $2,$0,407790 <printf_unknown+0x298>
  407718:	28 00 00 00 04 00 03 10 	lw $3,4($16)
  407720:	28 00 00 00 0c 00 02 10 	lw $2,12($16)
  407728:	5d 00 00 00 00 02 02 03 	sltu $2,$3,$2
  407730:	05 00 00 00 0a 00 00 02 	beq $2,$0,407760 <printf_unknown+0x268>
  407738:	43 00 00 00 01 00 02 03 	addiu $2,$3,1
  407740:	34 00 00 00 04 00 02 10 	sw $2,4($16)
  407748:	43 00 00 00 20 00 02 00 	addiu $2,$0,32
  407750:	30 00 00 00 00 00 02 03 	sb $2,0($3)
  407758:	01 00 00 00 e2 1d 10 00 	j 407788 <printf_unknown+0x290>
  407760:	42 00 00 00 00 04 10 00 	addu $4,$0,$16
  407768:	43 00 00 00 20 00 05 00 	addiu $5,$0,32
  407770:	02 00 00 00 84 0f 10 00 	jal 403e10 <__flshfp>
  407778:	43 00 00 00 ff ff 03 00 	addiu $3,$0,-1
  407780:	05 00 00 00 3e 01 03 02 	beq $2,$3,407c80 <printf_unknown+0x788>
  407788:	43 00 00 00 01 00 12 12 	addiu $18,$18,1
  407790:	28 00 00 00 08 00 02 15 	lw $2,8($21)
  407798:	4f 00 00 00 00 20 02 02 	andi $2,$2,8192
  4077a0:	05 00 00 00 1e 00 00 02 	beq $2,$0,407820 <printf_unknown+0x328>
  4077a8:	28 00 00 00 04 00 03 10 	lw $3,4($16)
  4077b0:	28 00 00 00 0c 00 02 10 	lw $2,12($16)
  4077b8:	5d 00 00 00 00 02 02 03 	sltu $2,$3,$2
  4077c0:	05 00 00 00 0a 00 00 02 	beq $2,$0,4077f0 <printf_unknown+0x2f8>
  4077c8:	43 00 00 00 01 00 02 03 	addiu $2,$3,1
  4077d0:	34 00 00 00 04 00 02 10 	sw $2,4($16)
  4077d8:	43 00 00 00 2d 00 02 00 	addiu $2,$0,45
  4077e0:	30 00 00 00 00 00 02 03 	sb $2,0($3)
  4077e8:	01 00 00 00 06 1e 10 00 	j 407818 <printf_unknown+0x320>
  4077f0:	42 00 00 00 00 04 10 00 	addu $4,$0,$16
  4077f8:	43 00 00 00 2d 00 05 00 	addiu $5,$0,45
  407800:	02 00 00 00 84 0f 10 00 	jal 403e10 <__flshfp>
  407808:	43 00 00 00 ff ff 03 00 	addiu $3,$0,-1
  407810:	05 00 00 00 1a 01 03 02 	beq $2,$3,407c80 <printf_unknown+0x788>
  407818:	43 00 00 00 01 00 12 12 	addiu $18,$18,1
  407820:	20 00 00 00 0a 00 03 15 	lb $3,10($21)
  407828:	43 00 00 00 30 00 02 00 	addiu $2,$0,48
  407830:	06 00 00 00 1e 00 02 03 	bne $3,$2,4078b0 <printf_unknown+0x3b8>
  407838:	28 00 00 00 04 00 03 10 	lw $3,4($16)
  407840:	28 00 00 00 0c 00 02 10 	lw $2,12($16)
  407848:	5d 00 00 00 00 02 02 03 	sltu $2,$3,$2
  407850:	05 00 00 00 0a 00 00 02 	beq $2,$0,407880 <printf_unknown+0x388>
  407858:	43 00 00 00 01 00 02 03 	addiu $2,$3,1
  407860:	34 00 00 00 04 00 02 10 	sw $2,4($16)
  407868:	43 00 00 00 30 00 02 00 	addiu $2,$0,48
  407870:	30 00 00 00 00 00 02 03 	sb $2,0($3)
  407878:	01 00 00 00 2a 1e 10 00 	j 4078a8 <printf_unknown+0x3b0>
  407880:	42 00 00 00 00 04 10 00 	addu $4,$0,$16
  407888:	43 00 00 00 30 00 05 00 	addiu $5,$0,48
  407890:	02 00 00 00 84 0f 10 00 	jal 403e10 <__flshfp>
  407898:	43 00 00 00 ff ff 03 00 	addiu $3,$0,-1
  4078a0:	05 00 00 00 f6 00 03 02 	beq $2,$3,407c80 <printf_unknown+0x788>
  4078a8:	43 00 00 00 01 00 12 12 	addiu $18,$18,1
  4078b0:	42 00 00 00 00 11 16 00 	addu $17,$0,$22
  4078b8:	07 00 00 00 26 00 00 13 	blez $19,407958 <printf_unknown+0x460>
  4078c0:	a2 00 00 00 66 66 03 00 	lui $3,26214
  4078c8:	51 00 00 00 67 66 03 03 	ori $3,$3,26215
  4078d0:	46 00 00 00 00 00 03 13 	mult $19,$3
  4078d8:	4a 00 00 00 00 05 00 00 	mfhi $5
  4078e0:	4c 00 00 00 00 04 00 00 	mflo $4
  4078e8:	57 00 00 00 00 04 05 00 	srl $4,$5,0x0
  4078f0:	42 00 00 00 00 05 00 00 	addu $5,$0,$0
  4078f8:	59 00 00 00 02 04 04 00 	sra $4,$4,0x2
  407900:	59 00 00 00 1f 02 13 00 	sra $2,$19,0x1f
  407908:	45 00 00 00 00 04 02 04 	subu $4,$4,$2
  407910:	55 00 00 00 02 02 04 00 	sll $2,$4,0x2
  407918:	42 00 00 00 00 02 04 02 	addu $2,$2,$4
  407920:	55 00 00 00 01 02 02 00 	sll $2,$2,0x1
  407928:	45 00 00 00 00 02 02 13 	subu $2,$19,$2
  407930:	43 00 00 00 30 00 02 02 	addiu $2,$2,48
  407938:	30 00 00 00 00 00 02 11 	sb $2,0($17)
  407940:	43 00 00 00 ff ff 11 11 	addiu $17,$17,-1
  407948:	42 00 00 00 00 13 04 00 	addu $19,$0,$4
  407950:	08 00 00 00 de ff 00 13 	bgtz $19,4078d0 <printf_unknown+0x3d8>
  407958:	43 00 00 00 01 00 11 11 	addiu $17,$17,1
  407960:	5d 00 00 00 00 02 11 16 	sltu $2,$22,$17
  407968:	06 00 00 00 28 00 00 02 	bne $2,$0,407a10 <printf_unknown+0x518>
  407970:	43 00 00 00 ff ff 13 00 	addiu $19,$0,-1
  407978:	28 00 00 00 04 00 03 10 	lw $3,4($16)
  407980:	28 00 00 00 0c 00 02 10 	lw $2,12($16)
  407988:	20 00 00 00 00 00 05 11 	lb $5,0($17)
  407990:	5d 00 00 00 00 02 02 03 	sltu $2,$3,$2
  407998:	05 00 00 00 0c 00 00 02 	beq $2,$0,4079d0 <printf_unknown+0x4d8>
  4079a0:	43 00 00 00 01 00 02 03 	addiu $2,$3,1
  4079a8:	34 00 00 00 04 00 02 10 	sw $2,4($16)
  4079b0:	42 00 00 00 00 02 05 00 	addu $2,$0,$5
  4079b8:	30 00 00 00 00 00 02 03 	sb $2,0($3)
  4079c0:	4f 00 00 00 ff 00 02 02 	andi $2,$2,255
  4079c8:	01 00 00 00 7a 1e 10 00 	j 4079e8 <printf_unknown+0x4f0>
  4079d0:	42 00 00 00 00 04 10 00 	addu $4,$0,$16
  4079d8:	4f 00 00 00 ff 00 05 05 	andi $5,$5,255
  4079e0:	02 00 00 00 84 0f 10 00 	jal 403e10 <__flshfp>
  4079e8:	05 00 00 00 a4 00 13 02 	beq $2,$19,407c80 <printf_unknown+0x788>
  4079f0:	43 00 00 00 01 00 12 12 	addiu $18,$18,1
  4079f8:	43 00 00 00 01 00 11 11 	addiu $17,$17,1
  407a00:	5d 00 00 00 00 02 11 16 	sltu $2,$22,$17
  407a08:	05 00 00 00 da ff 00 02 	beq $2,$0,407978 <printf_unknown+0x480>
  407a10:	28 00 00 00 00 00 02 15 	lw $2,0($21)
  407a18:	43 00 00 00 ff ff 11 00 	addiu $17,$0,-1
  407a20:	05 00 00 00 74 00 11 02 	beq $2,$17,407bf8 <printf_unknown+0x700>
  407a28:	28 00 00 00 04 00 03 10 	lw $3,4($16)
  407a30:	28 00 00 00 0c 00 02 10 	lw $2,12($16)
  407a38:	5d 00 00 00 00 02 02 03 	sltu $2,$3,$2
  407a40:	05 00 00 00 0a 00 00 02 	beq $2,$0,407a70 <printf_unknown+0x578>
  407a48:	43 00 00 00 01 00 02 03 	addiu $2,$3,1
  407a50:	34 00 00 00 04 00 02 10 	sw $2,4($16)
  407a58:	43 00 00 00 2e 00 02 00 	addiu $2,$0,46
  407a60:	30 00 00 00 00 00 02 03 	sb $2,0($3)
  407a68:	01 00 00 00 a4 1e 10 00 	j 407a90 <printf_unknown+0x598>
  407a70:	42 00 00 00 00 04 10 00 	addu $4,$0,$16
  407a78:	43 00 00 00 2e 00 05 00 	addiu $5,$0,46
  407a80:	02 00 00 00 84 0f 10 00 	jal 403e10 <__flshfp>
  407a88:	05 00 00 00 7c 00 11 02 	beq $2,$17,407c80 <printf_unknown+0x788>
  407a90:	43 00 00 00 01 00 12 12 	addiu $18,$18,1
  407a98:	42 00 00 00 00 11 16 00 	addu $17,$0,$22
  407aa0:	07 00 00 00 26 00 00 14 	blez $20,407b40 <printf_unknown+0x648>
  407aa8:	a2 00 00 00 66 66 03 00 	lui $3,26214
  407ab0:	51 00 00 00 67 66 03 03 	ori $3,$3,26215
  407ab8:	46 00 00 00 00 00 03 14 	mult $20,$3
  407ac0:	4a 00 00 00 00 05 00 00 	mfhi $5
  407ac8:	4c 00 00 00 00 04 00 00 	mflo $4
  407ad0:	57 00 00 00 00 04 05 00 	srl $4,$5,0x0
  407ad8:	42 00 00 00 00 05 00 00 	addu $5,$0,$0
  407ae0:	59 00 00 00 02 04 04 00 	sra $4,$4,0x2
  407ae8:	59 00 00 00 1f 02 14 00 	sra $2,$20,0x1f
  407af0:	45 00 00 00 00 04 02 04 	subu $4,$4,$2
  407af8:	55 00 00 00 02 02 04 00 	sll $2,$4,0x2
  407b00:	42 00 00 00 00 02 04 02 	addu $2,$2,$4
  407b08:	55 00 00 00 01 02 02 00 	sll $2,$2,0x1
  407b10:	45 00 00 00 00 02 02 14 	subu $2,$20,$2
  407b18:	43 00 00 00 30 00 02 02 	addiu $2,$2,48
  407b20:	30 00 00 00 00 00 02 11 	sb $2,0($17)
  407b28:	43 00 00 00 ff ff 11 11 	addiu $17,$17,-1
  407b30:	42 00 00 00 00 14 04 00 	addu $20,$0,$4
  407b38:	08 00 00 00 de ff 00 14 	bgtz $20,407ab8 <printf_unknown+0x5c0>
  407b40:	43 00 00 00 01 00 11 11 	addiu $17,$17,1
  407b48:	5d 00 00 00 00 02 11 16 	sltu $2,$22,$17
  407b50:	06 00 00 00 28 00 00 02 	bne $2,$0,407bf8 <printf_unknown+0x700>
  407b58:	43 00 00 00 ff ff 13 00 	addiu $19,$0,-1
  407b60:	28 00 00 00 04 00 03 10 	lw $3,4($16)
  407b68:	28 00 00 00 0c 00 02 10 	lw $2,12($16)
  407b70:	20 00 00 00 00 00 05 11 	lb $5,0($17)
  407b78:	5d 00 00 00 00 02 02 03 	sltu $2,$3,$2
  407b80:	05 00 00 00 0c 00 00 02 	beq $2,$0,407bb8 <printf_unknown+0x6c0>
  407b88:	43 00 00 00 01 00 02 03 	addiu $2,$3,1
  407b90:	34 00 00 00 04 00 02 10 	sw $2,4($16)
  407b98:	42 00 00 00 00 02 05 00 	addu $2,$0,$5
  407ba0:	30 00 00 00 00 00 02 03 	sb $2,0($3)
  407ba8:	4f 00 00 00 ff 00 02 02 	andi $2,$2,255
  407bb0:	01 00 00 00 f4 1e 10 00 	j 407bd0 <printf_unknown+0x6d8>
  407bb8:	42 00 00 00 00 04 10 00 	addu $4,$0,$16
  407bc0:	4f 00 00 00 ff 00 05 05 	andi $5,$5,255
  407bc8:	02 00 00 00 84 0f 10 00 	jal 403e10 <__flshfp>
  407bd0:	05 00 00 00 2a 00 13 02 	beq $2,$19,407c80 <printf_unknown+0x788>
  407bd8:	43 00 00 00 01 00 12 12 	addiu $18,$18,1
  407be0:	43 00 00 00 01 00 11 11 	addiu $17,$17,1
  407be8:	5d 00 00 00 00 02 11 16 	sltu $2,$22,$17
  407bf0:	05 00 00 00 da ff 00 02 	beq $2,$0,407b60 <printf_unknown+0x668>
  407bf8:	28 00 00 00 04 00 04 10 	lw $4,4($16)
  407c00:	28 00 00 00 0c 00 02 10 	lw $2,12($16)
  407c08:	22 00 00 00 08 00 05 15 	lbu $5,8($21)
  407c10:	5d 00 00 00 00 02 02 04 	sltu $2,$4,$2
  407c18:	05 00 00 00 10 00 00 02 	beq $2,$0,407c60 <printf_unknown+0x768>
  407c20:	43 00 00 00 01 00 02 04 	addiu $2,$4,1
  407c28:	42 00 00 00 00 03 05 00 	addu $3,$0,$5
  407c30:	34 00 00 00 04 00 02 10 	sw $2,4($16)
  407c38:	30 00 00 00 00 00 03 04 	sb $3,0($4)
  407c40:	4f 00 00 00 ff 00 03 03 	andi $3,$3,255
  407c48:	43 00 00 00 ff ff 02 00 	addiu $2,$0,-1
  407c50:	05 00 00 00 0a 00 02 03 	beq $3,$2,407c80 <printf_unknown+0x788>
  407c58:	01 00 00 00 24 1f 10 00 	j 407c90 <printf_unknown+0x798>
  407c60:	42 00 00 00 00 04 10 00 	addu $4,$0,$16
  407c68:	02 00 00 00 84 0f 10 00 	jal 403e10 <__flshfp>
  407c70:	43 00 00 00 ff ff 03 00 	addiu $3,$0,-1
  407c78:	06 00 00 00 04 00 03 02 	bne $2,$3,407c90 <printf_unknown+0x798>
  407c80:	43 00 00 00 ff ff 02 00 	addiu $2,$0,-1
  407c88:	01 00 00 00 26 1f 10 00 	j 407c98 <printf_unknown+0x7a0>
  407c90:	43 00 00 00 01 00 02 12 	addiu $2,$18,1
  407c98:	28 00 00 00 2c 04 1f 1d 	lw $31,1068($29)
  407ca0:	28 00 00 00 28 04 16 1d 	lw $22,1064($29)
  407ca8:	28 00 00 00 24 04 15 1d 	lw $21,1060($29)
  407cb0:	28 00 00 00 20 04 14 1d 	lw $20,1056($29)
  407cb8:	28 00 00 00 1c 04 13 1d 	lw $19,1052($29)
  407cc0:	28 00 00 00 18 04 12 1d 	lw $18,1048($29)
  407cc8:	28 00 00 00 14 04 11 1d 	lw $17,1044($29)
  407cd0:	28 00 00 00 10 04 10 1d 	lw $16,1040($29)
  407cd8:	43 00 00 00 30 04 1d 1d 	addiu $29,$29,1072
  407ce0:	03 00 00 00 00 00 00 1f 	jr $31
	...
  407cf0:	01 00 00 00 dc 2d 10 00 	j 40b770 <syscall_error>
	...

00407d00 <__unlink>:
  407d00:	43 00 00 00 0a 00 02 00 	addiu $2,$0,10
  407d08:	a0 00 00 00 00 00 00 00 	syscall 
  407d10:	06 00 00 00 f6 ff 00 07 	bne $7,$0,407cf0 <printf_unknown+0x7f8>
	...
  407d20:	03 00 00 00 00 00 00 1f 	jr $31
	...

00407d30 <__stdio_read>:
  407d30:	43 00 00 00 e8 ff 1d 1d 	addiu $29,$29,-24
  407d38:	34 00 00 00 10 00 1f 1d 	sw $31,16($29)
  407d40:	02 00 00 00 f8 46 10 00 	jal 411be0 <__read>
  407d48:	28 00 00 00 10 00 1f 1d 	lw $31,16($29)
  407d50:	43 00 00 00 18 00 1d 1d 	addiu $29,$29,24
  407d58:	03 00 00 00 00 00 00 1f 	jr $31

00407d60 <__stdio_write>:
  407d60:	43 00 00 00 d8 ff 1d 1d 	addiu $29,$29,-40
  407d68:	34 00 00 00 14 00 11 1d 	sw $17,20($29)
  407d70:	42 00 00 00 00 11 05 00 	addu $17,$0,$5
  407d78:	34 00 00 00 10 00 10 1d 	sw $16,16($29)
  407d80:	42 00 00 00 00 10 06 00 	addu $16,$0,$6
  407d88:	34 00 00 00 18 00 12 1d 	sw $18,24($29)
  407d90:	42 00 00 00 00 12 00 00 	addu $18,$0,$0
  407d98:	34 00 00 00 1c 00 13 1d 	sw $19,28($29)
  407da0:	42 00 00 00 00 13 04 00 	addu $19,$0,$4
  407da8:	34 00 00 00 20 00 1f 1d 	sw $31,32($29)
  407db0:	05 00 00 00 18 00 00 10 	beq $16,$0,407e18 <__stdio_write+0xb8>
  407db8:	42 00 00 00 00 04 13 00 	addu $4,$0,$19
  407dc0:	42 00 00 00 00 05 11 00 	addu $5,$0,$17
  407dc8:	42 00 00 00 00 06 10 00 	addu $6,$0,$16
  407dd0:	02 00 00 00 08 47 10 00 	jal 411c20 <__write>
  407dd8:	08 00 00 00 06 00 00 02 	bgtz $2,407df8 <__stdio_write+0x98>
  407de0:	0a 00 00 00 0a 00 00 02 	bgez $2,407e10 <__stdio_write+0xb0>
  407de8:	43 00 00 00 ff ff 02 00 	addiu $2,$0,-1
  407df0:	01 00 00 00 88 1f 10 00 	j 407e20 <__stdio_write+0xc0>
  407df8:	42 00 00 00 00 11 02 11 	addu $17,$17,$2
  407e00:	42 00 00 00 00 12 02 12 	addu $18,$18,$2
  407e08:	45 00 00 00 00 10 02 10 	subu $16,$16,$2
  407e10:	06 00 00 00 e8 ff 00 10 	bne $16,$0,407db8 <__stdio_write+0x58>
  407e18:	42 00 00 00 00 02 12 00 	addu $2,$0,$18
  407e20:	28 00 00 00 20 00 1f 1d 	lw $31,32($29)
  407e28:	28 00 00 00 1c 00 13 1d 	lw $19,28($29)
  407e30:	28 00 00 00 18 00 12 1d 	lw $18,24($29)
  407e38:	28 00 00 00 14 00 11 1d 	lw $17,20($29)
  407e40:	28 00 00 00 10 00 10 1d 	lw $16,16($29)
  407e48:	43 00 00 00 28 00 1d 1d 	addiu $29,$29,40
  407e50:	03 00 00 00 00 00 00 1f 	jr $31

00407e58 <__stdio_seek>:
  407e58:	43 00 00 00 e8 ff 1d 1d 	addiu $29,$29,-24
  407e60:	34 00 00 00 10 00 10 1d 	sw $16,16($29)
  407e68:	42 00 00 00 00 10 05 00 	addu $16,$0,$5
  407e70:	34 00 00 00 14 00 1f 1d 	sw $31,20($29)
  407e78:	28 00 00 00 00 00 05 10 	lw $5,0($16)
  407e80:	02 00 00 00 18 47 10 00 	jal 411c60 <__lseek>
  407e88:	09 00 00 00 06 00 00 02 	bltz $2,407ea8 <__stdio_seek+0x50>
  407e90:	34 00 00 00 00 00 02 10 	sw $2,0($16)
  407e98:	42 00 00 00 00 02 00 00 	addu $2,$0,$0
  407ea0:	01 00 00 00 ac 1f 10 00 	j 407eb0 <__stdio_seek+0x58>
  407ea8:	43 00 00 00 01 00 02 00 	addiu $2,$0,1
  407eb0:	28 00 00 00 14 00 1f 1d 	lw $31,20($29)
  407eb8:	28 00 00 00 10 00 10 1d 	lw $16,16($29)
  407ec0:	43 00 00 00 18 00 1d 1d 	addiu $29,$29,24
  407ec8:	03 00 00 00 00 00 00 1f 	jr $31

00407ed0 <__stdio_close>:
  407ed0:	43 00 00 00 e8 ff 1d 1d 	addiu $29,$29,-24
  407ed8:	34 00 00 00 10 00 1f 1d 	sw $31,16($29)
  407ee0:	02 00 00 00 28 47 10 00 	jal 411ca0 <__close>
  407ee8:	28 00 00 00 10 00 1f 1d 	lw $31,16($29)
  407ef0:	43 00 00 00 18 00 1d 1d 	addiu $29,$29,24
  407ef8:	03 00 00 00 00 00 00 1f 	jr $31

00407f00 <__stdio_fileno>:
  407f00:	42 00 00 00 00 02 04 00 	addu $2,$0,$4
  407f08:	03 00 00 00 00 00 00 1f 	jr $31

00407f10 <__stdio_open>:
  407f10:	43 00 00 00 e8 ff 1d 1d 	addiu $29,$29,-24
  407f18:	42 00 00 00 00 07 05 00 	addu $7,$0,$5
  407f20:	34 00 00 00 10 00 10 1d 	sw $16,16($29)
  407f28:	42 00 00 00 00 10 06 00 	addu $16,$0,$6
  407f30:	4f 00 00 00 03 00 03 07 	andi $3,$7,3
  407f38:	43 00 00 00 03 00 02 00 	addiu $2,$0,3
  407f40:	34 00 00 00 14 00 1f 1d 	sw $31,20($29)
  407f48:	06 00 00 00 04 00 02 03 	bne $3,$2,407f60 <__stdio_open+0x50>
  407f50:	43 00 00 00 02 00 05 00 	addiu $5,$0,2
  407f58:	01 00 00 00 dc 1f 10 00 	j 407f70 <__stdio_open+0x60>
  407f60:	53 00 00 00 01 00 05 07 	xori $5,$7,1
  407f68:	4f 00 00 00 01 00 05 05 	andi $5,$5,1
  407f70:	4f 00 00 00 04 00 02 07 	andi $2,$7,4
  407f78:	05 00 00 00 02 00 00 02 	beq $2,$0,407f88 <__stdio_open+0x78>
  407f80:	51 00 00 00 08 00 05 05 	ori $5,$5,8
  407f88:	4f 00 00 00 20 00 02 07 	andi $2,$7,32
  407f90:	05 00 00 00 02 00 00 02 	beq $2,$0,407fa0 <__stdio_open+0x90>
  407f98:	51 00 00 00 00 08 05 05 	ori $5,$5,2048
  407fa0:	4f 00 00 00 40 00 02 07 	andi $2,$7,64
  407fa8:	05 00 00 00 02 00 00 02 	beq $2,$0,407fb8 <__stdio_open+0xa8>
  407fb0:	51 00 00 00 00 04 05 05 	ori $5,$5,1024
  407fb8:	4f 00 00 00 10 00 02 07 	andi $2,$7,16
  407fc0:	05 00 00 00 08 00 00 02 	beq $2,$0,407fe8 <__stdio_open+0xd8>
  407fc8:	51 00 00 00 00 02 05 05 	ori $5,$5,512
  407fd0:	43 00 00 00 b6 01 06 00 	addiu $6,$0,438
  407fd8:	02 00 00 00 38 47 10 00 	jal 411ce0 <__open>
  407fe0:	01 00 00 00 fc 1f 10 00 	j 407ff0 <__stdio_open+0xe0>
  407fe8:	02 00 00 00 38 47 10 00 	jal 411ce0 <__open>
  407ff0:	09 00 00 00 06 00 00 02 	bltz $2,408010 <__stdio_open+0x100>
  407ff8:	34 00 00 00 00 00 02 10 	sw $2,0($16)
  408000:	42 00 00 00 00 02 00 00 	addu $2,$0,$0
  408008:	01 00 00 00 06 20 10 00 	j 408018 <__stdio_open+0x108>
  408010:	43 00 00 00 ff ff 02 00 	addiu $2,$0,-1
  408018:	28 00 00 00 14 00 1f 1d 	lw $31,20($29)
  408020:	28 00 00 00 10 00 10 1d 	lw $16,16($29)
  408028:	43 00 00 00 18 00 1d 1d 	addiu $29,$29,24
  408030:	03 00 00 00 00 00 00 1f 	jr $31

00408038 <__stdio_reopen>:
  408038:	43 00 00 00 d0 ff 1d 1d 	addiu $29,$29,-48
  408040:	34 00 00 00 1c 00 11 1d 	sw $17,28($29)
  408048:	42 00 00 00 00 11 04 00 	addu $17,$0,$4
  408050:	34 00 00 00 18 00 10 1d 	sw $16,24($29)
  408058:	42 00 00 00 00 10 05 00 	addu $16,$0,$5
  408060:	34 00 00 00 20 00 12 1d 	sw $18,32($29)
  408068:	42 00 00 00 00 12 06 00 	addu $18,$0,$6
  408070:	34 00 00 00 28 00 14 1d 	sw $20,40($29)
  408078:	42 00 00 00 00 14 07 00 	addu $20,$0,$7
  408080:	34 00 00 00 24 00 13 1d 	sw $19,36($29)
  408088:	43 00 00 00 10 00 13 1d 	addiu $19,$29,16
  408090:	4f 00 00 00 03 00 03 10 	andi $3,$16,3
  408098:	43 00 00 00 03 00 02 00 	addiu $2,$0,3
  4080a0:	34 00 00 00 2c 00 1f 1d 	sw $31,44($29)
  4080a8:	06 00 00 00 04 00 02 03 	bne $3,$2,4080c0 <__stdio_reopen+0x88>
  4080b0:	43 00 00 00 02 00 05 00 	addiu $5,$0,2
  4080b8:	01 00 00 00 34 20 10 00 	j 4080d0 <__stdio_reopen+0x98>
  4080c0:	53 00 00 00 01 00 05 10 	xori $5,$16,1
  4080c8:	4f 00 00 00 01 00 05 05 	andi $5,$5,1
  4080d0:	4f 00 00 00 04 00 02 10 	andi $2,$16,4
  4080d8:	05 00 00 00 02 00 00 02 	beq $2,$0,4080e8 <__stdio_reopen+0xb0>
  4080e0:	51 00 00 00 08 00 05 05 	ori $5,$5,8
  4080e8:	4f 00 00 00 20 00 02 10 	andi $2,$16,32
  4080f0:	05 00 00 00 02 00 00 02 	beq $2,$0,408100 <__stdio_reopen+0xc8>
  4080f8:	51 00 00 00 00 08 05 05 	ori $5,$5,2048
  408100:	4f 00 00 00 40 00 02 10 	andi $2,$16,64
  408108:	05 00 00 00 02 00 00 02 	beq $2,$0,408118 <__stdio_reopen+0xe0>
  408110:	51 00 00 00 00 04 05 05 	ori $5,$5,1024
  408118:	4f 00 00 00 10 00 02 10 	andi $2,$16,16
  408120:	05 00 00 00 0a 00 00 02 	beq $2,$0,408150 <__stdio_reopen+0x118>
  408128:	42 00 00 00 00 04 11 00 	addu $4,$0,$17
  408130:	51 00 00 00 00 02 05 05 	ori $5,$5,512
  408138:	43 00 00 00 b6 01 06 00 	addiu $6,$0,438
  408140:	02 00 00 00 38 47 10 00 	jal 411ce0 <__open>
  408148:	01 00 00 00 58 20 10 00 	j 408160 <__stdio_reopen+0x128>
  408150:	42 00 00 00 00 04 11 00 	addu $4,$0,$17
  408158:	02 00 00 00 38 47 10 00 	jal 411ce0 <__open>
  408160:	0a 00 00 00 04 00 00 02 	bgez $2,408178 <__stdio_reopen+0x140>
  408168:	43 00 00 00 ff ff 02 00 	addiu $2,$0,-1
  408170:	01 00 00 00 62 20 10 00 	j 408188 <__stdio_reopen+0x150>
  408178:	34 00 00 00 00 00 02 13 	sw $2,0($19)
  408180:	42 00 00 00 00 02 00 00 	addu $2,$0,$0
  408188:	05 00 00 00 50 00 00 02 	beq $2,$0,4082d0 <__stdio_reopen+0x298>
  408190:	28 00 00 00 60 84 02 1c 	lw $2,-31648($28)
  408198:	43 00 00 00 e9 ff 02 02 	addiu $2,$2,-23
  4081a0:	5e 00 00 00 02 00 02 02 	sltiu $2,$2,2
  4081a8:	05 00 00 00 48 00 00 02 	beq $2,$0,4082d0 <__stdio_reopen+0x298>
  4081b0:	28 00 00 00 00 00 04 12 	lw $4,0($18)
  4081b8:	04 00 00 00 00 1f 00 14 	jalr $31,$20
  4081c0:	43 00 00 00 10 00 13 1d 	addiu $19,$29,16
  4081c8:	4f 00 00 00 03 00 03 10 	andi $3,$16,3
  4081d0:	43 00 00 00 03 00 02 00 	addiu $2,$0,3
  4081d8:	06 00 00 00 04 00 02 03 	bne $3,$2,4081f0 <__stdio_reopen+0x1b8>
  4081e0:	43 00 00 00 02 00 05 00 	addiu $5,$0,2
  4081e8:	01 00 00 00 80 20 10 00 	j 408200 <__stdio_reopen+0x1c8>
  4081f0:	53 00 00 00 01 00 05 10 	xori $5,$16,1
  4081f8:	4f 00 00 00 01 00 05 05 	andi $5,$5,1
  408200:	4f 00 00 00 04 00 02 10 	andi $2,$16,4
  408208:	05 00 00 00 02 00 00 02 	beq $2,$0,408218 <__stdio_reopen+0x1e0>
  408210:	51 00 00 00 08 00 05 05 	ori $5,$5,8
  408218:	4f 00 00 00 20 00 02 10 	andi $2,$16,32
  408220:	05 00 00 00 02 00 00 02 	beq $2,$0,408230 <__stdio_reopen+0x1f8>
  408228:	51 00 00 00 00 08 05 05 	ori $5,$5,2048
  408230:	4f 00 00 00 40 00 02 10 	andi $2,$16,64
  408238:	05 00 00 00 02 00 00 02 	beq $2,$0,408248 <__stdio_reopen+0x210>
  408240:	51 00 00 00 00 04 05 05 	ori $5,$5,1024
  408248:	4f 00 00 00 10 00 02 10 	andi $2,$16,16
  408250:	05 00 00 00 0a 00 00 02 	beq $2,$0,408280 <__stdio_reopen+0x248>
  408258:	42 00 00 00 00 04 11 00 	addu $4,$0,$17
  408260:	51 00 00 00 00 02 05 05 	ori $5,$5,512
  408268:	43 00 00 00 b6 01 06 00 	addiu $6,$0,438
  408270:	02 00 00 00 38 47 10 00 	jal 411ce0 <__open>
  408278:	01 00 00 00 a4 20 10 00 	j 408290 <__stdio_reopen+0x258>
  408280:	42 00 00 00 00 04 11 00 	addu $4,$0,$17
  408288:	02 00 00 00 38 47 10 00 	jal 411ce0 <__open>
  408290:	0a 00 00 00 04 00 00 02 	bgez $2,4082a8 <__stdio_reopen+0x270>
  408298:	43 00 00 00 ff ff 02 00 	addiu $2,$0,-1
  4082a0:	01 00 00 00 ae 20 10 00 	j 4082b8 <__stdio_reopen+0x280>
  4082a8:	34 00 00 00 00 00 02 13 	sw $2,0($19)
  4082b0:	42 00 00 00 00 02 00 00 	addu $2,$0,$0
  4082b8:	05 00 00 00 04 00 00 02 	beq $2,$0,4082d0 <__stdio_reopen+0x298>
  4082c0:	43 00 00 00 ff ff 02 00 	addiu $2,$0,-1
  4082c8:	01 00 00 00 ca 20 10 00 	j 408328 <__stdio_reopen+0x2f0>
  4082d0:	28 00 00 00 10 00 04 1d 	lw $4,16($29)
  4082d8:	28 00 00 00 00 00 05 12 	lw $5,0($18)
  4082e0:	05 00 00 00 0e 00 05 04 	beq $4,$5,408320 <__stdio_reopen+0x2e8>
  4082e8:	a2 00 00 00 40 00 02 00 	lui $2,64
  4082f0:	43 00 00 00 d0 7e 02 02 	addiu $2,$2,32464
  4082f8:	06 00 00 00 04 00 02 14 	bne $20,$2,408310 <__stdio_reopen+0x2d8>
  408300:	02 00 00 00 48 47 10 00 	jal 411d20 <__dup2>
  408308:	0a 00 00 00 04 00 00 02 	bgez $2,408320 <__stdio_reopen+0x2e8>
  408310:	28 00 00 00 10 00 02 1d 	lw $2,16($29)
  408318:	34 00 00 00 00 00 02 12 	sw $2,0($18)
  408320:	42 00 00 00 00 02 00 00 	addu $2,$0,$0
  408328:	28 00 00 00 2c 00 1f 1d 	lw $31,44($29)
  408330:	28 00 00 00 28 00 14 1d 	lw $20,40($29)
  408338:	28 00 00 00 24 00 13 1d 	lw $19,36($29)
  408340:	28 00 00 00 20 00 12 1d 	lw $18,32($29)
  408348:	28 00 00 00 1c 00 11 1d 	lw $17,28($29)
  408350:	28 00 00 00 18 00 10 1d 	lw $16,24($29)
  408358:	43 00 00 00 30 00 1d 1d 	addiu $29,$29,48
  408360:	03 00 00 00 00 00 00 1f 	jr $31
	...

00408370 <__stdio_init_stream>:
  408370:	43 00 00 00 a0 ff 1d 1d 	addiu $29,$29,-96
  408378:	34 00 00 00 50 00 10 1d 	sw $16,80($29)
  408380:	42 00 00 00 00 10 04 00 	addu $16,$0,$4
  408388:	34 00 00 00 58 00 1f 1d 	sw $31,88($29)
  408390:	34 00 00 00 54 00 11 1d 	sw $17,84($29)
  408398:	28 00 00 00 10 00 02 10 	lw $2,16($16)
  4083a0:	28 00 00 00 18 00 11 10 	lw $17,24($16)
  4083a8:	06 00 00 00 34 00 00 02 	bne $2,$0,408480 <__stdio_init_stream+0x110>
  4083b0:	28 00 00 00 4c 00 02 10 	lw $2,76($16)
  4083b8:	4f 00 00 00 00 08 02 02 	andi $2,$2,2048
  4083c0:	06 00 00 00 2e 00 00 02 	bne $2,$0,408480 <__stdio_init_stream+0x110>
  4083c8:	42 00 00 00 00 04 11 00 	addu $4,$0,$17
  4083d0:	43 00 00 00 10 00 05 1d 	addiu $5,$29,16
  4083d8:	02 00 00 00 58 47 10 00 	jal 411d60 <__fstat>
  4083e0:	09 00 00 00 26 00 00 02 	bltz $2,408480 <__stdio_init_stream+0x110>
  4083e8:	26 00 00 00 18 00 02 1d 	lhu $2,24($29)
  4083f0:	4f 00 00 00 00 f0 03 02 	andi $3,$2,61440
  4083f8:	43 00 00 00 00 10 02 00 	addiu $2,$0,4096
  408400:	06 00 00 00 08 00 02 03 	bne $3,$2,408428 <__stdio_init_stream+0xb8>
  408408:	28 00 00 00 4c 00 02 10 	lw $2,76($16)
  408410:	51 00 00 00 00 08 02 02 	ori $2,$2,2048
  408418:	34 00 00 00 4c 00 02 10 	sw $2,76($16)
  408420:	01 00 00 00 20 21 10 00 	j 408480 <__stdio_init_stream+0x110>
  408428:	43 00 00 00 00 20 02 00 	addiu $2,$0,8192
  408430:	06 00 00 00 0e 00 02 03 	bne $3,$2,408470 <__stdio_init_stream+0x100>
  408438:	42 00 00 00 00 04 11 00 	addu $4,$0,$17
  408440:	02 00 00 00 64 47 10 00 	jal 411d90 <__isatty>
  408448:	05 00 00 00 08 00 00 02 	beq $2,$0,408470 <__stdio_init_stream+0x100>
  408450:	28 00 00 00 4c 00 02 10 	lw $2,76($16)
  408458:	34 00 00 00 28 00 00 10 	sw $0,40($16)
  408460:	51 00 00 00 00 10 02 02 	ori $2,$2,4096
  408468:	34 00 00 00 4c 00 02 10 	sw $2,76($16)
  408470:	28 00 00 00 40 00 02 1d 	lw $2,64($29)
  408478:	34 00 00 00 14 00 02 10 	sw $2,20($16)
  408480:	28 00 00 00 58 00 1f 1d 	lw $31,88($29)
  408488:	28 00 00 00 54 00 11 1d 	lw $17,84($29)
  408490:	28 00 00 00 50 00 10 1d 	lw $16,80($29)
  408498:	43 00 00 00 60 00 1d 1d 	addiu $29,$29,96
  4084a0:	03 00 00 00 00 00 00 1f 	jr $31
	...

004084b0 <initialize>:
  4084b0:	43 00 00 00 e8 ff 1d 1d 	addiu $29,$29,-24
  4084b8:	28 00 00 00 f0 80 03 1c 	lw $3,-32528($28)
  4084c0:	43 00 00 00 00 30 04 00 	addiu $4,$0,12288
  4084c8:	43 00 00 00 00 04 02 00 	addiu $2,$0,1024
  4084d0:	34 00 00 00 14 00 1f 1d 	sw $31,20($29)
  4084d8:	34 00 00 00 10 00 10 1d 	sw $16,16($29)
  4084e0:	34 00 00 00 50 84 02 1c 	sw $2,-31664($28)
  4084e8:	04 00 00 00 00 1f 00 03 	jalr $31,$3
  4084f0:	42 00 00 00 00 10 02 00 	addu $16,$0,$2
  4084f8:	4f 00 00 00 ff 0f 02 10 	andi $2,$16,4095
  408500:	05 00 00 00 0a 00 00 02 	beq $2,$0,408530 <initialize+0x80>
  408508:	43 00 00 00 00 10 04 00 	addiu $4,$0,4096
  408510:	45 00 00 00 00 04 02 04 	subu $4,$4,$2
  408518:	28 00 00 00 f0 80 02 1c 	lw $2,-32528($28)
  408520:	42 00 00 00 00 10 04 10 	addu $16,$16,$4
  408528:	04 00 00 00 00 1f 00 02 	jalr $31,$2
  408530:	28 00 00 00 c4 84 02 1c 	lw $2,-31548($28)
  408538:	05 00 00 00 02 00 00 02 	beq $2,$0,408548 <initialize+0x98>
  408540:	04 00 00 00 00 1f 00 02 	jalr $31,$2
  408548:	34 00 00 00 c8 84 10 1c 	sw $16,-31544($28)
  408550:	05 00 00 00 2e 00 00 10 	beq $16,$0,408610 <initialize+0x160>
  408558:	28 00 00 00 50 84 02 1c 	lw $2,-31664($28)
  408560:	42 00 00 00 00 04 10 00 	addu $4,$0,$16
  408568:	42 00 00 00 00 05 00 00 	addu $5,$0,$0
  408570:	55 00 00 00 01 06 02 00 	sll $6,$2,0x1
  408578:	42 00 00 00 00 06 02 06 	addu $6,$6,$2
  408580:	55 00 00 00 02 06 06 00 	sll $6,$6,0x2
  408588:	02 00 00 00 f8 24 10 00 	jal 4093e0 <memset>
  408590:	28 00 00 00 c8 84 04 1c 	lw $4,-31544($28)
  408598:	28 00 00 00 50 84 05 1c 	lw $5,-31664($28)
  4085a0:	43 00 00 00 01 00 02 00 	addiu $2,$0,1
  4085a8:	43 00 00 00 01 00 03 00 	addiu $3,$0,1
  4085b0:	34 00 00 00 bc 84 00 1c 	sw $0,-31556($28)
  4085b8:	34 00 00 00 d8 84 03 1c 	sw $3,-31528($28)
  4085c0:	34 00 00 00 cc 84 03 1c 	sw $3,-31540($28)
  4085c8:	55 00 00 00 01 03 05 00 	sll $3,$5,0x1
  4085d0:	42 00 00 00 00 03 05 03 	addu $3,$3,$5
  4085d8:	55 00 00 00 02 03 03 00 	sll $3,$3,0x2
  4085e0:	34 00 00 00 00 00 00 04 	sw $0,0($4)
  4085e8:	34 00 00 00 08 00 00 04 	sw $0,8($4)
  4085f0:	34 00 00 00 04 00 00 04 	sw $0,4($4)
  4085f8:	34 00 00 00 d4 84 04 1c 	sw $4,-31532($28)
  408600:	34 00 00 00 b0 84 03 1c 	sw $3,-31568($28)
  408608:	01 00 00 00 86 21 10 00 	j 408618 <initialize+0x168>
  408610:	42 00 00 00 00 02 00 00 	addu $2,$0,$0
  408618:	28 00 00 00 14 00 1f 1d 	lw $31,20($29)
  408620:	28 00 00 00 10 00 10 1d 	lw $16,16($29)
  408628:	43 00 00 00 18 00 1d 1d 	addiu $29,$29,24
  408630:	03 00 00 00 00 00 00 1f 	jr $31

00408638 <morecore>:
  408638:	28 00 00 00 f0 80 02 1c 	lw $2,-32528($28)
  408640:	43 00 00 00 d8 ff 1d 1d 	addiu $29,$29,-40
  408648:	34 00 00 00 1c 00 13 1d 	sw $19,28($29)
  408650:	42 00 00 00 00 13 04 00 	addu $19,$0,$4
  408658:	34 00 00 00 24 00 1f 1d 	sw $31,36($29)
  408660:	34 00 00 00 20 00 14 1d 	sw $20,32($29)
  408668:	34 00 00 00 18 00 12 1d 	sw $18,24($29)
  408670:	34 00 00 00 14 00 11 1d 	sw $17,20($29)
  408678:	34 00 00 00 10 00 10 1d 	sw $16,16($29)
  408680:	04 00 00 00 00 1f 00 02 	jalr $31,$2
  408688:	42 00 00 00 00 10 02 00 	addu $16,$0,$2
  408690:	4f 00 00 00 ff 0f 02 10 	andi $2,$16,4095
  408698:	05 00 00 00 0a 00 00 02 	beq $2,$0,4086c8 <morecore+0x90>
  4086a0:	43 00 00 00 00 10 04 00 	addiu $4,$0,4096
  4086a8:	45 00 00 00 00 04 02 04 	subu $4,$4,$2
  4086b0:	28 00 00 00 f0 80 02 1c 	lw $2,-32528($28)
  4086b8:	42 00 00 00 00 10 04 10 	addu $16,$16,$4
  4086c0:	04 00 00 00 00 1f 00 02 	jalr $31,$2
  4086c8:	28 00 00 00 c4 84 02 1c 	lw $2,-31548($28)
  4086d0:	05 00 00 00 02 00 00 02 	beq $2,$0,4086e0 <morecore+0xa8>
  4086d8:	04 00 00 00 00 1f 00 02 	jalr $31,$2
  4086e0:	42 00 00 00 00 12 10 00 	addu $18,$0,$16
  4086e8:	06 00 00 00 04 00 00 12 	bne $18,$0,408700 <morecore+0xc8>
  4086f0:	42 00 00 00 00 02 00 00 	addu $2,$0,$0
  4086f8:	01 00 00 00 86 22 10 00 	j 408a18 <morecore+0x3e0>
  408700:	28 00 00 00 d4 84 05 1c 	lw $5,-31532($28)
  408708:	42 00 00 00 00 04 13 12 	addu $4,$18,$19
  408710:	45 00 00 00 00 02 05 04 	subu $2,$4,$5
  408718:	0a 00 00 00 02 00 00 02 	bgez $2,408728 <morecore+0xf0>
  408720:	43 00 00 00 ff 0f 02 02 	addiu $2,$2,4095
  408728:	28 00 00 00 50 84 03 1c 	lw $3,-31664($28)
  408730:	59 00 00 00 0c 02 02 00 	sra $2,$2,0xc
  408738:	43 00 00 00 01 00 02 02 	addiu $2,$2,1
  408740:	5d 00 00 00 00 02 02 03 	sltu $2,$3,$2
  408748:	05 00 00 00 a0 00 00 02 	beq $2,$0,4089d0 <morecore+0x398>
  408750:	42 00 00 00 00 11 03 00 	addu $17,$0,$3
  408758:	42 00 00 00 00 03 05 00 	addu $3,$0,$5
  408760:	45 00 00 00 00 02 03 04 	subu $2,$4,$3
  408768:	0a 00 00 00 02 00 00 02 	bgez $2,408778 <morecore+0x140>
  408770:	43 00 00 00 ff 0f 02 02 	addiu $2,$2,4095
  408778:	59 00 00 00 0c 02 02 00 	sra $2,$2,0xc
  408780:	43 00 00 00 01 00 02 02 	addiu $2,$2,1
  408788:	5d 00 00 00 00 02 02 11 	sltu $2,$17,$2
  408790:	05 00 00 00 04 00 00 02 	beq $2,$0,4087a8 <morecore+0x170>
  408798:	55 00 00 00 01 11 11 00 	sll $17,$17,0x1
  4087a0:	01 00 00 00 d8 21 10 00 	j 408760 <morecore+0x128>
  4087a8:	55 00 00 00 01 02 11 00 	sll $2,$17,0x1
  4087b0:	42 00 00 00 00 02 11 02 	addu $2,$2,$17
  4087b8:	28 00 00 00 f0 80 03 1c 	lw $3,-32528($28)
  4087c0:	55 00 00 00 02 14 02 00 	sll $20,$2,0x2
  4087c8:	42 00 00 00 00 04 14 00 	addu $4,$0,$20
  4087d0:	04 00 00 00 00 1f 00 03 	jalr $31,$3
  4087d8:	42 00 00 00 00 10 02 00 	addu $16,$0,$2
  4087e0:	4f 00 00 00 ff 0f 02 10 	andi $2,$16,4095
  4087e8:	05 00 00 00 0a 00 00 02 	beq $2,$0,408818 <morecore+0x1e0>
  4087f0:	43 00 00 00 00 10 04 00 	addiu $4,$0,4096
  4087f8:	45 00 00 00 00 04 02 04 	subu $4,$4,$2
  408800:	28 00 00 00 f0 80 02 1c 	lw $2,-32528($28)
  408808:	42 00 00 00 00 10 04 10 	addu $16,$16,$4
  408810:	04 00 00 00 00 1f 00 02 	jalr $31,$2
  408818:	28 00 00 00 c4 84 02 1c 	lw $2,-31548($28)
  408820:	05 00 00 00 02 00 00 02 	beq $2,$0,408830 <morecore+0x1f8>
  408828:	04 00 00 00 00 1f 00 02 	jalr $31,$2
  408830:	06 00 00 00 0a 00 00 10 	bne $16,$0,408860 <morecore+0x228>
  408838:	28 00 00 00 f0 80 02 1c 	lw $2,-32528($28)
  408840:	45 00 00 00 00 04 13 00 	subu $4,$0,$19
  408848:	04 00 00 00 00 1f 00 02 	jalr $31,$2
  408850:	42 00 00 00 00 02 00 00 	addu $2,$0,$0
  408858:	01 00 00 00 86 22 10 00 	j 408a18 <morecore+0x3e0>
  408860:	28 00 00 00 50 84 02 1c 	lw $2,-31664($28)
  408868:	42 00 00 00 00 04 10 00 	addu $4,$0,$16
  408870:	28 00 00 00 c8 84 05 1c 	lw $5,-31544($28)
  408878:	55 00 00 00 01 06 02 00 	sll $6,$2,0x1
  408880:	42 00 00 00 00 06 02 06 	addu $6,$6,$2
  408888:	55 00 00 00 02 06 06 00 	sll $6,$6,0x2
  408890:	02 00 00 00 94 47 10 00 	jal 411e50 <memcpy>
  408898:	28 00 00 00 50 84 02 1c 	lw $2,-31664($28)
  4088a0:	42 00 00 00 00 05 00 00 	addu $5,$0,$0
  4088a8:	55 00 00 00 01 04 02 00 	sll $4,$2,0x1
  4088b0:	42 00 00 00 00 04 02 04 	addu $4,$4,$2
  4088b8:	55 00 00 00 02 04 04 00 	sll $4,$4,0x2
  4088c0:	42 00 00 00 00 04 04 10 	addu $4,$16,$4
  4088c8:	45 00 00 00 00 02 02 11 	subu $2,$17,$2
  4088d0:	55 00 00 00 01 06 02 00 	sll $6,$2,0x1
  4088d8:	42 00 00 00 00 06 02 06 	addu $6,$6,$2
  4088e0:	55 00 00 00 02 06 06 00 	sll $6,$6,0x2
  4088e8:	02 00 00 00 f8 24 10 00 	jal 4093e0 <memset>
  4088f0:	28 00 00 00 c8 84 04 1c 	lw $4,-31544($28)
  4088f8:	28 00 00 00 d4 84 02 1c 	lw $2,-31532($28)
  408900:	45 00 00 00 00 05 02 04 	subu $5,$4,$2
  408908:	42 00 00 00 00 03 05 00 	addu $3,$0,$5
  408910:	0a 00 00 00 02 00 00 05 	bgez $5,408920 <morecore+0x2e8>
  408918:	43 00 00 00 ff 0f 03 05 	addiu $3,$5,4095
  408920:	59 00 00 00 0c 03 03 00 	sra $3,$3,0xc
  408928:	55 00 00 00 01 02 03 00 	sll $2,$3,0x1
  408930:	42 00 00 00 00 02 03 02 	addu $2,$2,$3
  408938:	55 00 00 00 02 02 02 00 	sll $2,$2,0x2
  408940:	42 00 00 00 00 06 10 02 	addu $6,$2,$16
  408948:	34 00 00 00 0c 00 00 06 	sw $0,12($6)
  408950:	28 00 00 00 50 84 03 1c 	lw $3,-31664($28)
  408958:	28 00 00 00 d8 84 05 1c 	lw $5,-31528($28)
  408960:	34 00 00 00 c8 84 10 1c 	sw $16,-31544($28)
  408968:	55 00 00 00 01 02 03 00 	sll $2,$3,0x1
  408970:	42 00 00 00 00 02 03 02 	addu $2,$2,$3
  408978:	55 00 00 00 02 02 02 00 	sll $2,$2,0x2
  408980:	28 00 00 00 b0 84 03 1c 	lw $3,-31568($28)
  408988:	43 00 00 00 ff 0f 02 02 	addiu $2,$2,4095
  408990:	57 00 00 00 0c 02 02 00 	srl $2,$2,0xc
  408998:	43 00 00 00 01 00 05 05 	addiu $5,$5,1
  4089a0:	34 00 00 00 10 00 02 06 	sw $2,16($6)
  4089a8:	34 00 00 00 d8 84 05 1c 	sw $5,-31528($28)
  4089b0:	42 00 00 00 00 03 03 14 	addu $3,$20,$3
  4089b8:	34 00 00 00 b0 84 03 1c 	sw $3,-31568($28)
  4089c0:	02 00 00 00 e4 2d 10 00 	jal 40b790 <_free_internal>
  4089c8:	34 00 00 00 50 84 11 1c 	sw $17,-31664($28)
  4089d0:	28 00 00 00 d4 84 03 1c 	lw $3,-31532($28)
  4089d8:	42 00 00 00 00 02 13 12 	addu $2,$18,$19
  4089e0:	45 00 00 00 00 02 03 02 	subu $2,$2,$3
  4089e8:	0a 00 00 00 02 00 00 02 	bgez $2,4089f8 <morecore+0x3c0>
  4089f0:	43 00 00 00 ff 0f 02 02 	addiu $2,$2,4095
  4089f8:	59 00 00 00 0c 02 02 00 	sra $2,$2,0xc
  408a00:	43 00 00 00 01 00 02 02 	addiu $2,$2,1
  408a08:	34 00 00 00 c0 84 02 1c 	sw $2,-31552($28)
  408a10:	42 00 00 00 00 02 12 00 	addu $2,$0,$18
  408a18:	28 00 00 00 24 00 1f 1d 	lw $31,36($29)
  408a20:	28 00 00 00 20 00 14 1d 	lw $20,32($29)
  408a28:	28 00 00 00 1c 00 13 1d 	lw $19,28($29)
  408a30:	28 00 00 00 18 00 12 1d 	lw $18,24($29)
  408a38:	28 00 00 00 14 00 11 1d 	lw $17,20($29)
  408a40:	28 00 00 00 10 00 10 1d 	lw $16,16($29)
  408a48:	43 00 00 00 28 00 1d 1d 	addiu $29,$29,40
  408a50:	03 00 00 00 00 00 00 1f 	jr $31

00408a58 <malloc>:
  408a58:	28 00 00 00 b4 84 02 1c 	lw $2,-31564($28)
  408a60:	43 00 00 00 d8 ff 1d 1d 	addiu $29,$29,-40
  408a68:	34 00 00 00 10 00 10 1d 	sw $16,16($29)
  408a70:	42 00 00 00 00 10 04 00 	addu $16,$0,$4
  408a78:	34 00 00 00 24 00 1f 1d 	sw $31,36($29)
  408a80:	34 00 00 00 20 00 14 1d 	sw $20,32($29)
  408a88:	34 00 00 00 1c 00 13 1d 	sw $19,28($29)
  408a90:	34 00 00 00 18 00 12 1d 	sw $18,24($29)
  408a98:	34 00 00 00 14 00 11 1d 	sw $17,20($29)
  408aa0:	05 00 00 00 04 00 00 02 	beq $2,$0,408ab8 <malloc+0x60>
  408aa8:	04 00 00 00 00 1f 00 02 	jalr $31,$2
  408ab0:	01 00 00 00 e6 24 10 00 	j 409398 <malloc+0x940>
  408ab8:	28 00 00 00 cc 84 02 1c 	lw $2,-31540($28)
  408ac0:	06 00 00 00 04 00 00 02 	bne $2,$0,408ad8 <malloc+0x80>
  408ac8:	02 00 00 00 2c 21 10 00 	jal 4084b0 <initialize>
  408ad0:	05 00 00 00 e4 01 00 02 	beq $2,$0,409268 <malloc+0x810>
  408ad8:	5e 00 00 00 08 00 02 10 	sltiu $2,$16,8
  408ae0:	05 00 00 00 02 00 00 02 	beq $2,$0,408af0 <malloc+0x98>
  408ae8:	43 00 00 00 08 00 10 00 	addiu $16,$0,8
  408af0:	5e 00 00 00 01 08 02 10 	sltiu $2,$16,2049
  408af8:	05 00 00 00 e4 00 00 02 	beq $2,$0,408e90 <malloc+0x438>
  408b00:	43 00 00 00 01 00 11 00 	addiu $17,$0,1
  408b08:	43 00 00 00 ff ff 10 10 	addiu $16,$16,-1
  408b10:	57 00 00 00 01 10 10 00 	srl $16,$16,0x1
  408b18:	05 00 00 00 06 00 00 10 	beq $16,$0,408b38 <malloc+0xe0>
  408b20:	43 00 00 00 01 00 11 11 	addiu $17,$17,1
  408b28:	57 00 00 00 01 10 10 00 	srl $16,$16,0x1
  408b30:	06 00 00 00 fa ff 00 10 	bne $16,$0,408b20 <malloc+0xc8>
  408b38:	55 00 00 00 03 10 11 00 	sll $16,$17,0x3
  408b40:	a2 00 00 00 a1 12 02 00 	lui $2,4769
  408b48:	42 00 00 00 00 02 10 02 	addu $2,$2,$16
  408b50:	28 00 00 00 30 3f 02 02 	lw $2,16176($2)
  408b58:	05 00 00 00 54 00 00 02 	beq $2,$0,408cb0 <malloc+0x258>
  408b60:	42 00 00 00 00 06 02 00 	addu $6,$0,$2
  408b68:	28 00 00 00 04 00 03 06 	lw $3,4($6)
  408b70:	28 00 00 00 00 00 02 06 	lw $2,0($6)
  408b78:	34 00 00 00 00 00 02 03 	sw $2,0($3)
  408b80:	28 00 00 00 00 00 03 06 	lw $3,0($6)
  408b88:	05 00 00 00 04 00 00 03 	beq $3,$0,408ba0 <malloc+0x148>
  408b90:	28 00 00 00 04 00 02 06 	lw $2,4($6)
  408b98:	34 00 00 00 04 00 02 03 	sw $2,4($3)
  408ba0:	28 00 00 00 d4 84 02 1c 	lw $2,-31532($28)
  408ba8:	45 00 00 00 00 02 02 06 	subu $2,$6,$2
  408bb0:	0a 00 00 00 02 00 00 02 	bgez $2,408bc0 <malloc+0x168>
  408bb8:	43 00 00 00 ff 0f 02 02 	addiu $2,$2,4095
  408bc0:	59 00 00 00 0c 02 02 00 	sra $2,$2,0xc
  408bc8:	43 00 00 00 01 00 07 02 	addiu $7,$2,1
  408bd0:	28 00 00 00 c8 84 03 1c 	lw $3,-31544($28)
  408bd8:	55 00 00 00 01 02 07 00 	sll $2,$7,0x1
  408be0:	42 00 00 00 00 02 07 02 	addu $2,$2,$7
  408be8:	55 00 00 00 02 02 02 00 	sll $2,$2,0x2
  408bf0:	42 00 00 00 00 03 03 02 	addu $3,$2,$3
  408bf8:	28 00 00 00 04 00 02 03 	lw $2,4($3)
  408c00:	43 00 00 00 ff ff 02 02 	addiu $2,$2,-1
  408c08:	34 00 00 00 04 00 02 03 	sw $2,4($3)
  408c10:	05 00 00 00 08 00 00 02 	beq $2,$0,408c38 <malloc+0x1e0>
  408c18:	28 00 00 00 00 00 02 06 	lw $2,0($6)
  408c20:	4f 00 00 00 ff 0f 02 02 	andi $2,$2,4095
  408c28:	58 00 00 00 00 02 02 11 	srlv $2,$2,$17
  408c30:	34 00 00 00 08 00 02 03 	sw $2,8($3)
  408c38:	28 00 00 00 d8 84 02 1c 	lw $2,-31528($28)
  408c40:	43 00 00 00 01 00 05 00 	addiu $5,$0,1
  408c48:	28 00 00 00 b8 84 03 1c 	lw $3,-31560($28)
  408c50:	28 00 00 00 d0 84 04 1c 	lw $4,-31536($28)
  408c58:	56 00 00 00 00 05 05 11 	sllv $5,$5,$17
  408c60:	43 00 00 00 01 00 02 02 	addiu $2,$2,1
  408c68:	34 00 00 00 d8 84 02 1c 	sw $2,-31528($28)
  408c70:	28 00 00 00 b0 84 02 1c 	lw $2,-31568($28)
  408c78:	43 00 00 00 ff ff 03 03 	addiu $3,$3,-1
  408c80:	45 00 00 00 00 04 05 04 	subu $4,$4,$5
  408c88:	34 00 00 00 b8 84 03 1c 	sw $3,-31560($28)
  408c90:	34 00 00 00 d0 84 04 1c 	sw $4,-31536($28)
  408c98:	42 00 00 00 00 02 02 05 	addu $2,$5,$2
  408ca0:	34 00 00 00 b0 84 02 1c 	sw $2,-31568($28)
  408ca8:	01 00 00 00 e4 24 10 00 	j 409390 <malloc+0x938>
  408cb0:	43 00 00 00 00 10 04 00 	addiu $4,$0,4096
  408cb8:	02 00 00 00 96 22 10 00 	jal 408a58 <malloc>
  408cc0:	42 00 00 00 00 06 02 00 	addu $6,$0,$2
  408cc8:	05 00 00 00 66 01 00 06 	beq $6,$0,409268 <malloc+0x810>
  408cd0:	43 00 00 00 01 00 04 00 	addiu $4,$0,1
  408cd8:	43 00 00 00 00 10 02 00 	addiu $2,$0,4096
  408ce0:	5a 00 00 00 00 03 02 11 	srav $3,$2,$17
  408ce8:	5d 00 00 00 00 02 03 04 	sltu $2,$4,$3
  408cf0:	05 00 00 00 26 00 00 02 	beq $2,$0,408d90 <malloc+0x338>
  408cf8:	42 00 00 00 00 07 10 00 	addu $7,$0,$16
  408d00:	a2 00 00 00 a1 12 02 00 	lui $2,4769
  408d08:	43 00 00 00 30 3f 02 02 	addiu $2,$2,16176
  408d10:	42 00 00 00 00 05 02 07 	addu $5,$7,$2
  408d18:	42 00 00 00 00 08 03 00 	addu $8,$0,$3
  408d20:	a2 00 00 00 a1 12 03 00 	lui $3,4769
  408d28:	42 00 00 00 00 03 07 03 	addu $3,$3,$7
  408d30:	28 00 00 00 30 3f 03 03 	lw $3,16176($3)
  408d38:	56 00 00 00 00 02 04 11 	sllv $2,$4,$17
  408d40:	42 00 00 00 00 02 02 06 	addu $2,$6,$2
  408d48:	34 00 00 00 00 00 03 02 	sw $3,0($2)
  408d50:	34 00 00 00 04 00 05 02 	sw $5,4($2)
  408d58:	34 00 00 00 00 00 02 05 	sw $2,0($5)
  408d60:	28 00 00 00 00 00 03 02 	lw $3,0($2)
  408d68:	05 00 00 00 02 00 00 03 	beq $3,$0,408d78 <malloc+0x320>
  408d70:	34 00 00 00 04 00 02 03 	sw $2,4($3)
  408d78:	43 00 00 00 01 00 04 04 	addiu $4,$4,1
  408d80:	5d 00 00 00 00 02 08 04 	sltu $2,$4,$8
  408d88:	06 00 00 00 e4 ff 00 02 	bne $2,$0,408d20 <malloc+0x2c8>
  408d90:	28 00 00 00 d4 84 02 1c 	lw $2,-31532($28)
  408d98:	45 00 00 00 00 02 02 06 	subu $2,$6,$2
  408da0:	0a 00 00 00 02 00 00 02 	bgez $2,408db0 <malloc+0x358>
  408da8:	43 00 00 00 ff 0f 02 02 	addiu $2,$2,4095
  408db0:	59 00 00 00 0c 02 02 00 	sra $2,$2,0xc
  408db8:	43 00 00 00 01 00 07 02 	addiu $7,$2,1
  408dc0:	28 00 00 00 c8 84 03 1c 	lw $3,-31544($28)
  408dc8:	55 00 00 00 01 02 07 00 	sll $2,$7,0x1
  408dd0:	42 00 00 00 00 02 07 02 	addu $2,$2,$7
  408dd8:	28 00 00 00 b8 84 05 1c 	lw $5,-31560($28)
  408de0:	55 00 00 00 02 02 02 00 	sll $2,$2,0x2
  408de8:	42 00 00 00 00 02 03 02 	addu $2,$2,$3
  408df0:	43 00 00 00 ff ff 03 04 	addiu $3,$4,-1
  408df8:	43 00 00 00 ff ff 05 05 	addiu $5,$5,-1
  408e00:	34 00 00 00 00 00 11 02 	sw $17,0($2)
  408e08:	34 00 00 00 04 00 03 02 	sw $3,4($2)
  408e10:	34 00 00 00 08 00 03 02 	sw $3,8($2)
  408e18:	43 00 00 00 00 10 02 00 	addiu $2,$0,4096
  408e20:	28 00 00 00 d0 84 04 1c 	lw $4,-31536($28)
  408e28:	5a 00 00 00 00 02 02 11 	srav $2,$2,$17
  408e30:	42 00 00 00 00 05 02 05 	addu $5,$5,$2
  408e38:	28 00 00 00 b0 84 02 1c 	lw $2,-31568($28)
  408e40:	43 00 00 00 01 00 03 00 	addiu $3,$0,1
  408e48:	56 00 00 00 00 03 03 11 	sllv $3,$3,$17
  408e50:	34 00 00 00 b8 84 05 1c 	sw $5,-31560($28)
  408e58:	43 00 00 00 00 10 04 04 	addiu $4,$4,4096
  408e60:	45 00 00 00 00 04 03 04 	subu $4,$4,$3
  408e68:	43 00 00 00 00 f0 02 02 	addiu $2,$2,-4096
  408e70:	42 00 00 00 00 02 03 02 	addu $2,$2,$3
  408e78:	34 00 00 00 d0 84 04 1c 	sw $4,-31536($28)
  408e80:	34 00 00 00 b0 84 02 1c 	sw $2,-31568($28)
  408e88:	01 00 00 00 e4 24 10 00 	j 409390 <malloc+0x938>
  408e90:	28 00 00 00 bc 84 07 1c 	lw $7,-31556($28)
  408e98:	28 00 00 00 c8 84 05 1c 	lw $5,-31544($28)
  408ea0:	43 00 00 00 ff 0f 02 10 	addiu $2,$16,4095
  408ea8:	55 00 00 00 01 04 07 00 	sll $4,$7,0x1
  408eb0:	42 00 00 00 00 03 07 04 	addu $3,$4,$7
  408eb8:	55 00 00 00 02 03 03 00 	sll $3,$3,0x2
  408ec0:	42 00 00 00 00 03 05 03 	addu $3,$3,$5
  408ec8:	28 00 00 00 00 00 03 03 	lw $3,0($3)
  408ed0:	57 00 00 00 0c 12 02 00 	srl $18,$2,0xc
  408ed8:	42 00 00 00 00 14 07 00 	addu $20,$0,$7
  408ee0:	5d 00 00 00 00 03 12 03 	sltu $3,$3,$18
  408ee8:	05 00 00 00 96 00 00 03 	beq $3,$0,409148 <malloc+0x6f0>
  408ef0:	55 00 00 00 0c 13 12 00 	sll $19,$18,0xc
  408ef8:	42 00 00 00 00 02 07 04 	addu $2,$4,$7
  408f00:	55 00 00 00 02 02 02 00 	sll $2,$2,0x2
  408f08:	42 00 00 00 00 02 05 02 	addu $2,$2,$5
  408f10:	28 00 00 00 04 00 07 02 	lw $7,4($2)
  408f18:	06 00 00 00 7a 00 14 07 	bne $7,$20,409108 <malloc+0x6b0>
  408f20:	28 00 00 00 08 00 07 05 	lw $7,8($5)
  408f28:	28 00 00 00 c0 84 03 1c 	lw $3,-31552($28)
  408f30:	55 00 00 00 01 02 07 00 	sll $2,$7,0x1
  408f38:	42 00 00 00 00 02 07 02 	addu $2,$2,$7
  408f40:	55 00 00 00 02 02 02 00 	sll $2,$2,0x2
  408f48:	42 00 00 00 00 02 05 02 	addu $2,$2,$5
  408f50:	28 00 00 00 00 00 11 02 	lw $17,0($2)
  408f58:	05 00 00 00 38 00 00 03 	beq $3,$0,409040 <malloc+0x5e8>
  408f60:	42 00 00 00 00 10 11 07 	addu $16,$7,$17
  408f68:	06 00 00 00 34 00 03 10 	bne $16,$3,409040 <malloc+0x5e8>
  408f70:	28 00 00 00 f0 80 02 1c 	lw $2,-32528($28)
  408f78:	42 00 00 00 00 04 00 00 	addu $4,$0,$0
  408f80:	04 00 00 00 00 1f 00 02 	jalr $31,$2
  408f88:	28 00 00 00 d4 84 04 1c 	lw $4,-31532($28)
  408f90:	43 00 00 00 ff ff 03 10 	addiu $3,$16,-1
  408f98:	55 00 00 00 0c 03 03 00 	sll $3,$3,0xc
  408fa0:	42 00 00 00 00 03 04 03 	addu $3,$3,$4
  408fa8:	06 00 00 00 24 00 03 02 	bne $2,$3,409040 <malloc+0x5e8>
  408fb0:	45 00 00 00 00 11 11 12 	subu $17,$18,$17
  408fb8:	55 00 00 00 0c 10 11 00 	sll $16,$17,0xc
  408fc0:	42 00 00 00 00 04 10 00 	addu $4,$0,$16
  408fc8:	02 00 00 00 8e 21 10 00 	jal 408638 <morecore>
  408fd0:	05 00 00 00 1a 00 00 02 	beq $2,$0,409040 <malloc+0x5e8>
  408fd8:	28 00 00 00 c8 84 03 1c 	lw $3,-31544($28)
  408fe0:	28 00 00 00 08 00 07 03 	lw $7,8($3)
  408fe8:	55 00 00 00 01 02 07 00 	sll $2,$7,0x1
  408ff0:	42 00 00 00 00 02 07 02 	addu $2,$2,$7
  408ff8:	55 00 00 00 02 02 02 00 	sll $2,$2,0x2
  409000:	42 00 00 00 00 02 03 02 	addu $2,$2,$3
  409008:	28 00 00 00 d0 84 03 1c 	lw $3,-31536($28)
  409010:	28 00 00 00 00 00 04 02 	lw $4,0($2)
  409018:	42 00 00 00 00 03 03 10 	addu $3,$16,$3
  409020:	42 00 00 00 00 04 04 11 	addu $4,$17,$4
  409028:	34 00 00 00 d0 84 03 1c 	sw $3,-31536($28)
  409030:	34 00 00 00 00 00 04 02 	sw $4,0($2)
  409038:	01 00 00 00 42 24 10 00 	j 409108 <malloc+0x6b0>
  409040:	42 00 00 00 00 04 13 00 	addu $4,$0,$19
  409048:	02 00 00 00 8e 21 10 00 	jal 408638 <morecore>
  409050:	42 00 00 00 00 06 02 00 	addu $6,$0,$2
  409058:	05 00 00 00 82 00 00 06 	beq $6,$0,409268 <malloc+0x810>
  409060:	28 00 00 00 d4 84 02 1c 	lw $2,-31532($28)
  409068:	45 00 00 00 00 02 02 06 	subu $2,$6,$2
  409070:	0a 00 00 00 02 00 00 02 	bgez $2,409080 <malloc+0x628>
  409078:	43 00 00 00 ff 0f 02 02 	addiu $2,$2,4095
  409080:	59 00 00 00 0c 02 02 00 	sra $2,$2,0xc
  409088:	43 00 00 00 01 00 07 02 	addiu $7,$2,1
  409090:	42 00 00 00 00 02 06 00 	addu $2,$0,$6
  409098:	28 00 00 00 c8 84 06 1c 	lw $6,-31544($28)
  4090a0:	55 00 00 00 01 03 07 00 	sll $3,$7,0x1
  4090a8:	42 00 00 00 00 03 07 03 	addu $3,$3,$7
  4090b0:	28 00 00 00 d8 84 04 1c 	lw $4,-31528($28)
  4090b8:	28 00 00 00 b0 84 05 1c 	lw $5,-31568($28)
  4090c0:	55 00 00 00 02 03 03 00 	sll $3,$3,0x2
  4090c8:	42 00 00 00 00 03 06 03 	addu $3,$3,$6
  4090d0:	43 00 00 00 01 00 04 04 	addiu $4,$4,1
  4090d8:	42 00 00 00 00 05 05 13 	addu $5,$19,$5
  4090e0:	34 00 00 00 00 00 00 03 	sw $0,0($3)
  4090e8:	34 00 00 00 04 00 12 03 	sw $18,4($3)
  4090f0:	34 00 00 00 d8 84 04 1c 	sw $4,-31528($28)
  4090f8:	34 00 00 00 b0 84 05 1c 	sw $5,-31568($28)
  409100:	01 00 00 00 e6 24 10 00 	j 409398 <malloc+0x940>
  409108:	28 00 00 00 c8 84 05 1c 	lw $5,-31544($28)
  409110:	55 00 00 00 01 04 07 00 	sll $4,$7,0x1
  409118:	42 00 00 00 00 02 07 04 	addu $2,$4,$7
  409120:	55 00 00 00 02 02 02 00 	sll $2,$2,0x2
  409128:	42 00 00 00 00 02 05 02 	addu $2,$2,$5
  409130:	28 00 00 00 00 00 02 02 	lw $2,0($2)
  409138:	5d 00 00 00 00 02 12 02 	sltu $2,$2,$18
  409140:	06 00 00 00 6c ff 00 02 	bne $2,$0,408ef8 <malloc+0x4a0>
  409148:	43 00 00 00 ff ff 03 07 	addiu $3,$7,-1
  409150:	28 00 00 00 d4 84 04 1c 	lw $4,-31532($28)
  409158:	28 00 00 00 c8 84 08 1c 	lw $8,-31544($28)
  409160:	55 00 00 00 01 02 07 00 	sll $2,$7,0x1
  409168:	42 00 00 00 00 02 07 02 	addu $2,$2,$7
  409170:	55 00 00 00 02 02 02 00 	sll $2,$2,0x2
  409178:	42 00 00 00 00 05 08 02 	addu $5,$2,$8
  409180:	28 00 00 00 00 00 09 05 	lw $9,0($5)
  409188:	55 00 00 00 0c 03 03 00 	sll $3,$3,0xc
  409190:	42 00 00 00 00 06 04 03 	addu $6,$3,$4
  409198:	5d 00 00 00 00 02 09 12 	sltu $2,$18,$9
  4091a0:	05 00 00 00 34 00 00 02 	beq $2,$0,409278 <malloc+0x820>
  4091a8:	42 00 00 00 00 04 12 07 	addu $4,$7,$18
  4091b0:	55 00 00 00 01 02 04 00 	sll $2,$4,0x1
  4091b8:	42 00 00 00 00 02 04 02 	addu $2,$2,$4
  4091c0:	55 00 00 00 02 02 02 00 	sll $2,$2,0x2
  4091c8:	42 00 00 00 00 02 08 02 	addu $2,$2,$8
  4091d0:	45 00 00 00 00 03 12 09 	subu $3,$9,$18
  4091d8:	34 00 00 00 00 00 03 02 	sw $3,0($2)
  4091e0:	28 00 00 00 04 00 03 05 	lw $3,4($5)
  4091e8:	34 00 00 00 04 00 03 02 	sw $3,4($2)
  4091f0:	28 00 00 00 08 00 03 05 	lw $3,8($5)
  4091f8:	34 00 00 00 08 00 03 02 	sw $3,8($2)
  409200:	28 00 00 00 04 00 03 05 	lw $3,4($5)
  409208:	34 00 00 00 bc 84 04 1c 	sw $4,-31556($28)
  409210:	28 00 00 00 08 00 05 05 	lw $5,8($5)
  409218:	55 00 00 00 01 02 03 00 	sll $2,$3,0x1
  409220:	42 00 00 00 00 02 03 02 	addu $2,$2,$3
  409228:	55 00 00 00 02 02 02 00 	sll $2,$2,0x2
  409230:	42 00 00 00 00 02 08 02 	addu $2,$2,$8
  409238:	34 00 00 00 08 00 04 02 	sw $4,8($2)
  409240:	55 00 00 00 01 02 05 00 	sll $2,$5,0x1
  409248:	42 00 00 00 00 02 05 02 	addu $2,$2,$5
  409250:	55 00 00 00 02 02 02 00 	sll $2,$2,0x2
  409258:	42 00 00 00 00 02 08 02 	addu $2,$2,$8
  409260:	01 00 00 00 c0 24 10 00 	j 409300 <malloc+0x8a8>
  409268:	42 00 00 00 00 02 00 00 	addu $2,$0,$0
  409270:	01 00 00 00 e6 24 10 00 	j 409398 <malloc+0x940>
  409278:	28 00 00 00 04 00 03 05 	lw $3,4($5)
  409280:	55 00 00 00 01 02 03 00 	sll $2,$3,0x1
  409288:	42 00 00 00 00 02 03 02 	addu $2,$2,$3
  409290:	28 00 00 00 08 00 03 05 	lw $3,8($5)
  409298:	55 00 00 00 02 02 02 00 	sll $2,$2,0x2
  4092a0:	42 00 00 00 00 02 08 02 	addu $2,$2,$8
  4092a8:	34 00 00 00 08 00 03 02 	sw $3,8($2)
  4092b0:	28 00 00 00 08 00 03 05 	lw $3,8($5)
  4092b8:	28 00 00 00 b8 84 02 1c 	lw $2,-31560($28)
  4092c0:	28 00 00 00 04 00 04 05 	lw $4,4($5)
  4092c8:	43 00 00 00 ff ff 02 02 	addiu $2,$2,-1
  4092d0:	34 00 00 00 b8 84 02 1c 	sw $2,-31560($28)
  4092d8:	55 00 00 00 01 02 03 00 	sll $2,$3,0x1
  4092e0:	42 00 00 00 00 02 03 02 	addu $2,$2,$3
  4092e8:	55 00 00 00 02 02 02 00 	sll $2,$2,0x2
  4092f0:	42 00 00 00 00 02 08 02 	addu $2,$2,$8
  4092f8:	34 00 00 00 bc 84 04 1c 	sw $4,-31556($28)
  409300:	34 00 00 00 04 00 04 02 	sw $4,4($2)
  409308:	28 00 00 00 c8 84 04 1c 	lw $4,-31544($28)
  409310:	55 00 00 00 01 02 07 00 	sll $2,$7,0x1
  409318:	42 00 00 00 00 02 07 02 	addu $2,$2,$7
  409320:	28 00 00 00 d8 84 03 1c 	lw $3,-31528($28)
  409328:	55 00 00 00 02 02 02 00 	sll $2,$2,0x2
  409330:	42 00 00 00 00 02 04 02 	addu $2,$2,$4
  409338:	34 00 00 00 00 00 00 02 	sw $0,0($2)
  409340:	34 00 00 00 04 00 12 02 	sw $18,4($2)
  409348:	28 00 00 00 b0 84 02 1c 	lw $2,-31568($28)
  409350:	43 00 00 00 01 00 03 03 	addiu $3,$3,1
  409358:	34 00 00 00 d8 84 03 1c 	sw $3,-31528($28)
  409360:	28 00 00 00 d0 84 03 1c 	lw $3,-31536($28)
  409368:	55 00 00 00 0c 04 12 00 	sll $4,$18,0xc
  409370:	42 00 00 00 00 02 02 04 	addu $2,$4,$2
  409378:	45 00 00 00 00 03 04 03 	subu $3,$3,$4
  409380:	34 00 00 00 b0 84 02 1c 	sw $2,-31568($28)
  409388:	34 00 00 00 d0 84 03 1c 	sw $3,-31536($28)
  409390:	42 00 00 00 00 02 06 00 	addu $2,$0,$6
  409398:	28 00 00 00 24 00 1f 1d 	lw $31,36($29)
  4093a0:	28 00 00 00 20 00 14 1d 	lw $20,32($29)
  4093a8:	28 00 00 00 1c 00 13 1d 	lw $19,28($29)
  4093b0:	28 00 00 00 18 00 12 1d 	lw $18,24($29)
  4093b8:	28 00 00 00 14 00 11 1d 	lw $17,20($29)
  4093c0:	28 00 00 00 10 00 10 1d 	lw $16,16($29)
  4093c8:	43 00 00 00 28 00 1d 1d 	addiu $29,$29,40
  4093d0:	03 00 00 00 00 00 00 1f 	jr $31
	...

004093e0 <memset>:
  4093e0:	42 00 00 00 00 08 04 00 	addu $8,$0,$4
  4093e8:	5e 00 00 00 08 00 02 06 	sltiu $2,$6,8
  4093f0:	06 00 00 00 46 00 00 02 	bne $2,$0,409510 <memset+0x130>
  4093f8:	4f 00 00 00 ff 00 07 05 	andi $7,$5,255
  409400:	55 00 00 00 08 02 07 00 	sll $2,$7,0x8
  409408:	50 00 00 00 00 07 02 07 	or $7,$7,$2
  409410:	55 00 00 00 10 02 07 00 	sll $2,$7,0x10
  409418:	50 00 00 00 00 07 02 07 	or $7,$7,$2
  409420:	4f 00 00 00 03 00 02 04 	andi $2,$4,3
  409428:	05 00 00 00 0a 00 00 02 	beq $2,$0,409458 <memset+0x78>
  409430:	30 00 00 00 00 00 05 08 	sb $5,0($8)
  409438:	43 00 00 00 01 00 08 08 	addiu $8,$8,1
  409440:	43 00 00 00 ff ff 06 06 	addiu $6,$6,-1
  409448:	4f 00 00 00 03 00 02 08 	andi $2,$8,3
  409450:	06 00 00 00 f6 ff 00 02 	bne $2,$0,409430 <memset+0x50>
  409458:	57 00 00 00 05 03 06 00 	srl $3,$6,0x5
  409460:	05 00 00 00 1a 00 00 03 	beq $3,$0,4094d0 <memset+0xf0>
  409468:	43 00 00 00 1c 00 02 08 	addiu $2,$8,28
  409470:	34 00 00 00 00 00 07 08 	sw $7,0($8)
  409478:	34 00 00 00 e8 ff 07 02 	sw $7,-24($2)
  409480:	34 00 00 00 ec ff 07 02 	sw $7,-20($2)
  409488:	34 00 00 00 f0 ff 07 02 	sw $7,-16($2)
  409490:	34 00 00 00 f4 ff 07 02 	sw $7,-12($2)
  409498:	34 00 00 00 f8 ff 07 02 	sw $7,-8($2)
  4094a0:	34 00 00 00 fc ff 07 02 	sw $7,-4($2)
  4094a8:	34 00 00 00 00 00 07 02 	sw $7,0($2)
  4094b0:	43 00 00 00 20 00 02 02 	addiu $2,$2,32
  4094b8:	43 00 00 00 20 00 08 08 	addiu $8,$8,32
  4094c0:	43 00 00 00 ff ff 03 03 	addiu $3,$3,-1
  4094c8:	06 00 00 00 e8 ff 00 03 	bne $3,$0,409470 <memset+0x90>
  4094d0:	4f 00 00 00 1f 00 06 06 	andi $6,$6,31
  4094d8:	57 00 00 00 02 03 06 00 	srl $3,$6,0x2
  4094e0:	05 00 00 00 08 00 00 03 	beq $3,$0,409508 <memset+0x128>
  4094e8:	34 00 00 00 00 00 07 08 	sw $7,0($8)
  4094f0:	43 00 00 00 04 00 08 08 	addiu $8,$8,4
  4094f8:	43 00 00 00 ff ff 03 03 	addiu $3,$3,-1
  409500:	06 00 00 00 f8 ff 00 03 	bne $3,$0,4094e8 <memset+0x108>
  409508:	4f 00 00 00 03 00 06 06 	andi $6,$6,3
  409510:	05 00 00 00 08 00 00 06 	beq $6,$0,409538 <memset+0x158>
  409518:	30 00 00 00 00 00 05 08 	sb $5,0($8)
  409520:	43 00 00 00 01 00 08 08 	addiu $8,$8,1
  409528:	43 00 00 00 ff ff 06 06 	addiu $6,$6,-1
  409530:	06 00 00 00 f8 ff 00 06 	bne $6,$0,409518 <memset+0x138>
  409538:	42 00 00 00 00 02 04 00 	addu $2,$0,$4
  409540:	03 00 00 00 00 00 00 1f 	jr $31
	...

00409550 <__vfscanf>:
  409550:	43 00 00 00 70 fe 1d 1d 	addiu $29,$29,-400
  409558:	34 00 00 00 70 01 12 1d 	sw $18,368($29)
  409560:	42 00 00 00 00 12 04 00 	addu $18,$0,$4
  409568:	34 00 00 00 80 01 16 1d 	sw $22,384($29)
  409570:	42 00 00 00 00 16 05 00 	addu $22,$0,$5
  409578:	34 00 00 00 7c 01 15 1d 	sw $21,380($29)
  409580:	42 00 00 00 00 15 00 00 	addu $21,$0,$0
  409588:	34 00 00 00 84 01 17 1d 	sw $23,388($29)
  409590:	42 00 00 00 00 17 00 00 	addu $23,$0,$0
  409598:	34 00 00 00 8c 01 1f 1d 	sw $31,396($29)
  4095a0:	34 00 00 00 88 01 1e 1d 	sw $30,392($29)
  4095a8:	34 00 00 00 78 01 14 1d 	sw $20,376($29)
  4095b0:	34 00 00 00 74 01 13 1d 	sw $19,372($29)
  4095b8:	34 00 00 00 6c 01 11 1d 	sw $17,364($29)
  4095c0:	34 00 00 00 68 01 10 1d 	sw $16,360($29)
  4095c8:	34 00 00 00 e0 00 06 1d 	sw $6,224($29)
  4095d0:	05 00 00 00 1c 00 00 12 	beq $18,$0,409648 <__vfscanf+0xf8>
  4095d8:	28 00 00 00 00 00 03 12 	lw $3,0($18)
  4095e0:	a2 00 00 00 ed fe 02 00 	lui $2,65261
  4095e8:	51 00 00 00 be ba 02 02 	ori $2,$2,47806
  4095f0:	06 00 00 00 04 00 02 03 	bne $3,$2,409608 <__vfscanf+0xb8>
  4095f8:	28 00 00 00 04 00 02 12 	lw $2,4($18)
  409600:	28 00 00 00 00 00 12 02 	lw $18,0($2)
  409608:	28 00 00 00 00 00 03 12 	lw $3,0($18)
  409610:	a2 00 00 00 da fe 02 00 	lui $2,65242
  409618:	51 00 00 00 eb be 02 02 	ori $2,$2,48875
  409620:	06 00 00 00 08 00 02 03 	bne $3,$2,409648 <__vfscanf+0xf8>
  409628:	28 00 00 00 1c 00 02 12 	lw $2,28($18)
  409630:	4f 00 00 00 01 00 02 02 	andi $2,$2,1
  409638:	05 00 00 00 02 00 00 02 	beq $2,$0,409648 <__vfscanf+0xf8>
  409640:	06 00 00 00 08 00 00 16 	bne $22,$0,409668 <__vfscanf+0x118>
  409648:	43 00 00 00 16 00 02 00 	addiu $2,$0,22
  409650:	34 00 00 00 60 84 02 1c 	sw $2,-31648($28)
  409658:	43 00 00 00 ff ff 02 00 	addiu $2,$0,-1
  409660:	01 00 00 00 98 2d 10 00 	j 40b660 <__vfscanf+0x2110>
  409668:	28 00 00 00 68 81 02 1c 	lw $2,-32408($28)
  409670:	28 00 00 00 00 00 04 02 	lw $4,0($2)
  409678:	02 00 00 00 e8 30 10 00 	jal 40c3a0 <strlen>
  409680:	28 00 00 00 68 81 03 1c 	lw $3,-32408($28)
  409688:	28 00 00 00 00 00 05 03 	lw $5,0($3)
  409690:	43 00 00 00 d8 00 04 1d 	addiu $4,$29,216
  409698:	42 00 00 00 00 06 02 00 	addu $6,$0,$2
  4096a0:	02 00 00 00 5c 30 10 00 	jal 40c170 <mbtowc>
  4096a8:	08 00 00 00 08 00 00 02 	bgtz $2,4096d0 <__vfscanf+0x180>
  4096b0:	28 00 00 00 68 81 02 1c 	lw $2,-32408($28)
  4096b8:	28 00 00 00 00 00 02 02 	lw $2,0($2)
  4096c0:	20 00 00 00 00 00 02 02 	lb $2,0($2)
  4096c8:	34 00 00 00 d8 00 02 1d 	sw $2,216($29)
  4096d0:	28 00 00 00 04 00 03 12 	lw $3,4($18)
  4096d8:	28 00 00 00 08 00 02 12 	lw $2,8($18)
  4096e0:	5d 00 00 00 00 02 02 03 	sltu $2,$3,$2
  4096e8:	05 00 00 00 08 00 00 02 	beq $2,$0,409710 <__vfscanf+0x1c0>
  4096f0:	43 00 00 00 01 00 02 03 	addiu $2,$3,1
  4096f8:	34 00 00 00 04 00 02 12 	sw $2,4($18)
  409700:	22 00 00 00 00 00 11 03 	lbu $17,0($3)
  409708:	01 00 00 00 ca 25 10 00 	j 409728 <__vfscanf+0x1d8>
  409710:	42 00 00 00 00 04 12 00 	addu $4,$0,$18
  409718:	02 00 00 00 d2 10 10 00 	jal 404348 <__fillbf>
  409720:	42 00 00 00 00 11 02 00 	addu $17,$0,$2
  409728:	43 00 00 00 ff ff 02 00 	addiu $2,$0,-1
  409730:	05 00 00 00 06 00 02 11 	beq $17,$2,409750 <__vfscanf+0x200>
  409738:	43 00 00 00 01 00 17 17 	addiu $23,$23,1
  409740:	42 00 00 00 00 04 11 00 	addu $4,$0,$17
  409748:	01 00 00 00 d6 25 10 00 	j 409758 <__vfscanf+0x208>
  409750:	43 00 00 00 ff ff 04 00 	addiu $4,$0,-1
  409758:	22 00 00 00 00 00 06 16 	lbu $6,0($22)
  409760:	20 00 00 00 00 00 02 16 	lb $2,0($22)
  409768:	42 00 00 00 00 11 04 00 	addu $17,$0,$4
  409770:	05 00 00 00 ae 07 00 02 	beq $2,$0,40b630 <__vfscanf+0x20e0>
  409778:	4f 00 00 00 80 00 02 06 	andi $2,$6,128
  409780:	05 00 00 00 4e 00 00 02 	beq $2,$0,4098c0 <__vfscanf+0x370>
  409788:	42 00 00 00 00 04 16 00 	addu $4,$0,$22
  409790:	02 00 00 00 e8 30 10 00 	jal 40c3a0 <strlen>
  409798:	42 00 00 00 00 04 00 00 	addu $4,$0,$0
  4097a0:	42 00 00 00 00 05 16 00 	addu $5,$0,$22
  4097a8:	42 00 00 00 00 06 02 00 	addu $6,$0,$2
  4097b0:	02 00 00 00 5c 30 10 00 	jal 40c170 <mbtowc>
  4097b8:	42 00 00 00 00 10 02 00 	addu $16,$0,$2
  4097c0:	07 00 00 00 3e 00 00 10 	blez $16,4098c0 <__vfscanf+0x370>
  4097c8:	43 00 00 00 ff ff 10 10 	addiu $16,$16,-1
  4097d0:	43 00 00 00 ff ff 0a 00 	addiu $10,$0,-1
  4097d8:	06 00 00 00 06 00 0a 11 	bne $17,$10,4097f8 <__vfscanf+0x2a8>
  4097e0:	43 00 00 00 ff ff 02 00 	addiu $2,$0,-1
  4097e8:	05 00 00 00 9c 07 00 15 	beq $21,$0,40b660 <__vfscanf+0x2110>
  4097f0:	01 00 00 00 96 2d 10 00 	j 40b658 <__vfscanf+0x2108>
  4097f8:	20 00 00 00 00 00 02 16 	lb $2,0($22)
  409800:	43 00 00 00 01 00 16 16 	addiu $22,$22,1
  409808:	06 00 00 00 1e 00 02 11 	bne $17,$2,409888 <__vfscanf+0x338>
  409810:	28 00 00 00 04 00 03 12 	lw $3,4($18)
  409818:	28 00 00 00 08 00 02 12 	lw $2,8($18)
  409820:	5d 00 00 00 00 02 02 03 	sltu $2,$3,$2
  409828:	05 00 00 00 08 00 00 02 	beq $2,$0,409850 <__vfscanf+0x300>
  409830:	43 00 00 00 01 00 02 03 	addiu $2,$3,1
  409838:	34 00 00 00 04 00 02 12 	sw $2,4($18)
  409840:	22 00 00 00 00 00 11 03 	lbu $17,0($3)
  409848:	01 00 00 00 1a 26 10 00 	j 409868 <__vfscanf+0x318>
  409850:	42 00 00 00 00 04 12 00 	addu $4,$0,$18
  409858:	02 00 00 00 d2 10 10 00 	jal 404348 <__fillbf>
  409860:	42 00 00 00 00 11 02 00 	addu $17,$0,$2
  409868:	43 00 00 00 ff ff 0a 00 	addiu $10,$0,-1
  409870:	05 00 00 00 0a 00 0a 11 	beq $17,$10,4098a0 <__vfscanf+0x350>
  409878:	43 00 00 00 01 00 17 17 	addiu $23,$23,1
  409880:	01 00 00 00 28 26 10 00 	j 4098a0 <__vfscanf+0x350>
  409888:	43 00 00 00 ff ff 0a 00 	addiu $10,$0,-1
  409890:	05 00 00 00 70 07 0a 11 	beq $17,$10,40b658 <__vfscanf+0x2108>
  409898:	01 00 00 00 90 2d 10 00 	j 40b640 <__vfscanf+0x20f0>
  4098a0:	42 00 00 00 00 02 10 00 	addu $2,$0,$16
  4098a8:	43 00 00 00 ff ff 10 10 	addiu $16,$16,-1
  4098b0:	08 00 00 00 c6 ff 00 02 	bgtz $2,4097d0 <__vfscanf+0x280>
  4098b8:	01 00 00 00 86 2d 10 00 	j 40b618 <__vfscanf+0x20c8>
  4098c0:	22 00 00 00 00 00 10 16 	lbu $16,0($22)
  4098c8:	43 00 00 00 01 00 16 16 	addiu $22,$22,1
  4098d0:	55 00 00 00 18 02 10 00 	sll $2,$16,0x18
  4098d8:	59 00 00 00 18 03 02 00 	sra $3,$2,0x18
  4098e0:	43 00 00 00 25 00 02 00 	addiu $2,$0,37
  4098e8:	05 00 00 00 6a 00 02 03 	beq $3,$2,409a98 <__vfscanf+0x548>
  4098f0:	43 00 00 00 ff ff 0a 00 	addiu $10,$0,-1
  4098f8:	05 00 00 00 b8 ff 0a 11 	beq $17,$10,4097e0 <__vfscanf+0x290>
  409900:	28 00 00 00 20 81 04 1c 	lw $4,-32480($28)
  409908:	55 00 00 00 01 02 03 00 	sll $2,$3,0x1
  409910:	42 00 00 00 00 02 04 02 	addu $2,$2,$4
  409918:	26 00 00 00 00 00 02 02 	lhu $2,0($2)
  409920:	4f 00 00 00 10 00 02 02 	andi $2,$2,16
  409928:	05 00 00 00 34 00 00 02 	beq $2,$0,409a00 <__vfscanf+0x4b0>
  409930:	55 00 00 00 01 02 11 00 	sll $2,$17,0x1
  409938:	42 00 00 00 00 02 04 02 	addu $2,$2,$4
  409940:	26 00 00 00 00 00 02 02 	lhu $2,0($2)
  409948:	4f 00 00 00 10 00 02 02 	andi $2,$2,16
  409950:	05 00 00 00 30 07 00 02 	beq $2,$0,40b618 <__vfscanf+0x20c8>
  409958:	28 00 00 00 04 00 03 12 	lw $3,4($18)
  409960:	28 00 00 00 08 00 02 12 	lw $2,8($18)
  409968:	5d 00 00 00 00 02 02 03 	sltu $2,$3,$2
  409970:	05 00 00 00 08 00 00 02 	beq $2,$0,409998 <__vfscanf+0x448>
  409978:	43 00 00 00 01 00 02 03 	addiu $2,$3,1
  409980:	34 00 00 00 04 00 02 12 	sw $2,4($18)
  409988:	22 00 00 00 00 00 11 03 	lbu $17,0($3)
  409990:	01 00 00 00 6c 26 10 00 	j 4099b0 <__vfscanf+0x460>
  409998:	42 00 00 00 00 04 12 00 	addu $4,$0,$18
  4099a0:	02 00 00 00 d2 10 10 00 	jal 404348 <__fillbf>
  4099a8:	42 00 00 00 00 11 02 00 	addu $17,$0,$2
  4099b0:	43 00 00 00 ff ff 0a 00 	addiu $10,$0,-1
  4099b8:	05 00 00 00 02 00 0a 11 	beq $17,$10,4099c8 <__vfscanf+0x478>
  4099c0:	43 00 00 00 01 00 17 17 	addiu $23,$23,1
  4099c8:	28 00 00 00 20 81 02 1c 	lw $2,-32480($28)
  4099d0:	55 00 00 00 01 03 11 00 	sll $3,$17,0x1
  4099d8:	42 00 00 00 00 03 02 03 	addu $3,$3,$2
  4099e0:	26 00 00 00 00 00 02 03 	lhu $2,0($3)
  4099e8:	4f 00 00 00 10 00 02 02 	andi $2,$2,16
  4099f0:	06 00 00 00 d8 ff 00 02 	bne $2,$0,409958 <__vfscanf+0x408>
  4099f8:	01 00 00 00 86 2d 10 00 	j 40b618 <__vfscanf+0x20c8>
  409a00:	06 00 00 00 1e 00 03 11 	bne $17,$3,409a80 <__vfscanf+0x530>
  409a08:	28 00 00 00 04 00 03 12 	lw $3,4($18)
  409a10:	28 00 00 00 08 00 02 12 	lw $2,8($18)
  409a18:	5d 00 00 00 00 02 02 03 	sltu $2,$3,$2
  409a20:	05 00 00 00 08 00 00 02 	beq $2,$0,409a48 <__vfscanf+0x4f8>
  409a28:	43 00 00 00 01 00 02 03 	addiu $2,$3,1
  409a30:	34 00 00 00 04 00 02 12 	sw $2,4($18)
  409a38:	22 00 00 00 00 00 11 03 	lbu $17,0($3)
  409a40:	01 00 00 00 98 26 10 00 	j 409a60 <__vfscanf+0x510>
  409a48:	42 00 00 00 00 04 12 00 	addu $4,$0,$18
  409a50:	02 00 00 00 d2 10 10 00 	jal 404348 <__fillbf>
  409a58:	42 00 00 00 00 11 02 00 	addu $17,$0,$2
  409a60:	43 00 00 00 ff ff 0a 00 	addiu $10,$0,-1
  409a68:	05 00 00 00 ea 06 0a 11 	beq $17,$10,40b618 <__vfscanf+0x20c8>
  409a70:	43 00 00 00 01 00 17 17 	addiu $23,$23,1
  409a78:	01 00 00 00 86 2d 10 00 	j 40b618 <__vfscanf+0x20c8>
  409a80:	43 00 00 00 ff ff 0a 00 	addiu $10,$0,-1
  409a88:	05 00 00 00 f2 06 0a 11 	beq $17,$10,40b658 <__vfscanf+0x2108>
  409a90:	01 00 00 00 90 2d 10 00 	j 40b640 <__vfscanf+0x20f0>
  409a98:	20 00 00 00 00 00 03 16 	lb $3,0($22)
  409aa0:	43 00 00 00 2a 00 02 00 	addiu $2,$0,42
  409aa8:	06 00 00 00 06 00 02 03 	bne $3,$2,409ac8 <__vfscanf+0x578>
  409ab0:	34 00 00 00 e8 00 00 1d 	sw $0,232($29)
  409ab8:	43 00 00 00 01 00 16 16 	addiu $22,$22,1
  409ac0:	01 00 00 00 b6 26 10 00 	j 409ad8 <__vfscanf+0x588>
  409ac8:	43 00 00 00 01 00 0a 00 	addiu $10,$0,1
  409ad0:	34 00 00 00 e8 00 0a 1d 	sw $10,232($29)
  409ad8:	20 00 00 00 00 00 02 16 	lb $2,0($22)
  409ae0:	28 00 00 00 20 81 06 1c 	lw $6,-32480($28)
  409ae8:	55 00 00 00 01 02 02 00 	sll $2,$2,0x1
  409af0:	42 00 00 00 00 02 06 02 	addu $2,$2,$6
  409af8:	26 00 00 00 00 00 02 02 	lhu $2,0($2)
  409b00:	22 00 00 00 00 00 05 16 	lbu $5,0($22)
  409b08:	42 00 00 00 00 13 00 00 	addu $19,$0,$0
  409b10:	4f 00 00 00 08 00 02 02 	andi $2,$2,8
  409b18:	05 00 00 00 1e 00 00 02 	beq $2,$0,409b98 <__vfscanf+0x648>
  409b20:	55 00 00 00 02 02 13 00 	sll $2,$19,0x2
  409b28:	42 00 00 00 00 02 13 02 	addu $2,$2,$19
  409b30:	55 00 00 00 01 13 02 00 	sll $19,$2,0x1
  409b38:	43 00 00 00 01 00 16 16 	addiu $22,$22,1
  409b40:	55 00 00 00 18 03 05 00 	sll $3,$5,0x18
  409b48:	20 00 00 00 00 00 02 16 	lb $2,0($22)
  409b50:	22 00 00 00 00 00 05 16 	lbu $5,0($22)
  409b58:	43 00 00 00 d0 ff 04 13 	addiu $4,$19,-48
  409b60:	55 00 00 00 01 02 02 00 	sll $2,$2,0x1
  409b68:	42 00 00 00 00 02 06 02 	addu $2,$2,$6
  409b70:	26 00 00 00 00 00 02 02 	lhu $2,0($2)
  409b78:	59 00 00 00 18 03 03 00 	sra $3,$3,0x18
  409b80:	42 00 00 00 00 13 03 04 	addu $19,$4,$3
  409b88:	4f 00 00 00 08 00 02 02 	andi $2,$2,8
  409b90:	06 00 00 00 e2 ff 00 02 	bne $2,$0,409b20 <__vfscanf+0x5d0>
  409b98:	06 00 00 00 02 00 00 13 	bne $19,$0,409ba8 <__vfscanf+0x658>
  409ba0:	43 00 00 00 ff ff 13 00 	addiu $19,$0,-1
  409ba8:	43 00 00 00 68 00 08 00 	addiu $8,$0,104
  409bb0:	43 00 00 00 6c 00 07 00 	addiu $7,$0,108
  409bb8:	43 00 00 00 4c 00 06 00 	addiu $6,$0,76
  409bc0:	43 00 00 00 61 00 05 00 	addiu $5,$0,97
  409bc8:	34 00 00 00 08 01 00 1d 	sw $0,264($29)
  409bd0:	30 00 00 00 00 01 00 1d 	sb $0,256($29)
  409bd8:	30 00 00 00 f8 00 00 1d 	sb $0,248($29)
  409be0:	30 00 00 00 f0 00 00 1d 	sb $0,240($29)
  409be8:	20 00 00 00 00 00 02 16 	lb $2,0($22)
  409bf0:	43 00 00 00 71 00 04 00 	addiu $4,$0,113
  409bf8:	a2 00 00 00 00 10 09 00 	lui $9,4096
  409c00:	43 00 00 00 40 04 09 09 	addiu $9,$9,1088
  409c08:	01 00 00 00 38 27 10 00 	j 409ce0 <__vfscanf+0x790>
  409c10:	22 00 00 00 00 00 02 16 	lbu $2,0($22)
  409c18:	43 00 00 00 01 00 16 16 	addiu $22,$22,1
  409c20:	43 00 00 00 b4 ff 02 02 	addiu $2,$2,-76
  409c28:	55 00 00 00 18 02 02 00 	sll $2,$2,0x18
  409c30:	59 00 00 00 18 03 02 00 	sra $3,$2,0x18
  409c38:	5e 00 00 00 26 00 02 03 	sltiu $2,$3,38
  409c40:	05 00 00 00 24 00 00 02 	beq $2,$0,409cd8 <__vfscanf+0x788>
  409c48:	55 00 00 00 02 02 03 00 	sll $2,$3,0x2
  409c50:	42 00 00 00 00 02 09 02 	addu $2,$2,$9
  409c58:	28 00 00 00 00 00 02 02 	lw $2,0($2)
  409c60:	03 00 00 00 00 00 00 02 	jr $2
  409c68:	43 00 00 00 01 00 0a 00 	addiu $10,$0,1
  409c70:	30 00 00 00 f0 00 0a 1d 	sb $10,240($29)
  409c78:	01 00 00 00 36 27 10 00 	j 409cd8 <__vfscanf+0x788>
  409c80:	22 00 00 00 f8 00 0a 1d 	lbu $10,248($29)
  409c88:	42 00 00 00 00 02 0a 00 	addu $2,$0,$10
  409c90:	06 00 00 00 06 00 00 02 	bne $2,$0,409cb0 <__vfscanf+0x760>
  409c98:	43 00 00 00 01 00 0a 00 	addiu $10,$0,1
  409ca0:	30 00 00 00 f8 00 0a 1d 	sb $10,248($29)
  409ca8:	01 00 00 00 36 27 10 00 	j 409cd8 <__vfscanf+0x788>
  409cb0:	43 00 00 00 01 00 0a 00 	addiu $10,$0,1
  409cb8:	30 00 00 00 00 01 0a 1d 	sb $10,256($29)
  409cc0:	01 00 00 00 36 27 10 00 	j 409cd8 <__vfscanf+0x788>
  409cc8:	43 00 00 00 01 00 0a 00 	addiu $10,$0,1
  409cd0:	34 00 00 00 08 01 0a 1d 	sw $10,264($29)
  409cd8:	20 00 00 00 00 00 02 16 	lb $2,0($22)
  409ce0:	05 00 00 00 ca ff 08 02 	beq $2,$8,409c10 <__vfscanf+0x6c0>
  409ce8:	05 00 00 00 c8 ff 07 02 	beq $2,$7,409c10 <__vfscanf+0x6c0>
  409cf0:	05 00 00 00 c6 ff 06 02 	beq $2,$6,409c10 <__vfscanf+0x6c0>
  409cf8:	05 00 00 00 c4 ff 05 02 	beq $2,$5,409c10 <__vfscanf+0x6c0>
  409d00:	05 00 00 00 c2 ff 04 02 	beq $2,$4,409c10 <__vfscanf+0x6c0>
  409d08:	20 00 00 00 00 00 02 16 	lb $2,0($22)
  409d10:	06 00 00 00 06 00 00 02 	bne $2,$0,409d30 <__vfscanf+0x7e0>
  409d18:	43 00 00 00 ff ff 0a 00 	addiu $10,$0,-1
  409d20:	05 00 00 00 4c 06 0a 11 	beq $17,$10,40b658 <__vfscanf+0x2108>
  409d28:	01 00 00 00 90 2d 10 00 	j 40b640 <__vfscanf+0x20f0>
  409d30:	43 00 00 00 10 00 02 1d 	addiu $2,$29,16
  409d38:	34 00 00 00 dc 00 02 1d 	sw $2,220($29)
  409d40:	22 00 00 00 00 00 10 16 	lbu $16,0($22)
  409d48:	43 00 00 00 01 00 16 16 	addiu $22,$22,1
  409d50:	55 00 00 00 18 02 10 00 	sll $2,$16,0x18
  409d58:	59 00 00 00 18 03 02 00 	sra $3,$2,0x18
  409d60:	43 00 00 00 5b 00 02 00 	addiu $2,$0,91
  409d68:	05 00 00 00 32 00 02 03 	beq $3,$2,409e38 <__vfscanf+0x8e8>
  409d70:	43 00 00 00 63 00 02 00 	addiu $2,$0,99
  409d78:	05 00 00 00 2e 00 02 03 	beq $3,$2,409e38 <__vfscanf+0x8e8>
  409d80:	43 00 00 00 6e 00 02 00 	addiu $2,$0,110
  409d88:	05 00 00 00 2a 00 02 03 	beq $3,$2,409e38 <__vfscanf+0x8e8>
  409d90:	01 00 00 00 82 27 10 00 	j 409e08 <__vfscanf+0x8b8>
  409d98:	28 00 00 00 04 00 03 12 	lw $3,4($18)
  409da0:	28 00 00 00 08 00 02 12 	lw $2,8($18)
  409da8:	5d 00 00 00 00 02 02 03 	sltu $2,$3,$2
  409db0:	05 00 00 00 08 00 00 02 	beq $2,$0,409dd8 <__vfscanf+0x888>
  409db8:	43 00 00 00 01 00 02 03 	addiu $2,$3,1
  409dc0:	34 00 00 00 04 00 02 12 	sw $2,4($18)
  409dc8:	22 00 00 00 00 00 11 03 	lbu $17,0($3)
  409dd0:	01 00 00 00 7c 27 10 00 	j 409df0 <__vfscanf+0x8a0>
  409dd8:	42 00 00 00 00 04 12 00 	addu $4,$0,$18
  409de0:	02 00 00 00 d2 10 10 00 	jal 404348 <__fillbf>
  409de8:	42 00 00 00 00 11 02 00 	addu $17,$0,$2
  409df0:	43 00 00 00 ff ff 0a 00 	addiu $10,$0,-1
  409df8:	05 00 00 00 02 00 0a 11 	beq $17,$10,409e08 <__vfscanf+0x8b8>
  409e00:	43 00 00 00 01 00 17 17 	addiu $23,$23,1
  409e08:	28 00 00 00 20 81 02 1c 	lw $2,-32480($28)
  409e10:	55 00 00 00 01 03 11 00 	sll $3,$17,0x1
  409e18:	42 00 00 00 00 03 02 03 	addu $3,$3,$2
  409e20:	26 00 00 00 00 00 02 03 	lhu $2,0($3)
  409e28:	4f 00 00 00 10 00 02 02 	andi $2,$2,16
  409e30:	06 00 00 00 d8 ff 00 02 	bne $2,$0,409d98 <__vfscanf+0x848>
  409e38:	43 00 00 00 db ff 02 10 	addiu $2,$16,-37
  409e40:	55 00 00 00 18 02 02 00 	sll $2,$2,0x18
  409e48:	59 00 00 00 18 03 02 00 	sra $3,$2,0x18
  409e50:	5e 00 00 00 54 00 02 03 	sltiu $2,$3,84
  409e58:	05 00 00 00 ee 05 00 02 	beq $2,$0,40b618 <__vfscanf+0x20c8>
  409e60:	55 00 00 00 02 02 03 00 	sll $2,$3,0x2
  409e68:	a2 00 00 00 00 10 01 00 	lui $1,4096
  409e70:	42 00 00 00 00 01 02 01 	addu $1,$1,$2
  409e78:	28 00 00 00 d8 04 02 01 	lw $2,1240($1)
  409e80:	03 00 00 00 00 00 00 02 	jr $2
  409e88:	55 00 00 00 18 02 10 00 	sll $2,$16,0x18
  409e90:	59 00 00 00 18 02 02 00 	sra $2,$2,0x18
  409e98:	05 00 00 00 de 05 02 11 	beq $17,$2,40b618 <__vfscanf+0x20c8>
  409ea0:	43 00 00 00 ff ff 0a 00 	addiu $10,$0,-1
  409ea8:	05 00 00 00 ea 05 0a 11 	beq $17,$10,40b658 <__vfscanf+0x2108>
  409eb0:	01 00 00 00 90 2d 10 00 	j 40b640 <__vfscanf+0x20f0>
  409eb8:	28 00 00 00 e8 00 0a 1d 	lw $10,232($29)
  409ec0:	05 00 00 00 d4 05 00 0a 	beq $10,$0,40b618 <__vfscanf+0x20c8>
  409ec8:	28 00 00 00 e0 00 0a 1d 	lw $10,224($29)
  409ed0:	43 00 00 00 03 00 02 0a 	addiu $2,$10,3
  409ed8:	43 00 00 00 fc ff 03 00 	addiu $3,$0,-4
  409ee0:	4e 00 00 00 00 02 03 02 	and $2,$2,$3
  409ee8:	28 00 00 00 00 00 03 02 	lw $3,0($2)
  409ef0:	43 00 00 00 04 00 02 02 	addiu $2,$2,4
  409ef8:	34 00 00 00 e0 00 02 1d 	sw $2,224($29)
  409f00:	34 00 00 00 00 00 17 03 	sw $23,0($3)
  409f08:	01 00 00 00 86 2d 10 00 	j 40b618 <__vfscanf+0x20c8>
  409f10:	28 00 00 00 e8 00 0a 1d 	lw $10,232($29)
  409f18:	05 00 00 00 16 00 00 0a 	beq $10,$0,409f78 <__vfscanf+0xa28>
  409f20:	28 00 00 00 e0 00 0a 1d 	lw $10,224($29)
  409f28:	43 00 00 00 03 00 03 0a 	addiu $3,$10,3
  409f30:	43 00 00 00 fc ff 02 00 	addiu $2,$0,-4
  409f38:	4e 00 00 00 00 03 02 03 	and $3,$3,$2
  409f40:	28 00 00 00 00 00 14 03 	lw $20,0($3)
  409f48:	43 00 00 00 04 00 03 03 	addiu $3,$3,4
  409f50:	34 00 00 00 e0 00 03 1d 	sw $3,224($29)
  409f58:	06 00 00 00 06 00 00 14 	bne $20,$0,409f78 <__vfscanf+0xa28>
  409f60:	43 00 00 00 ff ff 0a 00 	addiu $10,$0,-1
  409f68:	05 00 00 00 ba 05 0a 11 	beq $17,$10,40b658 <__vfscanf+0x2108>
  409f70:	01 00 00 00 90 2d 10 00 	j 40b640 <__vfscanf+0x20f0>
  409f78:	43 00 00 00 ff ff 0a 00 	addiu $10,$0,-1
  409f80:	05 00 00 00 16 fe 0a 11 	beq $17,$10,4097e0 <__vfscanf+0x290>
  409f88:	43 00 00 00 ff ff 0a 00 	addiu $10,$0,-1
  409f90:	06 00 00 00 02 00 0a 13 	bne $19,$10,409fa0 <__vfscanf+0xa50>
  409f98:	43 00 00 00 01 00 13 00 	addiu $19,$0,1
  409fa0:	28 00 00 00 e8 00 0a 1d 	lw $10,232($29)
  409fa8:	05 00 00 00 26 00 00 0a 	beq $10,$0,40a048 <__vfscanf+0xaf8>
  409fb0:	30 00 00 00 00 00 11 14 	sb $17,0($20)
  409fb8:	28 00 00 00 04 00 03 12 	lw $3,4($18)
  409fc0:	28 00 00 00 08 00 02 12 	lw $2,8($18)
  409fc8:	43 00 00 00 01 00 14 14 	addiu $20,$20,1
  409fd0:	5d 00 00 00 00 02 02 03 	sltu $2,$3,$2
  409fd8:	05 00 00 00 08 00 00 02 	beq $2,$0,40a000 <__vfscanf+0xab0>
  409fe0:	43 00 00 00 01 00 02 03 	addiu $2,$3,1
  409fe8:	34 00 00 00 04 00 02 12 	sw $2,4($18)
  409ff0:	22 00 00 00 00 00 11 03 	lbu $17,0($3)
  409ff8:	01 00 00 00 06 28 10 00 	j 40a018 <__vfscanf+0xac8>
  40a000:	42 00 00 00 00 04 12 00 	addu $4,$0,$18
  40a008:	02 00 00 00 d2 10 10 00 	jal 404348 <__fillbf>
  40a010:	42 00 00 00 00 11 02 00 	addu $17,$0,$2
  40a018:	43 00 00 00 ff ff 0a 00 	addiu $10,$0,-1
  40a020:	05 00 00 00 2a 00 0a 11 	beq $17,$10,40a0d0 <__vfscanf+0xb80>
  40a028:	43 00 00 00 01 00 17 17 	addiu $23,$23,1
  40a030:	43 00 00 00 ff ff 13 13 	addiu $19,$19,-1
  40a038:	08 00 00 00 dc ff 00 13 	bgtz $19,409fb0 <__vfscanf+0xa60>
  40a040:	01 00 00 00 34 28 10 00 	j 40a0d0 <__vfscanf+0xb80>
  40a048:	28 00 00 00 04 00 03 12 	lw $3,4($18)
  40a050:	28 00 00 00 08 00 02 12 	lw $2,8($18)
  40a058:	5d 00 00 00 00 02 02 03 	sltu $2,$3,$2
  40a060:	05 00 00 00 08 00 00 02 	beq $2,$0,40a088 <__vfscanf+0xb38>
  40a068:	43 00 00 00 01 00 02 03 	addiu $2,$3,1
  40a070:	34 00 00 00 04 00 02 12 	sw $2,4($18)
  40a078:	22 00 00 00 00 00 11 03 	lbu $17,0($3)
  40a080:	01 00 00 00 28 28 10 00 	j 40a0a0 <__vfscanf+0xb50>
  40a088:	42 00 00 00 00 04 12 00 	addu $4,$0,$18
  40a090:	02 00 00 00 d2 10 10 00 	jal 404348 <__fillbf>
  40a098:	42 00 00 00 00 11 02 00 	addu $17,$0,$2
  40a0a0:	43 00 00 00 ff ff 0a 00 	addiu $10,$0,-1
  40a0a8:	05 00 00 00 08 00 0a 11 	beq $17,$10,40a0d0 <__vfscanf+0xb80>
  40a0b0:	43 00 00 00 01 00 17 17 	addiu $23,$23,1
  40a0b8:	07 00 00 00 04 00 00 13 	blez $19,40a0d0 <__vfscanf+0xb80>
  40a0c0:	43 00 00 00 ff ff 13 13 	addiu $19,$19,-1
  40a0c8:	01 00 00 00 12 28 10 00 	j 40a048 <__vfscanf+0xaf8>
  40a0d0:	28 00 00 00 e8 00 0a 1d 	lw $10,232($29)
  40a0d8:	05 00 00 00 4e 05 00 0a 	beq $10,$0,40b618 <__vfscanf+0x20c8>
  40a0e0:	43 00 00 00 01 00 15 15 	addiu $21,$21,1
  40a0e8:	01 00 00 00 86 2d 10 00 	j 40b618 <__vfscanf+0x20c8>
  40a0f0:	28 00 00 00 e8 00 0a 1d 	lw $10,232($29)
  40a0f8:	05 00 00 00 42 00 00 0a 	beq $10,$0,40a208 <__vfscanf+0xcb8>
  40a100:	28 00 00 00 08 01 0a 1d 	lw $10,264($29)
  40a108:	05 00 00 00 28 00 00 0a 	beq $10,$0,40a1b0 <__vfscanf+0xc60>
  40a110:	28 00 00 00 e0 00 0a 1d 	lw $10,224($29)
  40a118:	43 00 00 00 03 00 03 0a 	addiu $3,$10,3
  40a120:	43 00 00 00 fc ff 02 00 	addiu $2,$0,-4
  40a128:	4e 00 00 00 00 03 02 03 	and $3,$3,$2
  40a130:	28 00 00 00 00 00 0a 03 	lw $10,0($3)
  40a138:	43 00 00 00 04 00 03 03 	addiu $3,$3,4
  40a140:	34 00 00 00 28 01 0a 1d 	sw $10,296($29)
  40a148:	34 00 00 00 e0 00 03 1d 	sw $3,224($29)
  40a150:	06 00 00 00 06 00 00 0a 	bne $10,$0,40a170 <__vfscanf+0xc20>
  40a158:	43 00 00 00 ff ff 0a 00 	addiu $10,$0,-1
  40a160:	05 00 00 00 3c 05 0a 11 	beq $17,$10,40b658 <__vfscanf+0x2108>
  40a168:	01 00 00 00 90 2d 10 00 	j 40b640 <__vfscanf+0x20f0>
  40a170:	43 00 00 00 64 00 0a 00 	addiu $10,$0,100
  40a178:	43 00 00 00 64 00 04 00 	addiu $4,$0,100
  40a180:	34 00 00 00 30 01 0a 1d 	sw $10,304($29)
  40a188:	02 00 00 00 96 22 10 00 	jal 408a58 <malloc>
  40a190:	28 00 00 00 28 01 0a 1d 	lw $10,296($29)
  40a198:	42 00 00 00 00 14 02 00 	addu $20,$0,$2
  40a1a0:	34 00 00 00 00 00 14 0a 	sw $20,0($10)
  40a1a8:	01 00 00 00 7a 28 10 00 	j 40a1e8 <__vfscanf+0xc98>
  40a1b0:	28 00 00 00 e0 00 0a 1d 	lw $10,224($29)
  40a1b8:	43 00 00 00 fc ff 02 00 	addiu $2,$0,-4
  40a1c0:	43 00 00 00 03 00 03 0a 	addiu $3,$10,3
  40a1c8:	4e 00 00 00 00 03 02 03 	and $3,$3,$2
  40a1d0:	43 00 00 00 04 00 0a 03 	addiu $10,$3,4
  40a1d8:	34 00 00 00 e0 00 0a 1d 	sw $10,224($29)
  40a1e0:	28 00 00 00 00 00 14 03 	lw $20,0($3)
  40a1e8:	06 00 00 00 06 00 00 14 	bne $20,$0,40a208 <__vfscanf+0xcb8>
  40a1f0:	43 00 00 00 ff ff 0a 00 	addiu $10,$0,-1
  40a1f8:	05 00 00 00 16 05 0a 11 	beq $17,$10,40b658 <__vfscanf+0x2108>
  40a200:	01 00 00 00 90 2d 10 00 	j 40b640 <__vfscanf+0x20f0>
  40a208:	43 00 00 00 ff ff 0a 00 	addiu $10,$0,-1
  40a210:	05 00 00 00 72 fd 0a 11 	beq $17,$10,4097e0 <__vfscanf+0x290>
  40a218:	01 00 00 00 f6 28 10 00 	j 40a3d8 <__vfscanf+0xe88>
  40a220:	28 00 00 00 e8 00 0a 1d 	lw $10,232($29)
  40a228:	05 00 00 00 48 00 00 0a 	beq $10,$0,40a350 <__vfscanf+0xe00>
  40a230:	30 00 00 00 00 00 11 14 	sb $17,0($20)
  40a238:	28 00 00 00 08 01 0a 1d 	lw $10,264($29)
  40a240:	43 00 00 00 01 00 14 14 	addiu $20,$20,1
  40a248:	05 00 00 00 40 00 00 0a 	beq $10,$0,40a350 <__vfscanf+0xe00>
  40a250:	28 00 00 00 28 01 0a 1d 	lw $10,296($29)
  40a258:	28 00 00 00 00 00 04 0a 	lw $4,0($10)
  40a260:	28 00 00 00 30 01 0a 1d 	lw $10,304($29)
  40a268:	42 00 00 00 00 02 04 0a 	addu $2,$10,$4
  40a270:	06 00 00 00 36 00 02 14 	bne $20,$2,40a350 <__vfscanf+0xe00>
  40a278:	55 00 00 00 01 10 0a 00 	sll $16,$10,0x1
  40a280:	42 00 00 00 00 05 10 00 	addu $5,$0,$16
  40a288:	02 00 00 00 04 48 10 00 	jal 412010 <realloc>
  40a290:	42 00 00 00 00 14 02 00 	addu $20,$0,$2
  40a298:	06 00 00 00 22 00 00 14 	bne $20,$0,40a328 <__vfscanf+0xdd8>
  40a2a0:	28 00 00 00 28 01 0a 1d 	lw $10,296($29)
  40a2a8:	28 00 00 00 00 00 04 0a 	lw $4,0($10)
  40a2b0:	28 00 00 00 30 01 0a 1d 	lw $10,304($29)
  40a2b8:	43 00 00 00 01 00 10 0a 	addiu $16,$10,1
  40a2c0:	42 00 00 00 00 05 10 00 	addu $5,$0,$16
  40a2c8:	02 00 00 00 04 48 10 00 	jal 412010 <realloc>
  40a2d0:	42 00 00 00 00 14 02 00 	addu $20,$0,$2
  40a2d8:	06 00 00 00 12 00 00 14 	bne $20,$0,40a328 <__vfscanf+0xdd8>
  40a2e0:	28 00 00 00 28 01 0a 1d 	lw $10,296($29)
  40a2e8:	28 00 00 00 00 00 02 0a 	lw $2,0($10)
  40a2f0:	28 00 00 00 30 01 0a 1d 	lw $10,304($29)
  40a2f8:	43 00 00 00 01 00 15 15 	addiu $21,$21,1
  40a300:	42 00 00 00 00 02 0a 02 	addu $2,$2,$10
  40a308:	43 00 00 00 ff ff 0a 00 	addiu $10,$0,-1
  40a310:	30 00 00 00 00 00 00 02 	sb $0,0($2)
  40a318:	05 00 00 00 ce 04 0a 11 	beq $17,$10,40b658 <__vfscanf+0x2108>
  40a320:	01 00 00 00 90 2d 10 00 	j 40b640 <__vfscanf+0x20f0>
  40a328:	28 00 00 00 28 01 0a 1d 	lw $10,296($29)
  40a330:	34 00 00 00 00 00 14 0a 	sw $20,0($10)
  40a338:	28 00 00 00 30 01 0a 1d 	lw $10,304($29)
  40a340:	42 00 00 00 00 14 0a 14 	addu $20,$20,$10
  40a348:	34 00 00 00 30 01 10 1d 	sw $16,304($29)
  40a350:	28 00 00 00 04 00 03 12 	lw $3,4($18)
  40a358:	28 00 00 00 08 00 02 12 	lw $2,8($18)
  40a360:	5d 00 00 00 00 02 02 03 	sltu $2,$3,$2
  40a368:	05 00 00 00 08 00 00 02 	beq $2,$0,40a390 <__vfscanf+0xe40>
  40a370:	43 00 00 00 01 00 02 03 	addiu $2,$3,1
  40a378:	34 00 00 00 04 00 02 12 	sw $2,4($18)
  40a380:	22 00 00 00 00 00 11 03 	lbu $17,0($3)
  40a388:	01 00 00 00 ea 28 10 00 	j 40a3a8 <__vfscanf+0xe58>
  40a390:	42 00 00 00 00 04 12 00 	addu $4,$0,$18
  40a398:	02 00 00 00 d2 10 10 00 	jal 404348 <__fillbf>
  40a3a0:	42 00 00 00 00 11 02 00 	addu $17,$0,$2
  40a3a8:	43 00 00 00 ff ff 0a 00 	addiu $10,$0,-1
  40a3b0:	05 00 00 00 88 04 0a 11 	beq $17,$10,40b5d8 <__vfscanf+0x2088>
  40a3b8:	43 00 00 00 01 00 17 17 	addiu $23,$23,1
  40a3c0:	07 00 00 00 04 00 00 13 	blez $19,40a3d8 <__vfscanf+0xe88>
  40a3c8:	43 00 00 00 ff ff 13 13 	addiu $19,$19,-1
  40a3d0:	07 00 00 00 80 04 00 13 	blez $19,40b5d8 <__vfscanf+0x2088>
  40a3d8:	28 00 00 00 20 81 02 1c 	lw $2,-32480($28)
  40a3e0:	55 00 00 00 01 03 11 00 	sll $3,$17,0x1
  40a3e8:	42 00 00 00 00 03 02 03 	addu $3,$3,$2
  40a3f0:	26 00 00 00 00 00 02 03 	lhu $2,0($3)
  40a3f8:	4f 00 00 00 10 00 02 02 	andi $2,$2,16
  40a400:	05 00 00 00 86 ff 00 02 	beq $2,$0,40a220 <__vfscanf+0xcd0>
  40a408:	01 00 00 00 76 2d 10 00 	j 40b5d8 <__vfscanf+0x2088>
  40a410:	43 00 00 00 10 00 10 00 	addiu $16,$0,16
  40a418:	34 00 00 00 10 01 00 1d 	sw $0,272($29)
  40a420:	01 00 00 00 20 29 10 00 	j 40a480 <__vfscanf+0xf30>
  40a428:	43 00 00 00 08 00 10 00 	addiu $16,$0,8
  40a430:	34 00 00 00 10 01 00 1d 	sw $0,272($29)
  40a438:	01 00 00 00 20 29 10 00 	j 40a480 <__vfscanf+0xf30>
  40a440:	43 00 00 00 0a 00 10 00 	addiu $16,$0,10
  40a448:	34 00 00 00 10 01 00 1d 	sw $0,272($29)
  40a450:	01 00 00 00 20 29 10 00 	j 40a480 <__vfscanf+0xf30>
  40a458:	43 00 00 00 0a 00 10 00 	addiu $16,$0,10
  40a460:	01 00 00 00 1c 29 10 00 	j 40a470 <__vfscanf+0xf20>
  40a468:	42 00 00 00 00 10 00 00 	addu $16,$0,$0
  40a470:	43 00 00 00 01 00 0a 00 	addiu $10,$0,1
  40a478:	34 00 00 00 10 01 0a 1d 	sw $10,272($29)
  40a480:	43 00 00 00 ff ff 0a 00 	addiu $10,$0,-1
  40a488:	05 00 00 00 d4 fc 0a 11 	beq $17,$10,4097e0 <__vfscanf+0x290>
  40a490:	43 00 00 00 2d 00 02 00 	addiu $2,$0,45
  40a498:	05 00 00 00 04 00 02 11 	beq $17,$2,40a4b0 <__vfscanf+0xf60>
  40a4a0:	43 00 00 00 2b 00 02 00 	addiu $2,$0,43
  40a4a8:	06 00 00 00 2a 00 02 11 	bne $17,$2,40a558 <__vfscanf+0x1008>
  40a4b0:	28 00 00 00 dc 00 02 1d 	lw $2,220($29)
  40a4b8:	30 00 00 00 00 00 11 02 	sb $17,0($2)
  40a4c0:	28 00 00 00 dc 00 02 1d 	lw $2,220($29)
  40a4c8:	43 00 00 00 01 00 02 02 	addiu $2,$2,1
  40a4d0:	34 00 00 00 dc 00 02 1d 	sw $2,220($29)
  40a4d8:	07 00 00 00 02 00 00 13 	blez $19,40a4e8 <__vfscanf+0xf98>
  40a4e0:	43 00 00 00 ff ff 13 13 	addiu $19,$19,-1
  40a4e8:	28 00 00 00 04 00 03 12 	lw $3,4($18)
  40a4f0:	28 00 00 00 08 00 02 12 	lw $2,8($18)
  40a4f8:	5d 00 00 00 00 02 02 03 	sltu $2,$3,$2
  40a500:	05 00 00 00 08 00 00 02 	beq $2,$0,40a528 <__vfscanf+0xfd8>
  40a508:	43 00 00 00 01 00 02 03 	addiu $2,$3,1
  40a510:	34 00 00 00 04 00 02 12 	sw $2,4($18)
  40a518:	22 00 00 00 00 00 11 03 	lbu $17,0($3)
  40a520:	01 00 00 00 50 29 10 00 	j 40a540 <__vfscanf+0xff0>
  40a528:	42 00 00 00 00 04 12 00 	addu $4,$0,$18
  40a530:	02 00 00 00 d2 10 10 00 	jal 404348 <__fillbf>
  40a538:	42 00 00 00 00 11 02 00 	addu $17,$0,$2
  40a540:	43 00 00 00 ff ff 0a 00 	addiu $10,$0,-1
  40a548:	05 00 00 00 02 00 0a 11 	beq $17,$10,40a558 <__vfscanf+0x1008>
  40a550:	43 00 00 00 01 00 17 17 	addiu $23,$23,1
  40a558:	43 00 00 00 30 00 02 00 	addiu $2,$0,48
  40a560:	06 00 00 00 66 00 02 11 	bne $17,$2,40a700 <__vfscanf+0x11b0>
  40a568:	07 00 00 00 02 00 00 13 	blez $19,40a578 <__vfscanf+0x1028>
  40a570:	43 00 00 00 ff ff 13 13 	addiu $19,$19,-1
  40a578:	28 00 00 00 dc 00 03 1d 	lw $3,220($29)
  40a580:	43 00 00 00 30 00 02 00 	addiu $2,$0,48
  40a588:	30 00 00 00 00 00 02 03 	sb $2,0($3)
  40a590:	28 00 00 00 dc 00 02 1d 	lw $2,220($29)
  40a598:	28 00 00 00 04 00 04 12 	lw $4,4($18)
  40a5a0:	28 00 00 00 08 00 03 12 	lw $3,8($18)
  40a5a8:	43 00 00 00 01 00 02 02 	addiu $2,$2,1
  40a5b0:	5d 00 00 00 00 03 03 04 	sltu $3,$4,$3
  40a5b8:	34 00 00 00 dc 00 02 1d 	sw $2,220($29)
  40a5c0:	05 00 00 00 08 00 00 03 	beq $3,$0,40a5e8 <__vfscanf+0x1098>
  40a5c8:	43 00 00 00 01 00 02 04 	addiu $2,$4,1
  40a5d0:	34 00 00 00 04 00 02 12 	sw $2,4($18)
  40a5d8:	22 00 00 00 00 00 11 04 	lbu $17,0($4)
  40a5e0:	01 00 00 00 80 29 10 00 	j 40a600 <__vfscanf+0x10b0>
  40a5e8:	42 00 00 00 00 04 12 00 	addu $4,$0,$18
  40a5f0:	02 00 00 00 d2 10 10 00 	jal 404348 <__fillbf>
  40a5f8:	42 00 00 00 00 11 02 00 	addu $17,$0,$2
  40a600:	43 00 00 00 ff ff 0a 00 	addiu $10,$0,-1
  40a608:	05 00 00 00 02 00 0a 11 	beq $17,$10,40a618 <__vfscanf+0x10c8>
  40a610:	43 00 00 00 01 00 17 17 	addiu $23,$23,1
  40a618:	28 00 00 00 24 81 03 1c 	lw $3,-32476($28)
  40a620:	55 00 00 00 01 02 11 00 	sll $2,$17,0x1
  40a628:	42 00 00 00 00 02 03 02 	addu $2,$2,$3
  40a630:	24 00 00 00 00 00 03 02 	lh $3,0($2)
  40a638:	43 00 00 00 78 00 02 00 	addiu $2,$0,120
  40a640:	06 00 00 00 2a 00 02 03 	bne $3,$2,40a6f0 <__vfscanf+0x11a0>
  40a648:	06 00 00 00 02 00 00 10 	bne $16,$0,40a658 <__vfscanf+0x1108>
  40a650:	43 00 00 00 10 00 10 00 	addiu $16,$0,16
  40a658:	43 00 00 00 10 00 02 00 	addiu $2,$0,16
  40a660:	06 00 00 00 26 00 02 10 	bne $16,$2,40a700 <__vfscanf+0x11b0>
  40a668:	07 00 00 00 02 00 00 13 	blez $19,40a678 <__vfscanf+0x1128>
  40a670:	43 00 00 00 ff ff 13 13 	addiu $19,$19,-1
  40a678:	28 00 00 00 04 00 03 12 	lw $3,4($18)
  40a680:	28 00 00 00 08 00 02 12 	lw $2,8($18)
  40a688:	5d 00 00 00 00 02 02 03 	sltu $2,$3,$2
  40a690:	05 00 00 00 08 00 00 02 	beq $2,$0,40a6b8 <__vfscanf+0x1168>
  40a698:	43 00 00 00 01 00 02 03 	addiu $2,$3,1
  40a6a0:	34 00 00 00 04 00 02 12 	sw $2,4($18)
  40a6a8:	22 00 00 00 00 00 11 03 	lbu $17,0($3)
  40a6b0:	01 00 00 00 b4 29 10 00 	j 40a6d0 <__vfscanf+0x1180>
  40a6b8:	42 00 00 00 00 04 12 00 	addu $4,$0,$18
  40a6c0:	02 00 00 00 d2 10 10 00 	jal 404348 <__fillbf>
  40a6c8:	42 00 00 00 00 11 02 00 	addu $17,$0,$2
  40a6d0:	43 00 00 00 ff ff 0a 00 	addiu $10,$0,-1
  40a6d8:	05 00 00 00 08 00 0a 11 	beq $17,$10,40a700 <__vfscanf+0x11b0>
  40a6e0:	43 00 00 00 01 00 17 17 	addiu $23,$23,1
  40a6e8:	01 00 00 00 c0 29 10 00 	j 40a700 <__vfscanf+0x11b0>
  40a6f0:	06 00 00 00 06 00 00 10 	bne $16,$0,40a710 <__vfscanf+0x11c0>
  40a6f8:	43 00 00 00 08 00 10 00 	addiu $16,$0,8
  40a700:	06 00 00 00 02 00 00 10 	bne $16,$0,40a710 <__vfscanf+0x11c0>
  40a708:	43 00 00 00 0a 00 10 00 	addiu $16,$0,10
  40a710:	43 00 00 00 10 00 1e 00 	addiu $30,$0,16
  40a718:	06 00 00 00 0e 00 1e 10 	bne $16,$30,40a758 <__vfscanf+0x1208>
  40a720:	28 00 00 00 20 81 02 1c 	lw $2,-32480($28)
  40a728:	55 00 00 00 01 03 11 00 	sll $3,$17,0x1
  40a730:	42 00 00 00 00 03 02 03 	addu $3,$3,$2
  40a738:	26 00 00 00 00 00 02 03 	lhu $2,0($3)
  40a740:	4f 00 00 00 28 00 02 02 	andi $2,$2,40
  40a748:	06 00 00 00 14 00 00 02 	bne $2,$0,40a7a0 <__vfscanf+0x1250>
  40a750:	01 00 00 00 14 2a 10 00 	j 40a850 <__vfscanf+0x1300>
  40a758:	28 00 00 00 20 81 02 1c 	lw $2,-32480($28)
  40a760:	55 00 00 00 01 03 11 00 	sll $3,$17,0x1
  40a768:	42 00 00 00 00 03 02 03 	addu $3,$3,$2
  40a770:	26 00 00 00 00 00 02 03 	lhu $2,0($3)
  40a778:	4f 00 00 00 08 00 02 02 	andi $2,$2,8
  40a780:	05 00 00 00 32 00 00 02 	beq $2,$0,40a850 <__vfscanf+0x1300>
  40a788:	43 00 00 00 d0 ff 02 11 	addiu $2,$17,-48
  40a790:	5b 00 00 00 00 02 10 02 	slt $2,$2,$16
  40a798:	05 00 00 00 2c 00 00 02 	beq $2,$0,40a850 <__vfscanf+0x1300>
  40a7a0:	28 00 00 00 dc 00 02 1d 	lw $2,220($29)
  40a7a8:	30 00 00 00 00 00 11 02 	sb $17,0($2)
  40a7b0:	28 00 00 00 dc 00 02 1d 	lw $2,220($29)
  40a7b8:	43 00 00 00 01 00 02 02 	addiu $2,$2,1
  40a7c0:	34 00 00 00 dc 00 02 1d 	sw $2,220($29)
  40a7c8:	07 00 00 00 02 00 00 13 	blez $19,40a7d8 <__vfscanf+0x1288>
  40a7d0:	43 00 00 00 ff ff 13 13 	addiu $19,$19,-1
  40a7d8:	28 00 00 00 04 00 03 12 	lw $3,4($18)
  40a7e0:	28 00 00 00 08 00 02 12 	lw $2,8($18)
  40a7e8:	5d 00 00 00 00 02 02 03 	sltu $2,$3,$2
  40a7f0:	05 00 00 00 08 00 00 02 	beq $2,$0,40a818 <__vfscanf+0x12c8>
  40a7f8:	43 00 00 00 01 00 02 03 	addiu $2,$3,1
  40a800:	34 00 00 00 04 00 02 12 	sw $2,4($18)
  40a808:	22 00 00 00 00 00 11 03 	lbu $17,0($3)
  40a810:	01 00 00 00 0c 2a 10 00 	j 40a830 <__vfscanf+0x12e0>
  40a818:	42 00 00 00 00 04 12 00 	addu $4,$0,$18
  40a820:	02 00 00 00 d2 10 10 00 	jal 404348 <__fillbf>
  40a828:	42 00 00 00 00 11 02 00 	addu $17,$0,$2
  40a830:	43 00 00 00 ff ff 0a 00 	addiu $10,$0,-1
  40a838:	05 00 00 00 04 00 0a 11 	beq $17,$10,40a850 <__vfscanf+0x1300>
  40a840:	43 00 00 00 01 00 17 17 	addiu $23,$23,1
  40a848:	06 00 00 00 b2 ff 00 13 	bne $19,$0,40a718 <__vfscanf+0x11c8>
  40a850:	28 00 00 00 dc 00 02 1d 	lw $2,220($29)
  40a858:	43 00 00 00 10 00 03 1d 	addiu $3,$29,16
  40a860:	05 00 00 00 0e 00 03 02 	beq $2,$3,40a8a0 <__vfscanf+0x1350>
  40a868:	43 00 00 00 ff ff 02 02 	addiu $2,$2,-1
  40a870:	06 00 00 00 10 00 02 03 	bne $3,$2,40a8b8 <__vfscanf+0x1368>
  40a878:	20 00 00 00 10 00 03 1d 	lb $3,16($29)
  40a880:	43 00 00 00 2b 00 02 00 	addiu $2,$0,43
  40a888:	05 00 00 00 04 00 02 03 	beq $3,$2,40a8a0 <__vfscanf+0x1350>
  40a890:	43 00 00 00 2d 00 02 00 	addiu $2,$0,45
  40a898:	06 00 00 00 06 00 02 03 	bne $3,$2,40a8b8 <__vfscanf+0x1368>
  40a8a0:	43 00 00 00 ff ff 0a 00 	addiu $10,$0,-1
  40a8a8:	05 00 00 00 6a 03 0a 11 	beq $17,$10,40b658 <__vfscanf+0x2108>
  40a8b0:	01 00 00 00 90 2d 10 00 	j 40b640 <__vfscanf+0x20f0>
  40a8b8:	28 00 00 00 dc 00 02 1d 	lw $2,220($29)
  40a8c0:	30 00 00 00 00 00 00 02 	sb $0,0($2)
  40a8c8:	28 00 00 00 10 01 0a 1d 	lw $10,272($29)
  40a8d0:	05 00 00 00 0c 00 00 0a 	beq $10,$0,40a908 <__vfscanf+0x13b8>
  40a8d8:	43 00 00 00 10 00 04 1d 	addiu $4,$29,16
  40a8e0:	43 00 00 00 dc 00 05 1d 	addiu $5,$29,220
  40a8e8:	42 00 00 00 00 06 10 00 	addu $6,$0,$16
  40a8f0:	02 00 00 00 2c 49 10 00 	jal 4124b0 <strtol>
  40a8f8:	34 00 00 00 18 01 02 1d 	sw $2,280($29)
  40a900:	01 00 00 00 4c 2a 10 00 	j 40a930 <__vfscanf+0x13e0>
  40a908:	43 00 00 00 10 00 04 1d 	addiu $4,$29,16
  40a910:	43 00 00 00 dc 00 05 1d 	addiu $5,$29,220
  40a918:	42 00 00 00 00 06 10 00 	addu $6,$0,$16
  40a920:	02 00 00 00 38 4a 10 00 	jal 4128e0 <strtoul>
  40a928:	34 00 00 00 20 01 02 1d 	sw $2,288($29)
  40a930:	28 00 00 00 dc 00 03 1d 	lw $3,220($29)
  40a938:	43 00 00 00 10 00 02 1d 	addiu $2,$29,16
  40a940:	06 00 00 00 06 00 02 03 	bne $3,$2,40a960 <__vfscanf+0x1410>
  40a948:	43 00 00 00 ff ff 0a 00 	addiu $10,$0,-1
  40a950:	05 00 00 00 40 03 0a 11 	beq $17,$10,40b658 <__vfscanf+0x2108>
  40a958:	01 00 00 00 90 2d 10 00 	j 40b640 <__vfscanf+0x20f0>
  40a960:	28 00 00 00 e8 00 0a 1d 	lw $10,232($29)
  40a968:	05 00 00 00 2a 03 00 0a 	beq $10,$0,40b618 <__vfscanf+0x20c8>
  40a970:	28 00 00 00 10 01 0a 1d 	lw $10,272($29)
  40a978:	06 00 00 00 54 00 00 0a 	bne $10,$0,40aad0 <__vfscanf+0x1580>
  40a980:	22 00 00 00 00 01 0a 1d 	lbu $10,256($29)
  40a988:	42 00 00 00 00 02 0a 00 	addu $2,$0,$10
  40a990:	05 00 00 00 18 00 00 02 	beq $2,$0,40a9f8 <__vfscanf+0x14a8>
  40a998:	28 00 00 00 e0 00 0a 1d 	lw $10,224($29)
  40a9a0:	43 00 00 00 03 00 04 0a 	addiu $4,$10,3
  40a9a8:	43 00 00 00 fc ff 02 00 	addiu $2,$0,-4
  40a9b0:	4e 00 00 00 00 04 02 04 	and $4,$4,$2
  40a9b8:	28 00 00 00 20 01 02 1d 	lw $2,288($29)
  40a9c0:	43 00 00 00 04 00 0a 04 	addiu $10,$4,4
  40a9c8:	34 00 00 00 e0 00 0a 1d 	sw $10,224($29)
  40a9d0:	28 00 00 00 00 00 04 04 	lw $4,0($4)
  40a9d8:	42 00 00 00 00 03 00 00 	addu $3,$0,$0
  40a9e0:	34 00 00 00 00 00 02 04 	sw $2,0($4)
  40a9e8:	34 00 00 00 04 00 03 04 	sw $3,4($4)
  40a9f0:	01 00 00 00 38 28 10 00 	j 40a0e0 <__vfscanf+0xb90>
  40a9f8:	22 00 00 00 f8 00 0a 1d 	lbu $10,248($29)
  40aa00:	42 00 00 00 00 02 0a 00 	addu $2,$0,$10
  40aa08:	05 00 00 00 0e 00 00 02 	beq $2,$0,40aa48 <__vfscanf+0x14f8>
  40aa10:	28 00 00 00 e0 00 0a 1d 	lw $10,224($29)
  40aa18:	43 00 00 00 03 00 02 0a 	addiu $2,$10,3
  40aa20:	43 00 00 00 fc ff 03 00 	addiu $3,$0,-4
  40aa28:	4e 00 00 00 00 02 03 02 	and $2,$2,$3
  40aa30:	28 00 00 00 00 00 03 02 	lw $3,0($2)
  40aa38:	28 00 00 00 20 01 0a 1d 	lw $10,288($29)
  40aa40:	01 00 00 00 06 2b 10 00 	j 40ac18 <__vfscanf+0x16c8>
  40aa48:	22 00 00 00 f0 00 0a 1d 	lbu $10,240($29)
  40aa50:	42 00 00 00 00 02 0a 00 	addu $2,$0,$10
  40aa58:	05 00 00 00 0e 00 00 02 	beq $2,$0,40aa98 <__vfscanf+0x1548>
  40aa60:	28 00 00 00 e0 00 0a 1d 	lw $10,224($29)
  40aa68:	43 00 00 00 03 00 02 0a 	addiu $2,$10,3
  40aa70:	43 00 00 00 fc ff 03 00 	addiu $3,$0,-4
  40aa78:	4e 00 00 00 00 02 03 02 	and $2,$2,$3
  40aa80:	28 00 00 00 00 00 03 02 	lw $3,0($2)
  40aa88:	26 00 00 00 20 01 0a 1d 	lhu $10,288($29)
  40aa90:	01 00 00 00 f2 2a 10 00 	j 40abc8 <__vfscanf+0x1678>
  40aa98:	28 00 00 00 e0 00 0a 1d 	lw $10,224($29)
  40aaa0:	43 00 00 00 fc ff 03 00 	addiu $3,$0,-4
  40aaa8:	43 00 00 00 03 00 02 0a 	addiu $2,$10,3
  40aab0:	4e 00 00 00 00 02 03 02 	and $2,$2,$3
  40aab8:	28 00 00 00 00 00 03 02 	lw $3,0($2)
  40aac0:	28 00 00 00 20 01 0a 1d 	lw $10,288($29)
  40aac8:	01 00 00 00 06 2b 10 00 	j 40ac18 <__vfscanf+0x16c8>
  40aad0:	22 00 00 00 00 01 0a 1d 	lbu $10,256($29)
  40aad8:	42 00 00 00 00 02 0a 00 	addu $2,$0,$10
  40aae0:	05 00 00 00 18 00 00 02 	beq $2,$0,40ab48 <__vfscanf+0x15f8>
  40aae8:	28 00 00 00 e0 00 0a 1d 	lw $10,224($29)
  40aaf0:	43 00 00 00 fc ff 02 00 	addiu $2,$0,-4
  40aaf8:	43 00 00 00 03 00 04 0a 	addiu $4,$10,3
  40ab00:	4e 00 00 00 00 04 02 04 	and $4,$4,$2
  40ab08:	28 00 00 00 18 01 02 1d 	lw $2,280($29)
  40ab10:	43 00 00 00 04 00 0a 04 	addiu $10,$4,4
  40ab18:	34 00 00 00 e0 00 0a 1d 	sw $10,224($29)
  40ab20:	28 00 00 00 00 00 04 04 	lw $4,0($4)
  40ab28:	59 00 00 00 1f 03 02 00 	sra $3,$2,0x1f
  40ab30:	34 00 00 00 00 00 02 04 	sw $2,0($4)
  40ab38:	34 00 00 00 04 00 03 04 	sw $3,4($4)
  40ab40:	01 00 00 00 38 28 10 00 	j 40a0e0 <__vfscanf+0xb90>
  40ab48:	22 00 00 00 f8 00 0a 1d 	lbu $10,248($29)
  40ab50:	42 00 00 00 00 02 0a 00 	addu $2,$0,$10
  40ab58:	05 00 00 00 08 00 00 02 	beq $2,$0,40ab80 <__vfscanf+0x1630>
  40ab60:	28 00 00 00 e0 00 0a 1d 	lw $10,224($29)
  40ab68:	43 00 00 00 03 00 02 0a 	addiu $2,$10,3
  40ab70:	43 00 00 00 fc ff 03 00 	addiu $3,$0,-4
  40ab78:	01 00 00 00 00 2b 10 00 	j 40ac00 <__vfscanf+0x16b0>
  40ab80:	22 00 00 00 f0 00 0a 1d 	lbu $10,240($29)
  40ab88:	42 00 00 00 00 02 0a 00 	addu $2,$0,$10
  40ab90:	05 00 00 00 14 00 00 02 	beq $2,$0,40abe8 <__vfscanf+0x1698>
  40ab98:	28 00 00 00 e0 00 0a 1d 	lw $10,224($29)
  40aba0:	43 00 00 00 03 00 02 0a 	addiu $2,$10,3
  40aba8:	43 00 00 00 fc ff 03 00 	addiu $3,$0,-4
  40abb0:	4e 00 00 00 00 02 03 02 	and $2,$2,$3
  40abb8:	28 00 00 00 00 00 03 02 	lw $3,0($2)
  40abc0:	26 00 00 00 18 01 0a 1d 	lhu $10,280($29)
  40abc8:	43 00 00 00 04 00 02 02 	addiu $2,$2,4
  40abd0:	34 00 00 00 e0 00 02 1d 	sw $2,224($29)
  40abd8:	32 00 00 00 00 00 0a 03 	sh $10,0($3)
  40abe0:	01 00 00 00 38 28 10 00 	j 40a0e0 <__vfscanf+0xb90>
  40abe8:	28 00 00 00 e0 00 0a 1d 	lw $10,224($29)
  40abf0:	43 00 00 00 fc ff 03 00 	addiu $3,$0,-4
  40abf8:	43 00 00 00 03 00 02 0a 	addiu $2,$10,3
  40ac00:	4e 00 00 00 00 02 03 02 	and $2,$2,$3
  40ac08:	28 00 00 00 00 00 03 02 	lw $3,0($2)
  40ac10:	28 00 00 00 18 01 0a 1d 	lw $10,280($29)
  40ac18:	43 00 00 00 04 00 02 02 	addiu $2,$2,4
  40ac20:	34 00 00 00 e0 00 02 1d 	sw $2,224($29)
  40ac28:	34 00 00 00 00 00 0a 03 	sw $10,0($3)
  40ac30:	01 00 00 00 38 28 10 00 	j 40a0e0 <__vfscanf+0xb90>
  40ac38:	43 00 00 00 ff ff 0a 00 	addiu $10,$0,-1
  40ac40:	05 00 00 00 e6 fa 0a 11 	beq $17,$10,4097e0 <__vfscanf+0x290>
  40ac48:	43 00 00 00 2d 00 02 00 	addiu $2,$0,45
  40ac50:	05 00 00 00 04 00 02 11 	beq $17,$2,40ac68 <__vfscanf+0x1718>
  40ac58:	43 00 00 00 2b 00 02 00 	addiu $2,$0,43
  40ac60:	06 00 00 00 28 00 02 11 	bne $17,$2,40ad08 <__vfscanf+0x17b8>
  40ac68:	28 00 00 00 dc 00 03 1d 	lw $3,220($29)
  40ac70:	43 00 00 00 01 00 02 03 	addiu $2,$3,1
  40ac78:	34 00 00 00 dc 00 02 1d 	sw $2,220($29)
  40ac80:	30 00 00 00 00 00 11 03 	sb $17,0($3)
  40ac88:	28 00 00 00 04 00 03 12 	lw $3,4($18)
  40ac90:	28 00 00 00 08 00 02 12 	lw $2,8($18)
  40ac98:	5d 00 00 00 00 02 02 03 	sltu $2,$3,$2
  40aca0:	05 00 00 00 08 00 00 02 	beq $2,$0,40acc8 <__vfscanf+0x1778>
  40aca8:	43 00 00 00 01 00 02 03 	addiu $2,$3,1
  40acb0:	34 00 00 00 04 00 02 12 	sw $2,4($18)
  40acb8:	22 00 00 00 00 00 11 03 	lbu $17,0($3)
  40acc0:	01 00 00 00 38 2b 10 00 	j 40ace0 <__vfscanf+0x1790>
  40acc8:	42 00 00 00 00 04 12 00 	addu $4,$0,$18
  40acd0:	02 00 00 00 d2 10 10 00 	jal 404348 <__fillbf>
  40acd8:	42 00 00 00 00 11 02 00 	addu $17,$0,$2
  40ace0:	43 00 00 00 ff ff 0a 00 	addiu $10,$0,-1
  40ace8:	05 00 00 00 5a 02 0a 11 	beq $17,$10,40b658 <__vfscanf+0x2108>
  40acf0:	43 00 00 00 01 00 17 17 	addiu $23,$23,1
  40acf8:	07 00 00 00 02 00 00 13 	blez $19,40ad08 <__vfscanf+0x17b8>
  40ad00:	43 00 00 00 ff ff 13 13 	addiu $19,$19,-1
  40ad08:	42 00 00 00 00 1e 00 00 	addu $30,$0,$0
  40ad10:	42 00 00 00 00 10 00 00 	addu $16,$0,$0
  40ad18:	43 00 00 00 65 00 05 00 	addiu $5,$0,101
  40ad20:	28 00 00 00 20 81 02 1c 	lw $2,-32480($28)
  40ad28:	55 00 00 00 01 03 11 00 	sll $3,$17,0x1
  40ad30:	42 00 00 00 00 03 02 03 	addu $3,$3,$2
  40ad38:	26 00 00 00 00 00 02 03 	lhu $2,0($3)
  40ad40:	4f 00 00 00 08 00 02 02 	andi $2,$2,8
  40ad48:	05 00 00 00 04 00 00 02 	beq $2,$0,40ad60 <__vfscanf+0x1810>
  40ad50:	28 00 00 00 dc 00 03 1d 	lw $3,220($29)
  40ad58:	01 00 00 00 92 2b 10 00 	j 40ae48 <__vfscanf+0x18f8>
  40ad60:	42 00 00 00 00 02 1e 00 	addu $2,$0,$30
  40ad68:	05 00 00 00 12 00 00 02 	beq $2,$0,40adb8 <__vfscanf+0x1868>
  40ad70:	28 00 00 00 dc 00 03 1d 	lw $3,220($29)
  40ad78:	20 00 00 00 ff ff 02 03 	lb $2,-1($3)
  40ad80:	06 00 00 00 08 00 05 02 	bne $2,$5,40ada8 <__vfscanf+0x1858>
  40ad88:	43 00 00 00 2d 00 02 00 	addiu $2,$0,45
  40ad90:	05 00 00 00 2c 00 02 11 	beq $17,$2,40ae48 <__vfscanf+0x18f8>
  40ad98:	43 00 00 00 2b 00 02 00 	addiu $2,$0,43
  40ada0:	05 00 00 00 28 00 02 11 	beq $17,$2,40ae48 <__vfscanf+0x18f8>
  40ada8:	42 00 00 00 00 02 1e 00 	addu $2,$0,$30
  40adb0:	06 00 00 00 18 00 00 02 	bne $2,$0,40ae18 <__vfscanf+0x18c8>
  40adb8:	28 00 00 00 24 81 02 1c 	lw $2,-32476($28)
  40adc0:	55 00 00 00 01 03 11 00 	sll $3,$17,0x1
  40adc8:	42 00 00 00 00 03 02 03 	addu $3,$3,$2
  40add0:	24 00 00 00 00 00 02 03 	lh $2,0($3)
  40add8:	06 00 00 00 0e 00 05 02 	bne $2,$5,40ae18 <__vfscanf+0x18c8>
  40ade0:	28 00 00 00 dc 00 03 1d 	lw $3,220($29)
  40ade8:	43 00 00 00 01 00 10 00 	addiu $16,$0,1
  40adf0:	43 00 00 00 01 00 1e 00 	addiu $30,$0,1
  40adf8:	43 00 00 00 01 00 02 03 	addiu $2,$3,1
  40ae00:	34 00 00 00 dc 00 02 1d 	sw $2,220($29)
  40ae08:	30 00 00 00 00 00 05 03 	sb $5,0($3)
  40ae10:	01 00 00 00 98 2b 10 00 	j 40ae60 <__vfscanf+0x1910>
  40ae18:	28 00 00 00 d8 00 02 1d 	lw $2,216($29)
  40ae20:	06 00 00 00 34 00 02 11 	bne $17,$2,40aef8 <__vfscanf+0x19a8>
  40ae28:	42 00 00 00 00 02 10 00 	addu $2,$0,$16
  40ae30:	06 00 00 00 30 00 00 02 	bne $2,$0,40aef8 <__vfscanf+0x19a8>
  40ae38:	28 00 00 00 dc 00 03 1d 	lw $3,220($29)
  40ae40:	43 00 00 00 01 00 10 00 	addiu $16,$0,1
  40ae48:	43 00 00 00 01 00 02 03 	addiu $2,$3,1
  40ae50:	34 00 00 00 dc 00 02 1d 	sw $2,220($29)
  40ae58:	30 00 00 00 00 00 11 03 	sb $17,0($3)
  40ae60:	07 00 00 00 02 00 00 13 	blez $19,40ae70 <__vfscanf+0x1920>
  40ae68:	43 00 00 00 ff ff 13 13 	addiu $19,$19,-1
  40ae70:	28 00 00 00 04 00 03 12 	lw $3,4($18)
  40ae78:	28 00 00 00 08 00 02 12 	lw $2,8($18)
  40ae80:	5d 00 00 00 00 02 02 03 	sltu $2,$3,$2
  40ae88:	05 00 00 00 08 00 00 02 	beq $2,$0,40aeb0 <__vfscanf+0x1960>
  40ae90:	43 00 00 00 01 00 02 03 	addiu $2,$3,1
  40ae98:	34 00 00 00 04 00 02 12 	sw $2,4($18)
  40aea0:	22 00 00 00 00 00 11 03 	lbu $17,0($3)
  40aea8:	01 00 00 00 b6 2b 10 00 	j 40aed8 <__vfscanf+0x1988>
  40aeb0:	42 00 00 00 00 04 12 00 	addu $4,$0,$18
  40aeb8:	34 00 00 00 60 01 05 1d 	sw $5,352($29)
  40aec0:	02 00 00 00 d2 10 10 00 	jal 404348 <__fillbf>
  40aec8:	42 00 00 00 00 11 02 00 	addu $17,$0,$2
  40aed0:	28 00 00 00 60 01 05 1d 	lw $5,352($29)
  40aed8:	43 00 00 00 ff ff 0a 00 	addiu $10,$0,-1
  40aee0:	05 00 00 00 04 00 0a 11 	beq $17,$10,40aef8 <__vfscanf+0x19a8>
  40aee8:	43 00 00 00 01 00 17 17 	addiu $23,$23,1
  40aef0:	06 00 00 00 8a ff 00 13 	bne $19,$0,40ad20 <__vfscanf+0x17d0>
  40aef8:	28 00 00 00 dc 00 06 1d 	lw $6,220($29)
  40af00:	43 00 00 00 10 00 10 1d 	addiu $16,$29,16
  40af08:	06 00 00 00 06 00 10 06 	bne $6,$16,40af28 <__vfscanf+0x19d8>
  40af10:	43 00 00 00 ff ff 0a 00 	addiu $10,$0,-1
  40af18:	05 00 00 00 ce 01 0a 11 	beq $17,$10,40b658 <__vfscanf+0x2108>
  40af20:	01 00 00 00 90 2d 10 00 	j 40b640 <__vfscanf+0x20f0>
  40af28:	20 00 00 00 ff ff 03 06 	lb $3,-1($6)
  40af30:	43 00 00 00 2d 00 02 00 	addiu $2,$0,45
  40af38:	05 00 00 00 08 00 02 03 	beq $3,$2,40af60 <__vfscanf+0x1a10>
  40af40:	43 00 00 00 2b 00 02 00 	addiu $2,$0,43
  40af48:	05 00 00 00 04 00 02 03 	beq $3,$2,40af60 <__vfscanf+0x1a10>
  40af50:	43 00 00 00 65 00 02 00 	addiu $2,$0,101
  40af58:	06 00 00 00 06 00 02 03 	bne $3,$2,40af78 <__vfscanf+0x1a28>
  40af60:	43 00 00 00 ff ff 0a 00 	addiu $10,$0,-1
  40af68:	05 00 00 00 ba 01 0a 11 	beq $17,$10,40b658 <__vfscanf+0x2108>
  40af70:	01 00 00 00 90 2d 10 00 	j 40b640 <__vfscanf+0x20f0>
  40af78:	42 00 00 00 00 04 10 00 	addu $4,$0,$16
  40af80:	43 00 00 00 dc 00 05 1d 	addiu $5,$29,220
  40af88:	30 00 00 00 00 00 00 06 	sb $0,0($6)
  40af90:	02 00 00 00 30 4b 10 00 	jal 412cc0 <strtod>
  40af98:	28 00 00 00 dc 00 02 1d 	lw $2,220($29)
  40afa0:	06 00 00 00 06 00 10 02 	bne $2,$16,40afc0 <__vfscanf+0x1a70>
  40afa8:	43 00 00 00 ff ff 0a 00 	addiu $10,$0,-1
  40afb0:	05 00 00 00 a8 01 0a 11 	beq $17,$10,40b658 <__vfscanf+0x2108>
  40afb8:	01 00 00 00 90 2d 10 00 	j 40b640 <__vfscanf+0x20f0>
  40afc0:	28 00 00 00 e8 00 0a 1d 	lw $10,232($29)
  40afc8:	05 00 00 00 92 01 00 0a 	beq $10,$0,40b618 <__vfscanf+0x20c8>
  40afd0:	22 00 00 00 00 01 0a 1d 	lbu $10,256($29)
  40afd8:	42 00 00 00 00 02 0a 00 	addu $2,$0,$10
  40afe0:	06 00 00 00 06 00 00 02 	bne $2,$0,40b000 <__vfscanf+0x1ab0>
  40afe8:	22 00 00 00 f8 00 0a 1d 	lbu $10,248($29)
  40aff0:	42 00 00 00 00 02 0a 00 	addu $2,$0,$10
  40aff8:	05 00 00 00 14 00 00 02 	beq $2,$0,40b050 <__vfscanf+0x1b00>
  40b000:	28 00 00 00 e0 00 0a 1d 	lw $10,224($29)
  40b008:	43 00 00 00 03 00 02 0a 	addiu $2,$10,3
  40b010:	43 00 00 00 fc ff 03 00 	addiu $3,$0,-4
  40b018:	4e 00 00 00 00 02 03 02 	and $2,$2,$3
  40b020:	28 00 00 00 00 00 03 02 	lw $3,0($2)
  40b028:	43 00 00 00 04 00 02 02 	addiu $2,$2,4
  40b030:	34 00 00 00 e0 00 02 1d 	sw $2,224($29)
  40b038:	36 00 00 00 00 00 00 03 	s.s $f0,0($3)
  40b040:	36 00 00 00 04 00 01 03 	s.s $f1,4($3)
  40b048:	01 00 00 00 38 28 10 00 	j 40a0e0 <__vfscanf+0xb90>
  40b050:	28 00 00 00 e0 00 0a 1d 	lw $10,224($29)
  40b058:	43 00 00 00 fc ff 02 00 	addiu $2,$0,-4
  40b060:	43 00 00 00 03 00 03 0a 	addiu $3,$10,3
  40b068:	4e 00 00 00 00 03 02 03 	and $3,$3,$2
  40b070:	28 00 00 00 00 00 02 03 	lw $2,0($3)
  40b078:	80 00 00 00 00 00 00 00 	cvt.s.d $f0,$f0
  40b080:	43 00 00 00 04 00 03 03 	addiu $3,$3,4
  40b088:	34 00 00 00 e0 00 03 1d 	sw $3,224($29)
  40b090:	36 00 00 00 00 00 00 02 	s.s $f0,0($2)
  40b098:	01 00 00 00 38 28 10 00 	j 40a0e0 <__vfscanf+0xb90>
  40b0a0:	28 00 00 00 e8 00 0a 1d 	lw $10,232($29)
  40b0a8:	05 00 00 00 42 00 00 0a 	beq $10,$0,40b1b8 <__vfscanf+0x1c68>
  40b0b0:	28 00 00 00 08 01 0a 1d 	lw $10,264($29)
  40b0b8:	05 00 00 00 28 00 00 0a 	beq $10,$0,40b160 <__vfscanf+0x1c10>
  40b0c0:	28 00 00 00 e0 00 0a 1d 	lw $10,224($29)
  40b0c8:	43 00 00 00 03 00 03 0a 	addiu $3,$10,3
  40b0d0:	43 00 00 00 fc ff 02 00 	addiu $2,$0,-4
  40b0d8:	4e 00 00 00 00 03 02 03 	and $3,$3,$2
  40b0e0:	28 00 00 00 00 00 0a 03 	lw $10,0($3)
  40b0e8:	43 00 00 00 04 00 03 03 	addiu $3,$3,4
  40b0f0:	34 00 00 00 28 01 0a 1d 	sw $10,296($29)
  40b0f8:	34 00 00 00 e0 00 03 1d 	sw $3,224($29)
  40b100:	06 00 00 00 06 00 00 0a 	bne $10,$0,40b120 <__vfscanf+0x1bd0>
  40b108:	43 00 00 00 ff ff 0a 00 	addiu $10,$0,-1
  40b110:	05 00 00 00 50 01 0a 11 	beq $17,$10,40b658 <__vfscanf+0x2108>
  40b118:	01 00 00 00 90 2d 10 00 	j 40b640 <__vfscanf+0x20f0>
  40b120:	43 00 00 00 64 00 0a 00 	addiu $10,$0,100
  40b128:	43 00 00 00 64 00 04 00 	addiu $4,$0,100
  40b130:	34 00 00 00 30 01 0a 1d 	sw $10,304($29)
  40b138:	02 00 00 00 96 22 10 00 	jal 408a58 <malloc>
  40b140:	28 00 00 00 28 01 0a 1d 	lw $10,296($29)
  40b148:	42 00 00 00 00 14 02 00 	addu $20,$0,$2
  40b150:	34 00 00 00 00 00 14 0a 	sw $20,0($10)
  40b158:	01 00 00 00 66 2c 10 00 	j 40b198 <__vfscanf+0x1c48>
  40b160:	28 00 00 00 e0 00 0a 1d 	lw $10,224($29)
  40b168:	43 00 00 00 fc ff 02 00 	addiu $2,$0,-4
  40b170:	43 00 00 00 03 00 03 0a 	addiu $3,$10,3
  40b178:	4e 00 00 00 00 03 02 03 	and $3,$3,$2
  40b180:	43 00 00 00 04 00 0a 03 	addiu $10,$3,4
  40b188:	34 00 00 00 e0 00 0a 1d 	sw $10,224($29)
  40b190:	28 00 00 00 00 00 14 03 	lw $20,0($3)
  40b198:	06 00 00 00 06 00 00 14 	bne $20,$0,40b1b8 <__vfscanf+0x1c68>
  40b1a0:	43 00 00 00 ff ff 0a 00 	addiu $10,$0,-1
  40b1a8:	05 00 00 00 2a 01 0a 11 	beq $17,$10,40b658 <__vfscanf+0x2108>
  40b1b0:	01 00 00 00 90 2d 10 00 	j 40b640 <__vfscanf+0x20f0>
  40b1b8:	43 00 00 00 ff ff 0a 00 	addiu $10,$0,-1
  40b1c0:	05 00 00 00 86 f9 0a 11 	beq $17,$10,4097e0 <__vfscanf+0x290>
  40b1c8:	20 00 00 00 00 00 03 16 	lb $3,0($22)
  40b1d0:	43 00 00 00 5e 00 02 00 	addiu $2,$0,94
  40b1d8:	06 00 00 00 06 00 02 03 	bne $3,$2,40b1f8 <__vfscanf+0x1ca8>
  40b1e0:	43 00 00 00 01 00 16 16 	addiu $22,$22,1
  40b1e8:	43 00 00 00 01 00 07 00 	addiu $7,$0,1
  40b1f0:	01 00 00 00 80 2c 10 00 	j 40b200 <__vfscanf+0x1cb0>
  40b1f8:	42 00 00 00 00 07 00 00 	addu $7,$0,$0
  40b200:	22 00 00 00 00 00 10 16 	lbu $16,0($22)
  40b208:	55 00 00 00 18 02 10 00 	sll $2,$16,0x18
  40b210:	43 00 00 00 01 00 16 16 	addiu $22,$22,1
  40b218:	05 00 00 00 54 00 00 02 	beq $2,$0,40b370 <__vfscanf+0x1e20>
  40b220:	43 00 00 00 5d 00 05 00 	addiu $5,$0,93
  40b228:	43 00 00 00 2d 00 08 00 	addiu $8,$0,45
  40b230:	43 00 00 00 10 00 06 1d 	addiu $6,$29,16
  40b238:	59 00 00 00 18 02 02 00 	sra $2,$2,0x18
  40b240:	05 00 00 00 4a 00 05 02 	beq $2,$5,40b370 <__vfscanf+0x1e20>
  40b248:	06 00 00 00 38 00 08 02 	bne $2,$8,40b330 <__vfscanf+0x1de0>
  40b250:	20 00 00 00 00 00 04 16 	lb $4,0($22)
  40b258:	05 00 00 00 34 00 00 04 	beq $4,$0,40b330 <__vfscanf+0x1de0>
  40b260:	05 00 00 00 32 00 05 04 	beq $4,$5,40b330 <__vfscanf+0x1de0>
  40b268:	28 00 00 00 dc 00 03 1d 	lw $3,220($29)
  40b270:	5d 00 00 00 00 02 03 06 	sltu $2,$6,$3
  40b278:	05 00 00 00 2c 00 00 02 	beq $2,$0,40b330 <__vfscanf+0x1de0>
  40b280:	20 00 00 00 ff ff 02 03 	lb $2,-1($3)
  40b288:	42 00 00 00 00 03 02 00 	addu $3,$0,$2
  40b290:	5b 00 00 00 00 02 02 04 	slt $2,$4,$2
  40b298:	06 00 00 00 24 00 00 02 	bne $2,$0,40b330 <__vfscanf+0x1de0>
  40b2a0:	43 00 00 00 01 00 02 03 	addiu $2,$3,1
  40b2a8:	42 00 00 00 00 10 02 00 	addu $16,$0,$2
  40b2b0:	55 00 00 00 18 02 02 00 	sll $2,$2,0x18
  40b2b8:	59 00 00 00 18 02 02 00 	sra $2,$2,0x18
  40b2c0:	5b 00 00 00 00 02 04 02 	slt $2,$2,$4
  40b2c8:	05 00 00 00 20 00 00 02 	beq $2,$0,40b350 <__vfscanf+0x1e00>
  40b2d0:	28 00 00 00 dc 00 03 1d 	lw $3,220($29)
  40b2d8:	43 00 00 00 01 00 02 03 	addiu $2,$3,1
  40b2e0:	34 00 00 00 dc 00 02 1d 	sw $2,220($29)
  40b2e8:	43 00 00 00 01 00 02 10 	addiu $2,$16,1
  40b2f0:	30 00 00 00 00 00 10 03 	sb $16,0($3)
  40b2f8:	42 00 00 00 00 10 02 00 	addu $16,$0,$2
  40b300:	20 00 00 00 00 00 03 16 	lb $3,0($22)
  40b308:	55 00 00 00 18 02 02 00 	sll $2,$2,0x18
  40b310:	59 00 00 00 18 02 02 00 	sra $2,$2,0x18
  40b318:	5b 00 00 00 00 02 03 02 	slt $2,$2,$3
  40b320:	06 00 00 00 ea ff 00 02 	bne $2,$0,40b2d0 <__vfscanf+0x1d80>
  40b328:	01 00 00 00 d4 2c 10 00 	j 40b350 <__vfscanf+0x1e00>
  40b330:	28 00 00 00 dc 00 03 1d 	lw $3,220($29)
  40b338:	43 00 00 00 01 00 02 03 	addiu $2,$3,1
  40b340:	34 00 00 00 dc 00 02 1d 	sw $2,220($29)
  40b348:	30 00 00 00 00 00 10 03 	sb $16,0($3)
  40b350:	22 00 00 00 00 00 10 16 	lbu $16,0($22)
  40b358:	55 00 00 00 18 02 10 00 	sll $2,$16,0x18
  40b360:	43 00 00 00 01 00 16 16 	addiu $22,$22,1
  40b368:	06 00 00 00 b2 ff 00 02 	bne $2,$0,40b238 <__vfscanf+0x1ce8>
  40b370:	55 00 00 00 18 02 10 00 	sll $2,$16,0x18
  40b378:	06 00 00 00 06 00 00 02 	bne $2,$0,40b398 <__vfscanf+0x1e48>
  40b380:	43 00 00 00 ff ff 0a 00 	addiu $10,$0,-1
  40b388:	05 00 00 00 b2 00 0a 11 	beq $17,$10,40b658 <__vfscanf+0x2108>
  40b390:	01 00 00 00 90 2d 10 00 	j 40b640 <__vfscanf+0x20f0>
  40b398:	28 00 00 00 dc 00 02 1d 	lw $2,220($29)
  40b3a0:	42 00 00 00 00 1e 07 00 	addu $30,$0,$7
  40b3a8:	34 00 00 00 20 01 17 1d 	sw $23,288($29)
  40b3b0:	30 00 00 00 00 00 00 02 	sb $0,0($2)
  40b3b8:	43 00 00 00 10 00 04 1d 	addiu $4,$29,16
  40b3c0:	42 00 00 00 00 05 11 00 	addu $5,$0,$17
  40b3c8:	02 00 00 00 3c 31 10 00 	jal 40c4f0 <strchr>
  40b3d0:	06 00 00 00 06 00 00 02 	bne $2,$0,40b3f0 <__vfscanf+0x1ea0>
  40b3d8:	43 00 00 00 01 00 02 00 	addiu $2,$0,1
  40b3e0:	06 00 00 00 72 00 02 1e 	bne $30,$2,40b5b0 <__vfscanf+0x2060>
  40b3e8:	01 00 00 00 fe 2c 10 00 	j 40b3f8 <__vfscanf+0x1ea8>
  40b3f0:	06 00 00 00 6e 00 00 1e 	bne $30,$0,40b5b0 <__vfscanf+0x2060>
  40b3f8:	28 00 00 00 e8 00 0a 1d 	lw $10,232($29)
  40b400:	05 00 00 00 48 00 00 0a 	beq $10,$0,40b528 <__vfscanf+0x1fd8>
  40b408:	30 00 00 00 00 00 11 14 	sb $17,0($20)
  40b410:	28 00 00 00 08 01 0a 1d 	lw $10,264($29)
  40b418:	43 00 00 00 01 00 14 14 	addiu $20,$20,1
  40b420:	05 00 00 00 40 00 00 0a 	beq $10,$0,40b528 <__vfscanf+0x1fd8>
  40b428:	28 00 00 00 28 01 0a 1d 	lw $10,296($29)
  40b430:	28 00 00 00 00 00 04 0a 	lw $4,0($10)
  40b438:	28 00 00 00 30 01 0a 1d 	lw $10,304($29)
  40b440:	42 00 00 00 00 02 04 0a 	addu $2,$10,$4
  40b448:	06 00 00 00 36 00 02 14 	bne $20,$2,40b528 <__vfscanf+0x1fd8>
  40b450:	55 00 00 00 01 10 0a 00 	sll $16,$10,0x1
  40b458:	42 00 00 00 00 05 10 00 	addu $5,$0,$16
  40b460:	02 00 00 00 04 48 10 00 	jal 412010 <realloc>
  40b468:	42 00 00 00 00 14 02 00 	addu $20,$0,$2
  40b470:	06 00 00 00 22 00 00 14 	bne $20,$0,40b500 <__vfscanf+0x1fb0>
  40b478:	28 00 00 00 28 01 0a 1d 	lw $10,296($29)
  40b480:	28 00 00 00 00 00 04 0a 	lw $4,0($10)
  40b488:	28 00 00 00 30 01 0a 1d 	lw $10,304($29)
  40b490:	43 00 00 00 01 00 10 0a 	addiu $16,$10,1
  40b498:	42 00 00 00 00 05 10 00 	addu $5,$0,$16
  40b4a0:	02 00 00 00 04 48 10 00 	jal 412010 <realloc>
  40b4a8:	42 00 00 00 00 14 02 00 	addu $20,$0,$2
  40b4b0:	06 00 00 00 12 00 00 14 	bne $20,$0,40b500 <__vfscanf+0x1fb0>
  40b4b8:	28 00 00 00 28 01 0a 1d 	lw $10,296($29)
  40b4c0:	28 00 00 00 00 00 02 0a 	lw $2,0($10)
  40b4c8:	28 00 00 00 30 01 0a 1d 	lw $10,304($29)
  40b4d0:	43 00 00 00 01 00 15 15 	addiu $21,$21,1
  40b4d8:	42 00 00 00 00 02 0a 02 	addu $2,$2,$10
  40b4e0:	43 00 00 00 ff ff 0a 00 	addiu $10,$0,-1
  40b4e8:	30 00 00 00 00 00 00 02 	sb $0,0($2)
  40b4f0:	05 00 00 00 58 00 0a 11 	beq $17,$10,40b658 <__vfscanf+0x2108>
  40b4f8:	01 00 00 00 90 2d 10 00 	j 40b640 <__vfscanf+0x20f0>
  40b500:	28 00 00 00 28 01 0a 1d 	lw $10,296($29)
  40b508:	34 00 00 00 00 00 14 0a 	sw $20,0($10)
  40b510:	28 00 00 00 30 01 0a 1d 	lw $10,304($29)
  40b518:	42 00 00 00 00 14 0a 14 	addu $20,$20,$10
  40b520:	34 00 00 00 30 01 10 1d 	sw $16,304($29)
  40b528:	07 00 00 00 02 00 00 13 	blez $19,40b538 <__vfscanf+0x1fe8>
  40b530:	43 00 00 00 ff ff 13 13 	addiu $19,$19,-1
  40b538:	28 00 00 00 04 00 03 12 	lw $3,4($18)
  40b540:	28 00 00 00 08 00 02 12 	lw $2,8($18)
  40b548:	5d 00 00 00 00 02 02 03 	sltu $2,$3,$2
  40b550:	05 00 00 00 08 00 00 02 	beq $2,$0,40b578 <__vfscanf+0x2028>
  40b558:	43 00 00 00 01 00 02 03 	addiu $2,$3,1
  40b560:	34 00 00 00 04 00 02 12 	sw $2,4($18)
  40b568:	22 00 00 00 00 00 11 03 	lbu $17,0($3)
  40b570:	01 00 00 00 64 2d 10 00 	j 40b590 <__vfscanf+0x2040>
  40b578:	42 00 00 00 00 04 12 00 	addu $4,$0,$18
  40b580:	02 00 00 00 d2 10 10 00 	jal 404348 <__fillbf>
  40b588:	42 00 00 00 00 11 02 00 	addu $17,$0,$2
  40b590:	43 00 00 00 ff ff 0a 00 	addiu $10,$0,-1
  40b598:	05 00 00 00 04 00 0a 11 	beq $17,$10,40b5b0 <__vfscanf+0x2060>
  40b5a0:	43 00 00 00 01 00 17 17 	addiu $23,$23,1
  40b5a8:	06 00 00 00 82 ff 00 13 	bne $19,$0,40b3b8 <__vfscanf+0x1e68>
  40b5b0:	28 00 00 00 20 01 0a 1d 	lw $10,288($29)
  40b5b8:	06 00 00 00 06 00 0a 17 	bne $23,$10,40b5d8 <__vfscanf+0x2088>
  40b5c0:	43 00 00 00 ff ff 0a 00 	addiu $10,$0,-1
  40b5c8:	05 00 00 00 22 00 0a 11 	beq $17,$10,40b658 <__vfscanf+0x2108>
  40b5d0:	01 00 00 00 90 2d 10 00 	j 40b640 <__vfscanf+0x20f0>
  40b5d8:	28 00 00 00 e8 00 0a 1d 	lw $10,232($29)
  40b5e0:	05 00 00 00 0c 00 00 0a 	beq $10,$0,40b618 <__vfscanf+0x20c8>
  40b5e8:	30 00 00 00 00 00 00 14 	sb $0,0($20)
  40b5f0:	01 00 00 00 38 28 10 00 	j 40a0e0 <__vfscanf+0xb90>
  40b5f8:	43 00 00 00 10 00 10 00 	addiu $16,$0,16
  40b600:	43 00 00 00 01 00 0a 00 	addiu $10,$0,1
  40b608:	30 00 00 00 f8 00 0a 1d 	sb $10,248($29)
  40b610:	01 00 00 00 20 29 10 00 	j 40a480 <__vfscanf+0xf30>
  40b618:	20 00 00 00 00 00 02 16 	lb $2,0($22)
  40b620:	22 00 00 00 00 00 06 16 	lbu $6,0($22)
  40b628:	06 00 00 00 52 f8 00 02 	bne $2,$0,409778 <__vfscanf+0x228>
  40b630:	43 00 00 00 ff ff 02 00 	addiu $2,$0,-1
  40b638:	05 00 00 00 06 00 02 11 	beq $17,$2,40b658 <__vfscanf+0x2108>
  40b640:	42 00 00 00 00 04 11 00 	addu $4,$0,$17
  40b648:	42 00 00 00 00 05 12 00 	addu $5,$0,$18
  40b650:	02 00 00 00 ac 4c 10 00 	jal 4132b0 <ungetc>
  40b658:	42 00 00 00 00 02 15 00 	addu $2,$0,$21
  40b660:	28 00 00 00 8c 01 1f 1d 	lw $31,396($29)
  40b668:	28 00 00 00 88 01 1e 1d 	lw $30,392($29)
  40b670:	28 00 00 00 84 01 17 1d 	lw $23,388($29)
  40b678:	28 00 00 00 80 01 16 1d 	lw $22,384($29)
  40b680:	28 00 00 00 7c 01 15 1d 	lw $21,380($29)
  40b688:	28 00 00 00 78 01 14 1d 	lw $20,376($29)
  40b690:	28 00 00 00 74 01 13 1d 	lw $19,372($29)
  40b698:	28 00 00 00 70 01 12 1d 	lw $18,368($29)
  40b6a0:	28 00 00 00 6c 01 11 1d 	lw $17,364($29)
  40b6a8:	28 00 00 00 68 01 10 1d 	lw $16,360($29)
  40b6b0:	43 00 00 00 90 01 1d 1d 	addiu $29,$29,400
  40b6b8:	03 00 00 00 00 00 00 1f 	jr $31

0040b6c0 <strrchr>:
  40b6c0:	43 00 00 00 e0 ff 1d 1d 	addiu $29,$29,-32
  40b6c8:	34 00 00 00 14 00 11 1d 	sw $17,20($29)
  40b6d0:	4f 00 00 00 ff 00 11 05 	andi $17,$5,255
  40b6d8:	34 00 00 00 18 00 1f 1d 	sw $31,24($29)
  40b6e0:	34 00 00 00 10 00 10 1d 	sw $16,16($29)
  40b6e8:	06 00 00 00 06 00 00 11 	bne $17,$0,40b708 <strrchr+0x48>
  40b6f0:	42 00 00 00 00 05 00 00 	addu $5,$0,$0
  40b6f8:	02 00 00 00 3c 31 10 00 	jal 40c4f0 <strchr>
  40b700:	01 00 00 00 d2 2d 10 00 	j 40b748 <strrchr+0x88>
  40b708:	42 00 00 00 00 10 00 00 	addu $16,$0,$0
  40b710:	42 00 00 00 00 05 11 00 	addu $5,$0,$17
  40b718:	02 00 00 00 3c 31 10 00 	jal 40c4f0 <strchr>
  40b720:	05 00 00 00 06 00 00 02 	beq $2,$0,40b740 <strrchr+0x80>
  40b728:	42 00 00 00 00 10 02 00 	addu $16,$0,$2
  40b730:	43 00 00 00 01 00 04 10 	addiu $4,$16,1
  40b738:	01 00 00 00 c4 2d 10 00 	j 40b710 <strrchr+0x50>
  40b740:	42 00 00 00 00 02 10 00 	addu $2,$0,$16
  40b748:	28 00 00 00 18 00 1f 1d 	lw $31,24($29)
  40b750:	28 00 00 00 14 00 11 1d 	lw $17,20($29)
  40b758:	28 00 00 00 10 00 10 1d 	lw $16,16($29)
  40b760:	43 00 00 00 20 00 1d 1d 	addiu $29,$29,32
  40b768:	03 00 00 00 00 00 00 1f 	jr $31

0040b770 <syscall_error>:
  40b770:	a2 00 00 00 01 10 01 00 	lui $1,4097
  40b778:	34 00 00 00 c0 26 02 01 	sw $2,9920($1)
  40b780:	43 00 00 00 ff ff 02 00 	addiu $2,$0,-1
  40b788:	03 00 00 00 00 00 00 1f 	jr $31

0040b790 <_free_internal>:
  40b790:	28 00 00 00 d4 84 0a 1c 	lw $10,-31532($28)
  40b798:	43 00 00 00 d8 ff 1d 1d 	addiu $29,$29,-40
  40b7a0:	42 00 00 00 00 06 04 00 	addu $6,$0,$4
  40b7a8:	34 00 00 00 20 00 1f 1d 	sw $31,32($29)
  40b7b0:	34 00 00 00 1c 00 13 1d 	sw $19,28($29)
  40b7b8:	34 00 00 00 18 00 12 1d 	sw $18,24($29)
  40b7c0:	34 00 00 00 14 00 11 1d 	sw $17,20($29)
  40b7c8:	34 00 00 00 10 00 10 1d 	sw $16,16($29)
  40b7d0:	45 00 00 00 00 02 0a 06 	subu $2,$6,$10
  40b7d8:	0a 00 00 00 02 00 00 02 	bgez $2,40b7e8 <_free_internal+0x58>
  40b7e0:	43 00 00 00 ff 0f 02 02 	addiu $2,$2,4095
  40b7e8:	59 00 00 00 0c 05 02 00 	sra $5,$2,0xc
  40b7f0:	43 00 00 00 01 00 10 05 	addiu $16,$5,1
  40b7f8:	28 00 00 00 c8 84 07 1c 	lw $7,-31544($28)
  40b800:	55 00 00 00 01 02 10 00 	sll $2,$16,0x1
  40b808:	42 00 00 00 00 02 10 02 	addu $2,$2,$16
  40b810:	55 00 00 00 02 0b 02 00 	sll $11,$2,0x2
  40b818:	42 00 00 00 00 08 07 0b 	addu $8,$11,$7
  40b820:	28 00 00 00 00 00 09 08 	lw $9,0($8)
  40b828:	06 00 00 00 34 01 00 09 	bne $9,$0,40bd00 <_free_internal+0x570>
  40b830:	28 00 00 00 d8 84 02 1c 	lw $2,-31528($28)
  40b838:	28 00 00 00 bc 84 06 1c 	lw $6,-31556($28)
  40b840:	28 00 00 00 04 00 03 08 	lw $3,4($8)
  40b848:	28 00 00 00 b0 84 04 1c 	lw $4,-31568($28)
  40b850:	28 00 00 00 d0 84 05 1c 	lw $5,-31536($28)
  40b858:	43 00 00 00 ff ff 02 02 	addiu $2,$2,-1
  40b860:	34 00 00 00 d8 84 02 1c 	sw $2,-31528($28)
  40b868:	28 00 00 00 04 00 02 08 	lw $2,4($8)
  40b870:	55 00 00 00 0c 03 03 00 	sll $3,$3,0xc
  40b878:	45 00 00 00 00 04 03 04 	subu $4,$4,$3
  40b880:	34 00 00 00 b0 84 04 1c 	sw $4,-31568($28)
  40b888:	55 00 00 00 0c 02 02 00 	sll $2,$2,0xc
  40b890:	42 00 00 00 00 02 05 02 	addu $2,$2,$5
  40b898:	34 00 00 00 d0 84 02 1c 	sw $2,-31536($28)
  40b8a0:	5d 00 00 00 00 02 06 10 	sltu $2,$16,$6
  40b8a8:	05 00 00 00 12 00 00 02 	beq $2,$0,40b8f8 <_free_internal+0x168>
  40b8b0:	42 00 00 00 00 03 07 00 	addu $3,$0,$7
  40b8b8:	55 00 00 00 01 02 06 00 	sll $2,$6,0x1
  40b8c0:	42 00 00 00 00 02 06 02 	addu $2,$2,$6
  40b8c8:	55 00 00 00 02 02 02 00 	sll $2,$2,0x2
  40b8d0:	42 00 00 00 00 02 03 02 	addu $2,$2,$3
  40b8d8:	28 00 00 00 08 00 06 02 	lw $6,8($2)
  40b8e0:	5d 00 00 00 00 02 06 10 	sltu $2,$16,$6
  40b8e8:	06 00 00 00 f2 ff 00 02 	bne $2,$0,40b8b8 <_free_internal+0x128>
  40b8f0:	01 00 00 00 5a 2e 10 00 	j 40b968 <_free_internal+0x1d8>
  40b8f8:	42 00 00 00 00 03 07 00 	addu $3,$0,$7
  40b900:	55 00 00 00 01 02 06 00 	sll $2,$6,0x1
  40b908:	42 00 00 00 00 02 06 02 	addu $2,$2,$6
  40b910:	55 00 00 00 02 02 02 00 	sll $2,$2,0x2
  40b918:	42 00 00 00 00 02 03 02 	addu $2,$2,$3
  40b920:	28 00 00 00 04 00 06 02 	lw $6,4($2)
  40b928:	05 00 00 00 04 00 00 06 	beq $6,$0,40b940 <_free_internal+0x1b0>
  40b930:	5d 00 00 00 00 02 10 06 	sltu $2,$6,$16
  40b938:	06 00 00 00 f0 ff 00 02 	bne $2,$0,40b900 <_free_internal+0x170>
  40b940:	55 00 00 00 01 02 06 00 	sll $2,$6,0x1
  40b948:	42 00 00 00 00 02 06 02 	addu $2,$2,$6
  40b950:	55 00 00 00 02 02 02 00 	sll $2,$2,0x2
  40b958:	42 00 00 00 00 02 03 02 	addu $2,$2,$3
  40b960:	28 00 00 00 08 00 06 02 	lw $6,8($2)
  40b968:	28 00 00 00 c8 84 05 1c 	lw $5,-31544($28)
  40b970:	55 00 00 00 01 02 06 00 	sll $2,$6,0x1
  40b978:	42 00 00 00 00 02 06 02 	addu $2,$2,$6
  40b980:	55 00 00 00 02 02 02 00 	sll $2,$2,0x2
  40b988:	42 00 00 00 00 04 05 02 	addu $4,$2,$5
  40b990:	28 00 00 00 00 00 03 04 	lw $3,0($4)
  40b998:	42 00 00 00 00 02 03 06 	addu $2,$6,$3
  40b9a0:	06 00 00 00 12 00 02 10 	bne $16,$2,40b9f0 <_free_internal+0x260>
  40b9a8:	55 00 00 00 01 02 10 00 	sll $2,$16,0x1
  40b9b0:	42 00 00 00 00 02 10 02 	addu $2,$2,$16
  40b9b8:	55 00 00 00 02 02 02 00 	sll $2,$2,0x2
  40b9c0:	42 00 00 00 00 02 05 02 	addu $2,$2,$5
  40b9c8:	28 00 00 00 04 00 02 02 	lw $2,4($2)
  40b9d0:	42 00 00 00 00 10 06 00 	addu $16,$0,$6
  40b9d8:	42 00 00 00 00 02 02 03 	addu $2,$3,$2
  40b9e0:	34 00 00 00 00 00 02 04 	sw $2,0($4)
  40b9e8:	01 00 00 00 a2 2e 10 00 	j 40ba88 <_free_internal+0x2f8>
  40b9f0:	55 00 00 00 01 02 10 00 	sll $2,$16,0x1
  40b9f8:	42 00 00 00 00 02 10 02 	addu $2,$2,$16
  40ba00:	55 00 00 00 02 02 02 00 	sll $2,$2,0x2
  40ba08:	42 00 00 00 00 02 05 02 	addu $2,$2,$5
  40ba10:	28 00 00 00 04 00 03 02 	lw $3,4($2)
  40ba18:	34 00 00 00 00 00 03 02 	sw $3,0($2)
  40ba20:	28 00 00 00 04 00 03 04 	lw $3,4($4)
  40ba28:	34 00 00 00 04 00 03 02 	sw $3,4($2)
  40ba30:	28 00 00 00 b8 84 03 1c 	lw $3,-31560($28)
  40ba38:	34 00 00 00 08 00 06 02 	sw $6,8($2)
  40ba40:	34 00 00 00 04 00 10 04 	sw $16,4($4)
  40ba48:	28 00 00 00 04 00 04 02 	lw $4,4($2)
  40ba50:	43 00 00 00 01 00 03 03 	addiu $3,$3,1
  40ba58:	55 00 00 00 01 02 04 00 	sll $2,$4,0x1
  40ba60:	42 00 00 00 00 02 04 02 	addu $2,$2,$4
  40ba68:	55 00 00 00 02 02 02 00 	sll $2,$2,0x2
  40ba70:	42 00 00 00 00 02 05 02 	addu $2,$2,$5
  40ba78:	34 00 00 00 b8 84 03 1c 	sw $3,-31560($28)
  40ba80:	34 00 00 00 08 00 10 02 	sw $16,8($2)
  40ba88:	28 00 00 00 c8 84 06 1c 	lw $6,-31544($28)
  40ba90:	55 00 00 00 01 02 10 00 	sll $2,$16,0x1
  40ba98:	42 00 00 00 00 02 10 02 	addu $2,$2,$16
  40baa0:	55 00 00 00 02 13 02 00 	sll $19,$2,0x2
  40baa8:	42 00 00 00 00 05 06 13 	addu $5,$19,$6
  40bab0:	28 00 00 00 00 00 04 05 	lw $4,0($5)
  40bab8:	28 00 00 00 04 00 02 05 	lw $2,4($5)
  40bac0:	42 00 00 00 00 03 04 10 	addu $3,$16,$4
  40bac8:	06 00 00 00 2c 00 02 03 	bne $3,$2,40bb80 <_free_internal+0x3f0>
  40bad0:	55 00 00 00 01 02 03 00 	sll $2,$3,0x1
  40bad8:	42 00 00 00 00 02 03 02 	addu $2,$2,$3
  40bae0:	55 00 00 00 02 02 02 00 	sll $2,$2,0x2
  40bae8:	42 00 00 00 00 02 06 02 	addu $2,$2,$6
  40baf0:	28 00 00 00 00 00 02 02 	lw $2,0($2)
  40baf8:	28 00 00 00 04 00 03 05 	lw $3,4($5)
  40bb00:	42 00 00 00 00 02 02 04 	addu $2,$4,$2
  40bb08:	34 00 00 00 00 00 02 05 	sw $2,0($5)
  40bb10:	55 00 00 00 01 02 03 00 	sll $2,$3,0x1
  40bb18:	42 00 00 00 00 02 03 02 	addu $2,$2,$3
  40bb20:	55 00 00 00 02 02 02 00 	sll $2,$2,0x2
  40bb28:	42 00 00 00 00 02 06 02 	addu $2,$2,$6
  40bb30:	28 00 00 00 b8 84 03 1c 	lw $3,-31560($28)
  40bb38:	28 00 00 00 04 00 04 02 	lw $4,4($2)
  40bb40:	43 00 00 00 ff ff 03 03 	addiu $3,$3,-1
  40bb48:	55 00 00 00 01 02 04 00 	sll $2,$4,0x1
  40bb50:	42 00 00 00 00 02 04 02 	addu $2,$2,$4
  40bb58:	55 00 00 00 02 02 02 00 	sll $2,$2,0x2
  40bb60:	42 00 00 00 00 02 06 02 	addu $2,$2,$6
  40bb68:	34 00 00 00 b8 84 03 1c 	sw $3,-31560($28)
  40bb70:	34 00 00 00 04 00 04 05 	sw $4,4($5)
  40bb78:	34 00 00 00 08 00 10 02 	sw $16,8($2)
  40bb80:	28 00 00 00 c8 84 02 1c 	lw $2,-31544($28)
  40bb88:	42 00 00 00 00 02 02 13 	addu $2,$19,$2
  40bb90:	28 00 00 00 00 00 11 02 	lw $17,0($2)
  40bb98:	5e 00 00 00 08 00 02 11 	sltiu $2,$17,8
  40bba0:	06 00 00 00 52 00 00 02 	bne $2,$0,40bcf0 <_free_internal+0x560>
  40bba8:	28 00 00 00 c0 84 02 1c 	lw $2,-31552($28)
  40bbb0:	42 00 00 00 00 12 11 10 	addu $18,$16,$17
  40bbb8:	06 00 00 00 4c 00 02 12 	bne $18,$2,40bcf0 <_free_internal+0x560>
  40bbc0:	28 00 00 00 f0 80 02 1c 	lw $2,-32528($28)
  40bbc8:	42 00 00 00 00 04 00 00 	addu $4,$0,$0
  40bbd0:	04 00 00 00 00 1f 00 02 	jalr $31,$2
  40bbd8:	28 00 00 00 d4 84 04 1c 	lw $4,-31532($28)
  40bbe0:	43 00 00 00 ff ff 03 12 	addiu $3,$18,-1
  40bbe8:	55 00 00 00 0c 03 03 00 	sll $3,$3,0xc
  40bbf0:	42 00 00 00 00 03 04 03 	addu $3,$3,$4
  40bbf8:	06 00 00 00 3c 00 03 02 	bne $2,$3,40bcf0 <_free_internal+0x560>
  40bc00:	55 00 00 00 0c 10 11 00 	sll $16,$17,0xc
  40bc08:	28 00 00 00 c0 84 02 1c 	lw $2,-31552($28)
  40bc10:	28 00 00 00 f0 80 03 1c 	lw $3,-32528($28)
  40bc18:	45 00 00 00 00 04 10 00 	subu $4,$0,$16
  40bc20:	45 00 00 00 00 02 11 02 	subu $2,$2,$17
  40bc28:	34 00 00 00 c0 84 02 1c 	sw $2,-31552($28)
  40bc30:	04 00 00 00 00 1f 00 03 	jalr $31,$3
  40bc38:	28 00 00 00 c8 84 05 1c 	lw $5,-31544($28)
  40bc40:	42 00 00 00 00 04 05 13 	addu $4,$19,$5
  40bc48:	28 00 00 00 08 00 03 04 	lw $3,8($4)
  40bc50:	55 00 00 00 01 02 03 00 	sll $2,$3,0x1
  40bc58:	42 00 00 00 00 02 03 02 	addu $2,$2,$3
  40bc60:	28 00 00 00 04 00 03 04 	lw $3,4($4)
  40bc68:	55 00 00 00 02 02 02 00 	sll $2,$2,0x2
  40bc70:	42 00 00 00 00 02 05 02 	addu $2,$2,$5
  40bc78:	34 00 00 00 04 00 03 02 	sw $3,4($2)
  40bc80:	28 00 00 00 b8 84 02 1c 	lw $2,-31560($28)
  40bc88:	28 00 00 00 d0 84 03 1c 	lw $3,-31536($28)
  40bc90:	28 00 00 00 04 00 06 04 	lw $6,4($4)
  40bc98:	43 00 00 00 ff ff 02 02 	addiu $2,$2,-1
  40bca0:	45 00 00 00 00 03 10 03 	subu $3,$3,$16
  40bca8:	34 00 00 00 b8 84 02 1c 	sw $2,-31560($28)
  40bcb0:	55 00 00 00 01 02 06 00 	sll $2,$6,0x1
  40bcb8:	42 00 00 00 00 02 06 02 	addu $2,$2,$6
  40bcc0:	34 00 00 00 d0 84 03 1c 	sw $3,-31536($28)
  40bcc8:	28 00 00 00 08 00 03 04 	lw $3,8($4)
  40bcd0:	55 00 00 00 02 02 02 00 	sll $2,$2,0x2
  40bcd8:	42 00 00 00 00 02 05 02 	addu $2,$2,$5
  40bce0:	34 00 00 00 08 00 03 02 	sw $3,8($2)
  40bce8:	28 00 00 00 08 00 10 04 	lw $16,8($4)
  40bcf0:	34 00 00 00 bc 84 10 1c 	sw $16,-31556($28)
  40bcf8:	01 00 00 00 02 30 10 00 	j 40c008 <_free_internal+0x878>
  40bd00:	28 00 00 00 d8 84 04 1c 	lw $4,-31528($28)
  40bd08:	28 00 00 00 08 00 03 08 	lw $3,8($8)
  40bd10:	55 00 00 00 0c 02 05 00 	sll $2,$5,0xc
  40bd18:	42 00 00 00 00 02 0a 02 	addu $2,$2,$10
  40bd20:	28 00 00 00 d0 84 05 1c 	lw $5,-31536($28)
  40bd28:	56 00 00 00 00 03 03 09 	sllv $3,$3,$9
  40bd30:	42 00 00 00 00 07 03 02 	addu $7,$2,$3
  40bd38:	28 00 00 00 b0 84 03 1c 	lw $3,-31568($28)
  40bd40:	43 00 00 00 01 00 0a 00 	addiu $10,$0,1
  40bd48:	43 00 00 00 ff ff 04 04 	addiu $4,$4,-1
  40bd50:	34 00 00 00 d8 84 04 1c 	sw $4,-31528($28)
  40bd58:	28 00 00 00 b8 84 04 1c 	lw $4,-31560($28)
  40bd60:	56 00 00 00 00 02 0a 09 	sllv $2,$10,$9
  40bd68:	45 00 00 00 00 03 02 03 	subu $3,$3,$2
  40bd70:	34 00 00 00 b0 84 03 1c 	sw $3,-31568($28)
  40bd78:	28 00 00 00 04 00 03 08 	lw $3,4($8)
  40bd80:	43 00 00 00 01 00 04 04 	addiu $4,$4,1
  40bd88:	42 00 00 00 00 02 05 02 	addu $2,$2,$5
  40bd90:	34 00 00 00 d0 84 02 1c 	sw $2,-31536($28)
  40bd98:	43 00 00 00 00 10 02 00 	addiu $2,$0,4096
  40bda0:	34 00 00 00 b8 84 04 1c 	sw $4,-31560($28)
  40bda8:	5a 00 00 00 00 04 02 09 	srav $4,$2,$9
  40bdb0:	43 00 00 00 ff ff 02 04 	addiu $2,$4,-1
  40bdb8:	06 00 00 00 52 00 02 03 	bne $3,$2,40bf08 <_free_internal+0x778>
  40bdc0:	42 00 00 00 00 03 07 00 	addu $3,$0,$7
  40bdc8:	43 00 00 00 01 00 06 00 	addiu $6,$0,1
  40bdd0:	5d 00 00 00 00 02 04 0a 	sltu $2,$10,$4
  40bdd8:	05 00 00 00 08 00 00 02 	beq $2,$0,40be00 <_free_internal+0x670>
  40bde0:	28 00 00 00 00 00 03 03 	lw $3,0($3)
  40bde8:	43 00 00 00 01 00 06 06 	addiu $6,$6,1
  40bdf0:	5d 00 00 00 00 02 04 06 	sltu $2,$6,$4
  40bdf8:	06 00 00 00 f8 ff 00 02 	bne $2,$0,40bde0 <_free_internal+0x650>
  40be00:	28 00 00 00 04 00 02 07 	lw $2,4($7)
  40be08:	34 00 00 00 00 00 03 02 	sw $3,0($2)
  40be10:	05 00 00 00 04 00 00 03 	beq $3,$0,40be28 <_free_internal+0x698>
  40be18:	28 00 00 00 04 00 02 07 	lw $2,4($7)
  40be20:	34 00 00 00 04 00 02 03 	sw $2,4($3)
  40be28:	28 00 00 00 d4 84 02 1c 	lw $2,-31532($28)
  40be30:	43 00 00 00 ff ff 04 10 	addiu $4,$16,-1
  40be38:	55 00 00 00 0c 04 04 00 	sll $4,$4,0xc
  40be40:	28 00 00 00 c8 84 03 1c 	lw $3,-31544($28)
  40be48:	28 00 00 00 d8 84 05 1c 	lw $5,-31528($28)
  40be50:	28 00 00 00 b0 84 06 1c 	lw $6,-31568($28)
  40be58:	42 00 00 00 00 04 02 04 	addu $4,$4,$2
  40be60:	55 00 00 00 01 02 10 00 	sll $2,$16,0x1
  40be68:	42 00 00 00 00 02 10 02 	addu $2,$2,$16
  40be70:	55 00 00 00 02 02 02 00 	sll $2,$2,0x2
  40be78:	42 00 00 00 00 02 03 02 	addu $2,$2,$3
  40be80:	43 00 00 00 01 00 03 00 	addiu $3,$0,1
  40be88:	34 00 00 00 04 00 03 02 	sw $3,4($2)
  40be90:	28 00 00 00 b8 84 03 1c 	lw $3,-31560($28)
  40be98:	43 00 00 00 01 00 05 05 	addiu $5,$5,1
  40bea0:	34 00 00 00 d8 84 05 1c 	sw $5,-31528($28)
  40bea8:	28 00 00 00 d0 84 05 1c 	lw $5,-31536($28)
  40beb0:	43 00 00 00 00 10 06 06 	addiu $6,$6,4096
  40beb8:	34 00 00 00 00 00 00 02 	sw $0,0($2)
  40bec0:	43 00 00 00 00 10 02 00 	addiu $2,$0,4096
  40bec8:	5a 00 00 00 00 02 02 09 	srav $2,$2,$9
  40bed0:	34 00 00 00 b0 84 06 1c 	sw $6,-31568($28)
  40bed8:	45 00 00 00 00 03 02 03 	subu $3,$3,$2
  40bee0:	43 00 00 00 00 f0 05 05 	addiu $5,$5,-4096
  40bee8:	34 00 00 00 b8 84 03 1c 	sw $3,-31560($28)
  40bef0:	34 00 00 00 d0 84 05 1c 	sw $5,-31536($28)
  40bef8:	02 00 00 00 10 30 10 00 	jal 40c040 <free>
  40bf00:	01 00 00 00 02 30 10 00 	j 40c008 <_free_internal+0x878>
  40bf08:	05 00 00 00 1a 00 00 03 	beq $3,$0,40bf78 <_free_internal+0x7e8>
  40bf10:	28 00 00 00 00 00 02 07 	lw $2,0($7)
  40bf18:	34 00 00 00 00 00 02 06 	sw $2,0($6)
  40bf20:	34 00 00 00 04 00 07 06 	sw $7,4($6)
  40bf28:	34 00 00 00 00 00 06 07 	sw $6,0($7)
  40bf30:	28 00 00 00 00 00 02 06 	lw $2,0($6)
  40bf38:	05 00 00 00 02 00 00 02 	beq $2,$0,40bf48 <_free_internal+0x7b8>
  40bf40:	34 00 00 00 04 00 06 02 	sw $6,4($2)
  40bf48:	28 00 00 00 c8 84 03 1c 	lw $3,-31544($28)
  40bf50:	42 00 00 00 00 03 03 0b 	addu $3,$11,$3
  40bf58:	28 00 00 00 04 00 02 03 	lw $2,4($3)
  40bf60:	43 00 00 00 01 00 02 02 	addiu $2,$2,1
  40bf68:	34 00 00 00 04 00 02 03 	sw $2,4($3)
  40bf70:	01 00 00 00 02 30 10 00 	j 40c008 <_free_internal+0x878>
  40bf78:	42 00 00 00 00 07 06 00 	addu $7,$0,$6
  40bf80:	4f 00 00 00 ff 0f 02 07 	andi $2,$7,4095
  40bf88:	58 00 00 00 00 02 02 09 	srlv $2,$2,$9
  40bf90:	34 00 00 00 08 00 02 08 	sw $2,8($8)
  40bf98:	55 00 00 00 03 02 09 00 	sll $2,$9,0x3
  40bfa0:	34 00 00 00 04 00 0a 08 	sw $10,4($8)
  40bfa8:	a2 00 00 00 a1 12 03 00 	lui $3,4769
  40bfb0:	42 00 00 00 00 03 02 03 	addu $3,$3,$2
  40bfb8:	28 00 00 00 30 3f 03 03 	lw $3,16176($3)
  40bfc0:	34 00 00 00 00 00 03 07 	sw $3,0($7)
  40bfc8:	a2 00 00 00 a1 12 03 00 	lui $3,4769
  40bfd0:	43 00 00 00 30 3f 03 03 	addiu $3,$3,16176
  40bfd8:	42 00 00 00 00 02 03 02 	addu $2,$2,$3
  40bfe0:	34 00 00 00 04 00 02 07 	sw $2,4($7)
  40bfe8:	34 00 00 00 00 00 07 02 	sw $7,0($2)
  40bff0:	28 00 00 00 00 00 02 07 	lw $2,0($7)
  40bff8:	05 00 00 00 02 00 00 02 	beq $2,$0,40c008 <_free_internal+0x878>
  40c000:	34 00 00 00 04 00 07 02 	sw $7,4($2)
  40c008:	28 00 00 00 20 00 1f 1d 	lw $31,32($29)
  40c010:	28 00 00 00 1c 00 13 1d 	lw $19,28($29)
  40c018:	28 00 00 00 18 00 12 1d 	lw $18,24($29)
  40c020:	28 00 00 00 14 00 11 1d 	lw $17,20($29)
  40c028:	28 00 00 00 10 00 10 1d 	lw $16,16($29)
  40c030:	43 00 00 00 28 00 1d 1d 	addiu $29,$29,40
  40c038:	03 00 00 00 00 00 00 1f 	jr $31

0040c040 <free>:
  40c040:	43 00 00 00 e8 ff 1d 1d 	addiu $29,$29,-24
  40c048:	34 00 00 00 10 00 1f 1d 	sw $31,16($29)
  40c050:	05 00 00 00 1c 00 00 04 	beq $4,$0,40c0c8 <free+0x88>
  40c058:	28 00 00 00 00 81 03 1c 	lw $3,-32512($28)
  40c060:	05 00 00 00 08 00 00 03 	beq $3,$0,40c088 <free+0x48>
  40c068:	28 00 00 00 04 00 02 03 	lw $2,4($3)
  40c070:	05 00 00 00 0c 00 04 02 	beq $2,$4,40c0a8 <free+0x68>
  40c078:	28 00 00 00 00 00 03 03 	lw $3,0($3)
  40c080:	06 00 00 00 f8 ff 00 03 	bne $3,$0,40c068 <free+0x28>
  40c088:	28 00 00 00 e0 84 02 1c 	lw $2,-31520($28)
  40c090:	05 00 00 00 0a 00 00 02 	beq $2,$0,40c0c0 <free+0x80>
  40c098:	04 00 00 00 00 1f 00 02 	jalr $31,$2
  40c0a0:	01 00 00 00 32 30 10 00 	j 40c0c8 <free+0x88>
  40c0a8:	28 00 00 00 08 00 04 03 	lw $4,8($3)
  40c0b0:	34 00 00 00 04 00 00 03 	sw $0,4($3)
  40c0b8:	01 00 00 00 22 30 10 00 	j 40c088 <free+0x48>
  40c0c0:	02 00 00 00 e4 2d 10 00 	jal 40b790 <_free_internal>
  40c0c8:	28 00 00 00 10 00 1f 1d 	lw $31,16($29)
  40c0d0:	43 00 00 00 18 00 1d 1d 	addiu $29,$29,24
  40c0d8:	03 00 00 00 00 00 00 1f 	jr $31

0040c0e0 <register_printf_function>:
  40c0e0:	42 00 00 00 00 03 04 00 	addu $3,$0,$4
  40c0e8:	5e 00 00 00 00 01 02 03 	sltiu $2,$3,256
  40c0f0:	05 00 00 00 16 00 00 02 	beq $2,$0,40c150 <register_printf_function+0x70>
  40c0f8:	42 00 00 00 00 02 00 00 	addu $2,$0,$0
  40c100:	a2 00 00 00 01 10 04 00 	lui $4,4097
  40c108:	43 00 00 00 90 27 04 04 	addiu $4,$4,10128
  40c110:	55 00 00 00 02 03 03 00 	sll $3,$3,0x2
  40c118:	a2 00 00 00 a1 12 01 00 	lui $1,4769
  40c120:	42 00 00 00 00 01 03 01 	addu $1,$1,$3
  40c128:	34 00 00 00 90 3f 06 01 	sw $6,16272($1)
  40c130:	42 00 00 00 00 03 04 03 	addu $3,$3,$4
  40c138:	34 00 00 00 f0 84 04 1c 	sw $4,-31504($28)
  40c140:	34 00 00 00 00 00 05 03 	sw $5,0($3)
  40c148:	01 00 00 00 5a 30 10 00 	j 40c168 <register_printf_function+0x88>
  40c150:	43 00 00 00 16 00 02 00 	addiu $2,$0,22
  40c158:	34 00 00 00 60 84 02 1c 	sw $2,-31648($28)
  40c160:	43 00 00 00 ff ff 02 00 	addiu $2,$0,-1
  40c168:	03 00 00 00 00 00 00 1f 	jr $31

0040c170 <mbtowc>:
  40c170:	43 00 00 00 d0 ff 1d 1d 	addiu $29,$29,-48
  40c178:	34 00 00 00 24 00 15 1d 	sw $21,36($29)
  40c180:	42 00 00 00 00 15 04 00 	addu $21,$0,$4
  40c188:	34 00 00 00 1c 00 13 1d 	sw $19,28($29)
  40c190:	42 00 00 00 00 13 05 00 	addu $19,$0,$5
  40c198:	34 00 00 00 20 00 14 1d 	sw $20,32($29)
  40c1a0:	42 00 00 00 00 14 06 00 	addu $20,$0,$6
  40c1a8:	34 00 00 00 28 00 1f 1d 	sw $31,40($29)
  40c1b0:	34 00 00 00 18 00 12 1d 	sw $18,24($29)
  40c1b8:	34 00 00 00 14 00 11 1d 	sw $17,20($29)
  40c1c0:	34 00 00 00 10 00 10 1d 	sw $16,16($29)
  40c1c8:	06 00 00 00 06 00 00 13 	bne $19,$0,40c1e8 <mbtowc+0x78>
  40c1d0:	28 00 00 00 30 81 02 1c 	lw $2,-32464($28)
  40c1d8:	5d 00 00 00 00 02 02 00 	sltu $2,$0,$2
  40c1e0:	01 00 00 00 d4 30 10 00 	j 40c350 <mbtowc+0x1e0>
  40c1e8:	20 00 00 00 00 00 02 13 	lb $2,0($19)
  40c1f0:	06 00 00 00 04 00 00 02 	bne $2,$0,40c208 <mbtowc+0x98>
  40c1f8:	42 00 00 00 00 02 00 00 	addu $2,$0,$0
  40c200:	01 00 00 00 d4 30 10 00 	j 40c350 <mbtowc+0x1e0>
  40c208:	28 00 00 00 a8 81 02 1c 	lw $2,-32344($28)
  40c210:	28 00 00 00 04 00 02 02 	lw $2,4($2)
  40c218:	05 00 00 00 4a 00 00 02 	beq $2,$0,40c348 <mbtowc+0x1d8>
  40c220:	28 00 00 00 04 00 02 02 	lw $2,4($2)
  40c228:	05 00 00 00 46 00 00 02 	beq $2,$0,40c348 <mbtowc+0x1d8>
  40c230:	5e 00 00 00 02 00 02 14 	sltiu $2,$20,2
  40c238:	06 00 00 00 02 00 00 02 	bne $2,$0,40c248 <mbtowc+0xd8>
  40c240:	43 00 00 00 01 00 14 00 	addiu $20,$0,1
  40c248:	42 00 00 00 00 11 00 00 	addu $17,$0,$0
  40c250:	42 00 00 00 00 12 00 00 	addu $18,$0,$0
  40c258:	28 00 00 00 a8 81 02 1c 	lw $2,-32344($28)
  40c260:	28 00 00 00 04 00 02 02 	lw $2,4($2)
  40c268:	28 00 00 00 04 00 02 02 	lw $2,4($2)
  40c270:	42 00 00 00 00 10 02 12 	addu $16,$18,$2
  40c278:	43 00 00 00 01 00 02 11 	addiu $2,$17,1
  40c280:	5e 00 00 00 02 00 02 02 	sltiu $2,$2,2
  40c288:	06 00 00 00 26 00 00 02 	bne $2,$0,40c328 <mbtowc+0x1b8>
  40c290:	4f 00 00 00 80 00 02 11 	andi $2,$17,128
  40c298:	05 00 00 00 22 00 00 02 	beq $2,$0,40c328 <mbtowc+0x1b8>
  40c2a0:	28 00 00 00 00 00 04 10 	lw $4,0($16)
  40c2a8:	05 00 00 00 1e 00 00 04 	beq $4,$0,40c328 <mbtowc+0x1b8>
  40c2b0:	28 00 00 00 04 00 06 10 	lw $6,4($16)
  40c2b8:	05 00 00 00 1a 00 00 06 	beq $6,$0,40c328 <mbtowc+0x1b8>
  40c2c0:	5d 00 00 00 00 02 06 14 	sltu $2,$20,$6
  40c2c8:	06 00 00 00 16 00 00 02 	bne $2,$0,40c328 <mbtowc+0x1b8>
  40c2d0:	42 00 00 00 00 05 13 00 	addu $5,$0,$19
  40c2d8:	02 00 00 00 24 4d 10 00 	jal 413490 <strncmp>
  40c2e0:	06 00 00 00 10 00 00 02 	bne $2,$0,40c328 <mbtowc+0x1b8>
  40c2e8:	28 00 00 00 30 81 02 1c 	lw $2,-32464($28)
  40c2f0:	28 00 00 00 08 00 03 10 	lw $3,8($16)
  40c2f8:	42 00 00 00 00 02 03 02 	addu $2,$2,$3
  40c300:	34 00 00 00 30 81 02 1c 	sw $2,-32464($28)
  40c308:	05 00 00 00 02 00 00 15 	beq $21,$0,40c318 <mbtowc+0x1a8>
  40c310:	34 00 00 00 00 00 11 15 	sw $17,0($21)
  40c318:	28 00 00 00 04 00 02 10 	lw $2,4($16)
  40c320:	01 00 00 00 d4 30 10 00 	j 40c350 <mbtowc+0x1e0>
  40c328:	43 00 00 00 0c 00 12 12 	addiu $18,$18,12
  40c330:	43 00 00 00 01 00 11 11 	addiu $17,$17,1
  40c338:	5c 00 00 00 ff 00 02 11 	slti $2,$17,255
  40c340:	06 00 00 00 c4 ff 00 02 	bne $2,$0,40c258 <mbtowc+0xe8>
  40c348:	43 00 00 00 ff ff 02 00 	addiu $2,$0,-1
  40c350:	28 00 00 00 28 00 1f 1d 	lw $31,40($29)
  40c358:	28 00 00 00 24 00 15 1d 	lw $21,36($29)
  40c360:	28 00 00 00 20 00 14 1d 	lw $20,32($29)
  40c368:	28 00 00 00 1c 00 13 1d 	lw $19,28($29)
  40c370:	28 00 00 00 18 00 12 1d 	lw $18,24($29)
  40c378:	28 00 00 00 14 00 11 1d 	lw $17,20($29)
  40c380:	28 00 00 00 10 00 10 1d 	lw $16,16($29)
  40c388:	43 00 00 00 30 00 1d 1d 	addiu $29,$29,48
  40c390:	03 00 00 00 00 00 00 1f 	jr $31
	...

0040c3a0 <strlen>:
  40c3a0:	43 00 00 00 f0 ff 1d 1d 	addiu $29,$29,-16
  40c3a8:	42 00 00 00 00 03 04 00 	addu $3,$0,$4
  40c3b0:	4f 00 00 00 03 00 02 04 	andi $2,$4,3
  40c3b8:	05 00 00 00 0a 00 00 02 	beq $2,$0,40c3e8 <strlen+0x48>
  40c3c0:	20 00 00 00 00 00 02 03 	lb $2,0($3)
  40c3c8:	05 00 00 00 3a 00 00 02 	beq $2,$0,40c4b8 <strlen+0x118>
  40c3d0:	43 00 00 00 01 00 03 03 	addiu $3,$3,1
  40c3d8:	4f 00 00 00 03 00 02 03 	andi $2,$3,3
  40c3e0:	06 00 00 00 f6 ff 00 02 	bne $2,$0,40c3c0 <strlen+0x20>
  40c3e8:	a2 00 00 00 80 80 07 00 	lui $7,32896
  40c3f0:	51 00 00 00 80 80 07 07 	ori $7,$7,32896
  40c3f8:	a2 00 00 00 01 01 06 00 	lui $6,257
  40c400:	51 00 00 00 01 01 06 06 	ori $6,$6,257
  40c408:	28 00 00 00 00 00 02 03 	lw $2,0($3)
  40c410:	43 00 00 00 04 00 03 03 	addiu $3,$3,4
  40c418:	45 00 00 00 00 02 06 02 	subu $2,$2,$6
  40c420:	4e 00 00 00 00 02 07 02 	and $2,$2,$7
  40c428:	05 00 00 00 f6 ff 00 02 	beq $2,$0,40c408 <strlen+0x68>
  40c430:	20 00 00 00 fc ff 02 03 	lb $2,-4($3)
  40c438:	43 00 00 00 fc ff 05 03 	addiu $5,$3,-4
  40c440:	06 00 00 00 04 00 00 02 	bne $2,$0,40c458 <strlen+0xb8>
  40c448:	45 00 00 00 00 02 04 05 	subu $2,$5,$4
  40c450:	01 00 00 00 36 31 10 00 	j 40c4d8 <strlen+0x138>
  40c458:	20 00 00 00 fd ff 02 03 	lb $2,-3($3)
  40c460:	06 00 00 00 06 00 00 02 	bne $2,$0,40c480 <strlen+0xe0>
  40c468:	45 00 00 00 00 02 04 05 	subu $2,$5,$4
  40c470:	43 00 00 00 01 00 02 02 	addiu $2,$2,1
  40c478:	01 00 00 00 36 31 10 00 	j 40c4d8 <strlen+0x138>
  40c480:	20 00 00 00 fe ff 02 03 	lb $2,-2($3)
  40c488:	05 00 00 00 0e 00 00 02 	beq $2,$0,40c4c8 <strlen+0x128>
  40c490:	20 00 00 00 ff ff 02 03 	lb $2,-1($3)
  40c498:	06 00 00 00 da ff 00 02 	bne $2,$0,40c408 <strlen+0x68>
  40c4a0:	45 00 00 00 00 02 04 05 	subu $2,$5,$4
  40c4a8:	43 00 00 00 03 00 02 02 	addiu $2,$2,3
  40c4b0:	01 00 00 00 36 31 10 00 	j 40c4d8 <strlen+0x138>
  40c4b8:	45 00 00 00 00 02 04 03 	subu $2,$3,$4
  40c4c0:	01 00 00 00 36 31 10 00 	j 40c4d8 <strlen+0x138>
  40c4c8:	45 00 00 00 00 02 04 05 	subu $2,$5,$4
  40c4d0:	43 00 00 00 02 00 02 02 	addiu $2,$2,2
  40c4d8:	43 00 00 00 10 00 1d 1d 	addiu $29,$29,16
  40c4e0:	03 00 00 00 00 00 00 1f 	jr $31
	...

0040c4f0 <strchr>:
  40c4f0:	43 00 00 00 f0 ff 1d 1d 	addiu $29,$29,-16
  40c4f8:	4f 00 00 00 ff 00 05 05 	andi $5,$5,255
  40c500:	4f 00 00 00 03 00 02 04 	andi $2,$4,3
  40c508:	05 00 00 00 0c 00 00 02 	beq $2,$0,40c540 <strchr+0x50>
  40c510:	22 00 00 00 00 00 02 04 	lbu $2,0($4)
  40c518:	05 00 00 00 52 00 05 02 	beq $2,$5,40c668 <strchr+0x178>
  40c520:	05 00 00 00 54 00 00 02 	beq $2,$0,40c678 <strchr+0x188>
  40c528:	43 00 00 00 01 00 04 04 	addiu $4,$4,1
  40c530:	4f 00 00 00 03 00 02 04 	andi $2,$4,3
  40c538:	06 00 00 00 f4 ff 00 02 	bne $2,$0,40c510 <strchr+0x20>
  40c540:	a2 00 00 00 fe 7e 08 00 	lui $8,32510
  40c548:	51 00 00 00 ff fe 08 08 	ori $8,$8,65279
  40c550:	55 00 00 00 08 02 05 00 	sll $2,$5,0x8
  40c558:	50 00 00 00 00 09 02 05 	or $9,$5,$2
  40c560:	55 00 00 00 10 02 09 00 	sll $2,$9,0x10
  40c568:	50 00 00 00 00 09 02 09 	or $9,$9,$2
  40c570:	28 00 00 00 00 00 06 04 	lw $6,0($4)
  40c578:	54 00 00 00 00 07 08 00 	nor $7,$0,$8
  40c580:	43 00 00 00 04 00 04 04 	addiu $4,$4,4
  40c588:	42 00 00 00 00 03 08 06 	addu $3,$6,$8
  40c590:	54 00 00 00 00 02 06 00 	nor $2,$0,$6
  40c598:	52 00 00 00 00 03 02 03 	xor $3,$3,$2
  40c5a0:	4e 00 00 00 00 03 07 03 	and $3,$3,$7
  40c5a8:	06 00 00 00 0c 00 00 03 	bne $3,$0,40c5e0 <strchr+0xf0>
  40c5b0:	52 00 00 00 00 02 09 06 	xor $2,$6,$9
  40c5b8:	42 00 00 00 00 03 08 02 	addu $3,$2,$8
  40c5c0:	54 00 00 00 00 02 02 00 	nor $2,$0,$2
  40c5c8:	52 00 00 00 00 03 02 03 	xor $3,$3,$2
  40c5d0:	4e 00 00 00 00 03 07 03 	and $3,$3,$7
  40c5d8:	05 00 00 00 e4 ff 00 03 	beq $3,$0,40c570 <strchr+0x80>
  40c5e0:	22 00 00 00 fc ff 03 04 	lbu $3,-4($4)
  40c5e8:	43 00 00 00 fc ff 02 04 	addiu $2,$4,-4
  40c5f0:	05 00 00 00 22 00 05 03 	beq $3,$5,40c680 <strchr+0x190>
  40c5f8:	05 00 00 00 1e 00 00 03 	beq $3,$0,40c678 <strchr+0x188>
  40c600:	22 00 00 00 fd ff 03 04 	lbu $3,-3($4)
  40c608:	43 00 00 00 fd ff 02 04 	addiu $2,$4,-3
  40c610:	05 00 00 00 1a 00 05 03 	beq $3,$5,40c680 <strchr+0x190>
  40c618:	05 00 00 00 16 00 00 03 	beq $3,$0,40c678 <strchr+0x188>
  40c620:	22 00 00 00 fe ff 03 04 	lbu $3,-2($4)
  40c628:	43 00 00 00 fe ff 02 04 	addiu $2,$4,-2
  40c630:	05 00 00 00 12 00 05 03 	beq $3,$5,40c680 <strchr+0x190>
  40c638:	05 00 00 00 0e 00 00 03 	beq $3,$0,40c678 <strchr+0x188>
  40c640:	22 00 00 00 ff ff 03 04 	lbu $3,-1($4)
  40c648:	43 00 00 00 ff ff 02 04 	addiu $2,$4,-1
  40c650:	05 00 00 00 0a 00 05 03 	beq $3,$5,40c680 <strchr+0x190>
  40c658:	06 00 00 00 c4 ff 00 03 	bne $3,$0,40c570 <strchr+0x80>
  40c660:	01 00 00 00 9e 31 10 00 	j 40c678 <strchr+0x188>
  40c668:	42 00 00 00 00 02 04 00 	addu $2,$0,$4
  40c670:	01 00 00 00 a0 31 10 00 	j 40c680 <strchr+0x190>
  40c678:	42 00 00 00 00 02 00 00 	addu $2,$0,$0
  40c680:	43 00 00 00 10 00 1d 1d 	addiu $29,$29,16
  40c688:	03 00 00 00 00 00 00 1f 	jr $31

0040c690 <fwrite>:
  40c690:	43 00 00 00 c8 ff 1d 1d 	addiu $29,$29,-56
  40c698:	34 00 00 00 2c 00 17 1d 	sw $23,44($29)
  40c6a0:	42 00 00 00 00 17 05 00 	addu $23,$0,$5
  40c6a8:	46 00 00 00 00 00 06 17 	mult $23,$6
  40c6b0:	34 00 00 00 1c 00 13 1d 	sw $19,28($29)
  40c6b8:	4c 00 00 00 00 13 00 00 	mflo $19
  40c6c0:	34 00 00 00 14 00 11 1d 	sw $17,20($29)
  40c6c8:	42 00 00 00 00 11 07 00 	addu $17,$0,$7
  40c6d0:	34 00 00 00 20 00 14 1d 	sw $20,32($29)
  40c6d8:	42 00 00 00 00 14 04 00 	addu $20,$0,$4
  40c6e0:	34 00 00 00 24 00 15 1d 	sw $21,36($29)
  40c6e8:	42 00 00 00 00 15 00 00 	addu $21,$0,$0
  40c6f0:	34 00 00 00 34 00 1f 1d 	sw $31,52($29)
  40c6f8:	34 00 00 00 30 00 1e 1d 	sw $30,48($29)
  40c700:	34 00 00 00 28 00 16 1d 	sw $22,40($29)
  40c708:	34 00 00 00 18 00 12 1d 	sw $18,24($29)
  40c710:	34 00 00 00 10 00 10 1d 	sw $16,16($29)
  40c718:	05 00 00 00 1a 00 00 11 	beq $17,$0,40c788 <fwrite+0xf8>
  40c720:	28 00 00 00 00 00 03 11 	lw $3,0($17)
  40c728:	a2 00 00 00 ed fe 02 00 	lui $2,65261
  40c730:	51 00 00 00 be ba 02 02 	ori $2,$2,47806
  40c738:	06 00 00 00 04 00 02 03 	bne $3,$2,40c750 <fwrite+0xc0>
  40c740:	28 00 00 00 04 00 02 11 	lw $2,4($17)
  40c748:	28 00 00 00 00 00 11 02 	lw $17,0($2)
  40c750:	28 00 00 00 00 00 03 11 	lw $3,0($17)
  40c758:	a2 00 00 00 da fe 02 00 	lui $2,65242
  40c760:	51 00 00 00 eb be 02 02 	ori $2,$2,48875
  40c768:	06 00 00 00 06 00 02 03 	bne $3,$2,40c788 <fwrite+0xf8>
  40c770:	28 00 00 00 1c 00 02 11 	lw $2,28($17)
  40c778:	4f 00 00 00 02 00 02 02 	andi $2,$2,2
  40c780:	06 00 00 00 08 00 00 02 	bne $2,$0,40c7a8 <fwrite+0x118>
  40c788:	43 00 00 00 16 00 02 00 	addiu $2,$0,22
  40c790:	34 00 00 00 60 84 02 1c 	sw $2,-31648($28)
  40c798:	42 00 00 00 00 02 00 00 	addu $2,$0,$0
  40c7a0:	01 00 00 00 44 33 10 00 	j 40cd10 <fwrite+0x680>
  40c7a8:	28 00 00 00 4c 00 03 11 	lw $3,76($17)
  40c7b0:	4f 00 00 00 00 04 02 03 	andi $2,$3,1024
  40c7b8:	06 00 00 00 f6 ff 00 02 	bne $2,$0,40c798 <fwrite+0x108>
  40c7c0:	05 00 00 00 f4 ff 00 14 	beq $20,$0,40c798 <fwrite+0x108>
  40c7c8:	05 00 00 00 f2 ff 00 13 	beq $19,$0,40c798 <fwrite+0x108>
  40c7d0:	4f 00 00 00 00 40 02 03 	andi $2,$3,16384
  40c7d8:	05 00 00 00 06 00 00 02 	beq $2,$0,40c7f8 <fwrite+0x168>
  40c7e0:	28 00 00 00 0c 00 03 11 	lw $3,12($17)
  40c7e8:	28 00 00 00 10 00 02 11 	lw $2,16($17)
  40c7f0:	06 00 00 00 16 00 02 03 	bne $3,$2,40c850 <fwrite+0x1c0>
  40c7f8:	22 00 00 00 00 00 05 14 	lbu $5,0($20)
  40c800:	42 00 00 00 00 04 11 00 	addu $4,$0,$17
  40c808:	43 00 00 00 01 00 14 14 	addiu $20,$20,1
  40c810:	02 00 00 00 84 0f 10 00 	jal 403e10 <__flshfp>
  40c818:	43 00 00 00 ff ff 03 00 	addiu $3,$0,-1
  40c820:	05 00 00 00 dc ff 03 02 	beq $2,$3,40c798 <fwrite+0x108>
  40c828:	43 00 00 00 ff ff 13 13 	addiu $19,$19,-1
  40c830:	06 00 00 00 04 00 00 13 	bne $19,$0,40c848 <fwrite+0x1b8>
  40c838:	43 00 00 00 01 00 02 00 	addiu $2,$0,1
  40c840:	01 00 00 00 44 33 10 00 	j 40cd10 <fwrite+0x680>
  40c848:	43 00 00 00 01 00 15 00 	addiu $21,$0,1
  40c850:	28 00 00 00 38 00 02 11 	lw $2,56($17)
  40c858:	a2 00 00 00 01 10 03 00 	lui $3,4097
  40c860:	28 00 00 00 04 23 03 03 	lw $3,8964($3)
  40c868:	42 00 00 00 00 04 11 00 	addu $4,$0,$17
  40c870:	28 00 00 00 60 84 12 1c 	lw $18,-31648($28)
  40c878:	52 00 00 00 00 02 03 02 	xor $2,$2,$3
  40c880:	5e 00 00 00 01 00 10 02 	sltiu $16,$2,1
  40c888:	02 00 00 00 b6 0b 10 00 	jal 402ed8 <__stdio_check_offset>
  40c890:	43 00 00 00 ff ff 03 00 	addiu $3,$0,-1
  40c898:	06 00 00 00 06 00 03 02 	bne $2,$3,40c8b8 <fwrite+0x228>
  40c8a0:	28 00 00 00 60 84 03 1c 	lw $3,-31648($28)
  40c8a8:	43 00 00 00 1d 00 02 00 	addiu $2,$0,29
  40c8b0:	06 00 00 00 32 00 02 03 	bne $3,$2,40c980 <fwrite+0x2f0>
  40c8b8:	28 00 00 00 10 00 02 11 	lw $2,16($17)
  40c8c0:	34 00 00 00 60 84 12 1c 	sw $18,-31648($28)
  40c8c8:	06 00 00 00 34 00 00 02 	bne $2,$0,40c9a0 <fwrite+0x310>
  40c8d0:	05 00 00 00 32 00 00 10 	beq $16,$0,40c9a0 <fwrite+0x310>
  40c8d8:	28 00 00 00 3c 00 03 11 	lw $3,60($17)
  40c8e0:	28 00 00 00 40 00 02 11 	lw $2,64($17)
  40c8e8:	06 00 00 00 2c 00 02 03 	bne $3,$2,40c9a0 <fwrite+0x310>
  40c8f0:	28 00 00 00 24 00 02 11 	lw $2,36($17)
  40c8f8:	06 00 00 00 04 00 00 02 	bne $2,$0,40c910 <fwrite+0x280>
  40c900:	42 00 00 00 00 06 13 00 	addu $6,$0,$19
  40c908:	01 00 00 00 4e 32 10 00 	j 40c938 <fwrite+0x2a8>
  40c910:	28 00 00 00 18 00 04 11 	lw $4,24($17)
  40c918:	42 00 00 00 00 05 14 00 	addu $5,$0,$20
  40c920:	42 00 00 00 00 06 13 00 	addu $6,$0,$19
  40c928:	04 00 00 00 00 1f 00 02 	jalr $31,$2
  40c930:	42 00 00 00 00 06 02 00 	addu $6,$0,$2
  40c938:	07 00 00 00 10 00 00 06 	blez $6,40c980 <fwrite+0x2f0>
  40c940:	28 00 00 00 3c 00 03 11 	lw $3,60($17)
  40c948:	42 00 00 00 00 15 06 15 	addu $21,$21,$6
  40c950:	43 00 00 00 ff ff 02 00 	addiu $2,$0,-1
  40c958:	05 00 00 00 e4 00 02 03 	beq $3,$2,40ccf0 <fwrite+0x660>
  40c960:	42 00 00 00 00 02 03 06 	addu $2,$6,$3
  40c968:	34 00 00 00 3c 00 02 11 	sw $2,60($17)
  40c970:	34 00 00 00 40 00 02 11 	sw $2,64($17)
  40c978:	01 00 00 00 3c 33 10 00 	j 40ccf0 <fwrite+0x660>
  40c980:	28 00 00 00 4c 00 02 11 	lw $2,76($17)
  40c988:	51 00 00 00 00 04 02 02 	ori $2,$2,1024
  40c990:	34 00 00 00 4c 00 02 11 	sw $2,76($17)
  40c998:	01 00 00 00 3c 33 10 00 	j 40ccf0 <fwrite+0x660>
  40c9a0:	42 00 00 00 00 16 00 00 	addu $22,$0,$0
  40c9a8:	28 00 00 00 04 00 03 11 	lw $3,4($17)
  40c9b0:	28 00 00 00 10 00 04 11 	lw $4,16($17)
  40c9b8:	28 00 00 00 14 00 05 11 	lw $5,20($17)
  40c9c0:	28 00 00 00 4c 00 02 11 	lw $2,76($17)
  40c9c8:	45 00 00 00 00 03 04 03 	subu $3,$3,$4
  40c9d0:	45 00 00 00 00 12 03 05 	subu $18,$5,$3
  40c9d8:	4f 00 00 00 00 10 02 02 	andi $2,$2,4096
  40c9e0:	05 00 00 00 0a 00 00 02 	beq $2,$0,40ca10 <fwrite+0x380>
  40c9e8:	42 00 00 00 00 04 14 00 	addu $4,$0,$20
  40c9f0:	43 00 00 00 0a 00 05 00 	addiu $5,$0,10
  40c9f8:	42 00 00 00 00 06 13 00 	addu $6,$0,$19
  40ca00:	02 00 00 00 8c 4d 10 00 	jal 413630 <memchr>
  40ca08:	5d 00 00 00 00 16 02 00 	sltu $22,$0,$2
  40ca10:	05 00 00 00 0c 00 00 16 	beq $22,$0,40ca48 <fwrite+0x3b8>
  40ca18:	28 00 00 00 04 00 03 11 	lw $3,4($17)
  40ca20:	28 00 00 00 10 00 02 11 	lw $2,16($17)
  40ca28:	06 00 00 00 06 00 02 03 	bne $3,$2,40ca48 <fwrite+0x3b8>
  40ca30:	28 00 00 00 3c 00 03 11 	lw $3,60($17)
  40ca38:	28 00 00 00 40 00 02 11 	lw $2,64($17)
  40ca40:	05 00 00 00 aa ff 02 03 	beq $3,$2,40c8f0 <fwrite+0x260>
  40ca48:	28 00 00 00 14 00 02 11 	lw $2,20($17)
  40ca50:	06 00 00 00 1e 00 00 02 	bne $2,$0,40cad0 <fwrite+0x440>
  40ca58:	06 00 00 00 1e 00 00 10 	bne $16,$0,40cad8 <fwrite+0x448>
  40ca60:	42 00 00 00 00 02 13 00 	addu $2,$0,$19
  40ca68:	43 00 00 00 ff ff 13 13 	addiu $19,$19,-1
  40ca70:	05 00 00 00 9e 00 00 02 	beq $2,$0,40ccf0 <fwrite+0x660>
  40ca78:	43 00 00 00 ff ff 10 00 	addiu $16,$0,-1
  40ca80:	22 00 00 00 00 00 05 14 	lbu $5,0($20)
  40ca88:	42 00 00 00 00 04 11 00 	addu $4,$0,$17
  40ca90:	43 00 00 00 01 00 14 14 	addiu $20,$20,1
  40ca98:	02 00 00 00 84 0f 10 00 	jal 403e10 <__flshfp>
  40caa0:	05 00 00 00 92 00 10 02 	beq $2,$16,40ccf0 <fwrite+0x660>
  40caa8:	43 00 00 00 01 00 15 15 	addiu $21,$21,1
  40cab0:	42 00 00 00 00 02 13 00 	addu $2,$0,$19
  40cab8:	43 00 00 00 ff ff 13 13 	addiu $19,$19,-1
  40cac0:	06 00 00 00 ee ff 00 02 	bne $2,$0,40ca80 <fwrite+0x3f0>
  40cac8:	01 00 00 00 3c 33 10 00 	j 40ccf0 <fwrite+0x660>
  40cad0:	05 00 00 00 04 00 00 10 	beq $16,$0,40cae8 <fwrite+0x458>
  40cad8:	5d 00 00 00 00 02 13 12 	sltu $2,$18,$19
  40cae0:	06 00 00 00 5a 00 00 02 	bne $2,$0,40cc50 <fwrite+0x5c0>
  40cae8:	05 00 00 00 80 00 00 13 	beq $19,$0,40ccf0 <fwrite+0x660>
  40caf0:	43 00 00 00 ff ff 1e 00 	addiu $30,$0,-1
  40caf8:	42 00 00 00 00 10 13 00 	addu $16,$0,$19
  40cb00:	5d 00 00 00 00 02 13 12 	sltu $2,$18,$19
  40cb08:	05 00 00 00 02 00 00 02 	beq $2,$0,40cb18 <fwrite+0x488>
  40cb10:	42 00 00 00 00 10 12 00 	addu $16,$0,$18
  40cb18:	45 00 00 00 00 12 10 12 	subu $18,$18,$16
  40cb20:	42 00 00 00 00 15 10 15 	addu $21,$21,$16
  40cb28:	45 00 00 00 00 13 10 13 	subu $19,$19,$16
  40cb30:	5e 00 00 00 14 00 02 10 	sltiu $2,$16,20
  40cb38:	05 00 00 00 1a 00 00 02 	beq $2,$0,40cba8 <fwrite+0x518>
  40cb40:	42 00 00 00 00 02 10 00 	addu $2,$0,$16
  40cb48:	43 00 00 00 ff ff 10 10 	addiu $16,$16,-1
  40cb50:	05 00 00 00 24 00 00 02 	beq $2,$0,40cbe8 <fwrite+0x558>
  40cb58:	28 00 00 00 04 00 03 11 	lw $3,4($17)
  40cb60:	43 00 00 00 01 00 02 03 	addiu $2,$3,1
  40cb68:	34 00 00 00 04 00 02 11 	sw $2,4($17)
  40cb70:	22 00 00 00 00 00 02 14 	lbu $2,0($20)
  40cb78:	42 00 00 00 00 04 10 00 	addu $4,$0,$16
  40cb80:	43 00 00 00 ff ff 10 10 	addiu $16,$16,-1
  40cb88:	43 00 00 00 01 00 14 14 	addiu $20,$20,1
  40cb90:	30 00 00 00 00 00 02 03 	sb $2,0($3)
  40cb98:	06 00 00 00 ee ff 00 04 	bne $4,$0,40cb58 <fwrite+0x4c8>
  40cba0:	01 00 00 00 fa 32 10 00 	j 40cbe8 <fwrite+0x558>
  40cba8:	28 00 00 00 04 00 04 11 	lw $4,4($17)
  40cbb0:	42 00 00 00 00 05 14 00 	addu $5,$0,$20
  40cbb8:	42 00 00 00 00 06 10 00 	addu $6,$0,$16
  40cbc0:	02 00 00 00 94 47 10 00 	jal 411e50 <memcpy>
  40cbc8:	28 00 00 00 04 00 02 11 	lw $2,4($17)
  40cbd0:	42 00 00 00 00 14 10 14 	addu $20,$20,$16
  40cbd8:	42 00 00 00 00 02 02 10 	addu $2,$16,$2
  40cbe0:	34 00 00 00 04 00 02 11 	sw $2,4($17)
  40cbe8:	05 00 00 00 04 00 00 12 	beq $18,$0,40cc00 <fwrite+0x570>
  40cbf0:	06 00 00 00 be ff 00 13 	bne $19,$0,40caf0 <fwrite+0x460>
  40cbf8:	05 00 00 00 10 00 00 16 	beq $22,$0,40cc40 <fwrite+0x5b0>
  40cc00:	42 00 00 00 00 04 11 00 	addu $4,$0,$17
  40cc08:	02 00 00 00 74 46 10 00 	jal 4119d0 <fflush>
  40cc10:	05 00 00 00 36 00 1e 02 	beq $2,$30,40ccf0 <fwrite+0x660>
  40cc18:	28 00 00 00 04 00 02 11 	lw $2,4($17)
  40cc20:	28 00 00 00 10 00 03 11 	lw $3,16($17)
  40cc28:	28 00 00 00 14 00 04 11 	lw $4,20($17)
  40cc30:	45 00 00 00 00 02 03 02 	subu $2,$2,$3
  40cc38:	45 00 00 00 00 12 02 04 	subu $18,$4,$2
  40cc40:	06 00 00 00 ac ff 00 13 	bne $19,$0,40caf8 <fwrite+0x468>
  40cc48:	01 00 00 00 3c 33 10 00 	j 40ccf0 <fwrite+0x660>
  40cc50:	28 00 00 00 04 00 03 11 	lw $3,4($17)
  40cc58:	28 00 00 00 10 00 02 11 	lw $2,16($17)
  40cc60:	05 00 00 00 0a 00 02 03 	beq $3,$2,40cc90 <fwrite+0x600>
  40cc68:	42 00 00 00 00 04 11 00 	addu $4,$0,$17
  40cc70:	43 00 00 00 ff ff 05 00 	addiu $5,$0,-1
  40cc78:	02 00 00 00 84 0f 10 00 	jal 403e10 <__flshfp>
  40cc80:	43 00 00 00 ff ff 03 00 	addiu $3,$0,-1
  40cc88:	05 00 00 00 18 00 03 02 	beq $2,$3,40ccf0 <fwrite+0x660>
  40cc90:	28 00 00 00 04 00 02 11 	lw $2,4($17)
  40cc98:	28 00 00 00 10 00 04 11 	lw $4,16($17)
  40cca0:	28 00 00 00 14 00 05 11 	lw $5,20($17)
  40cca8:	28 00 00 00 3c 00 06 11 	lw $6,60($17)
  40ccb0:	28 00 00 00 40 00 03 11 	lw $3,64($17)
  40ccb8:	45 00 00 00 00 02 04 02 	subu $2,$2,$4
  40ccc0:	45 00 00 00 00 12 02 05 	subu $18,$5,$2
  40ccc8:	06 00 00 00 86 ff 03 06 	bne $6,$3,40cae8 <fwrite+0x458>
  40ccd0:	5d 00 00 00 00 02 13 12 	sltu $2,$18,$19
  40ccd8:	06 00 00 00 04 ff 00 02 	bne $2,$0,40c8f0 <fwrite+0x260>
  40cce0:	06 00 00 00 02 ff 00 16 	bne $22,$0,40c8f0 <fwrite+0x260>
  40cce8:	01 00 00 00 ba 32 10 00 	j 40cae8 <fwrite+0x458>
  40ccf0:	49 00 00 00 00 00 17 15 	divu $0,$21,$23
  40ccf8:	06 00 00 00 02 00 00 17 	bne $23,$0,40cd08 <fwrite+0x678>
  40cd00:	a1 00 00 00 07 00 00 00 	break 
  40cd08:	4c 00 00 00 00 02 00 00 	mflo $2
  40cd10:	28 00 00 00 34 00 1f 1d 	lw $31,52($29)
  40cd18:	28 00 00 00 30 00 1e 1d 	lw $30,48($29)
  40cd20:	28 00 00 00 2c 00 17 1d 	lw $23,44($29)
  40cd28:	28 00 00 00 28 00 16 1d 	lw $22,40($29)
  40cd30:	28 00 00 00 24 00 15 1d 	lw $21,36($29)
  40cd38:	28 00 00 00 20 00 14 1d 	lw $20,32($29)
  40cd40:	28 00 00 00 1c 00 13 1d 	lw $19,28($29)
  40cd48:	28 00 00 00 18 00 12 1d 	lw $18,24($29)
  40cd50:	28 00 00 00 14 00 11 1d 	lw $17,20($29)
  40cd58:	28 00 00 00 10 00 10 1d 	lw $16,16($29)
  40cd60:	43 00 00 00 38 00 1d 1d 	addiu $29,$29,56
  40cd68:	03 00 00 00 00 00 00 1f 	jr $31

0040cd70 <_itoa>:
  40cd70:	43 00 00 00 c8 ff 1d 1d 	addiu $29,$29,-56
  40cd78:	28 00 00 00 48 00 02 1d 	lw $2,72($29)
  40cd80:	34 00 00 00 24 00 13 1d 	sw $19,36($29)
  40cd88:	34 00 00 00 20 00 12 1d 	sw $18,32($29)
  40cd90:	42 00 00 00 00 12 04 00 	addu $18,$0,$4
  40cd98:	42 00 00 00 00 13 05 00 	addu $19,$0,$5
  40cda0:	34 00 00 00 30 00 16 1d 	sw $22,48($29)
  40cda8:	42 00 00 00 00 16 07 00 	addu $22,$0,$7
  40cdb0:	34 00 00 00 2c 00 15 1d 	sw $21,44($29)
  40cdb8:	a2 00 00 00 00 10 15 00 	lui $21,4096
  40cdc0:	43 00 00 00 40 0e 15 15 	addiu $21,$21,3648
  40cdc8:	34 00 00 00 34 00 1f 1d 	sw $31,52($29)
  40cdd0:	34 00 00 00 28 00 14 1d 	sw $20,40($29)
  40cdd8:	34 00 00 00 1c 00 11 1d 	sw $17,28($29)
  40cde0:	34 00 00 00 18 00 10 1d 	sw $16,24($29)
  40cde8:	05 00 00 00 04 00 00 02 	beq $2,$0,40ce00 <_itoa+0x90>
  40cdf0:	a2 00 00 00 00 10 15 00 	lui $21,4096
  40cdf8:	43 00 00 00 68 0e 15 15 	addiu $21,$21,3688
  40ce00:	42 00 00 00 00 14 06 00 	addu $20,$0,$6
  40ce08:	06 00 00 00 02 00 00 12 	bne $18,$0,40ce18 <_itoa+0xa8>
  40ce10:	05 00 00 00 28 00 00 13 	beq $19,$0,40ceb8 <_itoa+0x148>
  40ce18:	43 00 00 00 ff ff 14 14 	addiu $20,$20,-1
  40ce20:	42 00 00 00 00 10 16 00 	addu $16,$0,$22
  40ce28:	42 00 00 00 00 11 00 00 	addu $17,$0,$0
  40ce30:	42 00 00 00 00 04 12 00 	addu $4,$0,$18
  40ce38:	42 00 00 00 00 05 13 00 	addu $5,$0,$19
  40ce40:	42 00 00 00 00 06 10 00 	addu $6,$0,$16
  40ce48:	42 00 00 00 00 07 11 00 	addu $7,$0,$17
  40ce50:	02 00 00 00 5c 62 10 00 	jal 418970 <__umoddi3>
  40ce58:	42 00 00 00 00 02 02 15 	addu $2,$21,$2
  40ce60:	22 00 00 00 00 00 02 02 	lbu $2,0($2)
  40ce68:	42 00 00 00 00 04 12 00 	addu $4,$0,$18
  40ce70:	42 00 00 00 00 05 13 00 	addu $5,$0,$19
  40ce78:	42 00 00 00 00 06 10 00 	addu $6,$0,$16
  40ce80:	42 00 00 00 00 07 11 00 	addu $7,$0,$17
  40ce88:	30 00 00 00 00 00 02 14 	sb $2,0($20)
  40ce90:	02 00 00 00 70 62 10 00 	jal 4189c0 <__udivdi3>
  40ce98:	42 00 00 00 00 12 02 00 	addu $18,$0,$2
  40cea0:	42 00 00 00 00 13 03 00 	addu $19,$0,$3
  40cea8:	06 00 00 00 da ff 00 12 	bne $18,$0,40ce18 <_itoa+0xa8>
  40ceb0:	06 00 00 00 d8 ff 00 13 	bne $19,$0,40ce18 <_itoa+0xa8>
  40ceb8:	42 00 00 00 00 02 14 00 	addu $2,$0,$20
  40cec0:	28 00 00 00 34 00 1f 1d 	lw $31,52($29)
  40cec8:	28 00 00 00 30 00 16 1d 	lw $22,48($29)
  40ced0:	28 00 00 00 2c 00 15 1d 	lw $21,44($29)
  40ced8:	28 00 00 00 28 00 14 1d 	lw $20,40($29)
  40cee0:	28 00 00 00 24 00 13 1d 	lw $19,36($29)
  40cee8:	28 00 00 00 20 00 12 1d 	lw $18,32($29)
  40cef0:	28 00 00 00 1c 00 11 1d 	lw $17,28($29)
  40cef8:	28 00 00 00 18 00 10 1d 	lw $16,24($29)
  40cf00:	43 00 00 00 38 00 1d 1d 	addiu $29,$29,56
  40cf08:	03 00 00 00 00 00 00 1f 	jr $31

0040cf10 <__printf_fp>:
  40cf10:	43 00 00 00 50 f8 1d 1d 	addiu $29,$29,-1968
  40cf18:	34 00 00 00 98 07 16 1d 	sw $22,1944($29)
  40cf20:	42 00 00 00 00 16 04 00 	addu $22,$0,$4
  40cf28:	34 00 00 00 a4 07 1f 1d 	sw $31,1956($29)
  40cf30:	34 00 00 00 a0 07 1e 1d 	sw $30,1952($29)
  40cf38:	34 00 00 00 9c 07 17 1d 	sw $23,1948($29)
  40cf40:	34 00 00 00 94 07 15 1d 	sw $21,1940($29)
  40cf48:	34 00 00 00 90 07 14 1d 	sw $20,1936($29)
  40cf50:	34 00 00 00 8c 07 13 1d 	sw $19,1932($29)
  40cf58:	34 00 00 00 88 07 12 1d 	sw $18,1928($29)
  40cf60:	34 00 00 00 84 07 11 1d 	sw $17,1924($29)
  40cf68:	34 00 00 00 80 07 10 1d 	sw $16,1920($29)
  40cf70:	36 00 00 00 a8 07 14 1d 	s.s $f20,1960($29)
  40cf78:	36 00 00 00 ac 07 15 1d 	s.s $f21,1964($29)
  40cf80:	28 00 00 00 00 00 09 05 	lw $9,0($5)
  40cf88:	28 00 00 00 68 81 04 1c 	lw $4,-32408($28)
  40cf90:	42 00 00 00 00 1e 1d 00 	addu $30,$0,$29
  40cf98:	34 00 00 00 b0 06 09 1e 	sw $9,1712($30)
  40cfa0:	28 00 00 00 04 00 09 05 	lw $9,4($5)
  40cfa8:	34 00 00 00 90 06 05 1e 	sw $5,1680($30)
  40cfb0:	34 00 00 00 98 06 00 1e 	sw $0,1688($30)
  40cfb8:	34 00 00 00 b8 06 09 1e 	sw $9,1720($30)
  40cfc0:	22 00 00 00 08 00 02 05 	lbu $2,8($5)
  40cfc8:	28 00 00 00 24 81 03 1c 	lw $3,-32476($28)
  40cfd0:	28 00 00 00 00 00 04 04 	lw $4,0($4)
  40cfd8:	55 00 00 00 01 02 02 00 	sll $2,$2,0x1
  40cfe0:	42 00 00 00 00 02 03 02 	addu $2,$2,$3
  40cfe8:	22 00 00 00 00 00 02 02 	lbu $2,0($2)
  40cff0:	28 00 00 00 b0 06 03 1e 	lw $3,1712($30)
  40cff8:	30 00 00 00 a8 06 02 1e 	sb $2,1704($30)
  40d000:	5c 00 00 00 0f 00 02 03 	slti $2,$3,15
  40d008:	34 00 00 00 a0 06 04 1e 	sw $4,1696($30)
  40d010:	05 00 00 00 02 00 00 02 	beq $2,$0,40d020 <__printf_fp+0x110>
  40d018:	43 00 00 00 0f 00 03 00 	addiu $3,$0,15
  40d020:	43 00 00 00 45 01 02 03 	addiu $2,$3,325
  40d028:	57 00 00 00 03 02 02 00 	srl $2,$2,0x3
  40d030:	55 00 00 00 03 02 02 00 	sll $2,$2,0x3
  40d038:	45 00 00 00 00 1d 02 1d 	subu $29,$29,$2
  40d040:	28 00 00 00 00 00 02 1d 	lw $2,0($29)
  40d048:	43 00 00 00 18 00 09 1d 	addiu $9,$29,24
  40d050:	34 00 00 00 c0 06 09 1e 	sw $9,1728($30)
  40d058:	28 00 00 00 90 06 09 1e 	lw $9,1680($30)
  40d060:	28 00 00 00 c0 06 17 1e 	lw $23,1728($30)
  40d068:	42 00 00 00 00 13 00 00 	addu $19,$0,$0
  40d070:	28 00 00 00 00 00 02 06 	lw $2,0($6)
  40d078:	43 00 00 00 f8 ff 03 00 	addiu $3,$0,-8
  40d080:	43 00 00 00 07 00 02 02 	addiu $2,$2,7
  40d088:	4e 00 00 00 00 02 03 02 	and $2,$2,$3
  40d090:	43 00 00 00 08 00 03 02 	addiu $3,$2,8
  40d098:	34 00 00 00 00 00 03 06 	sw $3,0($6)
  40d0a0:	2a 00 00 00 00 00 14 02 	l.s $f20,0($2)
  40d0a8:	2a 00 00 00 04 00 15 02 	l.s $f21,4($2)
  40d0b0:	7b 00 00 00 00 0c 00 14 	mov.d $f12,$f20
  40d0b8:	02 00 00 00 08 4e 10 00 	jal 413820 <__isnan>
  40d0c0:	05 00 00 00 04 00 00 02 	beq $2,$0,40d0d8 <__printf_fp+0x1c8>
  40d0c8:	43 00 00 00 40 81 13 1c 	addiu $19,$28,-32448
  40d0d0:	01 00 00 00 4a 34 10 00 	j 40d128 <__printf_fp+0x218>
  40d0d8:	7b 00 00 00 00 0c 00 14 	mov.d $f12,$f20
  40d0e0:	02 00 00 00 28 4e 10 00 	jal 4138a0 <__isinf>
  40d0e8:	05 00 00 00 10 00 00 02 	beq $2,$0,40d130 <__printf_fp+0x220>
  40d0f0:	a5 00 00 00 00 00 00 00 	mtc1 $0,$f0
  40d0f8:	a5 00 00 00 00 00 00 01 	mtc1 $0,$f1
  40d100:	43 00 00 00 44 81 13 1c 	addiu $19,$28,-32444
  40d108:	43 00 00 00 01 00 02 00 	addiu $2,$0,1
  40d110:	93 00 00 00 00 00 00 14 	c.lt.d $f20,$f0
  40d118:	34 00 00 00 f8 05 02 1e 	sw $2,1528($30)
  40d120:	0c 00 00 00 02 00 00 00 	bc1t 40d130 <__printf_fp+0x220>
  40d128:	34 00 00 00 f8 05 00 1e 	sw $0,1528($30)
  40d130:	05 00 00 00 1a 01 00 13 	beq $19,$0,40d5a0 <__printf_fp+0x690>
  40d138:	28 00 00 00 90 06 09 1e 	lw $9,1680($30)
  40d140:	28 00 00 00 00 00 10 09 	lw $16,0($9)
  40d148:	28 00 00 00 04 00 03 09 	lw $3,4($9)
  40d150:	5b 00 00 00 00 02 03 10 	slt $2,$16,$3
  40d158:	05 00 00 00 02 00 00 02 	beq $2,$0,40d168 <__printf_fp+0x258>
  40d160:	42 00 00 00 00 10 03 00 	addu $16,$0,$3
  40d168:	28 00 00 00 f8 05 02 1e 	lw $2,1528($30)
  40d170:	06 00 00 00 08 00 00 02 	bne $2,$0,40d198 <__printf_fp+0x288>
  40d178:	28 00 00 00 90 06 09 1e 	lw $9,1680($30)
  40d180:	28 00 00 00 08 00 02 09 	lw $2,8($9)
  40d188:	4f 00 00 00 00 50 02 02 	andi $2,$2,20480
  40d190:	05 00 00 00 02 00 00 02 	beq $2,$0,40d1a0 <__printf_fp+0x290>
  40d198:	43 00 00 00 ff ff 10 10 	addiu $16,$16,-1
  40d1a0:	28 00 00 00 90 06 09 1e 	lw $9,1680($30)
  40d1a8:	28 00 00 00 08 00 02 09 	lw $2,8($9)
  40d1b0:	43 00 00 00 fd ff 10 10 	addiu $16,$16,-3
  40d1b8:	4f 00 00 00 00 20 02 02 	andi $2,$2,8192
  40d1c0:	06 00 00 00 30 00 00 02 	bne $2,$0,40d288 <__printf_fp+0x378>
  40d1c8:	42 00 00 00 00 02 10 00 	addu $2,$0,$16
  40d1d0:	43 00 00 00 ff ff 10 10 	addiu $16,$16,-1
  40d1d8:	07 00 00 00 2a 00 00 02 	blez $2,40d288 <__printf_fp+0x378>
  40d1e0:	43 00 00 00 ff ff 12 00 	addiu $18,$0,-1
  40d1e8:	43 00 00 00 20 00 11 00 	addiu $17,$0,32
  40d1f0:	28 00 00 00 04 00 03 16 	lw $3,4($22)
  40d1f8:	28 00 00 00 0c 00 02 16 	lw $2,12($22)
  40d200:	5d 00 00 00 00 02 02 03 	sltu $2,$3,$2
  40d208:	06 00 00 00 0c 00 00 02 	bne $2,$0,40d240 <__printf_fp+0x330>
  40d210:	42 00 00 00 00 04 16 00 	addu $4,$0,$22
  40d218:	43 00 00 00 20 00 05 00 	addiu $5,$0,32
  40d220:	02 00 00 00 84 0f 10 00 	jal 403e10 <__flshfp>
  40d228:	06 00 00 00 0a 00 12 02 	bne $2,$18,40d258 <__printf_fp+0x348>
  40d230:	43 00 00 00 ff ff 02 00 	addiu $2,$0,-1
  40d238:	01 00 00 00 42 46 10 00 	j 411908 <__printf_fp+0x49f8>
  40d240:	43 00 00 00 01 00 02 03 	addiu $2,$3,1
  40d248:	34 00 00 00 04 00 02 16 	sw $2,4($22)
  40d250:	30 00 00 00 00 00 11 03 	sb $17,0($3)
  40d258:	28 00 00 00 98 06 09 1e 	lw $9,1688($30)
  40d260:	43 00 00 00 01 00 09 09 	addiu $9,$9,1
  40d268:	34 00 00 00 98 06 09 1e 	sw $9,1688($30)
  40d270:	42 00 00 00 00 02 10 00 	addu $2,$0,$16
  40d278:	43 00 00 00 ff ff 10 10 	addiu $16,$16,-1
  40d280:	08 00 00 00 da ff 00 02 	bgtz $2,40d1f0 <__printf_fp+0x2e0>
  40d288:	28 00 00 00 f8 05 02 1e 	lw $2,1528($30)
  40d290:	05 00 00 00 16 00 00 02 	beq $2,$0,40d2f0 <__printf_fp+0x3e0>
  40d298:	28 00 00 00 04 00 03 16 	lw $3,4($22)
  40d2a0:	28 00 00 00 0c 00 02 16 	lw $2,12($22)
  40d2a8:	5d 00 00 00 00 02 02 03 	sltu $2,$3,$2
  40d2b0:	06 00 00 00 06 00 00 02 	bne $2,$0,40d2d0 <__printf_fp+0x3c0>
  40d2b8:	42 00 00 00 00 04 16 00 	addu $4,$0,$22
  40d2c0:	43 00 00 00 2d 00 05 00 	addiu $5,$0,45
  40d2c8:	01 00 00 00 ea 34 10 00 	j 40d3a8 <__printf_fp+0x498>
  40d2d0:	43 00 00 00 01 00 02 03 	addiu $2,$3,1
  40d2d8:	34 00 00 00 04 00 02 16 	sw $2,4($22)
  40d2e0:	43 00 00 00 2d 00 02 00 	addiu $2,$0,45
  40d2e8:	01 00 00 00 f8 34 10 00 	j 40d3e0 <__printf_fp+0x4d0>
  40d2f0:	28 00 00 00 90 06 09 1e 	lw $9,1680($30)
  40d2f8:	28 00 00 00 08 00 03 09 	lw $3,8($9)
  40d300:	4f 00 00 00 00 40 02 03 	andi $2,$3,16384
  40d308:	05 00 00 00 16 00 00 02 	beq $2,$0,40d368 <__printf_fp+0x458>
  40d310:	28 00 00 00 04 00 03 16 	lw $3,4($22)
  40d318:	28 00 00 00 0c 00 02 16 	lw $2,12($22)
  40d320:	5d 00 00 00 00 02 02 03 	sltu $2,$3,$2
  40d328:	06 00 00 00 06 00 00 02 	bne $2,$0,40d348 <__printf_fp+0x438>
  40d330:	42 00 00 00 00 04 16 00 	addu $4,$0,$22
  40d338:	43 00 00 00 2b 00 05 00 	addiu $5,$0,43
  40d340:	01 00 00 00 ea 34 10 00 	j 40d3a8 <__printf_fp+0x498>
  40d348:	43 00 00 00 01 00 02 03 	addiu $2,$3,1
  40d350:	34 00 00 00 04 00 02 16 	sw $2,4($22)
  40d358:	43 00 00 00 2b 00 02 00 	addiu $2,$0,43
  40d360:	01 00 00 00 f8 34 10 00 	j 40d3e0 <__printf_fp+0x4d0>
  40d368:	4f 00 00 00 00 10 02 03 	andi $2,$3,4096
  40d370:	05 00 00 00 22 00 00 02 	beq $2,$0,40d400 <__printf_fp+0x4f0>
  40d378:	28 00 00 00 04 00 03 16 	lw $3,4($22)
  40d380:	28 00 00 00 0c 00 02 16 	lw $2,12($22)
  40d388:	5d 00 00 00 00 02 02 03 	sltu $2,$3,$2
  40d390:	06 00 00 00 0c 00 00 02 	bne $2,$0,40d3c8 <__printf_fp+0x4b8>
  40d398:	42 00 00 00 00 04 16 00 	addu $4,$0,$22
  40d3a0:	43 00 00 00 20 00 05 00 	addiu $5,$0,32
  40d3a8:	02 00 00 00 84 0f 10 00 	jal 403e10 <__flshfp>
  40d3b0:	43 00 00 00 ff ff 03 00 	addiu $3,$0,-1
  40d3b8:	06 00 00 00 0a 00 03 02 	bne $2,$3,40d3e8 <__printf_fp+0x4d8>
  40d3c0:	01 00 00 00 8c 34 10 00 	j 40d230 <__printf_fp+0x320>
  40d3c8:	43 00 00 00 01 00 02 03 	addiu $2,$3,1
  40d3d0:	34 00 00 00 04 00 02 16 	sw $2,4($22)
  40d3d8:	43 00 00 00 20 00 02 00 	addiu $2,$0,32
  40d3e0:	30 00 00 00 00 00 02 03 	sb $2,0($3)
  40d3e8:	28 00 00 00 98 06 09 1e 	lw $9,1688($30)
  40d3f0:	43 00 00 00 01 00 09 09 	addiu $9,$9,1
  40d3f8:	34 00 00 00 98 06 09 1e 	sw $9,1688($30)
  40d400:	43 00 00 00 02 00 11 00 	addiu $17,$0,2
  40d408:	43 00 00 00 ff ff 12 00 	addiu $18,$0,-1
  40d410:	20 00 00 00 00 00 05 13 	lb $5,0($19)
  40d418:	28 00 00 00 04 00 03 16 	lw $3,4($22)
  40d420:	28 00 00 00 0c 00 02 16 	lw $2,12($22)
  40d428:	43 00 00 00 01 00 13 13 	addiu $19,$19,1
  40d430:	5d 00 00 00 00 02 02 03 	sltu $2,$3,$2
  40d438:	05 00 00 00 0c 00 00 02 	beq $2,$0,40d470 <__printf_fp+0x560>
  40d440:	43 00 00 00 01 00 02 03 	addiu $2,$3,1
  40d448:	34 00 00 00 04 00 02 16 	sw $2,4($22)
  40d450:	42 00 00 00 00 02 05 00 	addu $2,$0,$5
  40d458:	30 00 00 00 00 00 02 03 	sb $2,0($3)
  40d460:	4f 00 00 00 ff 00 02 02 	andi $2,$2,255
  40d468:	01 00 00 00 22 35 10 00 	j 40d488 <__printf_fp+0x578>
  40d470:	42 00 00 00 00 04 16 00 	addu $4,$0,$22
  40d478:	4f 00 00 00 ff 00 05 05 	andi $5,$5,255
  40d480:	02 00 00 00 84 0f 10 00 	jal 403e10 <__flshfp>
  40d488:	05 00 00 00 68 ff 12 02 	beq $2,$18,40d230 <__printf_fp+0x320>
  40d490:	28 00 00 00 98 06 09 1e 	lw $9,1688($30)
  40d498:	43 00 00 00 01 00 09 09 	addiu $9,$9,1
  40d4a0:	34 00 00 00 98 06 09 1e 	sw $9,1688($30)
  40d4a8:	42 00 00 00 00 02 11 00 	addu $2,$0,$17
  40d4b0:	43 00 00 00 ff ff 11 11 	addiu $17,$17,-1
  40d4b8:	06 00 00 00 d4 ff 00 02 	bne $2,$0,40d410 <__printf_fp+0x500>
  40d4c0:	28 00 00 00 90 06 09 1e 	lw $9,1680($30)
  40d4c8:	28 00 00 00 08 00 02 09 	lw $2,8($9)
  40d4d0:	4f 00 00 00 00 20 02 02 	andi $2,$2,8192
  40d4d8:	05 00 00 00 08 11 00 02 	beq $2,$0,411900 <__printf_fp+0x49f0>
  40d4e0:	42 00 00 00 00 02 10 00 	addu $2,$0,$16
  40d4e8:	43 00 00 00 ff ff 10 10 	addiu $16,$16,-1
  40d4f0:	07 00 00 00 02 11 00 02 	blez $2,411900 <__printf_fp+0x49f0>
  40d4f8:	43 00 00 00 ff ff 12 00 	addiu $18,$0,-1
  40d500:	43 00 00 00 20 00 11 00 	addiu $17,$0,32
  40d508:	28 00 00 00 04 00 03 16 	lw $3,4($22)
  40d510:	28 00 00 00 0c 00 02 16 	lw $2,12($22)
  40d518:	5d 00 00 00 00 02 02 03 	sltu $2,$3,$2
  40d520:	06 00 00 00 0a 00 00 02 	bne $2,$0,40d550 <__printf_fp+0x640>
  40d528:	42 00 00 00 00 04 16 00 	addu $4,$0,$22
  40d530:	43 00 00 00 20 00 05 00 	addiu $5,$0,32
  40d538:	02 00 00 00 84 0f 10 00 	jal 403e10 <__flshfp>
  40d540:	06 00 00 00 08 00 12 02 	bne $2,$18,40d568 <__printf_fp+0x658>
  40d548:	01 00 00 00 8c 34 10 00 	j 40d230 <__printf_fp+0x320>
  40d550:	43 00 00 00 01 00 02 03 	addiu $2,$3,1
  40d558:	34 00 00 00 04 00 02 16 	sw $2,4($22)
  40d560:	30 00 00 00 00 00 11 03 	sb $17,0($3)
  40d568:	28 00 00 00 98 06 09 1e 	lw $9,1688($30)
  40d570:	43 00 00 00 01 00 09 09 	addiu $9,$9,1
  40d578:	34 00 00 00 98 06 09 1e 	sw $9,1688($30)
  40d580:	42 00 00 00 00 02 10 00 	addu $2,$0,$16
  40d588:	43 00 00 00 ff ff 10 10 	addiu $16,$16,-1
  40d590:	08 00 00 00 dc ff 00 02 	bgtz $2,40d508 <__printf_fp+0x5f8>
  40d598:	01 00 00 00 40 46 10 00 	j 411900 <__printf_fp+0x49f0>
  40d5a0:	43 00 00 00 18 00 04 1e 	addiu $4,$30,24
  40d5a8:	43 00 00 00 23 00 05 00 	addiu $5,$0,35
  40d5b0:	43 00 00 00 f4 05 06 1e 	addiu $6,$30,1524
  40d5b8:	43 00 00 00 f8 05 07 1e 	addiu $7,$30,1528
  40d5c0:	36 00 00 00 10 00 14 1d 	s.s $f20,16($29)
  40d5c8:	36 00 00 00 14 00 15 1d 	s.s $f21,20($29)
  40d5d0:	02 00 00 00 44 4e 10 00 	jal 413910 <__mpn_extract_double>
  40d5d8:	28 00 00 00 b0 06 09 1e 	lw $9,1712($30)
  40d5e0:	42 00 00 00 00 11 02 00 	addu $17,$0,$2
  40d5e8:	43 00 00 00 ff ff 02 00 	addiu $2,$0,-1
  40d5f0:	06 00 00 00 04 00 02 09 	bne $9,$2,40d608 <__printf_fp+0x6f8>
  40d5f8:	43 00 00 00 06 00 09 00 	addiu $9,$0,6
  40d600:	01 00 00 00 92 35 10 00 	j 40d648 <__printf_fp+0x738>
  40d608:	28 00 00 00 b0 06 09 1e 	lw $9,1712($30)
  40d610:	06 00 00 00 0e 00 00 09 	bne $9,$0,40d650 <__printf_fp+0x740>
  40d618:	22 00 00 00 a8 06 09 1e 	lbu $9,1704($30)
  40d620:	55 00 00 00 18 02 09 00 	sll $2,$9,0x18
  40d628:	59 00 00 00 18 02 02 00 	sra $2,$2,0x18
  40d630:	43 00 00 00 67 00 03 00 	addiu $3,$0,103
  40d638:	06 00 00 00 4c 00 03 02 	bne $2,$3,40d770 <__printf_fp+0x860>
  40d640:	43 00 00 00 01 00 09 00 	addiu $9,$0,1
  40d648:	34 00 00 00 b0 06 09 1e 	sw $9,1712($30)
  40d650:	22 00 00 00 a8 06 09 1e 	lbu $9,1704($30)
  40d658:	43 00 00 00 67 00 03 00 	addiu $3,$0,103
  40d660:	55 00 00 00 18 02 09 00 	sll $2,$9,0x18
  40d668:	59 00 00 00 18 02 02 00 	sra $2,$2,0x18
  40d670:	06 00 00 00 3e 00 03 02 	bne $2,$3,40d770 <__printf_fp+0x860>
  40d678:	a5 00 00 00 00 00 00 00 	mtc1 $0,$f0
  40d680:	a5 00 00 00 00 00 00 01 	mtc1 $0,$f1
  40d688:	91 00 00 00 00 00 00 14 	c.eq.d $f20,$f0
  40d690:	0c 00 00 00 30 00 00 00 	bc1t 40d758 <__printf_fp+0x848>
  40d698:	28 00 00 00 f8 05 02 1e 	lw $2,1528($30)
  40d6a0:	05 00 00 00 02 00 00 02 	beq $2,$0,40d6b0 <__printf_fp+0x7a0>
  40d6a8:	7d 00 00 00 00 14 00 14 	neg.d $f20,$f20
  40d6b0:	2a 00 00 00 48 81 00 1c 	l.s $f0,-32440($28)
  40d6b8:	2a 00 00 00 4c 81 01 1c 	l.s $f1,-32436($28)
  40d6c0:	93 00 00 00 00 00 00 14 	c.lt.d $f20,$f0
  40d6c8:	0c 00 00 00 1e 00 00 00 	bc1t 40d748 <__printf_fp+0x838>
  40d6d0:	28 00 00 00 b0 06 15 1e 	lw $21,1712($30)
  40d6d8:	2a 00 00 00 50 81 00 1c 	l.s $f0,-32432($28)
  40d6e0:	2a 00 00 00 54 81 01 1c 	l.s $f1,-32428($28)
  40d6e8:	5c 00 00 00 36 00 02 15 	slti $2,$21,54
  40d6f0:	06 00 00 00 02 00 00 02 	bne $2,$0,40d700 <__printf_fp+0x7f0>
  40d6f8:	43 00 00 00 35 00 15 00 	addiu $21,$0,53
  40d700:	43 00 00 00 ff ff 15 15 	addiu $21,$21,-1
  40d708:	07 00 00 00 0e 00 00 15 	blez $21,40d748 <__printf_fp+0x838>
  40d710:	7b 00 00 00 00 02 00 00 	mov.d $f2,$f0
  40d718:	75 00 00 00 00 00 02 00 	mul.d $f0,$f0,$f2
  40d720:	93 00 00 00 00 00 00 14 	c.lt.d $f20,$f0
  40d728:	0c 00 00 00 04 00 00 00 	bc1t 40d740 <__printf_fp+0x830>
  40d730:	43 00 00 00 ff ff 15 15 	addiu $21,$21,-1
  40d738:	08 00 00 00 f6 ff 00 15 	bgtz $21,40d718 <__printf_fp+0x808>
  40d740:	08 00 00 00 04 00 00 15 	bgtz $21,40d758 <__printf_fp+0x848>
  40d748:	43 00 00 00 65 00 09 00 	addiu $9,$0,101
  40d750:	30 00 00 00 a8 06 09 1e 	sb $9,1704($30)
  40d758:	28 00 00 00 b0 06 09 1e 	lw $9,1712($30)
  40d760:	43 00 00 00 ff ff 09 09 	addiu $9,$9,-1
  40d768:	34 00 00 00 b0 06 09 1e 	sw $9,1712($30)
  40d770:	43 00 00 00 01 00 02 00 	addiu $2,$0,1
  40d778:	06 00 00 00 72 00 02 11 	bne $17,$2,40d948 <__printf_fp+0xa38>
  40d780:	28 00 00 00 18 00 02 1e 	lw $2,24($30)
  40d788:	06 00 00 00 6e 00 00 02 	bne $2,$0,40d948 <__printf_fp+0xa38>
  40d790:	43 00 00 00 30 00 02 00 	addiu $2,$0,48
  40d798:	30 00 00 00 00 00 02 17 	sb $2,0($23)
  40d7a0:	28 00 00 00 90 06 09 1e 	lw $9,1680($30)
  40d7a8:	22 00 00 00 08 00 02 09 	lbu $2,8($9)
  40d7b0:	28 00 00 00 24 81 03 1c 	lw $3,-32476($28)
  40d7b8:	55 00 00 00 01 02 02 00 	sll $2,$2,0x1
  40d7c0:	42 00 00 00 00 02 03 02 	addu $2,$2,$3
  40d7c8:	24 00 00 00 00 00 03 02 	lh $3,0($2)
  40d7d0:	43 00 00 00 01 00 17 17 	addiu $23,$23,1
  40d7d8:	43 00 00 00 67 00 02 00 	addiu $2,$0,103
  40d7e0:	06 00 00 00 06 00 02 03 	bne $3,$2,40d800 <__printf_fp+0x8f0>
  40d7e8:	28 00 00 00 08 00 02 09 	lw $2,8($9)
  40d7f0:	4f 00 00 00 00 08 02 02 	andi $2,$2,2048
  40d7f8:	05 00 00 00 2e 00 00 02 	beq $2,$0,40d8b8 <__printf_fp+0x9a8>
  40d800:	28 00 00 00 b0 06 09 1e 	lw $9,1712($30)
  40d808:	08 00 00 00 08 00 00 09 	bgtz $9,40d830 <__printf_fp+0x920>
  40d810:	28 00 00 00 90 06 09 1e 	lw $9,1680($30)
  40d818:	28 00 00 00 08 00 02 09 	lw $2,8($9)
  40d820:	4f 00 00 00 00 08 02 02 	andi $2,$2,2048
  40d828:	05 00 00 00 08 00 00 02 	beq $2,$0,40d850 <__printf_fp+0x940>
  40d830:	28 00 00 00 a0 06 09 1e 	lw $9,1696($30)
  40d838:	22 00 00 00 00 00 02 09 	lbu $2,0($9)
  40d840:	30 00 00 00 00 00 02 17 	sb $2,0($23)
  40d848:	43 00 00 00 01 00 17 17 	addiu $23,$23,1
  40d850:	28 00 00 00 b0 06 02 1e 	lw $2,1712($30)
  40d858:	42 00 00 00 00 09 02 00 	addu $9,$0,$2
  40d860:	43 00 00 00 ff ff 09 09 	addiu $9,$9,-1
  40d868:	34 00 00 00 b0 06 09 1e 	sw $9,1712($30)
  40d870:	07 00 00 00 10 00 00 02 	blez $2,40d8b8 <__printf_fp+0x9a8>
  40d878:	43 00 00 00 30 00 03 00 	addiu $3,$0,48
  40d880:	30 00 00 00 00 00 03 17 	sb $3,0($23)
  40d888:	28 00 00 00 b0 06 02 1e 	lw $2,1712($30)
  40d890:	43 00 00 00 01 00 17 17 	addiu $23,$23,1
  40d898:	42 00 00 00 00 09 02 00 	addu $9,$0,$2
  40d8a0:	43 00 00 00 ff ff 09 09 	addiu $9,$9,-1
  40d8a8:	34 00 00 00 b0 06 09 1e 	sw $9,1712($30)
  40d8b0:	08 00 00 00 f2 ff 00 02 	bgtz $2,40d880 <__printf_fp+0x970>
  40d8b8:	22 00 00 00 a8 06 09 1e 	lbu $9,1704($30)
  40d8c0:	43 00 00 00 65 00 03 00 	addiu $3,$0,101
  40d8c8:	55 00 00 00 18 02 09 00 	sll $2,$9,0x18
  40d8d0:	59 00 00 00 18 02 02 00 	sra $2,$2,0x18
  40d8d8:	06 00 00 00 b2 0e 03 02 	bne $2,$3,4113a8 <__printf_fp+0x4498>
  40d8e0:	28 00 00 00 90 06 09 1e 	lw $9,1680($30)
  40d8e8:	22 00 00 00 08 00 02 09 	lbu $2,8($9)
  40d8f0:	30 00 00 00 00 00 02 17 	sb $2,0($23)
  40d8f8:	43 00 00 00 01 00 17 17 	addiu $23,$23,1
  40d900:	43 00 00 00 2b 00 02 00 	addiu $2,$0,43
  40d908:	30 00 00 00 00 00 02 17 	sb $2,0($23)
  40d910:	43 00 00 00 01 00 17 17 	addiu $23,$23,1
  40d918:	43 00 00 00 30 00 02 00 	addiu $2,$0,48
  40d920:	30 00 00 00 00 00 02 17 	sb $2,0($23)
  40d928:	43 00 00 00 01 00 17 17 	addiu $23,$23,1
  40d930:	30 00 00 00 00 00 02 17 	sb $2,0($23)
  40d938:	43 00 00 00 01 00 17 17 	addiu $23,$23,1
  40d940:	01 00 00 00 ea 44 10 00 	j 4113a8 <__printf_fp+0x4498>
  40d948:	28 00 00 00 f4 05 03 1e 	lw $3,1524($30)
  40d950:	28 00 00 00 b0 06 09 1e 	lw $9,1712($30)
  40d958:	34 00 00 00 ec 05 00 1e 	sw $0,1516($30)
  40d960:	45 00 00 00 00 02 09 00 	subu $2,$0,$9
  40d968:	34 00 00 00 f0 05 02 1e 	sw $2,1520($30)
  40d970:	5c 00 00 00 36 00 02 03 	slti $2,$3,54
  40d978:	06 00 00 00 d0 00 00 02 	bne $2,$0,40dcc0 <__printf_fp+0xdb0>
  40d980:	42 00 00 00 00 04 00 00 	addu $4,$0,$0
  40d988:	42 00 00 00 00 05 03 00 	addu $5,$0,$3
  40d990:	43 00 00 00 18 00 03 1e 	addiu $3,$30,24
  40d998:	43 00 00 00 cb ff 02 05 	addiu $2,$5,-53
  40d9a0:	0a 00 00 00 02 00 00 02 	bgez $2,40d9b0 <__printf_fp+0xaa0>
  40d9a8:	43 00 00 00 ea ff 02 05 	addiu $2,$5,-22
  40d9b0:	59 00 00 00 05 02 02 00 	sra $2,$2,0x5
  40d9b8:	5b 00 00 00 00 02 02 04 	slt $2,$4,$2
  40d9c0:	05 00 00 00 08 00 00 02 	beq $2,$0,40d9e8 <__printf_fp+0xad8>
  40d9c8:	34 00 00 00 60 03 00 03 	sw $0,864($3)
  40d9d0:	43 00 00 00 04 00 03 03 	addiu $3,$3,4
  40d9d8:	43 00 00 00 01 00 04 04 	addiu $4,$4,1
  40d9e0:	01 00 00 00 66 36 10 00 	j 40d998 <__printf_fp+0xa88>
  40d9e8:	28 00 00 00 f4 05 03 1e 	lw $3,1524($30)
  40d9f0:	43 00 00 00 cb ff 08 03 	addiu $8,$3,-53
  40d9f8:	4f 00 00 00 1f 00 02 08 	andi $2,$8,31
  40da00:	06 00 00 00 36 00 00 02 	bne $2,$0,40dae0 <__printf_fp+0xbd0>
  40da08:	42 00 00 00 00 05 00 00 	addu $5,$0,$0
  40da10:	07 00 00 00 22 00 00 11 	blez $17,40daa0 <__printf_fp+0xb90>
  40da18:	42 00 00 00 00 07 03 00 	addu $7,$0,$3
  40da20:	43 00 00 00 18 00 06 1e 	addiu $6,$30,24
  40da28:	42 00 00 00 00 08 06 00 	addu $8,$0,$6
  40da30:	43 00 00 00 cb ff 02 07 	addiu $2,$7,-53
  40da38:	0a 00 00 00 02 00 00 02 	bgez $2,40da48 <__printf_fp+0xb38>
  40da40:	43 00 00 00 ea ff 02 07 	addiu $2,$7,-22
  40da48:	28 00 00 00 00 00 04 06 	lw $4,0($6)
  40da50:	55 00 00 00 02 03 05 00 	sll $3,$5,0x2
  40da58:	43 00 00 00 01 00 05 05 	addiu $5,$5,1
  40da60:	59 00 00 00 05 02 02 00 	sra $2,$2,0x5
  40da68:	55 00 00 00 02 02 02 00 	sll $2,$2,0x2
  40da70:	42 00 00 00 00 02 08 02 	addu $2,$2,$8
  40da78:	42 00 00 00 00 03 02 03 	addu $3,$3,$2
  40da80:	5b 00 00 00 00 02 11 05 	slt $2,$5,$17
  40da88:	43 00 00 00 04 00 06 06 	addiu $6,$6,4
  40da90:	34 00 00 00 60 03 04 03 	sw $4,864($3)
  40da98:	06 00 00 00 e4 ff 00 02 	bne $2,$0,40da30 <__printf_fp+0xb20>
  40daa0:	28 00 00 00 f4 05 03 1e 	lw $3,1524($30)
  40daa8:	43 00 00 00 cb ff 02 03 	addiu $2,$3,-53
  40dab0:	0a 00 00 00 02 00 00 02 	bgez $2,40dac0 <__printf_fp+0xbb0>
  40dab8:	43 00 00 00 ea ff 02 03 	addiu $2,$3,-22
  40dac0:	59 00 00 00 05 02 02 00 	sra $2,$2,0x5
  40dac8:	42 00 00 00 00 02 02 11 	addu $2,$17,$2
  40dad0:	34 00 00 00 c0 05 02 1e 	sw $2,1472($30)
  40dad8:	01 00 00 00 f0 36 10 00 	j 40dbc0 <__printf_fp+0xcb0>
  40dae0:	42 00 00 00 00 07 08 00 	addu $7,$0,$8
  40dae8:	43 00 00 00 78 03 02 1e 	addiu $2,$30,888
  40daf0:	0a 00 00 00 02 00 00 08 	bgez $8,40db00 <__printf_fp+0xbf0>
  40daf8:	43 00 00 00 ea ff 07 03 	addiu $7,$3,-22
  40db00:	59 00 00 00 05 07 07 00 	sra $7,$7,0x5
  40db08:	55 00 00 00 02 04 07 00 	sll $4,$7,0x2
  40db10:	42 00 00 00 00 04 04 02 	addu $4,$2,$4
  40db18:	43 00 00 00 18 00 05 1e 	addiu $5,$30,24
  40db20:	42 00 00 00 00 06 11 00 	addu $6,$0,$17
  40db28:	55 00 00 00 05 07 07 00 	sll $7,$7,0x5
  40db30:	45 00 00 00 00 07 07 08 	subu $7,$8,$7
  40db38:	02 00 00 00 84 4e 10 00 	jal 413a10 <__mpn_lshift>
  40db40:	28 00 00 00 f4 05 03 1e 	lw $3,1524($30)
  40db48:	42 00 00 00 00 04 02 00 	addu $4,$0,$2
  40db50:	34 00 00 00 bc 05 04 1e 	sw $4,1468($30)
  40db58:	43 00 00 00 cb ff 02 03 	addiu $2,$3,-53
  40db60:	0a 00 00 00 02 00 00 02 	bgez $2,40db70 <__printf_fp+0xc60>
  40db68:	43 00 00 00 ea ff 02 03 	addiu $2,$3,-22
  40db70:	59 00 00 00 05 02 02 00 	sra $2,$2,0x5
  40db78:	42 00 00 00 00 03 02 11 	addu $3,$17,$2
  40db80:	34 00 00 00 c0 05 03 1e 	sw $3,1472($30)
  40db88:	05 00 00 00 0c 00 00 04 	beq $4,$0,40dbc0 <__printf_fp+0xcb0>
  40db90:	43 00 00 00 01 00 02 03 	addiu $2,$3,1
  40db98:	34 00 00 00 c0 05 02 1e 	sw $2,1472($30)
  40dba0:	55 00 00 00 02 02 03 00 	sll $2,$3,0x2
  40dba8:	43 00 00 00 18 00 03 1e 	addiu $3,$30,24
  40dbb0:	42 00 00 00 00 02 03 02 	addu $2,$2,$3
  40dbb8:	34 00 00 00 60 03 04 02 	sw $4,864($2)
  40dbc0:	43 00 00 00 01 00 02 00 	addiu $2,$0,1
  40dbc8:	34 00 00 00 a8 00 02 1e 	sw $2,168($30)
  40dbd0:	34 00 00 00 c8 05 02 1e 	sw $2,1480($30)
  40dbd8:	42 00 00 00 00 04 00 00 	addu $4,$0,$0
  40dbe0:	28 00 00 00 f4 05 05 1e 	lw $5,1524($30)
  40dbe8:	43 00 00 00 18 00 03 1e 	addiu $3,$30,24
  40dbf0:	43 00 00 00 cb ff 02 05 	addiu $2,$5,-53
  40dbf8:	0a 00 00 00 02 00 00 02 	bgez $2,40dc08 <__printf_fp+0xcf8>
  40dc00:	43 00 00 00 ea ff 02 05 	addiu $2,$5,-22
  40dc08:	59 00 00 00 05 02 02 00 	sra $2,$2,0x5
  40dc10:	5b 00 00 00 00 02 02 04 	slt $2,$4,$2
  40dc18:	05 00 00 00 08 00 00 02 	beq $2,$0,40dc40 <__printf_fp+0xd30>
  40dc20:	34 00 00 00 40 02 00 03 	sw $0,576($3)
  40dc28:	43 00 00 00 04 00 03 03 	addiu $3,$3,4
  40dc30:	43 00 00 00 01 00 04 04 	addiu $4,$4,1
  40dc38:	01 00 00 00 fc 36 10 00 	j 40dbf0 <__printf_fp+0xce0>
  40dc40:	28 00 00 00 f4 05 03 1e 	lw $3,1524($30)
  40dc48:	43 00 00 00 cb ff 06 03 	addiu $6,$3,-53
  40dc50:	42 00 00 00 00 02 06 00 	addu $2,$0,$6
  40dc58:	0a 00 00 00 02 00 00 06 	bgez $6,40dc68 <__printf_fp+0xd58>
  40dc60:	43 00 00 00 ea ff 02 03 	addiu $2,$3,-22
  40dc68:	59 00 00 00 05 05 02 00 	sra $5,$2,0x5
  40dc70:	55 00 00 00 02 04 05 00 	sll $4,$5,0x2
  40dc78:	43 00 00 00 18 00 02 1e 	addiu $2,$30,24
  40dc80:	42 00 00 00 00 04 02 04 	addu $4,$4,$2
  40dc88:	55 00 00 00 05 03 05 00 	sll $3,$5,0x5
  40dc90:	45 00 00 00 00 03 03 06 	subu $3,$6,$3
  40dc98:	43 00 00 00 01 00 02 00 	addiu $2,$0,1
  40dca0:	56 00 00 00 00 02 02 03 	sllv $2,$2,$3
  40dca8:	34 00 00 00 40 02 02 04 	sw $2,576($4)
  40dcb0:	43 00 00 00 01 00 02 05 	addiu $2,$5,1
  40dcb8:	01 00 00 00 7a 37 10 00 	j 40dde8 <__printf_fp+0xed8>
  40dcc0:	43 00 00 00 78 03 04 1e 	addiu $4,$30,888
  40dcc8:	43 00 00 00 18 00 10 1e 	addiu $16,$30,24
  40dcd0:	42 00 00 00 00 05 10 00 	addu $5,$0,$16
  40dcd8:	55 00 00 00 02 06 11 00 	sll $6,$17,0x2
  40dce0:	34 00 00 00 c0 05 11 1e 	sw $17,1472($30)
  40dce8:	02 00 00 00 94 47 10 00 	jal 411e50 <memcpy>
  40dcf0:	42 00 00 00 00 04 00 00 	addu $4,$0,$0
  40dcf8:	43 00 00 00 35 00 03 00 	addiu $3,$0,53
  40dd00:	28 00 00 00 f4 05 05 1e 	lw $5,1524($30)
  40dd08:	45 00 00 00 00 02 05 03 	subu $2,$3,$5
  40dd10:	0a 00 00 00 02 00 00 02 	bgez $2,40dd20 <__printf_fp+0xe10>
  40dd18:	43 00 00 00 1f 00 02 02 	addiu $2,$2,31
  40dd20:	59 00 00 00 05 02 02 00 	sra $2,$2,0x5
  40dd28:	5b 00 00 00 00 02 02 04 	slt $2,$4,$2
  40dd30:	05 00 00 00 08 00 00 02 	beq $2,$0,40dd58 <__printf_fp+0xe48>
  40dd38:	34 00 00 00 90 00 00 10 	sw $0,144($16)
  40dd40:	43 00 00 00 04 00 10 10 	addiu $16,$16,4
  40dd48:	43 00 00 00 01 00 04 04 	addiu $4,$4,1
  40dd50:	01 00 00 00 42 37 10 00 	j 40dd08 <__printf_fp+0xdf8>
  40dd58:	28 00 00 00 f4 05 02 1e 	lw $2,1524($30)
  40dd60:	45 00 00 00 00 05 02 03 	subu $5,$3,$2
  40dd68:	42 00 00 00 00 02 05 00 	addu $2,$0,$5
  40dd70:	0a 00 00 00 02 00 00 05 	bgez $5,40dd80 <__printf_fp+0xe70>
  40dd78:	43 00 00 00 1f 00 02 05 	addiu $2,$5,31
  40dd80:	59 00 00 00 05 06 02 00 	sra $6,$2,0x5
  40dd88:	55 00 00 00 02 04 06 00 	sll $4,$6,0x2
  40dd90:	43 00 00 00 18 00 02 1e 	addiu $2,$30,24
  40dd98:	42 00 00 00 00 04 02 04 	addu $4,$4,$2
  40dda0:	55 00 00 00 05 03 06 00 	sll $3,$6,0x5
  40dda8:	45 00 00 00 00 03 03 05 	subu $3,$5,$3
  40ddb0:	43 00 00 00 01 00 02 00 	addiu $2,$0,1
  40ddb8:	56 00 00 00 00 02 02 03 	sllv $2,$2,$3
  40ddc0:	34 00 00 00 90 00 02 04 	sw $2,144($4)
  40ddc8:	43 00 00 00 01 00 02 06 	addiu $2,$6,1
  40ddd0:	34 00 00 00 c8 05 02 1e 	sw $2,1480($30)
  40ddd8:	43 00 00 00 01 00 02 00 	addiu $2,$0,1
  40dde0:	34 00 00 00 58 02 02 1e 	sw $2,600($30)
  40dde8:	34 00 00 00 d4 05 02 1e 	sw $2,1492($30)
  40ddf0:	28 00 00 00 d4 05 02 1e 	lw $2,1492($30)
  40ddf8:	43 00 00 00 e8 02 04 1e 	addiu $4,$30,744
  40de00:	43 00 00 00 58 02 05 1e 	addiu $5,$30,600
  40de08:	55 00 00 00 02 06 02 00 	sll $6,$2,0x2
  40de10:	34 00 00 00 d8 05 02 1e 	sw $2,1496($30)
  40de18:	02 00 00 00 94 47 10 00 	jal 411e50 <memcpy>
  40de20:	42 00 00 00 00 03 00 00 	addu $3,$0,$0
  40de28:	43 00 00 00 18 00 02 1e 	addiu $2,$30,24
  40de30:	34 00 00 00 10 05 00 02 	sw $0,1296($2)
  40de38:	43 00 00 00 04 00 02 02 	addiu $2,$2,4
  40de40:	43 00 00 00 01 00 03 03 	addiu $3,$3,1
  40de48:	07 00 00 00 f8 ff 00 03 	blez $3,40de30 <__printf_fp+0xf20>
  40de50:	a2 00 00 00 10 00 02 00 	lui $2,16
  40de58:	34 00 00 00 2c 05 02 1e 	sw $2,1324($30)
  40de60:	43 00 00 00 02 00 02 00 	addiu $2,$0,2
  40de68:	34 00 00 00 e8 05 02 1e 	sw $2,1512($30)
  40de70:	06 00 00 00 64 00 02 11 	bne $17,$2,40e008 <__printf_fp+0x10f8>
  40de78:	43 00 00 00 18 00 04 1e 	addiu $4,$30,24
  40de80:	43 00 00 00 28 05 05 1e 	addiu $5,$30,1320
  40de88:	43 00 00 00 02 00 06 00 	addiu $6,$0,2
  40de90:	02 00 00 00 c0 4e 10 00 	jal 413b00 <__mpn_cmp>
  40de98:	06 00 00 00 5a 00 00 02 	bne $2,$0,40e008 <__printf_fp+0x10f8>
  40dea0:	43 00 00 00 e8 02 04 1e 	addiu $4,$30,744
  40dea8:	28 00 00 00 d8 05 06 1e 	lw $6,1496($30)
  40deb0:	42 00 00 00 00 05 04 00 	addu $5,$0,$4
  40deb8:	43 00 00 00 01 00 07 00 	addiu $7,$0,1
  40dec0:	02 00 00 00 84 4e 10 00 	jal 413a10 <__mpn_lshift>
  40dec8:	42 00 00 00 00 04 02 00 	addu $4,$0,$2
  40ded0:	34 00 00 00 bc 05 04 1e 	sw $4,1468($30)
  40ded8:	05 00 00 00 0e 00 00 04 	beq $4,$0,40df18 <__printf_fp+0x1008>
  40dee0:	28 00 00 00 d8 05 02 1e 	lw $2,1496($30)
  40dee8:	43 00 00 00 01 00 03 02 	addiu $3,$2,1
  40def0:	55 00 00 00 02 02 02 00 	sll $2,$2,0x2
  40def8:	34 00 00 00 d8 05 03 1e 	sw $3,1496($30)
  40df00:	43 00 00 00 18 00 03 1e 	addiu $3,$30,24
  40df08:	42 00 00 00 00 02 03 02 	addu $2,$2,$3
  40df10:	34 00 00 00 d0 02 04 02 	sw $4,720($2)
  40df18:	43 00 00 00 78 03 04 1e 	addiu $4,$30,888
  40df20:	28 00 00 00 c0 05 06 1e 	lw $6,1472($30)
  40df28:	42 00 00 00 00 05 04 00 	addu $5,$0,$4
  40df30:	43 00 00 00 01 00 07 00 	addiu $7,$0,1
  40df38:	02 00 00 00 84 4e 10 00 	jal 413a10 <__mpn_lshift>
  40df40:	42 00 00 00 00 04 02 00 	addu $4,$0,$2
  40df48:	34 00 00 00 bc 05 04 1e 	sw $4,1468($30)
  40df50:	05 00 00 00 0e 00 00 04 	beq $4,$0,40df90 <__printf_fp+0x1080>
  40df58:	28 00 00 00 c0 05 02 1e 	lw $2,1472($30)
  40df60:	43 00 00 00 01 00 03 02 	addiu $3,$2,1
  40df68:	55 00 00 00 02 02 02 00 	sll $2,$2,0x2
  40df70:	34 00 00 00 c0 05 03 1e 	sw $3,1472($30)
  40df78:	43 00 00 00 18 00 03 1e 	addiu $3,$30,24
  40df80:	42 00 00 00 00 02 03 02 	addu $2,$2,$3
  40df88:	34 00 00 00 60 03 04 02 	sw $4,864($2)
  40df90:	43 00 00 00 a8 00 04 1e 	addiu $4,$30,168
  40df98:	28 00 00 00 c8 05 06 1e 	lw $6,1480($30)
  40dfa0:	42 00 00 00 00 05 04 00 	addu $5,$0,$4
  40dfa8:	43 00 00 00 01 00 07 00 	addiu $7,$0,1
  40dfb0:	02 00 00 00 84 4e 10 00 	jal 413a10 <__mpn_lshift>
  40dfb8:	42 00 00 00 00 04 02 00 	addu $4,$0,$2
  40dfc0:	34 00 00 00 bc 05 04 1e 	sw $4,1468($30)
  40dfc8:	05 00 00 00 0e 00 00 04 	beq $4,$0,40e008 <__printf_fp+0x10f8>
  40dfd0:	28 00 00 00 c8 05 02 1e 	lw $2,1480($30)
  40dfd8:	43 00 00 00 01 00 03 02 	addiu $3,$2,1
  40dfe0:	55 00 00 00 02 02 02 00 	sll $2,$2,0x2
  40dfe8:	34 00 00 00 c8 05 03 1e 	sw $3,1480($30)
  40dff0:	43 00 00 00 18 00 03 1e 	addiu $3,$30,24
  40dff8:	42 00 00 00 00 02 03 02 	addu $2,$2,$3
  40e000:	34 00 00 00 90 00 04 02 	sw $4,144($2)
  40e008:	43 00 00 00 c8 01 04 1e 	addiu $4,$30,456
  40e010:	28 00 00 00 c8 05 06 1e 	lw $6,1480($30)
  40e018:	43 00 00 00 a8 00 05 1e 	addiu $5,$30,168
  40e020:	43 00 00 00 0a 00 07 00 	addiu $7,$0,10
  40e028:	02 00 00 00 e8 4e 10 00 	jal 413ba0 <__mpn_divmod_1>
  40e030:	05 00 00 00 48 00 00 02 	beq $2,$0,40e158 <__printf_fp+0x1248>
  40e038:	28 00 00 00 c8 05 04 1e 	lw $4,1480($30)
  40e040:	28 00 00 00 c8 01 03 1e 	lw $3,456($30)
  40e048:	43 00 00 00 cc 01 06 1e 	addiu $6,$30,460
  40e050:	42 00 00 00 00 05 06 00 	addu $5,$0,$6
  40e058:	43 00 00 00 01 00 02 03 	addiu $2,$3,1
  40e060:	34 00 00 00 c8 01 02 1e 	sw $2,456($30)
  40e068:	5d 00 00 00 00 02 03 02 	sltu $2,$2,$3
  40e070:	05 00 00 00 18 00 00 02 	beq $2,$0,40e0d8 <__printf_fp+0x11c8>
  40e078:	43 00 00 00 ff ff 04 04 	addiu $4,$4,-1
  40e080:	05 00 00 00 10 00 00 04 	beq $4,$0,40e0c8 <__printf_fp+0x11b8>
  40e088:	28 00 00 00 00 00 02 06 	lw $2,0($6)
  40e090:	43 00 00 00 01 00 03 02 	addiu $3,$2,1
  40e098:	43 00 00 00 04 00 06 06 	addiu $6,$6,4
  40e0a0:	34 00 00 00 00 00 03 05 	sw $3,0($5)
  40e0a8:	43 00 00 00 04 00 05 05 	addiu $5,$5,4
  40e0b0:	06 00 00 00 08 00 00 03 	bne $3,$0,40e0d8 <__printf_fp+0x11c8>
  40e0b8:	43 00 00 00 ff ff 04 04 	addiu $4,$4,-1
  40e0c0:	06 00 00 00 f0 ff 00 04 	bne $4,$0,40e088 <__printf_fp+0x1178>
  40e0c8:	43 00 00 00 01 00 02 00 	addiu $2,$0,1
  40e0d0:	01 00 00 00 50 38 10 00 	j 40e140 <__printf_fp+0x1230>
  40e0d8:	05 00 00 00 16 00 06 05 	beq $5,$6,40e138 <__printf_fp+0x1228>
  40e0e0:	42 00 00 00 00 03 00 00 	addu $3,$0,$0
  40e0e8:	43 00 00 00 ff ff 07 04 	addiu $7,$4,-1
  40e0f0:	07 00 00 00 10 00 00 07 	blez $7,40e138 <__printf_fp+0x1228>
  40e0f8:	42 00 00 00 00 04 06 00 	addu $4,$0,$6
  40e100:	28 00 00 00 00 00 02 04 	lw $2,0($4)
  40e108:	43 00 00 00 01 00 03 03 	addiu $3,$3,1
  40e110:	34 00 00 00 00 00 02 05 	sw $2,0($5)
  40e118:	43 00 00 00 04 00 05 05 	addiu $5,$5,4
  40e120:	43 00 00 00 04 00 04 04 	addiu $4,$4,4
  40e128:	5b 00 00 00 00 02 07 03 	slt $2,$3,$7
  40e130:	06 00 00 00 f2 ff 00 02 	bne $2,$0,40e100 <__printf_fp+0x11f0>
  40e138:	42 00 00 00 00 02 00 00 	addu $2,$0,$0
  40e140:	34 00 00 00 bc 05 02 1e 	sw $2,1468($30)
  40e148:	05 00 00 00 02 00 00 02 	beq $2,$0,40e158 <__printf_fp+0x1248>
  40e150:	02 00 00 00 88 52 10 00 	jal 414a20 <abort>
  40e158:	28 00 00 00 c8 05 10 1e 	lw $16,1480($30)
  40e160:	28 00 00 00 c0 05 06 1e 	lw $6,1472($30)
  40e168:	55 00 00 00 02 02 10 00 	sll $2,$16,0x2
  40e170:	42 00 00 00 00 02 02 1e 	addu $2,$30,$2
  40e178:	28 00 00 00 c4 01 02 02 	lw $2,452($2)
  40e180:	34 00 00 00 b8 05 00 1e 	sw $0,1464($30)
  40e188:	5e 00 00 00 01 00 02 02 	sltiu $2,$2,1
  40e190:	45 00 00 00 00 10 02 10 	subu $16,$16,$2
  40e198:	01 00 00 00 cc 38 10 00 	j 40e330 <__printf_fp+0x1420>
  40e1a0:	43 00 00 00 78 03 04 1e 	addiu $4,$30,888
  40e1a8:	43 00 00 00 c8 01 05 1e 	addiu $5,$30,456
  40e1b0:	02 00 00 00 c0 4e 10 00 	jal 413b00 <__mpn_cmp>
  40e1b8:	0a 00 00 00 62 00 00 02 	bgez $2,40e348 <__printf_fp+0x1438>
  40e1c0:	43 00 00 00 78 03 04 1e 	addiu $4,$30,888
  40e1c8:	42 00 00 00 00 05 04 00 	addu $5,$0,$4
  40e1d0:	28 00 00 00 b8 05 02 1e 	lw $2,1464($30)
  40e1d8:	28 00 00 00 c0 05 06 1e 	lw $6,1472($30)
  40e1e0:	43 00 00 00 0a 00 07 00 	addiu $7,$0,10
  40e1e8:	43 00 00 00 ff ff 02 02 	addiu $2,$2,-1
  40e1f0:	34 00 00 00 b8 05 02 1e 	sw $2,1464($30)
  40e1f8:	02 00 00 00 8c 52 10 00 	jal 414a30 <__mpn_mul_1>
  40e200:	42 00 00 00 00 04 02 00 	addu $4,$0,$2
  40e208:	05 00 00 00 0e 00 00 04 	beq $4,$0,40e248 <__printf_fp+0x1338>
  40e210:	28 00 00 00 c0 05 02 1e 	lw $2,1472($30)
  40e218:	43 00 00 00 01 00 03 02 	addiu $3,$2,1
  40e220:	55 00 00 00 02 02 02 00 	sll $2,$2,0x2
  40e228:	34 00 00 00 c0 05 03 1e 	sw $3,1472($30)
  40e230:	43 00 00 00 18 00 03 1e 	addiu $3,$30,24
  40e238:	42 00 00 00 00 02 03 02 	addu $2,$2,$3
  40e240:	34 00 00 00 60 03 04 02 	sw $4,864($2)
  40e248:	43 00 00 00 58 02 04 1e 	addiu $4,$30,600
  40e250:	28 00 00 00 d4 05 06 1e 	lw $6,1492($30)
  40e258:	42 00 00 00 00 05 04 00 	addu $5,$0,$4
  40e260:	43 00 00 00 0a 00 07 00 	addiu $7,$0,10
  40e268:	02 00 00 00 8c 52 10 00 	jal 414a30 <__mpn_mul_1>
  40e270:	42 00 00 00 00 04 02 00 	addu $4,$0,$2
  40e278:	05 00 00 00 0e 00 00 04 	beq $4,$0,40e2b8 <__printf_fp+0x13a8>
  40e280:	28 00 00 00 d4 05 02 1e 	lw $2,1492($30)
  40e288:	43 00 00 00 01 00 03 02 	addiu $3,$2,1
  40e290:	55 00 00 00 02 02 02 00 	sll $2,$2,0x2
  40e298:	34 00 00 00 d4 05 03 1e 	sw $3,1492($30)
  40e2a0:	43 00 00 00 18 00 03 1e 	addiu $3,$30,24
  40e2a8:	42 00 00 00 00 02 03 02 	addu $2,$2,$3
  40e2b0:	34 00 00 00 40 02 04 02 	sw $4,576($2)
  40e2b8:	43 00 00 00 e8 02 04 1e 	addiu $4,$30,744
  40e2c0:	28 00 00 00 d8 05 06 1e 	lw $6,1496($30)
  40e2c8:	42 00 00 00 00 05 04 00 	addu $5,$0,$4
  40e2d0:	43 00 00 00 0a 00 07 00 	addiu $7,$0,10
  40e2d8:	02 00 00 00 8c 52 10 00 	jal 414a30 <__mpn_mul_1>
  40e2e0:	42 00 00 00 00 04 02 00 	addu $4,$0,$2
  40e2e8:	05 00 00 00 0e 00 00 04 	beq $4,$0,40e328 <__printf_fp+0x1418>
  40e2f0:	28 00 00 00 d8 05 02 1e 	lw $2,1496($30)
  40e2f8:	43 00 00 00 01 00 03 02 	addiu $3,$2,1
  40e300:	55 00 00 00 02 02 02 00 	sll $2,$2,0x2
  40e308:	34 00 00 00 d8 05 03 1e 	sw $3,1496($30)
  40e310:	43 00 00 00 18 00 03 1e 	addiu $3,$30,24
  40e318:	42 00 00 00 00 02 03 02 	addu $2,$2,$3
  40e320:	34 00 00 00 d0 02 04 02 	sw $4,720($2)
  40e328:	28 00 00 00 c0 05 06 1e 	lw $6,1472($30)
  40e330:	5b 00 00 00 00 02 10 06 	slt $2,$6,$16
  40e338:	06 00 00 00 a0 ff 00 02 	bne $2,$0,40e1c0 <__printf_fp+0x12b0>
  40e340:	05 00 00 00 96 ff 10 06 	beq $6,$16,40e1a0 <__printf_fp+0x1290>
  40e348:	43 00 00 00 08 04 09 1e 	addiu $9,$30,1032
  40e350:	43 00 00 00 18 00 14 1e 	addiu $20,$30,24
  40e358:	34 00 00 00 c8 06 09 1e 	sw $9,1736($30)
  40e360:	43 00 00 00 a8 00 09 1e 	addiu $9,$30,168
  40e368:	43 00 00 00 00 06 15 1e 	addiu $21,$30,1536
  40e370:	34 00 00 00 d0 06 09 1e 	sw $9,1744($30)
  40e378:	43 00 00 00 fc 05 09 1e 	addiu $9,$30,1532
  40e380:	34 00 00 00 d8 06 09 1e 	sw $9,1752($30)
  40e388:	43 00 00 00 e8 02 09 1e 	addiu $9,$30,744
  40e390:	34 00 00 00 e0 06 09 1e 	sw $9,1760($30)
  40e398:	28 00 00 00 c8 06 04 1e 	lw $4,1736($30)
  40e3a0:	28 00 00 00 c0 05 06 1e 	lw $6,1472($30)
  40e3a8:	43 00 00 00 78 03 05 1e 	addiu $5,$30,888
  40e3b0:	43 00 00 00 01 00 07 00 	addiu $7,$0,1
  40e3b8:	02 00 00 00 84 4e 10 00 	jal 413a10 <__mpn_lshift>
  40e3c0:	28 00 00 00 c0 05 03 1e 	lw $3,1472($30)
  40e3c8:	42 00 00 00 00 04 02 00 	addu $4,$0,$2
  40e3d0:	34 00 00 00 d0 05 03 1e 	sw $3,1488($30)
  40e3d8:	05 00 00 00 0a 00 00 04 	beq $4,$0,40e408 <__printf_fp+0x14f8>
  40e3e0:	43 00 00 00 01 00 02 03 	addiu $2,$3,1
  40e3e8:	34 00 00 00 d0 05 02 1e 	sw $2,1488($30)
  40e3f0:	55 00 00 00 02 02 03 00 	sll $2,$3,0x2
  40e3f8:	42 00 00 00 00 02 14 02 	addu $2,$2,$20
  40e400:	34 00 00 00 f0 03 04 02 	sw $4,1008($2)
  40e408:	28 00 00 00 d0 05 11 1e 	lw $17,1488($30)
  40e410:	28 00 00 00 d8 05 10 1e 	lw $16,1496($30)
  40e418:	5b 00 00 00 00 02 11 10 	slt $2,$16,$17
  40e420:	05 00 00 00 64 00 00 02 	beq $2,$0,40e5b8 <__printf_fp+0x16a8>
  40e428:	42 00 00 00 00 05 00 00 	addu $5,$0,$0
  40e430:	43 00 00 00 28 05 12 1e 	addiu $18,$30,1320
  40e438:	05 00 00 00 0c 00 00 10 	beq $16,$0,40e470 <__printf_fp+0x1560>
  40e440:	42 00 00 00 00 04 12 00 	addu $4,$0,$18
  40e448:	28 00 00 00 c8 06 05 1e 	lw $5,1736($30)
  40e450:	43 00 00 00 e8 02 06 1e 	addiu $6,$30,744
  40e458:	42 00 00 00 00 07 10 00 	addu $7,$0,$16
  40e460:	02 00 00 00 b0 52 10 00 	jal 414ac0 <__mpn_add_n>
  40e468:	42 00 00 00 00 05 02 00 	addu $5,$0,$2
  40e470:	05 00 00 00 4a 00 10 11 	beq $17,$16,40e5a0 <__printf_fp+0x1690>
  40e478:	28 00 00 00 c8 06 09 1e 	lw $9,1736($30)
  40e480:	55 00 00 00 02 02 10 00 	sll $2,$16,0x2
  40e488:	42 00 00 00 00 06 09 02 	addu $6,$2,$9
  40e490:	28 00 00 00 00 00 03 06 	lw $3,0($6)
  40e498:	42 00 00 00 00 04 12 02 	addu $4,$2,$18
  40e4a0:	45 00 00 00 00 07 10 11 	subu $7,$17,$16
  40e4a8:	43 00 00 00 04 00 06 06 	addiu $6,$6,4
  40e4b0:	42 00 00 00 00 02 03 05 	addu $2,$5,$3
  40e4b8:	34 00 00 00 00 00 02 04 	sw $2,0($4)
  40e4c0:	43 00 00 00 04 00 04 04 	addiu $4,$4,4
  40e4c8:	5d 00 00 00 00 02 03 02 	sltu $2,$2,$3
  40e4d0:	05 00 00 00 18 00 00 02 	beq $2,$0,40e538 <__printf_fp+0x1628>
  40e4d8:	43 00 00 00 ff ff 07 07 	addiu $7,$7,-1
  40e4e0:	05 00 00 00 10 00 00 07 	beq $7,$0,40e528 <__printf_fp+0x1618>
  40e4e8:	28 00 00 00 00 00 02 06 	lw $2,0($6)
  40e4f0:	43 00 00 00 01 00 03 02 	addiu $3,$2,1
  40e4f8:	43 00 00 00 04 00 06 06 	addiu $6,$6,4
  40e500:	34 00 00 00 00 00 03 04 	sw $3,0($4)
  40e508:	43 00 00 00 04 00 04 04 	addiu $4,$4,4
  40e510:	06 00 00 00 08 00 00 03 	bne $3,$0,40e538 <__printf_fp+0x1628>
  40e518:	43 00 00 00 ff ff 07 07 	addiu $7,$7,-1
  40e520:	06 00 00 00 f0 ff 00 07 	bne $7,$0,40e4e8 <__printf_fp+0x15d8>
  40e528:	43 00 00 00 01 00 05 00 	addiu $5,$0,1
  40e530:	01 00 00 00 68 39 10 00 	j 40e5a0 <__printf_fp+0x1690>
  40e538:	05 00 00 00 16 00 06 04 	beq $4,$6,40e598 <__printf_fp+0x1688>
  40e540:	42 00 00 00 00 05 00 00 	addu $5,$0,$0
  40e548:	43 00 00 00 ff ff 07 07 	addiu $7,$7,-1
  40e550:	07 00 00 00 10 00 00 07 	blez $7,40e598 <__printf_fp+0x1688>
  40e558:	42 00 00 00 00 03 06 00 	addu $3,$0,$6
  40e560:	28 00 00 00 00 00 02 03 	lw $2,0($3)
  40e568:	43 00 00 00 01 00 05 05 	addiu $5,$5,1
  40e570:	34 00 00 00 00 00 02 04 	sw $2,0($4)
  40e578:	43 00 00 00 04 00 04 04 	addiu $4,$4,4
  40e580:	43 00 00 00 04 00 03 03 	addiu $3,$3,4
  40e588:	5b 00 00 00 00 02 07 05 	slt $2,$5,$7
  40e590:	06 00 00 00 f2 ff 00 02 	bne $2,$0,40e560 <__printf_fp+0x1650>
  40e598:	42 00 00 00 00 05 00 00 	addu $5,$0,$0
  40e5a0:	28 00 00 00 d0 05 02 1e 	lw $2,1488($30)
  40e5a8:	42 00 00 00 00 04 05 00 	addu $4,$0,$5
  40e5b0:	01 00 00 00 ce 39 10 00 	j 40e738 <__printf_fp+0x1828>
  40e5b8:	42 00 00 00 00 06 00 00 	addu $6,$0,$0
  40e5c0:	43 00 00 00 28 05 13 1e 	addiu $19,$30,1320
  40e5c8:	43 00 00 00 e8 02 12 1e 	addiu $18,$30,744
  40e5d0:	05 00 00 00 0c 00 00 11 	beq $17,$0,40e608 <__printf_fp+0x16f8>
  40e5d8:	42 00 00 00 00 04 13 00 	addu $4,$0,$19
  40e5e0:	28 00 00 00 c8 06 06 1e 	lw $6,1736($30)
  40e5e8:	42 00 00 00 00 05 12 00 	addu $5,$0,$18
  40e5f0:	42 00 00 00 00 07 11 00 	addu $7,$0,$17
  40e5f8:	02 00 00 00 b0 52 10 00 	jal 414ac0 <__mpn_add_n>
  40e600:	42 00 00 00 00 06 02 00 	addu $6,$0,$2
  40e608:	05 00 00 00 46 00 11 10 	beq $16,$17,40e728 <__printf_fp+0x1818>
  40e610:	55 00 00 00 02 02 11 00 	sll $2,$17,0x2
  40e618:	42 00 00 00 00 05 12 02 	addu $5,$2,$18
  40e620:	28 00 00 00 00 00 03 05 	lw $3,0($5)
  40e628:	42 00 00 00 00 04 13 02 	addu $4,$2,$19
  40e630:	45 00 00 00 00 07 11 10 	subu $7,$16,$17
  40e638:	43 00 00 00 04 00 05 05 	addiu $5,$5,4
  40e640:	42 00 00 00 00 02 03 06 	addu $2,$6,$3
  40e648:	34 00 00 00 00 00 02 04 	sw $2,0($4)
  40e650:	43 00 00 00 04 00 04 04 	addiu $4,$4,4
  40e658:	5d 00 00 00 00 02 03 02 	sltu $2,$2,$3
  40e660:	05 00 00 00 18 00 00 02 	beq $2,$0,40e6c8 <__printf_fp+0x17b8>
  40e668:	43 00 00 00 ff ff 07 07 	addiu $7,$7,-1
  40e670:	05 00 00 00 10 00 00 07 	beq $7,$0,40e6b8 <__printf_fp+0x17a8>
  40e678:	28 00 00 00 00 00 02 05 	lw $2,0($5)
  40e680:	43 00 00 00 01 00 03 02 	addiu $3,$2,1
  40e688:	43 00 00 00 04 00 05 05 	addiu $5,$5,4
  40e690:	34 00 00 00 00 00 03 04 	sw $3,0($4)
  40e698:	43 00 00 00 04 00 04 04 	addiu $4,$4,4
  40e6a0:	06 00 00 00 08 00 00 03 	bne $3,$0,40e6c8 <__printf_fp+0x17b8>
  40e6a8:	43 00 00 00 ff ff 07 07 	addiu $7,$7,-1
  40e6b0:	06 00 00 00 f0 ff 00 07 	bne $7,$0,40e678 <__printf_fp+0x1768>
  40e6b8:	43 00 00 00 01 00 06 00 	addiu $6,$0,1
  40e6c0:	01 00 00 00 ca 39 10 00 	j 40e728 <__printf_fp+0x1818>
  40e6c8:	05 00 00 00 14 00 05 04 	beq $4,$5,40e720 <__printf_fp+0x1810>
  40e6d0:	42 00 00 00 00 03 00 00 	addu $3,$0,$0
  40e6d8:	43 00 00 00 ff ff 07 07 	addiu $7,$7,-1
  40e6e0:	07 00 00 00 0e 00 00 07 	blez $7,40e720 <__printf_fp+0x1810>
  40e6e8:	28 00 00 00 00 00 02 05 	lw $2,0($5)
  40e6f0:	43 00 00 00 01 00 03 03 	addiu $3,$3,1
  40e6f8:	34 00 00 00 00 00 02 04 	sw $2,0($4)
  40e700:	43 00 00 00 04 00 04 04 	addiu $4,$4,4
  40e708:	43 00 00 00 04 00 05 05 	addiu $5,$5,4
  40e710:	5b 00 00 00 00 02 07 03 	slt $2,$3,$7
  40e718:	06 00 00 00 f2 ff 00 02 	bne $2,$0,40e6e8 <__printf_fp+0x17d8>
  40e720:	42 00 00 00 00 06 00 00 	addu $6,$0,$0
  40e728:	28 00 00 00 d8 05 02 1e 	lw $2,1496($30)
  40e730:	42 00 00 00 00 04 06 00 	addu $4,$0,$6
  40e738:	34 00 00 00 e8 05 02 1e 	sw $2,1512($30)
  40e740:	05 00 00 00 0c 00 00 04 	beq $4,$0,40e778 <__printf_fp+0x1868>
  40e748:	28 00 00 00 e8 05 02 1e 	lw $2,1512($30)
  40e750:	43 00 00 00 01 00 03 02 	addiu $3,$2,1
  40e758:	55 00 00 00 02 02 02 00 	sll $2,$2,0x2
  40e760:	42 00 00 00 00 02 14 02 	addu $2,$2,$20
  40e768:	34 00 00 00 e8 05 03 1e 	sw $3,1512($30)
  40e770:	34 00 00 00 10 05 04 02 	sw $4,1296($2)
  40e778:	43 00 00 00 38 01 04 1e 	addiu $4,$30,312
  40e780:	28 00 00 00 c8 05 06 1e 	lw $6,1480($30)
  40e788:	43 00 00 00 a8 00 05 1e 	addiu $5,$30,168
  40e790:	43 00 00 00 01 00 07 00 	addiu $7,$0,1
  40e798:	01 00 00 00 18 3a 10 00 	j 40e860 <__printf_fp+0x1950>
  40e7a0:	43 00 00 00 28 05 04 1e 	addiu $4,$30,1320
  40e7a8:	43 00 00 00 38 01 05 1e 	addiu $5,$30,312
  40e7b0:	02 00 00 00 c0 4e 10 00 	jal 413b00 <__mpn_cmp>
  40e7b8:	09 00 00 00 46 00 00 02 	bltz $2,40e8d8 <__printf_fp+0x19c8>
  40e7c0:	28 00 00 00 d0 06 04 1e 	lw $4,1744($30)
  40e7c8:	28 00 00 00 c8 05 06 1e 	lw $6,1480($30)
  40e7d0:	28 00 00 00 d0 06 05 1e 	lw $5,1744($30)
  40e7d8:	43 00 00 00 0a 00 07 00 	addiu $7,$0,10
  40e7e0:	02 00 00 00 8c 52 10 00 	jal 414a30 <__mpn_mul_1>
  40e7e8:	42 00 00 00 00 04 02 00 	addu $4,$0,$2
  40e7f0:	05 00 00 00 0c 00 00 04 	beq $4,$0,40e828 <__printf_fp+0x1918>
  40e7f8:	28 00 00 00 c8 05 02 1e 	lw $2,1480($30)
  40e800:	43 00 00 00 01 00 03 02 	addiu $3,$2,1
  40e808:	55 00 00 00 02 02 02 00 	sll $2,$2,0x2
  40e810:	42 00 00 00 00 02 14 02 	addu $2,$2,$20
  40e818:	34 00 00 00 c8 05 03 1e 	sw $3,1480($30)
  40e820:	34 00 00 00 90 00 04 02 	sw $4,144($2)
  40e828:	43 00 00 00 38 01 04 1e 	addiu $4,$30,312
  40e830:	28 00 00 00 d0 06 05 1e 	lw $5,1744($30)
  40e838:	28 00 00 00 b8 05 02 1e 	lw $2,1464($30)
  40e840:	28 00 00 00 c8 05 06 1e 	lw $6,1480($30)
  40e848:	43 00 00 00 01 00 07 00 	addiu $7,$0,1
  40e850:	43 00 00 00 01 00 02 02 	addiu $2,$2,1
  40e858:	34 00 00 00 b8 05 02 1e 	sw $2,1464($30)
  40e860:	02 00 00 00 84 4e 10 00 	jal 413a10 <__mpn_lshift>
  40e868:	28 00 00 00 c8 05 03 1e 	lw $3,1480($30)
  40e870:	42 00 00 00 00 04 02 00 	addu $4,$0,$2
  40e878:	34 00 00 00 e0 05 03 1e 	sw $3,1504($30)
  40e880:	05 00 00 00 0a 00 00 04 	beq $4,$0,40e8b0 <__printf_fp+0x19a0>
  40e888:	43 00 00 00 01 00 02 03 	addiu $2,$3,1
  40e890:	34 00 00 00 e0 05 02 1e 	sw $2,1504($30)
  40e898:	55 00 00 00 02 02 03 00 	sll $2,$3,0x2
  40e8a0:	42 00 00 00 00 02 14 02 	addu $2,$2,$20
  40e8a8:	34 00 00 00 20 01 04 02 	sw $4,288($2)
  40e8b0:	28 00 00 00 e8 05 06 1e 	lw $6,1512($30)
  40e8b8:	28 00 00 00 e0 05 03 1e 	lw $3,1504($30)
  40e8c0:	5b 00 00 00 00 02 06 03 	slt $2,$3,$6
  40e8c8:	06 00 00 00 bc ff 00 02 	bne $2,$0,40e7c0 <__printf_fp+0x18b0>
  40e8d0:	05 00 00 00 b2 ff 03 06 	beq $6,$3,40e7a0 <__printf_fp+0x1890>
  40e8d8:	22 00 00 00 a8 06 09 1e 	lbu $9,1704($30)
  40e8e0:	43 00 00 00 65 00 03 00 	addiu $3,$0,101
  40e8e8:	55 00 00 00 18 02 09 00 	sll $2,$9,0x18
  40e8f0:	59 00 00 00 18 02 02 00 	sra $2,$2,0x18
  40e8f8:	06 00 00 00 0a 00 03 02 	bne $2,$3,40e928 <__printf_fp+0x1a18>
  40e900:	28 00 00 00 f0 05 02 1e 	lw $2,1520($30)
  40e908:	28 00 00 00 b8 05 03 1e 	lw $3,1464($30)
  40e910:	43 00 00 00 ff ff 02 02 	addiu $2,$2,-1
  40e918:	42 00 00 00 00 02 03 02 	addu $2,$2,$3
  40e920:	34 00 00 00 f0 05 02 1e 	sw $2,1520($30)
  40e928:	28 00 00 00 c8 05 10 1e 	lw $16,1480($30)
  40e930:	28 00 00 00 f0 05 03 1e 	lw $3,1520($30)
  40e938:	28 00 00 00 b8 05 02 1e 	lw $2,1464($30)
  40e940:	43 00 00 00 00 06 04 1e 	addiu $4,$30,1536
  40e948:	43 00 00 00 a8 00 05 1e 	addiu $5,$30,168
  40e950:	45 00 00 00 00 12 02 03 	subu $18,$3,$2
  40e958:	55 00 00 00 02 11 10 00 	sll $17,$16,0x2
  40e960:	42 00 00 00 00 06 11 00 	addu $6,$0,$17
  40e968:	02 00 00 00 94 47 10 00 	jal 411e50 <memcpy>
  40e970:	07 00 00 00 1a 00 00 12 	blez $18,40e9e0 <__printf_fp+0x1ad0>
  40e978:	42 00 00 00 00 11 14 11 	addu $17,$17,$20
  40e980:	42 00 00 00 00 04 15 00 	addu $4,$0,$21
  40e988:	42 00 00 00 00 05 15 00 	addu $5,$0,$21
  40e990:	42 00 00 00 00 06 10 00 	addu $6,$0,$16
  40e998:	43 00 00 00 0a 00 07 00 	addiu $7,$0,10
  40e9a0:	02 00 00 00 8c 52 10 00 	jal 414a30 <__mpn_mul_1>
  40e9a8:	42 00 00 00 00 04 02 00 	addu $4,$0,$2
  40e9b0:	05 00 00 00 06 00 00 04 	beq $4,$0,40e9d0 <__printf_fp+0x1ac0>
  40e9b8:	34 00 00 00 e8 05 04 11 	sw $4,1512($17)
  40e9c0:	43 00 00 00 04 00 11 11 	addiu $17,$17,4
  40e9c8:	43 00 00 00 01 00 10 10 	addiu $16,$16,1
  40e9d0:	43 00 00 00 ff ff 12 12 	addiu $18,$18,-1
  40e9d8:	08 00 00 00 e8 ff 00 12 	bgtz $18,40e980 <__printf_fp+0x1a70>
  40e9e0:	0a 00 00 00 62 00 00 12 	bgez $18,40eb70 <__printf_fp+0x1c60>
  40e9e8:	42 00 00 00 00 04 15 00 	addu $4,$0,$21
  40e9f0:	42 00 00 00 00 05 15 00 	addu $5,$0,$21
  40e9f8:	42 00 00 00 00 06 10 00 	addu $6,$0,$16
  40ea00:	43 00 00 00 0a 00 07 00 	addiu $7,$0,10
  40ea08:	02 00 00 00 e8 4e 10 00 	jal 413ba0 <__mpn_divmod_1>
  40ea10:	05 00 00 00 46 00 00 02 	beq $2,$0,40eb30 <__printf_fp+0x1c20>
  40ea18:	42 00 00 00 00 04 10 00 	addu $4,$0,$16
  40ea20:	28 00 00 00 00 06 03 1e 	lw $3,1536($30)
  40ea28:	43 00 00 00 04 06 06 1e 	addiu $6,$30,1540
  40ea30:	42 00 00 00 00 05 06 00 	addu $5,$0,$6
  40ea38:	43 00 00 00 01 00 02 03 	addiu $2,$3,1
  40ea40:	34 00 00 00 00 06 02 1e 	sw $2,1536($30)
  40ea48:	5d 00 00 00 00 02 03 02 	sltu $2,$2,$3
  40ea50:	05 00 00 00 18 00 00 02 	beq $2,$0,40eab8 <__printf_fp+0x1ba8>
  40ea58:	43 00 00 00 ff ff 04 10 	addiu $4,$16,-1
  40ea60:	05 00 00 00 10 00 00 04 	beq $4,$0,40eaa8 <__printf_fp+0x1b98>
  40ea68:	28 00 00 00 00 00 02 06 	lw $2,0($6)
  40ea70:	43 00 00 00 01 00 03 02 	addiu $3,$2,1
  40ea78:	43 00 00 00 04 00 06 06 	addiu $6,$6,4
  40ea80:	34 00 00 00 00 00 03 05 	sw $3,0($5)
  40ea88:	43 00 00 00 04 00 05 05 	addiu $5,$5,4
  40ea90:	06 00 00 00 08 00 00 03 	bne $3,$0,40eab8 <__printf_fp+0x1ba8>
  40ea98:	43 00 00 00 ff ff 04 04 	addiu $4,$4,-1
  40eaa0:	06 00 00 00 f0 ff 00 04 	bne $4,$0,40ea68 <__printf_fp+0x1b58>
  40eaa8:	43 00 00 00 01 00 04 00 	addiu $4,$0,1
  40eab0:	01 00 00 00 c8 3a 10 00 	j 40eb20 <__printf_fp+0x1c10>
  40eab8:	05 00 00 00 16 00 06 05 	beq $5,$6,40eb18 <__printf_fp+0x1c08>
  40eac0:	42 00 00 00 00 03 00 00 	addu $3,$0,$0
  40eac8:	43 00 00 00 ff ff 07 04 	addiu $7,$4,-1
  40ead0:	07 00 00 00 10 00 00 07 	blez $7,40eb18 <__printf_fp+0x1c08>
  40ead8:	42 00 00 00 00 04 06 00 	addu $4,$0,$6
  40eae0:	28 00 00 00 00 00 02 04 	lw $2,0($4)
  40eae8:	43 00 00 00 01 00 03 03 	addiu $3,$3,1
  40eaf0:	34 00 00 00 00 00 02 05 	sw $2,0($5)
  40eaf8:	43 00 00 00 04 00 05 05 	addiu $5,$5,4
  40eb00:	43 00 00 00 04 00 04 04 	addiu $4,$4,4
  40eb08:	5b 00 00 00 00 02 07 03 	slt $2,$3,$7
  40eb10:	06 00 00 00 f2 ff 00 02 	bne $2,$0,40eae0 <__printf_fp+0x1bd0>
  40eb18:	42 00 00 00 00 04 00 00 	addu $4,$0,$0
  40eb20:	05 00 00 00 02 00 00 04 	beq $4,$0,40eb30 <__printf_fp+0x1c20>
  40eb28:	02 00 00 00 88 52 10 00 	jal 414a20 <abort>
  40eb30:	28 00 00 00 d8 06 09 1e 	lw $9,1752($30)
  40eb38:	55 00 00 00 02 02 10 00 	sll $2,$16,0x2
  40eb40:	42 00 00 00 00 02 02 09 	addu $2,$9,$2
  40eb48:	28 00 00 00 00 00 02 02 	lw $2,0($2)
  40eb50:	43 00 00 00 01 00 12 12 	addiu $18,$18,1
  40eb58:	5e 00 00 00 01 00 02 02 	sltiu $2,$2,1
  40eb60:	45 00 00 00 00 10 02 10 	subu $16,$16,$2
  40eb68:	09 00 00 00 9e ff 00 12 	bltz $18,40e9e8 <__printf_fp+0x1ad8>
  40eb70:	28 00 00 00 d4 05 03 1e 	lw $3,1492($30)
  40eb78:	5b 00 00 00 00 02 10 03 	slt $2,$3,$16
  40eb80:	06 00 00 00 0c 00 00 02 	bne $2,$0,40ebb8 <__printf_fp+0x1ca8>
  40eb88:	06 00 00 00 14 00 03 10 	bne $16,$3,40ebe0 <__printf_fp+0x1cd0>
  40eb90:	43 00 00 00 00 06 04 1e 	addiu $4,$30,1536
  40eb98:	43 00 00 00 58 02 05 1e 	addiu $5,$30,600
  40eba0:	42 00 00 00 00 06 10 00 	addu $6,$0,$16
  40eba8:	02 00 00 00 c0 4e 10 00 	jal 413b00 <__mpn_cmp>
  40ebb0:	07 00 00 00 0a 00 00 02 	blez $2,40ebe0 <__printf_fp+0x1cd0>
  40ebb8:	34 00 00 00 d4 05 10 1e 	sw $16,1492($30)
  40ebc0:	43 00 00 00 58 02 04 1e 	addiu $4,$30,600
  40ebc8:	43 00 00 00 00 06 05 1e 	addiu $5,$30,1536
  40ebd0:	55 00 00 00 02 06 10 00 	sll $6,$16,0x2
  40ebd8:	02 00 00 00 94 47 10 00 	jal 411e50 <memcpy>
  40ebe0:	28 00 00 00 d8 05 03 1e 	lw $3,1496($30)
  40ebe8:	5b 00 00 00 00 02 10 03 	slt $2,$3,$16
  40ebf0:	06 00 00 00 0c 00 00 02 	bne $2,$0,40ec28 <__printf_fp+0x1d18>
  40ebf8:	06 00 00 00 f4 00 03 10 	bne $16,$3,40efd0 <__printf_fp+0x20c0>
  40ec00:	43 00 00 00 00 06 04 1e 	addiu $4,$30,1536
  40ec08:	43 00 00 00 e8 02 05 1e 	addiu $5,$30,744
  40ec10:	42 00 00 00 00 06 10 00 	addu $6,$0,$16
  40ec18:	02 00 00 00 c0 4e 10 00 	jal 413b00 <__mpn_cmp>
  40ec20:	09 00 00 00 ea 00 00 02 	bltz $2,40efd0 <__printf_fp+0x20c0>
  40ec28:	28 00 00 00 e0 06 04 1e 	lw $4,1760($30)
  40ec30:	43 00 00 00 00 06 05 1e 	addiu $5,$30,1536
  40ec38:	55 00 00 00 02 06 10 00 	sll $6,$16,0x2
  40ec40:	34 00 00 00 d8 05 10 1e 	sw $16,1496($30)
  40ec48:	02 00 00 00 94 47 10 00 	jal 411e50 <memcpy>
  40ec50:	28 00 00 00 d0 05 11 1e 	lw $17,1488($30)
  40ec58:	28 00 00 00 d8 05 10 1e 	lw $16,1496($30)
  40ec60:	43 00 00 00 01 00 02 00 	addiu $2,$0,1
  40ec68:	34 00 00 00 ec 05 02 1e 	sw $2,1516($30)
  40ec70:	5b 00 00 00 00 02 11 10 	slt $2,$16,$17
  40ec78:	05 00 00 00 62 00 00 02 	beq $2,$0,40ee08 <__printf_fp+0x1ef8>
  40ec80:	42 00 00 00 00 06 00 00 	addu $6,$0,$0
  40ec88:	43 00 00 00 28 05 13 1e 	addiu $19,$30,1320
  40ec90:	43 00 00 00 08 04 12 1e 	addiu $18,$30,1032
  40ec98:	05 00 00 00 0c 00 00 10 	beq $16,$0,40ecd0 <__printf_fp+0x1dc0>
  40eca0:	42 00 00 00 00 04 13 00 	addu $4,$0,$19
  40eca8:	28 00 00 00 e0 06 06 1e 	lw $6,1760($30)
  40ecb0:	42 00 00 00 00 05 12 00 	addu $5,$0,$18
  40ecb8:	42 00 00 00 00 07 10 00 	addu $7,$0,$16
  40ecc0:	02 00 00 00 b0 52 10 00 	jal 414ac0 <__mpn_add_n>
  40ecc8:	42 00 00 00 00 06 02 00 	addu $6,$0,$2
  40ecd0:	05 00 00 00 46 00 10 11 	beq $17,$16,40edf0 <__printf_fp+0x1ee0>
  40ecd8:	55 00 00 00 02 02 10 00 	sll $2,$16,0x2
  40ece0:	42 00 00 00 00 05 12 02 	addu $5,$2,$18
  40ece8:	28 00 00 00 00 00 03 05 	lw $3,0($5)
  40ecf0:	42 00 00 00 00 04 13 02 	addu $4,$2,$19
  40ecf8:	45 00 00 00 00 07 10 11 	subu $7,$17,$16
  40ed00:	43 00 00 00 04 00 05 05 	addiu $5,$5,4
  40ed08:	42 00 00 00 00 02 03 06 	addu $2,$6,$3
  40ed10:	34 00 00 00 00 00 02 04 	sw $2,0($4)
  40ed18:	43 00 00 00 04 00 04 04 	addiu $4,$4,4
  40ed20:	5d 00 00 00 00 02 03 02 	sltu $2,$2,$3
  40ed28:	05 00 00 00 18 00 00 02 	beq $2,$0,40ed90 <__printf_fp+0x1e80>
  40ed30:	43 00 00 00 ff ff 07 07 	addiu $7,$7,-1
  40ed38:	05 00 00 00 10 00 00 07 	beq $7,$0,40ed80 <__printf_fp+0x1e70>
  40ed40:	28 00 00 00 00 00 02 05 	lw $2,0($5)
  40ed48:	43 00 00 00 01 00 03 02 	addiu $3,$2,1
  40ed50:	43 00 00 00 04 00 05 05 	addiu $5,$5,4
  40ed58:	34 00 00 00 00 00 03 04 	sw $3,0($4)
  40ed60:	43 00 00 00 04 00 04 04 	addiu $4,$4,4
  40ed68:	06 00 00 00 08 00 00 03 	bne $3,$0,40ed90 <__printf_fp+0x1e80>
  40ed70:	43 00 00 00 ff ff 07 07 	addiu $7,$7,-1
  40ed78:	06 00 00 00 f0 ff 00 07 	bne $7,$0,40ed40 <__printf_fp+0x1e30>
  40ed80:	43 00 00 00 01 00 06 00 	addiu $6,$0,1
  40ed88:	01 00 00 00 7c 3b 10 00 	j 40edf0 <__printf_fp+0x1ee0>
  40ed90:	05 00 00 00 14 00 05 04 	beq $4,$5,40ede8 <__printf_fp+0x1ed8>
  40ed98:	42 00 00 00 00 03 00 00 	addu $3,$0,$0
  40eda0:	43 00 00 00 ff ff 07 07 	addiu $7,$7,-1
  40eda8:	07 00 00 00 0e 00 00 07 	blez $7,40ede8 <__printf_fp+0x1ed8>
  40edb0:	28 00 00 00 00 00 02 05 	lw $2,0($5)
  40edb8:	43 00 00 00 01 00 03 03 	addiu $3,$3,1
  40edc0:	34 00 00 00 00 00 02 04 	sw $2,0($4)
  40edc8:	43 00 00 00 04 00 04 04 	addiu $4,$4,4
  40edd0:	43 00 00 00 04 00 05 05 	addiu $5,$5,4
  40edd8:	5b 00 00 00 00 02 07 03 	slt $2,$3,$7
  40ede0:	06 00 00 00 f2 ff 00 02 	bne $2,$0,40edb0 <__printf_fp+0x1ea0>
  40ede8:	42 00 00 00 00 06 00 00 	addu $6,$0,$0
  40edf0:	28 00 00 00 d0 05 02 1e 	lw $2,1488($30)
  40edf8:	42 00 00 00 00 04 06 00 	addu $4,$0,$6
  40ee00:	01 00 00 00 e4 3b 10 00 	j 40ef90 <__printf_fp+0x2080>
  40ee08:	42 00 00 00 00 05 00 00 	addu $5,$0,$0
  40ee10:	43 00 00 00 28 05 12 1e 	addiu $18,$30,1320
  40ee18:	05 00 00 00 0c 00 00 11 	beq $17,$0,40ee50 <__printf_fp+0x1f40>
  40ee20:	42 00 00 00 00 04 12 00 	addu $4,$0,$18
  40ee28:	28 00 00 00 e0 06 05 1e 	lw $5,1760($30)
  40ee30:	43 00 00 00 08 04 06 1e 	addiu $6,$30,1032
  40ee38:	42 00 00 00 00 07 11 00 	addu $7,$0,$17
  40ee40:	02 00 00 00 b0 52 10 00 	jal 414ac0 <__mpn_add_n>
  40ee48:	42 00 00 00 00 05 02 00 	addu $5,$0,$2
  40ee50:	05 00 00 00 4a 00 11 10 	beq $16,$17,40ef80 <__printf_fp+0x2070>
  40ee58:	28 00 00 00 e0 06 09 1e 	lw $9,1760($30)
  40ee60:	55 00 00 00 02 02 11 00 	sll $2,$17,0x2
  40ee68:	42 00 00 00 00 06 09 02 	addu $6,$2,$9
  40ee70:	28 00 00 00 00 00 03 06 	lw $3,0($6)
  40ee78:	42 00 00 00 00 04 12 02 	addu $4,$2,$18
  40ee80:	45 00 00 00 00 07 11 10 	subu $7,$16,$17
  40ee88:	43 00 00 00 04 00 06 06 	addiu $6,$6,4
  40ee90:	42 00 00 00 00 02 03 05 	addu $2,$5,$3
  40ee98:	34 00 00 00 00 00 02 04 	sw $2,0($4)
  40eea0:	43 00 00 00 04 00 04 04 	addiu $4,$4,4
  40eea8:	5d 00 00 00 00 02 03 02 	sltu $2,$2,$3
  40eeb0:	05 00 00 00 18 00 00 02 	beq $2,$0,40ef18 <__printf_fp+0x2008>
  40eeb8:	43 00 00 00 ff ff 07 07 	addiu $7,$7,-1
  40eec0:	05 00 00 00 10 00 00 07 	beq $7,$0,40ef08 <__printf_fp+0x1ff8>
  40eec8:	28 00 00 00 00 00 02 06 	lw $2,0($6)
  40eed0:	43 00 00 00 01 00 03 02 	addiu $3,$2,1
  40eed8:	43 00 00 00 04 00 06 06 	addiu $6,$6,4
  40eee0:	34 00 00 00 00 00 03 04 	sw $3,0($4)
  40eee8:	43 00 00 00 04 00 04 04 	addiu $4,$4,4
  40eef0:	06 00 00 00 08 00 00 03 	bne $3,$0,40ef18 <__printf_fp+0x2008>
  40eef8:	43 00 00 00 ff ff 07 07 	addiu $7,$7,-1
  40ef00:	06 00 00 00 f0 ff 00 07 	bne $7,$0,40eec8 <__printf_fp+0x1fb8>
  40ef08:	43 00 00 00 01 00 05 00 	addiu $5,$0,1
  40ef10:	01 00 00 00 e0 3b 10 00 	j 40ef80 <__printf_fp+0x2070>
  40ef18:	05 00 00 00 16 00 06 04 	beq $4,$6,40ef78 <__printf_fp+0x2068>
  40ef20:	42 00 00 00 00 05 00 00 	addu $5,$0,$0
  40ef28:	43 00 00 00 ff ff 07 07 	addiu $7,$7,-1
  40ef30:	07 00 00 00 10 00 00 07 	blez $7,40ef78 <__printf_fp+0x2068>
  40ef38:	42 00 00 00 00 03 06 00 	addu $3,$0,$6
  40ef40:	28 00 00 00 00 00 02 03 	lw $2,0($3)
  40ef48:	43 00 00 00 01 00 05 05 	addiu $5,$5,1
  40ef50:	34 00 00 00 00 00 02 04 	sw $2,0($4)
  40ef58:	43 00 00 00 04 00 04 04 	addiu $4,$4,4
  40ef60:	43 00 00 00 04 00 03 03 	addiu $3,$3,4
  40ef68:	5b 00 00 00 00 02 07 05 	slt $2,$5,$7
  40ef70:	06 00 00 00 f2 ff 00 02 	bne $2,$0,40ef40 <__printf_fp+0x2030>
  40ef78:	42 00 00 00 00 05 00 00 	addu $5,$0,$0
  40ef80:	28 00 00 00 d8 05 02 1e 	lw $2,1496($30)
  40ef88:	42 00 00 00 00 04 05 00 	addu $4,$0,$5
  40ef90:	34 00 00 00 e8 05 02 1e 	sw $2,1512($30)
  40ef98:	05 00 00 00 0c 00 00 04 	beq $4,$0,40efd0 <__printf_fp+0x20c0>
  40efa0:	28 00 00 00 e8 05 02 1e 	lw $2,1512($30)
  40efa8:	43 00 00 00 01 00 03 02 	addiu $3,$2,1
  40efb0:	55 00 00 00 02 02 02 00 	sll $2,$2,0x2
  40efb8:	42 00 00 00 00 02 14 02 	addu $2,$2,$20
  40efc0:	34 00 00 00 e8 05 03 1e 	sw $3,1512($30)
  40efc8:	34 00 00 00 10 05 04 02 	sw $4,1296($2)
  40efd0:	28 00 00 00 e8 05 06 1e 	lw $6,1512($30)
  40efd8:	28 00 00 00 e0 05 03 1e 	lw $3,1504($30)
  40efe0:	5b 00 00 00 00 02 06 03 	slt $2,$3,$6
  40efe8:	06 00 00 00 ea fc 00 02 	bne $2,$0,40e398 <__printf_fp+0x1488>
  40eff0:	06 00 00 00 08 00 03 06 	bne $6,$3,40f018 <__printf_fp+0x2108>
  40eff8:	43 00 00 00 28 05 04 1e 	addiu $4,$30,1320
  40f000:	43 00 00 00 38 01 05 1e 	addiu $5,$30,312
  40f008:	02 00 00 00 c0 4e 10 00 	jal 413b00 <__mpn_cmp>
  40f010:	0a 00 00 00 e0 fc 00 02 	bgez $2,40e398 <__printf_fp+0x1488>
  40f018:	43 00 00 00 98 04 04 1e 	addiu $4,$30,1176
  40f020:	43 00 00 00 78 03 05 1e 	addiu $5,$30,888
  40f028:	28 00 00 00 b8 05 02 1e 	lw $2,1464($30)
  40f030:	28 00 00 00 c0 05 06 1e 	lw $6,1472($30)
  40f038:	43 00 00 00 0a 00 07 00 	addiu $7,$0,10
  40f040:	43 00 00 00 ff ff 02 02 	addiu $2,$2,-1
  40f048:	34 00 00 00 b8 05 02 1e 	sw $2,1464($30)
  40f050:	02 00 00 00 8c 52 10 00 	jal 414a30 <__mpn_mul_1>
  40f058:	28 00 00 00 c0 05 03 1e 	lw $3,1472($30)
  40f060:	42 00 00 00 00 04 02 00 	addu $4,$0,$2
  40f068:	43 00 00 00 18 00 11 1e 	addiu $17,$30,24
  40f070:	34 00 00 00 bc 05 04 1e 	sw $4,1468($30)
  40f078:	34 00 00 00 c4 05 03 1e 	sw $3,1476($30)
  40f080:	05 00 00 00 0a 00 00 04 	beq $4,$0,40f0b0 <__printf_fp+0x21a0>
  40f088:	43 00 00 00 01 00 02 03 	addiu $2,$3,1
  40f090:	34 00 00 00 c4 05 02 1e 	sw $2,1476($30)
  40f098:	55 00 00 00 02 02 03 00 	sll $2,$3,0x2
  40f0a0:	42 00 00 00 00 02 11 02 	addu $2,$2,$17
  40f0a8:	34 00 00 00 80 04 04 02 	sw $4,1152($2)
  40f0b0:	28 00 00 00 c8 05 02 1e 	lw $2,1480($30)
  40f0b8:	55 00 00 00 02 02 02 00 	sll $2,$2,0x2
  40f0c0:	42 00 00 00 00 02 02 11 	addu $2,$17,$2
  40f0c8:	28 00 00 00 8c 00 04 02 	lw $4,140($2)
  40f0d0:	51 00 00 00 ff ff 02 00 	ori $2,$0,65535
  40f0d8:	5d 00 00 00 00 02 04 02 	sltu $2,$2,$4
  40f0e0:	06 00 00 00 08 00 00 02 	bne $2,$0,40f108 <__printf_fp+0x21f8>
  40f0e8:	5e 00 00 00 00 01 02 04 	sltiu $2,$4,256
  40f0f0:	53 00 00 00 01 00 02 02 	xori $2,$2,1
  40f0f8:	55 00 00 00 03 03 02 00 	sll $3,$2,0x3
  40f100:	01 00 00 00 4e 3c 10 00 	j 40f138 <__printf_fp+0x2228>
  40f108:	a2 00 00 00 ff 00 02 00 	lui $2,255
  40f110:	51 00 00 00 ff ff 02 02 	ori $2,$2,65535
  40f118:	43 00 00 00 18 00 03 00 	addiu $3,$0,24
  40f120:	5d 00 00 00 00 02 04 02 	sltu $2,$2,$4
  40f128:	06 00 00 00 02 00 00 02 	bne $2,$0,40f138 <__printf_fp+0x2228>
  40f130:	43 00 00 00 10 00 03 00 	addiu $3,$0,16
  40f138:	58 00 00 00 00 02 04 03 	srlv $2,$4,$3
  40f140:	a2 00 00 00 01 10 01 00 	lui $1,4097
  40f148:	42 00 00 00 00 01 02 01 	addu $1,$1,$2
  40f150:	22 00 00 00 e0 18 02 01 	lbu $2,6368($1)
  40f158:	42 00 00 00 00 02 03 02 	addu $2,$2,$3
  40f160:	43 00 00 00 20 00 03 00 	addiu $3,$0,32
  40f168:	45 00 00 00 00 12 02 03 	subu $18,$3,$2
  40f170:	05 00 00 00 64 00 00 12 	beq $18,$0,40f308 <__printf_fp+0x23f8>
  40f178:	43 00 00 00 90 00 05 11 	addiu $5,$17,144
  40f180:	28 00 00 00 b0 05 06 11 	lw $6,1456($17)
  40f188:	42 00 00 00 00 07 12 00 	addu $7,$0,$18
  40f190:	42 00 00 00 00 14 1d 00 	addu $20,$0,$29
  40f198:	55 00 00 00 02 02 06 00 	sll $2,$6,0x2
  40f1a0:	43 00 00 00 0e 00 02 02 	addiu $2,$2,14
  40f1a8:	57 00 00 00 03 02 02 00 	srl $2,$2,0x3
  40f1b0:	55 00 00 00 03 02 02 00 	sll $2,$2,0x3
  40f1b8:	45 00 00 00 00 1d 02 1d 	subu $29,$29,$2
  40f1c0:	28 00 00 00 00 00 02 1d 	lw $2,0($29)
  40f1c8:	43 00 00 00 18 00 13 1d 	addiu $19,$29,24
  40f1d0:	42 00 00 00 00 04 13 00 	addu $4,$0,$19
  40f1d8:	02 00 00 00 84 4e 10 00 	jal 413a10 <__mpn_lshift>
  40f1e0:	43 00 00 00 80 04 10 11 	addiu $16,$17,1152
  40f1e8:	42 00 00 00 00 04 10 00 	addu $4,$0,$16
  40f1f0:	28 00 00 00 ac 05 06 11 	lw $6,1452($17)
  40f1f8:	42 00 00 00 00 05 10 00 	addu $5,$0,$16
  40f200:	42 00 00 00 00 07 12 00 	addu $7,$0,$18
  40f208:	02 00 00 00 84 4e 10 00 	jal 413a10 <__mpn_lshift>
  40f210:	42 00 00 00 00 04 02 00 	addu $4,$0,$2
  40f218:	05 00 00 00 0c 00 00 04 	beq $4,$0,40f250 <__printf_fp+0x2340>
  40f220:	28 00 00 00 ac 05 02 11 	lw $2,1452($17)
  40f228:	43 00 00 00 01 00 03 02 	addiu $3,$2,1
  40f230:	55 00 00 00 02 02 02 00 	sll $2,$2,0x2
  40f238:	42 00 00 00 00 02 11 02 	addu $2,$2,$17
  40f240:	34 00 00 00 ac 05 03 11 	sw $3,1452($17)
  40f248:	34 00 00 00 80 04 04 02 	sw $4,1152($2)
  40f250:	28 00 00 00 b0 05 02 11 	lw $2,1456($17)
  40f258:	43 00 00 00 10 05 04 11 	addiu $4,$17,1296
  40f260:	34 00 00 00 10 00 02 1d 	sw $2,16($29)
  40f268:	28 00 00 00 ac 05 06 11 	lw $6,1452($17)
  40f270:	42 00 00 00 00 05 10 00 	addu $5,$0,$16
  40f278:	42 00 00 00 00 07 13 00 	addu $7,$0,$19
  40f280:	02 00 00 00 d8 52 10 00 	jal 414b60 <__mpn_divmod>
  40f288:	28 00 00 00 ac 05 03 11 	lw $3,1452($17)
  40f290:	28 00 00 00 b0 05 05 11 	lw $5,1456($17)
  40f298:	42 00 00 00 00 04 10 00 	addu $4,$0,$16
  40f2a0:	45 00 00 00 00 03 05 03 	subu $3,$3,$5
  40f2a8:	55 00 00 00 02 03 03 00 	sll $3,$3,0x2
  40f2b0:	42 00 00 00 00 03 11 03 	addu $3,$3,$17
  40f2b8:	34 00 00 00 10 05 02 03 	sw $2,1296($3)
  40f2c0:	28 00 00 00 b0 05 06 11 	lw $6,1456($17)
  40f2c8:	42 00 00 00 00 07 12 00 	addu $7,$0,$18
  40f2d0:	42 00 00 00 00 05 04 00 	addu $5,$0,$4
  40f2d8:	34 00 00 00 ac 05 06 11 	sw $6,1452($17)
  40f2e0:	02 00 00 00 a8 55 10 00 	jal 4156a0 <__mpn_rshift>
  40f2e8:	42 00 00 00 00 1d 14 00 	addu $29,$0,$20
  40f2f0:	01 00 00 00 e0 3c 10 00 	j 40f380 <__printf_fp+0x2470>
  40f2f8:	43 00 00 00 01 00 02 04 	addiu $2,$4,1
  40f300:	01 00 00 00 fc 3c 10 00 	j 40f3f0 <__printf_fp+0x24e0>
  40f308:	28 00 00 00 b0 05 02 11 	lw $2,1456($17)
  40f310:	43 00 00 00 10 05 04 11 	addiu $4,$17,1296
  40f318:	34 00 00 00 10 00 02 1d 	sw $2,16($29)
  40f320:	28 00 00 00 ac 05 06 11 	lw $6,1452($17)
  40f328:	43 00 00 00 80 04 05 11 	addiu $5,$17,1152
  40f330:	43 00 00 00 90 00 07 11 	addiu $7,$17,144
  40f338:	02 00 00 00 d8 52 10 00 	jal 414b60 <__mpn_divmod>
  40f340:	28 00 00 00 ac 05 03 11 	lw $3,1452($17)
  40f348:	28 00 00 00 b0 05 04 11 	lw $4,1456($17)
  40f350:	45 00 00 00 00 03 04 03 	subu $3,$3,$4
  40f358:	55 00 00 00 02 03 03 00 	sll $3,$3,0x2
  40f360:	42 00 00 00 00 03 11 03 	addu $3,$3,$17
  40f368:	34 00 00 00 10 05 02 03 	sw $2,1296($3)
  40f370:	28 00 00 00 b0 05 02 11 	lw $2,1456($17)
  40f378:	34 00 00 00 ac 05 02 11 	sw $2,1452($17)
  40f380:	28 00 00 00 10 05 02 11 	lw $2,1296($17)
  40f388:	28 00 00 00 ac 05 04 11 	lw $4,1452($17)
  40f390:	43 00 00 00 80 04 03 11 	addiu $3,$17,1152
  40f398:	43 00 00 00 30 00 02 02 	addiu $2,$2,48
  40f3a0:	30 00 00 00 b4 05 02 11 	sb $2,1460($17)
  40f3a8:	05 00 00 00 0e 00 00 04 	beq $4,$0,40f3e8 <__printf_fp+0x24d8>
  40f3b0:	55 00 00 00 02 02 04 00 	sll $2,$4,0x2
  40f3b8:	42 00 00 00 00 03 03 02 	addu $3,$2,$3
  40f3c0:	43 00 00 00 fc ff 03 03 	addiu $3,$3,-4
  40f3c8:	28 00 00 00 00 00 02 03 	lw $2,0($3)
  40f3d0:	43 00 00 00 ff ff 04 04 	addiu $4,$4,-1
  40f3d8:	06 00 00 00 c6 ff 00 02 	bne $2,$0,40f2f8 <__printf_fp+0x23e8>
  40f3e0:	06 00 00 00 f6 ff 00 04 	bne $4,$0,40f3c0 <__printf_fp+0x24b0>
  40f3e8:	42 00 00 00 00 02 00 00 	addu $2,$0,$0
  40f3f0:	34 00 00 00 ac 05 02 11 	sw $2,1452($17)
  40f3f8:	06 00 00 00 04 00 00 02 	bne $2,$0,40f410 <__printf_fp+0x2500>
  40f400:	43 00 00 00 01 00 02 00 	addiu $2,$0,1
  40f408:	34 00 00 00 ac 05 02 11 	sw $2,1452($17)
  40f410:	43 00 00 00 60 03 10 11 	addiu $16,$17,864
  40f418:	28 00 00 00 ac 05 02 11 	lw $2,1452($17)
  40f420:	42 00 00 00 00 04 10 00 	addu $4,$0,$16
  40f428:	43 00 00 00 80 04 05 11 	addiu $5,$17,1152
  40f430:	55 00 00 00 02 06 02 00 	sll $6,$2,0x2
  40f438:	34 00 00 00 a8 05 02 11 	sw $2,1448($17)
  40f440:	02 00 00 00 94 47 10 00 	jal 411e50 <memcpy>
  40f448:	43 00 00 00 f0 03 12 11 	addiu $18,$17,1008
  40f450:	42 00 00 00 00 04 12 00 	addu $4,$0,$18
  40f458:	28 00 00 00 a8 05 06 11 	lw $6,1448($17)
  40f460:	42 00 00 00 00 05 10 00 	addu $5,$0,$16
  40f468:	43 00 00 00 01 00 07 00 	addiu $7,$0,1
  40f470:	02 00 00 00 84 4e 10 00 	jal 413a10 <__mpn_lshift>
  40f478:	28 00 00 00 a8 05 04 11 	lw $4,1448($17)
  40f480:	34 00 00 00 a4 05 02 11 	sw $2,1444($17)
  40f488:	28 00 00 00 a4 05 02 11 	lw $2,1444($17)
  40f490:	34 00 00 00 b8 05 04 11 	sw $4,1464($17)
  40f498:	05 00 00 00 0c 00 00 02 	beq $2,$0,40f4d0 <__printf_fp+0x25c0>
  40f4a0:	28 00 00 00 a4 05 03 11 	lw $3,1444($17)
  40f4a8:	43 00 00 00 01 00 02 04 	addiu $2,$4,1
  40f4b0:	34 00 00 00 b8 05 02 11 	sw $2,1464($17)
  40f4b8:	55 00 00 00 02 02 04 00 	sll $2,$4,0x2
  40f4c0:	42 00 00 00 00 02 11 02 	addu $2,$2,$17
  40f4c8:	34 00 00 00 f0 03 03 02 	sw $3,1008($2)
  40f4d0:	43 00 00 00 40 02 10 11 	addiu $16,$17,576
  40f4d8:	42 00 00 00 00 04 10 00 	addu $4,$0,$16
  40f4e0:	28 00 00 00 bc 05 06 11 	lw $6,1468($17)
  40f4e8:	42 00 00 00 00 05 10 00 	addu $5,$0,$16
  40f4f0:	43 00 00 00 0a 00 07 00 	addiu $7,$0,10
  40f4f8:	02 00 00 00 8c 52 10 00 	jal 414a30 <__mpn_mul_1>
  40f500:	34 00 00 00 a4 05 02 11 	sw $2,1444($17)
  40f508:	05 00 00 00 0e 00 00 02 	beq $2,$0,40f548 <__printf_fp+0x2638>
  40f510:	28 00 00 00 bc 05 02 11 	lw $2,1468($17)
  40f518:	43 00 00 00 01 00 03 02 	addiu $3,$2,1
  40f520:	34 00 00 00 bc 05 03 11 	sw $3,1468($17)
  40f528:	28 00 00 00 a4 05 03 11 	lw $3,1444($17)
  40f530:	55 00 00 00 02 02 02 00 	sll $2,$2,0x2
  40f538:	42 00 00 00 00 02 11 02 	addu $2,$2,$17
  40f540:	34 00 00 00 40 02 03 02 	sw $3,576($2)
  40f548:	43 00 00 00 d0 02 04 11 	addiu $4,$17,720
  40f550:	28 00 00 00 c0 05 06 11 	lw $6,1472($17)
  40f558:	42 00 00 00 00 05 04 00 	addu $5,$0,$4
  40f560:	43 00 00 00 0a 00 07 00 	addiu $7,$0,10
  40f568:	02 00 00 00 8c 52 10 00 	jal 414a30 <__mpn_mul_1>
  40f570:	34 00 00 00 a4 05 02 11 	sw $2,1444($17)
  40f578:	05 00 00 00 0e 00 00 02 	beq $2,$0,40f5b8 <__printf_fp+0x26a8>
  40f580:	28 00 00 00 c0 05 02 11 	lw $2,1472($17)
  40f588:	43 00 00 00 01 00 03 02 	addiu $3,$2,1
  40f590:	34 00 00 00 c0 05 03 11 	sw $3,1472($17)
  40f598:	28 00 00 00 a4 05 03 11 	lw $3,1444($17)
  40f5a0:	55 00 00 00 02 02 02 00 	sll $2,$2,0x2
  40f5a8:	42 00 00 00 00 02 11 02 	addu $2,$2,$17
  40f5b0:	34 00 00 00 d0 02 03 02 	sw $3,720($2)
  40f5b8:	28 00 00 00 b8 05 06 11 	lw $6,1464($17)
  40f5c0:	28 00 00 00 bc 05 03 11 	lw $3,1468($17)
  40f5c8:	42 00 00 00 00 13 00 00 	addu $19,$0,$0
  40f5d0:	5b 00 00 00 00 02 03 06 	slt $2,$6,$3
  40f5d8:	06 00 00 00 0a 00 00 02 	bne $2,$0,40f608 <__printf_fp+0x26f8>
  40f5e0:	06 00 00 00 0a 00 03 06 	bne $6,$3,40f610 <__printf_fp+0x2700>
  40f5e8:	42 00 00 00 00 04 12 00 	addu $4,$0,$18
  40f5f0:	42 00 00 00 00 05 10 00 	addu $5,$0,$16
  40f5f8:	02 00 00 00 c0 4e 10 00 	jal 413b00 <__mpn_cmp>
  40f600:	0a 00 00 00 02 00 00 02 	bgez $2,40f610 <__printf_fp+0x2700>
  40f608:	43 00 00 00 01 00 13 00 	addiu $19,$0,1
  40f610:	28 00 00 00 c8 05 12 11 	lw $18,1480($17)
  40f618:	28 00 00 00 c0 05 10 11 	lw $16,1472($17)
  40f620:	34 00 00 00 c4 05 13 11 	sw $19,1476($17)
  40f628:	5b 00 00 00 00 02 10 12 	slt $2,$18,$16
  40f630:	05 00 00 00 06 00 00 02 	beq $2,$0,40f650 <__printf_fp+0x2740>
  40f638:	43 00 00 00 01 00 02 00 	addiu $2,$0,1
  40f640:	34 00 00 00 cc 05 02 11 	sw $2,1484($17)
  40f648:	01 00 00 00 2a 3e 10 00 	j 40f8a8 <__printf_fp+0x2998>
  40f650:	42 00 00 00 00 06 00 00 	addu $6,$0,$0
  40f658:	43 00 00 00 10 05 14 11 	addiu $20,$17,1296
  40f660:	43 00 00 00 20 01 13 11 	addiu $19,$17,288
  40f668:	43 00 00 00 d0 02 02 11 	addiu $2,$17,720
  40f670:	05 00 00 00 0c 00 00 10 	beq $16,$0,40f6a8 <__printf_fp+0x2798>
  40f678:	42 00 00 00 00 04 14 00 	addu $4,$0,$20
  40f680:	42 00 00 00 00 05 13 00 	addu $5,$0,$19
  40f688:	42 00 00 00 00 06 02 00 	addu $6,$0,$2
  40f690:	42 00 00 00 00 07 10 00 	addu $7,$0,$16
  40f698:	02 00 00 00 e0 55 10 00 	jal 415780 <__mpn_sub_n>
  40f6a0:	42 00 00 00 00 06 02 00 	addu $6,$0,$2
  40f6a8:	05 00 00 00 46 00 10 12 	beq $18,$16,40f7c8 <__printf_fp+0x28b8>
  40f6b0:	55 00 00 00 02 02 10 00 	sll $2,$16,0x2
  40f6b8:	42 00 00 00 00 05 13 02 	addu $5,$2,$19
  40f6c0:	28 00 00 00 00 00 03 05 	lw $3,0($5)
  40f6c8:	42 00 00 00 00 04 14 02 	addu $4,$2,$20
  40f6d0:	45 00 00 00 00 07 10 12 	subu $7,$18,$16
  40f6d8:	43 00 00 00 04 00 05 05 	addiu $5,$5,4
  40f6e0:	45 00 00 00 00 02 06 03 	subu $2,$3,$6
  40f6e8:	34 00 00 00 00 00 02 04 	sw $2,0($4)
  40f6f0:	43 00 00 00 04 00 04 04 	addiu $4,$4,4
  40f6f8:	5d 00 00 00 00 02 02 03 	sltu $2,$3,$2
  40f700:	05 00 00 00 18 00 00 02 	beq $2,$0,40f768 <__printf_fp+0x2858>
  40f708:	43 00 00 00 ff ff 07 07 	addiu $7,$7,-1
  40f710:	05 00 00 00 10 00 00 07 	beq $7,$0,40f758 <__printf_fp+0x2848>
  40f718:	28 00 00 00 00 00 03 05 	lw $3,0($5)
  40f720:	43 00 00 00 04 00 05 05 	addiu $5,$5,4
  40f728:	43 00 00 00 ff ff 02 03 	addiu $2,$3,-1
  40f730:	34 00 00 00 00 00 02 04 	sw $2,0($4)
  40f738:	43 00 00 00 04 00 04 04 	addiu $4,$4,4
  40f740:	06 00 00 00 08 00 00 03 	bne $3,$0,40f768 <__printf_fp+0x2858>
  40f748:	43 00 00 00 ff ff 07 07 	addiu $7,$7,-1
  40f750:	06 00 00 00 f0 ff 00 07 	bne $7,$0,40f718 <__printf_fp+0x2808>
  40f758:	43 00 00 00 01 00 06 00 	addiu $6,$0,1
  40f760:	01 00 00 00 f2 3d 10 00 	j 40f7c8 <__printf_fp+0x28b8>
  40f768:	05 00 00 00 14 00 05 04 	beq $4,$5,40f7c0 <__printf_fp+0x28b0>
  40f770:	42 00 00 00 00 03 00 00 	addu $3,$0,$0
  40f778:	43 00 00 00 ff ff 07 07 	addiu $7,$7,-1
  40f780:	07 00 00 00 0e 00 00 07 	blez $7,40f7c0 <__printf_fp+0x28b0>
  40f788:	28 00 00 00 00 00 02 05 	lw $2,0($5)
  40f790:	43 00 00 00 01 00 03 03 	addiu $3,$3,1
  40f798:	34 00 00 00 00 00 02 04 	sw $2,0($4)
  40f7a0:	43 00 00 00 04 00 04 04 	addiu $4,$4,4
  40f7a8:	43 00 00 00 04 00 05 05 	addiu $5,$5,4
  40f7b0:	5b 00 00 00 00 02 07 03 	slt $2,$3,$7
  40f7b8:	06 00 00 00 f2 ff 00 02 	bne $2,$0,40f788 <__printf_fp+0x2878>
  40f7c0:	42 00 00 00 00 06 00 00 	addu $6,$0,$0
  40f7c8:	28 00 00 00 c8 05 03 11 	lw $3,1480($17)
  40f7d0:	34 00 00 00 a4 05 06 11 	sw $6,1444($17)
  40f7d8:	28 00 00 00 a4 05 02 11 	lw $2,1444($17)
  40f7e0:	42 00 00 00 00 10 00 00 	addu $16,$0,$0
  40f7e8:	34 00 00 00 d0 05 03 11 	sw $3,1488($17)
  40f7f0:	06 00 00 00 28 00 00 02 	bne $2,$0,40f898 <__printf_fp+0x2988>
  40f7f8:	28 00 00 00 d4 05 02 11 	lw $2,1492($17)
  40f800:	05 00 00 00 14 00 00 02 	beq $2,$0,40f858 <__printf_fp+0x2948>
  40f808:	28 00 00 00 b8 05 04 11 	lw $4,1464($17)
  40f810:	5b 00 00 00 00 02 04 03 	slt $2,$3,$4
  40f818:	06 00 00 00 1e 00 00 02 	bne $2,$0,40f898 <__printf_fp+0x2988>
  40f820:	06 00 00 00 1e 00 03 04 	bne $4,$3,40f8a0 <__printf_fp+0x2990>
  40f828:	43 00 00 00 f0 03 04 11 	addiu $4,$17,1008
  40f830:	43 00 00 00 10 05 05 11 	addiu $5,$17,1296
  40f838:	42 00 00 00 00 06 03 00 	addu $6,$0,$3
  40f840:	02 00 00 00 c0 4e 10 00 	jal 413b00 <__mpn_cmp>
  40f848:	0a 00 00 00 12 00 00 02 	bgez $2,40f898 <__printf_fp+0x2988>
  40f850:	01 00 00 00 28 3e 10 00 	j 40f8a0 <__printf_fp+0x2990>
  40f858:	28 00 00 00 b8 05 06 11 	lw $6,1464($17)
  40f860:	5b 00 00 00 00 02 06 03 	slt $2,$3,$6
  40f868:	06 00 00 00 0a 00 00 02 	bne $2,$0,40f898 <__printf_fp+0x2988>
  40f870:	06 00 00 00 0a 00 03 06 	bne $6,$3,40f8a0 <__printf_fp+0x2990>
  40f878:	43 00 00 00 f0 03 04 11 	addiu $4,$17,1008
  40f880:	43 00 00 00 10 05 05 11 	addiu $5,$17,1296
  40f888:	02 00 00 00 c0 4e 10 00 	jal 413b00 <__mpn_cmp>
  40f890:	07 00 00 00 02 00 00 02 	blez $2,40f8a0 <__printf_fp+0x2990>
  40f898:	43 00 00 00 01 00 10 00 	addiu $16,$0,1
  40f8a0:	34 00 00 00 cc 05 10 11 	sw $16,1484($17)
  40f8a8:	28 00 00 00 c4 05 02 11 	lw $2,1476($17)
  40f8b0:	06 00 00 00 0a 00 00 02 	bne $2,$0,40f8e0 <__printf_fp+0x29d0>
  40f8b8:	28 00 00 00 cc 05 02 11 	lw $2,1484($17)
  40f8c0:	06 00 00 00 0a 00 00 02 	bne $2,$0,40f8f0 <__printf_fp+0x29e0>
  40f8c8:	28 00 00 00 a0 05 03 11 	lw $3,1440($17)
  40f8d0:	28 00 00 00 d8 05 02 11 	lw $2,1496($17)
  40f8d8:	06 00 00 00 24 00 02 03 	bne $3,$2,40f970 <__printf_fp+0x2a60>
  40f8e0:	28 00 00 00 cc 05 02 11 	lw $2,1484($17)
  40f8e8:	05 00 00 00 20 00 00 02 	beq $2,$0,40f970 <__printf_fp+0x2a60>
  40f8f0:	28 00 00 00 c4 05 02 11 	lw $2,1476($17)
  40f8f8:	05 00 00 00 16 00 00 02 	beq $2,$0,40f958 <__printf_fp+0x2a48>
  40f900:	28 00 00 00 cc 05 02 11 	lw $2,1484($17)
  40f908:	05 00 00 00 18 00 00 02 	beq $2,$0,40f970 <__printf_fp+0x2a60>
  40f910:	28 00 00 00 b8 05 06 11 	lw $6,1464($17)
  40f918:	28 00 00 00 b0 05 03 11 	lw $3,1456($17)
  40f920:	5b 00 00 00 00 02 06 03 	slt $2,$3,$6
  40f928:	06 00 00 00 0a 00 00 02 	bne $2,$0,40f958 <__printf_fp+0x2a48>
  40f930:	06 00 00 00 0e 00 03 06 	bne $6,$3,40f970 <__printf_fp+0x2a60>
  40f938:	43 00 00 00 f0 03 04 11 	addiu $4,$17,1008
  40f940:	43 00 00 00 90 00 05 11 	addiu $5,$17,144
  40f948:	02 00 00 00 c0 4e 10 00 	jal 413b00 <__mpn_cmp>
  40f950:	07 00 00 00 06 00 00 02 	blez $2,40f970 <__printf_fp+0x2a60>
  40f958:	22 00 00 00 b4 05 02 11 	lbu $2,1460($17)
  40f960:	43 00 00 00 01 00 02 02 	addiu $2,$2,1
  40f968:	30 00 00 00 b4 05 02 11 	sb $2,1460($17)
  40f970:	22 00 00 00 a8 06 09 1e 	lbu $9,1704($30)
  40f978:	43 00 00 00 65 00 03 00 	addiu $3,$0,101
  40f980:	55 00 00 00 18 02 09 00 	sll $2,$9,0x18
  40f988:	59 00 00 00 18 02 02 00 	sra $2,$2,0x18
  40f990:	06 00 00 00 72 03 03 02 	bne $2,$3,410760 <__printf_fp+0x3850>
  40f998:	28 00 00 00 b8 05 09 1e 	lw $9,1464($30)
  40f9a0:	34 00 00 00 e8 06 09 1e 	sw $9,1768($30)
  40f9a8:	57 00 00 00 1f 09 09 00 	srl $9,$9,0x1f
  40f9b0:	34 00 00 00 f0 06 09 1e 	sw $9,1776($30)
  40f9b8:	05 00 00 00 06 00 00 09 	beq $9,$0,40f9d8 <__printf_fp+0x2ac8>
  40f9c0:	28 00 00 00 e8 06 09 1e 	lw $9,1768($30)
  40f9c8:	45 00 00 00 00 09 09 00 	subu $9,$0,$9
  40f9d0:	34 00 00 00 e8 06 09 1e 	sw $9,1768($30)
  40f9d8:	28 00 00 00 e8 06 09 1e 	lw $9,1768($30)
  40f9e0:	43 00 00 00 0a 00 15 00 	addiu $21,$0,10
  40f9e8:	5c 00 00 00 0a 00 02 09 	slti $2,$9,10
  40f9f0:	06 00 00 00 0c 00 00 02 	bne $2,$0,40fa28 <__printf_fp+0x2b18>
  40f9f8:	55 00 00 00 02 02 15 00 	sll $2,$21,0x2
  40fa00:	28 00 00 00 e8 06 09 1e 	lw $9,1768($30)
  40fa08:	42 00 00 00 00 02 15 02 	addu $2,$2,$21
  40fa10:	55 00 00 00 01 15 02 00 	sll $21,$2,0x1
  40fa18:	5b 00 00 00 00 02 15 09 	slt $2,$9,$21
  40fa20:	05 00 00 00 f4 ff 00 02 	beq $2,$0,40f9f8 <__printf_fp+0x2ae8>
  40fa28:	22 00 00 00 cc 05 02 1e 	lbu $2,1484($30)
  40fa30:	30 00 00 00 00 00 02 17 	sb $2,0($23)
  40fa38:	28 00 00 00 dc 05 02 1e 	lw $2,1500($30)
  40fa40:	43 00 00 00 01 00 17 17 	addiu $23,$23,1
  40fa48:	06 00 00 00 0a 00 00 02 	bne $2,$0,40fa78 <__printf_fp+0x2b68>
  40fa50:	28 00 00 00 e4 05 02 1e 	lw $2,1508($30)
  40fa58:	06 00 00 00 06 00 00 02 	bne $2,$0,40fa78 <__printf_fp+0x2b68>
  40fa60:	28 00 00 00 b8 05 03 1e 	lw $3,1464($30)
  40fa68:	28 00 00 00 f0 05 02 1e 	lw $2,1520($30)
  40fa70:	06 00 00 00 26 00 02 03 	bne $3,$2,40fb10 <__printf_fp+0x2c00>
  40fa78:	28 00 00 00 90 06 09 1e 	lw $9,1680($30)
  40fa80:	22 00 00 00 08 00 02 09 	lbu $2,8($9)
  40fa88:	28 00 00 00 24 81 03 1c 	lw $3,-32476($28)
  40fa90:	55 00 00 00 01 02 02 00 	sll $2,$2,0x1
  40fa98:	42 00 00 00 00 02 03 02 	addu $2,$2,$3
  40faa0:	24 00 00 00 00 00 03 02 	lh $3,0($2)
  40faa8:	43 00 00 00 67 00 02 00 	addiu $2,$0,103
  40fab0:	05 00 00 00 04 00 02 03 	beq $3,$2,40fac8 <__printf_fp+0x2bb8>
  40fab8:	28 00 00 00 b0 06 09 1e 	lw $9,1712($30)
  40fac0:	08 00 00 00 08 00 00 09 	bgtz $9,40fae8 <__printf_fp+0x2bd8>
  40fac8:	28 00 00 00 90 06 09 1e 	lw $9,1680($30)
  40fad0:	28 00 00 00 08 00 02 09 	lw $2,8($9)
  40fad8:	4f 00 00 00 00 08 02 02 	andi $2,$2,2048
  40fae0:	05 00 00 00 7e 02 00 02 	beq $2,$0,4104e0 <__printf_fp+0x35d0>
  40fae8:	28 00 00 00 a0 06 09 1e 	lw $9,1696($30)
  40faf0:	22 00 00 00 00 00 02 09 	lbu $2,0($9)
  40faf8:	30 00 00 00 00 00 02 17 	sb $2,0($23)
  40fb00:	43 00 00 00 01 00 17 17 	addiu $23,$23,1
  40fb08:	01 00 00 00 38 41 10 00 	j 4104e0 <__printf_fp+0x35d0>
  40fb10:	43 00 00 00 98 04 09 1e 	addiu $9,$30,1176
  40fb18:	34 00 00 00 f8 06 09 1e 	sw $9,1784($30)
  40fb20:	43 00 00 00 78 03 09 1e 	addiu $9,$30,888
  40fb28:	34 00 00 00 00 07 09 1e 	sw $9,1792($30)
  40fb30:	28 00 00 00 a0 06 09 1e 	lw $9,1696($30)
  40fb38:	22 00 00 00 00 00 02 09 	lbu $2,0($9)
  40fb40:	43 00 00 00 18 00 10 1e 	addiu $16,$30,24
  40fb48:	43 00 00 00 08 04 09 1e 	addiu $9,$30,1032
  40fb50:	34 00 00 00 08 07 09 1e 	sw $9,1800($30)
  40fb58:	43 00 00 00 58 02 09 1e 	addiu $9,$30,600
  40fb60:	34 00 00 00 10 07 09 1e 	sw $9,1808($30)
  40fb68:	30 00 00 00 00 00 02 17 	sb $2,0($23)
  40fb70:	43 00 00 00 01 00 17 17 	addiu $23,$23,1
  40fb78:	43 00 00 00 98 04 04 1e 	addiu $4,$30,1176
  40fb80:	43 00 00 00 78 03 05 1e 	addiu $5,$30,888
  40fb88:	28 00 00 00 b8 05 02 1e 	lw $2,1464($30)
  40fb90:	28 00 00 00 c0 05 06 1e 	lw $6,1472($30)
  40fb98:	43 00 00 00 0a 00 07 00 	addiu $7,$0,10
  40fba0:	43 00 00 00 ff ff 02 02 	addiu $2,$2,-1
  40fba8:	34 00 00 00 b8 05 02 1e 	sw $2,1464($30)
  40fbb0:	02 00 00 00 8c 52 10 00 	jal 414a30 <__mpn_mul_1>
  40fbb8:	28 00 00 00 c0 05 03 1e 	lw $3,1472($30)
  40fbc0:	42 00 00 00 00 04 02 00 	addu $4,$0,$2
  40fbc8:	34 00 00 00 bc 05 04 1e 	sw $4,1468($30)
  40fbd0:	34 00 00 00 c4 05 03 1e 	sw $3,1476($30)
  40fbd8:	05 00 00 00 0a 00 00 04 	beq $4,$0,40fc08 <__printf_fp+0x2cf8>
  40fbe0:	43 00 00 00 01 00 02 03 	addiu $2,$3,1
  40fbe8:	34 00 00 00 c4 05 02 1e 	sw $2,1476($30)
  40fbf0:	55 00 00 00 02 02 03 00 	sll $2,$3,0x2
  40fbf8:	42 00 00 00 00 02 10 02 	addu $2,$2,$16
  40fc00:	34 00 00 00 80 04 04 02 	sw $4,1152($2)
  40fc08:	28 00 00 00 c8 05 02 1e 	lw $2,1480($30)
  40fc10:	55 00 00 00 02 02 02 00 	sll $2,$2,0x2
  40fc18:	42 00 00 00 00 02 02 10 	addu $2,$16,$2
  40fc20:	28 00 00 00 8c 00 04 02 	lw $4,140($2)
  40fc28:	51 00 00 00 ff ff 02 00 	ori $2,$0,65535
  40fc30:	5d 00 00 00 00 02 04 02 	sltu $2,$2,$4
  40fc38:	06 00 00 00 08 00 00 02 	bne $2,$0,40fc60 <__printf_fp+0x2d50>
  40fc40:	5e 00 00 00 00 01 02 04 	sltiu $2,$4,256
  40fc48:	53 00 00 00 01 00 02 02 	xori $2,$2,1
  40fc50:	55 00 00 00 03 03 02 00 	sll $3,$2,0x3
  40fc58:	01 00 00 00 24 3f 10 00 	j 40fc90 <__printf_fp+0x2d80>
  40fc60:	a2 00 00 00 ff 00 02 00 	lui $2,255
  40fc68:	51 00 00 00 ff ff 02 02 	ori $2,$2,65535
  40fc70:	43 00 00 00 18 00 03 00 	addiu $3,$0,24
  40fc78:	5d 00 00 00 00 02 04 02 	sltu $2,$2,$4
  40fc80:	06 00 00 00 02 00 00 02 	bne $2,$0,40fc90 <__printf_fp+0x2d80>
  40fc88:	43 00 00 00 10 00 03 00 	addiu $3,$0,16
  40fc90:	58 00 00 00 00 02 04 03 	srlv $2,$4,$3
  40fc98:	a2 00 00 00 01 10 01 00 	lui $1,4097
  40fca0:	42 00 00 00 00 01 02 01 	addu $1,$1,$2
  40fca8:	22 00 00 00 e0 18 02 01 	lbu $2,6368($1)
  40fcb0:	42 00 00 00 00 02 03 02 	addu $2,$2,$3
  40fcb8:	43 00 00 00 20 00 03 00 	addiu $3,$0,32
  40fcc0:	45 00 00 00 00 11 02 03 	subu $17,$3,$2
  40fcc8:	05 00 00 00 62 00 00 11 	beq $17,$0,40fe58 <__printf_fp+0x2f48>
  40fcd0:	43 00 00 00 90 00 05 10 	addiu $5,$16,144
  40fcd8:	28 00 00 00 b0 05 06 10 	lw $6,1456($16)
  40fce0:	42 00 00 00 00 07 11 00 	addu $7,$0,$17
  40fce8:	42 00 00 00 00 13 1d 00 	addu $19,$0,$29
  40fcf0:	55 00 00 00 02 02 06 00 	sll $2,$6,0x2
  40fcf8:	43 00 00 00 0e 00 02 02 	addiu $2,$2,14
  40fd00:	57 00 00 00 03 02 02 00 	srl $2,$2,0x3
  40fd08:	55 00 00 00 03 02 02 00 	sll $2,$2,0x3
  40fd10:	45 00 00 00 00 1d 02 1d 	subu $29,$29,$2
  40fd18:	28 00 00 00 00 00 02 1d 	lw $2,0($29)
  40fd20:	43 00 00 00 18 00 12 1d 	addiu $18,$29,24
  40fd28:	42 00 00 00 00 04 12 00 	addu $4,$0,$18
  40fd30:	02 00 00 00 84 4e 10 00 	jal 413a10 <__mpn_lshift>
  40fd38:	28 00 00 00 f8 06 04 1e 	lw $4,1784($30)
  40fd40:	28 00 00 00 ac 05 06 10 	lw $6,1452($16)
  40fd48:	28 00 00 00 f8 06 05 1e 	lw $5,1784($30)
  40fd50:	42 00 00 00 00 07 11 00 	addu $7,$0,$17
  40fd58:	02 00 00 00 84 4e 10 00 	jal 413a10 <__mpn_lshift>
  40fd60:	42 00 00 00 00 04 02 00 	addu $4,$0,$2
  40fd68:	05 00 00 00 0c 00 00 04 	beq $4,$0,40fda0 <__printf_fp+0x2e90>
  40fd70:	28 00 00 00 ac 05 02 10 	lw $2,1452($16)
  40fd78:	43 00 00 00 01 00 03 02 	addiu $3,$2,1
  40fd80:	55 00 00 00 02 02 02 00 	sll $2,$2,0x2
  40fd88:	42 00 00 00 00 02 10 02 	addu $2,$2,$16
  40fd90:	34 00 00 00 ac 05 03 10 	sw $3,1452($16)
  40fd98:	34 00 00 00 80 04 04 02 	sw $4,1152($2)
  40fda0:	28 00 00 00 b0 05 02 10 	lw $2,1456($16)
  40fda8:	34 00 00 00 10 00 02 1d 	sw $2,16($29)
  40fdb0:	28 00 00 00 ac 05 06 10 	lw $6,1452($16)
  40fdb8:	28 00 00 00 f8 06 05 1e 	lw $5,1784($30)
  40fdc0:	43 00 00 00 10 05 04 10 	addiu $4,$16,1296
  40fdc8:	42 00 00 00 00 07 12 00 	addu $7,$0,$18
  40fdd0:	02 00 00 00 d8 52 10 00 	jal 414b60 <__mpn_divmod>
  40fdd8:	28 00 00 00 ac 05 03 10 	lw $3,1452($16)
  40fde0:	28 00 00 00 b0 05 05 10 	lw $5,1456($16)
  40fde8:	28 00 00 00 f8 06 04 1e 	lw $4,1784($30)
  40fdf0:	45 00 00 00 00 03 05 03 	subu $3,$3,$5
  40fdf8:	55 00 00 00 02 03 03 00 	sll $3,$3,0x2
  40fe00:	42 00 00 00 00 03 10 03 	addu $3,$3,$16
  40fe08:	34 00 00 00 10 05 02 03 	sw $2,1296($3)
  40fe10:	28 00 00 00 b0 05 06 10 	lw $6,1456($16)
  40fe18:	28 00 00 00 f8 06 05 1e 	lw $5,1784($30)
  40fe20:	42 00 00 00 00 07 11 00 	addu $7,$0,$17
  40fe28:	34 00 00 00 ac 05 06 10 	sw $6,1452($16)
  40fe30:	02 00 00 00 a8 55 10 00 	jal 4156a0 <__mpn_rshift>
  40fe38:	42 00 00 00 00 1d 13 00 	addu $29,$0,$19
  40fe40:	01 00 00 00 b4 3f 10 00 	j 40fed0 <__printf_fp+0x2fc0>
  40fe48:	43 00 00 00 01 00 02 04 	addiu $2,$4,1
  40fe50:	01 00 00 00 d0 3f 10 00 	j 40ff40 <__printf_fp+0x3030>
  40fe58:	28 00 00 00 b0 05 02 10 	lw $2,1456($16)
  40fe60:	43 00 00 00 10 05 04 10 	addiu $4,$16,1296
  40fe68:	34 00 00 00 10 00 02 1d 	sw $2,16($29)
  40fe70:	28 00 00 00 ac 05 06 10 	lw $6,1452($16)
  40fe78:	43 00 00 00 80 04 05 10 	addiu $5,$16,1152
  40fe80:	43 00 00 00 90 00 07 10 	addiu $7,$16,144
  40fe88:	02 00 00 00 d8 52 10 00 	jal 414b60 <__mpn_divmod>
  40fe90:	28 00 00 00 ac 05 03 10 	lw $3,1452($16)
  40fe98:	28 00 00 00 b0 05 04 10 	lw $4,1456($16)
  40fea0:	45 00 00 00 00 03 04 03 	subu $3,$3,$4
  40fea8:	55 00 00 00 02 03 03 00 	sll $3,$3,0x2
  40feb0:	42 00 00 00 00 03 10 03 	addu $3,$3,$16
  40feb8:	34 00 00 00 10 05 02 03 	sw $2,1296($3)
  40fec0:	28 00 00 00 b0 05 02 10 	lw $2,1456($16)
  40fec8:	34 00 00 00 ac 05 02 10 	sw $2,1452($16)
  40fed0:	28 00 00 00 10 05 02 10 	lw $2,1296($16)
  40fed8:	28 00 00 00 ac 05 04 10 	lw $4,1452($16)
  40fee0:	43 00 00 00 80 04 03 10 	addiu $3,$16,1152
  40fee8:	43 00 00 00 30 00 02 02 	addiu $2,$2,48
  40fef0:	30 00 00 00 b4 05 02 10 	sb $2,1460($16)
  40fef8:	05 00 00 00 0e 00 00 04 	beq $4,$0,40ff38 <__printf_fp+0x3028>
  40ff00:	55 00 00 00 02 02 04 00 	sll $2,$4,0x2
  40ff08:	42 00 00 00 00 03 03 02 	addu $3,$2,$3
  40ff10:	43 00 00 00 fc ff 03 03 	addiu $3,$3,-4
  40ff18:	28 00 00 00 00 00 02 03 	lw $2,0($3)
  40ff20:	43 00 00 00 ff ff 04 04 	addiu $4,$4,-1
  40ff28:	06 00 00 00 c6 ff 00 02 	bne $2,$0,40fe48 <__printf_fp+0x2f38>
  40ff30:	06 00 00 00 f6 ff 00 04 	bne $4,$0,40ff10 <__printf_fp+0x3000>
  40ff38:	42 00 00 00 00 02 00 00 	addu $2,$0,$0
  40ff40:	34 00 00 00 ac 05 02 10 	sw $2,1452($16)
  40ff48:	06 00 00 00 04 00 00 02 	bne $2,$0,40ff60 <__printf_fp+0x3050>
  40ff50:	43 00 00 00 01 00 02 00 	addiu $2,$0,1
  40ff58:	34 00 00 00 ac 05 02 10 	sw $2,1452($16)
  40ff60:	28 00 00 00 ac 05 02 10 	lw $2,1452($16)
  40ff68:	28 00 00 00 00 07 04 1e 	lw $4,1792($30)
  40ff70:	43 00 00 00 80 04 05 10 	addiu $5,$16,1152
  40ff78:	55 00 00 00 02 06 02 00 	sll $6,$2,0x2
  40ff80:	34 00 00 00 a8 05 02 10 	sw $2,1448($16)
  40ff88:	02 00 00 00 94 47 10 00 	jal 411e50 <memcpy>
  40ff90:	28 00 00 00 08 07 04 1e 	lw $4,1800($30)
  40ff98:	28 00 00 00 a8 05 06 10 	lw $6,1448($16)
  40ffa0:	28 00 00 00 00 07 05 1e 	lw $5,1792($30)
  40ffa8:	43 00 00 00 01 00 07 00 	addiu $7,$0,1
  40ffb0:	02 00 00 00 84 4e 10 00 	jal 413a10 <__mpn_lshift>
  40ffb8:	28 00 00 00 a8 05 04 10 	lw $4,1448($16)
  40ffc0:	34 00 00 00 a4 05 02 10 	sw $2,1444($16)
  40ffc8:	28 00 00 00 a4 05 02 10 	lw $2,1444($16)
  40ffd0:	34 00 00 00 b8 05 04 10 	sw $4,1464($16)
  40ffd8:	05 00 00 00 0c 00 00 02 	beq $2,$0,410010 <__printf_fp+0x3100>
  40ffe0:	28 00 00 00 a4 05 03 10 	lw $3,1444($16)
  40ffe8:	43 00 00 00 01 00 02 04 	addiu $2,$4,1
  40fff0:	34 00 00 00 b8 05 02 10 	sw $2,1464($16)
  40fff8:	55 00 00 00 02 02 04 00 	sll $2,$4,0x2
  410000:	42 00 00 00 00 02 10 02 	addu $2,$2,$16
  410008:	34 00 00 00 f0 03 03 02 	sw $3,1008($2)
  410010:	28 00 00 00 10 07 04 1e 	lw $4,1808($30)
  410018:	28 00 00 00 bc 05 06 10 	lw $6,1468($16)
  410020:	28 00 00 00 10 07 05 1e 	lw $5,1808($30)
  410028:	43 00 00 00 0a 00 07 00 	addiu $7,$0,10
  410030:	02 00 00 00 8c 52 10 00 	jal 414a30 <__mpn_mul_1>
  410038:	34 00 00 00 a4 05 02 10 	sw $2,1444($16)
  410040:	05 00 00 00 0e 00 00 02 	beq $2,$0,410080 <__printf_fp+0x3170>
  410048:	28 00 00 00 bc 05 02 10 	lw $2,1468($16)
  410050:	43 00 00 00 01 00 03 02 	addiu $3,$2,1
  410058:	34 00 00 00 bc 05 03 10 	sw $3,1468($16)
  410060:	28 00 00 00 a4 05 03 10 	lw $3,1444($16)
  410068:	55 00 00 00 02 02 02 00 	sll $2,$2,0x2
  410070:	42 00 00 00 00 02 10 02 	addu $2,$2,$16
  410078:	34 00 00 00 40 02 03 02 	sw $3,576($2)
  410080:	43 00 00 00 d0 02 04 10 	addiu $4,$16,720
  410088:	28 00 00 00 c0 05 06 10 	lw $6,1472($16)
  410090:	42 00 00 00 00 05 04 00 	addu $5,$0,$4
  410098:	43 00 00 00 0a 00 07 00 	addiu $7,$0,10
  4100a0:	02 00 00 00 8c 52 10 00 	jal 414a30 <__mpn_mul_1>
  4100a8:	34 00 00 00 a4 05 02 10 	sw $2,1444($16)
  4100b0:	05 00 00 00 0e 00 00 02 	beq $2,$0,4100f0 <__printf_fp+0x31e0>
  4100b8:	28 00 00 00 c0 05 02 10 	lw $2,1472($16)
  4100c0:	43 00 00 00 01 00 03 02 	addiu $3,$2,1
  4100c8:	34 00 00 00 c0 05 03 10 	sw $3,1472($16)
  4100d0:	28 00 00 00 a4 05 03 10 	lw $3,1444($16)
  4100d8:	55 00 00 00 02 02 02 00 	sll $2,$2,0x2
  4100e0:	42 00 00 00 00 02 10 02 	addu $2,$2,$16
  4100e8:	34 00 00 00 d0 02 03 02 	sw $3,720($2)
  4100f0:	28 00 00 00 b8 05 06 10 	lw $6,1464($16)
  4100f8:	28 00 00 00 bc 05 03 10 	lw $3,1468($16)
  410100:	42 00 00 00 00 13 00 00 	addu $19,$0,$0
  410108:	5b 00 00 00 00 02 03 06 	slt $2,$6,$3
  410110:	06 00 00 00 0a 00 00 02 	bne $2,$0,410140 <__printf_fp+0x3230>
  410118:	06 00 00 00 0a 00 03 06 	bne $6,$3,410148 <__printf_fp+0x3238>
  410120:	28 00 00 00 08 07 04 1e 	lw $4,1800($30)
  410128:	28 00 00 00 10 07 05 1e 	lw $5,1808($30)
  410130:	02 00 00 00 c0 4e 10 00 	jal 413b00 <__mpn_cmp>
  410138:	0a 00 00 00 02 00 00 02 	bgez $2,410148 <__printf_fp+0x3238>
  410140:	43 00 00 00 01 00 13 00 	addiu $19,$0,1
  410148:	28 00 00 00 c8 05 12 10 	lw $18,1480($16)
  410150:	28 00 00 00 c0 05 11 10 	lw $17,1472($16)
  410158:	34 00 00 00 c4 05 13 10 	sw $19,1476($16)
  410160:	5b 00 00 00 00 02 11 12 	slt $2,$18,$17
  410168:	05 00 00 00 06 00 00 02 	beq $2,$0,410188 <__printf_fp+0x3278>
  410170:	43 00 00 00 01 00 02 00 	addiu $2,$0,1
  410178:	34 00 00 00 cc 05 02 10 	sw $2,1484($16)
  410180:	01 00 00 00 f8 40 10 00 	j 4103e0 <__printf_fp+0x34d0>
  410188:	42 00 00 00 00 06 00 00 	addu $6,$0,$0
  410190:	43 00 00 00 10 05 14 10 	addiu $20,$16,1296
  410198:	43 00 00 00 20 01 13 10 	addiu $19,$16,288
  4101a0:	43 00 00 00 d0 02 02 10 	addiu $2,$16,720
  4101a8:	05 00 00 00 0c 00 00 11 	beq $17,$0,4101e0 <__printf_fp+0x32d0>
  4101b0:	42 00 00 00 00 04 14 00 	addu $4,$0,$20
  4101b8:	42 00 00 00 00 05 13 00 	addu $5,$0,$19
  4101c0:	42 00 00 00 00 06 02 00 	addu $6,$0,$2
  4101c8:	42 00 00 00 00 07 11 00 	addu $7,$0,$17
  4101d0:	02 00 00 00 e0 55 10 00 	jal 415780 <__mpn_sub_n>
  4101d8:	42 00 00 00 00 06 02 00 	addu $6,$0,$2
  4101e0:	05 00 00 00 46 00 11 12 	beq $18,$17,410300 <__printf_fp+0x33f0>
  4101e8:	55 00 00 00 02 02 11 00 	sll $2,$17,0x2
  4101f0:	42 00 00 00 00 05 13 02 	addu $5,$2,$19
  4101f8:	28 00 00 00 00 00 03 05 	lw $3,0($5)
  410200:	42 00 00 00 00 04 14 02 	addu $4,$2,$20
  410208:	45 00 00 00 00 07 11 12 	subu $7,$18,$17
  410210:	43 00 00 00 04 00 05 05 	addiu $5,$5,4
  410218:	45 00 00 00 00 02 06 03 	subu $2,$3,$6
  410220:	34 00 00 00 00 00 02 04 	sw $2,0($4)
  410228:	43 00 00 00 04 00 04 04 	addiu $4,$4,4
  410230:	5d 00 00 00 00 02 02 03 	sltu $2,$3,$2
  410238:	05 00 00 00 18 00 00 02 	beq $2,$0,4102a0 <__printf_fp+0x3390>
  410240:	43 00 00 00 ff ff 07 07 	addiu $7,$7,-1
  410248:	05 00 00 00 10 00 00 07 	beq $7,$0,410290 <__printf_fp+0x3380>
  410250:	28 00 00 00 00 00 03 05 	lw $3,0($5)
  410258:	43 00 00 00 04 00 05 05 	addiu $5,$5,4
  410260:	43 00 00 00 ff ff 02 03 	addiu $2,$3,-1
  410268:	34 00 00 00 00 00 02 04 	sw $2,0($4)
  410270:	43 00 00 00 04 00 04 04 	addiu $4,$4,4
  410278:	06 00 00 00 08 00 00 03 	bne $3,$0,4102a0 <__printf_fp+0x3390>
  410280:	43 00 00 00 ff ff 07 07 	addiu $7,$7,-1
  410288:	06 00 00 00 f0 ff 00 07 	bne $7,$0,410250 <__printf_fp+0x3340>
  410290:	43 00 00 00 01 00 06 00 	addiu $6,$0,1
  410298:	01 00 00 00 c0 40 10 00 	j 410300 <__printf_fp+0x33f0>
  4102a0:	05 00 00 00 14 00 05 04 	beq $4,$5,4102f8 <__printf_fp+0x33e8>
  4102a8:	42 00 00 00 00 03 00 00 	addu $3,$0,$0
  4102b0:	43 00 00 00 ff ff 07 07 	addiu $7,$7,-1
  4102b8:	07 00 00 00 0e 00 00 07 	blez $7,4102f8 <__printf_fp+0x33e8>
  4102c0:	28 00 00 00 00 00 02 05 	lw $2,0($5)
  4102c8:	43 00 00 00 01 00 03 03 	addiu $3,$3,1
  4102d0:	34 00 00 00 00 00 02 04 	sw $2,0($4)
  4102d8:	43 00 00 00 04 00 04 04 	addiu $4,$4,4
  4102e0:	43 00 00 00 04 00 05 05 	addiu $5,$5,4
  4102e8:	5b 00 00 00 00 02 07 03 	slt $2,$3,$7
  4102f0:	06 00 00 00 f2 ff 00 02 	bne $2,$0,4102c0 <__printf_fp+0x33b0>
  4102f8:	42 00 00 00 00 06 00 00 	addu $6,$0,$0
  410300:	28 00 00 00 c8 05 07 10 	lw $7,1480($16)
  410308:	34 00 00 00 a4 05 06 10 	sw $6,1444($16)
  410310:	28 00 00 00 a4 05 02 10 	lw $2,1444($16)
  410318:	42 00 00 00 00 11 00 00 	addu $17,$0,$0
  410320:	34 00 00 00 d0 05 07 10 	sw $7,1488($16)
  410328:	06 00 00 00 28 00 00 02 	bne $2,$0,4103d0 <__printf_fp+0x34c0>
  410330:	28 00 00 00 d4 05 02 10 	lw $2,1492($16)
  410338:	05 00 00 00 14 00 00 02 	beq $2,$0,410390 <__printf_fp+0x3480>
  410340:	28 00 00 00 b8 05 03 10 	lw $3,1464($16)
  410348:	5b 00 00 00 00 02 03 07 	slt $2,$7,$3
  410350:	06 00 00 00 1e 00 00 02 	bne $2,$0,4103d0 <__printf_fp+0x34c0>
  410358:	06 00 00 00 1e 00 07 03 	bne $3,$7,4103d8 <__printf_fp+0x34c8>
  410360:	43 00 00 00 f0 03 04 10 	addiu $4,$16,1008
  410368:	43 00 00 00 10 05 05 10 	addiu $5,$16,1296
  410370:	42 00 00 00 00 06 07 00 	addu $6,$0,$7
  410378:	02 00 00 00 c0 4e 10 00 	jal 413b00 <__mpn_cmp>
  410380:	0a 00 00 00 12 00 00 02 	bgez $2,4103d0 <__printf_fp+0x34c0>
  410388:	01 00 00 00 f6 40 10 00 	j 4103d8 <__printf_fp+0x34c8>
  410390:	28 00 00 00 b8 05 06 10 	lw $6,1464($16)
  410398:	5b 00 00 00 00 02 06 07 	slt $2,$7,$6
  4103a0:	06 00 00 00 0a 00 00 02 	bne $2,$0,4103d0 <__printf_fp+0x34c0>
  4103a8:	06 00 00 00 0a 00 07 06 	bne $6,$7,4103d8 <__printf_fp+0x34c8>
  4103b0:	43 00 00 00 f0 03 04 10 	addiu $4,$16,1008
  4103b8:	43 00 00 00 10 05 05 10 	addiu $5,$16,1296
  4103c0:	02 00 00 00 c0 4e 10 00 	jal 413b00 <__mpn_cmp>
  4103c8:	07 00 00 00 02 00 00 02 	blez $2,4103d8 <__printf_fp+0x34c8>
  4103d0:	43 00 00 00 01 00 11 00 	addiu $17,$0,1
  4103d8:	34 00 00 00 cc 05 11 10 	sw $17,1484($16)
  4103e0:	28 00 00 00 c4 05 02 10 	lw $2,1476($16)
  4103e8:	06 00 00 00 0a 00 00 02 	bne $2,$0,410418 <__printf_fp+0x3508>
  4103f0:	28 00 00 00 cc 05 02 10 	lw $2,1484($16)
  4103f8:	06 00 00 00 0a 00 00 02 	bne $2,$0,410428 <__printf_fp+0x3518>
  410400:	28 00 00 00 a0 05 03 10 	lw $3,1440($16)
  410408:	28 00 00 00 d8 05 02 10 	lw $2,1496($16)
  410410:	06 00 00 00 28 00 02 03 	bne $3,$2,4104b8 <__printf_fp+0x35a8>
  410418:	28 00 00 00 cc 05 02 10 	lw $2,1484($16)
  410420:	05 00 00 00 20 00 00 02 	beq $2,$0,4104a8 <__printf_fp+0x3598>
  410428:	28 00 00 00 c4 05 02 10 	lw $2,1476($16)
  410430:	05 00 00 00 16 00 00 02 	beq $2,$0,410490 <__printf_fp+0x3580>
  410438:	28 00 00 00 cc 05 02 10 	lw $2,1484($16)
  410440:	05 00 00 00 18 00 00 02 	beq $2,$0,4104a8 <__printf_fp+0x3598>
  410448:	28 00 00 00 b8 05 06 10 	lw $6,1464($16)
  410450:	28 00 00 00 b0 05 03 10 	lw $3,1456($16)
  410458:	5b 00 00 00 00 02 06 03 	slt $2,$3,$6
  410460:	06 00 00 00 0a 00 00 02 	bne $2,$0,410490 <__printf_fp+0x3580>
  410468:	06 00 00 00 0e 00 03 06 	bne $6,$3,4104a8 <__printf_fp+0x3598>
  410470:	43 00 00 00 f0 03 04 10 	addiu $4,$16,1008
  410478:	43 00 00 00 90 00 05 10 	addiu $5,$16,144
  410480:	02 00 00 00 c0 4e 10 00 	jal 413b00 <__mpn_cmp>
  410488:	07 00 00 00 06 00 00 02 	blez $2,4104a8 <__printf_fp+0x3598>
  410490:	22 00 00 00 b4 05 02 10 	lbu $2,1460($16)
  410498:	43 00 00 00 01 00 02 02 	addiu $2,$2,1
  4104a0:	30 00 00 00 b4 05 02 10 	sb $2,1460($16)
  4104a8:	43 00 00 00 01 00 03 00 	addiu $3,$0,1
  4104b0:	01 00 00 00 30 41 10 00 	j 4104c0 <__printf_fp+0x35b0>
  4104b8:	42 00 00 00 00 03 00 00 	addu $3,$0,$0
  4104c0:	22 00 00 00 cc 05 02 1e 	lbu $2,1484($30)
  4104c8:	30 00 00 00 00 00 02 17 	sb $2,0($23)
  4104d0:	43 00 00 00 01 00 17 17 	addiu $23,$23,1
  4104d8:	05 00 00 00 a6 fd 00 03 	beq $3,$0,40fb78 <__printf_fp+0x2c68>
  4104e0:	28 00 00 00 90 06 09 1e 	lw $9,1680($30)
  4104e8:	22 00 00 00 08 00 02 09 	lbu $2,8($9)
  4104f0:	28 00 00 00 24 81 03 1c 	lw $3,-32476($28)
  4104f8:	55 00 00 00 01 02 02 00 	sll $2,$2,0x1
  410500:	42 00 00 00 00 02 03 02 	addu $2,$2,$3
  410508:	24 00 00 00 00 00 03 02 	lh $3,0($2)
  410510:	43 00 00 00 67 00 02 00 	addiu $2,$0,103
  410518:	06 00 00 00 06 00 02 03 	bne $3,$2,410538 <__printf_fp+0x3628>
  410520:	28 00 00 00 08 00 02 09 	lw $2,8($9)
  410528:	4f 00 00 00 00 08 02 02 	andi $2,$2,2048
  410530:	05 00 00 00 1e 00 00 02 	beq $2,$0,4105b0 <__printf_fp+0x36a0>
  410538:	28 00 00 00 b8 05 02 1e 	lw $2,1464($30)
  410540:	28 00 00 00 f0 05 03 1e 	lw $3,1520($30)
  410548:	43 00 00 00 ff ff 02 02 	addiu $2,$2,-1
  410550:	34 00 00 00 b8 05 02 1e 	sw $2,1464($30)
  410558:	5b 00 00 00 00 02 03 02 	slt $2,$2,$3
  410560:	06 00 00 00 12 00 00 02 	bne $2,$0,4105b0 <__printf_fp+0x36a0>
  410568:	43 00 00 00 30 00 04 00 	addiu $4,$0,48
  410570:	30 00 00 00 00 00 04 17 	sb $4,0($23)
  410578:	28 00 00 00 b8 05 02 1e 	lw $2,1464($30)
  410580:	28 00 00 00 f0 05 03 1e 	lw $3,1520($30)
  410588:	43 00 00 00 01 00 17 17 	addiu $23,$23,1
  410590:	43 00 00 00 ff ff 02 02 	addiu $2,$2,-1
  410598:	34 00 00 00 b8 05 02 1e 	sw $2,1464($30)
  4105a0:	5b 00 00 00 00 02 03 02 	slt $2,$2,$3
  4105a8:	05 00 00 00 f0 ff 00 02 	beq $2,$0,410570 <__printf_fp+0x3660>
  4105b0:	28 00 00 00 90 06 09 1e 	lw $9,1680($30)
  4105b8:	22 00 00 00 08 00 02 09 	lbu $2,8($9)
  4105c0:	28 00 00 00 20 81 03 1c 	lw $3,-32480($28)
  4105c8:	42 00 00 00 00 04 17 00 	addu $4,$0,$23
  4105d0:	55 00 00 00 01 02 02 00 	sll $2,$2,0x1
  4105d8:	42 00 00 00 00 02 03 02 	addu $2,$2,$3
  4105e0:	26 00 00 00 00 00 02 02 	lhu $2,0($2)
  4105e8:	43 00 00 00 01 00 17 17 	addiu $23,$23,1
  4105f0:	43 00 00 00 65 00 03 00 	addiu $3,$0,101
  4105f8:	4f 00 00 00 01 00 02 02 	andi $2,$2,1
  410600:	05 00 00 00 02 00 00 02 	beq $2,$0,410610 <__printf_fp+0x3700>
  410608:	43 00 00 00 45 00 03 00 	addiu $3,$0,69
  410610:	30 00 00 00 00 00 03 04 	sb $3,0($4)
  410618:	42 00 00 00 00 03 17 00 	addu $3,$0,$23
  410620:	28 00 00 00 f0 06 09 1e 	lw $9,1776($30)
  410628:	43 00 00 00 01 00 17 17 	addiu $23,$23,1
  410630:	43 00 00 00 2b 00 02 00 	addiu $2,$0,43
  410638:	05 00 00 00 02 00 00 09 	beq $9,$0,410648 <__printf_fp+0x3738>
  410640:	43 00 00 00 2d 00 02 00 	addiu $2,$0,45
  410648:	30 00 00 00 00 00 02 03 	sb $2,0($3)
  410650:	28 00 00 00 e8 06 09 1e 	lw $9,1768($30)
  410658:	5c 00 00 00 0a 00 02 09 	slti $2,$9,10
  410660:	05 00 00 00 06 00 00 02 	beq $2,$0,410680 <__printf_fp+0x3770>
  410668:	43 00 00 00 30 00 02 00 	addiu $2,$0,48
  410670:	30 00 00 00 00 00 02 17 	sb $2,0($23)
  410678:	43 00 00 00 01 00 17 17 	addiu $23,$23,1
  410680:	a2 00 00 00 66 66 05 00 	lui $5,26214
  410688:	51 00 00 00 67 66 05 05 	ori $5,$5,26215
  410690:	46 00 00 00 00 00 05 15 	mult $21,$5
  410698:	4a 00 00 00 00 03 00 00 	mfhi $3
  4106a0:	4c 00 00 00 00 02 00 00 	mflo $2
  4106a8:	28 00 00 00 e8 06 09 1e 	lw $9,1768($30)
  4106b0:	57 00 00 00 00 02 03 00 	srl $2,$3,0x0
  4106b8:	42 00 00 00 00 03 00 00 	addu $3,$0,$0
  4106c0:	59 00 00 00 02 02 02 00 	sra $2,$2,0x2
  4106c8:	59 00 00 00 1f 04 15 00 	sra $4,$21,0x1f
  4106d0:	45 00 00 00 00 15 04 02 	subu $21,$2,$4
  4106d8:	48 00 00 00 00 00 15 09 	div $0,$9,$21
  4106e0:	06 00 00 00 02 00 00 15 	bne $21,$0,4106f0 <__printf_fp+0x37e0>
  4106e8:	a1 00 00 00 07 00 00 00 	break 
  4106f0:	43 00 00 00 ff ff 01 00 	addiu $1,$0,-1
  4106f8:	06 00 00 00 06 00 01 15 	bne $21,$1,410718 <__printf_fp+0x3808>
  410700:	a2 00 00 00 00 80 01 00 	lui $1,32768
  410708:	06 00 00 00 02 00 01 09 	bne $9,$1,410718 <__printf_fp+0x3808>
  410710:	a1 00 00 00 06 00 00 00 	break 
  410718:	4c 00 00 00 00 02 00 00 	mflo $2
  410720:	4a 00 00 00 00 03 00 00 	mfhi $3
  410728:	43 00 00 00 30 00 02 02 	addiu $2,$2,48
  410730:	30 00 00 00 00 00 02 17 	sb $2,0($23)
  410738:	43 00 00 00 01 00 17 17 	addiu $23,$23,1
  410740:	5c 00 00 00 02 00 02 15 	slti $2,$21,2
  410748:	34 00 00 00 e8 06 03 1e 	sw $3,1768($30)
  410750:	05 00 00 00 ce ff 00 02 	beq $2,$0,410690 <__printf_fp+0x3780>
  410758:	01 00 00 00 ea 44 10 00 	j 4113a8 <__printf_fp+0x4498>
  410760:	28 00 00 00 b8 05 02 1e 	lw $2,1464($30)
  410768:	0a 00 00 00 30 00 00 02 	bgez $2,410830 <__printf_fp+0x3920>
  410770:	43 00 00 00 30 00 02 00 	addiu $2,$0,48
  410778:	30 00 00 00 00 00 02 17 	sb $2,0($23)
  410780:	28 00 00 00 b0 06 09 1e 	lw $9,1712($30)
  410788:	43 00 00 00 01 00 17 17 	addiu $23,$23,1
  410790:	08 00 00 00 08 00 00 09 	bgtz $9,4107b8 <__printf_fp+0x38a8>
  410798:	28 00 00 00 90 06 09 1e 	lw $9,1680($30)
  4107a0:	28 00 00 00 08 00 02 09 	lw $2,8($9)
  4107a8:	4f 00 00 00 00 08 02 02 	andi $2,$2,2048
  4107b0:	05 00 00 00 08 00 00 02 	beq $2,$0,4107d8 <__printf_fp+0x38c8>
  4107b8:	28 00 00 00 a0 06 09 1e 	lw $9,1696($30)
  4107c0:	22 00 00 00 00 00 02 09 	lbu $2,0($9)
  4107c8:	30 00 00 00 00 00 02 17 	sb $2,0($23)
  4107d0:	43 00 00 00 01 00 17 17 	addiu $23,$23,1
  4107d8:	28 00 00 00 b8 05 02 1e 	lw $2,1464($30)
  4107e0:	43 00 00 00 ff ff 15 00 	addiu $21,$0,-1
  4107e8:	5c 00 00 00 ff ff 02 02 	slti $2,$2,-1
  4107f0:	05 00 00 00 0e 00 00 02 	beq $2,$0,410830 <__printf_fp+0x3920>
  4107f8:	43 00 00 00 30 00 03 00 	addiu $3,$0,48
  410800:	30 00 00 00 00 00 03 17 	sb $3,0($23)
  410808:	28 00 00 00 b8 05 02 1e 	lw $2,1464($30)
  410810:	43 00 00 00 01 00 17 17 	addiu $23,$23,1
  410818:	43 00 00 00 ff ff 15 15 	addiu $21,$21,-1
  410820:	5b 00 00 00 00 02 15 02 	slt $2,$2,$21
  410828:	06 00 00 00 f4 ff 00 02 	bne $2,$0,410800 <__printf_fp+0x38f0>
  410830:	22 00 00 00 cc 05 02 1e 	lbu $2,1484($30)
  410838:	30 00 00 00 00 00 02 17 	sb $2,0($23)
  410840:	28 00 00 00 dc 05 02 1e 	lw $2,1500($30)
  410848:	43 00 00 00 01 00 17 17 	addiu $23,$23,1
  410850:	06 00 00 00 82 02 00 02 	bne $2,$0,411260 <__printf_fp+0x4350>
  410858:	28 00 00 00 e4 05 02 1e 	lw $2,1508($30)
  410860:	06 00 00 00 7e 02 00 02 	bne $2,$0,411260 <__printf_fp+0x4350>
  410868:	28 00 00 00 b8 05 03 1e 	lw $3,1464($30)
  410870:	28 00 00 00 f0 05 02 1e 	lw $2,1520($30)
  410878:	05 00 00 00 78 02 02 03 	beq $3,$2,411260 <__printf_fp+0x4350>
  410880:	43 00 00 00 18 00 10 1e 	addiu $16,$30,24
  410888:	43 00 00 00 98 04 15 1e 	addiu $21,$30,1176
  410890:	43 00 00 00 78 03 09 1e 	addiu $9,$30,888
  410898:	34 00 00 00 18 07 09 1e 	sw $9,1816($30)
  4108a0:	43 00 00 00 08 04 09 1e 	addiu $9,$30,1032
  4108a8:	34 00 00 00 20 07 09 1e 	sw $9,1824($30)
  4108b0:	43 00 00 00 58 02 09 1e 	addiu $9,$30,600
  4108b8:	34 00 00 00 28 07 09 1e 	sw $9,1832($30)
  4108c0:	43 00 00 00 98 04 04 1e 	addiu $4,$30,1176
  4108c8:	43 00 00 00 78 03 05 1e 	addiu $5,$30,888
  4108d0:	28 00 00 00 b8 05 02 1e 	lw $2,1464($30)
  4108d8:	28 00 00 00 c0 05 06 1e 	lw $6,1472($30)
  4108e0:	43 00 00 00 0a 00 07 00 	addiu $7,$0,10
  4108e8:	43 00 00 00 ff ff 02 02 	addiu $2,$2,-1
  4108f0:	34 00 00 00 b8 05 02 1e 	sw $2,1464($30)
  4108f8:	02 00 00 00 8c 52 10 00 	jal 414a30 <__mpn_mul_1>
  410900:	28 00 00 00 c0 05 03 1e 	lw $3,1472($30)
  410908:	42 00 00 00 00 04 02 00 	addu $4,$0,$2
  410910:	34 00 00 00 bc 05 04 1e 	sw $4,1468($30)
  410918:	34 00 00 00 c4 05 03 1e 	sw $3,1476($30)
  410920:	05 00 00 00 0a 00 00 04 	beq $4,$0,410950 <__printf_fp+0x3a40>
  410928:	43 00 00 00 01 00 02 03 	addiu $2,$3,1
  410930:	34 00 00 00 c4 05 02 1e 	sw $2,1476($30)
  410938:	55 00 00 00 02 02 03 00 	sll $2,$3,0x2
  410940:	42 00 00 00 00 02 10 02 	addu $2,$2,$16
  410948:	34 00 00 00 80 04 04 02 	sw $4,1152($2)
  410950:	28 00 00 00 c8 05 02 1e 	lw $2,1480($30)
  410958:	55 00 00 00 02 02 02 00 	sll $2,$2,0x2
  410960:	42 00 00 00 00 02 02 10 	addu $2,$16,$2
  410968:	28 00 00 00 8c 00 04 02 	lw $4,140($2)
  410970:	51 00 00 00 ff ff 02 00 	ori $2,$0,65535
  410978:	5d 00 00 00 00 02 04 02 	sltu $2,$2,$4
  410980:	06 00 00 00 08 00 00 02 	bne $2,$0,4109a8 <__printf_fp+0x3a98>
  410988:	5e 00 00 00 00 01 02 04 	sltiu $2,$4,256
  410990:	53 00 00 00 01 00 02 02 	xori $2,$2,1
  410998:	55 00 00 00 03 03 02 00 	sll $3,$2,0x3
  4109a0:	01 00 00 00 76 42 10 00 	j 4109d8 <__printf_fp+0x3ac8>
  4109a8:	a2 00 00 00 ff 00 02 00 	lui $2,255
  4109b0:	51 00 00 00 ff ff 02 02 	ori $2,$2,65535
  4109b8:	43 00 00 00 18 00 03 00 	addiu $3,$0,24
  4109c0:	5d 00 00 00 00 02 04 02 	sltu $2,$2,$4
  4109c8:	06 00 00 00 02 00 00 02 	bne $2,$0,4109d8 <__printf_fp+0x3ac8>
  4109d0:	43 00 00 00 10 00 03 00 	addiu $3,$0,16
  4109d8:	58 00 00 00 00 02 04 03 	srlv $2,$4,$3
  4109e0:	a2 00 00 00 01 10 01 00 	lui $1,4097
  4109e8:	42 00 00 00 00 01 02 01 	addu $1,$1,$2
  4109f0:	22 00 00 00 e0 18 02 01 	lbu $2,6368($1)
  4109f8:	42 00 00 00 00 02 03 02 	addu $2,$2,$3
  410a00:	43 00 00 00 20 00 03 00 	addiu $3,$0,32
  410a08:	45 00 00 00 00 11 02 03 	subu $17,$3,$2
  410a10:	05 00 00 00 62 00 00 11 	beq $17,$0,410ba0 <__printf_fp+0x3c90>
  410a18:	43 00 00 00 90 00 05 10 	addiu $5,$16,144
  410a20:	28 00 00 00 b0 05 06 10 	lw $6,1456($16)
  410a28:	42 00 00 00 00 07 11 00 	addu $7,$0,$17
  410a30:	42 00 00 00 00 13 1d 00 	addu $19,$0,$29
  410a38:	55 00 00 00 02 02 06 00 	sll $2,$6,0x2
  410a40:	43 00 00 00 0e 00 02 02 	addiu $2,$2,14
  410a48:	57 00 00 00 03 02 02 00 	srl $2,$2,0x3
  410a50:	55 00 00 00 03 02 02 00 	sll $2,$2,0x3
  410a58:	45 00 00 00 00 1d 02 1d 	subu $29,$29,$2
  410a60:	28 00 00 00 00 00 02 1d 	lw $2,0($29)
  410a68:	43 00 00 00 18 00 12 1d 	addiu $18,$29,24
  410a70:	42 00 00 00 00 04 12 00 	addu $4,$0,$18
  410a78:	02 00 00 00 84 4e 10 00 	jal 413a10 <__mpn_lshift>
  410a80:	42 00 00 00 00 04 15 00 	addu $4,$0,$21
  410a88:	28 00 00 00 ac 05 06 10 	lw $6,1452($16)
  410a90:	42 00 00 00 00 05 15 00 	addu $5,$0,$21
  410a98:	42 00 00 00 00 07 11 00 	addu $7,$0,$17
  410aa0:	02 00 00 00 84 4e 10 00 	jal 413a10 <__mpn_lshift>
  410aa8:	42 00 00 00 00 04 02 00 	addu $4,$0,$2
  410ab0:	05 00 00 00 0c 00 00 04 	beq $4,$0,410ae8 <__printf_fp+0x3bd8>
  410ab8:	28 00 00 00 ac 05 02 10 	lw $2,1452($16)
  410ac0:	43 00 00 00 01 00 03 02 	addiu $3,$2,1
  410ac8:	55 00 00 00 02 02 02 00 	sll $2,$2,0x2
  410ad0:	42 00 00 00 00 02 10 02 	addu $2,$2,$16
  410ad8:	34 00 00 00 ac 05 03 10 	sw $3,1452($16)
  410ae0:	34 00 00 00 80 04 04 02 	sw $4,1152($2)
  410ae8:	28 00 00 00 b0 05 02 10 	lw $2,1456($16)
  410af0:	43 00 00 00 10 05 04 10 	addiu $4,$16,1296
  410af8:	34 00 00 00 10 00 02 1d 	sw $2,16($29)
  410b00:	28 00 00 00 ac 05 06 10 	lw $6,1452($16)
  410b08:	42 00 00 00 00 05 15 00 	addu $5,$0,$21
  410b10:	42 00 00 00 00 07 12 00 	addu $7,$0,$18
  410b18:	02 00 00 00 d8 52 10 00 	jal 414b60 <__mpn_divmod>
  410b20:	28 00 00 00 ac 05 03 10 	lw $3,1452($16)
  410b28:	28 00 00 00 b0 05 05 10 	lw $5,1456($16)
  410b30:	42 00 00 00 00 04 15 00 	addu $4,$0,$21
  410b38:	45 00 00 00 00 03 05 03 	subu $3,$3,$5
  410b40:	55 00 00 00 02 03 03 00 	sll $3,$3,0x2
  410b48:	42 00 00 00 00 03 10 03 	addu $3,$3,$16
  410b50:	34 00 00 00 10 05 02 03 	sw $2,1296($3)
  410b58:	28 00 00 00 b0 05 06 10 	lw $6,1456($16)
  410b60:	42 00 00 00 00 07 11 00 	addu $7,$0,$17
  410b68:	42 00 00 00 00 05 15 00 	addu $5,$0,$21
  410b70:	34 00 00 00 ac 05 06 10 	sw $6,1452($16)
  410b78:	02 00 00 00 a8 55 10 00 	jal 4156a0 <__mpn_rshift>
  410b80:	42 00 00 00 00 1d 13 00 	addu $29,$0,$19
  410b88:	01 00 00 00 06 43 10 00 	j 410c18 <__printf_fp+0x3d08>
  410b90:	43 00 00 00 01 00 02 04 	addiu $2,$4,1
  410b98:	01 00 00 00 22 43 10 00 	j 410c88 <__printf_fp+0x3d78>
  410ba0:	28 00 00 00 b0 05 02 10 	lw $2,1456($16)
  410ba8:	43 00 00 00 10 05 04 10 	addiu $4,$16,1296
  410bb0:	34 00 00 00 10 00 02 1d 	sw $2,16($29)
  410bb8:	28 00 00 00 ac 05 06 10 	lw $6,1452($16)
  410bc0:	43 00 00 00 80 04 05 10 	addiu $5,$16,1152
  410bc8:	43 00 00 00 90 00 07 10 	addiu $7,$16,144
  410bd0:	02 00 00 00 d8 52 10 00 	jal 414b60 <__mpn_divmod>
  410bd8:	28 00 00 00 ac 05 03 10 	lw $3,1452($16)
  410be0:	28 00 00 00 b0 05 04 10 	lw $4,1456($16)
  410be8:	45 00 00 00 00 03 04 03 	subu $3,$3,$4
  410bf0:	55 00 00 00 02 03 03 00 	sll $3,$3,0x2
  410bf8:	42 00 00 00 00 03 10 03 	addu $3,$3,$16
  410c00:	34 00 00 00 10 05 02 03 	sw $2,1296($3)
  410c08:	28 00 00 00 b0 05 02 10 	lw $2,1456($16)
  410c10:	34 00 00 00 ac 05 02 10 	sw $2,1452($16)
  410c18:	28 00 00 00 10 05 02 10 	lw $2,1296($16)
  410c20:	28 00 00 00 ac 05 04 10 	lw $4,1452($16)
  410c28:	43 00 00 00 80 04 03 10 	addiu $3,$16,1152
  410c30:	43 00 00 00 30 00 02 02 	addiu $2,$2,48
  410c38:	30 00 00 00 b4 05 02 10 	sb $2,1460($16)
  410c40:	05 00 00 00 0e 00 00 04 	beq $4,$0,410c80 <__printf_fp+0x3d70>
  410c48:	55 00 00 00 02 02 04 00 	sll $2,$4,0x2
  410c50:	42 00 00 00 00 03 03 02 	addu $3,$2,$3
  410c58:	43 00 00 00 fc ff 03 03 	addiu $3,$3,-4
  410c60:	28 00 00 00 00 00 02 03 	lw $2,0($3)
  410c68:	43 00 00 00 ff ff 04 04 	addiu $4,$4,-1
  410c70:	06 00 00 00 c6 ff 00 02 	bne $2,$0,410b90 <__printf_fp+0x3c80>
  410c78:	06 00 00 00 f6 ff 00 04 	bne $4,$0,410c58 <__printf_fp+0x3d48>
  410c80:	42 00 00 00 00 02 00 00 	addu $2,$0,$0
  410c88:	34 00 00 00 ac 05 02 10 	sw $2,1452($16)
  410c90:	06 00 00 00 04 00 00 02 	bne $2,$0,410ca8 <__printf_fp+0x3d98>
  410c98:	43 00 00 00 01 00 02 00 	addiu $2,$0,1
  410ca0:	34 00 00 00 ac 05 02 10 	sw $2,1452($16)
  410ca8:	28 00 00 00 ac 05 02 10 	lw $2,1452($16)
  410cb0:	28 00 00 00 18 07 04 1e 	lw $4,1816($30)
  410cb8:	43 00 00 00 80 04 05 10 	addiu $5,$16,1152
  410cc0:	55 00 00 00 02 06 02 00 	sll $6,$2,0x2
  410cc8:	34 00 00 00 a8 05 02 10 	sw $2,1448($16)
  410cd0:	02 00 00 00 94 47 10 00 	jal 411e50 <memcpy>
  410cd8:	28 00 00 00 20 07 04 1e 	lw $4,1824($30)
  410ce0:	28 00 00 00 a8 05 06 10 	lw $6,1448($16)
  410ce8:	28 00 00 00 18 07 05 1e 	lw $5,1816($30)
  410cf0:	43 00 00 00 01 00 07 00 	addiu $7,$0,1
  410cf8:	02 00 00 00 84 4e 10 00 	jal 413a10 <__mpn_lshift>
  410d00:	28 00 00 00 a8 05 04 10 	lw $4,1448($16)
  410d08:	34 00 00 00 a4 05 02 10 	sw $2,1444($16)
  410d10:	28 00 00 00 a4 05 02 10 	lw $2,1444($16)
  410d18:	34 00 00 00 b8 05 04 10 	sw $4,1464($16)
  410d20:	05 00 00 00 0c 00 00 02 	beq $2,$0,410d58 <__printf_fp+0x3e48>
  410d28:	28 00 00 00 a4 05 03 10 	lw $3,1444($16)
  410d30:	43 00 00 00 01 00 02 04 	addiu $2,$4,1
  410d38:	34 00 00 00 b8 05 02 10 	sw $2,1464($16)
  410d40:	55 00 00 00 02 02 04 00 	sll $2,$4,0x2
  410d48:	42 00 00 00 00 02 10 02 	addu $2,$2,$16
  410d50:	34 00 00 00 f0 03 03 02 	sw $3,1008($2)
  410d58:	28 00 00 00 28 07 04 1e 	lw $4,1832($30)
  410d60:	28 00 00 00 bc 05 06 10 	lw $6,1468($16)
  410d68:	28 00 00 00 28 07 05 1e 	lw $5,1832($30)
  410d70:	43 00 00 00 0a 00 07 00 	addiu $7,$0,10
  410d78:	02 00 00 00 8c 52 10 00 	jal 414a30 <__mpn_mul_1>
  410d80:	34 00 00 00 a4 05 02 10 	sw $2,1444($16)
  410d88:	05 00 00 00 0e 00 00 02 	beq $2,$0,410dc8 <__printf_fp+0x3eb8>
  410d90:	28 00 00 00 bc 05 02 10 	lw $2,1468($16)
  410d98:	43 00 00 00 01 00 03 02 	addiu $3,$2,1
  410da0:	34 00 00 00 bc 05 03 10 	sw $3,1468($16)
  410da8:	28 00 00 00 a4 05 03 10 	lw $3,1444($16)
  410db0:	55 00 00 00 02 02 02 00 	sll $2,$2,0x2
  410db8:	42 00 00 00 00 02 10 02 	addu $2,$2,$16
  410dc0:	34 00 00 00 40 02 03 02 	sw $3,576($2)
  410dc8:	43 00 00 00 d0 02 04 10 	addiu $4,$16,720
  410dd0:	28 00 00 00 c0 05 06 10 	lw $6,1472($16)
  410dd8:	42 00 00 00 00 05 04 00 	addu $5,$0,$4
  410de0:	43 00 00 00 0a 00 07 00 	addiu $7,$0,10
  410de8:	02 00 00 00 8c 52 10 00 	jal 414a30 <__mpn_mul_1>
  410df0:	34 00 00 00 a4 05 02 10 	sw $2,1444($16)
  410df8:	05 00 00 00 0e 00 00 02 	beq $2,$0,410e38 <__printf_fp+0x3f28>
  410e00:	28 00 00 00 c0 05 02 10 	lw $2,1472($16)
  410e08:	43 00 00 00 01 00 03 02 	addiu $3,$2,1
  410e10:	34 00 00 00 c0 05 03 10 	sw $3,1472($16)
  410e18:	28 00 00 00 a4 05 03 10 	lw $3,1444($16)
  410e20:	55 00 00 00 02 02 02 00 	sll $2,$2,0x2
  410e28:	42 00 00 00 00 02 10 02 	addu $2,$2,$16
  410e30:	34 00 00 00 d0 02 03 02 	sw $3,720($2)
  410e38:	28 00 00 00 b8 05 06 10 	lw $6,1464($16)
  410e40:	28 00 00 00 bc 05 03 10 	lw $3,1468($16)
  410e48:	42 00 00 00 00 13 00 00 	addu $19,$0,$0
  410e50:	5b 00 00 00 00 02 03 06 	slt $2,$6,$3
  410e58:	06 00 00 00 0a 00 00 02 	bne $2,$0,410e88 <__printf_fp+0x3f78>
  410e60:	06 00 00 00 0a 00 03 06 	bne $6,$3,410e90 <__printf_fp+0x3f80>
  410e68:	28 00 00 00 20 07 04 1e 	lw $4,1824($30)
  410e70:	28 00 00 00 28 07 05 1e 	lw $5,1832($30)
  410e78:	02 00 00 00 c0 4e 10 00 	jal 413b00 <__mpn_cmp>
  410e80:	0a 00 00 00 02 00 00 02 	bgez $2,410e90 <__printf_fp+0x3f80>
  410e88:	43 00 00 00 01 00 13 00 	addiu $19,$0,1
  410e90:	28 00 00 00 c8 05 12 10 	lw $18,1480($16)
  410e98:	28 00 00 00 c0 05 11 10 	lw $17,1472($16)
  410ea0:	34 00 00 00 c4 05 13 10 	sw $19,1476($16)
  410ea8:	5b 00 00 00 00 02 11 12 	slt $2,$18,$17
  410eb0:	05 00 00 00 06 00 00 02 	beq $2,$0,410ed0 <__printf_fp+0x3fc0>
  410eb8:	43 00 00 00 01 00 02 00 	addiu $2,$0,1
  410ec0:	34 00 00 00 cc 05 02 10 	sw $2,1484($16)
  410ec8:	01 00 00 00 4a 44 10 00 	j 411128 <__printf_fp+0x4218>
  410ed0:	42 00 00 00 00 06 00 00 	addu $6,$0,$0
  410ed8:	43 00 00 00 10 05 14 10 	addiu $20,$16,1296
  410ee0:	43 00 00 00 20 01 13 10 	addiu $19,$16,288
  410ee8:	43 00 00 00 d0 02 02 10 	addiu $2,$16,720
  410ef0:	05 00 00 00 0c 00 00 11 	beq $17,$0,410f28 <__printf_fp+0x4018>
  410ef8:	42 00 00 00 00 04 14 00 	addu $4,$0,$20
  410f00:	42 00 00 00 00 05 13 00 	addu $5,$0,$19
  410f08:	42 00 00 00 00 06 02 00 	addu $6,$0,$2
  410f10:	42 00 00 00 00 07 11 00 	addu $7,$0,$17
  410f18:	02 00 00 00 e0 55 10 00 	jal 415780 <__mpn_sub_n>
  410f20:	42 00 00 00 00 06 02 00 	addu $6,$0,$2
  410f28:	05 00 00 00 46 00 11 12 	beq $18,$17,411048 <__printf_fp+0x4138>
  410f30:	55 00 00 00 02 02 11 00 	sll $2,$17,0x2
  410f38:	42 00 00 00 00 05 13 02 	addu $5,$2,$19
  410f40:	28 00 00 00 00 00 03 05 	lw $3,0($5)
  410f48:	42 00 00 00 00 04 14 02 	addu $4,$2,$20
  410f50:	45 00 00 00 00 07 11 12 	subu $7,$18,$17
  410f58:	43 00 00 00 04 00 05 05 	addiu $5,$5,4
  410f60:	45 00 00 00 00 02 06 03 	subu $2,$3,$6
  410f68:	34 00 00 00 00 00 02 04 	sw $2,0($4)
  410f70:	43 00 00 00 04 00 04 04 	addiu $4,$4,4
  410f78:	5d 00 00 00 00 02 02 03 	sltu $2,$3,$2
  410f80:	05 00 00 00 18 00 00 02 	beq $2,$0,410fe8 <__printf_fp+0x40d8>
  410f88:	43 00 00 00 ff ff 07 07 	addiu $7,$7,-1
  410f90:	05 00 00 00 10 00 00 07 	beq $7,$0,410fd8 <__printf_fp+0x40c8>
  410f98:	28 00 00 00 00 00 03 05 	lw $3,0($5)
  410fa0:	43 00 00 00 04 00 05 05 	addiu $5,$5,4
  410fa8:	43 00 00 00 ff ff 02 03 	addiu $2,$3,-1
  410fb0:	34 00 00 00 00 00 02 04 	sw $2,0($4)
  410fb8:	43 00 00 00 04 00 04 04 	addiu $4,$4,4
  410fc0:	06 00 00 00 08 00 00 03 	bne $3,$0,410fe8 <__printf_fp+0x40d8>
  410fc8:	43 00 00 00 ff ff 07 07 	addiu $7,$7,-1
  410fd0:	06 00 00 00 f0 ff 00 07 	bne $7,$0,410f98 <__printf_fp+0x4088>
  410fd8:	43 00 00 00 01 00 06 00 	addiu $6,$0,1
  410fe0:	01 00 00 00 12 44 10 00 	j 411048 <__printf_fp+0x4138>
  410fe8:	05 00 00 00 14 00 05 04 	beq $4,$5,411040 <__printf_fp+0x4130>
  410ff0:	42 00 00 00 00 03 00 00 	addu $3,$0,$0
  410ff8:	43 00 00 00 ff ff 07 07 	addiu $7,$7,-1
  411000:	07 00 00 00 0e 00 00 07 	blez $7,411040 <__printf_fp+0x4130>
  411008:	28 00 00 00 00 00 02 05 	lw $2,0($5)
  411010:	43 00 00 00 01 00 03 03 	addiu $3,$3,1
  411018:	34 00 00 00 00 00 02 04 	sw $2,0($4)
  411020:	43 00 00 00 04 00 04 04 	addiu $4,$4,4
  411028:	43 00 00 00 04 00 05 05 	addiu $5,$5,4
  411030:	5b 00 00 00 00 02 07 03 	slt $2,$3,$7
  411038:	06 00 00 00 f2 ff 00 02 	bne $2,$0,411008 <__printf_fp+0x40f8>
  411040:	42 00 00 00 00 06 00 00 	addu $6,$0,$0
  411048:	28 00 00 00 c8 05 07 10 	lw $7,1480($16)
  411050:	34 00 00 00 a4 05 06 10 	sw $6,1444($16)
  411058:	28 00 00 00 a4 05 02 10 	lw $2,1444($16)
  411060:	42 00 00 00 00 11 00 00 	addu $17,$0,$0
  411068:	34 00 00 00 d0 05 07 10 	sw $7,1488($16)
  411070:	06 00 00 00 28 00 00 02 	bne $2,$0,411118 <__printf_fp+0x4208>
  411078:	28 00 00 00 d4 05 02 10 	lw $2,1492($16)
  411080:	05 00 00 00 14 00 00 02 	beq $2,$0,4110d8 <__printf_fp+0x41c8>
  411088:	28 00 00 00 b8 05 03 10 	lw $3,1464($16)
  411090:	5b 00 00 00 00 02 03 07 	slt $2,$7,$3
  411098:	06 00 00 00 1e 00 00 02 	bne $2,$0,411118 <__printf_fp+0x4208>
  4110a0:	06 00 00 00 1e 00 07 03 	bne $3,$7,411120 <__printf_fp+0x4210>
  4110a8:	43 00 00 00 f0 03 04 10 	addiu $4,$16,1008
  4110b0:	43 00 00 00 10 05 05 10 	addiu $5,$16,1296
  4110b8:	42 00 00 00 00 06 07 00 	addu $6,$0,$7
  4110c0:	02 00 00 00 c0 4e 10 00 	jal 413b00 <__mpn_cmp>
  4110c8:	0a 00 00 00 12 00 00 02 	bgez $2,411118 <__printf_fp+0x4208>
  4110d0:	01 00 00 00 48 44 10 00 	j 411120 <__printf_fp+0x4210>
  4110d8:	28 00 00 00 b8 05 06 10 	lw $6,1464($16)
  4110e0:	5b 00 00 00 00 02 06 07 	slt $2,$7,$6
  4110e8:	06 00 00 00 0a 00 00 02 	bne $2,$0,411118 <__printf_fp+0x4208>
  4110f0:	06 00 00 00 0a 00 07 06 	bne $6,$7,411120 <__printf_fp+0x4210>
  4110f8:	43 00 00 00 f0 03 04 10 	addiu $4,$16,1008
  411100:	43 00 00 00 10 05 05 10 	addiu $5,$16,1296
  411108:	02 00 00 00 c0 4e 10 00 	jal 413b00 <__mpn_cmp>
  411110:	07 00 00 00 02 00 00 02 	blez $2,411120 <__printf_fp+0x4210>
  411118:	43 00 00 00 01 00 11 00 	addiu $17,$0,1
  411120:	34 00 00 00 cc 05 11 10 	sw $17,1484($16)
  411128:	28 00 00 00 c4 05 02 10 	lw $2,1476($16)
  411130:	06 00 00 00 0a 00 00 02 	bne $2,$0,411160 <__printf_fp+0x4250>
  411138:	28 00 00 00 cc 05 02 10 	lw $2,1484($16)
  411140:	06 00 00 00 0a 00 00 02 	bne $2,$0,411170 <__printf_fp+0x4260>
  411148:	28 00 00 00 a0 05 03 10 	lw $3,1440($16)
  411150:	28 00 00 00 d8 05 02 10 	lw $2,1496($16)
  411158:	06 00 00 00 28 00 02 03 	bne $3,$2,411200 <__printf_fp+0x42f0>
  411160:	28 00 00 00 cc 05 02 10 	lw $2,1484($16)
  411168:	05 00 00 00 20 00 00 02 	beq $2,$0,4111f0 <__printf_fp+0x42e0>
  411170:	28 00 00 00 c4 05 02 10 	lw $2,1476($16)
  411178:	05 00 00 00 16 00 00 02 	beq $2,$0,4111d8 <__printf_fp+0x42c8>
  411180:	28 00 00 00 cc 05 02 10 	lw $2,1484($16)
  411188:	05 00 00 00 18 00 00 02 	beq $2,$0,4111f0 <__printf_fp+0x42e0>
  411190:	28 00 00 00 b8 05 06 10 	lw $6,1464($16)
  411198:	28 00 00 00 b0 05 03 10 	lw $3,1456($16)
  4111a0:	5b 00 00 00 00 02 06 03 	slt $2,$3,$6
  4111a8:	06 00 00 00 0a 00 00 02 	bne $2,$0,4111d8 <__printf_fp+0x42c8>
  4111b0:	06 00 00 00 0e 00 03 06 	bne $6,$3,4111f0 <__printf_fp+0x42e0>
  4111b8:	43 00 00 00 f0 03 04 10 	addiu $4,$16,1008
  4111c0:	43 00 00 00 90 00 05 10 	addiu $5,$16,144
  4111c8:	02 00 00 00 c0 4e 10 00 	jal 413b00 <__mpn_cmp>
  4111d0:	07 00 00 00 06 00 00 02 	blez $2,4111f0 <__printf_fp+0x42e0>
  4111d8:	22 00 00 00 b4 05 02 10 	lbu $2,1460($16)
  4111e0:	43 00 00 00 01 00 02 02 	addiu $2,$2,1
  4111e8:	30 00 00 00 b4 05 02 10 	sb $2,1460($16)
  4111f0:	43 00 00 00 01 00 04 00 	addiu $4,$0,1
  4111f8:	01 00 00 00 82 44 10 00 	j 411208 <__printf_fp+0x42f8>
  411200:	42 00 00 00 00 04 00 00 	addu $4,$0,$0
  411208:	28 00 00 00 b8 05 03 1e 	lw $3,1464($30)
  411210:	43 00 00 00 ff ff 02 00 	addiu $2,$0,-1
  411218:	06 00 00 00 08 00 02 03 	bne $3,$2,411240 <__printf_fp+0x4330>
  411220:	28 00 00 00 a0 06 09 1e 	lw $9,1696($30)
  411228:	22 00 00 00 00 00 02 09 	lbu $2,0($9)
  411230:	30 00 00 00 00 00 02 17 	sb $2,0($23)
  411238:	43 00 00 00 01 00 17 17 	addiu $23,$23,1
  411240:	22 00 00 00 cc 05 02 1e 	lbu $2,1484($30)
  411248:	30 00 00 00 00 00 02 17 	sb $2,0($23)
  411250:	43 00 00 00 01 00 17 17 	addiu $23,$23,1
  411258:	05 00 00 00 98 fd 00 04 	beq $4,$0,4108c0 <__printf_fp+0x39b0>
  411260:	28 00 00 00 b8 05 02 1e 	lw $2,1464($30)
  411268:	07 00 00 00 0e 00 00 02 	blez $2,4112a8 <__printf_fp+0x4398>
  411270:	43 00 00 00 30 00 03 00 	addiu $3,$0,48
  411278:	30 00 00 00 00 00 03 17 	sb $3,0($23)
  411280:	28 00 00 00 b8 05 02 1e 	lw $2,1464($30)
  411288:	43 00 00 00 01 00 17 17 	addiu $23,$23,1
  411290:	43 00 00 00 ff ff 02 02 	addiu $2,$2,-1
  411298:	34 00 00 00 b8 05 02 1e 	sw $2,1464($30)
  4112a0:	08 00 00 00 f4 ff 00 02 	bgtz $2,411278 <__printf_fp+0x4368>
  4112a8:	22 00 00 00 a8 06 09 1e 	lbu $9,1704($30)
  4112b0:	43 00 00 00 67 00 03 00 	addiu $3,$0,103
  4112b8:	55 00 00 00 18 02 09 00 	sll $2,$9,0x18
  4112c0:	59 00 00 00 18 02 02 00 	sra $2,$2,0x18
  4112c8:	05 00 00 00 04 00 03 02 	beq $2,$3,4112e0 <__printf_fp+0x43d0>
  4112d0:	28 00 00 00 b0 06 09 1e 	lw $9,1712($30)
  4112d8:	08 00 00 00 08 00 00 09 	bgtz $9,411300 <__printf_fp+0x43f0>
  4112e0:	28 00 00 00 90 06 09 1e 	lw $9,1680($30)
  4112e8:	28 00 00 00 08 00 02 09 	lw $2,8($9)
  4112f0:	4f 00 00 00 00 08 02 02 	andi $2,$2,2048
  4112f8:	05 00 00 00 2a 00 00 02 	beq $2,$0,4113a8 <__printf_fp+0x4498>
  411300:	28 00 00 00 b8 05 02 1e 	lw $2,1464($30)
  411308:	06 00 00 00 08 00 00 02 	bne $2,$0,411330 <__printf_fp+0x4420>
  411310:	28 00 00 00 a0 06 09 1e 	lw $9,1696($30)
  411318:	22 00 00 00 00 00 02 09 	lbu $2,0($9)
  411320:	30 00 00 00 00 00 02 17 	sb $2,0($23)
  411328:	43 00 00 00 01 00 17 17 	addiu $23,$23,1
  411330:	28 00 00 00 b8 05 02 1e 	lw $2,1464($30)
  411338:	28 00 00 00 b0 06 09 1e 	lw $9,1712($30)
  411340:	43 00 00 00 ff ff 03 02 	addiu $3,$2,-1
  411348:	45 00 00 00 00 04 09 00 	subu $4,$0,$9
  411350:	5b 00 00 00 00 02 02 04 	slt $2,$4,$2
  411358:	34 00 00 00 b8 05 03 1e 	sw $3,1464($30)
  411360:	05 00 00 00 10 00 00 02 	beq $2,$0,4113a8 <__printf_fp+0x4498>
  411368:	43 00 00 00 30 00 05 00 	addiu $5,$0,48
  411370:	30 00 00 00 00 00 05 17 	sb $5,0($23)
  411378:	28 00 00 00 b8 05 03 1e 	lw $3,1464($30)
  411380:	43 00 00 00 01 00 17 17 	addiu $23,$23,1
  411388:	43 00 00 00 ff ff 02 03 	addiu $2,$3,-1
  411390:	5b 00 00 00 00 03 03 04 	slt $3,$4,$3
  411398:	34 00 00 00 b8 05 02 1e 	sw $2,1464($30)
  4113a0:	06 00 00 00 f2 ff 00 03 	bne $3,$0,411370 <__printf_fp+0x4460>
  4113a8:	28 00 00 00 f8 05 02 1e 	lw $2,1528($30)
  4113b0:	06 00 00 00 08 00 00 02 	bne $2,$0,4113d8 <__printf_fp+0x44c8>
  4113b8:	28 00 00 00 90 06 09 1e 	lw $9,1680($30)
  4113c0:	28 00 00 00 08 00 02 09 	lw $2,8($9)
  4113c8:	4f 00 00 00 00 50 02 02 	andi $2,$2,20480
  4113d0:	05 00 00 00 06 00 00 02 	beq $2,$0,4113f0 <__printf_fp+0x44e0>
  4113d8:	28 00 00 00 b8 06 09 1e 	lw $9,1720($30)
  4113e0:	43 00 00 00 ff ff 09 09 	addiu $9,$9,-1
  4113e8:	34 00 00 00 b8 06 09 1e 	sw $9,1720($30)
  4113f0:	28 00 00 00 c0 06 09 1e 	lw $9,1728($30)
  4113f8:	45 00 00 00 00 02 09 17 	subu $2,$23,$9
  411400:	28 00 00 00 b8 06 09 1e 	lw $9,1720($30)
  411408:	45 00 00 00 00 09 02 09 	subu $9,$9,$2
  411410:	34 00 00 00 b8 06 09 1e 	sw $9,1720($30)
  411418:	28 00 00 00 90 06 09 1e 	lw $9,1680($30)
  411420:	28 00 00 00 08 00 03 09 	lw $3,8($9)
  411428:	a2 00 00 00 ff 00 02 00 	lui $2,255
  411430:	51 00 00 00 00 20 02 02 	ori $2,$2,8192
  411438:	4e 00 00 00 00 03 02 03 	and $3,$3,$2
  411440:	a2 00 00 00 20 00 02 00 	lui $2,32
  411448:	06 00 00 00 36 00 02 03 	bne $3,$2,411528 <__printf_fp+0x4618>
  411450:	28 00 00 00 b8 06 02 1e 	lw $2,1720($30)
  411458:	42 00 00 00 00 09 02 00 	addu $9,$0,$2
  411460:	43 00 00 00 ff ff 09 09 	addiu $9,$9,-1
  411468:	34 00 00 00 b8 06 09 1e 	sw $9,1720($30)
  411470:	07 00 00 00 2c 00 00 02 	blez $2,411528 <__printf_fp+0x4618>
  411478:	43 00 00 00 ff ff 11 00 	addiu $17,$0,-1
  411480:	43 00 00 00 20 00 10 00 	addiu $16,$0,32
  411488:	28 00 00 00 04 00 03 16 	lw $3,4($22)
  411490:	28 00 00 00 0c 00 02 16 	lw $2,12($22)
  411498:	5d 00 00 00 00 02 02 03 	sltu $2,$3,$2
  4114a0:	06 00 00 00 0a 00 00 02 	bne $2,$0,4114d0 <__printf_fp+0x45c0>
  4114a8:	42 00 00 00 00 04 16 00 	addu $4,$0,$22
  4114b0:	43 00 00 00 20 00 05 00 	addiu $5,$0,32
  4114b8:	02 00 00 00 84 0f 10 00 	jal 403e10 <__flshfp>
  4114c0:	06 00 00 00 08 00 11 02 	bne $2,$17,4114e8 <__printf_fp+0x45d8>
  4114c8:	01 00 00 00 8c 34 10 00 	j 40d230 <__printf_fp+0x320>
  4114d0:	43 00 00 00 01 00 02 03 	addiu $2,$3,1
  4114d8:	34 00 00 00 04 00 02 16 	sw $2,4($22)
  4114e0:	30 00 00 00 00 00 10 03 	sb $16,0($3)
  4114e8:	28 00 00 00 98 06 09 1e 	lw $9,1688($30)
  4114f0:	43 00 00 00 01 00 09 09 	addiu $9,$9,1
  4114f8:	34 00 00 00 98 06 09 1e 	sw $9,1688($30)
  411500:	28 00 00 00 b8 06 02 1e 	lw $2,1720($30)
  411508:	42 00 00 00 00 09 02 00 	addu $9,$0,$2
  411510:	43 00 00 00 ff ff 09 09 	addiu $9,$9,-1
  411518:	34 00 00 00 b8 06 09 1e 	sw $9,1720($30)
  411520:	08 00 00 00 d8 ff 00 02 	bgtz $2,411488 <__printf_fp+0x4578>
  411528:	28 00 00 00 f8 05 02 1e 	lw $2,1528($30)
  411530:	05 00 00 00 16 00 00 02 	beq $2,$0,411590 <__printf_fp+0x4680>
  411538:	28 00 00 00 04 00 03 16 	lw $3,4($22)
  411540:	28 00 00 00 0c 00 02 16 	lw $2,12($22)
  411548:	5d 00 00 00 00 02 02 03 	sltu $2,$3,$2
  411550:	06 00 00 00 06 00 00 02 	bne $2,$0,411570 <__printf_fp+0x4660>
  411558:	42 00 00 00 00 04 16 00 	addu $4,$0,$22
  411560:	43 00 00 00 2d 00 05 00 	addiu $5,$0,45
  411568:	01 00 00 00 92 45 10 00 	j 411648 <__printf_fp+0x4738>
  411570:	43 00 00 00 01 00 02 03 	addiu $2,$3,1
  411578:	34 00 00 00 04 00 02 16 	sw $2,4($22)
  411580:	43 00 00 00 2d 00 02 00 	addiu $2,$0,45
  411588:	01 00 00 00 a0 45 10 00 	j 411680 <__printf_fp+0x4770>
  411590:	28 00 00 00 90 06 09 1e 	lw $9,1680($30)
  411598:	28 00 00 00 08 00 03 09 	lw $3,8($9)
  4115a0:	4f 00 00 00 00 40 02 03 	andi $2,$3,16384
  4115a8:	05 00 00 00 16 00 00 02 	beq $2,$0,411608 <__printf_fp+0x46f8>
  4115b0:	28 00 00 00 04 00 03 16 	lw $3,4($22)
  4115b8:	28 00 00 00 0c 00 02 16 	lw $2,12($22)
  4115c0:	5d 00 00 00 00 02 02 03 	sltu $2,$3,$2
  4115c8:	06 00 00 00 06 00 00 02 	bne $2,$0,4115e8 <__printf_fp+0x46d8>
  4115d0:	42 00 00 00 00 04 16 00 	addu $4,$0,$22
  4115d8:	43 00 00 00 2b 00 05 00 	addiu $5,$0,43
  4115e0:	01 00 00 00 92 45 10 00 	j 411648 <__printf_fp+0x4738>
  4115e8:	43 00 00 00 01 00 02 03 	addiu $2,$3,1
  4115f0:	34 00 00 00 04 00 02 16 	sw $2,4($22)
  4115f8:	43 00 00 00 2b 00 02 00 	addiu $2,$0,43
  411600:	01 00 00 00 a0 45 10 00 	j 411680 <__printf_fp+0x4770>
  411608:	4f 00 00 00 00 10 02 03 	andi $2,$3,4096
  411610:	05 00 00 00 22 00 00 02 	beq $2,$0,4116a0 <__printf_fp+0x4790>
  411618:	28 00 00 00 04 00 03 16 	lw $3,4($22)
  411620:	28 00 00 00 0c 00 02 16 	lw $2,12($22)
  411628:	5d 00 00 00 00 02 02 03 	sltu $2,$3,$2
  411630:	06 00 00 00 0c 00 00 02 	bne $2,$0,411668 <__printf_fp+0x4758>
  411638:	42 00 00 00 00 04 16 00 	addu $4,$0,$22
  411640:	43 00 00 00 20 00 05 00 	addiu $5,$0,32
  411648:	02 00 00 00 84 0f 10 00 	jal 403e10 <__flshfp>
  411650:	43 00 00 00 ff ff 03 00 	addiu $3,$0,-1
  411658:	06 00 00 00 0a 00 03 02 	bne $2,$3,411688 <__printf_fp+0x4778>
  411660:	01 00 00 00 8c 34 10 00 	j 40d230 <__printf_fp+0x320>
  411668:	43 00 00 00 01 00 02 03 	addiu $2,$3,1
  411670:	34 00 00 00 04 00 02 16 	sw $2,4($22)
  411678:	43 00 00 00 20 00 02 00 	addiu $2,$0,32
  411680:	30 00 00 00 00 00 02 03 	sb $2,0($3)
  411688:	28 00 00 00 98 06 09 1e 	lw $9,1688($30)
  411690:	43 00 00 00 01 00 09 09 	addiu $9,$9,1
  411698:	34 00 00 00 98 06 09 1e 	sw $9,1688($30)
  4116a0:	28 00 00 00 90 06 09 1e 	lw $9,1680($30)
  4116a8:	28 00 00 00 08 00 02 09 	lw $2,8($9)
  4116b0:	a2 00 00 00 ff 00 03 00 	lui $3,255
  4116b8:	51 00 00 00 00 20 03 03 	ori $3,$3,8192
  4116c0:	4e 00 00 00 00 02 03 02 	and $2,$2,$3
  4116c8:	a2 00 00 00 30 00 03 00 	lui $3,48
  4116d0:	06 00 00 00 36 00 03 02 	bne $2,$3,4117b0 <__printf_fp+0x48a0>
  4116d8:	28 00 00 00 b8 06 02 1e 	lw $2,1720($30)
  4116e0:	42 00 00 00 00 09 02 00 	addu $9,$0,$2
  4116e8:	43 00 00 00 ff ff 09 09 	addiu $9,$9,-1
  4116f0:	34 00 00 00 b8 06 09 1e 	sw $9,1720($30)
  4116f8:	07 00 00 00 2c 00 00 02 	blez $2,4117b0 <__printf_fp+0x48a0>
  411700:	43 00 00 00 ff ff 11 00 	addiu $17,$0,-1
  411708:	43 00 00 00 30 00 10 00 	addiu $16,$0,48
  411710:	28 00 00 00 04 00 03 16 	lw $3,4($22)
  411718:	28 00 00 00 0c 00 02 16 	lw $2,12($22)
  411720:	5d 00 00 00 00 02 02 03 	sltu $2,$3,$2
  411728:	06 00 00 00 0a 00 00 02 	bne $2,$0,411758 <__printf_fp+0x4848>
  411730:	42 00 00 00 00 04 16 00 	addu $4,$0,$22
  411738:	43 00 00 00 30 00 05 00 	addiu $5,$0,48
  411740:	02 00 00 00 84 0f 10 00 	jal 403e10 <__flshfp>
  411748:	06 00 00 00 08 00 11 02 	bne $2,$17,411770 <__printf_fp+0x4860>
  411750:	01 00 00 00 8c 34 10 00 	j 40d230 <__printf_fp+0x320>
  411758:	43 00 00 00 01 00 02 03 	addiu $2,$3,1
  411760:	34 00 00 00 04 00 02 16 	sw $2,4($22)
  411768:	30 00 00 00 00 00 10 03 	sb $16,0($3)
  411770:	28 00 00 00 98 06 09 1e 	lw $9,1688($30)
  411778:	43 00 00 00 01 00 09 09 	addiu $9,$9,1
  411780:	34 00 00 00 98 06 09 1e 	sw $9,1688($30)
  411788:	28 00 00 00 b8 06 02 1e 	lw $2,1720($30)
  411790:	42 00 00 00 00 09 02 00 	addu $9,$0,$2
  411798:	43 00 00 00 ff ff 09 09 	addiu $9,$9,-1
  4117a0:	34 00 00 00 b8 06 09 1e 	sw $9,1720($30)
  4117a8:	08 00 00 00 d8 ff 00 02 	bgtz $2,411710 <__printf_fp+0x4800>
  4117b0:	28 00 00 00 c0 06 04 1e 	lw $4,1728($30)
  4117b8:	43 00 00 00 01 00 06 00 	addiu $6,$0,1
  4117c0:	42 00 00 00 00 07 16 00 	addu $7,$0,$22
  4117c8:	45 00 00 00 00 10 04 17 	subu $16,$23,$4
  4117d0:	42 00 00 00 00 05 10 00 	addu $5,$0,$16
  4117d8:	02 00 00 00 a4 31 10 00 	jal 40c690 <fwrite>
  4117e0:	43 00 00 00 01 00 03 00 	addiu $3,$0,1
  4117e8:	06 00 00 00 90 ee 03 02 	bne $2,$3,40d230 <__printf_fp+0x320>
  4117f0:	28 00 00 00 90 06 09 1e 	lw $9,1680($30)
  4117f8:	28 00 00 00 08 00 02 09 	lw $2,8($9)
  411800:	28 00 00 00 98 06 09 1e 	lw $9,1688($30)
  411808:	4f 00 00 00 00 20 02 02 	andi $2,$2,8192
  411810:	42 00 00 00 00 09 10 09 	addu $9,$9,$16
  411818:	34 00 00 00 98 06 09 1e 	sw $9,1688($30)
  411820:	05 00 00 00 36 00 00 02 	beq $2,$0,411900 <__printf_fp+0x49f0>
  411828:	28 00 00 00 b8 06 02 1e 	lw $2,1720($30)
  411830:	42 00 00 00 00 09 02 00 	addu $9,$0,$2
  411838:	43 00 00 00 ff ff 09 09 	addiu $9,$9,-1
  411840:	34 00 00 00 b8 06 09 1e 	sw $9,1720($30)
  411848:	07 00 00 00 2c 00 00 02 	blez $2,411900 <__printf_fp+0x49f0>
  411850:	43 00 00 00 ff ff 11 00 	addiu $17,$0,-1
  411858:	43 00 00 00 20 00 10 00 	addiu $16,$0,32
  411860:	28 00 00 00 04 00 03 16 	lw $3,4($22)
  411868:	28 00 00 00 0c 00 02 16 	lw $2,12($22)
  411870:	5d 00 00 00 00 02 02 03 	sltu $2,$3,$2
  411878:	06 00 00 00 0a 00 00 02 	bne $2,$0,4118a8 <__printf_fp+0x4998>
  411880:	42 00 00 00 00 04 16 00 	addu $4,$0,$22
  411888:	43 00 00 00 20 00 05 00 	addiu $5,$0,32
  411890:	02 00 00 00 84 0f 10 00 	jal 403e10 <__flshfp>
  411898:	06 00 00 00 08 00 11 02 	bne $2,$17,4118c0 <__printf_fp+0x49b0>
  4118a0:	01 00 00 00 8c 34 10 00 	j 40d230 <__printf_fp+0x320>
  4118a8:	43 00 00 00 01 00 02 03 	addiu $2,$3,1
  4118b0:	34 00 00 00 04 00 02 16 	sw $2,4($22)
  4118b8:	30 00 00 00 00 00 10 03 	sb $16,0($3)
  4118c0:	28 00 00 00 98 06 09 1e 	lw $9,1688($30)
  4118c8:	43 00 00 00 01 00 09 09 	addiu $9,$9,1
  4118d0:	34 00 00 00 98 06 09 1e 	sw $9,1688($30)
  4118d8:	28 00 00 00 b8 06 02 1e 	lw $2,1720($30)
  4118e0:	42 00 00 00 00 09 02 00 	addu $9,$0,$2
  4118e8:	43 00 00 00 ff ff 09 09 	addiu $9,$9,-1
  4118f0:	34 00 00 00 b8 06 09 1e 	sw $9,1720($30)
  4118f8:	08 00 00 00 d8 ff 00 02 	bgtz $2,411860 <__printf_fp+0x4950>
  411900:	28 00 00 00 98 06 02 1e 	lw $2,1688($30)
  411908:	42 00 00 00 00 1d 1e 00 	addu $29,$0,$30
  411910:	28 00 00 00 a4 07 1f 1d 	lw $31,1956($29)
  411918:	28 00 00 00 a0 07 1e 1d 	lw $30,1952($29)
  411920:	28 00 00 00 9c 07 17 1d 	lw $23,1948($29)
  411928:	28 00 00 00 98 07 16 1d 	lw $22,1944($29)
  411930:	28 00 00 00 94 07 15 1d 	lw $21,1940($29)
  411938:	28 00 00 00 90 07 14 1d 	lw $20,1936($29)
  411940:	28 00 00 00 8c 07 13 1d 	lw $19,1932($29)
  411948:	28 00 00 00 88 07 12 1d 	lw $18,1928($29)
  411950:	28 00 00 00 84 07 11 1d 	lw $17,1924($29)
  411958:	28 00 00 00 80 07 10 1d 	lw $16,1920($29)
  411960:	2a 00 00 00 a8 07 14 1d 	l.s $f20,1960($29)
  411968:	2a 00 00 00 ac 07 15 1d 	l.s $f21,1964($29)
  411970:	43 00 00 00 b0 07 1d 1d 	addiu $29,$29,1968
  411978:	03 00 00 00 00 00 00 1f 	jr $31

00411980 <sprintf>:
  411980:	34 00 00 00 04 00 05 1d 	sw $5,4($29)
  411988:	34 00 00 00 08 00 06 1d 	sw $6,8($29)
  411990:	34 00 00 00 0c 00 07 1d 	sw $7,12($29)
  411998:	43 00 00 00 e8 ff 1d 1d 	addiu $29,$29,-24
  4119a0:	43 00 00 00 20 00 06 1d 	addiu $6,$29,32
  4119a8:	34 00 00 00 10 00 1f 1d 	sw $31,16($29)
  4119b0:	02 00 00 00 08 56 10 00 	jal 415820 <vsprintf>
  4119b8:	28 00 00 00 10 00 1f 1d 	lw $31,16($29)
  4119c0:	43 00 00 00 18 00 1d 1d 	addiu $29,$29,24
  4119c8:	03 00 00 00 00 00 00 1f 	jr $31

004119d0 <fflush>:
  4119d0:	43 00 00 00 d8 ff 1d 1d 	addiu $29,$29,-40
  4119d8:	34 00 00 00 10 00 10 1d 	sw $16,16($29)
  4119e0:	42 00 00 00 00 10 04 00 	addu $16,$0,$4
  4119e8:	34 00 00 00 24 00 1f 1d 	sw $31,36($29)
  4119f0:	34 00 00 00 20 00 14 1d 	sw $20,32($29)
  4119f8:	34 00 00 00 1c 00 13 1d 	sw $19,28($29)
  411a00:	34 00 00 00 18 00 12 1d 	sw $18,24($29)
  411a08:	34 00 00 00 14 00 11 1d 	sw $17,20($29)
  411a10:	06 00 00 00 34 00 00 10 	bne $16,$0,411ae8 <fflush+0x118>
  411a18:	28 00 00 00 9c 80 10 1c 	lw $16,-32612($28)
  411a20:	42 00 00 00 00 11 00 00 	addu $17,$0,$0
  411a28:	05 00 00 00 28 00 00 10 	beq $16,$0,411ad0 <fflush+0x100>
  411a30:	a2 00 00 00 ed fe 13 00 	lui $19,65261
  411a38:	51 00 00 00 be ba 13 13 	ori $19,$19,47806
  411a40:	a2 00 00 00 da fe 12 00 	lui $18,65242
  411a48:	51 00 00 00 eb be 12 12 	ori $18,$18,48875
  411a50:	43 00 00 00 ff ff 14 00 	addiu $20,$0,-1
  411a58:	28 00 00 00 00 00 02 10 	lw $2,0($16)
  411a60:	06 00 00 00 04 00 13 02 	bne $2,$19,411a78 <fflush+0xa8>
  411a68:	28 00 00 00 04 00 02 10 	lw $2,4($16)
  411a70:	28 00 00 00 00 00 10 02 	lw $16,0($2)
  411a78:	28 00 00 00 00 00 02 10 	lw $2,0($16)
  411a80:	06 00 00 00 0e 00 12 02 	bne $2,$18,411ac0 <fflush+0xf0>
  411a88:	28 00 00 00 1c 00 02 10 	lw $2,28($16)
  411a90:	4f 00 00 00 02 00 02 02 	andi $2,$2,2
  411a98:	05 00 00 00 08 00 00 02 	beq $2,$0,411ac0 <fflush+0xf0>
  411aa0:	42 00 00 00 00 04 10 00 	addu $4,$0,$16
  411aa8:	02 00 00 00 74 46 10 00 	jal 4119d0 <fflush>
  411ab0:	06 00 00 00 02 00 14 02 	bne $2,$20,411ac0 <fflush+0xf0>
  411ab8:	51 00 00 00 01 00 11 11 	ori $17,$17,1
  411ac0:	28 00 00 00 44 00 10 10 	lw $16,68($16)
  411ac8:	06 00 00 00 e2 ff 00 10 	bne $16,$0,411a58 <fflush+0x88>
  411ad0:	5d 00 00 00 00 02 11 00 	sltu $2,$0,$17
  411ad8:	45 00 00 00 00 02 02 00 	subu $2,$0,$2
  411ae0:	01 00 00 00 e2 46 10 00 	j 411b88 <fflush+0x1b8>
  411ae8:	28 00 00 00 00 00 03 10 	lw $3,0($16)
  411af0:	a2 00 00 00 ed fe 02 00 	lui $2,65261
  411af8:	51 00 00 00 be ba 02 02 	ori $2,$2,47806
  411b00:	06 00 00 00 04 00 02 03 	bne $3,$2,411b18 <fflush+0x148>
  411b08:	28 00 00 00 04 00 02 10 	lw $2,4($16)
  411b10:	28 00 00 00 00 00 10 02 	lw $16,0($2)
  411b18:	28 00 00 00 00 00 03 10 	lw $3,0($16)
  411b20:	a2 00 00 00 da fe 02 00 	lui $2,65242
  411b28:	51 00 00 00 eb be 02 02 	ori $2,$2,48875
  411b30:	06 00 00 00 06 00 02 03 	bne $3,$2,411b50 <fflush+0x180>
  411b38:	28 00 00 00 1c 00 02 10 	lw $2,28($16)
  411b40:	4f 00 00 00 02 00 02 02 	andi $2,$2,2
  411b48:	06 00 00 00 08 00 00 02 	bne $2,$0,411b70 <fflush+0x1a0>
  411b50:	43 00 00 00 16 00 02 00 	addiu $2,$0,22
  411b58:	34 00 00 00 60 84 02 1c 	sw $2,-31648($28)
  411b60:	43 00 00 00 ff ff 02 00 	addiu $2,$0,-1
  411b68:	01 00 00 00 e2 46 10 00 	j 411b88 <fflush+0x1b8>
  411b70:	42 00 00 00 00 04 10 00 	addu $4,$0,$16
  411b78:	43 00 00 00 ff ff 05 00 	addiu $5,$0,-1
  411b80:	02 00 00 00 84 0f 10 00 	jal 403e10 <__flshfp>
  411b88:	28 00 00 00 24 00 1f 1d 	lw $31,36($29)
  411b90:	28 00 00 00 20 00 14 1d 	lw $20,32($29)
  411b98:	28 00 00 00 1c 00 13 1d 	lw $19,28($29)
  411ba0:	28 00 00 00 18 00 12 1d 	lw $18,24($29)
  411ba8:	28 00 00 00 14 00 11 1d 	lw $17,20($29)
  411bb0:	28 00 00 00 10 00 10 1d 	lw $16,16($29)
  411bb8:	43 00 00 00 28 00 1d 1d 	addiu $29,$29,40
  411bc0:	03 00 00 00 00 00 00 1f 	jr $31
	...
  411bd0:	01 00 00 00 dc 2d 10 00 	j 40b770 <syscall_error>
	...

00411be0 <__read>:
  411be0:	43 00 00 00 03 00 02 00 	addiu $2,$0,3
  411be8:	a0 00 00 00 00 00 00 00 	syscall 
  411bf0:	06 00 00 00 f6 ff 00 07 	bne $7,$0,411bd0 <fflush+0x200>
	...
  411c00:	03 00 00 00 00 00 00 1f 	jr $31
	...
  411c10:	01 00 00 00 dc 2d 10 00 	j 40b770 <syscall_error>
	...

00411c20 <__write>:
  411c20:	43 00 00 00 04 00 02 00 	addiu $2,$0,4
  411c28:	a0 00 00 00 00 00 00 00 	syscall 
  411c30:	06 00 00 00 f6 ff 00 07 	bne $7,$0,411c10 <__read+0x30>
	...
  411c40:	03 00 00 00 00 00 00 1f 	jr $31
	...
  411c50:	01 00 00 00 dc 2d 10 00 	j 40b770 <syscall_error>
	...

00411c60 <__lseek>:
  411c60:	43 00 00 00 13 00 02 00 	addiu $2,$0,19
  411c68:	a0 00 00 00 00 00 00 00 	syscall 
  411c70:	06 00 00 00 f6 ff 00 07 	bne $7,$0,411c50 <__write+0x30>
	...
  411c80:	03 00 00 00 00 00 00 1f 	jr $31
	...
  411c90:	01 00 00 00 dc 2d 10 00 	j 40b770 <syscall_error>
	...

00411ca0 <__close>:
  411ca0:	43 00 00 00 06 00 02 00 	addiu $2,$0,6
  411ca8:	a0 00 00 00 00 00 00 00 	syscall 
  411cb0:	06 00 00 00 f6 ff 00 07 	bne $7,$0,411c90 <__lseek+0x30>
	...
  411cc0:	03 00 00 00 00 00 00 1f 	jr $31
	...
  411cd0:	01 00 00 00 dc 2d 10 00 	j 40b770 <syscall_error>
	...

00411ce0 <__open>:
  411ce0:	43 00 00 00 05 00 02 00 	addiu $2,$0,5
  411ce8:	a0 00 00 00 00 00 00 00 	syscall 
  411cf0:	06 00 00 00 f6 ff 00 07 	bne $7,$0,411cd0 <__close+0x30>
	...
  411d00:	03 00 00 00 00 00 00 1f 	jr $31
	...
  411d10:	01 00 00 00 dc 2d 10 00 	j 40b770 <syscall_error>
	...

00411d20 <__dup2>:
  411d20:	43 00 00 00 5a 00 02 00 	addiu $2,$0,90
  411d28:	a0 00 00 00 00 00 00 00 	syscall 
  411d30:	06 00 00 00 f6 ff 00 07 	bne $7,$0,411d10 <__open+0x30>
	...
  411d40:	03 00 00 00 00 00 00 1f 	jr $31
	...
  411d50:	01 00 00 00 dc 2d 10 00 	j 40b770 <syscall_error>
	...

00411d60 <__fstat>:
  411d60:	43 00 00 00 3e 00 02 00 	addiu $2,$0,62
  411d68:	a0 00 00 00 00 00 00 00 	syscall 
  411d70:	06 00 00 00 f6 ff 00 07 	bne $7,$0,411d50 <__dup2+0x30>
	...
  411d80:	03 00 00 00 00 00 00 1f 	jr $31
	...

00411d90 <__isatty>:
  411d90:	43 00 00 00 e0 ff 1d 1d 	addiu $29,$29,-32
  411d98:	a2 00 00 00 06 40 05 00 	lui $5,16390
  411da0:	34 00 00 00 18 00 10 1d 	sw $16,24($29)
  411da8:	28 00 00 00 60 84 10 1c 	lw $16,-31648($28)
  411db0:	51 00 00 00 08 74 05 05 	ori $5,$5,29704
  411db8:	43 00 00 00 10 00 06 1d 	addiu $6,$29,16
  411dc0:	34 00 00 00 1c 00 1f 1d 	sw $31,28($29)
  411dc8:	02 00 00 00 60 56 10 00 	jal 415980 <__ioctl>
  411dd0:	5e 00 00 00 01 00 02 02 	sltiu $2,$2,1
  411dd8:	34 00 00 00 60 84 10 1c 	sw $16,-31648($28)
  411de0:	28 00 00 00 1c 00 1f 1d 	lw $31,28($29)
  411de8:	28 00 00 00 18 00 10 1d 	lw $16,24($29)
  411df0:	43 00 00 00 20 00 1d 1d 	addiu $29,$29,32
  411df8:	03 00 00 00 00 00 00 1f 	jr $31

00411e00 <__default_morecore>:
  411e00:	43 00 00 00 e8 ff 1d 1d 	addiu $29,$29,-24
  411e08:	34 00 00 00 10 00 1f 1d 	sw $31,16($29)
  411e10:	02 00 00 00 6c 56 10 00 	jal 4159b0 <__sbrk>
  411e18:	54 00 00 00 00 03 02 00 	nor $3,$0,$2
  411e20:	5d 00 00 00 00 03 03 00 	sltu $3,$0,$3
  411e28:	45 00 00 00 00 03 03 00 	subu $3,$0,$3
  411e30:	4e 00 00 00 00 02 03 02 	and $2,$2,$3
  411e38:	28 00 00 00 10 00 1f 1d 	lw $31,16($29)
  411e40:	43 00 00 00 18 00 1d 1d 	addiu $29,$29,24
  411e48:	03 00 00 00 00 00 00 1f 	jr $31

00411e50 <memcpy>:
  411e50:	43 00 00 00 d8 ff 1d 1d 	addiu $29,$29,-40
  411e58:	34 00 00 00 1c 00 13 1d 	sw $19,28($29)
  411e60:	42 00 00 00 00 13 04 00 	addu $19,$0,$4
  411e68:	34 00 00 00 18 00 12 1d 	sw $18,24($29)
  411e70:	42 00 00 00 00 12 06 00 	addu $18,$0,$6
  411e78:	34 00 00 00 14 00 11 1d 	sw $17,20($29)
  411e80:	42 00 00 00 00 11 13 00 	addu $17,$0,$19
  411e88:	34 00 00 00 10 00 10 1d 	sw $16,16($29)
  411e90:	42 00 00 00 00 10 05 00 	addu $16,$0,$5
  411e98:	5e 00 00 00 10 00 02 12 	sltiu $2,$18,16
  411ea0:	34 00 00 00 20 00 1f 1d 	sw $31,32($29)
  411ea8:	06 00 00 00 36 00 00 02 	bne $2,$0,411f88 <memcpy+0x138>
  411eb0:	45 00 00 00 00 02 13 00 	subu $2,$0,$19
  411eb8:	4f 00 00 00 03 00 02 02 	andi $2,$2,3
  411ec0:	45 00 00 00 00 12 02 12 	subu $18,$18,$2
  411ec8:	42 00 00 00 00 03 02 00 	addu $3,$0,$2
  411ed0:	05 00 00 00 0c 00 00 03 	beq $3,$0,411f08 <memcpy+0xb8>
  411ed8:	22 00 00 00 00 00 02 10 	lbu $2,0($16)
  411ee0:	43 00 00 00 ff ff 03 03 	addiu $3,$3,-1
  411ee8:	43 00 00 00 01 00 10 10 	addiu $16,$16,1
  411ef0:	30 00 00 00 00 00 02 11 	sb $2,0($17)
  411ef8:	43 00 00 00 01 00 11 11 	addiu $17,$17,1
  411f00:	06 00 00 00 f4 ff 00 03 	bne $3,$0,411ed8 <memcpy+0x88>
  411f08:	4f 00 00 00 03 00 02 10 	andi $2,$16,3
  411f10:	06 00 00 00 0a 00 00 02 	bne $2,$0,411f40 <memcpy+0xf0>
  411f18:	42 00 00 00 00 04 11 00 	addu $4,$0,$17
  411f20:	42 00 00 00 00 05 10 00 	addu $5,$0,$16
  411f28:	57 00 00 00 02 06 12 00 	srl $6,$18,0x2
  411f30:	02 00 00 00 90 56 10 00 	jal 415a40 <_wordcopy_fwd_aligned>
  411f38:	01 00 00 00 d8 47 10 00 	j 411f60 <memcpy+0x110>
  411f40:	42 00 00 00 00 04 11 00 	addu $4,$0,$17
  411f48:	42 00 00 00 00 05 10 00 	addu $5,$0,$16
  411f50:	57 00 00 00 02 06 12 00 	srl $6,$18,0x2
  411f58:	02 00 00 00 14 57 10 00 	jal 415c50 <_wordcopy_fwd_dest_aligned>
  411f60:	43 00 00 00 fc ff 02 00 	addiu $2,$0,-4
  411f68:	4e 00 00 00 00 02 02 12 	and $2,$18,$2
  411f70:	42 00 00 00 00 10 02 10 	addu $16,$16,$2
  411f78:	42 00 00 00 00 11 02 11 	addu $17,$17,$2
  411f80:	4f 00 00 00 03 00 12 12 	andi $18,$18,3
  411f88:	42 00 00 00 00 06 12 00 	addu $6,$0,$18
  411f90:	05 00 00 00 0c 00 00 06 	beq $6,$0,411fc8 <memcpy+0x178>
  411f98:	22 00 00 00 00 00 02 10 	lbu $2,0($16)
  411fa0:	43 00 00 00 ff ff 06 06 	addiu $6,$6,-1
  411fa8:	43 00 00 00 01 00 10 10 	addiu $16,$16,1
  411fb0:	30 00 00 00 00 00 02 11 	sb $2,0($17)
  411fb8:	43 00 00 00 01 00 11 11 	addiu $17,$17,1
  411fc0:	06 00 00 00 f4 ff 00 06 	bne $6,$0,411f98 <memcpy+0x148>
  411fc8:	42 00 00 00 00 02 13 00 	addu $2,$0,$19
  411fd0:	28 00 00 00 20 00 1f 1d 	lw $31,32($29)
  411fd8:	28 00 00 00 1c 00 13 1d 	lw $19,28($29)
  411fe0:	28 00 00 00 18 00 12 1d 	lw $18,24($29)
  411fe8:	28 00 00 00 14 00 11 1d 	lw $17,20($29)
  411ff0:	28 00 00 00 10 00 10 1d 	lw $16,16($29)
  411ff8:	43 00 00 00 28 00 1d 1d 	addiu $29,$29,40
  412000:	03 00 00 00 00 00 00 1f 	jr $31
	...

00412010 <realloc>:
  412010:	43 00 00 00 d8 ff 1d 1d 	addiu $29,$29,-40
  412018:	34 00 00 00 20 00 14 1d 	sw $20,32($29)
  412020:	42 00 00 00 00 14 04 00 	addu $20,$0,$4
  412028:	34 00 00 00 18 00 12 1d 	sw $18,24($29)
  412030:	42 00 00 00 00 12 05 00 	addu $18,$0,$5
  412038:	34 00 00 00 24 00 1f 1d 	sw $31,36($29)
  412040:	34 00 00 00 1c 00 13 1d 	sw $19,28($29)
  412048:	34 00 00 00 14 00 11 1d 	sw $17,20($29)
  412050:	34 00 00 00 10 00 10 1d 	sw $16,16($29)
  412058:	06 00 00 00 08 00 00 12 	bne $18,$0,412080 <realloc+0x70>
  412060:	02 00 00 00 10 30 10 00 	jal 40c040 <free>
  412068:	42 00 00 00 00 04 00 00 	addu $4,$0,$0
  412070:	02 00 00 00 96 22 10 00 	jal 408a58 <malloc>
  412078:	01 00 00 00 1a 49 10 00 	j 412468 <realloc+0x458>
  412080:	06 00 00 00 06 00 00 14 	bne $20,$0,4120a0 <realloc+0x90>
  412088:	42 00 00 00 00 04 12 00 	addu $4,$0,$18
  412090:	02 00 00 00 96 22 10 00 	jal 408a58 <malloc>
  412098:	01 00 00 00 1a 49 10 00 	j 412468 <realloc+0x458>
  4120a0:	28 00 00 00 00 85 02 1c 	lw $2,-31488($28)
  4120a8:	05 00 00 00 08 00 00 02 	beq $2,$0,4120d0 <realloc+0xc0>
  4120b0:	42 00 00 00 00 04 14 00 	addu $4,$0,$20
  4120b8:	42 00 00 00 00 05 12 00 	addu $5,$0,$18
  4120c0:	04 00 00 00 00 1f 00 02 	jalr $31,$2
  4120c8:	01 00 00 00 1a 49 10 00 	j 412468 <realloc+0x458>
  4120d0:	28 00 00 00 d4 84 02 1c 	lw $2,-31532($28)
  4120d8:	45 00 00 00 00 02 02 14 	subu $2,$20,$2
  4120e0:	0a 00 00 00 02 00 00 02 	bgez $2,4120f0 <realloc+0xe0>
  4120e8:	43 00 00 00 ff 0f 02 02 	addiu $2,$2,4095
  4120f0:	59 00 00 00 0c 02 02 00 	sra $2,$2,0xc
  4120f8:	43 00 00 00 01 00 13 02 	addiu $19,$2,1
  412100:	28 00 00 00 c8 84 03 1c 	lw $3,-31544($28)
  412108:	55 00 00 00 01 02 13 00 	sll $2,$19,0x1
  412110:	42 00 00 00 00 02 13 02 	addu $2,$2,$19
  412118:	55 00 00 00 02 02 02 00 	sll $2,$2,0x2
  412120:	42 00 00 00 00 02 03 02 	addu $2,$2,$3
  412128:	28 00 00 00 00 00 11 02 	lw $17,0($2)
  412130:	06 00 00 00 94 00 00 11 	bne $17,$0,412388 <realloc+0x378>
  412138:	5e 00 00 00 01 08 02 12 	sltiu $2,$18,2049
  412140:	05 00 00 00 16 00 00 02 	beq $2,$0,4121a0 <realloc+0x190>
  412148:	42 00 00 00 00 04 12 00 	addu $4,$0,$18
  412150:	02 00 00 00 96 22 10 00 	jal 408a58 <malloc>
  412158:	42 00 00 00 00 10 02 00 	addu $16,$0,$2
  412160:	05 00 00 00 0e 00 00 10 	beq $16,$0,4121a0 <realloc+0x190>
  412168:	42 00 00 00 00 04 10 00 	addu $4,$0,$16
  412170:	42 00 00 00 00 05 14 00 	addu $5,$0,$20
  412178:	42 00 00 00 00 06 12 00 	addu $6,$0,$18
  412180:	02 00 00 00 94 47 10 00 	jal 411e50 <memcpy>
  412188:	42 00 00 00 00 04 14 00 	addu $4,$0,$20
  412190:	02 00 00 00 e4 2d 10 00 	jal 40b790 <_free_internal>
  412198:	01 00 00 00 18 49 10 00 	j 412460 <realloc+0x450>
  4121a0:	28 00 00 00 c8 84 05 1c 	lw $5,-31544($28)
  4121a8:	55 00 00 00 01 02 13 00 	sll $2,$19,0x1
  4121b0:	42 00 00 00 00 02 13 02 	addu $2,$2,$19
  4121b8:	55 00 00 00 02 02 02 00 	sll $2,$2,0x2
  4121c0:	42 00 00 00 00 07 05 02 	addu $7,$2,$5
  4121c8:	28 00 00 00 04 00 03 07 	lw $3,4($7)
  4121d0:	43 00 00 00 ff 0f 02 12 	addiu $2,$18,4095
  4121d8:	57 00 00 00 0c 11 02 00 	srl $17,$2,0xc
  4121e0:	5d 00 00 00 00 02 03 11 	sltu $2,$17,$3
  4121e8:	05 00 00 00 28 00 00 02 	beq $2,$0,412290 <realloc+0x280>
  4121f0:	42 00 00 00 00 10 14 00 	addu $16,$0,$20
  4121f8:	42 00 00 00 00 04 11 13 	addu $4,$19,$17
  412200:	55 00 00 00 01 02 04 00 	sll $2,$4,0x1
  412208:	42 00 00 00 00 02 04 02 	addu $2,$2,$4
  412210:	55 00 00 00 02 02 02 00 	sll $2,$2,0x2
  412218:	42 00 00 00 00 02 05 02 	addu $2,$2,$5
  412220:	34 00 00 00 00 00 00 02 	sw $0,0($2)
  412228:	28 00 00 00 04 00 03 07 	lw $3,4($7)
  412230:	28 00 00 00 d8 84 05 1c 	lw $5,-31528($28)
  412238:	28 00 00 00 d4 84 06 1c 	lw $6,-31532($28)
  412240:	43 00 00 00 ff ff 04 04 	addiu $4,$4,-1
  412248:	55 00 00 00 0c 04 04 00 	sll $4,$4,0xc
  412250:	42 00 00 00 00 04 06 04 	addu $4,$4,$6
  412258:	45 00 00 00 00 03 11 03 	subu $3,$3,$17
  412260:	43 00 00 00 01 00 05 05 	addiu $5,$5,1
  412268:	34 00 00 00 04 00 03 02 	sw $3,4($2)
  412270:	34 00 00 00 04 00 11 07 	sw $17,4($7)
  412278:	34 00 00 00 d8 84 05 1c 	sw $5,-31528($28)
  412280:	02 00 00 00 e4 2d 10 00 	jal 40b790 <_free_internal>
  412288:	01 00 00 00 18 49 10 00 	j 412460 <realloc+0x450>
  412290:	05 00 00 00 4c 00 03 11 	beq $17,$3,4123c8 <realloc+0x3b8>
  412298:	28 00 00 00 c0 84 10 1c 	lw $16,-31552($28)
  4122a0:	42 00 00 00 00 11 03 00 	addu $17,$0,$3
  4122a8:	42 00 00 00 00 04 14 00 	addu $4,$0,$20
  4122b0:	34 00 00 00 c0 84 00 1c 	sw $0,-31552($28)
  4122b8:	02 00 00 00 e4 2d 10 00 	jal 40b790 <_free_internal>
  4122c0:	42 00 00 00 00 04 12 00 	addu $4,$0,$18
  4122c8:	34 00 00 00 c0 84 10 1c 	sw $16,-31552($28)
  4122d0:	02 00 00 00 96 22 10 00 	jal 408a58 <malloc>
  4122d8:	42 00 00 00 00 10 02 00 	addu $16,$0,$2
  4122e0:	06 00 00 00 1c 00 00 10 	bne $16,$0,412358 <realloc+0x348>
  4122e8:	28 00 00 00 bc 84 02 1c 	lw $2,-31556($28)
  4122f0:	06 00 00 00 06 00 13 02 	bne $2,$19,412310 <realloc+0x300>
  4122f8:	55 00 00 00 0c 04 11 00 	sll $4,$17,0xc
  412300:	02 00 00 00 96 22 10 00 	jal 408a58 <malloc>
  412308:	01 00 00 00 fe 48 10 00 	j 4123f8 <realloc+0x3e8>
  412310:	45 00 00 00 00 04 02 13 	subu $4,$19,$2
  412318:	55 00 00 00 0c 04 04 00 	sll $4,$4,0xc
  412320:	02 00 00 00 96 22 10 00 	jal 408a58 <malloc>
  412328:	55 00 00 00 0c 04 11 00 	sll $4,$17,0xc
  412330:	42 00 00 00 00 10 02 00 	addu $16,$0,$2
  412338:	02 00 00 00 96 22 10 00 	jal 408a58 <malloc>
  412340:	42 00 00 00 00 04 10 00 	addu $4,$0,$16
  412348:	02 00 00 00 e4 2d 10 00 	jal 40b790 <_free_internal>
  412350:	01 00 00 00 fe 48 10 00 	j 4123f8 <realloc+0x3e8>
  412358:	05 00 00 00 40 00 10 14 	beq $20,$16,412460 <realloc+0x450>
  412360:	42 00 00 00 00 04 10 00 	addu $4,$0,$16
  412368:	42 00 00 00 00 05 14 00 	addu $5,$0,$20
  412370:	55 00 00 00 0c 06 11 00 	sll $6,$17,0xc
  412378:	02 00 00 00 a4 58 10 00 	jal 416290 <memmove>
  412380:	01 00 00 00 18 49 10 00 	j 412460 <realloc+0x450>
  412388:	43 00 00 00 ff ff 02 11 	addiu $2,$17,-1
  412390:	43 00 00 00 01 00 03 00 	addiu $3,$0,1
  412398:	56 00 00 00 00 02 03 02 	sllv $2,$3,$2
  4123a0:	5d 00 00 00 00 02 12 02 	sltu $2,$2,$18
  4123a8:	05 00 00 00 0a 00 00 02 	beq $2,$0,4123d8 <realloc+0x3c8>
  4123b0:	56 00 00 00 00 02 03 11 	sllv $2,$3,$17
  4123b8:	5d 00 00 00 00 02 12 02 	sltu $2,$2,$18
  4123c0:	06 00 00 00 04 00 00 02 	bne $2,$0,4123d8 <realloc+0x3c8>
  4123c8:	42 00 00 00 00 10 14 00 	addu $16,$0,$20
  4123d0:	01 00 00 00 18 49 10 00 	j 412460 <realloc+0x450>
  4123d8:	42 00 00 00 00 04 12 00 	addu $4,$0,$18
  4123e0:	02 00 00 00 96 22 10 00 	jal 408a58 <malloc>
  4123e8:	42 00 00 00 00 10 02 00 	addu $16,$0,$2
  4123f0:	06 00 00 00 04 00 00 10 	bne $16,$0,412408 <realloc+0x3f8>
  4123f8:	42 00 00 00 00 02 00 00 	addu $2,$0,$0
  412400:	01 00 00 00 1a 49 10 00 	j 412468 <realloc+0x458>
  412408:	58 00 00 00 00 02 12 11 	srlv $2,$18,$17
  412410:	06 00 00 00 04 00 00 02 	bne $2,$0,412428 <realloc+0x418>
  412418:	42 00 00 00 00 06 12 00 	addu $6,$0,$18
  412420:	01 00 00 00 0e 49 10 00 	j 412438 <realloc+0x428>
  412428:	43 00 00 00 01 00 02 00 	addiu $2,$0,1
  412430:	56 00 00 00 00 06 02 11 	sllv $6,$2,$17
  412438:	42 00 00 00 00 04 10 00 	addu $4,$0,$16
  412440:	42 00 00 00 00 05 14 00 	addu $5,$0,$20
  412448:	02 00 00 00 94 47 10 00 	jal 411e50 <memcpy>
  412450:	42 00 00 00 00 04 14 00 	addu $4,$0,$20
  412458:	02 00 00 00 10 30 10 00 	jal 40c040 <free>
  412460:	42 00 00 00 00 02 10 00 	addu $2,$0,$16
  412468:	28 00 00 00 24 00 1f 1d 	lw $31,36($29)
  412470:	28 00 00 00 20 00 14 1d 	lw $20,32($29)
  412478:	28 00 00 00 1c 00 13 1d 	lw $19,28($29)
  412480:	28 00 00 00 18 00 12 1d 	lw $18,24($29)
  412488:	28 00 00 00 14 00 11 1d 	lw $17,20($29)
  412490:	28 00 00 00 10 00 10 1d 	lw $16,16($29)
  412498:	43 00 00 00 28 00 1d 1d 	addiu $29,$29,40
  4124a0:	03 00 00 00 00 00 00 1f 	jr $31
	...

004124b0 <strtol>:
  4124b0:	09 00 00 00 08 00 00 06 	bltz $6,4124d8 <strtol+0x28>
  4124b8:	43 00 00 00 01 00 02 00 	addiu $2,$0,1
  4124c0:	05 00 00 00 04 00 02 06 	beq $6,$2,4124d8 <strtol+0x28>
  4124c8:	5c 00 00 00 25 00 02 06 	slti $2,$6,37
  4124d0:	06 00 00 00 02 00 00 02 	bne $2,$0,4124e0 <strtol+0x30>
  4124d8:	43 00 00 00 0a 00 06 00 	addiu $6,$0,10
  4124e0:	20 00 00 00 00 00 02 04 	lb $2,0($4)
  4124e8:	28 00 00 00 20 81 03 1c 	lw $3,-32480($28)
  4124f0:	55 00 00 00 01 02 02 00 	sll $2,$2,0x1
  4124f8:	42 00 00 00 00 02 03 02 	addu $2,$2,$3
  412500:	26 00 00 00 00 00 02 02 	lhu $2,0($2)
  412508:	42 00 00 00 00 0a 04 00 	addu $10,$0,$4
  412510:	4f 00 00 00 10 00 02 02 	andi $2,$2,16
  412518:	05 00 00 00 0e 00 00 02 	beq $2,$0,412558 <strtol+0xa8>
  412520:	43 00 00 00 01 00 0a 0a 	addiu $10,$10,1
  412528:	20 00 00 00 00 00 02 0a 	lb $2,0($10)
  412530:	55 00 00 00 01 02 02 00 	sll $2,$2,0x1
  412538:	42 00 00 00 00 02 03 02 	addu $2,$2,$3
  412540:	26 00 00 00 00 00 02 02 	lhu $2,0($2)
  412548:	4f 00 00 00 10 00 02 02 	andi $2,$2,16
  412550:	06 00 00 00 f2 ff 00 02 	bne $2,$0,412520 <strtol+0x70>
  412558:	20 00 00 00 00 00 03 0a 	lb $3,0($10)
  412560:	05 00 00 00 d4 00 00 03 	beq $3,$0,4128b8 <strtol+0x408>
  412568:	43 00 00 00 2d 00 02 00 	addiu $2,$0,45
  412570:	06 00 00 00 06 00 02 03 	bne $3,$2,412590 <strtol+0xe0>
  412578:	43 00 00 00 01 00 0d 00 	addiu $13,$0,1
  412580:	43 00 00 00 01 00 0a 0a 	addiu $10,$10,1
  412588:	01 00 00 00 70 49 10 00 	j 4125c0 <strtol+0x110>
  412590:	43 00 00 00 2b 00 02 00 	addiu $2,$0,43
  412598:	06 00 00 00 06 00 02 03 	bne $3,$2,4125b8 <strtol+0x108>
  4125a0:	42 00 00 00 00 0d 00 00 	addu $13,$0,$0
  4125a8:	43 00 00 00 01 00 0a 0a 	addiu $10,$10,1
  4125b0:	01 00 00 00 70 49 10 00 	j 4125c0 <strtol+0x110>
  4125b8:	42 00 00 00 00 0d 00 00 	addu $13,$0,$0
  4125c0:	43 00 00 00 10 00 02 00 	addiu $2,$0,16
  4125c8:	06 00 00 00 16 00 02 06 	bne $6,$2,412628 <strtol+0x178>
  4125d0:	20 00 00 00 00 00 03 0a 	lb $3,0($10)
  4125d8:	43 00 00 00 30 00 02 00 	addiu $2,$0,48
  4125e0:	06 00 00 00 10 00 02 03 	bne $3,$2,412628 <strtol+0x178>
  4125e8:	20 00 00 00 01 00 02 0a 	lb $2,1($10)
  4125f0:	28 00 00 00 28 81 03 1c 	lw $3,-32472($28)
  4125f8:	55 00 00 00 01 02 02 00 	sll $2,$2,0x1
  412600:	42 00 00 00 00 02 03 02 	addu $2,$2,$3
  412608:	24 00 00 00 00 00 03 02 	lh $3,0($2)
  412610:	43 00 00 00 58 00 02 00 	addiu $2,$0,88
  412618:	06 00 00 00 02 00 02 03 	bne $3,$2,412628 <strtol+0x178>
  412620:	43 00 00 00 02 00 0a 0a 	addiu $10,$10,2
  412628:	06 00 00 00 20 00 00 06 	bne $6,$0,4126b0 <strtol+0x200>
  412630:	20 00 00 00 00 00 03 0a 	lb $3,0($10)
  412638:	43 00 00 00 30 00 02 00 	addiu $2,$0,48
  412640:	06 00 00 00 18 00 02 03 	bne $3,$2,4126a8 <strtol+0x1f8>
  412648:	20 00 00 00 01 00 02 0a 	lb $2,1($10)
  412650:	28 00 00 00 28 81 03 1c 	lw $3,-32472($28)
  412658:	55 00 00 00 01 02 02 00 	sll $2,$2,0x1
  412660:	42 00 00 00 00 02 03 02 	addu $2,$2,$3
  412668:	24 00 00 00 00 00 03 02 	lh $3,0($2)
  412670:	43 00 00 00 58 00 02 00 	addiu $2,$0,88
  412678:	06 00 00 00 06 00 02 03 	bne $3,$2,412698 <strtol+0x1e8>
  412680:	43 00 00 00 02 00 0a 0a 	addiu $10,$10,2
  412688:	43 00 00 00 10 00 06 00 	addiu $6,$0,16
  412690:	01 00 00 00 ac 49 10 00 	j 4126b0 <strtol+0x200>
  412698:	43 00 00 00 08 00 06 00 	addiu $6,$0,8
  4126a0:	01 00 00 00 ac 49 10 00 	j 4126b0 <strtol+0x200>
  4126a8:	43 00 00 00 0a 00 06 00 	addiu $6,$0,10
  4126b0:	43 00 00 00 ff ff 02 00 	addiu $2,$0,-1
  4126b8:	49 00 00 00 00 00 06 02 	divu $0,$2,$6
  4126c0:	06 00 00 00 02 00 00 06 	bne $6,$0,4126d0 <strtol+0x220>
  4126c8:	a1 00 00 00 07 00 00 00 	break 
  4126d0:	4c 00 00 00 00 0b 00 00 	mflo $11
  4126d8:	4a 00 00 00 00 18 00 00 	mfhi $24
  4126e0:	42 00 00 00 00 0c 00 00 	addu $12,$0,$0
  4126e8:	22 00 00 00 00 00 07 0a 	lbu $7,0($10)
  4126f0:	42 00 00 00 00 09 00 00 	addu $9,$0,$0
  4126f8:	42 00 00 00 00 19 0a 00 	addu $25,$0,$10
  412700:	05 00 00 00 40 00 00 07 	beq $7,$0,412808 <strtol+0x358>
  412708:	28 00 00 00 20 81 0f 1c 	lw $15,-32480($28)
  412710:	28 00 00 00 28 81 0e 1c 	lw $14,-32472($28)
  412718:	4f 00 00 00 ff 00 02 07 	andi $2,$7,255
  412720:	55 00 00 00 01 08 02 00 	sll $8,$2,0x1
  412728:	42 00 00 00 00 02 0f 08 	addu $2,$8,$15
  412730:	26 00 00 00 00 00 03 02 	lhu $3,0($2)
  412738:	4f 00 00 00 08 00 02 03 	andi $2,$3,8
  412740:	05 00 00 00 04 00 00 02 	beq $2,$0,412758 <strtol+0x2a8>
  412748:	43 00 00 00 d0 ff 07 07 	addiu $7,$7,-48
  412750:	01 00 00 00 e0 49 10 00 	j 412780 <strtol+0x2d0>
  412758:	4f 00 00 00 03 00 02 03 	andi $2,$3,3
  412760:	05 00 00 00 28 00 00 02 	beq $2,$0,412808 <strtol+0x358>
  412768:	42 00 00 00 00 02 0e 08 	addu $2,$8,$14
  412770:	22 00 00 00 00 00 02 02 	lbu $2,0($2)
  412778:	43 00 00 00 c9 ff 07 02 	addiu $7,$2,-55
  412780:	4f 00 00 00 ff 00 03 07 	andi $3,$7,255
  412788:	5b 00 00 00 00 02 06 03 	slt $2,$3,$6
  412790:	05 00 00 00 1c 00 00 02 	beq $2,$0,412808 <strtol+0x358>
  412798:	5d 00 00 00 00 02 09 0b 	sltu $2,$11,$9
  4127a0:	06 00 00 00 06 00 00 02 	bne $2,$0,4127c0 <strtol+0x310>
  4127a8:	06 00 00 00 08 00 0b 09 	bne $9,$11,4127d0 <strtol+0x320>
  4127b0:	5d 00 00 00 00 02 03 18 	sltu $2,$24,$3
  4127b8:	05 00 00 00 04 00 00 02 	beq $2,$0,4127d0 <strtol+0x320>
  4127c0:	43 00 00 00 01 00 0c 00 	addiu $12,$0,1
  4127c8:	01 00 00 00 fc 49 10 00 	j 4127f0 <strtol+0x340>
  4127d0:	46 00 00 00 00 00 06 09 	mult $9,$6
  4127d8:	4c 00 00 00 00 09 00 00 	mflo $9
  4127e0:	4f 00 00 00 ff 00 02 07 	andi $2,$7,255
  4127e8:	42 00 00 00 00 09 02 09 	addu $9,$9,$2
  4127f0:	43 00 00 00 01 00 0a 0a 	addiu $10,$10,1
  4127f8:	22 00 00 00 00 00 07 0a 	lbu $7,0($10)
  412800:	06 00 00 00 c4 ff 00 07 	bne $7,$0,412718 <strtol+0x268>
  412808:	05 00 00 00 2a 00 19 0a 	beq $10,$25,4128b8 <strtol+0x408>
  412810:	05 00 00 00 02 00 00 05 	beq $5,$0,412820 <strtol+0x370>
  412818:	34 00 00 00 00 00 0a 05 	sw $10,0($5)
  412820:	05 00 00 00 08 00 00 0d 	beq $13,$0,412848 <strtol+0x398>
  412828:	a2 00 00 00 00 80 02 00 	lui $2,32768
  412830:	5d 00 00 00 00 02 09 02 	sltu $2,$2,$9
  412838:	06 00 00 00 04 00 00 02 	bne $2,$0,412850 <strtol+0x3a0>
  412840:	01 00 00 00 16 4a 10 00 	j 412858 <strtol+0x3a8>
  412848:	0a 00 00 00 02 00 00 09 	bgez $9,412858 <strtol+0x3a8>
  412850:	43 00 00 00 01 00 0c 00 	addiu $12,$0,1
  412858:	05 00 00 00 0e 00 00 0c 	beq $12,$0,412898 <strtol+0x3e8>
  412860:	43 00 00 00 22 00 02 00 	addiu $2,$0,34
  412868:	34 00 00 00 60 84 02 1c 	sw $2,-31648($28)
  412870:	a2 00 00 00 ff 7f 02 00 	lui $2,32767
  412878:	51 00 00 00 ff ff 02 02 	ori $2,$2,65535
  412880:	05 00 00 00 12 00 00 0d 	beq $13,$0,4128d0 <strtol+0x420>
  412888:	a2 00 00 00 00 80 02 00 	lui $2,32768
  412890:	01 00 00 00 34 4a 10 00 	j 4128d0 <strtol+0x420>
  412898:	42 00 00 00 00 02 09 00 	addu $2,$0,$9
  4128a0:	05 00 00 00 0a 00 00 0d 	beq $13,$0,4128d0 <strtol+0x420>
  4128a8:	45 00 00 00 00 02 02 00 	subu $2,$0,$2
  4128b0:	01 00 00 00 34 4a 10 00 	j 4128d0 <strtol+0x420>
  4128b8:	05 00 00 00 02 00 00 05 	beq $5,$0,4128c8 <strtol+0x418>
  4128c0:	34 00 00 00 00 00 04 05 	sw $4,0($5)
  4128c8:	42 00 00 00 00 02 00 00 	addu $2,$0,$0
  4128d0:	03 00 00 00 00 00 00 1f 	jr $31
	...

004128e0 <strtoul>:
  4128e0:	09 00 00 00 08 00 00 06 	bltz $6,412908 <strtoul+0x28>
  4128e8:	43 00 00 00 01 00 02 00 	addiu $2,$0,1
  4128f0:	05 00 00 00 04 00 02 06 	beq $6,$2,412908 <strtoul+0x28>
  4128f8:	5c 00 00 00 25 00 02 06 	slti $2,$6,37
  412900:	06 00 00 00 02 00 00 02 	bne $2,$0,412910 <strtoul+0x30>
  412908:	43 00 00 00 0a 00 06 00 	addiu $6,$0,10
  412910:	20 00 00 00 00 00 02 04 	lb $2,0($4)
  412918:	28 00 00 00 20 81 03 1c 	lw $3,-32480($28)
  412920:	55 00 00 00 01 02 02 00 	sll $2,$2,0x1
  412928:	42 00 00 00 00 02 03 02 	addu $2,$2,$3
  412930:	26 00 00 00 00 00 02 02 	lhu $2,0($2)
  412938:	42 00 00 00 00 09 04 00 	addu $9,$0,$4
  412940:	4f 00 00 00 10 00 02 02 	andi $2,$2,16
  412948:	05 00 00 00 0e 00 00 02 	beq $2,$0,412988 <strtoul+0xa8>
  412950:	43 00 00 00 01 00 09 09 	addiu $9,$9,1
  412958:	20 00 00 00 00 00 02 09 	lb $2,0($9)
  412960:	55 00 00 00 01 02 02 00 	sll $2,$2,0x1
  412968:	42 00 00 00 00 02 03 02 	addu $2,$2,$3
  412970:	26 00 00 00 00 00 02 02 	lhu $2,0($2)
  412978:	4f 00 00 00 10 00 02 02 	andi $2,$2,16
  412980:	06 00 00 00 f2 ff 00 02 	bne $2,$0,412950 <strtoul+0x70>
  412988:	20 00 00 00 00 00 03 09 	lb $3,0($9)
  412990:	05 00 00 00 c0 00 00 03 	beq $3,$0,412c98 <strtoul+0x3b8>
  412998:	43 00 00 00 2d 00 02 00 	addiu $2,$0,45
  4129a0:	06 00 00 00 06 00 02 03 	bne $3,$2,4129c0 <strtoul+0xe0>
  4129a8:	43 00 00 00 01 00 0d 00 	addiu $13,$0,1
  4129b0:	43 00 00 00 01 00 09 09 	addiu $9,$9,1
  4129b8:	01 00 00 00 7c 4a 10 00 	j 4129f0 <strtoul+0x110>
  4129c0:	43 00 00 00 2b 00 02 00 	addiu $2,$0,43
  4129c8:	06 00 00 00 06 00 02 03 	bne $3,$2,4129e8 <strtoul+0x108>
  4129d0:	42 00 00 00 00 0d 00 00 	addu $13,$0,$0
  4129d8:	43 00 00 00 01 00 09 09 	addiu $9,$9,1
  4129e0:	01 00 00 00 7c 4a 10 00 	j 4129f0 <strtoul+0x110>
  4129e8:	42 00 00 00 00 0d 00 00 	addu $13,$0,$0
  4129f0:	43 00 00 00 10 00 02 00 	addiu $2,$0,16
  4129f8:	06 00 00 00 16 00 02 06 	bne $6,$2,412a58 <strtoul+0x178>
  412a00:	20 00 00 00 00 00 03 09 	lb $3,0($9)
  412a08:	43 00 00 00 30 00 02 00 	addiu $2,$0,48
  412a10:	06 00 00 00 10 00 02 03 	bne $3,$2,412a58 <strtoul+0x178>
  412a18:	20 00 00 00 01 00 02 09 	lb $2,1($9)
  412a20:	28 00 00 00 28 81 03 1c 	lw $3,-32472($28)
  412a28:	55 00 00 00 01 02 02 00 	sll $2,$2,0x1
  412a30:	42 00 00 00 00 02 03 02 	addu $2,$2,$3
  412a38:	24 00 00 00 00 00 03 02 	lh $3,0($2)
  412a40:	43 00 00 00 58 00 02 00 	addiu $2,$0,88
  412a48:	06 00 00 00 02 00 02 03 	bne $3,$2,412a58 <strtoul+0x178>
  412a50:	43 00 00 00 02 00 09 09 	addiu $9,$9,2
  412a58:	06 00 00 00 20 00 00 06 	bne $6,$0,412ae0 <strtoul+0x200>
  412a60:	20 00 00 00 00 00 03 09 	lb $3,0($9)
  412a68:	43 00 00 00 30 00 02 00 	addiu $2,$0,48
  412a70:	06 00 00 00 18 00 02 03 	bne $3,$2,412ad8 <strtoul+0x1f8>
  412a78:	20 00 00 00 01 00 02 09 	lb $2,1($9)
  412a80:	28 00 00 00 28 81 03 1c 	lw $3,-32472($28)
  412a88:	55 00 00 00 01 02 02 00 	sll $2,$2,0x1
  412a90:	42 00 00 00 00 02 03 02 	addu $2,$2,$3
  412a98:	24 00 00 00 00 00 03 02 	lh $3,0($2)
  412aa0:	43 00 00 00 58 00 02 00 	addiu $2,$0,88
  412aa8:	06 00 00 00 06 00 02 03 	bne $3,$2,412ac8 <strtoul+0x1e8>
  412ab0:	43 00 00 00 02 00 09 09 	addiu $9,$9,2
  412ab8:	43 00 00 00 10 00 06 00 	addiu $6,$0,16
  412ac0:	01 00 00 00 b8 4a 10 00 	j 412ae0 <strtoul+0x200>
  412ac8:	43 00 00 00 08 00 06 00 	addiu $6,$0,8
  412ad0:	01 00 00 00 b8 4a 10 00 	j 412ae0 <strtoul+0x200>
  412ad8:	43 00 00 00 0a 00 06 00 	addiu $6,$0,10
  412ae0:	43 00 00 00 ff ff 02 00 	addiu $2,$0,-1
  412ae8:	49 00 00 00 00 00 06 02 	divu $0,$2,$6
  412af0:	06 00 00 00 02 00 00 06 	bne $6,$0,412b00 <strtoul+0x220>
  412af8:	a1 00 00 00 07 00 00 00 	break 
  412b00:	4c 00 00 00 00 0b 00 00 	mflo $11
  412b08:	4a 00 00 00 00 18 00 00 	mfhi $24
  412b10:	42 00 00 00 00 0c 00 00 	addu $12,$0,$0
  412b18:	22 00 00 00 00 00 07 09 	lbu $7,0($9)
  412b20:	42 00 00 00 00 0a 00 00 	addu $10,$0,$0
  412b28:	42 00 00 00 00 19 09 00 	addu $25,$0,$9
  412b30:	05 00 00 00 40 00 00 07 	beq $7,$0,412c38 <strtoul+0x358>
  412b38:	28 00 00 00 20 81 0f 1c 	lw $15,-32480($28)
  412b40:	28 00 00 00 28 81 0e 1c 	lw $14,-32472($28)
  412b48:	4f 00 00 00 ff 00 02 07 	andi $2,$7,255
  412b50:	55 00 00 00 01 08 02 00 	sll $8,$2,0x1
  412b58:	42 00 00 00 00 02 0f 08 	addu $2,$8,$15
  412b60:	26 00 00 00 00 00 03 02 	lhu $3,0($2)
  412b68:	4f 00 00 00 08 00 02 03 	andi $2,$3,8
  412b70:	05 00 00 00 04 00 00 02 	beq $2,$0,412b88 <strtoul+0x2a8>
  412b78:	43 00 00 00 d0 ff 07 07 	addiu $7,$7,-48
  412b80:	01 00 00 00 ec 4a 10 00 	j 412bb0 <strtoul+0x2d0>
  412b88:	4f 00 00 00 03 00 02 03 	andi $2,$3,3
  412b90:	05 00 00 00 28 00 00 02 	beq $2,$0,412c38 <strtoul+0x358>
  412b98:	42 00 00 00 00 02 0e 08 	addu $2,$8,$14
  412ba0:	22 00 00 00 00 00 02 02 	lbu $2,0($2)
  412ba8:	43 00 00 00 c9 ff 07 02 	addiu $7,$2,-55
  412bb0:	4f 00 00 00 ff 00 03 07 	andi $3,$7,255
  412bb8:	5b 00 00 00 00 02 06 03 	slt $2,$3,$6
  412bc0:	05 00 00 00 1c 00 00 02 	beq $2,$0,412c38 <strtoul+0x358>
  412bc8:	5d 00 00 00 00 02 0a 0b 	sltu $2,$11,$10
  412bd0:	06 00 00 00 06 00 00 02 	bne $2,$0,412bf0 <strtoul+0x310>
  412bd8:	06 00 00 00 08 00 0b 0a 	bne $10,$11,412c00 <strtoul+0x320>
  412be0:	5d 00 00 00 00 02 03 18 	sltu $2,$24,$3
  412be8:	05 00 00 00 04 00 00 02 	beq $2,$0,412c00 <strtoul+0x320>
  412bf0:	43 00 00 00 01 00 0c 00 	addiu $12,$0,1
  412bf8:	01 00 00 00 08 4b 10 00 	j 412c20 <strtoul+0x340>
  412c00:	46 00 00 00 00 00 06 0a 	mult $10,$6
  412c08:	4c 00 00 00 00 0a 00 00 	mflo $10
  412c10:	4f 00 00 00 ff 00 02 07 	andi $2,$7,255
  412c18:	42 00 00 00 00 0a 02 0a 	addu $10,$10,$2
  412c20:	43 00 00 00 01 00 09 09 	addiu $9,$9,1
  412c28:	22 00 00 00 00 00 07 09 	lbu $7,0($9)
  412c30:	06 00 00 00 c4 ff 00 07 	bne $7,$0,412b48 <strtoul+0x268>
  412c38:	05 00 00 00 16 00 19 09 	beq $9,$25,412c98 <strtoul+0x3b8>
  412c40:	05 00 00 00 02 00 00 05 	beq $5,$0,412c50 <strtoul+0x370>
  412c48:	34 00 00 00 00 00 09 05 	sw $9,0($5)
  412c50:	05 00 00 00 08 00 00 0c 	beq $12,$0,412c78 <strtoul+0x398>
  412c58:	43 00 00 00 22 00 02 00 	addiu $2,$0,34
  412c60:	34 00 00 00 60 84 02 1c 	sw $2,-31648($28)
  412c68:	43 00 00 00 ff ff 02 00 	addiu $2,$0,-1
  412c70:	01 00 00 00 2c 4b 10 00 	j 412cb0 <strtoul+0x3d0>
  412c78:	42 00 00 00 00 02 0a 00 	addu $2,$0,$10
  412c80:	05 00 00 00 0a 00 00 0d 	beq $13,$0,412cb0 <strtoul+0x3d0>
  412c88:	45 00 00 00 00 02 02 00 	subu $2,$0,$2
  412c90:	01 00 00 00 2c 4b 10 00 	j 412cb0 <strtoul+0x3d0>
  412c98:	05 00 00 00 02 00 00 05 	beq $5,$0,412ca8 <strtoul+0x3c8>
  412ca0:	34 00 00 00 00 00 04 05 	sw $4,0($5)
  412ca8:	42 00 00 00 00 02 00 00 	addu $2,$0,$0
  412cb0:	03 00 00 00 00 00 00 1f 	jr $31
	...

00412cc0 <strtod>:
  412cc0:	43 00 00 00 c0 ff 1d 1d 	addiu $29,$29,-64
  412cc8:	34 00 00 00 28 00 14 1d 	sw $20,40($29)
  412cd0:	42 00 00 00 00 14 04 00 	addu $20,$0,$4
  412cd8:	34 00 00 00 20 00 12 1d 	sw $18,32($29)
  412ce0:	42 00 00 00 00 12 05 00 	addu $18,$0,$5
  412ce8:	34 00 00 00 30 00 1f 1d 	sw $31,48($29)
  412cf0:	34 00 00 00 2c 00 15 1d 	sw $21,44($29)
  412cf8:	34 00 00 00 24 00 13 1d 	sw $19,36($29)
  412d00:	34 00 00 00 1c 00 11 1d 	sw $17,28($29)
  412d08:	34 00 00 00 18 00 10 1d 	sw $16,24($29)
  412d10:	36 00 00 00 38 00 14 1d 	s.s $f20,56($29)
  412d18:	36 00 00 00 3c 00 15 1d 	s.s $f21,60($29)
  412d20:	06 00 00 00 06 00 00 14 	bne $20,$0,412d40 <strtod+0x80>
  412d28:	43 00 00 00 16 00 02 00 	addiu $2,$0,22
  412d30:	34 00 00 00 60 84 02 1c 	sw $2,-31648($28)
  412d38:	01 00 00 00 8c 4c 10 00 	j 413230 <strtod+0x570>
  412d40:	28 00 00 00 68 81 02 1c 	lw $2,-32408($28)
  412d48:	28 00 00 00 00 00 05 02 	lw $5,0($2)
  412d50:	43 00 00 00 10 00 04 1d 	addiu $4,$29,16
  412d58:	43 00 00 00 01 00 06 00 	addiu $6,$0,1
  412d60:	02 00 00 00 5c 30 10 00 	jal 40c170 <mbtowc>
  412d68:	08 00 00 00 08 00 00 02 	bgtz $2,412d90 <strtod+0xd0>
  412d70:	28 00 00 00 68 81 02 1c 	lw $2,-32408($28)
  412d78:	28 00 00 00 00 00 02 02 	lw $2,0($2)
  412d80:	20 00 00 00 00 00 02 02 	lb $2,0($2)
  412d88:	34 00 00 00 10 00 02 1d 	sw $2,16($29)
  412d90:	20 00 00 00 00 00 02 14 	lb $2,0($20)
  412d98:	28 00 00 00 20 81 03 1c 	lw $3,-32480($28)
  412da0:	55 00 00 00 01 02 02 00 	sll $2,$2,0x1
  412da8:	42 00 00 00 00 02 03 02 	addu $2,$2,$3
  412db0:	26 00 00 00 00 00 02 02 	lhu $2,0($2)
  412db8:	42 00 00 00 00 10 14 00 	addu $16,$0,$20
  412dc0:	4f 00 00 00 10 00 02 02 	andi $2,$2,16
  412dc8:	05 00 00 00 0e 00 00 02 	beq $2,$0,412e08 <strtod+0x148>
  412dd0:	43 00 00 00 01 00 10 10 	addiu $16,$16,1
  412dd8:	20 00 00 00 00 00 02 10 	lb $2,0($16)
  412de0:	55 00 00 00 01 02 02 00 	sll $2,$2,0x1
  412de8:	42 00 00 00 00 02 03 02 	addu $2,$2,$3
  412df0:	26 00 00 00 00 00 02 02 	lhu $2,0($2)
  412df8:	4f 00 00 00 10 00 02 02 	andi $2,$2,16
  412e00:	06 00 00 00 f2 ff 00 02 	bne $2,$0,412dd0 <strtod+0x110>
  412e08:	20 00 00 00 00 00 03 10 	lb $3,0($16)
  412e10:	43 00 00 00 01 00 15 00 	addiu $21,$0,1
  412e18:	43 00 00 00 2d 00 02 00 	addiu $2,$0,45
  412e20:	06 00 00 00 04 00 02 03 	bne $3,$2,412e38 <strtod+0x178>
  412e28:	43 00 00 00 ff ff 15 00 	addiu $21,$0,-1
  412e30:	05 00 00 00 04 00 02 03 	beq $3,$2,412e48 <strtod+0x188>
  412e38:	43 00 00 00 2b 00 02 00 	addiu $2,$0,43
  412e40:	06 00 00 00 02 00 02 03 	bne $3,$2,412e50 <strtod+0x190>
  412e48:	43 00 00 00 01 00 10 10 	addiu $16,$16,1
  412e50:	a5 00 00 00 00 00 00 14 	mtc1 $0,$f20
  412e58:	a5 00 00 00 00 00 00 15 	mtc1 $0,$f21
  412e60:	42 00 00 00 00 04 00 00 	addu $4,$0,$0
  412e68:	42 00 00 00 00 05 00 00 	addu $5,$0,$0
  412e70:	42 00 00 00 00 11 00 00 	addu $17,$0,$0
  412e78:	28 00 00 00 20 81 07 1c 	lw $7,-32480($28)
  412e80:	2a 00 00 00 78 81 06 1c 	l.s $f6,-32392($28)
  412e88:	2a 00 00 00 7c 81 07 1c 	l.s $f7,-32388($28)
  412e90:	2a 00 00 00 80 81 04 1c 	l.s $f4,-32384($28)
  412e98:	2a 00 00 00 84 81 05 1c 	l.s $f5,-32380($28)
  412ea0:	28 00 00 00 10 00 06 1d 	lw $6,16($29)
  412ea8:	20 00 00 00 00 00 03 10 	lb $3,0($16)
  412eb0:	55 00 00 00 01 02 03 00 	sll $2,$3,0x1
  412eb8:	42 00 00 00 00 02 07 02 	addu $2,$2,$7
  412ec0:	26 00 00 00 00 00 02 02 	lhu $2,0($2)
  412ec8:	4f 00 00 00 08 00 02 02 	andi $2,$2,8
  412ed0:	05 00 00 00 1a 00 00 02 	beq $2,$0,412f40 <strtod+0x280>
  412ed8:	93 00 00 00 00 00 14 06 	c.lt.d $f6,$f20
  412ee0:	43 00 00 00 01 00 05 00 	addiu $5,$0,1
  412ee8:	0b 00 00 00 04 00 00 00 	bc1f 412f00 <strtod+0x240>
  412ef0:	43 00 00 00 01 00 11 11 	addiu $17,$17,1
  412ef8:	01 00 00 00 ca 4b 10 00 	j 412f28 <strtod+0x268>
  412f00:	75 00 00 00 00 02 04 14 	mul.d $f2,$f20,$f4
  412f08:	43 00 00 00 d0 ff 02 03 	addiu $2,$3,-48
  412f10:	a5 00 00 00 00 00 02 00 	mtc1 $2,$f0
  412f18:	83 00 00 00 00 00 00 00 	cvt.d.w $f0,$f0
  412f20:	71 00 00 00 00 14 00 02 	add.d $f20,$f2,$f0
  412f28:	05 00 00 00 0a 00 00 04 	beq $4,$0,412f58 <strtod+0x298>
  412f30:	43 00 00 00 ff ff 11 11 	addiu $17,$17,-1
  412f38:	01 00 00 00 d6 4b 10 00 	j 412f58 <strtod+0x298>
  412f40:	06 00 00 00 08 00 00 04 	bne $4,$0,412f68 <strtod+0x2a8>
  412f48:	06 00 00 00 06 00 06 03 	bne $3,$6,412f68 <strtod+0x2a8>
  412f50:	43 00 00 00 01 00 04 00 	addiu $4,$0,1
  412f58:	43 00 00 00 01 00 10 10 	addiu $16,$16,1
  412f60:	01 00 00 00 aa 4b 10 00 	j 412ea8 <strtod+0x1e8>
  412f68:	05 00 00 00 b0 00 00 05 	beq $5,$0,413230 <strtod+0x570>
  412f70:	20 00 00 00 00 00 02 10 	lb $2,0($16)
  412f78:	28 00 00 00 24 81 03 1c 	lw $3,-32476($28)
  412f80:	55 00 00 00 01 02 02 00 	sll $2,$2,0x1
  412f88:	42 00 00 00 00 02 03 02 	addu $2,$2,$3
  412f90:	24 00 00 00 00 00 03 02 	lh $3,0($2)
  412f98:	43 00 00 00 65 00 02 00 	addiu $2,$0,101
  412fa0:	06 00 00 00 2e 00 02 03 	bne $3,$2,413060 <strtod+0x3a0>
  412fa8:	43 00 00 00 01 00 10 10 	addiu $16,$16,1
  412fb0:	42 00 00 00 00 04 10 00 	addu $4,$0,$16
  412fb8:	28 00 00 00 60 84 13 1c 	lw $19,-31648($28)
  412fc0:	43 00 00 00 14 00 05 1d 	addiu $5,$29,20
  412fc8:	43 00 00 00 0a 00 06 00 	addiu $6,$0,10
  412fd0:	34 00 00 00 60 84 00 1c 	sw $0,-31648($28)
  412fd8:	02 00 00 00 2c 49 10 00 	jal 4124b0 <strtol>
  412fe0:	28 00 00 00 60 84 03 1c 	lw $3,-31648($28)
  412fe8:	42 00 00 00 00 04 02 00 	addu $4,$0,$2
  412ff0:	43 00 00 00 22 00 02 00 	addiu $2,$0,34
  412ff8:	06 00 00 00 0a 00 02 03 	bne $3,$2,413028 <strtod+0x368>
  413000:	05 00 00 00 04 00 00 12 	beq $18,$0,413018 <strtod+0x358>
  413008:	28 00 00 00 14 00 02 1d 	lw $2,20($29)
  413010:	34 00 00 00 00 00 02 12 	sw $2,0($18)
  413018:	09 00 00 00 76 00 00 04 	bltz $4,4131f8 <strtod+0x538>
  413020:	01 00 00 00 6e 4c 10 00 	j 4131b8 <strtod+0x4f8>
  413028:	28 00 00 00 14 00 02 1d 	lw $2,20($29)
  413030:	06 00 00 00 04 00 10 02 	bne $2,$16,413048 <strtod+0x388>
  413038:	43 00 00 00 ff ff 02 10 	addiu $2,$16,-1
  413040:	34 00 00 00 14 00 02 1d 	sw $2,20($29)
  413048:	28 00 00 00 14 00 10 1d 	lw $16,20($29)
  413050:	42 00 00 00 00 11 04 11 	addu $17,$17,$4
  413058:	34 00 00 00 60 84 13 1c 	sw $19,-31648($28)
  413060:	05 00 00 00 02 00 00 12 	beq $18,$0,413070 <strtod+0x3b0>
  413068:	34 00 00 00 00 00 10 12 	sw $16,0($18)
  413070:	a5 00 00 00 00 00 00 00 	mtc1 $0,$f0
  413078:	a5 00 00 00 00 00 00 01 	mtc1 $0,$f1
  413080:	91 00 00 00 00 00 00 14 	c.eq.d $f20,$f0
  413088:	0c 00 00 00 70 00 00 00 	bc1t 413250 <strtod+0x590>
  413090:	0a 00 00 00 18 00 00 11 	bgez $17,4130f8 <strtod+0x438>
  413098:	2a 00 00 00 80 81 0c 1c 	l.s $f12,-32384($28)
  4130a0:	2a 00 00 00 84 81 0d 1c 	l.s $f13,-32380($28)
  4130a8:	45 00 00 00 00 02 11 00 	subu $2,$0,$17
  4130b0:	a5 00 00 00 00 00 02 0e 	mtc1 $2,$f14
  4130b8:	83 00 00 00 00 0e 00 0e 	cvt.d.w $f14,$f14
  4130c0:	02 00 00 00 68 59 10 00 	jal 4165a0 <pow>
  4130c8:	2a 00 00 00 88 81 02 1c 	l.s $f2,-32376($28)
  4130d0:	2a 00 00 00 8c 81 03 1c 	l.s $f3,-32372($28)
  4130d8:	75 00 00 00 00 00 02 00 	mul.d $f0,$f0,$f2
  4130e0:	93 00 00 00 00 00 00 14 	c.lt.d $f20,$f0
  4130e8:	0c 00 00 00 42 00 00 00 	bc1t 4131f8 <strtod+0x538>
  4130f0:	01 00 00 00 56 4c 10 00 	j 413158 <strtod+0x498>
  4130f8:	07 00 00 00 16 00 00 11 	blez $17,413158 <strtod+0x498>
  413100:	2a 00 00 00 80 81 0c 1c 	l.s $f12,-32384($28)
  413108:	2a 00 00 00 84 81 0d 1c 	l.s $f13,-32380($28)
  413110:	45 00 00 00 00 02 11 00 	subu $2,$0,$17
  413118:	a5 00 00 00 00 00 02 0e 	mtc1 $2,$f14
  413120:	83 00 00 00 00 0e 00 0e 	cvt.d.w $f14,$f14
  413128:	02 00 00 00 68 59 10 00 	jal 4165a0 <pow>
  413130:	2a 00 00 00 90 81 02 1c 	l.s $f2,-32368($28)
  413138:	2a 00 00 00 94 81 03 1c 	l.s $f3,-32364($28)
  413140:	75 00 00 00 00 00 02 00 	mul.d $f0,$f0,$f2
  413148:	93 00 00 00 00 00 14 00 	c.lt.d $f0,$f20
  413150:	0c 00 00 00 18 00 00 00 	bc1t 4131b8 <strtod+0x4f8>
  413158:	2a 00 00 00 80 81 0c 1c 	l.s $f12,-32384($28)
  413160:	2a 00 00 00 84 81 0d 1c 	l.s $f13,-32380($28)
  413168:	a5 00 00 00 00 00 11 0e 	mtc1 $17,$f14
  413170:	83 00 00 00 00 0e 00 0e 	cvt.d.w $f14,$f14
  413178:	02 00 00 00 68 59 10 00 	jal 4165a0 <pow>
  413180:	75 00 00 00 00 14 00 14 	mul.d $f20,$f20,$f0
  413188:	55 00 00 00 10 02 15 00 	sll $2,$21,0x10
  413190:	59 00 00 00 10 02 02 00 	sra $2,$2,0x10
  413198:	a5 00 00 00 00 00 02 00 	mtc1 $2,$f0
  4131a0:	83 00 00 00 00 00 00 00 	cvt.d.w $f0,$f0
  4131a8:	75 00 00 00 00 00 00 14 	mul.d $f0,$f20,$f0
  4131b0:	01 00 00 00 94 4c 10 00 	j 413250 <strtod+0x590>
  4131b8:	55 00 00 00 10 02 15 00 	sll $2,$21,0x10
  4131c0:	2a 00 00 00 70 81 02 1c 	l.s $f2,-32400($28)
  4131c8:	2a 00 00 00 74 81 03 1c 	l.s $f3,-32396($28)
  4131d0:	59 00 00 00 10 02 02 00 	sra $2,$2,0x10
  4131d8:	a5 00 00 00 00 00 02 00 	mtc1 $2,$f0
  4131e0:	83 00 00 00 00 00 00 00 	cvt.d.w $f0,$f0
  4131e8:	75 00 00 00 00 00 02 00 	mul.d $f0,$f0,$f2
  4131f0:	01 00 00 00 86 4c 10 00 	j 413218 <strtod+0x558>
  4131f8:	05 00 00 00 02 00 00 12 	beq $18,$0,413208 <strtod+0x548>
  413200:	34 00 00 00 00 00 14 12 	sw $20,0($18)
  413208:	a5 00 00 00 00 00 00 00 	mtc1 $0,$f0
  413210:	a5 00 00 00 00 00 00 01 	mtc1 $0,$f1
  413218:	43 00 00 00 22 00 02 00 	addiu $2,$0,34
  413220:	34 00 00 00 60 84 02 1c 	sw $2,-31648($28)
  413228:	01 00 00 00 94 4c 10 00 	j 413250 <strtod+0x590>
  413230:	05 00 00 00 02 00 00 12 	beq $18,$0,413240 <strtod+0x580>
  413238:	34 00 00 00 00 00 14 12 	sw $20,0($18)
  413240:	a5 00 00 00 00 00 00 00 	mtc1 $0,$f0
  413248:	a5 00 00 00 00 00 00 01 	mtc1 $0,$f1
  413250:	28 00 00 00 30 00 1f 1d 	lw $31,48($29)
  413258:	28 00 00 00 2c 00 15 1d 	lw $21,44($29)
  413260:	28 00 00 00 28 00 14 1d 	lw $20,40($29)
  413268:	28 00 00 00 24 00 13 1d 	lw $19,36($29)
  413270:	28 00 00 00 20 00 12 1d 	lw $18,32($29)
  413278:	28 00 00 00 1c 00 11 1d 	lw $17,28($29)
  413280:	28 00 00 00 18 00 10 1d 	lw $16,24($29)
  413288:	2a 00 00 00 38 00 14 1d 	l.s $f20,56($29)
  413290:	2a 00 00 00 3c 00 15 1d 	l.s $f21,60($29)
  413298:	43 00 00 00 40 00 1d 1d 	addiu $29,$29,64
  4132a0:	03 00 00 00 00 00 00 1f 	jr $31
	...

004132b0 <ungetc>:
  4132b0:	43 00 00 00 e0 ff 1d 1d 	addiu $29,$29,-32
  4132b8:	34 00 00 00 14 00 11 1d 	sw $17,20($29)
  4132c0:	42 00 00 00 00 11 04 00 	addu $17,$0,$4
  4132c8:	34 00 00 00 10 00 10 1d 	sw $16,16($29)
  4132d0:	42 00 00 00 00 10 05 00 	addu $16,$0,$5
  4132d8:	34 00 00 00 1c 00 1f 1d 	sw $31,28($29)
  4132e0:	34 00 00 00 18 00 12 1d 	sw $18,24($29)
  4132e8:	05 00 00 00 1a 00 00 10 	beq $16,$0,413358 <ungetc+0xa8>
  4132f0:	28 00 00 00 00 00 03 10 	lw $3,0($16)
  4132f8:	a2 00 00 00 ed fe 02 00 	lui $2,65261
  413300:	51 00 00 00 be ba 02 02 	ori $2,$2,47806
  413308:	06 00 00 00 04 00 02 03 	bne $3,$2,413320 <ungetc+0x70>
  413310:	28 00 00 00 04 00 02 10 	lw $2,4($16)
  413318:	28 00 00 00 00 00 10 02 	lw $16,0($2)
  413320:	28 00 00 00 00 00 03 10 	lw $3,0($16)
  413328:	a2 00 00 00 da fe 02 00 	lui $2,65242
  413330:	51 00 00 00 eb be 02 02 	ori $2,$2,48875
  413338:	06 00 00 00 06 00 02 03 	bne $3,$2,413358 <ungetc+0xa8>
  413340:	28 00 00 00 1c 00 02 10 	lw $2,28($16)
  413348:	4f 00 00 00 01 00 02 02 	andi $2,$2,1
  413350:	06 00 00 00 08 00 00 02 	bne $2,$0,413378 <ungetc+0xc8>
  413358:	43 00 00 00 16 00 02 00 	addiu $2,$0,22
  413360:	34 00 00 00 60 84 02 1c 	sw $2,-31648($28)
  413368:	43 00 00 00 ff ff 02 00 	addiu $2,$0,-1
  413370:	01 00 00 00 16 4d 10 00 	j 413458 <ungetc+0x1a8>
  413378:	43 00 00 00 ff ff 12 00 	addiu $18,$0,-1
  413380:	05 00 00 00 f8 ff 12 11 	beq $17,$18,413368 <ungetc+0xb8>
  413388:	28 00 00 00 4c 00 03 10 	lw $3,76($16)
  413390:	4f 00 00 00 00 01 02 03 	andi $2,$3,256
  413398:	06 00 00 00 f2 ff 00 02 	bne $2,$0,413368 <ungetc+0xb8>
  4133a0:	4f 00 00 00 00 20 02 03 	andi $2,$3,8192
  4133a8:	06 00 00 00 08 00 00 02 	bne $2,$0,4133d0 <ungetc+0x120>
  4133b0:	28 00 00 00 0c 00 03 10 	lw $3,12($16)
  4133b8:	28 00 00 00 10 00 02 10 	lw $2,16($16)
  4133c0:	5d 00 00 00 00 02 03 02 	sltu $2,$2,$3
  4133c8:	05 00 00 00 08 00 00 02 	beq $2,$0,4133f0 <ungetc+0x140>
  4133d0:	42 00 00 00 00 04 10 00 	addu $4,$0,$16
  4133d8:	43 00 00 00 ff ff 05 00 	addiu $5,$0,-1
  4133e0:	02 00 00 00 84 0f 10 00 	jal 403e10 <__flshfp>
  4133e8:	05 00 00 00 de ff 12 02 	beq $2,$18,413368 <ungetc+0xb8>
  4133f0:	30 00 00 00 4c 00 11 10 	sb $17,76($16)
  4133f8:	28 00 00 00 4c 00 02 10 	lw $2,76($16)
  413400:	28 00 00 00 08 00 04 10 	lw $4,8($16)
  413408:	51 00 00 00 00 01 02 02 	ori $2,$2,256
  413410:	34 00 00 00 4c 00 02 10 	sw $2,76($16)
  413418:	28 00 00 00 04 00 02 10 	lw $2,4($16)
  413420:	28 00 00 00 4c 00 03 10 	lw $3,76($16)
  413428:	34 00 00 00 48 00 02 10 	sw $2,72($16)
  413430:	43 00 00 00 ff fd 02 00 	addiu $2,$0,-513
  413438:	4e 00 00 00 00 03 02 03 	and $3,$3,$2
  413440:	34 00 00 00 4c 00 03 10 	sw $3,76($16)
  413448:	22 00 00 00 4c 00 02 10 	lbu $2,76($16)
  413450:	34 00 00 00 04 00 04 10 	sw $4,4($16)
  413458:	28 00 00 00 1c 00 1f 1d 	lw $31,28($29)
  413460:	28 00 00 00 18 00 12 1d 	lw $18,24($29)
  413468:	28 00 00 00 14 00 11 1d 	lw $17,20($29)
  413470:	28 00 00 00 10 00 10 1d 	lw $16,16($29)
  413478:	43 00 00 00 20 00 1d 1d 	addiu $29,$29,32
  413480:	03 00 00 00 00 00 00 1f 	jr $31
	...

00413490 <strncmp>:
  413490:	42 00 00 00 00 07 00 00 	addu $7,$0,$0
  413498:	42 00 00 00 00 03 00 00 	addu $3,$0,$0
  4134a0:	5e 00 00 00 04 00 02 06 	sltiu $2,$6,4
  4134a8:	06 00 00 00 40 00 00 02 	bne $2,$0,4135b0 <strncmp+0x120>
  4134b0:	57 00 00 00 02 08 06 00 	srl $8,$6,0x2
  4134b8:	22 00 00 00 00 00 07 04 	lbu $7,0($4)
  4134c0:	22 00 00 00 00 00 03 05 	lbu $3,0($5)
  4134c8:	43 00 00 00 01 00 04 04 	addiu $4,$4,1
  4134d0:	43 00 00 00 01 00 05 05 	addiu $5,$5,1
  4134d8:	4f 00 00 00 ff 00 02 07 	andi $2,$7,255
  4134e0:	05 00 00 00 42 00 00 02 	beq $2,$0,4135f0 <strncmp+0x160>
  4134e8:	06 00 00 00 40 00 03 02 	bne $2,$3,4135f0 <strncmp+0x160>
  4134f0:	22 00 00 00 00 00 07 04 	lbu $7,0($4)
  4134f8:	22 00 00 00 00 00 03 05 	lbu $3,0($5)
  413500:	43 00 00 00 01 00 04 04 	addiu $4,$4,1
  413508:	43 00 00 00 01 00 05 05 	addiu $5,$5,1
  413510:	4f 00 00 00 ff 00 02 07 	andi $2,$7,255
  413518:	05 00 00 00 34 00 00 02 	beq $2,$0,4135f0 <strncmp+0x160>
  413520:	06 00 00 00 32 00 03 02 	bne $2,$3,4135f0 <strncmp+0x160>
  413528:	22 00 00 00 00 00 07 04 	lbu $7,0($4)
  413530:	22 00 00 00 00 00 03 05 	lbu $3,0($5)
  413538:	43 00 00 00 01 00 04 04 	addiu $4,$4,1
  413540:	43 00 00 00 01 00 05 05 	addiu $5,$5,1
  413548:	4f 00 00 00 ff 00 02 07 	andi $2,$7,255
  413550:	05 00 00 00 26 00 00 02 	beq $2,$0,4135f0 <strncmp+0x160>
  413558:	06 00 00 00 24 00 03 02 	bne $2,$3,4135f0 <strncmp+0x160>
  413560:	22 00 00 00 00 00 07 04 	lbu $7,0($4)
  413568:	22 00 00 00 00 00 03 05 	lbu $3,0($5)
  413570:	43 00 00 00 01 00 04 04 	addiu $4,$4,1
  413578:	43 00 00 00 01 00 05 05 	addiu $5,$5,1
  413580:	4f 00 00 00 ff 00 02 07 	andi $2,$7,255
  413588:	05 00 00 00 18 00 00 02 	beq $2,$0,4135f0 <strncmp+0x160>
  413590:	06 00 00 00 16 00 03 02 	bne $2,$3,4135f0 <strncmp+0x160>
  413598:	43 00 00 00 ff ff 08 08 	addiu $8,$8,-1
  4135a0:	06 00 00 00 c4 ff 00 08 	bne $8,$0,4134b8 <strncmp+0x28>
  4135a8:	4f 00 00 00 03 00 06 06 	andi $6,$6,3
  4135b0:	05 00 00 00 16 00 00 06 	beq $6,$0,413610 <strncmp+0x180>
  4135b8:	22 00 00 00 00 00 07 04 	lbu $7,0($4)
  4135c0:	22 00 00 00 00 00 03 05 	lbu $3,0($5)
  4135c8:	43 00 00 00 01 00 04 04 	addiu $4,$4,1
  4135d0:	43 00 00 00 01 00 05 05 	addiu $5,$5,1
  4135d8:	4f 00 00 00 ff 00 02 07 	andi $2,$7,255
  4135e0:	05 00 00 00 02 00 00 02 	beq $2,$0,4135f0 <strncmp+0x160>
  4135e8:	05 00 00 00 04 00 03 02 	beq $2,$3,413600 <strncmp+0x170>
  4135f0:	45 00 00 00 00 02 03 02 	subu $2,$2,$3
  4135f8:	01 00 00 00 88 4d 10 00 	j 413620 <strncmp+0x190>
  413600:	43 00 00 00 ff ff 06 06 	addiu $6,$6,-1
  413608:	06 00 00 00 ea ff 00 06 	bne $6,$0,4135b8 <strncmp+0x128>
  413610:	4f 00 00 00 ff 00 02 03 	andi $2,$3,255
  413618:	45 00 00 00 00 02 02 07 	subu $2,$7,$2
  413620:	03 00 00 00 00 00 00 1f 	jr $31
	...

00413630 <memchr>:
  413630:	43 00 00 00 f0 ff 1d 1d 	addiu $29,$29,-16
  413638:	4f 00 00 00 ff 00 05 05 	andi $5,$5,255
  413640:	05 00 00 00 0e 00 00 06 	beq $6,$0,413680 <memchr+0x50>
  413648:	4f 00 00 00 03 00 02 04 	andi $2,$4,3
  413650:	05 00 00 00 0a 00 00 02 	beq $2,$0,413680 <memchr+0x50>
  413658:	22 00 00 00 00 00 02 04 	lbu $2,0($4)
  413660:	05 00 00 00 5c 00 05 02 	beq $2,$5,4137d8 <memchr+0x1a8>
  413668:	43 00 00 00 ff ff 06 06 	addiu $6,$6,-1
  413670:	43 00 00 00 01 00 04 04 	addiu $4,$4,1
  413678:	06 00 00 00 f2 ff 00 06 	bne $6,$0,413648 <memchr+0x18>
  413680:	42 00 00 00 00 07 04 00 	addu $7,$0,$4
  413688:	a2 00 00 00 fe 7e 0a 00 	lui $10,32510
  413690:	51 00 00 00 ff fe 0a 0a 	ori $10,$10,65279
  413698:	55 00 00 00 08 02 05 00 	sll $2,$5,0x8
  4136a0:	50 00 00 00 00 08 02 05 	or $8,$5,$2
  4136a8:	55 00 00 00 10 02 08 00 	sll $2,$8,0x10
  4136b0:	50 00 00 00 00 08 02 08 	or $8,$8,$2
  4136b8:	5e 00 00 00 04 00 02 06 	sltiu $2,$6,4
  4136c0:	06 00 00 00 3c 00 00 02 	bne $2,$0,4137b8 <memchr+0x188>
  4136c8:	a2 00 00 00 01 81 09 00 	lui $9,33025
  4136d0:	51 00 00 00 00 01 09 09 	ori $9,$9,256
  4136d8:	43 00 00 00 ff ff 04 04 	addiu $4,$4,-1
  4136e0:	28 00 00 00 00 00 03 07 	lw $3,0($7)
  4136e8:	43 00 00 00 04 00 04 04 	addiu $4,$4,4
  4136f0:	43 00 00 00 04 00 07 07 	addiu $7,$7,4
  4136f8:	52 00 00 00 00 03 03 08 	xor $3,$8,$3
  413700:	42 00 00 00 00 02 0a 03 	addu $2,$3,$10
  413708:	54 00 00 00 00 03 03 00 	nor $3,$0,$3
  413710:	52 00 00 00 00 02 03 02 	xor $2,$2,$3
  413718:	4e 00 00 00 00 02 09 02 	and $2,$2,$9
  413720:	05 00 00 00 1e 00 00 02 	beq $2,$0,4137a0 <memchr+0x170>
  413728:	22 00 00 00 fd ff 02 04 	lbu $2,-3($4)
  413730:	43 00 00 00 fc ff 03 07 	addiu $3,$7,-4
  413738:	06 00 00 00 04 00 05 02 	bne $2,$5,413750 <memchr+0x120>
  413740:	42 00 00 00 00 02 03 00 	addu $2,$0,$3
  413748:	01 00 00 00 04 4e 10 00 	j 413810 <memchr+0x1e0>
  413750:	22 00 00 00 fe ff 02 04 	lbu $2,-2($4)
  413758:	06 00 00 00 04 00 05 02 	bne $2,$5,413770 <memchr+0x140>
  413760:	43 00 00 00 fd ff 02 07 	addiu $2,$7,-3
  413768:	01 00 00 00 04 4e 10 00 	j 413810 <memchr+0x1e0>
  413770:	22 00 00 00 ff ff 02 04 	lbu $2,-1($4)
  413778:	06 00 00 00 04 00 05 02 	bne $2,$5,413790 <memchr+0x160>
  413780:	43 00 00 00 fe ff 02 07 	addiu $2,$7,-2
  413788:	01 00 00 00 04 4e 10 00 	j 413810 <memchr+0x1e0>
  413790:	22 00 00 00 00 00 02 04 	lbu $2,0($4)
  413798:	05 00 00 00 0e 00 05 02 	beq $2,$5,4137d8 <memchr+0x1a8>
  4137a0:	43 00 00 00 fc ff 06 06 	addiu $6,$6,-4
  4137a8:	5e 00 00 00 04 00 02 06 	sltiu $2,$6,4
  4137b0:	05 00 00 00 ca ff 00 02 	beq $2,$0,4136e0 <memchr+0xb0>
  4137b8:	42 00 00 00 00 04 07 00 	addu $4,$0,$7
  4137c0:	01 00 00 00 fc 4d 10 00 	j 4137f0 <memchr+0x1c0>
  4137c8:	22 00 00 00 00 00 02 04 	lbu $2,0($4)
  4137d0:	06 00 00 00 04 00 05 02 	bne $2,$5,4137e8 <memchr+0x1b8>
  4137d8:	42 00 00 00 00 02 04 00 	addu $2,$0,$4
  4137e0:	01 00 00 00 04 4e 10 00 	j 413810 <memchr+0x1e0>
  4137e8:	43 00 00 00 01 00 04 04 	addiu $4,$4,1
  4137f0:	42 00 00 00 00 02 06 00 	addu $2,$0,$6
  4137f8:	43 00 00 00 ff ff 06 06 	addiu $6,$6,-1
  413800:	06 00 00 00 f0 ff 00 02 	bne $2,$0,4137c8 <memchr+0x198>
  413808:	42 00 00 00 00 02 00 00 	addu $2,$0,$0
  413810:	43 00 00 00 10 00 1d 1d 	addiu $29,$29,16
  413818:	03 00 00 00 00 00 00 1f 	jr $31

00413820 <__isnan>:
  413820:	a3 00 00 00 00 00 04 0c 	mfc1 $4,$f12
  413828:	a3 00 00 00 00 00 05 0d 	mfc1 $5,$f13
  413830:	42 00 00 00 00 06 00 00 	addu $6,$0,$0
  413838:	43 00 00 00 ff 07 03 00 	addiu $3,$0,2047
  413840:	57 00 00 00 14 02 05 00 	srl $2,$5,0x14
  413848:	4f 00 00 00 ff 07 02 02 	andi $2,$2,2047
  413850:	06 00 00 00 0c 00 03 02 	bne $2,$3,413888 <__isnan+0x68>
  413858:	a2 00 00 00 0f 00 02 00 	lui $2,15
  413860:	51 00 00 00 ff ff 02 02 	ori $2,$2,65535
  413868:	4e 00 00 00 00 02 02 05 	and $2,$5,$2
  413870:	06 00 00 00 02 00 00 02 	bne $2,$0,413880 <__isnan+0x60>
  413878:	05 00 00 00 02 00 00 04 	beq $4,$0,413888 <__isnan+0x68>
  413880:	43 00 00 00 01 00 06 00 	addiu $6,$0,1
  413888:	42 00 00 00 00 02 06 00 	addu $2,$0,$6
  413890:	03 00 00 00 00 00 00 1f 	jr $31
	...

004138a0 <__isinf>:
  4138a0:	a3 00 00 00 00 00 04 0c 	mfc1 $4,$f12
  4138a8:	a3 00 00 00 00 00 05 0d 	mfc1 $5,$f13
  4138b0:	a2 00 00 00 ff 7f 02 00 	lui $2,32767
  4138b8:	51 00 00 00 ff ff 02 02 	ori $2,$2,65535
  4138c0:	a2 00 00 00 f0 7f 03 00 	lui $3,32752
  4138c8:	4e 00 00 00 00 02 02 05 	and $2,$5,$2
  4138d0:	06 00 00 00 0a 00 03 02 	bne $2,$3,413900 <__isinf+0x60>
  4138d8:	06 00 00 00 08 00 00 04 	bne $4,$0,413900 <__isinf+0x60>
  4138e0:	43 00 00 00 01 00 02 00 	addiu $2,$0,1
  4138e8:	0a 00 00 00 06 00 00 05 	bgez $5,413908 <__isinf+0x68>
  4138f0:	43 00 00 00 ff ff 02 00 	addiu $2,$0,-1
  4138f8:	01 00 00 00 42 4e 10 00 	j 413908 <__isinf+0x68>
  413900:	42 00 00 00 00 02 00 00 	addu $2,$0,$0
  413908:	03 00 00 00 00 00 00 1f 	jr $31

00413910 <__mpn_extract_double>:
  413910:	42 00 00 00 00 08 04 00 	addu $8,$0,$4
  413918:	28 00 00 00 10 00 04 1d 	lw $4,16($29)
  413920:	28 00 00 00 14 00 05 1d 	lw $5,20($29)
  413928:	a2 00 00 00 0f 00 03 00 	lui $3,15
  413930:	51 00 00 00 ff ff 03 03 	ori $3,$3,65535
  413938:	57 00 00 00 1f 02 05 00 	srl $2,$5,0x1f
  413940:	34 00 00 00 00 00 02 07 	sw $2,0($7)
  413948:	57 00 00 00 14 02 05 00 	srl $2,$5,0x14
  413950:	4f 00 00 00 ff 07 02 02 	andi $2,$2,2047
  413958:	43 00 00 00 02 fc 02 02 	addiu $2,$2,-1022
  413960:	4e 00 00 00 00 03 03 05 	and $3,$5,$3
  413968:	34 00 00 00 00 00 02 06 	sw $2,0($6)
  413970:	a2 00 00 00 f0 7f 02 00 	lui $2,32752
  413978:	4e 00 00 00 00 02 02 05 	and $2,$5,$2
  413980:	34 00 00 00 00 00 04 08 	sw $4,0($8)
  413988:	34 00 00 00 04 00 03 08 	sw $3,4($8)
  413990:	06 00 00 00 12 00 00 02 	bne $2,$0,4139e0 <__mpn_extract_double+0xd0>
  413998:	28 00 00 00 00 00 02 08 	lw $2,0($8)
  4139a0:	06 00 00 00 02 00 00 02 	bne $2,$0,4139b0 <__mpn_extract_double+0xa0>
  4139a8:	05 00 00 00 08 00 00 03 	beq $3,$0,4139d0 <__mpn_extract_double+0xc0>
  4139b0:	43 00 00 00 03 fc 02 00 	addiu $2,$0,-1021
  4139b8:	34 00 00 00 00 00 02 06 	sw $2,0($6)
  4139c0:	28 00 00 00 04 00 02 08 	lw $2,4($8)
  4139c8:	06 00 00 00 0a 00 00 02 	bne $2,$0,4139f8 <__mpn_extract_double+0xe8>
  4139d0:	43 00 00 00 01 00 02 00 	addiu $2,$0,1
  4139d8:	01 00 00 00 80 4e 10 00 	j 413a00 <__mpn_extract_double+0xf0>
  4139e0:	a2 00 00 00 10 00 02 00 	lui $2,16
  4139e8:	50 00 00 00 00 02 02 03 	or $2,$3,$2
  4139f0:	34 00 00 00 04 00 02 08 	sw $2,4($8)
  4139f8:	43 00 00 00 02 00 02 00 	addiu $2,$0,2
  413a00:	03 00 00 00 00 00 00 1f 	jr $31
	...

00413a10 <__mpn_lshift>:
  413a10:	43 00 00 00 ff ff 06 06 	addiu $6,$6,-1
  413a18:	55 00 00 00 02 02 06 00 	sll $2,$6,0x2
  413a20:	42 00 00 00 00 02 05 02 	addu $2,$2,$5
  413a28:	28 00 00 00 00 00 02 02 	lw $2,0($2)
  413a30:	43 00 00 00 ff ff 06 06 	addiu $6,$6,-1
  413a38:	43 00 00 00 04 00 04 04 	addiu $4,$4,4
  413a40:	42 00 00 00 00 08 02 00 	addu $8,$0,$2
  413a48:	43 00 00 00 20 00 02 00 	addiu $2,$0,32
  413a50:	45 00 00 00 00 0a 07 02 	subu $10,$2,$7
  413a58:	58 00 00 00 00 0b 08 0a 	srlv $11,$8,$10
  413a60:	09 00 00 00 1a 00 00 06 	bltz $6,413ad0 <__mpn_lshift+0xc0>
  413a68:	55 00 00 00 02 02 06 00 	sll $2,$6,0x2
  413a70:	42 00 00 00 00 09 04 02 	addu $9,$2,$4
  413a78:	42 00 00 00 00 05 05 02 	addu $5,$2,$5
  413a80:	28 00 00 00 00 00 02 05 	lw $2,0($5)
  413a88:	43 00 00 00 ff ff 06 06 	addiu $6,$6,-1
  413a90:	56 00 00 00 00 03 08 07 	sllv $3,$8,$7
  413a98:	42 00 00 00 00 08 02 00 	addu $8,$0,$2
  413aa0:	58 00 00 00 00 02 08 0a 	srlv $2,$8,$10
  413aa8:	50 00 00 00 00 03 02 03 	or $3,$3,$2
  413ab0:	34 00 00 00 00 00 03 09 	sw $3,0($9)
  413ab8:	43 00 00 00 fc ff 09 09 	addiu $9,$9,-4
  413ac0:	43 00 00 00 fc ff 05 05 	addiu $5,$5,-4
  413ac8:	0a 00 00 00 ec ff 00 06 	bgez $6,413a80 <__mpn_lshift+0x70>
  413ad0:	55 00 00 00 02 02 06 00 	sll $2,$6,0x2
  413ad8:	42 00 00 00 00 02 04 02 	addu $2,$2,$4
  413ae0:	56 00 00 00 00 03 08 07 	sllv $3,$8,$7
  413ae8:	34 00 00 00 00 00 03 02 	sw $3,0($2)
  413af0:	42 00 00 00 00 02 0b 00 	addu $2,$0,$11
  413af8:	03 00 00 00 00 00 00 1f 	jr $31

00413b00 <__mpn_cmp>:
  413b00:	43 00 00 00 ff ff 06 06 	addiu $6,$6,-1
  413b08:	09 00 00 00 14 00 00 06 	bltz $6,413b60 <__mpn_cmp+0x60>
  413b10:	55 00 00 00 02 02 06 00 	sll $2,$6,0x2
  413b18:	42 00 00 00 00 05 05 02 	addu $5,$2,$5
  413b20:	42 00 00 00 00 04 04 02 	addu $4,$2,$4
  413b28:	28 00 00 00 00 00 03 04 	lw $3,0($4)
  413b30:	28 00 00 00 00 00 02 05 	lw $2,0($5)
  413b38:	06 00 00 00 0c 00 02 03 	bne $3,$2,413b70 <__mpn_cmp+0x70>
  413b40:	43 00 00 00 fc ff 05 05 	addiu $5,$5,-4
  413b48:	43 00 00 00 fc ff 04 04 	addiu $4,$4,-4
  413b50:	43 00 00 00 ff ff 06 06 	addiu $6,$6,-1
  413b58:	0a 00 00 00 f2 ff 00 06 	bgez $6,413b28 <__mpn_cmp+0x28>
  413b60:	42 00 00 00 00 02 00 00 	addu $2,$0,$0
  413b68:	01 00 00 00 e6 4e 10 00 	j 413b98 <__mpn_cmp+0x98>
  413b70:	43 00 00 00 ff ff 04 00 	addiu $4,$0,-1
  413b78:	5d 00 00 00 00 02 03 02 	sltu $2,$2,$3
  413b80:	05 00 00 00 02 00 00 02 	beq $2,$0,413b90 <__mpn_cmp+0x90>
  413b88:	43 00 00 00 01 00 04 00 	addiu $4,$0,1
  413b90:	42 00 00 00 00 02 04 00 	addu $2,$0,$4
  413b98:	03 00 00 00 00 00 00 1f 	jr $31

00413ba0 <__mpn_divmod_1>:
  413ba0:	43 00 00 00 f8 ff 1d 1d 	addiu $29,$29,-8
  413ba8:	34 00 00 00 04 00 11 1d 	sw $17,4($29)
  413bb0:	42 00 00 00 00 11 04 00 	addu $17,$0,$4
  413bb8:	34 00 00 00 00 00 10 1d 	sw $16,0($29)
  413bc0:	06 00 00 00 04 00 00 06 	bne $6,$0,413bd8 <__mpn_divmod_1+0x38>
  413bc8:	42 00 00 00 00 02 00 00 	addu $2,$0,$0
  413bd0:	01 00 00 00 7e 52 10 00 	j 4149f8 <__mpn_divmod_1+0xe58>
  413bd8:	55 00 00 00 03 02 06 00 	sll $2,$6,0x3
  413be0:	42 00 00 00 00 02 06 02 	addu $2,$2,$6
  413be8:	55 00 00 00 02 02 02 00 	sll $2,$2,0x2
  413bf0:	42 00 00 00 00 02 06 02 	addu $2,$2,$6
  413bf8:	55 00 00 00 01 02 02 00 	sll $2,$2,0x1
  413c00:	5c 00 00 00 65 00 02 02 	slti $2,$2,101
  413c08:	06 00 00 00 d2 01 00 02 	bne $2,$0,414358 <__mpn_divmod_1+0x7b8>
  413c10:	42 00 00 00 00 04 07 00 	addu $4,$0,$7
  413c18:	51 00 00 00 ff ff 02 00 	ori $2,$0,65535
  413c20:	5d 00 00 00 00 02 07 02 	sltu $2,$2,$7
  413c28:	06 00 00 00 08 00 00 02 	bne $2,$0,413c50 <__mpn_divmod_1+0xb0>
  413c30:	5e 00 00 00 00 01 02 07 	sltiu $2,$7,256
  413c38:	53 00 00 00 01 00 02 02 	xori $2,$2,1
  413c40:	55 00 00 00 03 03 02 00 	sll $3,$2,0x3
  413c48:	01 00 00 00 20 4f 10 00 	j 413c80 <__mpn_divmod_1+0xe0>
  413c50:	a2 00 00 00 ff 00 02 00 	lui $2,255
  413c58:	51 00 00 00 ff ff 02 02 	ori $2,$2,65535
  413c60:	43 00 00 00 18 00 03 00 	addiu $3,$0,24
  413c68:	5d 00 00 00 00 02 07 02 	sltu $2,$2,$7
  413c70:	06 00 00 00 02 00 00 02 	bne $2,$0,413c80 <__mpn_divmod_1+0xe0>
  413c78:	43 00 00 00 10 00 03 00 	addiu $3,$0,16
  413c80:	58 00 00 00 00 02 04 03 	srlv $2,$4,$3
  413c88:	a2 00 00 00 01 10 01 00 	lui $1,4097
  413c90:	42 00 00 00 00 01 02 01 	addu $1,$1,$2
  413c98:	22 00 00 00 e0 18 02 01 	lbu $2,6368($1)
  413ca0:	42 00 00 00 00 02 03 02 	addu $2,$2,$3
  413ca8:	43 00 00 00 20 00 03 00 	addiu $3,$0,32
  413cb0:	45 00 00 00 00 0f 02 03 	subu $15,$3,$2
  413cb8:	05 00 00 00 ec 00 00 0f 	beq $15,$0,414070 <__mpn_divmod_1+0x4d0>
  413cc0:	56 00 00 00 00 07 07 0f 	sllv $7,$7,$15
  413cc8:	57 00 00 00 10 04 07 00 	srl $4,$7,0x10
  413cd0:	45 00 00 00 00 02 07 00 	subu $2,$0,$7
  413cd8:	49 00 00 00 00 00 04 02 	divu $0,$2,$4
  413ce0:	06 00 00 00 02 00 00 04 	bne $4,$0,413cf0 <__mpn_divmod_1+0x150>
  413ce8:	a1 00 00 00 07 00 00 00 	break 
  413cf0:	4c 00 00 00 00 09 00 00 	mflo $9
  413cf8:	4a 00 00 00 00 03 00 00 	mfhi $3
  413d00:	4f 00 00 00 ff ff 0a 07 	andi $10,$7,65535
  413d08:	46 00 00 00 00 00 0a 09 	mult $9,$10
  413d10:	4c 00 00 00 00 08 00 00 	mflo $8
  413d18:	55 00 00 00 10 03 03 00 	sll $3,$3,0x10
  413d20:	5d 00 00 00 00 02 08 03 	sltu $2,$3,$8
  413d28:	05 00 00 00 10 00 00 02 	beq $2,$0,413d70 <__mpn_divmod_1+0x1d0>
  413d30:	43 00 00 00 ff ff 09 09 	addiu $9,$9,-1
  413d38:	42 00 00 00 00 03 07 03 	addu $3,$3,$7
  413d40:	5d 00 00 00 00 02 07 03 	sltu $2,$3,$7
  413d48:	06 00 00 00 08 00 00 02 	bne $2,$0,413d70 <__mpn_divmod_1+0x1d0>
  413d50:	5d 00 00 00 00 02 08 03 	sltu $2,$3,$8
  413d58:	05 00 00 00 04 00 00 02 	beq $2,$0,413d70 <__mpn_divmod_1+0x1d0>
  413d60:	43 00 00 00 ff ff 09 09 	addiu $9,$9,-1
  413d68:	42 00 00 00 00 03 07 03 	addu $3,$3,$7
  413d70:	45 00 00 00 00 03 08 03 	subu $3,$3,$8
  413d78:	49 00 00 00 00 00 04 03 	divu $0,$3,$4
  413d80:	06 00 00 00 02 00 00 04 	bne $4,$0,413d90 <__mpn_divmod_1+0x1f0>
  413d88:	a1 00 00 00 07 00 00 00 	break 
  413d90:	4c 00 00 00 00 04 00 00 	mflo $4
  413d98:	4a 00 00 00 00 03 00 00 	mfhi $3
  413da0:	46 00 00 00 00 00 0a 04 	mult $4,$10
  413da8:	4c 00 00 00 00 08 00 00 	mflo $8
  413db0:	55 00 00 00 10 03 03 00 	sll $3,$3,0x10
  413db8:	5d 00 00 00 00 02 08 03 	sltu $2,$3,$8
  413dc0:	05 00 00 00 0e 00 00 02 	beq $2,$0,413e00 <__mpn_divmod_1+0x260>
  413dc8:	43 00 00 00 ff ff 04 04 	addiu $4,$4,-1
  413dd0:	42 00 00 00 00 03 07 03 	addu $3,$3,$7
  413dd8:	5d 00 00 00 00 02 07 03 	sltu $2,$3,$7
  413de0:	06 00 00 00 06 00 00 02 	bne $2,$0,413e00 <__mpn_divmod_1+0x260>
  413de8:	5d 00 00 00 00 02 08 03 	sltu $2,$3,$8
  413df0:	05 00 00 00 02 00 00 02 	beq $2,$0,413e00 <__mpn_divmod_1+0x260>
  413df8:	43 00 00 00 ff ff 04 04 	addiu $4,$4,-1
  413e00:	55 00 00 00 10 02 09 00 	sll $2,$9,0x10
  413e08:	50 00 00 00 00 09 04 02 	or $9,$2,$4
  413e10:	55 00 00 00 02 02 06 00 	sll $2,$6,0x2
  413e18:	42 00 00 00 00 02 05 02 	addu $2,$2,$5
  413e20:	28 00 00 00 fc ff 0c 02 	lw $12,-4($2)
  413e28:	43 00 00 00 fe ff 06 06 	addiu $6,$6,-2
  413e30:	43 00 00 00 20 00 02 00 	addiu $2,$0,32
  413e38:	45 00 00 00 00 02 0f 02 	subu $2,$2,$15
  413e40:	58 00 00 00 00 0a 0c 02 	srlv $10,$12,$2
  413e48:	09 00 00 00 4e 00 00 06 	bltz $6,413f88 <__mpn_divmod_1+0x3e8>
  413e50:	42 00 00 00 00 18 02 00 	addu $24,$0,$2
  413e58:	55 00 00 00 02 02 06 00 	sll $2,$6,0x2
  413e60:	42 00 00 00 00 0d 11 02 	addu $13,$2,$17
  413e68:	42 00 00 00 00 0e 05 02 	addu $14,$2,$5
  413e70:	28 00 00 00 00 00 0b 0e 	lw $11,0($14)
  413e78:	47 00 00 00 00 00 09 0a 	multu $10,$9
  413e80:	4c 00 00 00 00 02 00 00 	mflo $2
  413e88:	4a 00 00 00 00 08 00 00 	mfhi $8
  413e90:	42 00 00 00 00 08 0a 08 	addu $8,$8,$10
  413e98:	47 00 00 00 00 00 07 08 	multu $8,$7
  413ea0:	4c 00 00 00 00 04 00 00 	mflo $4
  413ea8:	4a 00 00 00 00 05 00 00 	mfhi $5
  413eb0:	56 00 00 00 00 03 0c 0f 	sllv $3,$12,$15
  413eb8:	45 00 00 00 00 05 05 0a 	subu $5,$10,$5
  413ec0:	58 00 00 00 00 02 0b 18 	srlv $2,$11,$24
  413ec8:	50 00 00 00 00 03 02 03 	or $3,$3,$2
  413ed0:	45 00 00 00 00 04 04 03 	subu $4,$3,$4
  413ed8:	5d 00 00 00 00 03 04 03 	sltu $3,$3,$4
  413ee0:	45 00 00 00 00 05 03 05 	subu $5,$5,$3
  413ee8:	05 00 00 00 10 00 00 05 	beq $5,$0,413f30 <__mpn_divmod_1+0x390>
  413ef0:	45 00 00 00 00 03 07 04 	subu $3,$4,$7
  413ef8:	5d 00 00 00 00 02 03 04 	sltu $2,$4,$3
  413f00:	45 00 00 00 00 05 02 05 	subu $5,$5,$2
  413f08:	42 00 00 00 00 04 03 00 	addu $4,$0,$3
  413f10:	43 00 00 00 01 00 08 08 	addiu $8,$8,1
  413f18:	05 00 00 00 04 00 00 05 	beq $5,$0,413f30 <__mpn_divmod_1+0x390>
  413f20:	45 00 00 00 00 04 07 04 	subu $4,$4,$7
  413f28:	43 00 00 00 01 00 08 08 	addiu $8,$8,1
  413f30:	5d 00 00 00 00 02 07 04 	sltu $2,$4,$7
  413f38:	06 00 00 00 04 00 00 02 	bne $2,$0,413f50 <__mpn_divmod_1+0x3b0>
  413f40:	45 00 00 00 00 04 07 04 	subu $4,$4,$7
  413f48:	43 00 00 00 01 00 08 08 	addiu $8,$8,1
  413f50:	42 00 00 00 00 0a 04 00 	addu $10,$0,$4
  413f58:	34 00 00 00 04 00 08 0d 	sw $8,4($13)
  413f60:	42 00 00 00 00 0c 0b 00 	addu $12,$0,$11
  413f68:	43 00 00 00 fc ff 0d 0d 	addiu $13,$13,-4
  413f70:	43 00 00 00 fc ff 0e 0e 	addiu $14,$14,-4
  413f78:	43 00 00 00 ff ff 06 06 	addiu $6,$6,-1
  413f80:	0a 00 00 00 ba ff 00 06 	bgez $6,413e70 <__mpn_divmod_1+0x2d0>
  413f88:	47 00 00 00 00 00 09 0a 	multu $10,$9
  413f90:	4c 00 00 00 00 02 00 00 	mflo $2
  413f98:	4a 00 00 00 00 06 00 00 	mfhi $6
  413fa0:	42 00 00 00 00 06 0a 06 	addu $6,$6,$10
  413fa8:	47 00 00 00 00 00 07 06 	multu $6,$7
  413fb0:	4c 00 00 00 00 03 00 00 	mflo $3
  413fb8:	4a 00 00 00 00 04 00 00 	mfhi $4
  413fc0:	56 00 00 00 00 02 0c 0f 	sllv $2,$12,$15
  413fc8:	45 00 00 00 00 03 03 02 	subu $3,$2,$3
  413fd0:	45 00 00 00 00 04 04 0a 	subu $4,$10,$4
  413fd8:	5d 00 00 00 00 02 03 02 	sltu $2,$2,$3
  413fe0:	45 00 00 00 00 04 02 04 	subu $4,$4,$2
  413fe8:	42 00 00 00 00 05 03 00 	addu $5,$0,$3
  413ff0:	05 00 00 00 10 00 00 04 	beq $4,$0,414038 <__mpn_divmod_1+0x498>
  413ff8:	45 00 00 00 00 03 07 05 	subu $3,$5,$7
  414000:	5d 00 00 00 00 02 03 05 	sltu $2,$5,$3
  414008:	45 00 00 00 00 04 02 04 	subu $4,$4,$2
  414010:	42 00 00 00 00 05 03 00 	addu $5,$0,$3
  414018:	43 00 00 00 01 00 06 06 	addiu $6,$6,1
  414020:	05 00 00 00 04 00 00 04 	beq $4,$0,414038 <__mpn_divmod_1+0x498>
  414028:	45 00 00 00 00 05 07 05 	subu $5,$5,$7
  414030:	43 00 00 00 01 00 06 06 	addiu $6,$6,1
  414038:	5d 00 00 00 00 02 07 05 	sltu $2,$5,$7
  414040:	06 00 00 00 04 00 00 02 	bne $2,$0,414058 <__mpn_divmod_1+0x4b8>
  414048:	45 00 00 00 00 05 07 05 	subu $5,$5,$7
  414050:	43 00 00 00 01 00 06 06 	addiu $6,$6,1
  414058:	34 00 00 00 00 00 06 11 	sw $6,0($17)
  414060:	58 00 00 00 00 02 05 0f 	srlv $2,$5,$15
  414068:	01 00 00 00 7e 52 10 00 	j 4149f8 <__mpn_divmod_1+0xe58>
  414070:	55 00 00 00 01 02 07 00 	sll $2,$7,0x1
  414078:	06 00 00 00 04 00 00 02 	bne $2,$0,414090 <__mpn_divmod_1+0x4f0>
  414080:	43 00 00 00 ff ff 0d 00 	addiu $13,$0,-1
  414088:	01 00 00 00 76 50 10 00 	j 4141d8 <__mpn_divmod_1+0x638>
  414090:	57 00 00 00 10 04 07 00 	srl $4,$7,0x10
  414098:	45 00 00 00 00 02 07 00 	subu $2,$0,$7
  4140a0:	49 00 00 00 00 00 04 02 	divu $0,$2,$4
  4140a8:	06 00 00 00 02 00 00 04 	bne $4,$0,4140b8 <__mpn_divmod_1+0x518>
  4140b0:	a1 00 00 00 07 00 00 00 	break 
  4140b8:	4c 00 00 00 00 09 00 00 	mflo $9
  4140c0:	4a 00 00 00 00 03 00 00 	mfhi $3
  4140c8:	4f 00 00 00 ff ff 0a 07 	andi $10,$7,65535
  4140d0:	46 00 00 00 00 00 0a 09 	mult $9,$10
  4140d8:	4c 00 00 00 00 08 00 00 	mflo $8
  4140e0:	55 00 00 00 10 03 03 00 	sll $3,$3,0x10
  4140e8:	5d 00 00 00 00 02 08 03 	sltu $2,$3,$8
  4140f0:	05 00 00 00 10 00 00 02 	beq $2,$0,414138 <__mpn_divmod_1+0x598>
  4140f8:	43 00 00 00 ff ff 09 09 	addiu $9,$9,-1
  414100:	42 00 00 00 00 03 07 03 	addu $3,$3,$7
  414108:	5d 00 00 00 00 02 07 03 	sltu $2,$3,$7
  414110:	06 00 00 00 08 00 00 02 	bne $2,$0,414138 <__mpn_divmod_1+0x598>
  414118:	5d 00 00 00 00 02 08 03 	sltu $2,$3,$8
  414120:	05 00 00 00 04 00 00 02 	beq $2,$0,414138 <__mpn_divmod_1+0x598>
  414128:	43 00 00 00 ff ff 09 09 	addiu $9,$9,-1
  414130:	42 00 00 00 00 03 07 03 	addu $3,$3,$7
  414138:	45 00 00 00 00 03 08 03 	subu $3,$3,$8
  414140:	49 00 00 00 00 00 04 03 	divu $0,$3,$4
  414148:	06 00 00 00 02 00 00 04 	bne $4,$0,414158 <__mpn_divmod_1+0x5b8>
  414150:	a1 00 00 00 07 00 00 00 	break 
  414158:	4c 00 00 00 00 04 00 00 	mflo $4
  414160:	4a 00 00 00 00 03 00 00 	mfhi $3
  414168:	46 00 00 00 00 00 0a 04 	mult $4,$10
  414170:	4c 00 00 00 00 08 00 00 	mflo $8
  414178:	55 00 00 00 10 03 03 00 	sll $3,$3,0x10
  414180:	5d 00 00 00 00 02 08 03 	sltu $2,$3,$8
  414188:	05 00 00 00 0e 00 00 02 	beq $2,$0,4141c8 <__mpn_divmod_1+0x628>
  414190:	43 00 00 00 ff ff 04 04 	addiu $4,$4,-1
  414198:	42 00 00 00 00 03 07 03 	addu $3,$3,$7
  4141a0:	5d 00 00 00 00 02 07 03 	sltu $2,$3,$7
  4141a8:	06 00 00 00 06 00 00 02 	bne $2,$0,4141c8 <__mpn_divmod_1+0x628>
  4141b0:	5d 00 00 00 00 02 08 03 	sltu $2,$3,$8
  4141b8:	05 00 00 00 02 00 00 02 	beq $2,$0,4141c8 <__mpn_divmod_1+0x628>
  4141c0:	43 00 00 00 ff ff 04 04 	addiu $4,$4,-1
  4141c8:	55 00 00 00 10 02 09 00 	sll $2,$9,0x10
  4141d0:	50 00 00 00 00 0d 04 02 	or $13,$2,$4
  4141d8:	43 00 00 00 ff ff 06 06 	addiu $6,$6,-1
  4141e0:	55 00 00 00 02 03 06 00 	sll $3,$6,0x2
  4141e8:	42 00 00 00 00 02 05 03 	addu $2,$3,$5
  4141f0:	28 00 00 00 00 00 0a 02 	lw $10,0($2)
  4141f8:	5d 00 00 00 00 02 07 0a 	sltu $2,$10,$7
  414200:	06 00 00 00 04 00 00 02 	bne $2,$0,414218 <__mpn_divmod_1+0x678>
  414208:	42 00 00 00 00 0a 00 00 	addu $10,$0,$0
  414210:	01 00 00 00 8c 50 10 00 	j 414230 <__mpn_divmod_1+0x690>
  414218:	42 00 00 00 00 02 11 03 	addu $2,$3,$17
  414220:	34 00 00 00 00 00 00 02 	sw $0,0($2)
  414228:	43 00 00 00 ff ff 06 06 	addiu $6,$6,-1
  414230:	09 00 00 00 ee 01 00 06 	bltz $6,4149f0 <__mpn_divmod_1+0xe50>
  414238:	55 00 00 00 02 02 06 00 	sll $2,$6,0x2
  414240:	42 00 00 00 00 0c 11 02 	addu $12,$2,$17
  414248:	42 00 00 00 00 05 05 02 	addu $5,$2,$5
  414250:	28 00 00 00 00 00 0b 05 	lw $11,0($5)
  414258:	47 00 00 00 00 00 0d 0a 	multu $10,$13
  414260:	4c 00 00 00 00 02 00 00 	mflo $2
  414268:	4a 00 00 00 00 09 00 00 	mfhi $9
  414270:	42 00 00 00 00 09 0a 09 	addu $9,$9,$10
  414278:	47 00 00 00 00 00 07 09 	multu $9,$7
  414280:	4c 00 00 00 00 03 00 00 	mflo $3
  414288:	4a 00 00 00 00 04 00 00 	mfhi $4
  414290:	45 00 00 00 00 03 03 0b 	subu $3,$11,$3
  414298:	45 00 00 00 00 04 04 0a 	subu $4,$10,$4
  4142a0:	5d 00 00 00 00 02 03 0b 	sltu $2,$11,$3
  4142a8:	45 00 00 00 00 08 02 04 	subu $8,$4,$2
  4142b0:	42 00 00 00 00 04 03 00 	addu $4,$0,$3
  4142b8:	05 00 00 00 10 00 00 08 	beq $8,$0,414300 <__mpn_divmod_1+0x760>
  4142c0:	45 00 00 00 00 03 07 04 	subu $3,$4,$7
  4142c8:	5d 00 00 00 00 02 03 04 	sltu $2,$4,$3
  4142d0:	45 00 00 00 00 08 02 08 	subu $8,$8,$2
  4142d8:	42 00 00 00 00 04 03 00 	addu $4,$0,$3
  4142e0:	43 00 00 00 01 00 09 09 	addiu $9,$9,1
  4142e8:	05 00 00 00 04 00 00 08 	beq $8,$0,414300 <__mpn_divmod_1+0x760>
  4142f0:	45 00 00 00 00 04 07 04 	subu $4,$4,$7
  4142f8:	43 00 00 00 01 00 09 09 	addiu $9,$9,1
  414300:	5d 00 00 00 00 02 07 04 	sltu $2,$4,$7
  414308:	06 00 00 00 04 00 00 02 	bne $2,$0,414320 <__mpn_divmod_1+0x780>
  414310:	45 00 00 00 00 04 07 04 	subu $4,$4,$7
  414318:	43 00 00 00 01 00 09 09 	addiu $9,$9,1
  414320:	42 00 00 00 00 0a 04 00 	addu $10,$0,$4
  414328:	34 00 00 00 00 00 09 0c 	sw $9,0($12)
  414330:	43 00 00 00 fc ff 0c 0c 	addiu $12,$12,-4
  414338:	43 00 00 00 fc ff 05 05 	addiu $5,$5,-4
  414340:	43 00 00 00 ff ff 06 06 	addiu $6,$6,-1
  414348:	0a 00 00 00 c0 ff 00 06 	bgez $6,414250 <__mpn_divmod_1+0x6b0>
  414350:	01 00 00 00 7c 52 10 00 	j 4149f0 <__mpn_divmod_1+0xe50>
  414358:	42 00 00 00 00 04 07 00 	addu $4,$0,$7
  414360:	51 00 00 00 ff ff 02 00 	ori $2,$0,65535
  414368:	5d 00 00 00 00 02 07 02 	sltu $2,$2,$7
  414370:	06 00 00 00 08 00 00 02 	bne $2,$0,414398 <__mpn_divmod_1+0x7f8>
  414378:	5e 00 00 00 00 01 02 07 	sltiu $2,$7,256
  414380:	53 00 00 00 01 00 02 02 	xori $2,$2,1
  414388:	55 00 00 00 03 03 02 00 	sll $3,$2,0x3
  414390:	01 00 00 00 f2 50 10 00 	j 4143c8 <__mpn_divmod_1+0x828>
  414398:	a2 00 00 00 ff 00 02 00 	lui $2,255
  4143a0:	51 00 00 00 ff ff 02 02 	ori $2,$2,65535
  4143a8:	43 00 00 00 18 00 03 00 	addiu $3,$0,24
  4143b0:	5d 00 00 00 00 02 07 02 	sltu $2,$2,$7
  4143b8:	06 00 00 00 02 00 00 02 	bne $2,$0,4143c8 <__mpn_divmod_1+0x828>
  4143c0:	43 00 00 00 10 00 03 00 	addiu $3,$0,16
  4143c8:	58 00 00 00 00 02 04 03 	srlv $2,$4,$3
  4143d0:	a2 00 00 00 01 10 01 00 	lui $1,4097
  4143d8:	42 00 00 00 00 01 02 01 	addu $1,$1,$2
  4143e0:	22 00 00 00 e0 18 02 01 	lbu $2,6368($1)
  4143e8:	42 00 00 00 00 02 03 02 	addu $2,$2,$3
  4143f0:	43 00 00 00 20 00 03 00 	addiu $3,$0,32
  4143f8:	45 00 00 00 00 0e 02 03 	subu $14,$3,$2
  414400:	05 00 00 00 f4 00 00 0e 	beq $14,$0,4147d8 <__mpn_divmod_1+0xc38>
  414408:	55 00 00 00 02 02 06 00 	sll $2,$6,0x2
  414410:	42 00 00 00 00 02 05 02 	addu $2,$2,$5
  414418:	28 00 00 00 fc ff 0c 02 	lw $12,-4($2)
  414420:	56 00 00 00 00 07 07 0e 	sllv $7,$7,$14
  414428:	43 00 00 00 fe ff 06 06 	addiu $6,$6,-2
  414430:	45 00 00 00 00 02 0e 03 	subu $2,$3,$14
  414438:	58 00 00 00 00 0a 0c 02 	srlv $10,$12,$2
  414440:	09 00 00 00 7e 00 00 06 	bltz $6,414640 <__mpn_divmod_1+0xaa0>
  414448:	57 00 00 00 10 0d 07 00 	srl $13,$7,0x10
  414450:	4f 00 00 00 ff ff 10 07 	andi $16,$7,65535
  414458:	42 00 00 00 00 19 02 00 	addu $25,$0,$2
  414460:	55 00 00 00 02 02 06 00 	sll $2,$6,0x2
  414468:	42 00 00 00 00 0f 11 02 	addu $15,$2,$17
  414470:	42 00 00 00 00 18 05 02 	addu $24,$2,$5
  414478:	28 00 00 00 00 00 0b 18 	lw $11,0($24)
  414480:	49 00 00 00 00 00 0d 0a 	divu $0,$10,$13
  414488:	06 00 00 00 02 00 00 0d 	bne $13,$0,414498 <__mpn_divmod_1+0x8f8>
  414490:	a1 00 00 00 07 00 00 00 	break 
  414498:	4c 00 00 00 00 09 00 00 	mflo $9
  4144a0:	4a 00 00 00 00 04 00 00 	mfhi $4
  4144a8:	46 00 00 00 00 00 10 09 	mult $9,$16
  4144b0:	55 00 00 00 10 04 04 00 	sll $4,$4,0x10
  4144b8:	56 00 00 00 00 02 0c 0e 	sllv $2,$12,$14
  4144c0:	58 00 00 00 00 03 0b 19 	srlv $3,$11,$25
  4144c8:	50 00 00 00 00 02 03 02 	or $2,$2,$3
  4144d0:	4c 00 00 00 00 05 00 00 	mflo $5
  4144d8:	57 00 00 00 10 02 02 00 	srl $2,$2,0x10
  4144e0:	50 00 00 00 00 04 02 04 	or $4,$4,$2
  4144e8:	5d 00 00 00 00 02 05 04 	sltu $2,$4,$5
  4144f0:	05 00 00 00 10 00 00 02 	beq $2,$0,414538 <__mpn_divmod_1+0x998>
  4144f8:	43 00 00 00 ff ff 09 09 	addiu $9,$9,-1
  414500:	42 00 00 00 00 04 07 04 	addu $4,$4,$7
  414508:	5d 00 00 00 00 02 07 04 	sltu $2,$4,$7
  414510:	06 00 00 00 08 00 00 02 	bne $2,$0,414538 <__mpn_divmod_1+0x998>
  414518:	5d 00 00 00 00 02 05 04 	sltu $2,$4,$5
  414520:	05 00 00 00 04 00 00 02 	beq $2,$0,414538 <__mpn_divmod_1+0x998>
  414528:	43 00 00 00 ff ff 09 09 	addiu $9,$9,-1
  414530:	42 00 00 00 00 04 07 04 	addu $4,$4,$7
  414538:	45 00 00 00 00 04 05 04 	subu $4,$4,$5
  414540:	49 00 00 00 00 00 0d 04 	divu $0,$4,$13
  414548:	06 00 00 00 02 00 00 0d 	bne $13,$0,414558 <__mpn_divmod_1+0x9b8>
  414550:	a1 00 00 00 07 00 00 00 	break 
  414558:	4c 00 00 00 00 08 00 00 	mflo $8
  414560:	4a 00 00 00 00 03 00 00 	mfhi $3
  414568:	46 00 00 00 00 00 10 08 	mult $8,$16
  414570:	56 00 00 00 00 02 0c 0e 	sllv $2,$12,$14
  414578:	55 00 00 00 10 04 03 00 	sll $4,$3,0x10
  414580:	58 00 00 00 00 03 0b 19 	srlv $3,$11,$25
  414588:	50 00 00 00 00 02 03 02 	or $2,$2,$3
  414590:	4c 00 00 00 00 05 00 00 	mflo $5
  414598:	4f 00 00 00 ff ff 02 02 	andi $2,$2,65535
  4145a0:	50 00 00 00 00 03 02 04 	or $3,$4,$2
  4145a8:	5d 00 00 00 00 02 05 03 	sltu $2,$3,$5
  4145b0:	05 00 00 00 10 00 00 02 	beq $2,$0,4145f8 <__mpn_divmod_1+0xa58>
  4145b8:	43 00 00 00 ff ff 08 08 	addiu $8,$8,-1
  4145c0:	42 00 00 00 00 03 07 03 	addu $3,$3,$7
  4145c8:	5d 00 00 00 00 02 07 03 	sltu $2,$3,$7
  4145d0:	06 00 00 00 08 00 00 02 	bne $2,$0,4145f8 <__mpn_divmod_1+0xa58>
  4145d8:	5d 00 00 00 00 02 05 03 	sltu $2,$3,$5
  4145e0:	05 00 00 00 04 00 00 02 	beq $2,$0,4145f8 <__mpn_divmod_1+0xa58>
  4145e8:	43 00 00 00 ff ff 08 08 	addiu $8,$8,-1
  4145f0:	42 00 00 00 00 03 07 03 	addu $3,$3,$7
  4145f8:	55 00 00 00 10 02 09 00 	sll $2,$9,0x10
  414600:	50 00 00 00 00 02 08 02 	or $2,$2,$8
  414608:	34 00 00 00 04 00 02 0f 	sw $2,4($15)
  414610:	45 00 00 00 00 0a 05 03 	subu $10,$3,$5
  414618:	42 00 00 00 00 0c 0b 00 	addu $12,$0,$11
  414620:	43 00 00 00 fc ff 0f 0f 	addiu $15,$15,-4
  414628:	43 00 00 00 fc ff 18 18 	addiu $24,$24,-4
  414630:	43 00 00 00 ff ff 06 06 	addiu $6,$6,-1
  414638:	0a 00 00 00 8e ff 00 06 	bgez $6,414478 <__mpn_divmod_1+0x8d8>
  414640:	57 00 00 00 10 05 07 00 	srl $5,$7,0x10
  414648:	49 00 00 00 00 00 05 0a 	divu $0,$10,$5
  414650:	06 00 00 00 02 00 00 05 	bne $5,$0,414660 <__mpn_divmod_1+0xac0>
  414658:	a1 00 00 00 07 00 00 00 	break 
  414660:	4c 00 00 00 00 08 00 00 	mflo $8
  414668:	4a 00 00 00 00 03 00 00 	mfhi $3
  414670:	4f 00 00 00 ff ff 09 07 	andi $9,$7,65535
  414678:	46 00 00 00 00 00 09 08 	mult $8,$9
  414680:	55 00 00 00 10 02 03 00 	sll $2,$3,0x10
  414688:	56 00 00 00 00 03 0c 0e 	sllv $3,$12,$14
  414690:	4c 00 00 00 00 04 00 00 	mflo $4
  414698:	57 00 00 00 10 03 03 00 	srl $3,$3,0x10
  4146a0:	50 00 00 00 00 03 03 02 	or $3,$2,$3
  4146a8:	5d 00 00 00 00 02 04 03 	sltu $2,$3,$4
  4146b0:	05 00 00 00 10 00 00 02 	beq $2,$0,4146f8 <__mpn_divmod_1+0xb58>
  4146b8:	43 00 00 00 ff ff 08 08 	addiu $8,$8,-1
  4146c0:	42 00 00 00 00 03 07 03 	addu $3,$3,$7
  4146c8:	5d 00 00 00 00 02 07 03 	sltu $2,$3,$7
  4146d0:	06 00 00 00 08 00 00 02 	bne $2,$0,4146f8 <__mpn_divmod_1+0xb58>
  4146d8:	5d 00 00 00 00 02 04 03 	sltu $2,$3,$4
  4146e0:	05 00 00 00 04 00 00 02 	beq $2,$0,4146f8 <__mpn_divmod_1+0xb58>
  4146e8:	43 00 00 00 ff ff 08 08 	addiu $8,$8,-1
  4146f0:	42 00 00 00 00 03 07 03 	addu $3,$3,$7
  4146f8:	45 00 00 00 00 03 04 03 	subu $3,$3,$4
  414700:	49 00 00 00 00 00 05 03 	divu $0,$3,$5
  414708:	06 00 00 00 02 00 00 05 	bne $5,$0,414718 <__mpn_divmod_1+0xb78>
  414710:	a1 00 00 00 07 00 00 00 	break 
  414718:	4c 00 00 00 00 06 00 00 	mflo $6
  414720:	4a 00 00 00 00 03 00 00 	mfhi $3
  414728:	46 00 00 00 00 00 09 06 	mult $6,$9
  414730:	55 00 00 00 10 02 03 00 	sll $2,$3,0x10
  414738:	56 00 00 00 00 03 0c 0e 	sllv $3,$12,$14
  414740:	4c 00 00 00 00 04 00 00 	mflo $4
  414748:	4f 00 00 00 ff ff 03 03 	andi $3,$3,65535
  414750:	50 00 00 00 00 03 03 02 	or $3,$2,$3
  414758:	5d 00 00 00 00 02 04 03 	sltu $2,$3,$4
  414760:	05 00 00 00 10 00 00 02 	beq $2,$0,4147a8 <__mpn_divmod_1+0xc08>
  414768:	43 00 00 00 ff ff 06 06 	addiu $6,$6,-1
  414770:	42 00 00 00 00 03 07 03 	addu $3,$3,$7
  414778:	5d 00 00 00 00 02 07 03 	sltu $2,$3,$7
  414780:	06 00 00 00 08 00 00 02 	bne $2,$0,4147a8 <__mpn_divmod_1+0xc08>
  414788:	5d 00 00 00 00 02 04 03 	sltu $2,$3,$4
  414790:	05 00 00 00 04 00 00 02 	beq $2,$0,4147a8 <__mpn_divmod_1+0xc08>
  414798:	43 00 00 00 ff ff 06 06 	addiu $6,$6,-1
  4147a0:	42 00 00 00 00 03 07 03 	addu $3,$3,$7
  4147a8:	55 00 00 00 10 02 08 00 	sll $2,$8,0x10
  4147b0:	50 00 00 00 00 02 06 02 	or $2,$2,$6
  4147b8:	34 00 00 00 00 00 02 11 	sw $2,0($17)
  4147c0:	45 00 00 00 00 0a 04 03 	subu $10,$3,$4
  4147c8:	58 00 00 00 00 02 0a 0e 	srlv $2,$10,$14
  4147d0:	01 00 00 00 7e 52 10 00 	j 4149f8 <__mpn_divmod_1+0xe58>
  4147d8:	43 00 00 00 ff ff 06 06 	addiu $6,$6,-1
  4147e0:	55 00 00 00 02 03 06 00 	sll $3,$6,0x2
  4147e8:	42 00 00 00 00 02 05 03 	addu $2,$3,$5
  4147f0:	28 00 00 00 00 00 0a 02 	lw $10,0($2)
  4147f8:	5d 00 00 00 00 02 07 0a 	sltu $2,$10,$7
  414800:	06 00 00 00 04 00 00 02 	bne $2,$0,414818 <__mpn_divmod_1+0xc78>
  414808:	42 00 00 00 00 0a 00 00 	addu $10,$0,$0
  414810:	01 00 00 00 0c 52 10 00 	j 414830 <__mpn_divmod_1+0xc90>
  414818:	42 00 00 00 00 02 11 03 	addu $2,$3,$17
  414820:	34 00 00 00 00 00 00 02 	sw $0,0($2)
  414828:	43 00 00 00 ff ff 06 06 	addiu $6,$6,-1
  414830:	09 00 00 00 6e 00 00 06 	bltz $6,4149f0 <__mpn_divmod_1+0xe50>
  414838:	57 00 00 00 10 0c 07 00 	srl $12,$7,0x10
  414840:	4f 00 00 00 ff ff 0e 07 	andi $14,$7,65535
  414848:	55 00 00 00 02 02 06 00 	sll $2,$6,0x2
  414850:	42 00 00 00 00 0d 11 02 	addu $13,$2,$17
  414858:	42 00 00 00 00 05 05 02 	addu $5,$2,$5
  414860:	28 00 00 00 00 00 0b 05 	lw $11,0($5)
  414868:	49 00 00 00 00 00 0c 0a 	divu $0,$10,$12
  414870:	06 00 00 00 02 00 00 0c 	bne $12,$0,414880 <__mpn_divmod_1+0xce0>
  414878:	a1 00 00 00 07 00 00 00 	break 
  414880:	4c 00 00 00 00 09 00 00 	mflo $9
  414888:	4a 00 00 00 00 03 00 00 	mfhi $3
  414890:	46 00 00 00 00 00 0e 09 	mult $9,$14
  414898:	55 00 00 00 10 02 03 00 	sll $2,$3,0x10
  4148a0:	4c 00 00 00 00 04 00 00 	mflo $4
  4148a8:	57 00 00 00 10 03 0b 00 	srl $3,$11,0x10
  4148b0:	50 00 00 00 00 03 03 02 	or $3,$2,$3
  4148b8:	5d 00 00 00 00 02 04 03 	sltu $2,$3,$4
  4148c0:	05 00 00 00 10 00 00 02 	beq $2,$0,414908 <__mpn_divmod_1+0xd68>
  4148c8:	43 00 00 00 ff ff 09 09 	addiu $9,$9,-1
  4148d0:	42 00 00 00 00 03 07 03 	addu $3,$3,$7
  4148d8:	5d 00 00 00 00 02 07 03 	sltu $2,$3,$7
  4148e0:	06 00 00 00 08 00 00 02 	bne $2,$0,414908 <__mpn_divmod_1+0xd68>
  4148e8:	5d 00 00 00 00 02 04 03 	sltu $2,$3,$4
  4148f0:	05 00 00 00 04 00 00 02 	beq $2,$0,414908 <__mpn_divmod_1+0xd68>
  4148f8:	43 00 00 00 ff ff 09 09 	addiu $9,$9,-1
  414900:	42 00 00 00 00 03 07 03 	addu $3,$3,$7
  414908:	45 00 00 00 00 03 04 03 	subu $3,$3,$4
  414910:	49 00 00 00 00 00 0c 03 	divu $0,$3,$12
  414918:	06 00 00 00 02 00 00 0c 	bne $12,$0,414928 <__mpn_divmod_1+0xd88>
  414920:	a1 00 00 00 07 00 00 00 	break 
  414928:	4c 00 00 00 00 08 00 00 	mflo $8
  414930:	4a 00 00 00 00 03 00 00 	mfhi $3
  414938:	46 00 00 00 00 00 0e 08 	mult $8,$14
  414940:	55 00 00 00 10 02 03 00 	sll $2,$3,0x10
  414948:	4c 00 00 00 00 04 00 00 	mflo $4
  414950:	4f 00 00 00 ff ff 03 0b 	andi $3,$11,65535
  414958:	50 00 00 00 00 03 03 02 	or $3,$2,$3
  414960:	5d 00 00 00 00 02 04 03 	sltu $2,$3,$4
  414968:	05 00 00 00 10 00 00 02 	beq $2,$0,4149b0 <__mpn_divmod_1+0xe10>
  414970:	43 00 00 00 ff ff 08 08 	addiu $8,$8,-1
  414978:	42 00 00 00 00 03 07 03 	addu $3,$3,$7
  414980:	5d 00 00 00 00 02 07 03 	sltu $2,$3,$7
  414988:	06 00 00 00 08 00 00 02 	bne $2,$0,4149b0 <__mpn_divmod_1+0xe10>
  414990:	5d 00 00 00 00 02 04 03 	sltu $2,$3,$4
  414998:	05 00 00 00 04 00 00 02 	beq $2,$0,4149b0 <__mpn_divmod_1+0xe10>
  4149a0:	43 00 00 00 ff ff 08 08 	addiu $8,$8,-1
  4149a8:	42 00 00 00 00 03 07 03 	addu $3,$3,$7
  4149b0:	55 00 00 00 10 02 09 00 	sll $2,$9,0x10
  4149b8:	50 00 00 00 00 02 08 02 	or $2,$2,$8
  4149c0:	34 00 00 00 00 00 02 0d 	sw $2,0($13)
  4149c8:	45 00 00 00 00 0a 04 03 	subu $10,$3,$4
  4149d0:	43 00 00 00 fc ff 0d 0d 	addiu $13,$13,-4
  4149d8:	43 00 00 00 fc ff 05 05 	addiu $5,$5,-4
  4149e0:	43 00 00 00 ff ff 06 06 	addiu $6,$6,-1
  4149e8:	0a 00 00 00 9c ff 00 06 	bgez $6,414860 <__mpn_divmod_1+0xcc0>
  4149f0:	42 00 00 00 00 02 0a 00 	addu $2,$0,$10
  4149f8:	28 00 00 00 04 00 11 1d 	lw $17,4($29)
  414a00:	28 00 00 00 00 00 10 1d 	lw $16,0($29)
  414a08:	43 00 00 00 08 00 1d 1d 	addiu $29,$29,8
  414a10:	03 00 00 00 00 00 00 1f 	jr $31
	...

00414a20 <abort>:
  414a20:	a1 00 00 00 00 00 00 00 	break 
  414a28:	03 00 00 00 00 00 00 1f 	jr $31

00414a30 <__mpn_mul_1>:
  414a30:	43 00 00 00 f8 ff 1d 1d 	addiu $29,$29,-8
  414a38:	45 00 00 00 00 06 06 00 	subu $6,$0,$6
  414a40:	42 00 00 00 00 02 00 00 	addu $2,$0,$0
  414a48:	42 00 00 00 00 08 04 00 	addu $8,$0,$4
  414a50:	28 00 00 00 00 00 09 05 	lw $9,0($5)
  414a58:	47 00 00 00 00 00 07 09 	multu $9,$7
  414a60:	4c 00 00 00 00 03 00 00 	mflo $3
  414a68:	4a 00 00 00 00 04 00 00 	mfhi $4
  414a70:	42 00 00 00 00 03 02 03 	addu $3,$3,$2
  414a78:	5d 00 00 00 00 02 02 03 	sltu $2,$3,$2
  414a80:	42 00 00 00 00 02 02 04 	addu $2,$4,$2
  414a88:	43 00 00 00 01 00 06 06 	addiu $6,$6,1
  414a90:	34 00 00 00 00 00 03 08 	sw $3,0($8)
  414a98:	43 00 00 00 04 00 08 08 	addiu $8,$8,4
  414aa0:	43 00 00 00 04 00 05 05 	addiu $5,$5,4
  414aa8:	06 00 00 00 e8 ff 00 06 	bne $6,$0,414a50 <__mpn_mul_1+0x20>
  414ab0:	43 00 00 00 08 00 1d 1d 	addiu $29,$29,8
  414ab8:	03 00 00 00 00 00 00 1f 	jr $31

00414ac0 <__mpn_add_n>:
  414ac0:	43 00 00 00 f8 ff 1d 1d 	addiu $29,$29,-8
  414ac8:	45 00 00 00 00 07 07 00 	subu $7,$0,$7
  414ad0:	42 00 00 00 00 08 00 00 	addu $8,$0,$0
  414ad8:	28 00 00 00 00 00 02 06 	lw $2,0($6)
  414ae0:	43 00 00 00 01 00 07 07 	addiu $7,$7,1
  414ae8:	28 00 00 00 00 00 03 05 	lw $3,0($5)
  414af0:	42 00 00 00 00 02 08 02 	addu $2,$2,$8
  414af8:	5d 00 00 00 00 08 08 02 	sltu $8,$2,$8
  414b00:	42 00 00 00 00 02 03 02 	addu $2,$2,$3
  414b08:	5d 00 00 00 00 03 03 02 	sltu $3,$2,$3
  414b10:	42 00 00 00 00 08 03 08 	addu $8,$8,$3
  414b18:	34 00 00 00 00 00 02 04 	sw $2,0($4)
  414b20:	43 00 00 00 04 00 04 04 	addiu $4,$4,4
  414b28:	43 00 00 00 04 00 05 05 	addiu $5,$5,4
  414b30:	43 00 00 00 04 00 06 06 	addiu $6,$6,4
  414b38:	06 00 00 00 e6 ff 00 07 	bne $7,$0,414ad8 <__mpn_add_n+0x18>
  414b40:	42 00 00 00 00 02 08 00 	addu $2,$0,$8
  414b48:	43 00 00 00 08 00 1d 1d 	addiu $29,$29,8
  414b50:	03 00 00 00 00 00 00 1f 	jr $31
	...

00414b60 <__mpn_divmod>:
  414b60:	43 00 00 00 b0 ff 1d 1d 	addiu $29,$29,-80
  414b68:	34 00 00 00 48 00 1e 1d 	sw $30,72($29)
  414b70:	28 00 00 00 60 00 1e 1d 	lw $30,96($29)
  414b78:	34 00 00 00 44 00 17 1d 	sw $23,68($29)
  414b80:	42 00 00 00 00 17 04 00 	addu $23,$0,$4
  414b88:	34 00 00 00 38 00 14 1d 	sw $20,56($29)
  414b90:	42 00 00 00 00 14 05 00 	addu $20,$0,$5
  414b98:	34 00 00 00 34 00 13 1d 	sw $19,52($29)
  414ba0:	42 00 00 00 00 13 06 00 	addu $19,$0,$6
  414ba8:	34 00 00 00 30 00 12 1d 	sw $18,48($29)
  414bb0:	42 00 00 00 00 12 07 00 	addu $18,$0,$7
  414bb8:	43 00 00 00 01 00 03 00 	addiu $3,$0,1
  414bc0:	34 00 00 00 4c 00 1f 1d 	sw $31,76($29)
  414bc8:	34 00 00 00 40 00 16 1d 	sw $22,64($29)
  414bd0:	34 00 00 00 3c 00 15 1d 	sw $21,60($29)
  414bd8:	34 00 00 00 2c 00 11 1d 	sw $17,44($29)
  414be0:	34 00 00 00 28 00 10 1d 	sw $16,40($29)
  414be8:	34 00 00 00 10 00 00 1d 	sw $0,16($29)
  414bf0:	05 00 00 00 24 00 03 1e 	beq $30,$3,414c88 <__mpn_divmod+0x128>
  414bf8:	5c 00 00 00 02 00 02 1e 	slti $2,$30,2
  414c00:	05 00 00 00 04 00 00 02 	beq $2,$0,414c18 <__mpn_divmod+0xb8>
  414c08:	05 00 00 00 08 00 00 1e 	beq $30,$0,414c30 <__mpn_divmod+0xd0>
  414c10:	01 00 00 00 96 54 10 00 	j 415258 <__mpn_divmod+0x6f8>
  414c18:	43 00 00 00 02 00 02 00 	addiu $2,$0,2
  414c20:	05 00 00 00 a0 00 02 1e 	beq $30,$2,414ea8 <__mpn_divmod+0x348>
  414c28:	01 00 00 00 96 54 10 00 	j 415258 <__mpn_divmod+0x6f8>
  414c30:	28 00 00 00 10 00 0f 1d 	lw $15,16($29)
  414c38:	48 00 00 00 00 00 0f 03 	div $0,$3,$15
  414c40:	06 00 00 00 02 00 00 0f 	bne $15,$0,414c50 <__mpn_divmod+0xf0>
  414c48:	a1 00 00 00 07 00 00 00 	break 
  414c50:	43 00 00 00 ff ff 01 00 	addiu $1,$0,-1
  414c58:	06 00 00 00 06 00 01 0f 	bne $15,$1,414c78 <__mpn_divmod+0x118>
  414c60:	a2 00 00 00 00 80 01 00 	lui $1,32768
  414c68:	06 00 00 00 02 00 01 03 	bne $3,$1,414c78 <__mpn_divmod+0x118>
  414c70:	a1 00 00 00 06 00 00 00 	break 
  414c78:	4c 00 00 00 00 02 00 00 	mflo $2
  414c80:	01 00 00 00 90 55 10 00 	j 415640 <__mpn_divmod+0xae0>
  414c88:	55 00 00 00 02 02 13 00 	sll $2,$19,0x2
  414c90:	42 00 00 00 00 02 14 02 	addu $2,$2,$20
  414c98:	28 00 00 00 fc ff 03 02 	lw $3,-4($2)
  414ca0:	28 00 00 00 00 00 05 12 	lw $5,0($18)
  414ca8:	5d 00 00 00 00 02 05 03 	sltu $2,$3,$5
  414cb0:	06 00 00 00 06 00 00 02 	bne $2,$0,414cd0 <__mpn_divmod+0x170>
  414cb8:	43 00 00 00 01 00 0f 00 	addiu $15,$0,1
  414cc0:	34 00 00 00 10 00 0f 1d 	sw $15,16($29)
  414cc8:	45 00 00 00 00 03 05 03 	subu $3,$3,$5
  414cd0:	43 00 00 00 fe ff 06 13 	addiu $6,$19,-2
  414cd8:	09 00 00 00 6e 00 00 06 	bltz $6,414e98 <__mpn_divmod+0x338>
  414ce0:	57 00 00 00 10 0b 05 00 	srl $11,$5,0x10
  414ce8:	4f 00 00 00 ff ff 0d 05 	andi $13,$5,65535
  414cf0:	55 00 00 00 02 02 06 00 	sll $2,$6,0x2
  414cf8:	42 00 00 00 00 04 17 02 	addu $4,$2,$23
  414d00:	42 00 00 00 00 0c 14 02 	addu $12,$2,$20
  414d08:	28 00 00 00 00 00 07 0c 	lw $7,0($12)
  414d10:	49 00 00 00 00 00 0b 03 	divu $0,$3,$11
  414d18:	06 00 00 00 02 00 00 0b 	bne $11,$0,414d28 <__mpn_divmod+0x1c8>
  414d20:	a1 00 00 00 07 00 00 00 	break 
  414d28:	4c 00 00 00 00 0a 00 00 	mflo $10
  414d30:	4a 00 00 00 00 03 00 00 	mfhi $3
  414d38:	46 00 00 00 00 00 0d 0a 	mult $10,$13
  414d40:	55 00 00 00 10 02 03 00 	sll $2,$3,0x10
  414d48:	4c 00 00 00 00 09 00 00 	mflo $9
  414d50:	57 00 00 00 10 03 07 00 	srl $3,$7,0x10
  414d58:	50 00 00 00 00 03 03 02 	or $3,$2,$3
  414d60:	5d 00 00 00 00 02 09 03 	sltu $2,$3,$9
  414d68:	05 00 00 00 10 00 00 02 	beq $2,$0,414db0 <__mpn_divmod+0x250>
  414d70:	43 00 00 00 ff ff 0a 0a 	addiu $10,$10,-1
  414d78:	42 00 00 00 00 03 05 03 	addu $3,$3,$5
  414d80:	5d 00 00 00 00 02 05 03 	sltu $2,$3,$5
  414d88:	06 00 00 00 08 00 00 02 	bne $2,$0,414db0 <__mpn_divmod+0x250>
  414d90:	5d 00 00 00 00 02 09 03 	sltu $2,$3,$9
  414d98:	05 00 00 00 04 00 00 02 	beq $2,$0,414db0 <__mpn_divmod+0x250>
  414da0:	43 00 00 00 ff ff 0a 0a 	addiu $10,$10,-1
  414da8:	42 00 00 00 00 03 05 03 	addu $3,$3,$5
  414db0:	45 00 00 00 00 03 09 03 	subu $3,$3,$9
  414db8:	49 00 00 00 00 00 0b 03 	divu $0,$3,$11
  414dc0:	06 00 00 00 02 00 00 0b 	bne $11,$0,414dd0 <__mpn_divmod+0x270>
  414dc8:	a1 00 00 00 07 00 00 00 	break 
  414dd0:	4c 00 00 00 00 08 00 00 	mflo $8
  414dd8:	4a 00 00 00 00 03 00 00 	mfhi $3
  414de0:	46 00 00 00 00 00 0d 08 	mult $8,$13
  414de8:	55 00 00 00 10 02 03 00 	sll $2,$3,0x10
  414df0:	4c 00 00 00 00 09 00 00 	mflo $9
  414df8:	4f 00 00 00 ff ff 03 07 	andi $3,$7,65535
  414e00:	50 00 00 00 00 03 03 02 	or $3,$2,$3
  414e08:	5d 00 00 00 00 02 09 03 	sltu $2,$3,$9
  414e10:	05 00 00 00 10 00 00 02 	beq $2,$0,414e58 <__mpn_divmod+0x2f8>
  414e18:	43 00 00 00 ff ff 08 08 	addiu $8,$8,-1
  414e20:	42 00 00 00 00 03 05 03 	addu $3,$3,$5
  414e28:	5d 00 00 00 00 02 05 03 	sltu $2,$3,$5
  414e30:	06 00 00 00 08 00 00 02 	bne $2,$0,414e58 <__mpn_divmod+0x2f8>
  414e38:	5d 00 00 00 00 02 09 03 	sltu $2,$3,$9
  414e40:	05 00 00 00 04 00 00 02 	beq $2,$0,414e58 <__mpn_divmod+0x2f8>
  414e48:	43 00 00 00 ff ff 08 08 	addiu $8,$8,-1
  414e50:	42 00 00 00 00 03 05 03 	addu $3,$3,$5
  414e58:	55 00 00 00 10 02 0a 00 	sll $2,$10,0x10
  414e60:	50 00 00 00 00 02 08 02 	or $2,$2,$8
  414e68:	34 00 00 00 00 00 02 04 	sw $2,0($4)
  414e70:	45 00 00 00 00 03 09 03 	subu $3,$3,$9
  414e78:	43 00 00 00 fc ff 04 04 	addiu $4,$4,-4
  414e80:	43 00 00 00 fc ff 0c 0c 	addiu $12,$12,-4
  414e88:	43 00 00 00 ff ff 06 06 	addiu $6,$6,-1
  414e90:	0a 00 00 00 9c ff 00 06 	bgez $6,414d08 <__mpn_divmod+0x1a8>
  414e98:	34 00 00 00 00 00 03 14 	sw $3,0($20)
  414ea0:	01 00 00 00 8e 55 10 00 	j 415638 <__mpn_divmod+0xad8>
  414ea8:	55 00 00 00 02 02 13 00 	sll $2,$19,0x2
  414eb0:	43 00 00 00 f8 ff 02 02 	addiu $2,$2,-8
  414eb8:	42 00 00 00 00 14 02 14 	addu $20,$20,$2
  414ec0:	28 00 00 00 04 00 08 14 	lw $8,4($20)
  414ec8:	28 00 00 00 00 00 0a 14 	lw $10,0($20)
  414ed0:	28 00 00 00 04 00 0c 12 	lw $12,4($18)
  414ed8:	28 00 00 00 00 00 05 12 	lw $5,0($18)
  414ee0:	5d 00 00 00 00 02 0c 08 	sltu $2,$8,$12
  414ee8:	06 00 00 00 16 00 00 02 	bne $2,$0,414f48 <__mpn_divmod+0x3e8>
  414ef0:	5d 00 00 00 00 02 08 0c 	sltu $2,$12,$8
  414ef8:	06 00 00 00 04 00 00 02 	bne $2,$0,414f10 <__mpn_divmod+0x3b0>
  414f00:	5d 00 00 00 00 02 05 0a 	sltu $2,$10,$5
  414f08:	06 00 00 00 0e 00 00 02 	bne $2,$0,414f48 <__mpn_divmod+0x3e8>
  414f10:	43 00 00 00 01 00 0f 00 	addiu $15,$0,1
  414f18:	34 00 00 00 10 00 0f 1d 	sw $15,16($29)
  414f20:	45 00 00 00 00 04 05 0a 	subu $4,$10,$5
  414f28:	45 00 00 00 00 03 0c 08 	subu $3,$8,$12
  414f30:	5d 00 00 00 00 02 04 0a 	sltu $2,$10,$4
  414f38:	45 00 00 00 00 08 02 03 	subu $8,$3,$2
  414f40:	42 00 00 00 00 0a 04 00 	addu $10,$0,$4
  414f48:	45 00 00 00 00 02 1e 13 	subu $2,$19,$30
  414f50:	43 00 00 00 ff ff 07 02 	addiu $7,$2,-1
  414f58:	09 00 00 00 b8 00 00 07 	bltz $7,415240 <__mpn_divmod+0x6e0>
  414f60:	5d 00 00 00 00 0e 05 00 	sltu $14,$0,$5
  414f68:	55 00 00 00 02 02 07 00 	sll $2,$7,0x2
  414f70:	42 00 00 00 00 06 17 02 	addu $6,$2,$23
  414f78:	43 00 00 00 fc ff 14 14 	addiu $20,$20,-4
  414f80:	06 00 00 00 1e 00 0c 08 	bne $8,$12,415000 <__mpn_divmod+0x4a0>
  414f88:	43 00 00 00 ff ff 0b 00 	addiu $11,$0,-1
  414f90:	42 00 00 00 00 04 08 0a 	addu $4,$10,$8
  414f98:	5d 00 00 00 00 02 08 04 	sltu $2,$4,$8
  414fa0:	05 00 00 00 10 00 00 02 	beq $2,$0,414fe8 <__mpn_divmod+0x488>
  414fa8:	28 00 00 00 00 00 02 14 	lw $2,0($20)
  414fb0:	45 00 00 00 00 04 05 04 	subu $4,$4,$5
  414fb8:	42 00 00 00 00 03 02 05 	addu $3,$5,$2
  414fc0:	5d 00 00 00 00 02 02 03 	sltu $2,$3,$2
  414fc8:	42 00 00 00 00 08 02 04 	addu $8,$4,$2
  414fd0:	42 00 00 00 00 0a 03 00 	addu $10,$0,$3
  414fd8:	34 00 00 00 00 00 0b 06 	sw $11,0($6)
  414fe0:	01 00 00 00 8a 54 10 00 	j 415228 <__mpn_divmod+0x6c8>
  414fe8:	45 00 00 00 00 08 0e 05 	subu $8,$5,$14
  414ff0:	45 00 00 00 00 0a 05 00 	subu $10,$0,$5
  414ff8:	01 00 00 00 62 54 10 00 	j 415188 <__mpn_divmod+0x628>
  415000:	57 00 00 00 10 04 0c 00 	srl $4,$12,0x10
  415008:	49 00 00 00 00 00 04 08 	divu $0,$8,$4
  415010:	06 00 00 00 02 00 00 04 	bne $4,$0,415020 <__mpn_divmod+0x4c0>
  415018:	a1 00 00 00 07 00 00 00 	break 
  415020:	4c 00 00 00 00 0b 00 00 	mflo $11
  415028:	4a 00 00 00 00 03 00 00 	mfhi $3
  415030:	4f 00 00 00 ff ff 0d 0c 	andi $13,$12,65535
  415038:	46 00 00 00 00 00 0d 0b 	mult $11,$13
  415040:	55 00 00 00 10 02 03 00 	sll $2,$3,0x10
  415048:	4c 00 00 00 00 09 00 00 	mflo $9
  415050:	57 00 00 00 10 03 0a 00 	srl $3,$10,0x10
  415058:	50 00 00 00 00 03 03 02 	or $3,$2,$3
  415060:	5d 00 00 00 00 02 09 03 	sltu $2,$3,$9
  415068:	05 00 00 00 10 00 00 02 	beq $2,$0,4150b0 <__mpn_divmod+0x550>
  415070:	43 00 00 00 ff ff 0b 0b 	addiu $11,$11,-1
  415078:	42 00 00 00 00 03 0c 03 	addu $3,$3,$12
  415080:	5d 00 00 00 00 02 0c 03 	sltu $2,$3,$12
  415088:	06 00 00 00 08 00 00 02 	bne $2,$0,4150b0 <__mpn_divmod+0x550>
  415090:	5d 00 00 00 00 02 09 03 	sltu $2,$3,$9
  415098:	05 00 00 00 04 00 00 02 	beq $2,$0,4150b0 <__mpn_divmod+0x550>
  4150a0:	43 00 00 00 ff ff 0b 0b 	addiu $11,$11,-1
  4150a8:	42 00 00 00 00 03 0c 03 	addu $3,$3,$12
  4150b0:	45 00 00 00 00 03 09 03 	subu $3,$3,$9
  4150b8:	49 00 00 00 00 00 04 03 	divu $0,$3,$4
  4150c0:	06 00 00 00 02 00 00 04 	bne $4,$0,4150d0 <__mpn_divmod+0x570>
  4150c8:	a1 00 00 00 07 00 00 00 	break 
  4150d0:	4c 00 00 00 00 08 00 00 	mflo $8
  4150d8:	4a 00 00 00 00 04 00 00 	mfhi $4
  4150e0:	46 00 00 00 00 00 0d 08 	mult $8,$13
  4150e8:	55 00 00 00 10 02 04 00 	sll $2,$4,0x10
  4150f0:	4c 00 00 00 00 09 00 00 	mflo $9
  4150f8:	4f 00 00 00 ff ff 03 0a 	andi $3,$10,65535
  415100:	50 00 00 00 00 04 03 02 	or $4,$2,$3
  415108:	5d 00 00 00 00 02 09 04 	sltu $2,$4,$9
  415110:	05 00 00 00 10 00 00 02 	beq $2,$0,415158 <__mpn_divmod+0x5f8>
  415118:	43 00 00 00 ff ff 08 08 	addiu $8,$8,-1
  415120:	42 00 00 00 00 04 0c 04 	addu $4,$4,$12
  415128:	5d 00 00 00 00 02 0c 04 	sltu $2,$4,$12
  415130:	06 00 00 00 08 00 00 02 	bne $2,$0,415158 <__mpn_divmod+0x5f8>
  415138:	5d 00 00 00 00 02 09 04 	sltu $2,$4,$9
  415140:	05 00 00 00 04 00 00 02 	beq $2,$0,415158 <__mpn_divmod+0x5f8>
  415148:	43 00 00 00 ff ff 08 08 	addiu $8,$8,-1
  415150:	42 00 00 00 00 04 0c 04 	addu $4,$4,$12
  415158:	55 00 00 00 10 02 0b 00 	sll $2,$11,0x10
  415160:	50 00 00 00 00 0b 08 02 	or $11,$2,$8
  415168:	45 00 00 00 00 04 09 04 	subu $4,$4,$9
  415170:	47 00 00 00 00 00 0b 05 	multu $5,$11
  415178:	4c 00 00 00 00 0a 00 00 	mflo $10
  415180:	4a 00 00 00 00 08 00 00 	mfhi $8
  415188:	28 00 00 00 00 00 09 14 	lw $9,0($20)
  415190:	5d 00 00 00 00 02 08 04 	sltu $2,$4,$8
  415198:	06 00 00 00 06 00 00 02 	bne $2,$0,4151b8 <__mpn_divmod+0x658>
  4151a0:	06 00 00 00 14 00 04 08 	bne $8,$4,4151f8 <__mpn_divmod+0x698>
  4151a8:	5d 00 00 00 00 02 0a 09 	sltu $2,$9,$10
  4151b0:	05 00 00 00 10 00 00 02 	beq $2,$0,4151f8 <__mpn_divmod+0x698>
  4151b8:	43 00 00 00 ff ff 0b 0b 	addiu $11,$11,-1
  4151c0:	45 00 00 00 00 02 05 0a 	subu $2,$10,$5
  4151c8:	5d 00 00 00 00 03 02 0a 	sltu $3,$10,$2
  4151d0:	45 00 00 00 00 08 03 08 	subu $8,$8,$3
  4151d8:	42 00 00 00 00 0a 02 00 	addu $10,$0,$2
  4151e0:	42 00 00 00 00 04 0c 04 	addu $4,$4,$12
  4151e8:	5d 00 00 00 00 02 0c 04 	sltu $2,$4,$12
  4151f0:	05 00 00 00 e6 ff 00 02 	beq $2,$0,415190 <__mpn_divmod+0x630>
  4151f8:	34 00 00 00 00 00 0b 06 	sw $11,0($6)
  415200:	45 00 00 00 00 02 0a 09 	subu $2,$9,$10
  415208:	45 00 00 00 00 04 08 04 	subu $4,$4,$8
  415210:	5d 00 00 00 00 03 02 09 	sltu $3,$9,$2
  415218:	45 00 00 00 00 08 03 04 	subu $8,$4,$3
  415220:	42 00 00 00 00 0a 02 00 	addu $10,$0,$2
  415228:	43 00 00 00 fc ff 06 06 	addiu $6,$6,-4
  415230:	43 00 00 00 ff ff 07 07 	addiu $7,$7,-1
  415238:	0a 00 00 00 4e ff 00 07 	bgez $7,414f78 <__mpn_divmod+0x418>
  415240:	34 00 00 00 04 00 08 14 	sw $8,4($20)
  415248:	34 00 00 00 00 00 0a 14 	sw $10,0($20)
  415250:	01 00 00 00 8e 55 10 00 	j 415638 <__mpn_divmod+0xad8>
  415258:	55 00 00 00 02 02 13 00 	sll $2,$19,0x2
  415260:	42 00 00 00 00 14 02 14 	addu $20,$20,$2
  415268:	55 00 00 00 02 10 1e 00 	sll $16,$30,0x2
  415270:	42 00 00 00 00 12 10 12 	addu $18,$18,$16
  415278:	28 00 00 00 fc ff 05 14 	lw $5,-4($20)
  415280:	28 00 00 00 fc ff 11 12 	lw $17,-4($18)
  415288:	28 00 00 00 f8 ff 15 12 	lw $21,-8($18)
  415290:	5d 00 00 00 00 02 11 05 	sltu $2,$5,$17
  415298:	06 00 00 00 1e 00 00 02 	bne $2,$0,415318 <__mpn_divmod+0x7b8>
  4152a0:	5d 00 00 00 00 02 05 11 	sltu $2,$17,$5
  4152a8:	06 00 00 00 0a 00 00 02 	bne $2,$0,4152d8 <__mpn_divmod+0x778>
  4152b0:	45 00 00 00 00 04 10 14 	subu $4,$20,$16
  4152b8:	45 00 00 00 00 05 10 12 	subu $5,$18,$16
  4152c0:	43 00 00 00 ff ff 06 1e 	addiu $6,$30,-1
  4152c8:	02 00 00 00 c0 4e 10 00 	jal 413b00 <__mpn_cmp>
  4152d0:	09 00 00 00 0e 00 00 02 	bltz $2,415310 <__mpn_divmod+0x7b0>
  4152d8:	45 00 00 00 00 04 10 14 	subu $4,$20,$16
  4152e0:	42 00 00 00 00 05 04 00 	addu $5,$0,$4
  4152e8:	45 00 00 00 00 06 10 12 	subu $6,$18,$16
  4152f0:	42 00 00 00 00 07 1e 00 	addu $7,$0,$30
  4152f8:	02 00 00 00 e0 55 10 00 	jal 415780 <__mpn_sub_n>
  415300:	43 00 00 00 01 00 0f 00 	addiu $15,$0,1
  415308:	34 00 00 00 10 00 0f 1d 	sw $15,16($29)
  415310:	28 00 00 00 fc ff 05 14 	lw $5,-4($20)
  415318:	45 00 00 00 00 02 1e 13 	subu $2,$19,$30
  415320:	43 00 00 00 ff ff 16 02 	addiu $22,$2,-1
  415328:	09 00 00 00 c2 00 00 16 	bltz $22,415638 <__mpn_divmod+0xad8>
  415330:	55 00 00 00 02 0f 1e 00 	sll $15,$30,0x2
  415338:	45 00 00 00 00 12 0f 12 	subu $18,$18,$15
  415340:	55 00 00 00 02 02 16 00 	sll $2,$22,0x2
  415348:	42 00 00 00 00 17 17 02 	addu $23,$2,$23
  415350:	43 00 00 00 fc ff 13 14 	addiu $19,$20,-4
  415358:	34 00 00 00 18 00 0f 1d 	sw $15,24($29)
  415360:	34 00 00 00 20 00 12 1d 	sw $18,32($29)
  415368:	43 00 00 00 fc ff 13 13 	addiu $19,$19,-4
  415370:	43 00 00 00 fc ff 14 14 	addiu $20,$20,-4
  415378:	06 00 00 00 04 00 11 05 	bne $5,$17,415390 <__mpn_divmod+0x830>
  415380:	43 00 00 00 ff ff 10 00 	addiu $16,$0,-1
  415388:	01 00 00 00 62 55 10 00 	j 415588 <__mpn_divmod+0xa28>
  415390:	57 00 00 00 10 06 11 00 	srl $6,$17,0x10
  415398:	49 00 00 00 00 00 06 05 	divu $0,$5,$6
  4153a0:	06 00 00 00 02 00 00 06 	bne $6,$0,4153b0 <__mpn_divmod+0x850>
  4153a8:	a1 00 00 00 07 00 00 00 	break 
  4153b0:	4c 00 00 00 00 05 00 00 	mflo $5
  4153b8:	4a 00 00 00 00 03 00 00 	mfhi $3
  4153c0:	4f 00 00 00 ff ff 08 11 	andi $8,$17,65535
  4153c8:	46 00 00 00 00 00 08 05 	mult $5,$8
  4153d0:	26 00 00 00 02 00 02 13 	lhu $2,2($19)
  4153d8:	4c 00 00 00 00 04 00 00 	mflo $4
  4153e0:	55 00 00 00 10 03 03 00 	sll $3,$3,0x10
  4153e8:	50 00 00 00 00 03 02 03 	or $3,$3,$2
  4153f0:	5d 00 00 00 00 02 04 03 	sltu $2,$3,$4
  4153f8:	05 00 00 00 10 00 00 02 	beq $2,$0,415440 <__mpn_divmod+0x8e0>
  415400:	43 00 00 00 ff ff 05 05 	addiu $5,$5,-1
  415408:	42 00 00 00 00 03 11 03 	addu $3,$3,$17
  415410:	5d 00 00 00 00 02 11 03 	sltu $2,$3,$17
  415418:	06 00 00 00 08 00 00 02 	bne $2,$0,415440 <__mpn_divmod+0x8e0>
  415420:	5d 00 00 00 00 02 04 03 	sltu $2,$3,$4
  415428:	05 00 00 00 04 00 00 02 	beq $2,$0,415440 <__mpn_divmod+0x8e0>
  415430:	43 00 00 00 ff ff 05 05 	addiu $5,$5,-1
  415438:	42 00 00 00 00 03 11 03 	addu $3,$3,$17
  415440:	45 00 00 00 00 03 04 03 	subu $3,$3,$4
  415448:	49 00 00 00 00 00 06 03 	divu $0,$3,$6
  415450:	06 00 00 00 02 00 00 06 	bne $6,$0,415460 <__mpn_divmod+0x900>
  415458:	a1 00 00 00 07 00 00 00 	break 
  415460:	4c 00 00 00 00 07 00 00 	mflo $7
  415468:	4a 00 00 00 00 03 00 00 	mfhi $3
  415470:	46 00 00 00 00 00 08 07 	mult $7,$8
  415478:	26 00 00 00 00 00 02 13 	lhu $2,0($19)
  415480:	4c 00 00 00 00 04 00 00 	mflo $4
  415488:	55 00 00 00 10 03 03 00 	sll $3,$3,0x10
  415490:	50 00 00 00 00 03 02 03 	or $3,$3,$2
  415498:	5d 00 00 00 00 02 04 03 	sltu $2,$3,$4
  4154a0:	05 00 00 00 10 00 00 02 	beq $2,$0,4154e8 <__mpn_divmod+0x988>
  4154a8:	43 00 00 00 ff ff 07 07 	addiu $7,$7,-1
  4154b0:	42 00 00 00 00 03 11 03 	addu $3,$3,$17
  4154b8:	5d 00 00 00 00 02 11 03 	sltu $2,$3,$17
  4154c0:	06 00 00 00 08 00 00 02 	bne $2,$0,4154e8 <__mpn_divmod+0x988>
  4154c8:	5d 00 00 00 00 02 04 03 	sltu $2,$3,$4
  4154d0:	05 00 00 00 04 00 00 02 	beq $2,$0,4154e8 <__mpn_divmod+0x988>
  4154d8:	43 00 00 00 ff ff 07 07 	addiu $7,$7,-1
  4154e0:	42 00 00 00 00 03 11 03 	addu $3,$3,$17
  4154e8:	55 00 00 00 10 02 05 00 	sll $2,$5,0x10
  4154f0:	50 00 00 00 00 10 07 02 	or $16,$2,$7
  4154f8:	45 00 00 00 00 03 04 03 	subu $3,$3,$4
  415500:	47 00 00 00 00 00 10 15 	multu $21,$16
  415508:	4c 00 00 00 00 05 00 00 	mflo $5
  415510:	4a 00 00 00 00 04 00 00 	mfhi $4
  415518:	01 00 00 00 5c 55 10 00 	j 415570 <__mpn_divmod+0xa10>
  415520:	28 00 00 00 fc ff 02 13 	lw $2,-4($19)
  415528:	5d 00 00 00 00 02 05 02 	sltu $2,$2,$5
  415530:	05 00 00 00 14 00 00 02 	beq $2,$0,415588 <__mpn_divmod+0xa28>
  415538:	43 00 00 00 ff ff 10 10 	addiu $16,$16,-1
  415540:	42 00 00 00 00 03 11 03 	addu $3,$3,$17
  415548:	5d 00 00 00 00 02 11 03 	sltu $2,$3,$17
  415550:	06 00 00 00 0c 00 00 02 	bne $2,$0,415588 <__mpn_divmod+0xa28>
  415558:	5d 00 00 00 00 02 15 05 	sltu $2,$5,$21
  415560:	45 00 00 00 00 04 02 04 	subu $4,$4,$2
  415568:	45 00 00 00 00 05 15 05 	subu $5,$5,$21
  415570:	5d 00 00 00 00 02 04 03 	sltu $2,$3,$4
  415578:	06 00 00 00 ee ff 00 02 	bne $2,$0,415538 <__mpn_divmod+0x9d8>
  415580:	05 00 00 00 e6 ff 03 04 	beq $4,$3,415520 <__mpn_divmod+0x9c0>
  415588:	28 00 00 00 18 00 0f 1d 	lw $15,24($29)
  415590:	28 00 00 00 20 00 05 1d 	lw $5,32($29)
  415598:	42 00 00 00 00 06 1e 00 	addu $6,$0,$30
  4155a0:	42 00 00 00 00 07 10 00 	addu $7,$0,$16
  4155a8:	45 00 00 00 00 12 0f 14 	subu $18,$20,$15
  4155b0:	42 00 00 00 00 04 12 00 	addu $4,$0,$18
  4155b8:	02 00 00 00 0c 5b 10 00 	jal 416c30 <__mpn_submul_1>
  4155c0:	28 00 00 00 00 00 03 14 	lw $3,0($20)
  4155c8:	05 00 00 00 10 00 02 03 	beq $3,$2,415610 <__mpn_divmod+0xab0>
  4155d0:	42 00 00 00 00 04 12 00 	addu $4,$0,$18
  4155d8:	28 00 00 00 20 00 06 1d 	lw $6,32($29)
  4155e0:	42 00 00 00 00 05 04 00 	addu $5,$0,$4
  4155e8:	42 00 00 00 00 07 1e 00 	addu $7,$0,$30
  4155f0:	02 00 00 00 b0 52 10 00 	jal 414ac0 <__mpn_add_n>
  4155f8:	06 00 00 00 02 00 00 02 	bne $2,$0,415608 <__mpn_divmod+0xaa8>
  415600:	02 00 00 00 88 52 10 00 	jal 414a20 <abort>
  415608:	43 00 00 00 ff ff 10 10 	addiu $16,$16,-1
  415610:	34 00 00 00 00 00 10 17 	sw $16,0($23)
  415618:	28 00 00 00 00 00 05 13 	lw $5,0($19)
  415620:	43 00 00 00 fc ff 17 17 	addiu $23,$23,-4
  415628:	43 00 00 00 ff ff 16 16 	addiu $22,$22,-1
  415630:	0a 00 00 00 4c ff 00 16 	bgez $22,415368 <__mpn_divmod+0x808>
  415638:	28 00 00 00 10 00 02 1d 	lw $2,16($29)
  415640:	28 00 00 00 4c 00 1f 1d 	lw $31,76($29)
  415648:	28 00 00 00 48 00 1e 1d 	lw $30,72($29)
  415650:	28 00 00 00 44 00 17 1d 	lw $23,68($29)
  415658:	28 00 00 00 40 00 16 1d 	lw $22,64($29)
  415660:	28 00 00 00 3c 00 15 1d 	lw $21,60($29)
  415668:	28 00 00 00 38 00 14 1d 	lw $20,56($29)
  415670:	28 00 00 00 34 00 13 1d 	lw $19,52($29)
  415678:	28 00 00 00 30 00 12 1d 	lw $18,48($29)
  415680:	28 00 00 00 2c 00 11 1d 	lw $17,44($29)
  415688:	28 00 00 00 28 00 10 1d 	lw $16,40($29)
  415690:	43 00 00 00 50 00 1d 1d 	addiu $29,$29,80
  415698:	03 00 00 00 00 00 00 1f 	jr $31

004156a0 <__mpn_rshift>:
  4156a0:	28 00 00 00 00 00 03 05 	lw $3,0($5)
  4156a8:	43 00 00 00 01 00 08 00 	addiu $8,$0,1
  4156b0:	43 00 00 00 fc ff 04 04 	addiu $4,$4,-4
  4156b8:	43 00 00 00 20 00 02 00 	addiu $2,$0,32
  4156c0:	45 00 00 00 00 0b 07 02 	subu $11,$2,$7
  4156c8:	5b 00 00 00 00 02 06 08 	slt $2,$8,$6
  4156d0:	42 00 00 00 00 09 03 00 	addu $9,$0,$3
  4156d8:	56 00 00 00 00 0c 09 0b 	sllv $12,$9,$11
  4156e0:	05 00 00 00 1a 00 00 02 	beq $2,$0,415750 <__mpn_rshift+0xb0>
  4156e8:	43 00 00 00 04 00 0a 04 	addiu $10,$4,4
  4156f0:	43 00 00 00 04 00 05 05 	addiu $5,$5,4
  4156f8:	28 00 00 00 00 00 03 05 	lw $3,0($5)
  415700:	43 00 00 00 01 00 08 08 	addiu $8,$8,1
  415708:	58 00 00 00 00 02 09 07 	srlv $2,$9,$7
  415710:	42 00 00 00 00 09 03 00 	addu $9,$0,$3
  415718:	56 00 00 00 00 03 09 0b 	sllv $3,$9,$11
  415720:	50 00 00 00 00 02 03 02 	or $2,$2,$3
  415728:	34 00 00 00 00 00 02 0a 	sw $2,0($10)
  415730:	43 00 00 00 04 00 0a 0a 	addiu $10,$10,4
  415738:	43 00 00 00 04 00 05 05 	addiu $5,$5,4
  415740:	5b 00 00 00 00 02 06 08 	slt $2,$8,$6
  415748:	06 00 00 00 ea ff 00 02 	bne $2,$0,4156f8 <__mpn_rshift+0x58>
  415750:	55 00 00 00 02 02 08 00 	sll $2,$8,0x2
  415758:	42 00 00 00 00 02 04 02 	addu $2,$2,$4
  415760:	58 00 00 00 00 03 09 07 	srlv $3,$9,$7
  415768:	34 00 00 00 00 00 03 02 	sw $3,0($2)
  415770:	42 00 00 00 00 02 0c 00 	addu $2,$0,$12
  415778:	03 00 00 00 00 00 00 1f 	jr $31

00415780 <__mpn_sub_n>:
  415780:	43 00 00 00 f8 ff 1d 1d 	addiu $29,$29,-8
  415788:	45 00 00 00 00 07 07 00 	subu $7,$0,$7
  415790:	42 00 00 00 00 08 00 00 	addu $8,$0,$0
  415798:	28 00 00 00 00 00 02 06 	lw $2,0($6)
  4157a0:	43 00 00 00 01 00 07 07 	addiu $7,$7,1
  4157a8:	28 00 00 00 00 00 03 05 	lw $3,0($5)
  4157b0:	42 00 00 00 00 02 08 02 	addu $2,$2,$8
  4157b8:	5d 00 00 00 00 08 08 02 	sltu $8,$2,$8
  4157c0:	45 00 00 00 00 02 02 03 	subu $2,$3,$2
  4157c8:	5d 00 00 00 00 03 02 03 	sltu $3,$3,$2
  4157d0:	42 00 00 00 00 08 03 08 	addu $8,$8,$3
  4157d8:	34 00 00 00 00 00 02 04 	sw $2,0($4)
  4157e0:	43 00 00 00 04 00 04 04 	addiu $4,$4,4
  4157e8:	43 00 00 00 04 00 05 05 	addiu $5,$5,4
  4157f0:	43 00 00 00 04 00 06 06 	addiu $6,$6,4
  4157f8:	06 00 00 00 e6 ff 00 07 	bne $7,$0,415798 <__mpn_sub_n+0x18>
  415800:	42 00 00 00 00 02 08 00 	addu $2,$0,$8
  415808:	43 00 00 00 08 00 1d 1d 	addiu $29,$29,8
  415810:	03 00 00 00 00 00 00 1f 	jr $31
	...

00415820 <vsprintf>:
  415820:	43 00 00 00 90 ff 1d 1d 	addiu $29,$29,-112
  415828:	34 00 00 00 60 00 10 1d 	sw $16,96($29)
  415830:	42 00 00 00 00 10 04 00 	addu $16,$0,$4
  415838:	34 00 00 00 64 00 11 1d 	sw $17,100($29)
  415840:	42 00 00 00 00 11 05 00 	addu $17,$0,$5
  415848:	34 00 00 00 68 00 12 1d 	sw $18,104($29)
  415850:	42 00 00 00 00 12 06 00 	addu $18,$0,$6
  415858:	43 00 00 00 10 00 04 1d 	addiu $4,$29,16
  415860:	42 00 00 00 00 05 00 00 	addu $5,$0,$0
  415868:	43 00 00 00 50 00 06 00 	addiu $6,$0,80
  415870:	34 00 00 00 6c 00 1f 1d 	sw $31,108($29)
  415878:	02 00 00 00 f8 24 10 00 	jal 4093e0 <memset>
  415880:	a2 00 00 00 da fe 02 00 	lui $2,65242
  415888:	51 00 00 00 eb be 02 02 	ori $2,$2,48875
  415890:	43 00 00 00 10 00 04 1d 	addiu $4,$29,16
  415898:	28 00 00 00 2c 00 03 1d 	lw $3,44($29)
  4158a0:	28 00 00 00 5c 00 07 1d 	lw $7,92($29)
  4158a8:	42 00 00 00 00 05 11 00 	addu $5,$0,$17
  4158b0:	42 00 00 00 00 06 12 00 	addu $6,$0,$18
  4158b8:	34 00 00 00 10 00 02 1d 	sw $2,16($29)
  4158c0:	43 00 00 00 ff ff 02 00 	addiu $2,$0,-1
  4158c8:	34 00 00 00 1c 00 02 1d 	sw $2,28($29)
  4158d0:	54 00 00 00 00 02 10 00 	nor $2,$0,$16
  4158d8:	34 00 00 00 20 00 10 1d 	sw $16,32($29)
  4158e0:	34 00 00 00 14 00 10 1d 	sw $16,20($29)
  4158e8:	34 00 00 00 24 00 02 1d 	sw $2,36($29)
  4158f0:	34 00 00 00 18 00 10 1d 	sw $16,24($29)
  4158f8:	34 00 00 00 48 00 00 1d 	sw $0,72($29)
  415900:	51 00 00 00 02 00 03 03 	ori $3,$3,2
  415908:	51 00 00 00 00 40 07 07 	ori $7,$7,16384
  415910:	34 00 00 00 2c 00 03 1d 	sw $3,44($29)
  415918:	34 00 00 00 5c 00 07 1d 	sw $7,92($29)
  415920:	02 00 00 00 e0 13 10 00 	jal 404f80 <vfprintf>
  415928:	28 00 00 00 14 00 03 1d 	lw $3,20($29)
  415930:	30 00 00 00 00 00 00 03 	sb $0,0($3)
  415938:	28 00 00 00 6c 00 1f 1d 	lw $31,108($29)
  415940:	28 00 00 00 68 00 12 1d 	lw $18,104($29)
  415948:	28 00 00 00 64 00 11 1d 	lw $17,100($29)
  415950:	28 00 00 00 60 00 10 1d 	lw $16,96($29)
  415958:	43 00 00 00 70 00 1d 1d 	addiu $29,$29,112
  415960:	03 00 00 00 00 00 00 1f 	jr $31
	...
  415970:	01 00 00 00 dc 2d 10 00 	j 40b770 <syscall_error>
	...

00415980 <__ioctl>:
  415980:	43 00 00 00 36 00 02 00 	addiu $2,$0,54
  415988:	a0 00 00 00 00 00 00 00 	syscall 
  415990:	06 00 00 00 f6 ff 00 07 	bne $7,$0,415970 <vsprintf+0x150>
	...
  4159a0:	03 00 00 00 00 00 00 1f 	jr $31
	...

004159b0 <__sbrk>:
  4159b0:	43 00 00 00 e8 ff 1d 1d 	addiu $29,$29,-24
  4159b8:	34 00 00 00 14 00 1f 1d 	sw $31,20($29)
  4159c0:	34 00 00 00 10 00 10 1d 	sw $16,16($29)
  4159c8:	06 00 00 00 04 00 00 04 	bne $4,$0,4159e0 <__sbrk+0x30>
  4159d0:	28 00 00 00 30 82 02 1c 	lw $2,-32208($28)
  4159d8:	01 00 00 00 86 56 10 00 	j 415a18 <__sbrk+0x68>
  4159e0:	28 00 00 00 30 82 10 1c 	lw $16,-32208($28)
  4159e8:	42 00 00 00 00 04 04 10 	addu $4,$16,$4
  4159f0:	02 00 00 00 3c 5b 10 00 	jal 416cf0 <__brk>
  4159f8:	42 00 00 00 00 03 02 00 	addu $3,$0,$2
  415a00:	43 00 00 00 ff ff 02 00 	addiu $2,$0,-1
  415a08:	09 00 00 00 02 00 00 03 	bltz $3,415a18 <__sbrk+0x68>
  415a10:	42 00 00 00 00 02 10 00 	addu $2,$0,$16
  415a18:	28 00 00 00 14 00 1f 1d 	lw $31,20($29)
  415a20:	28 00 00 00 10 00 10 1d 	lw $16,16($29)
  415a28:	43 00 00 00 18 00 1d 1d 	addiu $29,$29,24
  415a30:	03 00 00 00 00 00 00 1f 	jr $31
	...

00415a40 <_wordcopy_fwd_aligned>:
  415a40:	4f 00 00 00 07 00 07 06 	andi $7,$6,7
  415a48:	5e 00 00 00 08 00 02 07 	sltiu $2,$7,8
  415a50:	05 00 00 00 52 00 00 02 	beq $2,$0,415ba0 <_wordcopy_fwd_aligned+0x160>
  415a58:	55 00 00 00 02 02 07 00 	sll $2,$7,0x2
  415a60:	a2 00 00 00 00 10 01 00 	lui $1,4096
  415a68:	42 00 00 00 00 01 02 01 	addu $1,$1,$2
  415a70:	28 00 00 00 c0 14 02 01 	lw $2,5312($1)
  415a78:	03 00 00 00 00 00 00 02 	jr $2
  415a80:	28 00 00 00 00 00 02 05 	lw $2,0($5)
  415a88:	43 00 00 00 e4 ff 04 04 	addiu $4,$4,-28
  415a90:	43 00 00 00 06 00 06 06 	addiu $6,$6,6
  415a98:	43 00 00 00 e8 ff 05 05 	addiu $5,$5,-24
  415aa0:	01 00 00 00 04 57 10 00 	j 415c10 <_wordcopy_fwd_aligned+0x1d0>
  415aa8:	28 00 00 00 00 00 03 05 	lw $3,0($5)
  415ab0:	43 00 00 00 e8 ff 04 04 	addiu $4,$4,-24
  415ab8:	43 00 00 00 05 00 06 06 	addiu $6,$6,5
  415ac0:	43 00 00 00 ec ff 05 05 	addiu $5,$5,-20
  415ac8:	01 00 00 00 00 57 10 00 	j 415c00 <_wordcopy_fwd_aligned+0x1c0>
  415ad0:	28 00 00 00 00 00 02 05 	lw $2,0($5)
  415ad8:	43 00 00 00 ec ff 04 04 	addiu $4,$4,-20
  415ae0:	43 00 00 00 04 00 06 06 	addiu $6,$6,4
  415ae8:	43 00 00 00 f0 ff 05 05 	addiu $5,$5,-16
  415af0:	01 00 00 00 fc 56 10 00 	j 415bf0 <_wordcopy_fwd_aligned+0x1b0>
  415af8:	28 00 00 00 00 00 03 05 	lw $3,0($5)
  415b00:	43 00 00 00 f0 ff 04 04 	addiu $4,$4,-16
  415b08:	43 00 00 00 03 00 06 06 	addiu $6,$6,3
  415b10:	43 00 00 00 f4 ff 05 05 	addiu $5,$5,-12
  415b18:	01 00 00 00 f8 56 10 00 	j 415be0 <_wordcopy_fwd_aligned+0x1a0>
  415b20:	28 00 00 00 00 00 02 05 	lw $2,0($5)
  415b28:	43 00 00 00 f4 ff 04 04 	addiu $4,$4,-12
  415b30:	43 00 00 00 02 00 06 06 	addiu $6,$6,2
  415b38:	43 00 00 00 f8 ff 05 05 	addiu $5,$5,-8
  415b40:	01 00 00 00 f4 56 10 00 	j 415bd0 <_wordcopy_fwd_aligned+0x190>
  415b48:	28 00 00 00 00 00 03 05 	lw $3,0($5)
  415b50:	43 00 00 00 f8 ff 04 04 	addiu $4,$4,-8
  415b58:	43 00 00 00 01 00 06 06 	addiu $6,$6,1
  415b60:	43 00 00 00 fc ff 05 05 	addiu $5,$5,-4
  415b68:	01 00 00 00 f0 56 10 00 	j 415bc0 <_wordcopy_fwd_aligned+0x180>
  415b70:	28 00 00 00 00 00 02 05 	lw $2,0($5)
  415b78:	43 00 00 00 fc ff 04 04 	addiu $4,$4,-4
  415b80:	01 00 00 00 ec 56 10 00 	j 415bb0 <_wordcopy_fwd_aligned+0x170>
  415b88:	28 00 00 00 00 00 03 05 	lw $3,0($5)
  415b90:	43 00 00 00 ff ff 06 06 	addiu $6,$6,-1
  415b98:	43 00 00 00 04 00 05 05 	addiu $5,$5,4
  415ba0:	28 00 00 00 00 00 02 05 	lw $2,0($5)
  415ba8:	34 00 00 00 00 00 03 04 	sw $3,0($4)
  415bb0:	28 00 00 00 04 00 03 05 	lw $3,4($5)
  415bb8:	34 00 00 00 04 00 02 04 	sw $2,4($4)
  415bc0:	28 00 00 00 08 00 02 05 	lw $2,8($5)
  415bc8:	34 00 00 00 08 00 03 04 	sw $3,8($4)
  415bd0:	28 00 00 00 0c 00 03 05 	lw $3,12($5)
  415bd8:	34 00 00 00 0c 00 02 04 	sw $2,12($4)
  415be0:	28 00 00 00 10 00 02 05 	lw $2,16($5)
  415be8:	34 00 00 00 10 00 03 04 	sw $3,16($4)
  415bf0:	28 00 00 00 14 00 03 05 	lw $3,20($5)
  415bf8:	34 00 00 00 14 00 02 04 	sw $2,20($4)
  415c00:	28 00 00 00 18 00 02 05 	lw $2,24($5)
  415c08:	34 00 00 00 18 00 03 04 	sw $3,24($4)
  415c10:	28 00 00 00 1c 00 03 05 	lw $3,28($5)
  415c18:	43 00 00 00 f8 ff 06 06 	addiu $6,$6,-8
  415c20:	43 00 00 00 20 00 05 05 	addiu $5,$5,32
  415c28:	34 00 00 00 1c 00 02 04 	sw $2,28($4)
  415c30:	43 00 00 00 20 00 04 04 	addiu $4,$4,32
  415c38:	06 00 00 00 d8 ff 00 06 	bne $6,$0,415ba0 <_wordcopy_fwd_aligned+0x160>
  415c40:	34 00 00 00 00 00 03 04 	sw $3,0($4)
  415c48:	03 00 00 00 00 00 00 1f 	jr $31

00415c50 <_wordcopy_fwd_dest_aligned>:
  415c50:	4f 00 00 00 03 00 03 05 	andi $3,$5,3
  415c58:	43 00 00 00 fc ff 02 00 	addiu $2,$0,-4
  415c60:	4e 00 00 00 00 05 02 05 	and $5,$5,$2
  415c68:	55 00 00 00 03 0b 03 00 	sll $11,$3,0x3
  415c70:	43 00 00 00 20 00 02 00 	addiu $2,$0,32
  415c78:	45 00 00 00 00 0c 0b 02 	subu $12,$2,$11
  415c80:	4f 00 00 00 03 00 03 06 	andi $3,$6,3
  415c88:	43 00 00 00 01 00 02 00 	addiu $2,$0,1
  415c90:	05 00 00 00 2c 00 02 03 	beq $3,$2,415d48 <_wordcopy_fwd_dest_aligned+0xf8>
  415c98:	05 00 00 00 20 00 00 03 	beq $3,$0,415d20 <_wordcopy_fwd_dest_aligned+0xd0>
  415ca0:	43 00 00 00 02 00 02 00 	addiu $2,$0,2
  415ca8:	05 00 00 00 06 00 02 03 	beq $3,$2,415cc8 <_wordcopy_fwd_dest_aligned+0x78>
  415cb0:	43 00 00 00 03 00 02 00 	addiu $2,$0,3
  415cb8:	05 00 00 00 0e 00 02 03 	beq $3,$2,415cf8 <_wordcopy_fwd_dest_aligned+0xa8>
  415cc0:	01 00 00 00 5a 57 10 00 	j 415d68 <_wordcopy_fwd_dest_aligned+0x118>
  415cc8:	28 00 00 00 00 00 08 05 	lw $8,0($5)
  415cd0:	28 00 00 00 04 00 09 05 	lw $9,4($5)
  415cd8:	43 00 00 00 f4 ff 04 04 	addiu $4,$4,-12
  415ce0:	43 00 00 00 02 00 06 06 	addiu $6,$6,2
  415ce8:	43 00 00 00 fc ff 05 05 	addiu $5,$5,-4
  415cf0:	01 00 00 00 78 57 10 00 	j 415de0 <_wordcopy_fwd_dest_aligned+0x190>
  415cf8:	28 00 00 00 00 00 07 05 	lw $7,0($5)
  415d00:	28 00 00 00 04 00 08 05 	lw $8,4($5)
  415d08:	43 00 00 00 f8 ff 04 04 	addiu $4,$4,-8
  415d10:	43 00 00 00 01 00 06 06 	addiu $6,$6,1
  415d18:	01 00 00 00 6e 57 10 00 	j 415db8 <_wordcopy_fwd_dest_aligned+0x168>
  415d20:	28 00 00 00 00 00 0a 05 	lw $10,0($5)
  415d28:	28 00 00 00 04 00 07 05 	lw $7,4($5)
  415d30:	43 00 00 00 fc ff 04 04 	addiu $4,$4,-4
  415d38:	43 00 00 00 04 00 05 05 	addiu $5,$5,4
  415d40:	01 00 00 00 64 57 10 00 	j 415d90 <_wordcopy_fwd_dest_aligned+0x140>
  415d48:	28 00 00 00 00 00 09 05 	lw $9,0($5)
  415d50:	28 00 00 00 04 00 0a 05 	lw $10,4($5)
  415d58:	43 00 00 00 ff ff 06 06 	addiu $6,$6,-1
  415d60:	43 00 00 00 08 00 05 05 	addiu $5,$5,8
  415d68:	28 00 00 00 00 00 07 05 	lw $7,0($5)
  415d70:	58 00 00 00 00 02 09 0b 	srlv $2,$9,$11
  415d78:	56 00 00 00 00 03 0a 0c 	sllv $3,$10,$12
  415d80:	50 00 00 00 00 02 03 02 	or $2,$2,$3
  415d88:	34 00 00 00 00 00 02 04 	sw $2,0($4)
  415d90:	28 00 00 00 04 00 08 05 	lw $8,4($5)
  415d98:	58 00 00 00 00 02 0a 0b 	srlv $2,$10,$11
  415da0:	56 00 00 00 00 03 07 0c 	sllv $3,$7,$12
  415da8:	50 00 00 00 00 02 03 02 	or $2,$2,$3
  415db0:	34 00 00 00 04 00 02 04 	sw $2,4($4)
  415db8:	28 00 00 00 08 00 09 05 	lw $9,8($5)
  415dc0:	58 00 00 00 00 02 07 0b 	srlv $2,$7,$11
  415dc8:	56 00 00 00 00 03 08 0c 	sllv $3,$8,$12
  415dd0:	50 00 00 00 00 02 03 02 	or $2,$2,$3
  415dd8:	34 00 00 00 08 00 02 04 	sw $2,8($4)
  415de0:	28 00 00 00 0c 00 0a 05 	lw $10,12($5)
  415de8:	43 00 00 00 fc ff 06 06 	addiu $6,$6,-4
  415df0:	58 00 00 00 00 02 08 0b 	srlv $2,$8,$11
  415df8:	56 00 00 00 00 03 09 0c 	sllv $3,$9,$12
  415e00:	50 00 00 00 00 02 03 02 	or $2,$2,$3
  415e08:	43 00 00 00 10 00 05 05 	addiu $5,$5,16
  415e10:	34 00 00 00 0c 00 02 04 	sw $2,12($4)
  415e18:	43 00 00 00 10 00 04 04 	addiu $4,$4,16
  415e20:	06 00 00 00 d0 ff 00 06 	bne $6,$0,415d68 <_wordcopy_fwd_dest_aligned+0x118>
  415e28:	58 00 00 00 00 02 09 0b 	srlv $2,$9,$11
  415e30:	56 00 00 00 00 03 0a 0c 	sllv $3,$10,$12
  415e38:	50 00 00 00 00 02 03 02 	or $2,$2,$3
  415e40:	34 00 00 00 00 00 02 04 	sw $2,0($4)
  415e48:	03 00 00 00 00 00 00 1f 	jr $31

00415e50 <_wordcopy_bwd_aligned>:
  415e50:	4f 00 00 00 07 00 07 06 	andi $7,$6,7
  415e58:	5e 00 00 00 08 00 02 07 	sltiu $2,$7,8
  415e60:	05 00 00 00 56 00 00 02 	beq $2,$0,415fc0 <_wordcopy_bwd_aligned+0x170>
  415e68:	55 00 00 00 02 02 07 00 	sll $2,$7,0x2
  415e70:	a2 00 00 00 00 10 01 00 	lui $1,4096
  415e78:	42 00 00 00 00 01 02 01 	addu $1,$1,$2
  415e80:	28 00 00 00 e0 14 02 01 	lw $2,5344($1)
  415e88:	03 00 00 00 00 00 00 02 	jr $2
  415e90:	43 00 00 00 f8 ff 05 05 	addiu $5,$5,-8
  415e98:	28 00 00 00 04 00 02 05 	lw $2,4($5)
  415ea0:	43 00 00 00 fc ff 04 04 	addiu $4,$4,-4
  415ea8:	43 00 00 00 06 00 06 06 	addiu $6,$6,6
  415eb0:	01 00 00 00 0c 58 10 00 	j 416030 <_wordcopy_bwd_aligned+0x1e0>
  415eb8:	43 00 00 00 f4 ff 05 05 	addiu $5,$5,-12
  415ec0:	28 00 00 00 08 00 03 05 	lw $3,8($5)
  415ec8:	43 00 00 00 f8 ff 04 04 	addiu $4,$4,-8
  415ed0:	43 00 00 00 05 00 06 06 	addiu $6,$6,5
  415ed8:	01 00 00 00 08 58 10 00 	j 416020 <_wordcopy_bwd_aligned+0x1d0>
  415ee0:	43 00 00 00 f0 ff 05 05 	addiu $5,$5,-16
  415ee8:	28 00 00 00 0c 00 02 05 	lw $2,12($5)
  415ef0:	43 00 00 00 f4 ff 04 04 	addiu $4,$4,-12
  415ef8:	43 00 00 00 04 00 06 06 	addiu $6,$6,4
  415f00:	01 00 00 00 04 58 10 00 	j 416010 <_wordcopy_bwd_aligned+0x1c0>
  415f08:	43 00 00 00 ec ff 05 05 	addiu $5,$5,-20
  415f10:	28 00 00 00 10 00 03 05 	lw $3,16($5)
  415f18:	43 00 00 00 f0 ff 04 04 	addiu $4,$4,-16
  415f20:	43 00 00 00 03 00 06 06 	addiu $6,$6,3
  415f28:	01 00 00 00 00 58 10 00 	j 416000 <_wordcopy_bwd_aligned+0x1b0>
  415f30:	43 00 00 00 e8 ff 05 05 	addiu $5,$5,-24
  415f38:	28 00 00 00 14 00 02 05 	lw $2,20($5)
  415f40:	43 00 00 00 ec ff 04 04 	addiu $4,$4,-20
  415f48:	43 00 00 00 02 00 06 06 	addiu $6,$6,2
  415f50:	01 00 00 00 fc 57 10 00 	j 415ff0 <_wordcopy_bwd_aligned+0x1a0>
  415f58:	43 00 00 00 e4 ff 05 05 	addiu $5,$5,-28
  415f60:	28 00 00 00 18 00 03 05 	lw $3,24($5)
  415f68:	43 00 00 00 e8 ff 04 04 	addiu $4,$4,-24
  415f70:	43 00 00 00 01 00 06 06 	addiu $6,$6,1
  415f78:	01 00 00 00 f8 57 10 00 	j 415fe0 <_wordcopy_bwd_aligned+0x190>
  415f80:	43 00 00 00 e0 ff 05 05 	addiu $5,$5,-32
  415f88:	28 00 00 00 1c 00 02 05 	lw $2,28($5)
  415f90:	43 00 00 00 e4 ff 04 04 	addiu $4,$4,-28
  415f98:	01 00 00 00 f4 57 10 00 	j 415fd0 <_wordcopy_bwd_aligned+0x180>
  415fa0:	43 00 00 00 dc ff 05 05 	addiu $5,$5,-36
  415fa8:	43 00 00 00 e0 ff 04 04 	addiu $4,$4,-32
  415fb0:	28 00 00 00 20 00 03 05 	lw $3,32($5)
  415fb8:	43 00 00 00 ff ff 06 06 	addiu $6,$6,-1
  415fc0:	28 00 00 00 1c 00 02 05 	lw $2,28($5)
  415fc8:	34 00 00 00 1c 00 03 04 	sw $3,28($4)
  415fd0:	28 00 00 00 18 00 03 05 	lw $3,24($5)
  415fd8:	34 00 00 00 18 00 02 04 	sw $2,24($4)
  415fe0:	28 00 00 00 14 00 02 05 	lw $2,20($5)
  415fe8:	34 00 00 00 14 00 03 04 	sw $3,20($4)
  415ff0:	28 00 00 00 10 00 03 05 	lw $3,16($5)
  415ff8:	34 00 00 00 10 00 02 04 	sw $2,16($4)
  416000:	28 00 00 00 0c 00 02 05 	lw $2,12($5)
  416008:	34 00 00 00 0c 00 03 04 	sw $3,12($4)
  416010:	28 00 00 00 08 00 03 05 	lw $3,8($5)
  416018:	34 00 00 00 08 00 02 04 	sw $2,8($4)
  416020:	28 00 00 00 04 00 02 05 	lw $2,4($5)
  416028:	34 00 00 00 04 00 03 04 	sw $3,4($4)
  416030:	28 00 00 00 00 00 03 05 	lw $3,0($5)
  416038:	43 00 00 00 f8 ff 06 06 	addiu $6,$6,-8
  416040:	43 00 00 00 e0 ff 05 05 	addiu $5,$5,-32
  416048:	34 00 00 00 00 00 02 04 	sw $2,0($4)
  416050:	43 00 00 00 e0 ff 04 04 	addiu $4,$4,-32
  416058:	06 00 00 00 d8 ff 00 06 	bne $6,$0,415fc0 <_wordcopy_bwd_aligned+0x170>
  416060:	34 00 00 00 1c 00 03 04 	sw $3,28($4)
  416068:	03 00 00 00 00 00 00 1f 	jr $31

00416070 <_wordcopy_bwd_dest_aligned>:
  416070:	4f 00 00 00 03 00 03 05 	andi $3,$5,3
  416078:	43 00 00 00 fc ff 02 00 	addiu $2,$0,-4
  416080:	4e 00 00 00 00 05 02 05 	and $5,$5,$2
  416088:	43 00 00 00 04 00 05 05 	addiu $5,$5,4
  416090:	55 00 00 00 03 0b 03 00 	sll $11,$3,0x3
  416098:	43 00 00 00 20 00 02 00 	addiu $2,$0,32
  4160a0:	45 00 00 00 00 0c 0b 02 	subu $12,$2,$11
  4160a8:	4f 00 00 00 03 00 03 06 	andi $3,$6,3
  4160b0:	43 00 00 00 01 00 02 00 	addiu $2,$0,1
  4160b8:	05 00 00 00 2e 00 02 03 	beq $3,$2,416178 <_wordcopy_bwd_dest_aligned+0x108>
  4160c0:	05 00 00 00 22 00 00 03 	beq $3,$0,416150 <_wordcopy_bwd_dest_aligned+0xe0>
  4160c8:	43 00 00 00 02 00 02 00 	addiu $2,$0,2
  4160d0:	05 00 00 00 06 00 02 03 	beq $3,$2,4160f0 <_wordcopy_bwd_dest_aligned+0x80>
  4160d8:	43 00 00 00 03 00 02 00 	addiu $2,$0,3
  4160e0:	05 00 00 00 0e 00 02 03 	beq $3,$2,416120 <_wordcopy_bwd_dest_aligned+0xb0>
  4160e8:	01 00 00 00 68 58 10 00 	j 4161a0 <_wordcopy_bwd_dest_aligned+0x130>
  4160f0:	43 00 00 00 f4 ff 05 05 	addiu $5,$5,-12
  4160f8:	28 00 00 00 08 00 08 05 	lw $8,8($5)
  416100:	28 00 00 00 04 00 0a 05 	lw $10,4($5)
  416108:	43 00 00 00 fc ff 04 04 	addiu $4,$4,-4
  416110:	43 00 00 00 02 00 06 06 	addiu $6,$6,2
  416118:	01 00 00 00 86 58 10 00 	j 416218 <_wordcopy_bwd_dest_aligned+0x1a8>
  416120:	43 00 00 00 f0 ff 05 05 	addiu $5,$5,-16
  416128:	28 00 00 00 0c 00 07 05 	lw $7,12($5)
  416130:	28 00 00 00 08 00 08 05 	lw $8,8($5)
  416138:	43 00 00 00 f8 ff 04 04 	addiu $4,$4,-8
  416140:	43 00 00 00 01 00 06 06 	addiu $6,$6,1
  416148:	01 00 00 00 7c 58 10 00 	j 4161f0 <_wordcopy_bwd_dest_aligned+0x180>
  416150:	43 00 00 00 ec ff 05 05 	addiu $5,$5,-20
  416158:	28 00 00 00 10 00 09 05 	lw $9,16($5)
  416160:	28 00 00 00 0c 00 07 05 	lw $7,12($5)
  416168:	43 00 00 00 f4 ff 04 04 	addiu $4,$4,-12
  416170:	01 00 00 00 72 58 10 00 	j 4161c8 <_wordcopy_bwd_dest_aligned+0x158>
  416178:	43 00 00 00 e8 ff 05 05 	addiu $5,$5,-24
  416180:	43 00 00 00 f0 ff 04 04 	addiu $4,$4,-16
  416188:	28 00 00 00 14 00 0a 05 	lw $10,20($5)
  416190:	28 00 00 00 10 00 09 05 	lw $9,16($5)
  416198:	43 00 00 00 ff ff 06 06 	addiu $6,$6,-1
  4161a0:	28 00 00 00 0c 00 07 05 	lw $7,12($5)
  4161a8:	58 00 00 00 00 02 09 0b 	srlv $2,$9,$11
  4161b0:	56 00 00 00 00 03 0a 0c 	sllv $3,$10,$12
  4161b8:	50 00 00 00 00 02 03 02 	or $2,$2,$3
  4161c0:	34 00 00 00 0c 00 02 04 	sw $2,12($4)
  4161c8:	28 00 00 00 08 00 08 05 	lw $8,8($5)
  4161d0:	58 00 00 00 00 02 07 0b 	srlv $2,$7,$11
  4161d8:	56 00 00 00 00 03 09 0c 	sllv $3,$9,$12
  4161e0:	50 00 00 00 00 02 03 02 	or $2,$2,$3
  4161e8:	34 00 00 00 08 00 02 04 	sw $2,8($4)
  4161f0:	28 00 00 00 04 00 0a 05 	lw $10,4($5)
  4161f8:	58 00 00 00 00 02 08 0b 	srlv $2,$8,$11
  416200:	56 00 00 00 00 03 07 0c 	sllv $3,$7,$12
  416208:	50 00 00 00 00 02 03 02 	or $2,$2,$3
  416210:	34 00 00 00 04 00 02 04 	sw $2,4($4)
  416218:	28 00 00 00 00 00 09 05 	lw $9,0($5)
  416220:	43 00 00 00 fc ff 06 06 	addiu $6,$6,-4
  416228:	58 00 00 00 00 02 0a 0b 	srlv $2,$10,$11
  416230:	56 00 00 00 00 03 08 0c 	sllv $3,$8,$12
  416238:	50 00 00 00 00 02 03 02 	or $2,$2,$3
  416240:	43 00 00 00 f0 ff 05 05 	addiu $5,$5,-16
  416248:	34 00 00 00 00 00 02 04 	sw $2,0($4)
  416250:	43 00 00 00 f0 ff 04 04 	addiu $4,$4,-16
  416258:	06 00 00 00 d0 ff 00 06 	bne $6,$0,4161a0 <_wordcopy_bwd_dest_aligned+0x130>
  416260:	58 00 00 00 00 02 09 0b 	srlv $2,$9,$11
  416268:	56 00 00 00 00 03 0a 0c 	sllv $3,$10,$12
  416270:	50 00 00 00 00 02 03 02 	or $2,$2,$3
  416278:	34 00 00 00 0c 00 02 04 	sw $2,12($4)
  416280:	03 00 00 00 00 00 00 1f 	jr $31
	...

00416290 <memmove>:
  416290:	43 00 00 00 d8 ff 1d 1d 	addiu $29,$29,-40
  416298:	34 00 00 00 1c 00 13 1d 	sw $19,28($29)
  4162a0:	42 00 00 00 00 13 04 00 	addu $19,$0,$4
  4162a8:	34 00 00 00 18 00 12 1d 	sw $18,24($29)
  4162b0:	42 00 00 00 00 12 06 00 	addu $18,$0,$6
  4162b8:	34 00 00 00 14 00 11 1d 	sw $17,20($29)
  4162c0:	42 00 00 00 00 11 13 00 	addu $17,$0,$19
  4162c8:	34 00 00 00 10 00 10 1d 	sw $16,16($29)
  4162d0:	42 00 00 00 00 10 05 00 	addu $16,$0,$5
  4162d8:	45 00 00 00 00 02 10 13 	subu $2,$19,$16
  4162e0:	5d 00 00 00 00 02 12 02 	sltu $2,$2,$18
  4162e8:	34 00 00 00 20 00 1f 1d 	sw $31,32($29)
  4162f0:	06 00 00 00 4c 00 00 02 	bne $2,$0,416428 <memmove+0x198>
  4162f8:	5e 00 00 00 10 00 02 12 	sltiu $2,$18,16
  416300:	06 00 00 00 36 00 00 02 	bne $2,$0,4163e0 <memmove+0x150>
  416308:	45 00 00 00 00 02 13 00 	subu $2,$0,$19
  416310:	4f 00 00 00 03 00 02 02 	andi $2,$2,3
  416318:	45 00 00 00 00 12 02 12 	subu $18,$18,$2
  416320:	42 00 00 00 00 03 02 00 	addu $3,$0,$2
  416328:	05 00 00 00 0c 00 00 03 	beq $3,$0,416360 <memmove+0xd0>
  416330:	22 00 00 00 00 00 02 10 	lbu $2,0($16)
  416338:	43 00 00 00 ff ff 03 03 	addiu $3,$3,-1
  416340:	43 00 00 00 01 00 10 10 	addiu $16,$16,1
  416348:	30 00 00 00 00 00 02 11 	sb $2,0($17)
  416350:	43 00 00 00 01 00 11 11 	addiu $17,$17,1
  416358:	06 00 00 00 f4 ff 00 03 	bne $3,$0,416330 <memmove+0xa0>
  416360:	4f 00 00 00 03 00 02 10 	andi $2,$16,3
  416368:	06 00 00 00 0a 00 00 02 	bne $2,$0,416398 <memmove+0x108>
  416370:	42 00 00 00 00 04 11 00 	addu $4,$0,$17
  416378:	42 00 00 00 00 05 10 00 	addu $5,$0,$16
  416380:	57 00 00 00 02 06 12 00 	srl $6,$18,0x2
  416388:	02 00 00 00 90 56 10 00 	jal 415a40 <_wordcopy_fwd_aligned>
  416390:	01 00 00 00 ee 58 10 00 	j 4163b8 <memmove+0x128>
  416398:	42 00 00 00 00 04 11 00 	addu $4,$0,$17
  4163a0:	42 00 00 00 00 05 10 00 	addu $5,$0,$16
  4163a8:	57 00 00 00 02 06 12 00 	srl $6,$18,0x2
  4163b0:	02 00 00 00 14 57 10 00 	jal 415c50 <_wordcopy_fwd_dest_aligned>
  4163b8:	43 00 00 00 fc ff 02 00 	addiu $2,$0,-4
  4163c0:	4e 00 00 00 00 02 02 12 	and $2,$18,$2
  4163c8:	42 00 00 00 00 10 02 10 	addu $16,$16,$2
  4163d0:	42 00 00 00 00 11 02 11 	addu $17,$17,$2
  4163d8:	4f 00 00 00 03 00 12 12 	andi $18,$18,3
  4163e0:	42 00 00 00 00 03 12 00 	addu $3,$0,$18
  4163e8:	05 00 00 00 5a 00 00 12 	beq $18,$0,416558 <memmove+0x2c8>
  4163f0:	22 00 00 00 00 00 02 10 	lbu $2,0($16)
  4163f8:	43 00 00 00 ff ff 03 03 	addiu $3,$3,-1
  416400:	43 00 00 00 01 00 10 10 	addiu $16,$16,1
  416408:	30 00 00 00 00 00 02 11 	sb $2,0($17)
  416410:	43 00 00 00 01 00 11 11 	addiu $17,$17,1
  416418:	06 00 00 00 f4 ff 00 03 	bne $3,$0,4163f0 <memmove+0x160>
  416420:	01 00 00 00 56 59 10 00 	j 416558 <memmove+0x2c8>
  416428:	42 00 00 00 00 10 12 10 	addu $16,$16,$18
  416430:	42 00 00 00 00 11 12 13 	addu $17,$19,$18
  416438:	5e 00 00 00 10 00 02 12 	sltiu $2,$18,16
  416440:	06 00 00 00 34 00 00 02 	bne $2,$0,416518 <memmove+0x288>
  416448:	4f 00 00 00 03 00 02 11 	andi $2,$17,3
  416450:	45 00 00 00 00 12 02 12 	subu $18,$18,$2
  416458:	42 00 00 00 00 03 02 00 	addu $3,$0,$2
  416460:	05 00 00 00 0c 00 00 03 	beq $3,$0,416498 <memmove+0x208>
  416468:	43 00 00 00 ff ff 10 10 	addiu $16,$16,-1
  416470:	22 00 00 00 00 00 02 10 	lbu $2,0($16)
  416478:	43 00 00 00 ff ff 11 11 	addiu $17,$17,-1
  416480:	43 00 00 00 ff ff 03 03 	addiu $3,$3,-1
  416488:	30 00 00 00 00 00 02 11 	sb $2,0($17)
  416490:	06 00 00 00 f4 ff 00 03 	bne $3,$0,416468 <memmove+0x1d8>
  416498:	4f 00 00 00 03 00 02 10 	andi $2,$16,3
  4164a0:	06 00 00 00 0a 00 00 02 	bne $2,$0,4164d0 <memmove+0x240>
  4164a8:	42 00 00 00 00 04 11 00 	addu $4,$0,$17
  4164b0:	42 00 00 00 00 05 10 00 	addu $5,$0,$16
  4164b8:	57 00 00 00 02 06 12 00 	srl $6,$18,0x2
  4164c0:	02 00 00 00 94 57 10 00 	jal 415e50 <_wordcopy_bwd_aligned>
  4164c8:	01 00 00 00 3c 59 10 00 	j 4164f0 <memmove+0x260>
  4164d0:	42 00 00 00 00 04 11 00 	addu $4,$0,$17
  4164d8:	42 00 00 00 00 05 10 00 	addu $5,$0,$16
  4164e0:	57 00 00 00 02 06 12 00 	srl $6,$18,0x2
  4164e8:	02 00 00 00 1c 58 10 00 	jal 416070 <_wordcopy_bwd_dest_aligned>
  4164f0:	43 00 00 00 fc ff 02 00 	addiu $2,$0,-4
  4164f8:	4e 00 00 00 00 02 02 12 	and $2,$18,$2
  416500:	45 00 00 00 00 10 02 10 	subu $16,$16,$2
  416508:	45 00 00 00 00 11 02 11 	subu $17,$17,$2
  416510:	4f 00 00 00 03 00 12 12 	andi $18,$18,3
  416518:	42 00 00 00 00 06 12 00 	addu $6,$0,$18
  416520:	05 00 00 00 0c 00 00 06 	beq $6,$0,416558 <memmove+0x2c8>
  416528:	43 00 00 00 ff ff 10 10 	addiu $16,$16,-1
  416530:	22 00 00 00 00 00 02 10 	lbu $2,0($16)
  416538:	43 00 00 00 ff ff 11 11 	addiu $17,$17,-1
  416540:	43 00 00 00 ff ff 06 06 	addiu $6,$6,-1
  416548:	30 00 00 00 00 00 02 11 	sb $2,0($17)
  416550:	06 00 00 00 f4 ff 00 06 	bne $6,$0,416528 <memmove+0x298>
  416558:	42 00 00 00 00 02 13 00 	addu $2,$0,$19
  416560:	28 00 00 00 20 00 1f 1d 	lw $31,32($29)
  416568:	28 00 00 00 1c 00 13 1d 	lw $19,28($29)
  416570:	28 00 00 00 18 00 12 1d 	lw $18,24($29)
  416578:	28 00 00 00 14 00 11 1d 	lw $17,20($29)
  416580:	28 00 00 00 10 00 10 1d 	lw $16,16($29)
  416588:	43 00 00 00 28 00 1d 1d 	addiu $29,$29,40
  416590:	03 00 00 00 00 00 00 1f 	jr $31
	...

004165a0 <pow>:
  4165a0:	43 00 00 00 c0 ff 1d 1d 	addiu $29,$29,-64
  4165a8:	36 00 00 00 30 00 1a 1d 	s.s $f26,48($29)
  4165b0:	36 00 00 00 34 00 1b 1d 	s.s $f27,52($29)
  4165b8:	a5 00 00 00 00 00 00 1a 	mtc1 $0,$f26
  4165c0:	a5 00 00 00 00 00 00 1b 	mtc1 $0,$f27
  4165c8:	36 00 00 00 20 00 16 1d 	s.s $f22,32($29)
  4165d0:	36 00 00 00 24 00 17 1d 	s.s $f23,36($29)
  4165d8:	7b 00 00 00 00 16 00 0c 	mov.d $f22,$f12
  4165e0:	36 00 00 00 18 00 14 1d 	s.s $f20,24($29)
  4165e8:	36 00 00 00 1c 00 15 1d 	s.s $f21,28($29)
  4165f0:	7b 00 00 00 00 14 00 0e 	mov.d $f20,$f14
  4165f8:	34 00 00 00 10 00 1f 1d 	sw $31,16($29)
  416600:	36 00 00 00 38 00 1c 1d 	s.s $f28,56($29)
  416608:	36 00 00 00 3c 00 1d 1d 	s.s $f29,60($29)
  416610:	91 00 00 00 00 00 1a 14 	c.eq.d $f20,$f26
  416618:	36 00 00 00 28 00 18 1d 	s.s $f24,40($29)
  416620:	36 00 00 00 2c 00 19 1d 	s.s $f25,44($29)
  416628:	0b 00 00 00 06 00 00 00 	bc1f 416648 <pow+0xa8>
  416630:	2a 00 00 00 d0 81 00 1c 	l.s $f0,-32304($28)
  416638:	2a 00 00 00 d4 81 01 1c 	l.s $f1,-32300($28)
  416640:	01 00 00 00 3a 5a 10 00 	j 4168e8 <pow+0x348>
  416648:	2a 00 00 00 d0 81 18 1c 	l.s $f24,-32304($28)
  416650:	2a 00 00 00 d4 81 19 1c 	l.s $f25,-32300($28)
  416658:	91 00 00 00 00 00 18 14 	c.eq.d $f20,$f24
  416660:	0c 00 00 00 04 00 00 00 	bc1t 416678 <pow+0xd8>
  416668:	91 00 00 00 00 00 16 16 	c.eq.d $f22,$f22
  416670:	0c 00 00 00 04 00 00 00 	bc1t 416688 <pow+0xe8>
  416678:	7b 00 00 00 00 00 00 16 	mov.d $f0,$f22
  416680:	01 00 00 00 3a 5a 10 00 	j 4168e8 <pow+0x348>
  416688:	91 00 00 00 00 00 14 14 	c.eq.d $f20,$f20
  416690:	0c 00 00 00 04 00 00 00 	bc1t 4166a8 <pow+0x108>
  416698:	7b 00 00 00 00 00 00 14 	mov.d $f0,$f20
  4166a0:	01 00 00 00 3a 5a 10 00 	j 4168e8 <pow+0x348>
  4166a8:	7b 00 00 00 00 0c 00 14 	mov.d $f12,$f20
  4166b0:	02 00 00 00 54 5b 10 00 	jal 416d50 <__finite>
  4166b8:	06 00 00 00 28 00 00 02 	bne $2,$0,416760 <pow+0x1c0>
  4166c0:	79 00 00 00 00 00 00 16 	abs.d $f0,$f22
  4166c8:	91 00 00 00 00 00 18 00 	c.eq.d $f0,$f24
  4166d0:	0c 00 00 00 12 00 00 00 	bc1t 416720 <pow+0x180>
  4166d8:	93 00 00 00 00 00 00 18 	c.lt.d $f24,$f0
  4166e0:	0b 00 00 00 12 00 00 00 	bc1f 416730 <pow+0x190>
  4166e8:	93 00 00 00 00 00 1a 14 	c.lt.d $f20,$f26
  4166f0:	0b 00 00 00 04 00 00 00 	bc1f 416708 <pow+0x168>
  4166f8:	7b 00 00 00 00 00 00 1a 	mov.d $f0,$f26
  416700:	01 00 00 00 3a 5a 10 00 	j 4168e8 <pow+0x348>
  416708:	93 00 00 00 00 00 1a 16 	c.lt.d $f22,$f26
  416710:	7b 00 00 00 00 00 00 14 	mov.d $f0,$f20
  416718:	0b 00 00 00 72 00 00 00 	bc1f 4168e8 <pow+0x348>
  416720:	73 00 00 00 00 00 14 14 	sub.d $f0,$f20,$f20
  416728:	01 00 00 00 3a 5a 10 00 	j 4168e8 <pow+0x348>
  416730:	93 00 00 00 00 00 14 1a 	c.lt.d $f26,$f20
  416738:	0c 00 00 00 ee ff 00 00 	bc1t 4166f8 <pow+0x158>
  416740:	93 00 00 00 00 00 1a 16 	c.lt.d $f22,$f26
  416748:	0c 00 00 00 f4 ff 00 00 	bc1t 416720 <pow+0x180>
  416750:	7d 00 00 00 00 00 00 14 	neg.d $f0,$f20
  416758:	01 00 00 00 3a 5a 10 00 	j 4168e8 <pow+0x348>
  416760:	2a 00 00 00 d8 81 1c 1c 	l.s $f28,-32296($28)
  416768:	2a 00 00 00 dc 81 1d 1c 	l.s $f29,-32292($28)
  416770:	91 00 00 00 00 00 1c 14 	c.eq.d $f20,$f28
  416778:	0b 00 00 00 04 00 00 00 	bc1f 416790 <pow+0x1f0>
  416780:	75 00 00 00 00 00 16 16 	mul.d $f0,$f22,$f22
  416788:	01 00 00 00 3a 5a 10 00 	j 4168e8 <pow+0x348>
  416790:	2a 00 00 00 e0 81 00 1c 	l.s $f0,-32288($28)
  416798:	2a 00 00 00 e4 81 01 1c 	l.s $f1,-32284($28)
  4167a0:	91 00 00 00 00 00 00 14 	c.eq.d $f20,$f0
  4167a8:	0b 00 00 00 04 00 00 00 	bc1f 4167c0 <pow+0x220>
  4167b0:	77 00 00 00 00 00 16 18 	div.d $f0,$f24,$f22
  4167b8:	01 00 00 00 3a 5a 10 00 	j 4168e8 <pow+0x348>
  4167c0:	7b 00 00 00 00 0c 00 18 	mov.d $f12,$f24
  4167c8:	7b 00 00 00 00 0e 00 16 	mov.d $f14,$f22
  4167d0:	02 00 00 00 7c 5b 10 00 	jal 416df0 <__copysign>
  4167d8:	91 00 00 00 00 00 18 00 	c.eq.d $f0,$f24
  4167e0:	0b 00 00 00 04 00 00 00 	bc1f 4167f8 <pow+0x258>
  4167e8:	7b 00 00 00 00 0c 00 16 	mov.d $f12,$f22
  4167f0:	01 00 00 00 0a 5a 10 00 	j 416828 <pow+0x288>
  4167f8:	7b 00 00 00 00 0c 00 14 	mov.d $f12,$f20
  416800:	7b 00 00 00 00 0e 00 1c 	mov.d $f14,$f28
  416808:	02 00 00 00 98 5b 10 00 	jal 416e60 <__drem>
  416810:	91 00 00 00 00 00 1a 00 	c.eq.d $f0,$f26
  416818:	0b 00 00 00 08 00 00 00 	bc1f 416840 <pow+0x2a0>
  416820:	7d 00 00 00 00 0c 00 16 	neg.d $f12,$f22
  416828:	7b 00 00 00 00 0e 00 14 	mov.d $f14,$f20
  416830:	02 00 00 00 54 5a 10 00 	jal 416950 <pow_P>
  416838:	01 00 00 00 3a 5a 10 00 	j 4168e8 <pow+0x348>
  416840:	7b 00 00 00 00 0c 00 00 	mov.d $f12,$f0
  416848:	7b 00 00 00 00 0e 00 18 	mov.d $f14,$f24
  416850:	02 00 00 00 7c 5b 10 00 	jal 416df0 <__copysign>
  416858:	91 00 00 00 00 00 18 00 	c.eq.d $f0,$f24
  416860:	0b 00 00 00 0a 00 00 00 	bc1f 416890 <pow+0x2f0>
  416868:	7d 00 00 00 00 0c 00 16 	neg.d $f12,$f22
  416870:	7b 00 00 00 00 0e 00 14 	mov.d $f14,$f20
  416878:	02 00 00 00 54 5a 10 00 	jal 416950 <pow_P>
  416880:	7d 00 00 00 00 00 00 00 	neg.d $f0,$f0
  416888:	01 00 00 00 3a 5a 10 00 	j 4168e8 <pow+0x348>
  416890:	91 00 00 00 00 00 1a 16 	c.eq.d $f22,$f26
  416898:	0b 00 00 00 0e 00 00 00 	bc1f 4168d8 <pow+0x338>
  4168a0:	93 00 00 00 00 00 14 1a 	c.lt.d $f26,$f20
  4168a8:	0b 00 00 00 04 00 00 00 	bc1f 4168c0 <pow+0x320>
  4168b0:	7d 00 00 00 00 00 00 16 	neg.d $f0,$f22
  4168b8:	01 00 00 00 3a 5a 10 00 	j 4168e8 <pow+0x348>
  4168c0:	7d 00 00 00 00 00 00 16 	neg.d $f0,$f22
  4168c8:	77 00 00 00 00 00 00 18 	div.d $f0,$f24,$f0
  4168d0:	01 00 00 00 3a 5a 10 00 	j 4168e8 <pow+0x348>
  4168d8:	2a 00 00 00 e8 81 00 1c 	l.s $f0,-32280($28)
  4168e0:	2a 00 00 00 ec 81 01 1c 	l.s $f1,-32276($28)
  4168e8:	28 00 00 00 10 00 1f 1d 	lw $31,16($29)
  4168f0:	2a 00 00 00 38 00 1c 1d 	l.s $f28,56($29)
  4168f8:	2a 00 00 00 3c 00 1d 1d 	l.s $f29,60($29)
  416900:	2a 00 00 00 30 00 1a 1d 	l.s $f26,48($29)
  416908:	2a 00 00 00 34 00 1b 1d 	l.s $f27,52($29)
  416910:	2a 00 00 00 28 00 18 1d 	l.s $f24,40($29)
  416918:	2a 00 00 00 2c 00 19 1d 	l.s $f25,44($29)
  416920:	2a 00 00 00 20 00 16 1d 	l.s $f22,32($29)
  416928:	2a 00 00 00 24 00 17 1d 	l.s $f23,36($29)
  416930:	2a 00 00 00 18 00 14 1d 	l.s $f20,24($29)
  416938:	2a 00 00 00 1c 00 15 1d 	l.s $f21,28($29)
  416940:	43 00 00 00 40 00 1d 1d 	addiu $29,$29,64
  416948:	03 00 00 00 00 00 00 1f 	jr $31

00416950 <pow_P>:
  416950:	43 00 00 00 a8 ff 1d 1d 	addiu $29,$29,-88
  416958:	36 00 00 00 50 00 1a 1d 	s.s $f26,80($29)
  416960:	36 00 00 00 54 00 1b 1d 	s.s $f27,84($29)
  416968:	a5 00 00 00 00 00 00 1a 	mtc1 $0,$f26
  416970:	a5 00 00 00 00 00 00 1b 	mtc1 $0,$f27
  416978:	36 00 00 00 38 00 14 1d 	s.s $f20,56($29)
  416980:	36 00 00 00 3c 00 15 1d 	s.s $f21,60($29)
  416988:	7b 00 00 00 00 14 00 0c 	mov.d $f20,$f12
  416990:	36 00 00 00 40 00 16 1d 	s.s $f22,64($29)
  416998:	36 00 00 00 44 00 17 1d 	s.s $f23,68($29)
  4169a0:	7b 00 00 00 00 16 00 0e 	mov.d $f22,$f14
  4169a8:	34 00 00 00 30 00 1f 1d 	sw $31,48($29)
  4169b0:	91 00 00 00 00 00 1a 14 	c.eq.d $f20,$f26
  4169b8:	36 00 00 00 48 00 18 1d 	s.s $f24,72($29)
  4169c0:	36 00 00 00 4c 00 19 1d 	s.s $f25,76($29)
  4169c8:	0b 00 00 00 06 00 00 00 	bc1f 4169e8 <pow_P+0x98>
  4169d0:	93 00 00 00 00 00 16 1a 	c.lt.d $f26,$f22
  4169d8:	0c 00 00 00 26 00 00 00 	bc1t 416a78 <pow_P+0x128>
  4169e0:	01 00 00 00 a2 5a 10 00 	j 416a88 <pow_P+0x138>
  4169e8:	2a 00 00 00 00 82 18 1c 	l.s $f24,-32256($28)
  4169f0:	2a 00 00 00 04 82 19 1c 	l.s $f25,-32252($28)
  4169f8:	91 00 00 00 00 00 18 14 	c.eq.d $f20,$f24
  416a00:	0b 00 00 00 04 00 00 00 	bc1f 416a18 <pow_P+0xc8>
  416a08:	7b 00 00 00 00 00 00 18 	mov.d $f0,$f24
  416a10:	01 00 00 00 f6 5a 10 00 	j 416bd8 <pow_P+0x288>
  416a18:	7b 00 00 00 00 0c 00 14 	mov.d $f12,$f20
  416a20:	02 00 00 00 54 5b 10 00 	jal 416d50 <__finite>
  416a28:	06 00 00 00 06 00 00 02 	bne $2,$0,416a48 <pow_P+0xf8>
  416a30:	93 00 00 00 00 00 1a 16 	c.lt.d $f22,$f26
  416a38:	0c 00 00 00 0e 00 00 00 	bc1t 416a78 <pow_P+0x128>
  416a40:	01 00 00 00 a2 5a 10 00 	j 416a88 <pow_P+0x138>
  416a48:	2a 00 00 00 08 82 00 1c 	l.s $f0,-32248($28)
  416a50:	2a 00 00 00 0c 82 01 1c 	l.s $f1,-32244($28)
  416a58:	95 00 00 00 00 00 16 00 	c.le.d $f0,$f22
  416a60:	0b 00 00 00 0e 00 00 00 	bc1f 416aa0 <pow_P+0x150>
  416a68:	93 00 00 00 00 00 18 14 	c.lt.d $f20,$f24
  416a70:	0b 00 00 00 04 00 00 00 	bc1f 416a88 <pow_P+0x138>
  416a78:	7b 00 00 00 00 00 00 1a 	mov.d $f0,$f26
  416a80:	01 00 00 00 f6 5a 10 00 	j 416bd8 <pow_P+0x288>
  416a88:	2a 00 00 00 10 82 00 1c 	l.s $f0,-32240($28)
  416a90:	2a 00 00 00 14 82 01 1c 	l.s $f1,-32236($28)
  416a98:	01 00 00 00 f6 5a 10 00 	j 416bd8 <pow_P+0x288>
  416aa0:	a3 00 00 00 00 00 06 14 	mfc1 $6,$f20
  416aa8:	a3 00 00 00 00 00 07 15 	mfc1 $7,$f21
  416ab0:	43 00 00 00 10 00 04 1d 	addiu $4,$29,16
  416ab8:	02 00 00 00 34 5e 10 00 	jal 4178d0 <__log__D>
  416ac0:	28 00 00 00 b8 81 02 1c 	lw $2,-32328($28)
  416ac8:	43 00 00 00 20 00 04 1d 	addiu $4,$29,32
  416ad0:	36 00 00 00 20 00 16 1d 	s.s $f22,32($29)
  416ad8:	36 00 00 00 24 00 17 1d 	s.s $f23,36($29)
  416ae0:	05 00 00 00 02 00 00 02 	beq $2,$0,416af0 <pow_P+0x1a0>
  416ae8:	43 00 00 00 24 00 04 1d 	addiu $4,$29,36
  416af0:	28 00 00 00 00 00 02 04 	lw $2,0($4)
  416af8:	a2 00 00 00 00 f8 03 00 	lui $3,63488
  416b00:	4e 00 00 00 00 02 03 02 	and $2,$2,$3
  416b08:	34 00 00 00 00 00 02 04 	sw $2,0($4)
  416b10:	2a 00 00 00 18 00 00 1d 	l.s $f0,24($29)
  416b18:	2a 00 00 00 1c 00 01 1d 	l.s $f1,28($29)
  416b20:	75 00 00 00 00 00 00 16 	mul.d $f0,$f22,$f0
  416b28:	2a 00 00 00 20 00 02 1d 	l.s $f2,32($29)
  416b30:	2a 00 00 00 24 00 03 1d 	l.s $f3,36($29)
  416b38:	73 00 00 00 00 08 02 16 	sub.d $f8,$f22,$f2
  416b40:	2a 00 00 00 10 00 04 1d 	l.s $f4,16($29)
  416b48:	2a 00 00 00 14 00 05 1d 	l.s $f5,20($29)
  416b50:	75 00 00 00 00 06 04 08 	mul.d $f6,$f8,$f4
  416b58:	75 00 00 00 00 02 04 02 	mul.d $f2,$f2,$f4
  416b60:	71 00 00 00 00 00 06 00 	add.d $f0,$f0,$f6
  416b68:	71 00 00 00 00 0c 00 02 	add.d $f12,$f2,$f0
  416b70:	73 00 00 00 00 0e 0c 02 	sub.d $f14,$f2,$f12
  416b78:	36 00 00 00 28 00 08 1d 	s.s $f8,40($29)
  416b80:	36 00 00 00 2c 00 09 1d 	s.s $f9,44($29)
  416b88:	71 00 00 00 00 0e 00 0e 	add.d $f14,$f14,$f0
  416b90:	36 00 00 00 20 00 02 1d 	s.s $f2,32($29)
  416b98:	36 00 00 00 24 00 03 1d 	s.s $f3,36($29)
  416ba0:	36 00 00 00 28 00 00 1d 	s.s $f0,40($29)
  416ba8:	36 00 00 00 2c 00 01 1d 	s.s $f1,44($29)
  416bb0:	36 00 00 00 10 00 0c 1d 	s.s $f12,16($29)
  416bb8:	36 00 00 00 14 00 0d 1d 	s.s $f13,20($29)
  416bc0:	36 00 00 00 18 00 0e 1d 	s.s $f14,24($29)
  416bc8:	36 00 00 00 1c 00 0f 1d 	s.s $f15,28($29)
  416bd0:	02 00 00 00 42 60 10 00 	jal 418108 <__exp__D>
  416bd8:	28 00 00 00 30 00 1f 1d 	lw $31,48($29)
  416be0:	2a 00 00 00 50 00 1a 1d 	l.s $f26,80($29)
  416be8:	2a 00 00 00 54 00 1b 1d 	l.s $f27,84($29)
  416bf0:	2a 00 00 00 48 00 18 1d 	l.s $f24,72($29)
  416bf8:	2a 00 00 00 4c 00 19 1d 	l.s $f25,76($29)
  416c00:	2a 00 00 00 40 00 16 1d 	l.s $f22,64($29)
  416c08:	2a 00 00 00 44 00 17 1d 	l.s $f23,68($29)
  416c10:	2a 00 00 00 38 00 14 1d 	l.s $f20,56($29)
  416c18:	2a 00 00 00 3c 00 15 1d 	l.s $f21,60($29)
  416c20:	43 00 00 00 58 00 1d 1d 	addiu $29,$29,88
  416c28:	03 00 00 00 00 00 00 1f 	jr $31

00416c30 <__mpn_submul_1>:
  416c30:	43 00 00 00 f8 ff 1d 1d 	addiu $29,$29,-8
  416c38:	45 00 00 00 00 06 06 00 	subu $6,$0,$6
  416c40:	42 00 00 00 00 08 00 00 	addu $8,$0,$0
  416c48:	42 00 00 00 00 09 04 00 	addu $9,$0,$4
  416c50:	28 00 00 00 00 00 0a 05 	lw $10,0($5)
  416c58:	47 00 00 00 00 00 07 0a 	multu $10,$7
  416c60:	4c 00 00 00 00 03 00 00 	mflo $3
  416c68:	4a 00 00 00 00 04 00 00 	mfhi $4
  416c70:	42 00 00 00 00 03 08 03 	addu $3,$3,$8
  416c78:	5d 00 00 00 00 02 08 03 	sltu $2,$3,$8
  416c80:	42 00 00 00 00 08 02 04 	addu $8,$4,$2
  416c88:	28 00 00 00 00 00 02 09 	lw $2,0($9)
  416c90:	43 00 00 00 01 00 06 06 	addiu $6,$6,1
  416c98:	43 00 00 00 04 00 05 05 	addiu $5,$5,4
  416ca0:	45 00 00 00 00 03 03 02 	subu $3,$2,$3
  416ca8:	5d 00 00 00 00 02 03 02 	sltu $2,$2,$3
  416cb0:	42 00 00 00 00 08 02 08 	addu $8,$8,$2
  416cb8:	34 00 00 00 00 00 03 09 	sw $3,0($9)
  416cc0:	43 00 00 00 04 00 09 09 	addiu $9,$9,4
  416cc8:	06 00 00 00 e0 ff 00 06 	bne $6,$0,416c50 <__mpn_submul_1+0x20>
  416cd0:	42 00 00 00 00 02 08 00 	addu $2,$0,$8
  416cd8:	43 00 00 00 08 00 1d 1d 	addiu $29,$29,8
  416ce0:	03 00 00 00 00 00 00 1f 	jr $31
	...

00416cf0 <__brk>:
  416cf0:	28 00 00 00 34 82 02 1c 	lw $2,-32204($28)
  416cf8:	5d 00 00 00 00 01 02 04 	sltu $1,$4,$2
  416d00:	05 00 00 00 02 00 00 01 	beq $1,$0,416d10 <__brk+0x20>
  416d08:	42 00 00 00 00 04 02 00 	addu $4,$0,$2
  416d10:	43 00 00 00 11 00 02 00 	addiu $2,$0,17
  416d18:	a0 00 00 00 00 00 00 00 	syscall 
  416d20:	06 00 00 00 06 00 00 07 	bne $7,$0,416d40 <__brk+0x50>
  416d28:	34 00 00 00 30 82 04 1c 	sw $4,-32208($28)
  416d30:	42 00 00 00 00 02 00 00 	addu $2,$0,$0
  416d38:	03 00 00 00 00 00 00 1f 	jr $31
  416d40:	01 00 00 00 dc 2d 10 00 	j 40b770 <syscall_error>
	...

00416d50 <__finite>:
  416d50:	43 00 00 00 e0 ff 1d 1d 	addiu $29,$29,-32
  416d58:	36 00 00 00 18 00 14 1d 	s.s $f20,24($29)
  416d60:	36 00 00 00 1c 00 15 1d 	s.s $f21,28($29)
  416d68:	7b 00 00 00 00 14 00 0c 	mov.d $f20,$f12
  416d70:	34 00 00 00 10 00 10 1d 	sw $16,16($29)
  416d78:	42 00 00 00 00 10 00 00 	addu $16,$0,$0
  416d80:	34 00 00 00 14 00 1f 1d 	sw $31,20($29)
  416d88:	02 00 00 00 28 4e 10 00 	jal 4138a0 <__isinf>
  416d90:	06 00 00 00 06 00 00 02 	bne $2,$0,416db0 <__finite+0x60>
  416d98:	7b 00 00 00 00 0c 00 14 	mov.d $f12,$f20
  416da0:	02 00 00 00 08 4e 10 00 	jal 413820 <__isnan>
  416da8:	5e 00 00 00 01 00 10 02 	sltiu $16,$2,1
  416db0:	42 00 00 00 00 02 10 00 	addu $2,$0,$16
  416db8:	28 00 00 00 14 00 1f 1d 	lw $31,20($29)
  416dc0:	28 00 00 00 10 00 10 1d 	lw $16,16($29)
  416dc8:	2a 00 00 00 18 00 14 1d 	l.s $f20,24($29)
  416dd0:	2a 00 00 00 1c 00 15 1d 	l.s $f21,28($29)
  416dd8:	43 00 00 00 20 00 1d 1d 	addiu $29,$29,32
  416de0:	03 00 00 00 00 00 00 1f 	jr $31
	...

00416df0 <__copysign>:
  416df0:	a2 00 00 00 ff 7f 06 00 	lui $6,32767
  416df8:	51 00 00 00 ff ff 06 06 	ori $6,$6,65535
  416e00:	a3 00 00 00 00 00 02 0c 	mfc1 $2,$f12
  416e08:	a3 00 00 00 00 00 03 0d 	mfc1 $3,$f13
  416e10:	a3 00 00 00 00 00 04 0e 	mfc1 $4,$f14
  416e18:	a3 00 00 00 00 00 05 0f 	mfc1 $5,$f15
  416e20:	4e 00 00 00 00 03 06 03 	and $3,$3,$6
  416e28:	57 00 00 00 1f 04 05 00 	srl $4,$5,0x1f
  416e30:	55 00 00 00 1f 04 04 00 	sll $4,$4,0x1f
  416e38:	50 00 00 00 00 03 04 03 	or $3,$3,$4
  416e40:	a5 00 00 00 00 00 02 00 	mtc1 $2,$f0
  416e48:	a5 00 00 00 00 00 03 01 	mtc1 $3,$f1
  416e50:	03 00 00 00 00 00 00 1f 	jr $31
	...

00416e60 <__drem>:
  416e60:	43 00 00 00 c0 ff 1d 1d 	addiu $29,$29,-64
  416e68:	36 00 00 00 38 00 18 1d 	s.s $f24,56($29)
  416e70:	36 00 00 00 3c 00 19 1d 	s.s $f25,60($29)
  416e78:	7b 00 00 00 00 18 00 0c 	mov.d $f24,$f12
  416e80:	34 00 00 00 20 00 14 1d 	sw $20,32($29)
  416e88:	a2 00 00 00 ff 7f 14 00 	lui $20,32767
  416e90:	34 00 00 00 14 00 11 1d 	sw $17,20($29)
  416e98:	34 00 00 00 10 00 10 1d 	sw $16,16($29)
  416ea0:	a3 00 00 00 00 00 10 18 	mfc1 $16,$f24
  416ea8:	a3 00 00 00 00 00 11 19 	mfc1 $17,$f25
  416eb0:	51 00 00 00 ff ff 14 14 	ori $20,$20,65535
  416eb8:	34 00 00 00 1c 00 13 1d 	sw $19,28($29)
  416ec0:	34 00 00 00 18 00 12 1d 	sw $18,24($29)
  416ec8:	a3 00 00 00 00 00 12 0e 	mfc1 $18,$f14
  416ed0:	a3 00 00 00 00 00 13 0f 	mfc1 $19,$f15
  416ed8:	34 00 00 00 24 00 1f 1d 	sw $31,36($29)
  416ee0:	36 00 00 00 30 00 16 1d 	s.s $f22,48($29)
  416ee8:	36 00 00 00 34 00 17 1d 	s.s $f23,52($29)
  416ef0:	36 00 00 00 28 00 14 1d 	s.s $f20,40($29)
  416ef8:	36 00 00 00 2c 00 15 1d 	s.s $f21,44($29)
  416f00:	4e 00 00 00 00 13 14 13 	and $19,$19,$20
  416f08:	02 00 00 00 28 4e 10 00 	jal 4138a0 <__isinf>
  416f10:	06 00 00 00 0c 00 00 02 	bne $2,$0,416f48 <__drem+0xe8>
  416f18:	a5 00 00 00 00 00 00 00 	mtc1 $0,$f0
  416f20:	a5 00 00 00 00 00 00 01 	mtc1 $0,$f1
  416f28:	a5 00 00 00 00 00 12 04 	mtc1 $18,$f4
  416f30:	a5 00 00 00 00 00 13 05 	mtc1 $19,$f5
  416f38:	91 00 00 00 00 00 00 04 	c.eq.d $f4,$f0
  416f40:	0b 00 00 00 06 00 00 00 	bc1f 416f60 <__drem+0x100>
  416f48:	2a 00 00 00 40 82 00 1c 	l.s $f0,-32192($28)
  416f50:	2a 00 00 00 44 82 01 1c 	l.s $f1,-32188($28)
  416f58:	01 00 00 00 dc 5c 10 00 	j 417370 <__drem+0x510>
  416f60:	a5 00 00 00 00 00 12 0c 	mtc1 $18,$f12
  416f68:	a5 00 00 00 00 00 13 0d 	mtc1 $19,$f13
  416f70:	02 00 00 00 08 4e 10 00 	jal 413820 <__isnan>
  416f78:	05 00 00 00 06 00 00 02 	beq $2,$0,416f98 <__drem+0x138>
  416f80:	a5 00 00 00 00 00 12 00 	mtc1 $18,$f0
  416f88:	a5 00 00 00 00 00 13 01 	mtc1 $19,$f1
  416f90:	01 00 00 00 dc 5c 10 00 	j 417370 <__drem+0x510>
  416f98:	a5 00 00 00 00 00 12 0c 	mtc1 $18,$f12
  416fa0:	a5 00 00 00 00 00 13 0d 	mtc1 $19,$f13
  416fa8:	02 00 00 00 28 4e 10 00 	jal 4138a0 <__isinf>
  416fb0:	05 00 00 00 04 00 00 02 	beq $2,$0,416fc8 <__drem+0x168>
  416fb8:	7b 00 00 00 00 00 00 18 	mov.d $f0,$f24
  416fc0:	01 00 00 00 dc 5c 10 00 	j 417370 <__drem+0x510>
  416fc8:	57 00 00 00 14 02 13 00 	srl $2,$19,0x14
  416fd0:	4f 00 00 00 ff 07 02 02 	andi $2,$2,2047
  416fd8:	5c 00 00 00 02 00 02 02 	slti $2,$2,2
  416fe0:	05 00 00 00 20 00 00 02 	beq $2,$0,417068 <__drem+0x208>
  416fe8:	2a 00 00 00 48 82 0c 1c 	l.s $f12,-32184($28)
  416ff0:	2a 00 00 00 4c 82 0d 1c 	l.s $f13,-32180($28)
  416ff8:	43 00 00 00 36 00 06 00 	addiu $6,$0,54
  417000:	02 00 00 00 0c 61 10 00 	jal 418430 <ldexp>
  417008:	a5 00 00 00 00 00 12 02 	mtc1 $18,$f2
  417010:	a5 00 00 00 00 00 13 03 	mtc1 $19,$f3
  417018:	7b 00 00 00 00 14 00 00 	mov.d $f20,$f0
  417020:	75 00 00 00 00 16 02 14 	mul.d $f22,$f20,$f2
  417028:	7b 00 00 00 00 0c 00 18 	mov.d $f12,$f24
  417030:	7b 00 00 00 00 0e 00 16 	mov.d $f14,$f22
  417038:	02 00 00 00 98 5b 10 00 	jal 416e60 <__drem>
  417040:	75 00 00 00 00 0c 00 14 	mul.d $f12,$f20,$f0
  417048:	7b 00 00 00 00 0e 00 16 	mov.d $f14,$f22
  417050:	02 00 00 00 98 5b 10 00 	jal 416e60 <__drem>
  417058:	77 00 00 00 00 00 14 00 	div.d $f0,$f0,$f20
  417060:	01 00 00 00 dc 5c 10 00 	j 417370 <__drem+0x510>
  417068:	2a 00 00 00 50 82 00 1c 	l.s $f0,-32176($28)
  417070:	2a 00 00 00 54 82 01 1c 	l.s $f1,-32172($28)
  417078:	a5 00 00 00 00 00 12 04 	mtc1 $18,$f4
  417080:	a5 00 00 00 00 00 13 05 	mtc1 $19,$f5
  417088:	95 00 00 00 00 00 04 00 	c.le.d $f0,$f4
  417090:	0b 00 00 00 12 00 00 00 	bc1f 4170e0 <__drem+0x280>
  417098:	2a 00 00 00 58 82 0e 1c 	l.s $f14,-32168($28)
  4170a0:	2a 00 00 00 5c 82 0f 1c 	l.s $f15,-32164($28)
  4170a8:	a5 00 00 00 00 00 10 02 	mtc1 $16,$f2
  4170b0:	a5 00 00 00 00 00 11 03 	mtc1 $17,$f3
  4170b8:	77 00 00 00 00 0c 0e 02 	div.d $f12,$f2,$f14
  4170c0:	77 00 00 00 00 0e 0e 04 	div.d $f14,$f4,$f14
  4170c8:	02 00 00 00 98 5b 10 00 	jal 416e60 <__drem>
  4170d0:	71 00 00 00 00 00 00 00 	add.d $f0,$f0,$f0
  4170d8:	01 00 00 00 dc 5c 10 00 	j 417370 <__drem+0x510>
  4170e0:	2a 00 00 00 58 82 00 1c 	l.s $f0,-32168($28)
  4170e8:	2a 00 00 00 5c 82 01 1c 	l.s $f1,-32164($28)
  4170f0:	a5 00 00 00 00 00 12 04 	mtc1 $18,$f4
  4170f8:	a5 00 00 00 00 00 13 05 	mtc1 $19,$f5
  417100:	77 00 00 00 00 00 00 04 	div.d $f0,$f4,$f0
  417108:	a5 00 00 00 00 00 12 02 	mtc1 $18,$f2
  417110:	a5 00 00 00 00 00 13 03 	mtc1 $19,$f3
  417118:	71 00 00 00 00 02 02 04 	add.d $f2,$f4,$f2
  417120:	57 00 00 00 1f 0a 11 00 	srl $10,$17,0x1f
  417128:	4e 00 00 00 00 11 14 11 	and $17,$17,$20
  417130:	a5 00 00 00 00 00 10 04 	mtc1 $16,$f4
  417138:	a5 00 00 00 00 00 11 05 	mtc1 $17,$f5
  417140:	a3 00 00 00 00 00 06 02 	mfc1 $6,$f2
  417148:	a3 00 00 00 00 00 07 03 	mfc1 $7,$f3
  417150:	93 00 00 00 00 00 04 02 	c.lt.d $f2,$f4
  417158:	0b 00 00 00 52 00 00 00 	bc1f 4172a8 <__drem+0x448>
  417160:	57 00 00 00 14 02 07 00 	srl $2,$7,0x14
  417168:	4f 00 00 00 ff 07 09 02 	andi $9,$2,2047
  417170:	a2 00 00 00 0f 80 08 00 	lui $8,32783
  417178:	51 00 00 00 ff ff 08 08 	ori $8,$8,65535
  417180:	57 00 00 00 14 03 11 00 	srl $3,$17,0x14
  417188:	4f 00 00 00 ff 07 03 03 	andi $3,$3,2047
  417190:	45 00 00 00 00 03 09 03 	subu $3,$3,$9
  417198:	42 00 00 00 00 04 06 00 	addu $4,$0,$6
  4171a0:	42 00 00 00 00 05 07 00 	addu $5,$0,$7
  4171a8:	57 00 00 00 14 02 05 00 	srl $2,$5,0x14
  4171b0:	4e 00 00 00 00 05 08 05 	and $5,$5,$8
  4171b8:	4f 00 00 00 ff 07 02 02 	andi $2,$2,2047
  4171c0:	4f 00 00 00 ff ff 03 03 	andi $3,$3,65535
  4171c8:	42 00 00 00 00 02 03 02 	addu $2,$2,$3
  4171d0:	4f 00 00 00 ff 07 02 02 	andi $2,$2,2047
  4171d8:	55 00 00 00 14 02 02 00 	sll $2,$2,0x14
  4171e0:	50 00 00 00 00 05 02 05 	or $5,$5,$2
  4171e8:	a5 00 00 00 00 00 10 02 	mtc1 $16,$f2
  4171f0:	a5 00 00 00 00 00 11 03 	mtc1 $17,$f3
  4171f8:	a5 00 00 00 00 00 04 04 	mtc1 $4,$f4
  417200:	a5 00 00 00 00 00 05 05 	mtc1 $5,$f5
  417208:	93 00 00 00 00 00 04 02 	c.lt.d $f2,$f4
  417210:	0b 00 00 00 0e 00 00 00 	bc1f 417250 <__drem+0x3f0>
  417218:	57 00 00 00 14 02 05 00 	srl $2,$5,0x14
  417220:	4e 00 00 00 00 05 08 05 	and $5,$5,$8
  417228:	4f 00 00 00 ff 07 02 02 	andi $2,$2,2047
  417230:	43 00 00 00 ff ff 02 02 	addiu $2,$2,-1
  417238:	4f 00 00 00 ff 07 02 02 	andi $2,$2,2047
  417240:	55 00 00 00 14 02 02 00 	sll $2,$2,0x14
  417248:	50 00 00 00 00 05 02 05 	or $5,$5,$2
  417250:	a5 00 00 00 00 00 10 02 	mtc1 $16,$f2
  417258:	a5 00 00 00 00 00 11 03 	mtc1 $17,$f3
  417260:	a5 00 00 00 00 00 04 04 	mtc1 $4,$f4
  417268:	a5 00 00 00 00 00 05 05 	mtc1 $5,$f5
  417270:	73 00 00 00 00 02 04 02 	sub.d $f2,$f2,$f4
  417278:	a5 00 00 00 00 00 06 04 	mtc1 $6,$f4
  417280:	a5 00 00 00 00 00 07 05 	mtc1 $7,$f5
  417288:	a3 00 00 00 00 00 10 02 	mfc1 $16,$f2
  417290:	a3 00 00 00 00 00 11 03 	mfc1 $17,$f3
  417298:	93 00 00 00 00 00 02 04 	c.lt.d $f4,$f2
  4172a0:	0c 00 00 00 b6 ff 00 00 	bc1t 417180 <__drem+0x320>
  4172a8:	a5 00 00 00 00 00 10 02 	mtc1 $16,$f2
  4172b0:	a5 00 00 00 00 00 11 03 	mtc1 $17,$f3
  4172b8:	93 00 00 00 00 00 02 00 	c.lt.d $f0,$f2
  4172c0:	0b 00 00 00 18 00 00 00 	bc1f 417328 <__drem+0x4c8>
  4172c8:	a5 00 00 00 00 00 12 04 	mtc1 $18,$f4
  4172d0:	a5 00 00 00 00 00 13 05 	mtc1 $19,$f5
  4172d8:	73 00 00 00 00 04 04 02 	sub.d $f4,$f2,$f4
  4172e0:	95 00 00 00 00 00 04 00 	c.le.d $f0,$f4
  4172e8:	a3 00 00 00 00 00 10 04 	mfc1 $16,$f4
  4172f0:	a3 00 00 00 00 00 11 05 	mfc1 $17,$f5
  4172f8:	0b 00 00 00 0a 00 00 00 	bc1f 417328 <__drem+0x4c8>
  417300:	a5 00 00 00 00 00 12 02 	mtc1 $18,$f2
  417308:	a5 00 00 00 00 00 13 03 	mtc1 $19,$f3
  417310:	73 00 00 00 00 02 02 04 	sub.d $f2,$f4,$f2
  417318:	a3 00 00 00 00 00 10 02 	mfc1 $16,$f2
  417320:	a3 00 00 00 00 00 11 03 	mfc1 $17,$f3
  417328:	a2 00 00 00 ff 7f 03 00 	lui $3,32767
  417330:	51 00 00 00 ff ff 03 03 	ori $3,$3,65535
  417338:	57 00 00 00 1f 02 11 00 	srl $2,$17,0x1f
  417340:	4e 00 00 00 00 11 03 11 	and $17,$17,$3
  417348:	52 00 00 00 00 02 0a 02 	xor $2,$2,$10
  417350:	55 00 00 00 1f 02 02 00 	sll $2,$2,0x1f
  417358:	50 00 00 00 00 11 02 11 	or $17,$17,$2
  417360:	a5 00 00 00 00 00 10 00 	mtc1 $16,$f0
  417368:	a5 00 00 00 00 00 11 01 	mtc1 $17,$f1
  417370:	28 00 00 00 24 00 1f 1d 	lw $31,36($29)
  417378:	28 00 00 00 20 00 14 1d 	lw $20,32($29)
  417380:	28 00 00 00 1c 00 13 1d 	lw $19,28($29)
  417388:	28 00 00 00 18 00 12 1d 	lw $18,24($29)
  417390:	28 00 00 00 14 00 11 1d 	lw $17,20($29)
  417398:	28 00 00 00 10 00 10 1d 	lw $16,16($29)
  4173a0:	2a 00 00 00 38 00 18 1d 	l.s $f24,56($29)
  4173a8:	2a 00 00 00 3c 00 19 1d 	l.s $f25,60($29)
  4173b0:	2a 00 00 00 30 00 16 1d 	l.s $f22,48($29)
  4173b8:	2a 00 00 00 34 00 17 1d 	l.s $f23,52($29)
  4173c0:	2a 00 00 00 28 00 14 1d 	l.s $f20,40($29)
  4173c8:	2a 00 00 00 2c 00 15 1d 	l.s $f21,44($29)
  4173d0:	43 00 00 00 40 00 1d 1d 	addiu $29,$29,64
  4173d8:	03 00 00 00 00 00 00 1f 	jr $31

004173e0 <log>:
  4173e0:	a5 00 00 00 00 00 00 00 	mtc1 $0,$f0
  4173e8:	a5 00 00 00 00 00 00 01 	mtc1 $0,$f1
  4173f0:	43 00 00 00 c8 ff 1d 1d 	addiu $29,$29,-56
  4173f8:	36 00 00 00 30 00 16 1d 	s.s $f22,48($29)
  417400:	36 00 00 00 34 00 17 1d 	s.s $f23,52($29)
  417408:	2a 00 00 00 80 82 16 1c 	l.s $f22,-32128($28)
  417410:	2a 00 00 00 84 82 17 1c 	l.s $f23,-32124($28)
  417418:	36 00 00 00 28 00 14 1d 	s.s $f20,40($29)
  417420:	36 00 00 00 2c 00 15 1d 	s.s $f21,44($29)
  417428:	7b 00 00 00 00 14 00 0c 	mov.d $f20,$f12
  417430:	34 00 00 00 24 00 1f 1d 	sw $31,36($29)
  417438:	34 00 00 00 20 00 10 1d 	sw $16,32($29)
  417440:	95 00 00 00 00 00 00 14 	c.le.d $f20,$f0
  417448:	36 00 00 00 18 00 16 1d 	s.s $f22,24($29)
  417450:	36 00 00 00 1c 00 17 1d 	s.s $f23,28($29)
  417458:	0b 00 00 00 10 00 00 00 	bc1f 4174a0 <log+0xc0>
  417460:	91 00 00 00 00 00 00 14 	c.eq.d $f20,$f0
  417468:	0b 00 00 00 06 00 00 00 	bc1f 417488 <log+0xa8>
  417470:	2a 00 00 00 b0 82 00 1c 	l.s $f0,-32080($28)
  417478:	2a 00 00 00 b4 82 01 1c 	l.s $f1,-32076($28)
  417480:	01 00 00 00 24 5e 10 00 	j 417890 <log+0x4b0>
  417488:	2a 00 00 00 a8 82 00 1c 	l.s $f0,-32088($28)
  417490:	2a 00 00 00 ac 82 01 1c 	l.s $f1,-32084($28)
  417498:	01 00 00 00 24 5e 10 00 	j 417890 <log+0x4b0>
  4174a0:	7b 00 00 00 00 0c 00 14 	mov.d $f12,$f20
  4174a8:	02 00 00 00 54 5b 10 00 	jal 416d50 <__finite>
  4174b0:	06 00 00 00 04 00 00 02 	bne $2,$0,4174c8 <log+0xe8>
  4174b8:	71 00 00 00 00 00 14 14 	add.d $f0,$f20,$f20
  4174c0:	01 00 00 00 24 5e 10 00 	j 417890 <log+0x4b0>
  4174c8:	7b 00 00 00 00 0c 00 14 	mov.d $f12,$f20
  4174d0:	02 00 00 00 fc 61 10 00 	jal 4187f0 <__logb>
  4174d8:	85 00 00 00 00 02 00 00 	cvt.w.d $f2,$f0
  4174e0:	a3 00 00 00 00 00 10 02 	mfc1 $16,$f2
  4174e8:	7b 00 00 00 00 0c 00 14 	mov.d $f12,$f20
  4174f0:	45 00 00 00 00 06 10 00 	subu $6,$0,$16
  4174f8:	02 00 00 00 0c 61 10 00 	jal 418430 <ldexp>
  417500:	7b 00 00 00 00 14 00 00 	mov.d $f20,$f0
  417508:	43 00 00 00 02 fc 02 00 	addiu $2,$0,-1022
  417510:	06 00 00 00 12 00 02 10 	bne $16,$2,417560 <log+0x180>
  417518:	7b 00 00 00 00 0c 00 14 	mov.d $f12,$f20
  417520:	02 00 00 00 fc 61 10 00 	jal 4187f0 <__logb>
  417528:	85 00 00 00 00 02 00 00 	cvt.w.d $f2,$f0
  417530:	a3 00 00 00 00 00 06 02 	mfc1 $6,$f2
  417538:	43 00 00 00 02 fc 10 06 	addiu $16,$6,-1022
  417540:	7b 00 00 00 00 0c 00 14 	mov.d $f12,$f20
  417548:	45 00 00 00 00 06 06 00 	subu $6,$0,$6
  417550:	02 00 00 00 0c 61 10 00 	jal 418430 <ldexp>
  417558:	7b 00 00 00 00 14 00 00 	mov.d $f20,$f0
  417560:	73 00 00 00 00 00 16 14 	sub.d $f0,$f20,$f22
  417568:	2a 00 00 00 88 82 02 1c 	l.s $f2,-32120($28)
  417570:	2a 00 00 00 8c 82 03 1c 	l.s $f3,-32116($28)
  417578:	75 00 00 00 00 00 02 00 	mul.d $f0,$f0,$f2
  417580:	2a 00 00 00 90 82 02 1c 	l.s $f2,-32112($28)
  417588:	2a 00 00 00 94 82 03 1c 	l.s $f3,-32108($28)
  417590:	71 00 00 00 00 00 02 00 	add.d $f0,$f0,$f2
  417598:	2a 00 00 00 98 82 02 1c 	l.s $f2,-32104($28)
  4175a0:	2a 00 00 00 9c 82 03 1c 	l.s $f3,-32100($28)
  4175a8:	85 00 00 00 00 04 00 00 	cvt.w.d $f4,$f0
  4175b0:	a3 00 00 00 00 00 06 04 	mfc1 $6,$f4
  4175b8:	a5 00 00 00 00 00 06 00 	mtc1 $6,$f0
  4175c0:	83 00 00 00 00 00 00 00 	cvt.d.w $f0,$f0
  4175c8:	75 00 00 00 00 00 02 00 	mul.d $f0,$f0,$f2
  4175d0:	71 00 00 00 00 0a 16 00 	add.d $f10,$f0,$f22
  4175d8:	73 00 00 00 00 08 0a 14 	sub.d $f8,$f20,$f10
  4175e0:	71 00 00 00 00 00 0a 0a 	add.d $f0,$f10,$f10
  4175e8:	71 00 00 00 00 00 08 00 	add.d $f0,$f0,$f8
  4175f0:	77 00 00 00 00 14 00 16 	div.d $f20,$f22,$f0
  4175f8:	71 00 00 00 00 00 08 08 	add.d $f0,$f8,$f8
  417600:	75 00 00 00 00 06 14 00 	mul.d $f6,$f0,$f20
  417608:	75 00 00 00 00 04 06 06 	mul.d $f4,$f6,$f6
  417610:	2a 00 00 00 78 82 00 1c 	l.s $f0,-32136($28)
  417618:	2a 00 00 00 7c 82 01 1c 	l.s $f1,-32132($28)
  417620:	75 00 00 00 00 00 00 04 	mul.d $f0,$f4,$f0
  417628:	2a 00 00 00 70 82 02 1c 	l.s $f2,-32144($28)
  417630:	2a 00 00 00 74 82 03 1c 	l.s $f3,-32140($28)
  417638:	71 00 00 00 00 00 02 00 	add.d $f0,$f0,$f2
  417640:	75 00 00 00 00 00 00 04 	mul.d $f0,$f4,$f0
  417648:	2a 00 00 00 68 82 02 1c 	l.s $f2,-32152($28)
  417650:	2a 00 00 00 6c 82 03 1c 	l.s $f3,-32148($28)
  417658:	71 00 00 00 00 00 02 00 	add.d $f0,$f0,$f2
  417660:	75 00 00 00 00 00 00 04 	mul.d $f0,$f4,$f0
  417668:	75 00 00 00 00 04 04 06 	mul.d $f4,$f6,$f4
  417670:	2a 00 00 00 60 82 02 1c 	l.s $f2,-32160($28)
  417678:	2a 00 00 00 64 82 03 1c 	l.s $f3,-32156($28)
  417680:	71 00 00 00 00 00 02 00 	add.d $f0,$f0,$f2
  417688:	75 00 00 00 00 0e 00 04 	mul.d $f14,$f4,$f0
  417690:	50 00 00 00 00 02 06 10 	or $2,$16,$6
  417698:	05 00 00 00 16 00 00 02 	beq $2,$0,4176f8 <log+0x318>
  4176a0:	2a 00 00 00 a0 82 02 1c 	l.s $f2,-32096($28)
  4176a8:	2a 00 00 00 a4 82 03 1c 	l.s $f3,-32092($28)
  4176b0:	71 00 00 00 00 00 02 06 	add.d $f0,$f6,$f2
  4176b8:	36 00 00 00 10 00 00 1d 	s.s $f0,16($29)
  4176c0:	36 00 00 00 14 00 01 1d 	s.s $f1,20($29)
  4176c8:	2a 00 00 00 10 00 00 1d 	l.s $f0,16($29)
  4176d0:	2a 00 00 00 14 00 01 1d 	l.s $f1,20($29)
  4176d8:	73 00 00 00 00 00 02 00 	sub.d $f0,$f0,$f2
  4176e0:	36 00 00 00 10 00 00 1d 	s.s $f0,16($29)
  4176e8:	36 00 00 00 14 00 01 1d 	s.s $f1,20($29)
  4176f0:	01 00 00 00 d2 5d 10 00 	j 417748 <log+0x368>
  4176f8:	28 00 00 00 18 00 02 1d 	lw $2,24($29)
  417700:	43 00 00 00 10 00 04 1d 	addiu $4,$29,16
  417708:	36 00 00 00 10 00 06 1d 	s.s $f6,16($29)
  417710:	36 00 00 00 14 00 07 1d 	s.s $f7,20($29)
  417718:	05 00 00 00 02 00 00 02 	beq $2,$0,417728 <log+0x348>
  417720:	43 00 00 00 14 00 04 1d 	addiu $4,$29,20
  417728:	28 00 00 00 00 00 02 04 	lw $2,0($4)
  417730:	a2 00 00 00 00 f8 03 00 	lui $3,63488
  417738:	4e 00 00 00 00 02 03 02 	and $2,$2,$3
  417740:	34 00 00 00 00 00 02 04 	sw $2,0($4)
  417748:	2a 00 00 00 10 00 00 1d 	l.s $f0,16($29)
  417750:	2a 00 00 00 14 00 01 1d 	l.s $f1,20($29)
  417758:	75 00 00 00 00 00 00 0a 	mul.d $f0,$f10,$f0
  417760:	2a 00 00 00 10 00 04 1d 	l.s $f4,16($29)
  417768:	2a 00 00 00 14 00 05 1d 	l.s $f5,20($29)
  417770:	75 00 00 00 00 04 04 08 	mul.d $f4,$f8,$f4
  417778:	73 00 00 00 00 00 00 08 	sub.d $f0,$f8,$f0
  417780:	71 00 00 00 00 00 00 00 	add.d $f0,$f0,$f0
  417788:	73 00 00 00 00 00 04 00 	sub.d $f0,$f0,$f4
  417790:	75 00 00 00 00 0c 14 00 	mul.d $f12,$f0,$f20
  417798:	a2 00 00 00 01 10 02 00 	lui $2,4097
  4177a0:	43 00 00 00 28 1e 02 02 	addiu $2,$2,7720
  4177a8:	2a 00 00 00 00 00 02 02 	l.s $f2,0($2)
  4177b0:	2a 00 00 00 04 00 03 02 	l.s $f3,4($2)
  4177b8:	a5 00 00 00 00 00 10 08 	mtc1 $16,$f8
  4177c0:	83 00 00 00 00 08 00 08 	cvt.d.w $f8,$f8
  4177c8:	75 00 00 00 00 02 02 08 	mul.d $f2,$f8,$f2
  4177d0:	55 00 00 00 03 03 06 00 	sll $3,$6,0x3
  4177d8:	42 00 00 00 00 02 03 02 	addu $2,$2,$3
  4177e0:	2a 00 00 00 00 fc 00 02 	l.s $f0,-1024($2)
  4177e8:	2a 00 00 00 04 fc 01 02 	l.s $f1,-1020($2)
  4177f0:	71 00 00 00 00 02 00 02 	add.d $f2,$f2,$f0
  4177f8:	2a 00 00 00 10 00 04 1d 	l.s $f4,16($29)
  417800:	2a 00 00 00 14 00 05 1d 	l.s $f5,20($29)
  417808:	a2 00 00 00 01 10 01 00 	lui $1,4097
  417810:	2a 00 00 00 30 22 06 01 	l.s $f6,8752($1)
  417818:	2a 00 00 00 34 22 07 01 	l.s $f7,8756($1)
  417820:	71 00 00 00 00 02 04 02 	add.d $f2,$f2,$f4
  417828:	a2 00 00 00 01 10 01 00 	lui $1,4097
  417830:	42 00 00 00 00 01 01 03 	addu $1,$3,$1
  417838:	2a 00 00 00 30 1e 00 01 	l.s $f0,7728($1)
  417840:	2a 00 00 00 34 1e 01 01 	l.s $f1,7732($1)
  417848:	75 00 00 00 00 08 06 08 	mul.d $f8,$f8,$f6
  417850:	71 00 00 00 00 00 00 0c 	add.d $f0,$f12,$f0
  417858:	71 00 00 00 00 0c 0e 00 	add.d $f12,$f0,$f14
  417860:	36 00 00 00 10 00 02 1d 	s.s $f2,16($29)
  417868:	36 00 00 00 14 00 03 1d 	s.s $f3,20($29)
  417870:	71 00 00 00 00 0c 08 0c 	add.d $f12,$f12,$f8
  417878:	2a 00 00 00 10 00 00 1d 	l.s $f0,16($29)
  417880:	2a 00 00 00 14 00 01 1d 	l.s $f1,20($29)
  417888:	71 00 00 00 00 00 00 0c 	add.d $f0,$f12,$f0
  417890:	28 00 00 00 24 00 1f 1d 	lw $31,36($29)
  417898:	28 00 00 00 20 00 10 1d 	lw $16,32($29)
  4178a0:	2a 00 00 00 30 00 16 1d 	l.s $f22,48($29)
  4178a8:	2a 00 00 00 34 00 17 1d 	l.s $f23,52($29)
  4178b0:	2a 00 00 00 28 00 14 1d 	l.s $f20,40($29)
  4178b8:	2a 00 00 00 2c 00 15 1d 	l.s $f21,44($29)
  4178c0:	43 00 00 00 38 00 1d 1d 	addiu $29,$29,56
  4178c8:	03 00 00 00 00 00 00 1f 	jr $31

004178d0 <__log__D>:
  4178d0:	43 00 00 00 b0 ff 1d 1d 	addiu $29,$29,-80
  4178d8:	36 00 00 00 48 00 16 1d 	s.s $f22,72($29)
  4178e0:	36 00 00 00 4c 00 17 1d 	s.s $f23,76($29)
  4178e8:	2a 00 00 00 b8 82 16 1c 	l.s $f22,-32072($28)
  4178f0:	2a 00 00 00 bc 82 17 1c 	l.s $f23,-32068($28)
  4178f8:	36 00 00 00 40 00 14 1d 	s.s $f20,64($29)
  417900:	36 00 00 00 44 00 15 1d 	s.s $f21,68($29)
  417908:	a5 00 00 00 00 00 06 14 	mtc1 $6,$f20
  417910:	a5 00 00 00 00 00 07 15 	mtc1 $7,$f21
  417918:	34 00 00 00 34 00 11 1d 	sw $17,52($29)
  417920:	42 00 00 00 00 11 04 00 	addu $17,$0,$4
  417928:	34 00 00 00 38 00 1f 1d 	sw $31,56($29)
  417930:	34 00 00 00 30 00 10 1d 	sw $16,48($29)
  417938:	7b 00 00 00 00 0c 00 14 	mov.d $f12,$f20
  417940:	36 00 00 00 28 00 16 1d 	s.s $f22,40($29)
  417948:	36 00 00 00 2c 00 17 1d 	s.s $f23,44($29)
  417950:	02 00 00 00 fc 61 10 00 	jal 4187f0 <__logb>
  417958:	85 00 00 00 00 02 00 00 	cvt.w.d $f2,$f0
  417960:	a3 00 00 00 00 00 10 02 	mfc1 $16,$f2
  417968:	7b 00 00 00 00 0c 00 14 	mov.d $f12,$f20
  417970:	45 00 00 00 00 06 10 00 	subu $6,$0,$16
  417978:	02 00 00 00 0c 61 10 00 	jal 418430 <ldexp>
  417980:	7b 00 00 00 00 14 00 00 	mov.d $f20,$f0
  417988:	43 00 00 00 02 fc 02 00 	addiu $2,$0,-1022
  417990:	06 00 00 00 12 00 02 10 	bne $16,$2,4179e0 <__log__D+0x110>
  417998:	7b 00 00 00 00 0c 00 14 	mov.d $f12,$f20
  4179a0:	02 00 00 00 fc 61 10 00 	jal 4187f0 <__logb>
  4179a8:	85 00 00 00 00 02 00 00 	cvt.w.d $f2,$f0
  4179b0:	a3 00 00 00 00 00 06 02 	mfc1 $6,$f2
  4179b8:	43 00 00 00 02 fc 10 06 	addiu $16,$6,-1022
  4179c0:	7b 00 00 00 00 0c 00 14 	mov.d $f12,$f20
  4179c8:	45 00 00 00 00 06 06 00 	subu $6,$0,$6
  4179d0:	02 00 00 00 0c 61 10 00 	jal 418430 <ldexp>
  4179d8:	7b 00 00 00 00 14 00 00 	mov.d $f20,$f0
  4179e0:	73 00 00 00 00 00 16 14 	sub.d $f0,$f20,$f22
  4179e8:	2a 00 00 00 c0 82 02 1c 	l.s $f2,-32064($28)
  4179f0:	2a 00 00 00 c4 82 03 1c 	l.s $f3,-32060($28)
  4179f8:	75 00 00 00 00 00 02 00 	mul.d $f0,$f0,$f2
  417a00:	2a 00 00 00 c8 82 02 1c 	l.s $f2,-32056($28)
  417a08:	2a 00 00 00 cc 82 03 1c 	l.s $f3,-32052($28)
  417a10:	71 00 00 00 00 00 02 00 	add.d $f0,$f0,$f2
  417a18:	2a 00 00 00 d0 82 02 1c 	l.s $f2,-32048($28)
  417a20:	2a 00 00 00 d4 82 03 1c 	l.s $f3,-32044($28)
  417a28:	85 00 00 00 00 04 00 00 	cvt.w.d $f4,$f0
  417a30:	a3 00 00 00 00 00 06 04 	mfc1 $6,$f4
  417a38:	a5 00 00 00 00 00 06 00 	mtc1 $6,$f0
  417a40:	83 00 00 00 00 00 00 00 	cvt.d.w $f0,$f0
  417a48:	75 00 00 00 00 00 02 00 	mul.d $f0,$f0,$f2
  417a50:	71 00 00 00 00 0a 16 00 	add.d $f10,$f0,$f22
  417a58:	73 00 00 00 00 08 0a 14 	sub.d $f8,$f20,$f10
  417a60:	71 00 00 00 00 00 0a 0a 	add.d $f0,$f10,$f10
  417a68:	71 00 00 00 00 00 08 00 	add.d $f0,$f0,$f8
  417a70:	77 00 00 00 00 14 00 16 	div.d $f20,$f22,$f0
  417a78:	71 00 00 00 00 00 08 08 	add.d $f0,$f8,$f8
  417a80:	75 00 00 00 00 06 14 00 	mul.d $f6,$f0,$f20
  417a88:	75 00 00 00 00 04 06 06 	mul.d $f4,$f6,$f6
  417a90:	2a 00 00 00 78 82 00 1c 	l.s $f0,-32136($28)
  417a98:	2a 00 00 00 7c 82 01 1c 	l.s $f1,-32132($28)
  417aa0:	75 00 00 00 00 00 00 04 	mul.d $f0,$f4,$f0
  417aa8:	2a 00 00 00 70 82 02 1c 	l.s $f2,-32144($28)
  417ab0:	2a 00 00 00 74 82 03 1c 	l.s $f3,-32140($28)
  417ab8:	71 00 00 00 00 00 02 00 	add.d $f0,$f0,$f2
  417ac0:	75 00 00 00 00 00 00 04 	mul.d $f0,$f4,$f0
  417ac8:	2a 00 00 00 68 82 02 1c 	l.s $f2,-32152($28)
  417ad0:	2a 00 00 00 6c 82 03 1c 	l.s $f3,-32148($28)
  417ad8:	71 00 00 00 00 00 02 00 	add.d $f0,$f0,$f2
  417ae0:	75 00 00 00 00 00 00 04 	mul.d $f0,$f4,$f0
  417ae8:	75 00 00 00 00 04 04 06 	mul.d $f4,$f6,$f4
  417af0:	2a 00 00 00 60 82 02 1c 	l.s $f2,-32160($28)
  417af8:	2a 00 00 00 64 82 03 1c 	l.s $f3,-32156($28)
  417b00:	71 00 00 00 00 00 02 00 	add.d $f0,$f0,$f2
  417b08:	75 00 00 00 00 0e 00 04 	mul.d $f14,$f4,$f0
  417b10:	50 00 00 00 00 02 06 10 	or $2,$16,$6
  417b18:	05 00 00 00 16 00 00 02 	beq $2,$0,417b78 <__log__D+0x2a8>
  417b20:	2a 00 00 00 d8 82 02 1c 	l.s $f2,-32040($28)
  417b28:	2a 00 00 00 dc 82 03 1c 	l.s $f3,-32036($28)
  417b30:	71 00 00 00 00 00 02 06 	add.d $f0,$f6,$f2
  417b38:	36 00 00 00 10 00 00 1d 	s.s $f0,16($29)
  417b40:	36 00 00 00 14 00 01 1d 	s.s $f1,20($29)
  417b48:	2a 00 00 00 10 00 00 1d 	l.s $f0,16($29)
  417b50:	2a 00 00 00 14 00 01 1d 	l.s $f1,20($29)
  417b58:	73 00 00 00 00 00 02 00 	sub.d $f0,$f0,$f2
  417b60:	36 00 00 00 10 00 00 1d 	s.s $f0,16($29)
  417b68:	36 00 00 00 14 00 01 1d 	s.s $f1,20($29)
  417b70:	01 00 00 00 f2 5e 10 00 	j 417bc8 <__log__D+0x2f8>
  417b78:	28 00 00 00 28 00 02 1d 	lw $2,40($29)
  417b80:	43 00 00 00 10 00 04 1d 	addiu $4,$29,16
  417b88:	36 00 00 00 10 00 06 1d 	s.s $f6,16($29)
  417b90:	36 00 00 00 14 00 07 1d 	s.s $f7,20($29)
  417b98:	05 00 00 00 02 00 00 02 	beq $2,$0,417ba8 <__log__D+0x2d8>
  417ba0:	43 00 00 00 14 00 04 1d 	addiu $4,$29,20
  417ba8:	28 00 00 00 00 00 02 04 	lw $2,0($4)
  417bb0:	a2 00 00 00 00 f8 03 00 	lui $3,63488
  417bb8:	4e 00 00 00 00 02 03 02 	and $2,$2,$3
  417bc0:	34 00 00 00 00 00 02 04 	sw $2,0($4)
  417bc8:	2a 00 00 00 10 00 00 1d 	l.s $f0,16($29)
  417bd0:	2a 00 00 00 14 00 01 1d 	l.s $f1,20($29)
  417bd8:	75 00 00 00 00 00 00 0a 	mul.d $f0,$f10,$f0
  417be0:	2a 00 00 00 10 00 02 1d 	l.s $f2,16($29)
  417be8:	2a 00 00 00 14 00 03 1d 	l.s $f3,20($29)
  417bf0:	75 00 00 00 00 02 02 08 	mul.d $f2,$f8,$f2
  417bf8:	73 00 00 00 00 00 00 08 	sub.d $f0,$f8,$f0
  417c00:	71 00 00 00 00 00 00 00 	add.d $f0,$f0,$f0
  417c08:	73 00 00 00 00 00 02 00 	sub.d $f0,$f0,$f2
  417c10:	75 00 00 00 00 0c 14 00 	mul.d $f12,$f0,$f20
  417c18:	a2 00 00 00 01 10 02 00 	lui $2,4097
  417c20:	43 00 00 00 28 1e 02 02 	addiu $2,$2,7720
  417c28:	55 00 00 00 03 03 06 00 	sll $3,$6,0x3
  417c30:	2a 00 00 00 00 00 02 02 	l.s $f2,0($2)
  417c38:	2a 00 00 00 04 00 03 02 	l.s $f3,4($2)
  417c40:	a2 00 00 00 01 10 01 00 	lui $1,4097
  417c48:	42 00 00 00 00 01 01 03 	addu $1,$3,$1
  417c50:	2a 00 00 00 30 1e 00 01 	l.s $f0,7728($1)
  417c58:	2a 00 00 00 34 1e 01 01 	l.s $f1,7732($1)
  417c60:	a5 00 00 00 00 00 10 06 	mtc1 $16,$f6
  417c68:	83 00 00 00 00 06 00 06 	cvt.d.w $f6,$f6
  417c70:	75 00 00 00 00 02 02 06 	mul.d $f2,$f6,$f2
  417c78:	71 00 00 00 00 0c 00 0c 	add.d $f12,$f12,$f0
  417c80:	42 00 00 00 00 02 03 02 	addu $2,$2,$3
  417c88:	2a 00 00 00 00 fc 00 02 	l.s $f0,-1024($2)
  417c90:	2a 00 00 00 04 fc 01 02 	l.s $f1,-1020($2)
  417c98:	a2 00 00 00 01 10 01 00 	lui $1,4097
  417ca0:	2a 00 00 00 30 22 04 01 	l.s $f4,8752($1)
  417ca8:	2a 00 00 00 34 22 05 01 	l.s $f5,8756($1)
  417cb0:	71 00 00 00 00 02 00 02 	add.d $f2,$f2,$f0
  417cb8:	75 00 00 00 00 06 04 06 	mul.d $f6,$f6,$f4
  417cc0:	71 00 00 00 00 0c 0e 0c 	add.d $f12,$f12,$f14
  417cc8:	2a 00 00 00 10 00 00 1d 	l.s $f0,16($29)
  417cd0:	2a 00 00 00 14 00 01 1d 	l.s $f1,20($29)
  417cd8:	71 00 00 00 00 02 00 02 	add.d $f2,$f2,$f0
  417ce0:	71 00 00 00 00 0c 06 0c 	add.d $f12,$f12,$f6
  417ce8:	36 00 00 00 10 00 02 1d 	s.s $f2,16($29)
  417cf0:	36 00 00 00 14 00 03 1d 	s.s $f3,20($29)
  417cf8:	2a 00 00 00 10 00 00 1d 	l.s $f0,16($29)
  417d00:	2a 00 00 00 14 00 01 1d 	l.s $f1,20($29)
  417d08:	71 00 00 00 00 00 00 0c 	add.d $f0,$f12,$f0
  417d10:	28 00 00 00 28 00 02 1d 	lw $2,40($29)
  417d18:	43 00 00 00 18 00 04 1d 	addiu $4,$29,24
  417d20:	36 00 00 00 18 00 00 1d 	s.s $f0,24($29)
  417d28:	36 00 00 00 1c 00 01 1d 	s.s $f1,28($29)
  417d30:	05 00 00 00 02 00 00 02 	beq $2,$0,417d40 <__log__D+0x470>
  417d38:	43 00 00 00 1c 00 04 1d 	addiu $4,$29,28
  417d40:	28 00 00 00 00 00 02 04 	lw $2,0($4)
  417d48:	a2 00 00 00 00 f8 03 00 	lui $3,63488
  417d50:	4e 00 00 00 00 02 03 02 	and $2,$2,$3
  417d58:	34 00 00 00 00 00 02 04 	sw $2,0($4)
  417d60:	2a 00 00 00 10 00 00 1d 	l.s $f0,16($29)
  417d68:	2a 00 00 00 14 00 01 1d 	l.s $f1,20($29)
  417d70:	2a 00 00 00 18 00 02 1d 	l.s $f2,24($29)
  417d78:	2a 00 00 00 1c 00 03 1d 	l.s $f3,28($29)
  417d80:	73 00 00 00 00 00 02 00 	sub.d $f0,$f0,$f2
  417d88:	71 00 00 00 00 00 0c 00 	add.d $f0,$f0,$f12
  417d90:	36 00 00 00 20 00 00 1d 	s.s $f0,32($29)
  417d98:	36 00 00 00 24 00 01 1d 	s.s $f1,36($29)
  417da0:	28 00 00 00 18 00 02 1d 	lw $2,24($29)
  417da8:	28 00 00 00 1c 00 03 1d 	lw $3,28($29)
  417db0:	28 00 00 00 20 00 04 1d 	lw $4,32($29)
  417db8:	28 00 00 00 24 00 05 1d 	lw $5,36($29)
  417dc0:	34 00 00 00 00 00 02 11 	sw $2,0($17)
  417dc8:	34 00 00 00 04 00 03 11 	sw $3,4($17)
  417dd0:	34 00 00 00 08 00 04 11 	sw $4,8($17)
  417dd8:	34 00 00 00 0c 00 05 11 	sw $5,12($17)
  417de0:	42 00 00 00 00 02 11 00 	addu $2,$0,$17
  417de8:	28 00 00 00 38 00 1f 1d 	lw $31,56($29)
  417df0:	28 00 00 00 34 00 11 1d 	lw $17,52($29)
  417df8:	28 00 00 00 30 00 10 1d 	lw $16,48($29)
  417e00:	2a 00 00 00 48 00 16 1d 	l.s $f22,72($29)
  417e08:	2a 00 00 00 4c 00 17 1d 	l.s $f23,76($29)
  417e10:	2a 00 00 00 40 00 14 1d 	l.s $f20,64($29)
  417e18:	2a 00 00 00 44 00 15 1d 	l.s $f21,68($29)
  417e20:	43 00 00 00 50 00 1d 1d 	addiu $29,$29,80
  417e28:	03 00 00 00 00 00 00 1f 	jr $31

00417e30 <exp>:
  417e30:	43 00 00 00 e0 ff 1d 1d 	addiu $29,$29,-32
  417e38:	36 00 00 00 18 00 14 1d 	s.s $f20,24($29)
  417e40:	36 00 00 00 1c 00 15 1d 	s.s $f21,28($29)
  417e48:	7b 00 00 00 00 14 00 0c 	mov.d $f20,$f12
  417e50:	91 00 00 00 00 00 14 14 	c.eq.d $f20,$f20
  417e58:	34 00 00 00 10 00 1f 1d 	sw $31,16($29)
  417e60:	0b 00 00 00 92 00 00 00 	bc1f 4180b0 <exp+0x280>
  417e68:	2a 00 00 00 30 83 00 1c 	l.s $f0,-31952($28)
  417e70:	2a 00 00 00 34 83 01 1c 	l.s $f1,-31948($28)
  417e78:	95 00 00 00 00 00 00 14 	c.le.d $f20,$f0
  417e80:	0b 00 00 00 84 00 00 00 	bc1f 418098 <exp+0x268>
  417e88:	2a 00 00 00 38 83 00 1c 	l.s $f0,-31944($28)
  417e90:	2a 00 00 00 3c 83 01 1c 	l.s $f1,-31940($28)
  417e98:	95 00 00 00 00 00 14 00 	c.le.d $f0,$f20
  417ea0:	0b 00 00 00 68 00 00 00 	bc1f 418048 <exp+0x218>
  417ea8:	2a 00 00 00 40 83 0c 1c 	l.s $f12,-31936($28)
  417eb0:	2a 00 00 00 44 83 0d 1c 	l.s $f13,-31932($28)
  417eb8:	7b 00 00 00 00 0e 00 14 	mov.d $f14,$f20
  417ec0:	02 00 00 00 7c 5b 10 00 	jal 416df0 <__copysign>
  417ec8:	2a 00 00 00 48 83 02 1c 	l.s $f2,-31928($28)
  417ed0:	2a 00 00 00 4c 83 03 1c 	l.s $f3,-31924($28)
  417ed8:	75 00 00 00 00 02 02 14 	mul.d $f2,$f20,$f2
  417ee0:	71 00 00 00 00 02 00 02 	add.d $f2,$f2,$f0
  417ee8:	2a 00 00 00 50 83 08 1c 	l.s $f8,-31920($28)
  417ef0:	2a 00 00 00 54 83 09 1c 	l.s $f9,-31916($28)
  417ef8:	85 00 00 00 00 00 00 02 	cvt.w.d $f0,$f2
  417f00:	a3 00 00 00 00 00 06 00 	mfc1 $6,$f0
  417f08:	a5 00 00 00 00 00 06 06 	mtc1 $6,$f6
  417f10:	83 00 00 00 00 06 00 06 	cvt.d.w $f6,$f6
  417f18:	75 00 00 00 00 08 08 06 	mul.d $f8,$f6,$f8
  417f20:	2a 00 00 00 58 83 00 1c 	l.s $f0,-31912($28)
  417f28:	2a 00 00 00 5c 83 01 1c 	l.s $f1,-31908($28)
  417f30:	75 00 00 00 00 06 00 06 	mul.d $f6,$f6,$f0
  417f38:	73 00 00 00 00 08 08 14 	sub.d $f8,$f20,$f8
  417f40:	73 00 00 00 00 14 06 08 	sub.d $f20,$f8,$f6
  417f48:	75 00 00 00 00 04 14 14 	mul.d $f4,$f20,$f20
  417f50:	2a 00 00 00 60 83 00 1c 	l.s $f0,-31904($28)
  417f58:	2a 00 00 00 64 83 01 1c 	l.s $f1,-31900($28)
  417f60:	75 00 00 00 00 00 00 04 	mul.d $f0,$f4,$f0
  417f68:	2a 00 00 00 68 83 02 1c 	l.s $f2,-31896($28)
  417f70:	2a 00 00 00 6c 83 03 1c 	l.s $f3,-31892($28)
  417f78:	71 00 00 00 00 00 02 00 	add.d $f0,$f0,$f2
  417f80:	75 00 00 00 00 00 00 04 	mul.d $f0,$f4,$f0
  417f88:	2a 00 00 00 70 83 02 1c 	l.s $f2,-31888($28)
  417f90:	2a 00 00 00 74 83 03 1c 	l.s $f3,-31884($28)
  417f98:	71 00 00 00 00 00 02 00 	add.d $f0,$f0,$f2
  417fa0:	75 00 00 00 00 00 00 04 	mul.d $f0,$f4,$f0
  417fa8:	2a 00 00 00 78 83 02 1c 	l.s $f2,-31880($28)
  417fb0:	2a 00 00 00 7c 83 03 1c 	l.s $f3,-31876($28)
  417fb8:	71 00 00 00 00 00 02 00 	add.d $f0,$f0,$f2
  417fc0:	75 00 00 00 00 00 00 04 	mul.d $f0,$f4,$f0
  417fc8:	2a 00 00 00 80 83 02 1c 	l.s $f2,-31872($28)
  417fd0:	2a 00 00 00 84 83 03 1c 	l.s $f3,-31868($28)
  417fd8:	71 00 00 00 00 00 02 00 	add.d $f0,$f0,$f2
  417fe0:	75 00 00 00 00 04 00 04 	mul.d $f4,$f4,$f0
  417fe8:	73 00 00 00 00 04 04 14 	sub.d $f4,$f20,$f4
  417ff0:	75 00 00 00 00 02 04 14 	mul.d $f2,$f20,$f4
  417ff8:	2a 00 00 00 88 83 00 1c 	l.s $f0,-31864($28)
  418000:	2a 00 00 00 8c 83 01 1c 	l.s $f1,-31860($28)
  418008:	73 00 00 00 00 00 04 00 	sub.d $f0,$f0,$f4
  418010:	77 00 00 00 00 02 00 02 	div.d $f2,$f2,$f0
  418018:	73 00 00 00 00 06 02 06 	sub.d $f6,$f6,$f2
  418020:	73 00 00 00 00 08 06 08 	sub.d $f8,$f8,$f6
  418028:	2a 00 00 00 90 83 0c 1c 	l.s $f12,-31856($28)
  418030:	2a 00 00 00 94 83 0d 1c 	l.s $f13,-31852($28)
  418038:	71 00 00 00 00 0c 0c 08 	add.d $f12,$f8,$f12
  418040:	01 00 00 00 36 60 10 00 	j 4180d8 <exp+0x2a8>
  418048:	7b 00 00 00 00 0c 00 14 	mov.d $f12,$f20
  418050:	02 00 00 00 54 5b 10 00 	jal 416d50 <__finite>
  418058:	05 00 00 00 08 00 00 02 	beq $2,$0,418080 <exp+0x250>
  418060:	2a 00 00 00 90 83 0c 1c 	l.s $f12,-31856($28)
  418068:	2a 00 00 00 94 83 0d 1c 	l.s $f13,-31852($28)
  418070:	43 00 00 00 78 ec 06 00 	addiu $6,$0,-5000
  418078:	01 00 00 00 36 60 10 00 	j 4180d8 <exp+0x2a8>
  418080:	a5 00 00 00 00 00 00 00 	mtc1 $0,$f0
  418088:	a5 00 00 00 00 00 00 01 	mtc1 $0,$f1
  418090:	01 00 00 00 38 60 10 00 	j 4180e0 <exp+0x2b0>
  418098:	7b 00 00 00 00 0c 00 14 	mov.d $f12,$f20
  4180a0:	02 00 00 00 54 5b 10 00 	jal 416d50 <__finite>
  4180a8:	06 00 00 00 04 00 00 02 	bne $2,$0,4180c0 <exp+0x290>
  4180b0:	7b 00 00 00 00 00 00 14 	mov.d $f0,$f20
  4180b8:	01 00 00 00 38 60 10 00 	j 4180e0 <exp+0x2b0>
  4180c0:	2a 00 00 00 90 83 0c 1c 	l.s $f12,-31856($28)
  4180c8:	2a 00 00 00 94 83 0d 1c 	l.s $f13,-31852($28)
  4180d0:	43 00 00 00 88 13 06 00 	addiu $6,$0,5000
  4180d8:	02 00 00 00 0c 61 10 00 	jal 418430 <ldexp>
  4180e0:	28 00 00 00 10 00 1f 1d 	lw $31,16($29)
  4180e8:	2a 00 00 00 18 00 14 1d 	l.s $f20,24($29)
  4180f0:	2a 00 00 00 1c 00 15 1d 	l.s $f21,28($29)
  4180f8:	43 00 00 00 20 00 1d 1d 	addiu $29,$29,32
  418100:	03 00 00 00 00 00 00 1f 	jr $31

00418108 <__exp__D>:
  418108:	43 00 00 00 d0 ff 1d 1d 	addiu $29,$29,-48
  418110:	36 00 00 00 18 00 14 1d 	s.s $f20,24($29)
  418118:	36 00 00 00 1c 00 15 1d 	s.s $f21,28($29)
  418120:	7b 00 00 00 00 14 00 0c 	mov.d $f20,$f12
  418128:	36 00 00 00 28 00 18 1d 	s.s $f24,40($29)
  418130:	36 00 00 00 2c 00 19 1d 	s.s $f25,44($29)
  418138:	7b 00 00 00 00 18 00 0e 	mov.d $f24,$f14
  418140:	91 00 00 00 00 00 14 14 	c.eq.d $f20,$f20
  418148:	34 00 00 00 10 00 1f 1d 	sw $31,16($29)
  418150:	36 00 00 00 20 00 16 1d 	s.s $f22,32($29)
  418158:	36 00 00 00 24 00 17 1d 	s.s $f23,36($29)
  418160:	0b 00 00 00 94 00 00 00 	bc1f 4183b8 <__exp__D+0x2b0>
  418168:	2a 00 00 00 98 83 00 1c 	l.s $f0,-31848($28)
  418170:	2a 00 00 00 9c 83 01 1c 	l.s $f1,-31844($28)
  418178:	95 00 00 00 00 00 00 14 	c.le.d $f20,$f0
  418180:	0b 00 00 00 86 00 00 00 	bc1f 4183a0 <__exp__D+0x298>
  418188:	2a 00 00 00 a0 83 00 1c 	l.s $f0,-31840($28)
  418190:	2a 00 00 00 a4 83 01 1c 	l.s $f1,-31836($28)
  418198:	95 00 00 00 00 00 14 00 	c.le.d $f0,$f20
  4181a0:	0b 00 00 00 6a 00 00 00 	bc1f 418350 <__exp__D+0x248>
  4181a8:	2a 00 00 00 a8 83 00 1c 	l.s $f0,-31832($28)
  4181b0:	2a 00 00 00 ac 83 01 1c 	l.s $f1,-31828($28)
  4181b8:	75 00 00 00 00 16 00 14 	mul.d $f22,$f20,$f0
  4181c0:	2a 00 00 00 b0 83 0c 1c 	l.s $f12,-31824($28)
  4181c8:	2a 00 00 00 b4 83 0d 1c 	l.s $f13,-31820($28)
  4181d0:	7b 00 00 00 00 0e 00 14 	mov.d $f14,$f20
  4181d8:	02 00 00 00 7c 5b 10 00 	jal 416df0 <__copysign>
  4181e0:	71 00 00 00 00 00 00 16 	add.d $f0,$f22,$f0
  4181e8:	2a 00 00 00 b8 83 06 1c 	l.s $f6,-31816($28)
  4181f0:	2a 00 00 00 bc 83 07 1c 	l.s $f7,-31812($28)
  4181f8:	85 00 00 00 00 02 00 00 	cvt.w.d $f2,$f0
  418200:	a3 00 00 00 00 00 06 02 	mfc1 $6,$f2
  418208:	a5 00 00 00 00 00 06 04 	mtc1 $6,$f4
  418210:	83 00 00 00 00 04 00 04 	cvt.d.w $f4,$f4
  418218:	75 00 00 00 00 06 06 04 	mul.d $f6,$f4,$f6
  418220:	2a 00 00 00 c0 83 00 1c 	l.s $f0,-31808($28)
  418228:	2a 00 00 00 c4 83 01 1c 	l.s $f1,-31804($28)
  418230:	75 00 00 00 00 04 00 04 	mul.d $f4,$f4,$f0
  418238:	73 00 00 00 00 06 06 14 	sub.d $f6,$f20,$f6
  418240:	73 00 00 00 00 04 18 04 	sub.d $f4,$f4,$f24
  418248:	73 00 00 00 00 14 04 06 	sub.d $f20,$f6,$f4
  418250:	75 00 00 00 00 16 14 14 	mul.d $f22,$f20,$f20
  418258:	2a 00 00 00 c8 83 00 1c 	l.s $f0,-31800($28)
  418260:	2a 00 00 00 cc 83 01 1c 	l.s $f1,-31796($28)
  418268:	75 00 00 00 00 00 00 16 	mul.d $f0,$f22,$f0
  418270:	2a 00 00 00 d0 83 02 1c 	l.s $f2,-31792($28)
  418278:	2a 00 00 00 d4 83 03 1c 	l.s $f3,-31788($28)
  418280:	71 00 00 00 00 00 02 00 	add.d $f0,$f0,$f2
  418288:	75 00 00 00 00 00 00 16 	mul.d $f0,$f22,$f0
  418290:	2a 00 00 00 d8 83 02 1c 	l.s $f2,-31784($28)
  418298:	2a 00 00 00 dc 83 03 1c 	l.s $f3,-31780($28)
  4182a0:	71 00 00 00 00 00 02 00 	add.d $f0,$f0,$f2
  4182a8:	75 00 00 00 00 00 00 16 	mul.d $f0,$f22,$f0
  4182b0:	2a 00 00 00 e0 83 02 1c 	l.s $f2,-31776($28)
  4182b8:	2a 00 00 00 e4 83 03 1c 	l.s $f3,-31772($28)
  4182c0:	71 00 00 00 00 00 02 00 	add.d $f0,$f0,$f2
  4182c8:	75 00 00 00 00 00 00 16 	mul.d $f0,$f22,$f0
  4182d0:	2a 00 00 00 e8 83 02 1c 	l.s $f2,-31768($28)
  4182d8:	2a 00 00 00 ec 83 03 1c 	l.s $f3,-31764($28)
  4182e0:	71 00 00 00 00 00 02 00 	add.d $f0,$f0,$f2
  4182e8:	75 00 00 00 00 00 00 16 	mul.d $f0,$f22,$f0
  4182f0:	73 00 00 00 00 18 00 14 	sub.d $f24,$f20,$f0
  4182f8:	75 00 00 00 00 02 18 14 	mul.d $f2,$f20,$f24
  418300:	2a 00 00 00 f0 83 00 1c 	l.s $f0,-31760($28)
  418308:	2a 00 00 00 f4 83 01 1c 	l.s $f1,-31756($28)
  418310:	73 00 00 00 00 00 18 00 	sub.d $f0,$f0,$f24
  418318:	77 00 00 00 00 18 00 02 	div.d $f24,$f2,$f0
  418320:	73 00 00 00 00 04 18 04 	sub.d $f4,$f4,$f24
  418328:	73 00 00 00 00 06 04 06 	sub.d $f6,$f6,$f4
  418330:	2a 00 00 00 f8 83 0c 1c 	l.s $f12,-31752($28)
  418338:	2a 00 00 00 fc 83 0d 1c 	l.s $f13,-31748($28)
  418340:	71 00 00 00 00 0c 0c 06 	add.d $f12,$f6,$f12
  418348:	01 00 00 00 f8 60 10 00 	j 4183e0 <__exp__D+0x2d8>
  418350:	7b 00 00 00 00 0c 00 14 	mov.d $f12,$f20
  418358:	02 00 00 00 54 5b 10 00 	jal 416d50 <__finite>
  418360:	05 00 00 00 08 00 00 02 	beq $2,$0,418388 <__exp__D+0x280>
  418368:	2a 00 00 00 f8 83 0c 1c 	l.s $f12,-31752($28)
  418370:	2a 00 00 00 fc 83 0d 1c 	l.s $f13,-31748($28)
  418378:	43 00 00 00 78 ec 06 00 	addiu $6,$0,-5000
  418380:	01 00 00 00 f8 60 10 00 	j 4183e0 <__exp__D+0x2d8>
  418388:	a5 00 00 00 00 00 00 00 	mtc1 $0,$f0
  418390:	a5 00 00 00 00 00 00 01 	mtc1 $0,$f1
  418398:	01 00 00 00 fa 60 10 00 	j 4183e8 <__exp__D+0x2e0>
  4183a0:	7b 00 00 00 00 0c 00 14 	mov.d $f12,$f20
  4183a8:	02 00 00 00 54 5b 10 00 	jal 416d50 <__finite>
  4183b0:	06 00 00 00 04 00 00 02 	bne $2,$0,4183c8 <__exp__D+0x2c0>
  4183b8:	7b 00 00 00 00 00 00 14 	mov.d $f0,$f20
  4183c0:	01 00 00 00 fa 60 10 00 	j 4183e8 <__exp__D+0x2e0>
  4183c8:	2a 00 00 00 f8 83 0c 1c 	l.s $f12,-31752($28)
  4183d0:	2a 00 00 00 fc 83 0d 1c 	l.s $f13,-31748($28)
  4183d8:	43 00 00 00 88 13 06 00 	addiu $6,$0,5000
  4183e0:	02 00 00 00 0c 61 10 00 	jal 418430 <ldexp>
  4183e8:	28 00 00 00 10 00 1f 1d 	lw $31,16($29)
  4183f0:	2a 00 00 00 28 00 18 1d 	l.s $f24,40($29)
  4183f8:	2a 00 00 00 2c 00 19 1d 	l.s $f25,44($29)
  418400:	2a 00 00 00 20 00 16 1d 	l.s $f22,32($29)
  418408:	2a 00 00 00 24 00 17 1d 	l.s $f23,36($29)
  418410:	2a 00 00 00 18 00 14 1d 	l.s $f20,24($29)
  418418:	2a 00 00 00 1c 00 15 1d 	l.s $f21,28($29)
  418420:	43 00 00 00 30 00 1d 1d 	addiu $29,$29,48
  418428:	03 00 00 00 00 00 00 1f 	jr $31

00418430 <ldexp>:
  418430:	43 00 00 00 e0 ff 1d 1d 	addiu $29,$29,-32
  418438:	7b 00 00 00 00 00 00 0c 	mov.d $f0,$f12
  418440:	34 00 00 00 18 00 12 1d 	sw $18,24($29)
  418448:	42 00 00 00 00 12 06 00 	addu $18,$0,$6
  418450:	34 00 00 00 1c 00 1f 1d 	sw $31,28($29)
  418458:	34 00 00 00 14 00 11 1d 	sw $17,20($29)
  418460:	34 00 00 00 10 00 10 1d 	sw $16,16($29)
  418468:	a3 00 00 00 00 00 10 00 	mfc1 $16,$f0
  418470:	a3 00 00 00 00 00 11 01 	mfc1 $17,$f1
  418478:	57 00 00 00 14 06 11 00 	srl $6,$17,0x14
  418480:	4f 00 00 00 ff 07 06 06 	andi $6,$6,2047
  418488:	05 00 00 00 ae 00 00 06 	beq $6,$0,418748 <ldexp+0x318>
  418490:	5e 00 00 00 ff 07 02 06 	sltiu $2,$6,2047
  418498:	05 00 00 00 7a 00 00 02 	beq $2,$0,418688 <ldexp+0x258>
  4184a0:	42 00 00 00 00 06 12 06 	addu $6,$6,$18
  4184a8:	05 00 00 00 4a 00 00 06 	beq $6,$0,4185d8 <ldexp+0x1a8>
  4184b0:	5e 00 00 00 ff 07 02 06 	sltiu $2,$6,2047
  4184b8:	05 00 00 00 12 00 00 02 	beq $2,$0,418508 <ldexp+0xd8>
  4184c0:	a2 00 00 00 0f 80 02 00 	lui $2,32783
  4184c8:	51 00 00 00 ff ff 02 02 	ori $2,$2,65535
  4184d0:	4e 00 00 00 00 11 02 11 	and $17,$17,$2
  4184d8:	4f 00 00 00 ff 07 02 06 	andi $2,$6,2047
  4184e0:	55 00 00 00 14 02 02 00 	sll $2,$2,0x14
  4184e8:	50 00 00 00 00 11 02 11 	or $17,$17,$2
  4184f0:	a5 00 00 00 00 00 10 00 	mtc1 $16,$f0
  4184f8:	a5 00 00 00 00 00 11 01 	mtc1 $17,$f1
  418500:	01 00 00 00 ee 61 10 00 	j 4187b8 <ldexp+0x388>
  418508:	09 00 00 00 1a 00 00 12 	bltz $18,418578 <ldexp+0x148>
  418510:	57 00 00 00 1f 02 11 00 	srl $2,$17,0x1f
  418518:	28 00 00 00 00 84 10 1c 	lw $16,-31744($28)
  418520:	28 00 00 00 04 84 11 1c 	lw $17,-31740($28)
  418528:	a2 00 00 00 ff 7f 04 00 	lui $4,32767
  418530:	51 00 00 00 ff ff 04 04 	ori $4,$4,65535
  418538:	55 00 00 00 1f 02 02 00 	sll $2,$2,0x1f
  418540:	4e 00 00 00 00 11 04 11 	and $17,$17,$4
  418548:	50 00 00 00 00 11 02 11 	or $17,$17,$2
  418550:	a5 00 00 00 00 00 10 00 	mtc1 $16,$f0
  418558:	a5 00 00 00 00 00 11 01 	mtc1 $17,$f1
  418560:	43 00 00 00 22 00 03 00 	addiu $3,$0,34
  418568:	34 00 00 00 60 84 03 1c 	sw $3,-31648($28)
  418570:	01 00 00 00 ee 61 10 00 	j 4187b8 <ldexp+0x388>
  418578:	5e 00 00 00 cb ff 02 06 	sltiu $2,$6,-53
  418580:	05 00 00 00 14 00 00 02 	beq $2,$0,4185d8 <ldexp+0x1a8>
  418588:	57 00 00 00 1f 03 11 00 	srl $3,$17,0x1f
  418590:	42 00 00 00 00 10 00 00 	addu $16,$0,$0
  418598:	42 00 00 00 00 11 00 00 	addu $17,$0,$0
  4185a0:	42 00 00 00 00 11 00 00 	addu $17,$0,$0
  4185a8:	55 00 00 00 1f 11 03 00 	sll $17,$3,0x1f
  4185b0:	a5 00 00 00 00 00 10 00 	mtc1 $16,$f0
  4185b8:	a5 00 00 00 00 00 11 01 	mtc1 $17,$f1
  4185c0:	43 00 00 00 22 00 02 00 	addiu $2,$0,34
  4185c8:	34 00 00 00 60 84 02 1c 	sw $2,-31648($28)
  4185d0:	01 00 00 00 ee 61 10 00 	j 4187b8 <ldexp+0x388>
  4185d8:	a2 00 00 00 0f 80 02 00 	lui $2,32783
  4185e0:	51 00 00 00 ff ff 02 02 	ori $2,$2,65535
  4185e8:	4e 00 00 00 00 11 02 11 	and $17,$17,$2
  4185f0:	2a 00 00 00 10 84 0c 1c 	l.s $f12,-31728($28)
  4185f8:	2a 00 00 00 14 84 0d 1c 	l.s $f13,-31724($28)
  418600:	a2 00 00 00 10 00 02 00 	lui $2,16
  418608:	50 00 00 00 00 11 02 11 	or $17,$17,$2
  418610:	43 00 00 00 ff ff 06 06 	addiu $6,$6,-1
  418618:	02 00 00 00 0c 61 10 00 	jal 418430 <ldexp>
  418620:	a5 00 00 00 00 00 10 02 	mtc1 $16,$f2
  418628:	a5 00 00 00 00 00 11 03 	mtc1 $17,$f3
  418630:	75 00 00 00 00 00 00 02 	mul.d $f0,$f2,$f0
  418638:	a2 00 00 00 0f 00 02 00 	lui $2,15
  418640:	a3 00 00 00 00 00 10 00 	mfc1 $16,$f0
  418648:	a3 00 00 00 00 00 11 01 	mfc1 $17,$f1
  418650:	51 00 00 00 ff ff 02 02 	ori $2,$2,65535
  418658:	4e 00 00 00 00 02 02 11 	and $2,$17,$2
  418660:	06 00 00 00 a2 ff 00 02 	bne $2,$0,4184f0 <ldexp+0xc0>
  418668:	06 00 00 00 a0 ff 00 10 	bne $16,$0,4184f0 <ldexp+0xc0>
  418670:	43 00 00 00 22 00 02 00 	addiu $2,$0,34
  418678:	34 00 00 00 60 84 02 1c 	sw $2,-31648($28)
  418680:	01 00 00 00 3c 61 10 00 	j 4184f0 <ldexp+0xc0>
  418688:	a2 00 00 00 0f 00 02 00 	lui $2,15
  418690:	51 00 00 00 ff ff 02 02 	ori $2,$2,65535
  418698:	4e 00 00 00 00 02 02 11 	and $2,$17,$2
  4186a0:	06 00 00 00 1e 00 00 02 	bne $2,$0,418720 <ldexp+0x2f0>
  4186a8:	06 00 00 00 1c 00 00 10 	bne $16,$0,418720 <ldexp+0x2f0>
  4186b0:	0a 00 00 00 96 ff 00 12 	bgez $18,418510 <ldexp+0xe0>
  4186b8:	57 00 00 00 1f 02 11 00 	srl $2,$17,0x1f
  4186c0:	28 00 00 00 08 84 10 1c 	lw $16,-31736($28)
  4186c8:	28 00 00 00 0c 84 11 1c 	lw $17,-31732($28)
  4186d0:	a2 00 00 00 ff 7f 04 00 	lui $4,32767
  4186d8:	51 00 00 00 ff ff 04 04 	ori $4,$4,65535
  4186e0:	55 00 00 00 1f 02 02 00 	sll $2,$2,0x1f
  4186e8:	4e 00 00 00 00 11 04 11 	and $17,$17,$4
  4186f0:	50 00 00 00 00 11 02 11 	or $17,$17,$2
  4186f8:	a5 00 00 00 00 00 10 00 	mtc1 $16,$f0
  418700:	a5 00 00 00 00 00 11 01 	mtc1 $17,$f1
  418708:	43 00 00 00 21 00 03 00 	addiu $3,$0,33
  418710:	34 00 00 00 60 84 03 1c 	sw $3,-31648($28)
  418718:	01 00 00 00 ee 61 10 00 	j 4187b8 <ldexp+0x388>
  418720:	a5 00 00 00 00 00 10 00 	mtc1 $16,$f0
  418728:	a5 00 00 00 00 00 11 01 	mtc1 $17,$f1
  418730:	43 00 00 00 21 00 02 00 	addiu $2,$0,33
  418738:	34 00 00 00 60 84 02 1c 	sw $2,-31648($28)
  418740:	01 00 00 00 ee 61 10 00 	j 4187b8 <ldexp+0x388>
  418748:	a2 00 00 00 0f 00 02 00 	lui $2,15
  418750:	51 00 00 00 ff ff 02 02 	ori $2,$2,65535
  418758:	4e 00 00 00 00 02 02 11 	and $2,$17,$2
  418760:	06 00 00 00 02 00 00 02 	bne $2,$0,418770 <ldexp+0x340>
  418768:	05 00 00 00 12 00 00 10 	beq $16,$0,4187b8 <ldexp+0x388>
  418770:	2a 00 00 00 10 84 0c 1c 	l.s $f12,-31728($28)
  418778:	2a 00 00 00 14 84 0d 1c 	l.s $f13,-31724($28)
  418780:	43 00 00 00 35 00 06 00 	addiu $6,$0,53
  418788:	02 00 00 00 0c 61 10 00 	jal 418430 <ldexp>
  418790:	a5 00 00 00 00 00 10 02 	mtc1 $16,$f2
  418798:	a5 00 00 00 00 00 11 03 	mtc1 $17,$f3
  4187a0:	75 00 00 00 00 00 00 02 	mul.d $f0,$f2,$f0
  4187a8:	43 00 00 00 cb ff 12 12 	addiu $18,$18,-53
  4187b0:	01 00 00 00 1a 61 10 00 	j 418468 <ldexp+0x38>
  4187b8:	28 00 00 00 1c 00 1f 1d 	lw $31,28($29)
  4187c0:	28 00 00 00 18 00 12 1d 	lw $18,24($29)
  4187c8:	28 00 00 00 14 00 11 1d 	lw $17,20($29)
  4187d0:	28 00 00 00 10 00 10 1d 	lw $16,16($29)
  4187d8:	43 00 00 00 20 00 1d 1d 	addiu $29,$29,32
  4187e0:	03 00 00 00 00 00 00 1f 	jr $31
	...

004187f0 <__logb>:
  4187f0:	43 00 00 00 e0 ff 1d 1d 	addiu $29,$29,-32
  4187f8:	36 00 00 00 18 00 14 1d 	s.s $f20,24($29)
  418800:	36 00 00 00 1c 00 15 1d 	s.s $f21,28($29)
  418808:	7b 00 00 00 00 14 00 0c 	mov.d $f20,$f12
  418810:	34 00 00 00 10 00 1f 1d 	sw $31,16($29)
  418818:	02 00 00 00 08 4e 10 00 	jal 413820 <__isnan>
  418820:	05 00 00 00 04 00 00 02 	beq $2,$0,418838 <__logb+0x48>
  418828:	7b 00 00 00 00 00 00 14 	mov.d $f0,$f20
  418830:	01 00 00 00 52 62 10 00 	j 418948 <__logb+0x158>
  418838:	7b 00 00 00 00 0c 00 14 	mov.d $f12,$f20
  418840:	02 00 00 00 28 4e 10 00 	jal 4138a0 <__isinf>
  418848:	05 00 00 00 06 00 00 02 	beq $2,$0,418868 <__logb+0x78>
  418850:	2a 00 00 00 20 84 00 1c 	l.s $f0,-31712($28)
  418858:	2a 00 00 00 24 84 01 1c 	l.s $f1,-31708($28)
  418860:	01 00 00 00 52 62 10 00 	j 418948 <__logb+0x158>
  418868:	a5 00 00 00 00 00 00 00 	mtc1 $0,$f0
  418870:	a5 00 00 00 00 00 00 01 	mtc1 $0,$f1
  418878:	91 00 00 00 00 00 00 14 	c.eq.d $f20,$f0
  418880:	0b 00 00 00 08 00 00 00 	bc1f 4188a8 <__logb+0xb8>
  418888:	2a 00 00 00 20 84 00 1c 	l.s $f0,-31712($28)
  418890:	2a 00 00 00 24 84 01 1c 	l.s $f1,-31708($28)
  418898:	7d 00 00 00 00 00 00 00 	neg.d $f0,$f0
  4188a0:	01 00 00 00 52 62 10 00 	j 418948 <__logb+0x158>
  4188a8:	a3 00 00 00 00 00 04 14 	mfc1 $4,$f20
  4188b0:	a3 00 00 00 00 00 05 15 	mfc1 $5,$f21
  4188b8:	a2 00 00 00 f0 7f 02 00 	lui $2,32752
  4188c0:	4e 00 00 00 00 02 02 05 	and $2,$5,$2
  4188c8:	05 00 00 00 0c 00 00 02 	beq $2,$0,418900 <__logb+0x110>
  4188d0:	57 00 00 00 14 02 05 00 	srl $2,$5,0x14
  4188d8:	4f 00 00 00 ff 07 02 02 	andi $2,$2,2047
  4188e0:	43 00 00 00 01 fc 02 02 	addiu $2,$2,-1023
  4188e8:	a5 00 00 00 00 00 02 00 	mtc1 $2,$f0
  4188f0:	83 00 00 00 00 00 00 00 	cvt.d.w $f0,$f0
  4188f8:	01 00 00 00 52 62 10 00 	j 418948 <__logb+0x158>
  418900:	2a 00 00 00 28 84 0c 1c 	l.s $f12,-31704($28)
  418908:	2a 00 00 00 2c 84 0d 1c 	l.s $f13,-31700($28)
  418910:	43 00 00 00 35 00 06 00 	addiu $6,$0,53
  418918:	02 00 00 00 0c 61 10 00 	jal 418430 <ldexp>
  418920:	75 00 00 00 00 0c 00 14 	mul.d $f12,$f20,$f0
  418928:	02 00 00 00 fc 61 10 00 	jal 4187f0 <__logb>
  418930:	2a 00 00 00 30 84 02 1c 	l.s $f2,-31696($28)
  418938:	2a 00 00 00 34 84 03 1c 	l.s $f3,-31692($28)
  418940:	73 00 00 00 00 00 02 00 	sub.d $f0,$f0,$f2
  418948:	28 00 00 00 10 00 1f 1d 	lw $31,16($29)
  418950:	2a 00 00 00 18 00 14 1d 	l.s $f20,24($29)
  418958:	2a 00 00 00 1c 00 15 1d 	l.s $f21,28($29)
  418960:	43 00 00 00 20 00 1d 1d 	addiu $29,$29,32
  418968:	03 00 00 00 00 00 00 1f 	jr $31

00418970 <__umoddi3>:
  418970:	43 00 00 00 d8 ff 1d 1d 	addiu $29,$29,-40
  418978:	43 00 00 00 18 00 02 1d 	addiu $2,$29,24
  418980:	34 00 00 00 20 00 1f 1d 	sw $31,32($29)
  418988:	34 00 00 00 10 00 02 1d 	sw $2,16($29)
  418990:	02 00 00 00 80 62 10 00 	jal 418a00 <__udivmoddi4>
  418998:	29 00 00 00 18 00 02 1d 	dlw $2,24($29)
  4189a0:	28 00 00 00 20 00 1f 1d 	lw $31,32($29)
  4189a8:	43 00 00 00 28 00 1d 1d 	addiu $29,$29,40
  4189b0:	03 00 00 00 00 00 00 1f 	jr $31
	...

004189c0 <__udivdi3>:
  4189c0:	43 00 00 00 e0 ff 1d 1d 	addiu $29,$29,-32
  4189c8:	34 00 00 00 18 00 1f 1d 	sw $31,24($29)
  4189d0:	34 00 00 00 10 00 00 1d 	sw $0,16($29)
  4189d8:	02 00 00 00 80 62 10 00 	jal 418a00 <__udivmoddi4>
  4189e0:	28 00 00 00 18 00 1f 1d 	lw $31,24($29)
  4189e8:	43 00 00 00 20 00 1d 1d 	addiu $29,$29,32
  4189f0:	03 00 00 00 00 00 00 1f 	jr $31
	...

00418a00 <__udivmoddi4>:
  418a00:	43 00 00 00 f8 ff 1d 1d 	addiu $29,$29,-8
  418a08:	42 00 00 00 00 09 06 00 	addu $9,$0,$6
  418a10:	42 00 00 00 00 06 07 00 	addu $6,$0,$7
  418a18:	28 00 00 00 18 00 19 1d 	lw $25,24($29)
  418a20:	42 00 00 00 00 0b 04 00 	addu $11,$0,$4
  418a28:	34 00 00 00 04 00 11 1d 	sw $17,4($29)
  418a30:	34 00 00 00 00 00 10 1d 	sw $16,0($29)
  418a38:	06 00 00 00 a8 01 00 06 	bne $6,$0,4190e0 <__udivmoddi4+0x6e0>
  418a40:	5d 00 00 00 00 02 09 05 	sltu $2,$5,$9
  418a48:	05 00 00 00 98 00 00 02 	beq $2,$0,418cb0 <__udivmoddi4+0x2b0>
  418a50:	42 00 00 00 00 04 09 00 	addu $4,$0,$9
  418a58:	51 00 00 00 ff ff 02 00 	ori $2,$0,65535
  418a60:	5d 00 00 00 00 02 09 02 	sltu $2,$2,$9
  418a68:	06 00 00 00 08 00 00 02 	bne $2,$0,418a90 <__udivmoddi4+0x90>
  418a70:	5e 00 00 00 00 01 02 09 	sltiu $2,$9,256
  418a78:	53 00 00 00 01 00 02 02 	xori $2,$2,1
  418a80:	55 00 00 00 03 03 02 00 	sll $3,$2,0x3
  418a88:	01 00 00 00 b0 62 10 00 	j 418ac0 <__udivmoddi4+0xc0>
  418a90:	a2 00 00 00 ff 00 02 00 	lui $2,255
  418a98:	51 00 00 00 ff ff 02 02 	ori $2,$2,65535
  418aa0:	43 00 00 00 18 00 03 00 	addiu $3,$0,24
  418aa8:	5d 00 00 00 00 02 09 02 	sltu $2,$2,$9
  418ab0:	06 00 00 00 02 00 00 02 	bne $2,$0,418ac0 <__udivmoddi4+0xc0>
  418ab8:	43 00 00 00 10 00 03 00 	addiu $3,$0,16
  418ac0:	58 00 00 00 00 02 04 03 	srlv $2,$4,$3
  418ac8:	a2 00 00 00 00 10 01 00 	lui $1,4096
  418ad0:	42 00 00 00 00 01 02 01 	addu $1,$1,$2
  418ad8:	22 00 00 00 00 15 02 01 	lbu $2,5376($1)
  418ae0:	43 00 00 00 20 00 04 00 	addiu $4,$0,32
  418ae8:	42 00 00 00 00 02 03 02 	addu $2,$2,$3
  418af0:	45 00 00 00 00 0d 02 04 	subu $13,$4,$2
  418af8:	05 00 00 00 0c 00 00 0d 	beq $13,$0,418b30 <__udivmoddi4+0x130>
  418b00:	56 00 00 00 00 09 09 0d 	sllv $9,$9,$13
  418b08:	56 00 00 00 00 03 05 0d 	sllv $3,$5,$13
  418b10:	45 00 00 00 00 02 0d 04 	subu $2,$4,$13
  418b18:	58 00 00 00 00 02 0b 02 	srlv $2,$11,$2
  418b20:	50 00 00 00 00 05 02 03 	or $5,$3,$2
  418b28:	56 00 00 00 00 0b 0b 0d 	sllv $11,$11,$13
  418b30:	57 00 00 00 10 04 09 00 	srl $4,$9,0x10
  418b38:	49 00 00 00 00 00 04 05 	divu $0,$5,$4
  418b40:	06 00 00 00 02 00 00 04 	bne $4,$0,418b50 <__udivmoddi4+0x150>
  418b48:	a1 00 00 00 07 00 00 00 	break 
  418b50:	4c 00 00 00 00 06 00 00 	mflo $6
  418b58:	4a 00 00 00 00 03 00 00 	mfhi $3
  418b60:	4f 00 00 00 ff ff 07 09 	andi $7,$9,65535
  418b68:	46 00 00 00 00 00 07 06 	mult $6,$7
  418b70:	55 00 00 00 10 02 03 00 	sll $2,$3,0x10
  418b78:	4c 00 00 00 00 05 00 00 	mflo $5
  418b80:	57 00 00 00 10 03 0b 00 	srl $3,$11,0x10
  418b88:	50 00 00 00 00 03 03 02 	or $3,$2,$3
  418b90:	5d 00 00 00 00 02 05 03 	sltu $2,$3,$5
  418b98:	05 00 00 00 10 00 00 02 	beq $2,$0,418be0 <__udivmoddi4+0x1e0>
  418ba0:	43 00 00 00 ff ff 06 06 	addiu $6,$6,-1
  418ba8:	42 00 00 00 00 03 09 03 	addu $3,$3,$9
  418bb0:	5d 00 00 00 00 02 09 03 	sltu $2,$3,$9
  418bb8:	06 00 00 00 08 00 00 02 	bne $2,$0,418be0 <__udivmoddi4+0x1e0>
  418bc0:	5d 00 00 00 00 02 05 03 	sltu $2,$3,$5
  418bc8:	05 00 00 00 04 00 00 02 	beq $2,$0,418be0 <__udivmoddi4+0x1e0>
  418bd0:	43 00 00 00 ff ff 06 06 	addiu $6,$6,-1
  418bd8:	42 00 00 00 00 03 09 03 	addu $3,$3,$9
  418be0:	45 00 00 00 00 03 05 03 	subu $3,$3,$5
  418be8:	49 00 00 00 00 00 04 03 	divu $0,$3,$4
  418bf0:	06 00 00 00 02 00 00 04 	bne $4,$0,418c00 <__udivmoddi4+0x200>
  418bf8:	a1 00 00 00 07 00 00 00 	break 
  418c00:	4c 00 00 00 00 04 00 00 	mflo $4
  418c08:	4a 00 00 00 00 03 00 00 	mfhi $3
  418c10:	46 00 00 00 00 00 07 04 	mult $4,$7
  418c18:	55 00 00 00 10 02 03 00 	sll $2,$3,0x10
  418c20:	4c 00 00 00 00 05 00 00 	mflo $5
  418c28:	4f 00 00 00 ff ff 03 0b 	andi $3,$11,65535
  418c30:	50 00 00 00 00 03 03 02 	or $3,$2,$3
  418c38:	5d 00 00 00 00 02 05 03 	sltu $2,$3,$5
  418c40:	05 00 00 00 10 00 00 02 	beq $2,$0,418c88 <__udivmoddi4+0x288>
  418c48:	43 00 00 00 ff ff 04 04 	addiu $4,$4,-1
  418c50:	42 00 00 00 00 03 09 03 	addu $3,$3,$9
  418c58:	5d 00 00 00 00 02 09 03 	sltu $2,$3,$9
  418c60:	06 00 00 00 08 00 00 02 	bne $2,$0,418c88 <__udivmoddi4+0x288>
  418c68:	5d 00 00 00 00 02 05 03 	sltu $2,$3,$5
  418c70:	05 00 00 00 04 00 00 02 	beq $2,$0,418c88 <__udivmoddi4+0x288>
  418c78:	43 00 00 00 ff ff 04 04 	addiu $4,$4,-1
  418c80:	42 00 00 00 00 03 09 03 	addu $3,$3,$9
  418c88:	55 00 00 00 10 02 06 00 	sll $2,$6,0x10
  418c90:	50 00 00 00 00 0a 04 02 	or $10,$2,$4
  418c98:	45 00 00 00 00 0b 05 03 	subu $11,$3,$5
  418ca0:	42 00 00 00 00 0c 00 00 	addu $12,$0,$0
  418ca8:	01 00 00 00 30 64 10 00 	j 4190c0 <__udivmoddi4+0x6c0>
  418cb0:	06 00 00 00 0a 00 00 09 	bne $9,$0,418ce0 <__udivmoddi4+0x2e0>
  418cb8:	43 00 00 00 01 00 02 00 	addiu $2,$0,1
  418cc0:	49 00 00 00 00 00 06 02 	divu $0,$2,$6
  418cc8:	06 00 00 00 02 00 00 06 	bne $6,$0,418cd8 <__udivmoddi4+0x2d8>
  418cd0:	a1 00 00 00 07 00 00 00 	break 
  418cd8:	4c 00 00 00 00 09 00 00 	mflo $9
  418ce0:	42 00 00 00 00 04 09 00 	addu $4,$0,$9
  418ce8:	51 00 00 00 ff ff 02 00 	ori $2,$0,65535
  418cf0:	5d 00 00 00 00 02 09 02 	sltu $2,$2,$9
  418cf8:	06 00 00 00 08 00 00 02 	bne $2,$0,418d20 <__udivmoddi4+0x320>
  418d00:	5e 00 00 00 00 01 02 09 	sltiu $2,$9,256
  418d08:	53 00 00 00 01 00 02 02 	xori $2,$2,1
  418d10:	55 00 00 00 03 03 02 00 	sll $3,$2,0x3
  418d18:	01 00 00 00 54 63 10 00 	j 418d50 <__udivmoddi4+0x350>
  418d20:	a2 00 00 00 ff 00 02 00 	lui $2,255
  418d28:	51 00 00 00 ff ff 02 02 	ori $2,$2,65535
  418d30:	43 00 00 00 18 00 03 00 	addiu $3,$0,24
  418d38:	5d 00 00 00 00 02 09 02 	sltu $2,$2,$9
  418d40:	06 00 00 00 02 00 00 02 	bne $2,$0,418d50 <__udivmoddi4+0x350>
  418d48:	43 00 00 00 10 00 03 00 	addiu $3,$0,16
  418d50:	58 00 00 00 00 02 04 03 	srlv $2,$4,$3
  418d58:	a2 00 00 00 00 10 01 00 	lui $1,4096
  418d60:	42 00 00 00 00 01 02 01 	addu $1,$1,$2
  418d68:	22 00 00 00 00 15 02 01 	lbu $2,5376($1)
  418d70:	42 00 00 00 00 02 03 02 	addu $2,$2,$3
  418d78:	43 00 00 00 20 00 03 00 	addiu $3,$0,32
  418d80:	45 00 00 00 00 0d 02 03 	subu $13,$3,$2
  418d88:	06 00 00 00 06 00 00 0d 	bne $13,$0,418da8 <__udivmoddi4+0x3a8>
  418d90:	45 00 00 00 00 05 09 05 	subu $5,$5,$9
  418d98:	43 00 00 00 01 00 0c 00 	addiu $12,$0,1
  418da0:	01 00 00 00 d4 63 10 00 	j 418f50 <__udivmoddi4+0x550>
  418da8:	45 00 00 00 00 18 0d 03 	subu $24,$3,$13
  418db0:	56 00 00 00 00 09 09 0d 	sllv $9,$9,$13
  418db8:	58 00 00 00 00 04 05 18 	srlv $4,$5,$24
  418dc0:	56 00 00 00 00 03 05 0d 	sllv $3,$5,$13
  418dc8:	58 00 00 00 00 02 0b 18 	srlv $2,$11,$24
  418dd0:	50 00 00 00 00 05 02 03 	or $5,$3,$2
  418dd8:	56 00 00 00 00 0b 0b 0d 	sllv $11,$11,$13
  418de0:	57 00 00 00 10 07 09 00 	srl $7,$9,0x10
  418de8:	49 00 00 00 00 00 07 04 	divu $0,$4,$7
  418df0:	06 00 00 00 02 00 00 07 	bne $7,$0,418e00 <__udivmoddi4+0x400>
  418df8:	a1 00 00 00 07 00 00 00 	break 
  418e00:	4c 00 00 00 00 08 00 00 	mflo $8
  418e08:	4a 00 00 00 00 03 00 00 	mfhi $3
  418e10:	4f 00 00 00 ff ff 0a 09 	andi $10,$9,65535
  418e18:	46 00 00 00 00 00 0a 08 	mult $8,$10
  418e20:	57 00 00 00 10 02 05 00 	srl $2,$5,0x10
  418e28:	4c 00 00 00 00 06 00 00 	mflo $6
  418e30:	55 00 00 00 10 03 03 00 	sll $3,$3,0x10
  418e38:	50 00 00 00 00 03 02 03 	or $3,$3,$2
  418e40:	5d 00 00 00 00 02 06 03 	sltu $2,$3,$6
  418e48:	05 00 00 00 10 00 00 02 	beq $2,$0,418e90 <__udivmoddi4+0x490>
  418e50:	43 00 00 00 ff ff 08 08 	addiu $8,$8,-1
  418e58:	42 00 00 00 00 03 09 03 	addu $3,$3,$9
  418e60:	5d 00 00 00 00 02 09 03 	sltu $2,$3,$9
  418e68:	06 00 00 00 08 00 00 02 	bne $2,$0,418e90 <__udivmoddi4+0x490>
  418e70:	5d 00 00 00 00 02 06 03 	sltu $2,$3,$6
  418e78:	05 00 00 00 04 00 00 02 	beq $2,$0,418e90 <__udivmoddi4+0x490>
  418e80:	43 00 00 00 ff ff 08 08 	addiu $8,$8,-1
  418e88:	42 00 00 00 00 03 09 03 	addu $3,$3,$9
  418e90:	45 00 00 00 00 03 06 03 	subu $3,$3,$6
  418e98:	49 00 00 00 00 00 07 03 	divu $0,$3,$7
  418ea0:	06 00 00 00 02 00 00 07 	bne $7,$0,418eb0 <__udivmoddi4+0x4b0>
  418ea8:	a1 00 00 00 07 00 00 00 	break 
  418eb0:	4c 00 00 00 00 04 00 00 	mflo $4
  418eb8:	4a 00 00 00 00 03 00 00 	mfhi $3
  418ec0:	46 00 00 00 00 00 0a 04 	mult $4,$10
  418ec8:	55 00 00 00 10 02 03 00 	sll $2,$3,0x10
  418ed0:	4c 00 00 00 00 06 00 00 	mflo $6
  418ed8:	4f 00 00 00 ff ff 03 05 	andi $3,$5,65535
  418ee0:	50 00 00 00 00 03 03 02 	or $3,$2,$3
  418ee8:	5d 00 00 00 00 02 06 03 	sltu $2,$3,$6
  418ef0:	05 00 00 00 10 00 00 02 	beq $2,$0,418f38 <__udivmoddi4+0x538>
  418ef8:	43 00 00 00 ff ff 04 04 	addiu $4,$4,-1
  418f00:	42 00 00 00 00 03 09 03 	addu $3,$3,$9
  418f08:	5d 00 00 00 00 02 09 03 	sltu $2,$3,$9
  418f10:	06 00 00 00 08 00 00 02 	bne $2,$0,418f38 <__udivmoddi4+0x538>
  418f18:	5d 00 00 00 00 02 06 03 	sltu $2,$3,$6
  418f20:	05 00 00 00 04 00 00 02 	beq $2,$0,418f38 <__udivmoddi4+0x538>
  418f28:	43 00 00 00 ff ff 04 04 	addiu $4,$4,-1
  418f30:	42 00 00 00 00 03 09 03 	addu $3,$3,$9
  418f38:	55 00 00 00 10 02 08 00 	sll $2,$8,0x10
  418f40:	50 00 00 00 00 0c 04 02 	or $12,$2,$4
  418f48:	45 00 00 00 00 05 06 03 	subu $5,$3,$6
  418f50:	57 00 00 00 10 04 09 00 	srl $4,$9,0x10
  418f58:	49 00 00 00 00 00 04 05 	divu $0,$5,$4
  418f60:	06 00 00 00 02 00 00 04 	bne $4,$0,418f70 <__udivmoddi4+0x570>
  418f68:	a1 00 00 00 07 00 00 00 	break 
  418f70:	4c 00 00 00 00 06 00 00 	mflo $6
  418f78:	4a 00 00 00 00 03 00 00 	mfhi $3
  418f80:	4f 00 00 00 ff ff 07 09 	andi $7,$9,65535
  418f88:	46 00 00 00 00 00 07 06 	mult $6,$7
  418f90:	55 00 00 00 10 02 03 00 	sll $2,$3,0x10
  418f98:	4c 00 00 00 00 05 00 00 	mflo $5
  418fa0:	57 00 00 00 10 03 0b 00 	srl $3,$11,0x10
  418fa8:	50 00 00 00 00 03 03 02 	or $3,$2,$3
  418fb0:	5d 00 00 00 00 02 05 03 	sltu $2,$3,$5
  418fb8:	05 00 00 00 10 00 00 02 	beq $2,$0,419000 <__udivmoddi4+0x600>
  418fc0:	43 00 00 00 ff ff 06 06 	addiu $6,$6,-1
  418fc8:	42 00 00 00 00 03 09 03 	addu $3,$3,$9
  418fd0:	5d 00 00 00 00 02 09 03 	sltu $2,$3,$9
  418fd8:	06 00 00 00 08 00 00 02 	bne $2,$0,419000 <__udivmoddi4+0x600>
  418fe0:	5d 00 00 00 00 02 05 03 	sltu $2,$3,$5
  418fe8:	05 00 00 00 04 00 00 02 	beq $2,$0,419000 <__udivmoddi4+0x600>
  418ff0:	43 00 00 00 ff ff 06 06 	addiu $6,$6,-1
  418ff8:	42 00 00 00 00 03 09 03 	addu $3,$3,$9
  419000:	45 00 00 00 00 03 05 03 	subu $3,$3,$5
  419008:	49 00 00 00 00 00 04 03 	divu $0,$3,$4
  419010:	06 00 00 00 02 00 00 04 	bne $4,$0,419020 <__udivmoddi4+0x620>
  419018:	a1 00 00 00 07 00 00 00 	break 
  419020:	4c 00 00 00 00 04 00 00 	mflo $4
  419028:	4a 00 00 00 00 03 00 00 	mfhi $3
  419030:	46 00 00 00 00 00 07 04 	mult $4,$7
  419038:	55 00 00 00 10 02 03 00 	sll $2,$3,0x10
  419040:	4c 00 00 00 00 05 00 00 	mflo $5
  419048:	4f 00 00 00 ff ff 03 0b 	andi $3,$11,65535
  419050:	50 00 00 00 00 03 03 02 	or $3,$2,$3
  419058:	5d 00 00 00 00 02 05 03 	sltu $2,$3,$5
  419060:	05 00 00 00 10 00 00 02 	beq $2,$0,4190a8 <__udivmoddi4+0x6a8>
  419068:	43 00 00 00 ff ff 04 04 	addiu $4,$4,-1
  419070:	42 00 00 00 00 03 09 03 	addu $3,$3,$9
  419078:	5d 00 00 00 00 02 09 03 	sltu $2,$3,$9
  419080:	06 00 00 00 08 00 00 02 	bne $2,$0,4190a8 <__udivmoddi4+0x6a8>
  419088:	5d 00 00 00 00 02 05 03 	sltu $2,$3,$5
  419090:	05 00 00 00 04 00 00 02 	beq $2,$0,4190a8 <__udivmoddi4+0x6a8>
  419098:	43 00 00 00 ff ff 04 04 	addiu $4,$4,-1
  4190a0:	42 00 00 00 00 03 09 03 	addu $3,$3,$9
  4190a8:	55 00 00 00 10 02 06 00 	sll $2,$6,0x10
  4190b0:	50 00 00 00 00 0a 04 02 	or $10,$2,$4
  4190b8:	45 00 00 00 00 0b 05 03 	subu $11,$3,$5
  4190c0:	05 00 00 00 06 01 00 19 	beq $25,$0,4194e0 <__udivmoddi4+0xae0>
  4190c8:	58 00 00 00 00 0e 0b 0d 	srlv $14,$11,$13
  4190d0:	42 00 00 00 00 0f 00 00 	addu $15,$0,$0
  4190d8:	01 00 00 00 36 65 10 00 	j 4194d8 <__udivmoddi4+0xad8>
  4190e0:	5d 00 00 00 00 02 06 05 	sltu $2,$5,$6
  4190e8:	05 00 00 00 0c 00 00 02 	beq $2,$0,419120 <__udivmoddi4+0x720>
  4190f0:	42 00 00 00 00 0a 00 00 	addu $10,$0,$0
  4190f8:	42 00 00 00 00 0c 00 00 	addu $12,$0,$0
  419100:	05 00 00 00 f6 00 00 19 	beq $25,$0,4194e0 <__udivmoddi4+0xae0>
  419108:	42 00 00 00 00 0e 0b 00 	addu $14,$0,$11
  419110:	42 00 00 00 00 0f 05 00 	addu $15,$0,$5
  419118:	01 00 00 00 36 65 10 00 	j 4194d8 <__udivmoddi4+0xad8>
  419120:	42 00 00 00 00 04 06 00 	addu $4,$0,$6
  419128:	51 00 00 00 ff ff 02 00 	ori $2,$0,65535
  419130:	5d 00 00 00 00 02 06 02 	sltu $2,$2,$6
  419138:	06 00 00 00 08 00 00 02 	bne $2,$0,419160 <__udivmoddi4+0x760>
  419140:	5e 00 00 00 00 01 02 06 	sltiu $2,$6,256
  419148:	53 00 00 00 01 00 02 02 	xori $2,$2,1
  419150:	55 00 00 00 03 03 02 00 	sll $3,$2,0x3
  419158:	01 00 00 00 64 64 10 00 	j 419190 <__udivmoddi4+0x790>
  419160:	a2 00 00 00 ff 00 02 00 	lui $2,255
  419168:	51 00 00 00 ff ff 02 02 	ori $2,$2,65535
  419170:	43 00 00 00 18 00 03 00 	addiu $3,$0,24
  419178:	5d 00 00 00 00 02 06 02 	sltu $2,$2,$6
  419180:	06 00 00 00 02 00 00 02 	bne $2,$0,419190 <__udivmoddi4+0x790>
  419188:	43 00 00 00 10 00 03 00 	addiu $3,$0,16
  419190:	58 00 00 00 00 02 04 03 	srlv $2,$4,$3
  419198:	a2 00 00 00 00 10 01 00 	lui $1,4096
  4191a0:	42 00 00 00 00 01 02 01 	addu $1,$1,$2
  4191a8:	22 00 00 00 00 15 02 01 	lbu $2,5376($1)
  4191b0:	42 00 00 00 00 02 03 02 	addu $2,$2,$3
  4191b8:	43 00 00 00 20 00 03 00 	addiu $3,$0,32
  4191c0:	45 00 00 00 00 0d 02 03 	subu $13,$3,$2
  4191c8:	06 00 00 00 22 00 00 0d 	bne $13,$0,419258 <__udivmoddi4+0x858>
  4191d0:	5d 00 00 00 00 02 05 06 	sltu $2,$6,$5
  4191d8:	06 00 00 00 04 00 00 02 	bne $2,$0,4191f0 <__udivmoddi4+0x7f0>
  4191e0:	5d 00 00 00 00 02 09 0b 	sltu $2,$11,$9
  4191e8:	06 00 00 00 0e 00 00 02 	bne $2,$0,419228 <__udivmoddi4+0x828>
  4191f0:	43 00 00 00 01 00 0a 00 	addiu $10,$0,1
  4191f8:	45 00 00 00 00 04 09 0b 	subu $4,$11,$9
  419200:	45 00 00 00 00 03 06 05 	subu $3,$5,$6
  419208:	5d 00 00 00 00 02 04 0b 	sltu $2,$11,$4
  419210:	45 00 00 00 00 05 02 03 	subu $5,$3,$2
  419218:	42 00 00 00 00 0b 04 00 	addu $11,$0,$4
  419220:	01 00 00 00 8c 64 10 00 	j 419230 <__udivmoddi4+0x830>
  419228:	42 00 00 00 00 0a 00 00 	addu $10,$0,$0
  419230:	42 00 00 00 00 0c 00 00 	addu $12,$0,$0
  419238:	05 00 00 00 a8 00 00 19 	beq $25,$0,4194e0 <__udivmoddi4+0xae0>
  419240:	42 00 00 00 00 0e 0b 00 	addu $14,$0,$11
  419248:	42 00 00 00 00 0f 05 00 	addu $15,$0,$5
  419250:	01 00 00 00 36 65 10 00 	j 4194d8 <__udivmoddi4+0xad8>
  419258:	45 00 00 00 00 18 0d 03 	subu $24,$3,$13
  419260:	56 00 00 00 00 03 06 0d 	sllv $3,$6,$13
  419268:	58 00 00 00 00 02 09 18 	srlv $2,$9,$24
  419270:	50 00 00 00 00 06 02 03 	or $6,$3,$2
  419278:	56 00 00 00 00 09 09 0d 	sllv $9,$9,$13
  419280:	58 00 00 00 00 04 05 18 	srlv $4,$5,$24
  419288:	56 00 00 00 00 03 05 0d 	sllv $3,$5,$13
  419290:	58 00 00 00 00 02 0b 18 	srlv $2,$11,$24
  419298:	50 00 00 00 00 05 02 03 	or $5,$3,$2
  4192a0:	56 00 00 00 00 0b 0b 0d 	sllv $11,$11,$13
  4192a8:	57 00 00 00 10 07 06 00 	srl $7,$6,0x10
  4192b0:	49 00 00 00 00 00 07 04 	divu $0,$4,$7
  4192b8:	06 00 00 00 02 00 00 07 	bne $7,$0,4192c8 <__udivmoddi4+0x8c8>
  4192c0:	a1 00 00 00 07 00 00 00 	break 
  4192c8:	4c 00 00 00 00 0a 00 00 	mflo $10
  4192d0:	4a 00 00 00 00 03 00 00 	mfhi $3
  4192d8:	4f 00 00 00 ff ff 0c 06 	andi $12,$6,65535
  4192e0:	46 00 00 00 00 00 0c 0a 	mult $10,$12
  4192e8:	57 00 00 00 10 02 05 00 	srl $2,$5,0x10
  4192f0:	4c 00 00 00 00 08 00 00 	mflo $8
  4192f8:	55 00 00 00 10 03 03 00 	sll $3,$3,0x10
  419300:	50 00 00 00 00 03 02 03 	or $3,$3,$2
  419308:	5d 00 00 00 00 02 08 03 	sltu $2,$3,$8
  419310:	05 00 00 00 10 00 00 02 	beq $2,$0,419358 <__udivmoddi4+0x958>
  419318:	43 00 00 00 ff ff 0a 0a 	addiu $10,$10,-1
  419320:	42 00 00 00 00 03 06 03 	addu $3,$3,$6
  419328:	5d 00 00 00 00 02 06 03 	sltu $2,$3,$6
  419330:	06 00 00 00 08 00 00 02 	bne $2,$0,419358 <__udivmoddi4+0x958>
  419338:	5d 00 00 00 00 02 08 03 	sltu $2,$3,$8
  419340:	05 00 00 00 04 00 00 02 	beq $2,$0,419358 <__udivmoddi4+0x958>
  419348:	43 00 00 00 ff ff 0a 0a 	addiu $10,$10,-1
  419350:	42 00 00 00 00 03 06 03 	addu $3,$3,$6
  419358:	45 00 00 00 00 03 08 03 	subu $3,$3,$8
  419360:	49 00 00 00 00 00 07 03 	divu $0,$3,$7
  419368:	06 00 00 00 02 00 00 07 	bne $7,$0,419378 <__udivmoddi4+0x978>
  419370:	a1 00 00 00 07 00 00 00 	break 
  419378:	4c 00 00 00 00 04 00 00 	mflo $4
  419380:	4a 00 00 00 00 03 00 00 	mfhi $3
  419388:	46 00 00 00 00 00 0c 04 	mult $4,$12
  419390:	55 00 00 00 10 02 03 00 	sll $2,$3,0x10
  419398:	4c 00 00 00 00 08 00 00 	mflo $8
  4193a0:	4f 00 00 00 ff ff 03 05 	andi $3,$5,65535
  4193a8:	50 00 00 00 00 03 03 02 	or $3,$2,$3
  4193b0:	5d 00 00 00 00 02 08 03 	sltu $2,$3,$8
  4193b8:	05 00 00 00 10 00 00 02 	beq $2,$0,419400 <__udivmoddi4+0xa00>
  4193c0:	43 00 00 00 ff ff 04 04 	addiu $4,$4,-1
  4193c8:	42 00 00 00 00 03 06 03 	addu $3,$3,$6
  4193d0:	5d 00 00 00 00 02 06 03 	sltu $2,$3,$6
  4193d8:	06 00 00 00 08 00 00 02 	bne $2,$0,419400 <__udivmoddi4+0xa00>
  4193e0:	5d 00 00 00 00 02 08 03 	sltu $2,$3,$8
  4193e8:	05 00 00 00 04 00 00 02 	beq $2,$0,419400 <__udivmoddi4+0xa00>
  4193f0:	43 00 00 00 ff ff 04 04 	addiu $4,$4,-1
  4193f8:	42 00 00 00 00 03 06 03 	addu $3,$3,$6
  419400:	55 00 00 00 10 02 0a 00 	sll $2,$10,0x10
  419408:	50 00 00 00 00 0a 04 02 	or $10,$2,$4
  419410:	45 00 00 00 00 05 08 03 	subu $5,$3,$8
  419418:	47 00 00 00 00 00 09 0a 	multu $10,$9
  419420:	4c 00 00 00 00 08 00 00 	mflo $8
  419428:	4a 00 00 00 00 07 00 00 	mfhi $7
  419430:	5d 00 00 00 00 02 07 05 	sltu $2,$5,$7
  419438:	06 00 00 00 06 00 00 02 	bne $2,$0,419458 <__udivmoddi4+0xa58>
  419440:	06 00 00 00 10 00 05 07 	bne $7,$5,419488 <__udivmoddi4+0xa88>
  419448:	5d 00 00 00 00 02 08 0b 	sltu $2,$11,$8
  419450:	05 00 00 00 0c 00 00 02 	beq $2,$0,419488 <__udivmoddi4+0xa88>
  419458:	43 00 00 00 ff ff 0a 0a 	addiu $10,$10,-1
  419460:	45 00 00 00 00 04 09 08 	subu $4,$8,$9
  419468:	45 00 00 00 00 03 06 07 	subu $3,$7,$6
  419470:	5d 00 00 00 00 02 04 08 	sltu $2,$8,$4
  419478:	45 00 00 00 00 07 02 03 	subu $7,$3,$2
  419480:	42 00 00 00 00 08 04 00 	addu $8,$0,$4
  419488:	42 00 00 00 00 0c 00 00 	addu $12,$0,$0
  419490:	05 00 00 00 12 00 00 19 	beq $25,$0,4194e0 <__udivmoddi4+0xae0>
  419498:	45 00 00 00 00 03 08 0b 	subu $3,$11,$8
  4194a0:	45 00 00 00 00 04 07 05 	subu $4,$5,$7
  4194a8:	5d 00 00 00 00 02 03 0b 	sltu $2,$11,$3
  4194b0:	45 00 00 00 00 05 02 04 	subu $5,$4,$2
  4194b8:	56 00 00 00 00 02 05 18 	sllv $2,$5,$24
  4194c0:	58 00 00 00 00 03 03 0d 	srlv $3,$3,$13
  4194c8:	50 00 00 00 00 0e 03 02 	or $14,$2,$3
  4194d0:	58 00 00 00 00 0f 05 0d 	srlv $15,$5,$13
  4194d8:	35 00 00 00 00 00 0e 19 	dsw $14,0($25)
  4194e0:	42 00 00 00 00 10 0a 00 	addu $16,$0,$10
  4194e8:	42 00 00 00 00 11 0c 00 	addu $17,$0,$12
  4194f0:	42 00 00 00 00 02 10 00 	addu $2,$0,$16
  4194f8:	42 00 00 00 00 03 11 00 	addu $3,$0,$17
  419500:	28 00 00 00 04 00 11 1d 	lw $17,4($29)
  419508:	28 00 00 00 00 00 10 1d 	lw $16,0($29)
  419510:	43 00 00 00 08 00 1d 1d 	addiu $29,$29,8
  419518:	03 00 00 00 00 00 00 1f 	jr $31
Disassembly of section .rdata:

10000000 <$LC0>:
10000000:	73 74 64 69 6e 3a 20 6e 	0x69647473:6e203a6e
10000008:	6f 74 20 69 6e 20 63 6f 	0x6920746f:6f63206e
10000010:	6d 70 72 65 73 73 65 64 	0x6572706d:64657373
10000018:	20 66 6f 72 6d 61 74 0a 	0x726f6620:0a74616d
10000020:	00 00 00 00 73 74 64 69 	nop 

10000024 <$LC1>:
10000024:	73 74 64 69 6e 3a 20 63 	0x69647473:63203a6e
1000002c:	6f 6d 70 72 65 73 73 65 	0x72706d6f:65737365
10000034:	64 20 77 69 74 68 20 25 	0x69772064:25206874
1000003c:	64 20 62 69 74 73 2c 20 	0x69622064:202c7374
10000044:	63 61 6e 20 6f 6e 6c 79 	0x206e6163:796c6e6f
1000004c:	20 68 61 6e 64 6c 65 20 	0x6e616820:20656c64
10000054:	25 64 20 62 69 74 73 0a 	0x62206425:0a737469
1000005c:	00 00 00 00 43 6f 6d 70 	nop 

10000060 <$LC2>:
10000060:	43 6f 6d 70 72 65 73 73 	0x706d6f43:73736572
10000068:	69 6f 6e 3a 20 00 00 00 	0x3a6e6f69:00000020

10000070 <$LC3>:
10000070:	75 6e 63 6f 6d 70 72 65 	0x6f636e75:6572706d
10000078:	73 73 3a 20 63 6f 72 72 	0x203a7373:72726f63
10000080:	75 70 74 20 69 6e 70 75 	0x20747075:75706e69
10000088:	74 0a 00 00 25 64 2e 25 	0x00000a74:252e6425

1000008c <$LC4>:
1000008c:	25 64 2e 25 30 32 64 25 	0x252e6425:25643230
10000094:	25 00 00 00 4f 70 74 69 	0x00000025:6974704f

10000098 <$LC6>:
10000098:	4f 70 74 69 6f 6e 73 3a 	0x6974704f:3a736e6f
100000a0:	20 00 00 00 42 49 54 53 	lb $84,18754($83)

100000a4 <$LC7>:
100000a4:	42 49 54 53 20 3d 20 25 	0x53544942:25203d20
100000ac:	64 0a 00 00 46 69 6c 65 	0x00000a64:656c6946

100000b0 <$LC5>:
100000b0:	46 69 6c 65 73 20 62 6f 	0x656c6946:6f622073
100000b8:	74 68 20 68 61 76 65 20 	0x68206874:20657661
100000c0:	6c 65 6e 67 74 68 20 25 	0x676e656c:25206874
100000c8:	64 0a 00 00 46 69 72 73 	0x00000a64:73726946

100000cc <$LC6>:
100000cc:	46 69 72 73 74 20 63 68 	0x73726946:68632074
100000d4:	61 72 61 63 74 65 72 20 	0x63617261:20726574
100000dc:	28 25 63 29 20 61 6e 64 	0x29632528:646e6120
100000e4:	20 4c 61 73 74 20 43 68 	0x73614c20:68432074
100000ec:	61 72 61 63 74 65 72 20 	0x63617261:20726574
100000f4:	28 25 63 29 20 6d 61 74 	0x29632528:74616d20
100000fc:	63 68 2e 20 0a 00 00 00 	0x202e6863:0000000a

10000104 <$LC7>:
10000104:	46 69 72 73 74 20 61 6e 	0x73726946:6e612074
1000010c:	64 20 6c 61 73 74 20 63 	0x616c2064:63207473
10000114:	68 61 72 61 63 74 65 72 	0x61726168:72657463
1000011c:	73 20 64 6f 20 6e 6f 74 	0x6f642073:746f6e20
10000124:	20 6d 61 74 63 68 2e 0a 	0x74616d20:0a2e6863
1000012c:	00 00 00 00 25 63 20 64 	nop 

10000130 <$LC8>:
10000130:	25 63 20 64 6f 65 73 20 	0x64206325:2073656f
10000138:	6e 6f 74 20 6d 61 74 63 	0x20746f6e:6374616d
10000140:	68 20 25 63 0a 00 00 00 	0x63252068:0000000a

10000148 <$LC9>:
10000148:	6f 72 20 25 63 20 64 6f 	0x2520726f:6f642063
10000150:	65 73 20 6e 6f 74 20 6d 	0x6e207365:6d20746f
10000158:	61 74 63 68 20 25 63 0a 	0x68637461:0a632520
10000160:	00 00 00 00 57 61 72 6e 	nop 

10000164 <$LC10>:
10000164:	57 61 72 6e 69 6e 67 3a 	0x6e726157:3a676e69
1000016c:	20 46 69 6c 65 73 20 6f 	0x6c694620:6f207365
10000174:	66 20 64 69 66 66 65 72 	0x69642066:72656666
1000017c:	69 6e 67 20 6c 65 6e 67 	0x20676e69:676e656c
10000184:	74 68 73 3a 20 25 64 20 	0x3a736874:20642520
1000018c:	61 6e 64 20 25 64 0a 00 	0x20646e61:000a6425

10000194 <$LC11>:
10000194:	53 50 45 43 20 31 32 39 	0x43455053:39323120
1000019c:	2e 63 6f 6d 70 72 65 73 	0x6d6f632e:73657270
100001a4:	73 20 68 61 72 6e 65 73 	0x61682073:73656e72
100001ac:	73 0a 00 00 25 69 09 25 	0x00000a73:25096925

100001b0 <$LC12>:
100001b0:	25 69 09 25 63 09 25 69 	0x25096925:69250963
100001b8:	00 00 00 00 49 6e 69 74 	nop 

100001bc <$LC13>:
100001bc:	49 6e 69 74 69 61 6c 20 	0x74696e49:206c6169
100001c4:	46 69 6c 65 20 53 69 7a 	0x656c6946:7a695320
100001cc:	65 3a 25 69 09 53 74 61 	0x69253a65:61745309
100001d4:	72 74 20 63 68 61 72 61 	0x63207472:61726168
100001dc:	63 74 65 72 3a 25 63 0a 	0x72657463:0a63253a
100001e4:	00 00 00 00 54 68 65 20 	nop 

100001e8 <$LC14>:
100001e8:	54 68 65 20 73 74 61 72 	0x20656854:72617473
100001f0:	74 69 6e 67 20 73 69 7a 	0x676e6974:7a697320
100001f8:	65 20 69 73 3a 20 25 64 	0x73692065:6425203a
10000200:	0a 00 00 00 54 68 65 20 	bgez $32,1001a358 <_gp+0xf8>

10000204 <$LC15>:
10000204:	54 68 65 20 63 6f 6d 70 	0x20656854:706d6f63
1000020c:	72 65 73 73 65 64 20 73 	0x73736572:73206465
10000214:	69 7a 65 20 69 73 3a 20 	0x20657a69:203a7369
1000021c:	25 64 0a 00 54 68 65 20 	0x000a6425:20656854

10000220 <$LC16>:
10000220:	54 68 65 20 63 6f 6d 70 	0x20656854:706d6f63
10000228:	72 65 73 73 65 64 2f 75 	0x73736572:752f6465
10000230:	6e 63 6f 6d 70 72 65 73 	0x6d6f636e:73657270
10000238:	73 65 64 20 73 69 7a 65 	0x20646573:657a6973
10000240:	20 69 73 3a 20 25 64 0a 	0x3a736920:0a642520
	...

10000250 <__default_io_functions>:
10000250:	30 7d 40 00 60 7d 40 00 	0x00407d30:00407d60
10000258:	58 7e 40 00 d0 7e 40 00 	0x00407e58:00407ed0
10000260:	00 7f 40 00 00 00 00 00 	0x00407f00:00000000
	...

10000270 <$LC1>:
10000270:	55 6e 6b 6e 6f 77 6e 20 	0x6e6b6e55:206e776f
10000278:	65 72 72 6f 72 20 25 64 	0x6f727265:64252072
	...

10000288 <$L102>:
10000288:	00 56 40 00 60 56 40 00 	0x00405600:00405660
10000290:	60 56 40 00 38 56 40 00 	0x00405660:00405638
10000298:	60 56 40 00 60 56 40 00 	0x00405660:00405660
100002a0:	60 56 40 00 60 56 40 00 	0x00405660:00405660
100002a8:	60 56 40 00 60 56 40 00 	0x00405660:00405660
100002b0:	60 56 40 00 10 56 40 00 	0x00405660:00405610
100002b8:	60 56 40 00 20 56 40 00 	0x00405660:00405620
100002c0:	60 56 40 00 60 56 40 00 	0x00405660:00405660
100002c8:	50 56 40 00 00 00 00 00 	0x00405650:00000000

100002d0 <$L134>:
100002d0:	00 5a 40 00 08 5a 40 00 	0x00405a00:00405a08
100002d8:	08 5a 40 00 08 5a 40 00 	0x00405a08:00405a08
100002e0:	08 5a 40 00 08 5a 40 00 	0x00405a08:00405a08
100002e8:	08 5a 40 00 08 5a 40 00 	0x00405a08:00405a08
100002f0:	08 5a 40 00 08 5a 40 00 	0x00405a08:00405a08
100002f8:	08 5a 40 00 08 5a 40 00 	0x00405a08:00405a08
10000300:	08 5a 40 00 08 5a 40 00 	0x00405a08:00405a08
10000308:	e8 59 40 00 08 5a 40 00 	0x004059e8:00405a08
10000310:	08 5a 40 00 08 5a 40 00 	0x00405a08:00405a08
10000318:	08 5a 40 00 08 5a 40 00 	0x00405a08:00405a08
10000320:	08 5a 40 00 08 5a 40 00 	0x00405a08:00405a08
10000328:	08 5a 40 00 08 5a 40 00 	0x00405a08:00405a08
10000330:	08 5a 40 00 08 5a 40 00 	0x00405a08:00405a08
10000338:	08 5a 40 00 08 5a 40 00 	0x00405a08:00405a08
10000340:	b8 59 40 00 08 5a 40 00 	0x004059b8:00405a08
10000348:	08 5a 40 00 08 5a 40 00 	0x00405a08:00405a08
10000350:	c8 59 40 00 08 5a 40 00 	0x004059c8:00405a08
10000358:	08 5a 40 00 08 5a 40 00 	0x00405a08:00405a08
10000360:	08 5a 40 00 00 5a 40 00 	0x00405a08:00405a00

10000368 <$L499>:
10000368:	a0 67 40 00 98 72 40 00 	0x004067a0:00407298
10000370:	a0 67 40 00 98 72 40 00 	0x004067a0:00407298
10000378:	98 72 40 00 98 72 40 00 	0x00407298:00407298
10000380:	98 72 40 00 98 72 40 00 	0x00407298:00407298
10000388:	98 72 40 00 98 72 40 00 	0x00407298:00407298
10000390:	98 72 40 00 98 72 40 00 	0x00407298:00407298
10000398:	98 72 40 00 98 72 40 00 	0x00407298:00407298
100003a0:	98 72 40 00 98 72 40 00 	0x00407298:00407298
100003a8:	98 72 40 00 98 72 40 00 	0x00407298:00407298
100003b0:	98 72 40 00 d0 5c 40 00 	0x00407298:00405cd0
100003b8:	98 72 40 00 98 72 40 00 	0x00407298:00407298
100003c0:	98 72 40 00 98 72 40 00 	0x00407298:00407298
100003c8:	98 72 40 00 98 72 40 00 	0x00407298:00407298
100003d0:	98 72 40 00 98 72 40 00 	0x00407298:00407298
100003d8:	98 72 40 00 98 72 40 00 	0x00407298:00407298
100003e0:	b8 67 40 00 08 5b 40 00 	0x004067b8:00405b08
100003e8:	a0 67 40 00 a0 67 40 00 	0x004067a0:004067a0
100003f0:	a0 67 40 00 98 72 40 00 	0x004067a0:00407298
100003f8:	08 5b 40 00 98 72 40 00 	0x00405b08:00407298
10000400:	98 72 40 00 98 72 40 00 	0x00407298:00407298
10000408:	08 72 40 00 e8 70 40 00 	0x00407208:004070e8
10000410:	b8 5c 40 00 e8 6d 40 00 	0x00405cb8:00406de8
10000418:	98 72 40 00 98 72 40 00 	0x00407298:00407298
10000420:	28 6a 40 00 98 72 40 00 	0x00406a28:00407298
10000428:	a8 5c 40 00 98 72 40 00 	0x00405ca8:00407298
10000430:	98 72 40 00 d0 5c 40 00 	0x00407298:00405cd0
	...

10000440 <$L92>:
10000440:	b0 9c 40 00 d8 9c 40 00 	0x00409cb0:00409cd8
10000448:	d8 9c 40 00 d8 9c 40 00 	0x00409cd8:00409cd8
10000450:	d8 9c 40 00 d8 9c 40 00 	0x00409cd8:00409cd8
10000458:	d8 9c 40 00 d8 9c 40 00 	0x00409cd8:00409cd8
10000460:	d8 9c 40 00 d8 9c 40 00 	0x00409cd8:00409cd8
10000468:	d8 9c 40 00 d8 9c 40 00 	0x00409cd8:00409cd8
10000470:	d8 9c 40 00 d8 9c 40 00 	0x00409cd8:00409cd8
10000478:	d8 9c 40 00 d8 9c 40 00 	0x00409cd8:00409cd8
10000480:	d8 9c 40 00 d8 9c 40 00 	0x00409cd8:00409cd8
10000488:	d8 9c 40 00 d8 9c 40 00 	0x00409cd8:00409cd8
10000490:	d8 9c 40 00 c8 9c 40 00 	0x00409cd8:00409cc8
10000498:	d8 9c 40 00 d8 9c 40 00 	0x00409cd8:00409cd8
100004a0:	d8 9c 40 00 d8 9c 40 00 	0x00409cd8:00409cd8
100004a8:	d8 9c 40 00 d8 9c 40 00 	0x00409cd8:00409cd8
100004b0:	68 9c 40 00 d8 9c 40 00 	0x00409c68:00409cd8
100004b8:	d8 9c 40 00 d8 9c 40 00 	0x00409cd8:00409cd8
100004c0:	80 9c 40 00 d8 9c 40 00 	0x00409c80:00409cd8
100004c8:	d8 9c 40 00 d8 9c 40 00 	0x00409cd8:00409cd8
100004d0:	d8 9c 40 00 b0 9c 40 00 	0x00409cd8:00409cb0

100004d8 <$L355>:
100004d8:	88 9e 40 00 18 b6 40 00 	0x00409e88:0040b618
100004e0:	18 b6 40 00 18 b6 40 00 	0x0040b618:0040b618
100004e8:	18 b6 40 00 18 b6 40 00 	0x0040b618:0040b618
100004f0:	18 b6 40 00 18 b6 40 00 	0x0040b618:0040b618
100004f8:	18 b6 40 00 18 b6 40 00 	0x0040b618:0040b618
10000500:	18 b6 40 00 18 b6 40 00 	0x0040b618:0040b618
10000508:	18 b6 40 00 18 b6 40 00 	0x0040b618:0040b618
10000510:	18 b6 40 00 18 b6 40 00 	0x0040b618:0040b618
10000518:	18 b6 40 00 18 b6 40 00 	0x0040b618:0040b618
10000520:	18 b6 40 00 18 b6 40 00 	0x0040b618:0040b618
10000528:	18 b6 40 00 18 b6 40 00 	0x0040b618:0040b618
10000530:	18 b6 40 00 18 b6 40 00 	0x0040b618:0040b618
10000538:	18 b6 40 00 18 b6 40 00 	0x0040b618:0040b618
10000540:	18 b6 40 00 18 b6 40 00 	0x0040b618:0040b618
10000548:	18 b6 40 00 18 b6 40 00 	0x0040b618:0040b618
10000550:	18 b6 40 00 18 b6 40 00 	0x0040b618:0040b618
10000558:	38 ac 40 00 18 b6 40 00 	0x0040ac38:0040b618
10000560:	38 ac 40 00 18 b6 40 00 	0x0040ac38:0040b618
10000568:	18 b6 40 00 18 b6 40 00 	0x0040b618:0040b618
10000570:	18 b6 40 00 18 b6 40 00 	0x0040b618:0040b618
10000578:	18 b6 40 00 18 b6 40 00 	0x0040b618:0040b618
10000580:	18 b6 40 00 18 b6 40 00 	0x0040b618:0040b618
10000588:	18 b6 40 00 18 b6 40 00 	0x0040b618:0040b618
10000590:	18 b6 40 00 18 b6 40 00 	0x0040b618:0040b618
10000598:	18 b6 40 00 18 b6 40 00 	0x0040b618:0040b618
100005a0:	18 b6 40 00 10 a4 40 00 	0x0040b618:0040a410
100005a8:	18 b6 40 00 18 b6 40 00 	0x0040b618:0040b618
100005b0:	a0 b0 40 00 18 b6 40 00 	0x0040b0a0:0040b618
100005b8:	18 b6 40 00 18 b6 40 00 	0x0040b618:0040b618
100005c0:	18 b6 40 00 18 b6 40 00 	0x0040b618:0040b618
100005c8:	18 b6 40 00 18 b6 40 00 	0x0040b618:0040b618
100005d0:	10 9f 40 00 58 a4 40 00 	0x00409f10:0040a458
100005d8:	38 ac 40 00 38 ac 40 00 	0x0040ac38:0040ac38
100005e0:	38 ac 40 00 18 b6 40 00 	0x0040ac38:0040b618
100005e8:	68 a4 40 00 18 b6 40 00 	0x0040a468:0040b618
100005f0:	18 b6 40 00 18 b6 40 00 	0x0040b618:0040b618
100005f8:	18 b6 40 00 b8 9e 40 00 	0x0040b618:00409eb8
10000600:	28 a4 40 00 f8 b5 40 00 	0x0040a428:0040b5f8
10000608:	18 b6 40 00 18 b6 40 00 	0x0040b618:0040b618
10000610:	f0 a0 40 00 18 b6 40 00 	0x0040a0f0:0040b618
10000618:	40 a4 40 00 18 b6 40 00 	0x0040a440:0040b618
10000620:	18 b6 40 00 10 a4 40 00 	0x0040b618:0040a410
	...

10000630 <sys_errlist>:
10000630:	74 23 01 10 30 0e 00 10 	0x10012374:10000e30
10000638:	14 0e 00 10 04 0e 00 10 	0x10000e14:10000e04
10000640:	ec 0d 00 10 e0 0d 00 10 	0x10000dec:10000de0
10000648:	c4 0d 00 10 b0 0d 00 10 	0x10000dc4:10000db0
10000650:	9c 0d 00 10 8c 0d 00 10 	0x10000d9c:10000d8c
10000658:	80 0d 00 10 6c 0d 00 10 	0x10000d80:10000d6c
10000660:	5c 0d 00 10 48 0d 00 10 	0x10000d5c:10000d48
10000668:	3c 0d 00 10 24 0d 00 10 	0x10000d3c:10000d24
10000670:	10 0d 00 10 04 0d 00 10 	0x10000d10:10000d04
10000678:	f0 0c 00 10 e0 0c 00 10 	0x10000cf0:10000ce0
10000680:	d0 0c 00 10 c0 0c 00 10 	0x10000cd0:10000cc0
10000688:	ac 0c 00 10 98 0c 00 10 	0x10000cac:10000c98
10000690:	84 0c 00 10 70 0c 00 10 	0x10000c84:10000c70
10000698:	60 0c 00 10 50 0c 00 10 	0x10000c60:10000c50
100006a0:	38 0c 00 10 28 0c 00 10 	0x10000c38:10000c28
100006a8:	04 0c 00 10 f4 0b 00 10 	0x10000c04:10000bf4
100006b0:	e8 0b 00 10 d4 0b 00 10 	0x10000be8:10000bd4
100006b8:	c0 0b 00 10 a8 0b 00 10 	0x10000bc0:10000ba8
100006c0:	8c 0b 00 10 6c 0b 00 10 	0x10000b8c:10000b6c
100006c8:	4c 0b 00 10 2c 0b 00 10 	0x10000b4c:10000b2c
100006d0:	18 0b 00 10 f8 0a 00 10 	0x10000b18:10000af8
100006d8:	e0 0a 00 10 c8 0a 00 10 	0x10000ae0:10000ac8
100006e0:	ac 0a 00 10 94 0a 00 10 	0x10000aac:10000a94
100006e8:	74 0a 00 10 44 0a 00 10 	0x10000a74:10000a44
100006f0:	2c 0a 00 10 0c 0a 00 10 	0x10000a2c:10000a0c
100006f8:	fc 09 00 10 e4 09 00 10 	0x100009fc:100009e4
10000700:	c0 09 00 10 9c 09 00 10 	0x100009c0:1000099c
10000708:	80 09 00 10 64 09 00 10 	0x10000980:10000964
10000710:	48 09 00 10 30 09 00 10 	0x10000948:10000930
10000718:	0c 09 00 10 e8 08 00 10 	0x1000090c:100008e8
10000720:	d0 08 00 10 bc 08 00 10 	0x100008d0:100008bc
10000728:	98 08 00 10 84 08 00 10 	0x10000898:10000884
10000730:	74 08 00 10 60 08 00 10 	0x10000874:10000860
10000738:	4c 08 00 10 38 08 00 10 	0x1000084c:10000838
10000740:	28 08 00 10 14 08 00 10 	0x10000828:10000814
10000748:	fc 07 00 10 d8 07 00 10 	0x100007fc:100007d8
10000750:	bc 07 00 10 a8 07 00 10 	0x100007bc:100007a8
10000758:	98 07 00 10 84 07 00 10 	0x10000798:10000784
10000760:	68 07 00 10 00 00 00 00 	0x10000768:00000000

10000768 <$LC76>:
10000768:	46 75 6e 63 74 69 6f 6e 	0x636e7546:6e6f6974
10000770:	20 6e 6f 74 20 69 6d 70 	0x746f6e20:706d6920
10000778:	6c 65 6d 65 6e 74 65 64 	0x656d656c:6465746e
10000780:	00 00 00 00 4e 6f 20 6c 	nop 

10000784 <$LC75>:
10000784:	4e 6f 20 6c 6f 63 6b 73 	0x6c206f4e:736b636f
1000078c:	20 61 76 61 69 6c 61 62 	0x61766120:62616c69
10000794:	6c 65 00 00 41 6c 69 67 	0x0000656c:67696c41

10000798 <$LC74>:
10000798:	41 6c 69 67 6e 6d 65 6e 	0x67696c41:6e656d6e
100007a0:	74 20 65 72 72 6f 72 00 	0x72652074:00726f72

100007a8 <$LC73>:
100007a8:	49 64 65 6e 74 69 66 69 	0x6e656449:69666974
100007b0:	65 72 20 72 65 6d 6f 76 	0x72207265:766f6d65
100007b8:	65 64 00 00 4e 6f 20 6d 	0x00006465:6d206f4e

100007bc <$LC72>:
100007bc:	4e 6f 20 6d 65 73 73 61 	0x6d206f4e:61737365
100007c4:	67 65 20 6f 66 20 64 65 	0x6f206567:65642066
100007cc:	73 69 72 65 64 20 74 79 	0x65726973:79742064
100007d4:	70 65 00 00 54 6f 6f 20 	0x00006570:206f6f54

100007d8 <$LC71>:
100007d8:	54 6f 6f 20 6d 61 6e 79 	0x206f6f54:796e616d
100007e0:	20 6c 65 76 65 6c 73 20 	0x76656c20:20736c65
100007e8:	6f 66 20 72 65 6d 6f 74 	0x7220666f:746f6d65
100007f0:	65 20 69 6e 20 70 61 74 	0x6e692065:74617020
100007f8:	68 00 00 00 53 74 61 6c 	0x00000068:6c617453

100007fc <$LC70>:
100007fc:	53 74 61 6c 65 20 4e 46 	0x6c617453:464e2065
10000804:	53 20 66 69 6c 65 20 68 	0x69662053:6820656c
1000080c:	61 6e 64 6c 65 00 00 00 	0x6c646e61:00000065

10000814 <$LC69>:
10000814:	44 69 73 63 20 71 75 6f 	0x63736944:6f757120
1000081c:	74 61 20 65 78 63 65 65 	0x65206174:65656378
10000824:	64 65 64 00 54 6f 6f 20 	0x00646564:206f6f54

10000828 <$LC68>:
10000828:	54 6f 6f 20 6d 61 6e 79 	0x206f6f54:796e616d
10000830:	20 75 73 65 72 73 00 00 	0x65737520:00007372

10000838 <$LC67>:
10000838:	54 6f 6f 20 6d 61 6e 79 	0x206f6f54:796e616d
10000840:	20 70 72 6f 63 65 73 73 	0x6f727020:73736563
10000848:	65 73 00 00 44 69 72 65 	0x00007365:65726944

1000084c <$LC66>:
1000084c:	44 69 72 65 63 74 6f 72 	0x65726944:726f7463
10000854:	79 20 6e 6f 74 20 65 6d 	0x6f6e2079:6d652074
1000085c:	70 74 79 00 48 6f 73 74 	0x00797470:74736f48

10000860 <$LC65>:
10000860:	48 6f 73 74 20 69 73 20 	0x74736f48:20736920
10000868:	75 6e 72 65 61 63 68 61 	0x65726e75:61686361
10000870:	62 6c 65 00 48 6f 73 74 	0x00656c62:74736f48

10000874 <$LC64>:
10000874:	48 6f 73 74 20 69 73 20 	0x74736f48:20736920
1000087c:	64 6f 77 6e 00 00 00 00 	0x6e776f64:00000000

10000884 <$LC63>:
10000884:	46 69 6c 65 20 6e 61 6d 	0x656c6946:6d616e20
1000088c:	65 20 74 6f 6f 20 6c 6f 	0x6f742065:6f6c206f
10000894:	6e 67 00 00 54 6f 6f 20 	0x0000676e:206f6f54

10000898 <$LC62>:
10000898:	54 6f 6f 20 6d 61 6e 79 	0x206f6f54:796e616d
100008a0:	20 6c 65 76 65 6c 73 20 	0x76656c20:20736c65
100008a8:	6f 66 20 73 79 6d 62 6f 	0x7320666f:6f626d79
100008b0:	6c 69 63 20 6c 69 6e 6b 	0x2063696c:6b6e696c
100008b8:	73 00 00 00 43 6f 6e 6e 	sub.d $f111,$f110,$f110

100008bc <$LC61>:
100008bc:	43 6f 6e 6e 65 63 74 69 	0x6e6e6f43:69746365
100008c4:	6f 6e 20 72 65 66 75 73 	0x72206e6f:73756665
100008cc:	65 64 00 00 43 6f 6e 6e 	0x00006465:6e6e6f43

100008d0 <$LC60>:
100008d0:	43 6f 6e 6e 65 63 74 69 	0x6e6e6f43:69746365
100008d8:	6f 6e 20 74 69 6d 65 64 	0x74206e6f:64656d69
100008e0:	20 6f 75 74 00 00 00 00 	0x74756f20:00000000

100008e8 <$LC59>:
100008e8:	54 6f 6f 20 6d 61 6e 79 	0x206f6f54:796e616d
100008f0:	20 72 65 66 65 72 65 6e 	0x66657220:6e657265
100008f8:	63 65 73 3a 20 63 61 6e 	0x3a736563:6e616320
10000900:	27 74 20 73 70 6c 69 63 	0x73207427:63696c70
10000908:	65 00 00 00 43 61 6e 27 	0x00000065:276e6143

1000090c <$LC58>:
1000090c:	43 61 6e 27 74 20 73 65 	0x276e6143:65732074
10000914:	6e 64 20 61 66 74 65 72 	0x6120646e:72657466
1000091c:	20 73 6f 63 6b 65 74 20 	0x636f7320:2074656b
10000924:	73 68 75 74 64 6f 77 6e 	0x74756873:6e776f64
1000092c:	00 00 00 00 53 6f 63 6b 	nop 

10000930 <$LC57>:
10000930:	53 6f 63 6b 65 74 20 69 	0x6b636f53:69207465
10000938:	73 20 6e 6f 74 20 63 6f 	0x6f6e2073:6f632074
10000940:	6e 6e 65 63 74 65 64 00 	0x63656e6e:00646574

10000948 <$LC56>:
10000948:	53 6f 63 6b 65 74 20 69 	0x6b636f53:69207465
10000950:	73 20 61 6c 72 65 61 64 	0x6c612073:64616572
10000958:	79 20 63 6f 6e 6e 65 63 	0x6f632079:63656e6e
10000960:	74 65 64 00 4e 6f 20 62 	0x00646574:62206f4e

10000964 <$LC55>:
10000964:	4e 6f 20 62 75 66 66 65 	0x62206f4e:65666675
1000096c:	72 20 73 70 61 63 65 20 	0x70732072:20656361
10000974:	61 76 61 69 6c 61 62 6c 	0x69617661:6c62616c
1000097c:	65 00 00 00 43 6f 6e 6e 	0x00000065:6e6e6f43

10000980 <$LC54>:
10000980:	43 6f 6e 6e 65 63 74 69 	0x6e6e6f43:69746365
10000988:	6f 6e 20 72 65 73 65 74 	0x72206e6f:74657365
10000990:	20 62 79 20 70 65 65 72 	0x20796220:72656570
10000998:	00 00 00 00 53 6f 66 74 	nop 

1000099c <$LC53>:
1000099c:	53 6f 66 74 77 61 72 65 	0x74666f53:65726177
100009a4:	20 63 61 75 73 65 64 20 	0x75616320:20646573
100009ac:	63 6f 6e 6e 65 63 74 69 	0x6e6e6f63:69746365
100009b4:	6f 6e 20 61 62 6f 72 74 	0x61206e6f:74726f62
100009bc:	00 00 00 00 4e 65 74 77 	nop 

100009c0 <$LC52>:
100009c0:	4e 65 74 77 6f 72 6b 20 	0x7774654e:206b726f
100009c8:	64 72 6f 70 70 65 64 20 	0x706f7264:20646570
100009d0:	63 6f 6e 6e 65 63 74 69 	0x6e6e6f63:69746365
100009d8:	6f 6e 20 6f 6e 20 72 65 	0x6f206e6f:6572206e
100009e0:	73 65 74 00 4e 65 74 77 	0x00746573:7774654e

100009e4 <$LC51>:
100009e4:	4e 65 74 77 6f 72 6b 20 	0x7774654e:206b726f
100009ec:	69 73 20 75 6e 72 65 61 	0x75207369:6165726e
100009f4:	63 68 61 62 6c 65 00 00 	0x62616863:0000656c

100009fc <$LC50>:
100009fc:	4e 65 74 77 6f 72 6b 20 	0x7774654e:206b726f
10000a04:	69 73 20 64 6f 77 6e 00 	0x64207369:006e776f

10000a0c <$LC49>:
10000a0c:	43 61 6e 27 74 20 61 73 	0x276e6143:73612074
10000a14:	73 69 67 6e 20 72 65 71 	0x6e676973:71657220
10000a1c:	75 65 73 74 65 64 20 61 	0x74736575:61206465
10000a24:	64 64 72 65 73 73 00 00 	0x65726464:00007373

10000a2c <$LC48>:
10000a2c:	41 64 64 72 65 73 73 20 	0x72646441:20737365
10000a34:	61 6c 72 65 61 64 79 20 	0x65726c61:20796461
10000a3c:	69 6e 20 75 73 65 00 00 	0x75206e69:00006573

10000a44 <$LC47>:
10000a44:	41 64 64 72 65 73 73 20 	0x72646441:20737365
10000a4c:	66 61 6d 69 6c 79 20 6e 	0x696d6166:6e20796c
10000a54:	6f 74 20 73 75 70 70 6f 	0x7320746f:6f707075
10000a5c:	72 74 65 64 20 62 79 20 	0x64657472:20796220
10000a64:	70 72 6f 74 6f 63 6f 6c 	0x746f7270:6c6f636f
10000a6c:	20 66 61 6d 69 6c 79 00 	0x6d616620:00796c69

10000a74 <$LC46>:
10000a74:	50 72 6f 74 6f 63 6f 6c 	0x746f7250:6c6f636f
10000a7c:	20 66 61 6d 69 6c 79 20 	0x6d616620:20796c69
10000a84:	6e 6f 74 20 73 75 70 70 	0x20746f6e:70707573
10000a8c:	6f 72 74 65 64 00 00 00 	0x6574726f:00000064

10000a94 <$LC45>:
10000a94:	4f 70 65 72 61 74 69 6f 	0x7265704f:6f697461
10000a9c:	6e 20 6e 6f 74 20 73 75 	0x6f6e206e:75732074
10000aa4:	70 70 6f 72 74 65 64 00 	0x726f7070:00646574

10000aac <$LC44>:
10000aac:	53 6f 63 6b 65 74 20 74 	0x6b636f53:74207465
10000ab4:	79 70 65 20 6e 6f 74 20 	0x20657079:20746f6e
10000abc:	73 75 70 70 6f 72 74 65 	0x70707573:6574726f
10000ac4:	64 00 00 00 50 72 6f 74 	0x00000064:746f7250

10000ac8 <$LC43>:
10000ac8:	50 72 6f 74 6f 63 6f 6c 	0x746f7250:6c6f636f
10000ad0:	20 6e 6f 74 20 73 75 70 	0x746f6e20:70757320
10000ad8:	70 6f 72 74 65 64 00 00 	0x74726f70:00006465

10000ae0 <$LC42>:
10000ae0:	50 72 6f 74 6f 63 6f 6c 	0x746f7250:6c6f636f
10000ae8:	20 6e 6f 74 20 61 76 61 	0x746f6e20:61766120
10000af0:	69 6c 61 62 6c 65 00 00 	0x62616c69:0000656c

10000af8 <$LC41>:
10000af8:	50 72 6f 74 6f 63 6f 6c 	0x746f7250:6c6f636f
10000b00:	20 77 72 6f 6e 67 20 74 	0x6f727720:7420676e
10000b08:	79 70 65 20 66 6f 72 20 	0x20657079:20726f66
10000b10:	73 6f 63 6b 65 74 00 00 	0x6b636f73:00007465

10000b18 <$LC40>:
10000b18:	4d 65 73 73 61 67 65 20 	0x7373654d:20656761
10000b20:	74 6f 6f 20 6c 6f 6e 67 	0x206f6f74:676e6f6c
10000b28:	00 00 00 00 44 65 73 74 	nop 

10000b2c <$LC39>:
10000b2c:	44 65 73 74 69 6e 61 74 	0x74736544:74616e69
10000b34:	69 6f 6e 20 61 64 64 72 	0x206e6f69:72646461
10000b3c:	65 73 73 20 72 65 71 75 	0x20737365:75716572
10000b44:	69 72 65 64 00 00 00 00 	0x64657269:00000000

10000b4c <$LC38>:
10000b4c:	53 6f 63 6b 65 74 20 6f 	0x6b636f53:6f207465
10000b54:	70 65 72 61 74 69 6f 6e 	0x61726570:6e6f6974
10000b5c:	20 6f 6e 20 6e 6f 6e 2d 	0x206e6f20:2d6e6f6e
10000b64:	73 6f 63 6b 65 74 00 00 	0x6b636f73:00007465

10000b6c <$LC37>:
10000b6c:	4f 70 65 72 61 74 69 6f 	0x7265704f:6f697461
10000b74:	6e 20 61 6c 72 65 61 64 	0x6c61206e:64616572
10000b7c:	79 20 69 6e 20 70 72 6f 	0x6e692079:6f727020
10000b84:	67 72 65 73 73 00 00 00 	0x73657267:00000073

10000b8c <$LC36>:
10000b8c:	4f 70 65 72 61 74 69 6f 	0x7265704f:6f697461
10000b94:	6e 20 6e 6f 77 20 69 6e 	0x6f6e206e:6e692077
10000b9c:	20 70 72 6f 67 72 65 73 	0x6f727020:73657267
10000ba4:	73 00 00 00 4f 70 65 72 	sub.d $f112,$f114,$f101

10000ba8 <$LC35>:
10000ba8:	4f 70 65 72 61 74 69 6f 	0x7265704f:6f697461
10000bb0:	6e 20 77 6f 75 6c 64 20 	0x6f77206e:20646c75
10000bb8:	62 6c 6f 63 6b 00 00 00 	0x636f6c62:0000006b

10000bc0 <$LC34>:
10000bc0:	52 65 73 75 6c 74 20 74 	0x75736552:7420746c
10000bc8:	6f 6f 20 6c 61 72 67 65 	0x6c206f6f:65677261
10000bd0:	00 00 00 00 41 72 67 75 	nop 

10000bd4 <$LC33>:
10000bd4:	41 72 67 75 6d 65 6e 74 	0x75677241:746e656d
10000bdc:	20 74 6f 6f 20 6c 61 72 	0x6f6f7420:72616c20
10000be4:	67 65 00 00 42 72 6f 6b 	0x00006567:6b6f7242

10000be8 <$LC32>:
10000be8:	42 72 6f 6b 65 6e 20 70 	0x6b6f7242:70206e65
10000bf0:	69 70 65 00 54 6f 6f 20 	0x00657069:206f6f54

10000bf4 <$LC31>:
10000bf4:	54 6f 6f 20 6d 61 6e 79 	0x206f6f54:796e616d
10000bfc:	20 6c 69 6e 6b 73 00 00 	0x6e696c20:0000736b

10000c04 <$LC30>:
10000c04:	52 65 73 74 72 69 63 74 	0x74736552:74636972
10000c0c:	65 64 20 6f 70 65 72 61 	0x6f206465:61726570
10000c14:	74 69 6f 6e 20 6f 6e 20 	0x6e6f6974:206e6f20
10000c1c:	66 69 6c 65 20 73 79 73 	0x656c6966:73797320
10000c24:	74 65 6d 00 49 6c 6c 65 	0x006d6574:656c6c49

10000c28 <$LC29>:
10000c28:	49 6c 6c 65 67 61 6c 20 	0x656c6c49:206c6167
10000c30:	73 65 65 6b 00 00 00 00 	0x6b656573:00000000

10000c38 <$LC28>:
10000c38:	4e 6f 20 73 70 61 63 65 	0x73206f4e:65636170
10000c40:	20 6c 65 66 74 20 6f 6e 	0x66656c20:6e6f2074
10000c48:	20 64 65 76 69 63 65 00 	0x76656420:00656369

10000c50 <$LC27>:
10000c50:	46 69 6c 65 20 74 6f 6f 	0x656c6946:6f6f7420
10000c58:	20 6c 61 72 67 65 00 00 	0x72616c20:00006567

10000c60 <$LC26>:
10000c60:	54 65 78 74 20 66 69 6c 	0x74786554:6c696620
10000c68:	65 20 62 75 73 79 00 00 	0x75622065:00007973

10000c70 <$LC25>:
10000c70:	4e 6f 74 20 61 20 74 79 	0x20746f4e:79742061
10000c78:	70 65 77 72 69 74 65 72 	0x72776570:72657469
10000c80:	00 00 00 00 54 6f 6f 20 	nop 

10000c84 <$LC24>:
10000c84:	54 6f 6f 20 6d 61 6e 79 	0x206f6f54:796e616d
10000c8c:	20 6f 70 65 6e 20 66 69 	0x65706f20:6966206e
10000c94:	6c 65 73 00 46 69 6c 65 	0x0073656c:656c6946

10000c98 <$LC23>:
10000c98:	46 69 6c 65 20 74 61 62 	0x656c6946:62617420
10000ca0:	6c 65 20 6f 76 65 72 66 	0x6f20656c:66726576
10000ca8:	6c 6f 77 00 49 6e 76 61 	0x00776f6c:61766e49

10000cac <$LC22>:
10000cac:	49 6e 76 61 6c 69 64 20 	0x61766e49:2064696c
10000cb4:	61 72 67 75 6d 65 6e 74 	0x75677261:746e656d
10000cbc:	00 00 00 00 49 73 20 61 	nop 

10000cc0 <$LC21>:
10000cc0:	49 73 20 61 20 64 69 72 	0x61207349:72696420
10000cc8:	65 63 74 6f 72 79 00 00 	0x6f746365:00007972

10000cd0 <$LC20>:
10000cd0:	4e 6f 74 20 61 20 64 69 	0x20746f4e:69642061
10000cd8:	72 65 63 74 6f 72 79 00 	0x74636572:0079726f

10000ce0 <$LC19>:
10000ce0:	4e 6f 20 73 75 63 68 20 	0x73206f4e:20686375
10000ce8:	64 65 76 69 63 65 00 00 	0x69766564:00006563

10000cf0 <$LC18>:
10000cf0:	43 72 6f 73 73 2d 64 65 	0x736f7243:65642d73
10000cf8:	76 69 63 65 20 6c 69 6e 	0x65636976:6e696c20
10000d00:	6b 00 00 00 46 69 6c 65 	0x0000006b:656c6946

10000d04 <$LC17>:
10000d04:	46 69 6c 65 20 65 78 69 	0x656c6946:69786520
10000d0c:	73 74 73 00 4d 6f 75 6e 	0x00737473:6e756f4d

10000d10 <$LC16>:
10000d10:	4d 6f 75 6e 74 20 64 65 	0x6e756f4d:65642074
10000d18:	76 69 63 65 20 62 75 73 	0x65636976:73756220
10000d20:	79 00 00 00 42 6c 6f 63 	abs.d $f108,$f99

10000d24 <$LC15>:
10000d24:	42 6c 6f 63 6b 20 64 65 	0x636f6c42:6564206b
10000d2c:	76 69 63 65 20 72 65 71 	0x65636976:71657220
10000d34:	75 69 72 65 64 00 00 00 	0x65726975:00000064

10000d3c <$LC14>:
10000d3c:	42 61 64 20 61 64 64 72 	0x20646142:72646461
10000d44:	65 73 73 00 50 65 72 6d 	0x00737365:6d726550

10000d48 <$LC13>:
10000d48:	50 65 72 6d 69 73 73 69 	0x6d726550:69737369
10000d50:	6f 6e 20 64 65 6e 69 65 	0x64206e6f:65696e65
10000d58:	64 00 00 00 4e 6f 74 20 	0x00000064:20746f4e

10000d5c <$LC12>:
10000d5c:	4e 6f 74 20 65 6e 6f 75 	0x20746f4e:756f6e65
10000d64:	67 68 20 63 6f 72 65 00 	0x63206867:0065726f

10000d6c <$LC11>:
10000d6c:	4e 6f 20 6d 6f 72 65 20 	0x6d206f4e:2065726f
10000d74:	70 72 6f 63 65 73 73 65 	0x636f7270:65737365
10000d7c:	73 00 00 00 4e 6f 20 63 	sub.d $f111,$f99,$f32

10000d80 <$LC10>:
10000d80:	4e 6f 20 63 68 69 6c 64 	0x63206f4e:646c6968
10000d88:	72 65 6e 00 42 61 64 20 	0x006e6572:20646142

10000d8c <$LC9>:
10000d8c:	42 61 64 20 66 69 6c 65 	0x20646142:656c6966
10000d94:	20 6e 75 6d 62 65 72 00 	0x6d756e20:00726562

10000d9c <$LC8>:
10000d9c:	45 78 65 63 20 66 6f 72 	0x63657845:726f6620
10000da4:	6d 61 74 20 65 72 72 6f 	0x2074616d:6f727265
10000dac:	72 00 00 00 41 72 67 20 	sub.s $f114,$f32,$f103

10000db0 <$LC7>:
10000db0:	41 72 67 20 6c 69 73 74 	0x20677241:7473696c
10000db8:	20 74 6f 6f 20 6c 6f 6e 	0x6f6f7420:6e6f6c20
10000dc0:	67 00 00 00 4e 6f 20 73 	0x00000067:73206f4e

10000dc4 <$LC6>:
10000dc4:	4e 6f 20 73 75 63 68 20 	0x73206f4e:20686375
10000dcc:	64 65 76 69 63 65 20 6f 	0x69766564:6f206563
10000dd4:	72 20 61 64 64 72 65 73 	0x64612072:73657264
10000ddc:	73 00 00 00 49 2f 4f 20 	sub.d $f47,$f32,$f79

10000de0 <$LC5>:
10000de0:	49 2f 4f 20 65 72 72 6f 	0x204f2f49:6f727265
10000de8:	72 00 00 00 49 6e 74 65 	sub.s $f110,$f101,$f116

10000dec <$LC4>:
10000dec:	49 6e 74 65 72 72 75 70 	0x65746e49:70757272
10000df4:	74 65 64 20 73 79 73 74 	0x20646574:74737973
10000dfc:	65 6d 20 63 61 6c 6c 00 	0x63206d65:006c6c61

10000e04 <$LC3>:
10000e04:	4e 6f 20 73 75 63 68 20 	0x73206f4e:20686375
10000e0c:	70 72 6f 63 65 73 73 00 	0x636f7270:00737365

10000e14 <$LC2>:
10000e14:	4e 6f 20 73 75 63 68 20 	0x73206f4e:20686375
10000e1c:	66 69 6c 65 20 6f 72 20 	0x656c6966:20726f20
10000e24:	64 69 72 65 63 74 6f 72 	0x65726964:726f7463
10000e2c:	79 00 00 00 4e 6f 74 20 	abs.d $f111,$f32

10000e30 <$LC1>:
10000e30:	4e 6f 74 20 6f 77 6e 65 	0x20746f4e:656e776f
10000e38:	72 00 00 00 00 00 00 00 	sub.s $f0,$f0,$f0

10000e40 <_itoa_lower_digits>:
10000e40:	30 31 32 33 34 35 36 37 	0x33323130:37363534
10000e48:	38 39 61 62 63 64 65 66 	0x62613938:66656463
10000e50:	67 68 69 6a 6b 6c 6d 6e 	0x6a696867:6e6d6c6b
10000e58:	6f 70 71 72 73 74 75 76 	0x7271706f:76757473
10000e60:	77 78 79 7a 00 00 00 00 	0x7a797877:00000000

10000e68 <_itoa_upper_digits>:
10000e68:	30 31 32 33 34 35 36 37 	0x33323130:37363534
10000e70:	38 39 41 42 43 44 45 46 	0x42413938:46454443
10000e78:	47 48 49 4a 4b 4c 4d 4e 	0x4a494847:4e4d4c4b
10000e80:	4f 50 51 52 53 54 55 56 	0x5251504f:56555453
10000e88:	57 58 59 5a 00 00 00 00 	0x5a595857:00000000

10000e90 <__numeric_C>:
10000e90:	c4 23 01 10 c0 23 01 10 	0x100123c4:100123c0
10000e98:	c0 23 01 10 00 00 00 00 	0x100123c0:00000000

10000ea0 <__ctype_b_C>:
10000ea0:	00 00 04 00 04 00 04 00 	nop 
10000ea8:	04 00 04 00 04 00 04 00 	jalr $0,$0
10000eb0:	04 00 04 00 14 01 14 00 	jalr $1,$0
10000eb8:	14 00 14 00 14 00 04 00 	0x00140014:00040014
10000ec0:	04 00 04 00 04 00 04 00 	jalr $0,$0
10000ec8:	04 00 04 00 04 00 04 00 	jalr $0,$0
10000ed0:	04 00 04 00 04 00 04 00 	jalr $0,$0
10000ed8:	04 00 04 00 04 00 04 00 	jalr $0,$0
10000ee0:	04 00 90 01 40 00 40 00 	jalr $0,$0
10000ee8:	40 00 40 00 40 00 40 00 	add $0,$0,$64
10000ef0:	40 00 40 00 40 00 40 00 	add $0,$0,$64
10000ef8:	40 00 40 00 40 00 40 00 	add $0,$0,$64
10000f00:	40 00 28 00 28 00 28 00 	add $0,$0,$40
10000f08:	28 00 28 00 28 00 28 00 	lw $40,40($0)
10000f10:	28 00 28 00 28 00 40 00 	lw $64,40($0)
10000f18:	40 00 40 00 40 00 40 00 	add $0,$0,$64
10000f20:	40 00 40 00 21 00 21 00 	add $0,$0,$33
10000f28:	21 00 21 00 21 00 21 00 	0x00210021:00210021
10000f30:	01 00 01 00 01 00 01 00 	j 10040004 <_gp+0x25da4>
10000f38:	01 00 01 00 01 00 01 00 	j 10040004 <_gp+0x25da4>
10000f40:	01 00 01 00 01 00 01 00 	j 10040004 <_gp+0x25da4>
10000f48:	01 00 01 00 01 00 01 00 	j 10040004 <_gp+0x25da4>
10000f50:	01 00 01 00 01 00 01 00 	j 10040004 <_gp+0x25da4>
10000f58:	40 00 40 00 40 00 40 00 	add $0,$0,$64
10000f60:	40 00 40 00 22 00 22 00 	add $0,$0,$34
10000f68:	22 00 22 00 22 00 22 00 	lbu $34,34($0)
10000f70:	02 00 02 00 02 00 02 00 	jal 10080008 <orig_text_buffer+0x82b8>
10000f78:	02 00 02 00 02 00 02 00 	jal 10080008 <orig_text_buffer+0x82b8>
10000f80:	02 00 02 00 02 00 02 00 	jal 10080008 <orig_text_buffer+0x82b8>
10000f88:	02 00 02 00 02 00 02 00 	jal 10080008 <orig_text_buffer+0x82b8>
10000f90:	02 00 02 00 02 00 02 00 	jal 10080008 <orig_text_buffer+0x82b8>
10000f98:	40 00 40 00 40 00 40 00 	add $0,$0,$64
10000fa0:	04 00 04 00 04 00 04 00 	jalr $0,$0
10000fa8:	04 00 04 00 04 00 04 00 	jalr $0,$0
10000fb0:	04 00 04 00 04 00 04 00 	jalr $0,$0
10000fb8:	04 00 04 00 04 00 04 00 	jalr $0,$0
10000fc0:	04 00 04 00 04 00 04 00 	jalr $0,$0
10000fc8:	04 00 04 00 04 00 04 00 	jalr $0,$0
10000fd0:	04 00 04 00 04 00 04 00 	jalr $0,$0
10000fd8:	04 00 04 00 04 00 04 00 	jalr $0,$0
10000fe0:	04 00 04 00 04 00 04 00 	jalr $0,$0
10000fe8:	04 00 04 00 04 00 04 00 	jalr $0,$0
10000ff0:	04 00 04 00 04 00 04 00 	jalr $0,$0
10000ff8:	04 00 04 00 04 00 04 00 	jalr $0,$0
10001000:	04 00 04 00 04 00 04 00 	jalr $0,$0
10001008:	04 00 04 00 04 00 04 00 	jalr $0,$0
10001010:	04 00 04 00 04 00 04 00 	jalr $0,$0
10001018:	04 00 04 00 04 00 04 00 	jalr $0,$0
10001020:	04 00 04 00 04 00 04 00 	jalr $0,$0
10001028:	04 00 04 00 04 00 04 00 	jalr $0,$0
10001030:	04 00 04 00 04 00 04 00 	jalr $0,$0
10001038:	04 00 04 00 04 00 04 00 	jalr $0,$0
10001040:	04 00 04 00 04 00 04 00 	jalr $0,$0
10001048:	04 00 04 00 04 00 04 00 	jalr $0,$0
10001050:	04 00 04 00 04 00 04 00 	jalr $0,$0
10001058:	04 00 04 00 04 00 04 00 	jalr $0,$0
10001060:	04 00 04 00 04 00 04 00 	jalr $0,$0
10001068:	04 00 04 00 04 00 04 00 	jalr $0,$0
10001070:	04 00 04 00 04 00 04 00 	jalr $0,$0
10001078:	04 00 04 00 04 00 04 00 	jalr $0,$0
10001080:	04 00 04 00 04 00 04 00 	jalr $0,$0
10001088:	04 00 04 00 04 00 04 00 	jalr $0,$0
10001090:	04 00 04 00 04 00 04 00 	jalr $0,$0
10001098:	04 00 04 00 04 00 04 00 	jalr $0,$0
100010a0:	04 00 00 00 ff ff 00 00 	jalr $255,$0

100010a4 <__ctype_tolower_C>:
100010a4:	ff ff 00 00 01 00 02 00 	0x0000ffff:00020001
100010ac:	03 00 04 00 05 00 06 00 	jr $0
100010b4:	07 00 08 00 09 00 0a 00 	blez $0,100010e0 <__ctype_tolower_C+0x3c>
100010bc:	0b 00 0c 00 0d 00 0e 00 	bc1f 100010f8 <__ctype_tolower_C+0x54>
100010c4:	0f 00 10 00 11 00 12 00 	0x0010000f:00120011
100010cc:	13 00 14 00 15 00 16 00 	0x00140013:00160015
100010d4:	17 00 18 00 19 00 1a 00 	0x00180017:001a0019
100010dc:	1b 00 1c 00 1d 00 1e 00 	0x001c001b:001e001d
100010e4:	1f 00 20 00 21 00 22 00 	0x0020001f:00220021
100010ec:	23 00 24 00 25 00 26 00 	0x00240023:00260025
100010f4:	27 00 28 00 29 00 2a 00 	0x00280027:002a0029
100010fc:	2b 00 2c 00 2d 00 2e 00 	l.d $f46,45($0)
10001104:	2f 00 30 00 31 00 32 00 	0x0030002f:00320031
1000110c:	33 00 34 00 35 00 36 00 	0x00340033:00360035
10001114:	37 00 38 00 39 00 3a 00 	s.d $f58,57($0)
1000111c:	3b 00 3c 00 3d 00 3e 00 	0x003c003b:003e003d
10001124:	3f 00 40 00 61 00 62 00 	0x0040003f:00620061
1000112c:	63 00 64 00 65 00 66 00 	0x00640063:00660065
10001134:	67 00 68 00 69 00 6a 00 	0x00680067:006a0069
1000113c:	6b 00 6c 00 6d 00 6e 00 	0x006c006b:006e006d
10001144:	6f 00 70 00 71 00 72 00 	0x0070006f:00720071
1000114c:	73 00 74 00 75 00 76 00 	sub.d $f0,$f0,$f118
10001154:	77 00 78 00 79 00 7a 00 	div.d $f0,$f0,$f122
1000115c:	5b 00 5c 00 5d 00 5e 00 	slt $0,$0,$94
10001164:	5f 00 60 00 61 00 62 00 	0x0060005f:00620061
1000116c:	63 00 64 00 65 00 66 00 	0x00640063:00660065
10001174:	67 00 68 00 69 00 6a 00 	0x00680067:006a0069
1000117c:	6b 00 6c 00 6d 00 6e 00 	0x006c006b:006e006d
10001184:	6f 00 70 00 71 00 72 00 	0x0070006f:00720071
1000118c:	73 00 74 00 75 00 76 00 	sub.d $f0,$f0,$f118
10001194:	77 00 78 00 79 00 7a 00 	div.d $f0,$f0,$f122
1000119c:	7b 00 7c 00 7d 00 7e 00 	mov.d $f0,$f0
100011a4:	7f 00 80 00 81 00 82 00 	0x0080007f:00820081
100011ac:	83 00 84 00 85 00 86 00 	cvt.d.w $f0,$f0
100011b4:	87 00 88 00 89 00 8a 00 	0x00880087:008a0089
100011bc:	8b 00 8c 00 8d 00 8e 00 	0x008c008b:008e008d
100011c4:	8f 00 90 00 91 00 92 00 	0x0090008f:00920091
100011cc:	93 00 94 00 95 00 96 00 	c.lt.d $f0,$f150
100011d4:	97 00 98 00 99 00 9a 00 	sqrt.d $f0,$f0
100011dc:	9b 00 9c 00 9d 00 9e 00 	0x009c009b:009e009d
100011e4:	9f 00 a0 00 a1 00 a2 00 	0x00a0009f:00a200a1
100011ec:	a3 00 a4 00 a5 00 a6 00 	mfc1 $166,$f0
100011f4:	a7 00 a8 00 a9 00 aa 00 	dmfc1 $170,$f0
100011fc:	ab 00 ac 00 ad 00 ae 00 	0x00ac00ab:00ae00ad
10001204:	af 00 b0 00 b1 00 b2 00 	0x00b000af:00b200b1
1000120c:	b3 00 b4 00 b5 00 b6 00 	0x00b400b3:00b600b5
10001214:	b7 00 b8 00 b9 00 ba 00 	0x00b800b7:00ba00b9
1000121c:	bb 00 bc 00 bd 00 be 00 	0x00bc00bb:00be00bd
10001224:	bf 00 c0 00 c1 00 c2 00 	0x00c000bf:00c200c1
1000122c:	c3 00 c4 00 c5 00 c6 00 	lhu $198,($0+$0)
10001234:	c7 00 c8 00 c9 00 ca 00 	sh $202,($0+$0)
1000123c:	cb 00 cc 00 cd 00 ce 00 	0x00cc00cb:00ce00cd
10001244:	cf 00 d0 00 d1 00 d2 00 	l.d $f210,($0+$0)
1000124c:	d3 00 d4 00 d5 00 d6 00 	0x00d400d3:00d600d5
10001254:	d7 00 d8 00 d9 00 da 00 	0x00d800d7:00da00d9
1000125c:	db 00 dc 00 dd 00 de 00 	0x00dc00db:00de00dd
10001264:	df 00 e0 00 e1 00 e2 00 	0x00e000df:00e200e1
1000126c:	e3 00 e4 00 e5 00 e6 00 	0x00e400e3:00e600e5
10001274:	e7 00 e8 00 e9 00 ea 00 	0x00e800e7:00ea00e9
1000127c:	eb 00 ec 00 ed 00 ee 00 	0x00ec00eb:00ee00ed
10001284:	ef 00 f0 00 f1 00 f2 00 	0x00f000ef:00f200f1
1000128c:	f3 00 f4 00 f5 00 f6 00 	0x00f400f3:00f600f5
10001294:	f7 00 f8 00 f9 00 fa 00 	0x00f800f7:00fa00f9
1000129c:	fb 00 fc 00 fd 00 fe 00 	0x00fc00fb:00fe00fd
100012a4:	ff 00 00 00 ff ff 00 00 	0x000000ff:0000ffff

100012a8 <__ctype_toupper_C>:
100012a8:	ff ff 00 00 01 00 02 00 	0x0000ffff:00020001
100012b0:	03 00 04 00 05 00 06 00 	jr $0
100012b8:	07 00 08 00 09 00 0a 00 	blez $0,100012e4 <__ctype_toupper_C+0x3c>
100012c0:	0b 00 0c 00 0d 00 0e 00 	bc1f 100012fc <__ctype_toupper_C+0x54>
100012c8:	0f 00 10 00 11 00 12 00 	0x0010000f:00120011
100012d0:	13 00 14 00 15 00 16 00 	0x00140013:00160015
100012d8:	17 00 18 00 19 00 1a 00 	0x00180017:001a0019
100012e0:	1b 00 1c 00 1d 00 1e 00 	0x001c001b:001e001d
100012e8:	1f 00 20 00 21 00 22 00 	0x0020001f:00220021
100012f0:	23 00 24 00 25 00 26 00 	0x00240023:00260025
100012f8:	27 00 28 00 29 00 2a 00 	0x00280027:002a0029
10001300:	2b 00 2c 00 2d 00 2e 00 	l.d $f46,45($0)
10001308:	2f 00 30 00 31 00 32 00 	0x0030002f:00320031
10001310:	33 00 34 00 35 00 36 00 	0x00340033:00360035
10001318:	37 00 38 00 39 00 3a 00 	s.d $f58,57($0)
10001320:	3b 00 3c 00 3d 00 3e 00 	0x003c003b:003e003d
10001328:	3f 00 40 00 41 00 42 00 	0x0040003f:00420041
10001330:	43 00 44 00 45 00 46 00 	addiu $70,$0,69
10001338:	47 00 48 00 49 00 4a 00 	multu $0,$74
10001340:	4b 00 4c 00 4d 00 4e 00 	mthi $0
10001348:	4f 00 50 00 51 00 52 00 	andi $82,$0,81
10001350:	53 00 54 00 55 00 56 00 	xori $86,$0,85
10001358:	57 00 58 00 59 00 5a 00 	srl $0,$90,0x59
10001360:	5b 00 5c 00 5d 00 5e 00 	slt $0,$0,$94
10001368:	5f 00 60 00 41 00 42 00 	0x0060005f:00420041
10001370:	43 00 44 00 45 00 46 00 	addiu $70,$0,69
10001378:	47 00 48 00 49 00 4a 00 	multu $0,$74
10001380:	4b 00 4c 00 4d 00 4e 00 	mthi $0
10001388:	4f 00 50 00 51 00 52 00 	andi $82,$0,81
10001390:	53 00 54 00 55 00 56 00 	xori $86,$0,85
10001398:	57 00 58 00 59 00 5a 00 	srl $0,$90,0x59
100013a0:	7b 00 7c 00 7d 00 7e 00 	mov.d $f0,$f0
100013a8:	7f 00 80 00 81 00 82 00 	0x0080007f:00820081
100013b0:	83 00 84 00 85 00 86 00 	cvt.d.w $f0,$f0
100013b8:	87 00 88 00 89 00 8a 00 	0x00880087:008a0089
100013c0:	8b 00 8c 00 8d 00 8e 00 	0x008c008b:008e008d
100013c8:	8f 00 90 00 91 00 92 00 	0x0090008f:00920091
100013d0:	93 00 94 00 95 00 96 00 	c.lt.d $f0,$f150
100013d8:	97 00 98 00 99 00 9a 00 	sqrt.d $f0,$f0
100013e0:	9b 00 9c 00 9d 00 9e 00 	0x009c009b:009e009d
100013e8:	9f 00 a0 00 a1 00 a2 00 	0x00a0009f:00a200a1
100013f0:	a3 00 a4 00 a5 00 a6 00 	mfc1 $166,$f0
100013f8:	a7 00 a8 00 a9 00 aa 00 	dmfc1 $170,$f0
10001400:	ab 00 ac 00 ad 00 ae 00 	0x00ac00ab:00ae00ad
10001408:	af 00 b0 00 b1 00 b2 00 	0x00b000af:00b200b1
10001410:	b3 00 b4 00 b5 00 b6 00 	0x00b400b3:00b600b5
10001418:	b7 00 b8 00 b9 00 ba 00 	0x00b800b7:00ba00b9
10001420:	bb 00 bc 00 bd 00 be 00 	0x00bc00bb:00be00bd
10001428:	bf 00 c0 00 c1 00 c2 00 	0x00c000bf:00c200c1
10001430:	c3 00 c4 00 c5 00 c6 00 	lhu $198,($0+$0)
10001438:	c7 00 c8 00 c9 00 ca 00 	sh $202,($0+$0)
10001440:	cb 00 cc 00 cd 00 ce 00 	0x00cc00cb:00ce00cd
10001448:	cf 00 d0 00 d1 00 d2 00 	l.d $f210,($0+$0)
10001450:	d3 00 d4 00 d5 00 d6 00 	0x00d400d3:00d600d5
10001458:	d7 00 d8 00 d9 00 da 00 	0x00d800d7:00da00d9
10001460:	db 00 dc 00 dd 00 de 00 	0x00dc00db:00de00dd
10001468:	df 00 e0 00 e1 00 e2 00 	0x00e000df:00e200e1
10001470:	e3 00 e4 00 e5 00 e6 00 	0x00e400e3:00e600e5
10001478:	e7 00 e8 00 e9 00 ea 00 	0x00e800e7:00ea00e9
10001480:	eb 00 ec 00 ed 00 ee 00 	0x00ec00eb:00ee00ed
10001488:	ef 00 f0 00 f1 00 f2 00 	0x00f000ef:00f200f1
10001490:	f3 00 f4 00 f5 00 f6 00 	0x00f400f3:00f600f5
10001498:	f7 00 f8 00 f9 00 fa 00 	0x00f800f7:00fa00f9
100014a0:	fb 00 fc 00 fd 00 fe 00 	0x00fc00fb:00fe00fd
100014a8:	ff 00 00 00 a0 0e 00 10 	0x000000ff:10000ea0

100014ac <__ctype_ctype_C>:
100014ac:	a0 0e 00 10 a4 10 00 10 	0x10000ea0:100010a4
100014b4:	a8 12 00 10 00 00 00 00 	0x100012a8:00000000
100014bc:	00 00 00 00 70 5b 41 00 	nop 

100014c0 <$L22>:
100014c0:	70 5b 41 00 88 5b 41 00 	0x00415b70:00415b88
100014c8:	80 5a 41 00 a8 5a 41 00 	0x00415a80:00415aa8
100014d0:	d0 5a 41 00 f8 5a 41 00 	0x00415ad0:00415af8
100014d8:	20 5b 41 00 48 5b 41 00 	0x00415b20:00415b48

100014e0 <$L87>:
100014e0:	80 5f 41 00 a0 5f 41 00 	0x00415f80:00415fa0
100014e8:	90 5e 41 00 b8 5e 41 00 	0x00415e90:00415eb8
100014f0:	e0 5e 41 00 08 5f 41 00 	0x00415ee0:00415f08
100014f8:	30 5f 41 00 58 5f 41 00 	0x00415f30:00415f58

10001500 <__clz_tab>:
10001500:	00 01 02 02 03 03 03 03 	0x02020100:03030303
10001508:	04 04 04 04 04 04 04 04 	0x04040404:04040404
10001510:	05 05 05 05 05 05 05 05 	0x05050505:05050505
10001518:	05 05 05 05 05 05 05 05 	0x05050505:05050505
10001520:	06 06 06 06 06 06 06 06 	0x06060606:06060606
10001528:	06 06 06 06 06 06 06 06 	0x06060606:06060606
10001530:	06 06 06 06 06 06 06 06 	0x06060606:06060606
10001538:	06 06 06 06 06 06 06 06 	0x06060606:06060606
10001540:	07 07 07 07 07 07 07 07 	0x07070707:07070707
10001548:	07 07 07 07 07 07 07 07 	0x07070707:07070707
10001550:	07 07 07 07 07 07 07 07 	0x07070707:07070707
10001558:	07 07 07 07 07 07 07 07 	0x07070707:07070707
10001560:	07 07 07 07 07 07 07 07 	0x07070707:07070707
10001568:	07 07 07 07 07 07 07 07 	0x07070707:07070707
10001570:	07 07 07 07 07 07 07 07 	0x07070707:07070707
10001578:	07 07 07 07 07 07 07 07 	0x07070707:07070707
10001580:	08 08 08 08 08 08 08 08 	0x08080808:08080808
10001588:	08 08 08 08 08 08 08 08 	0x08080808:08080808
10001590:	08 08 08 08 08 08 08 08 	0x08080808:08080808
10001598:	08 08 08 08 08 08 08 08 	0x08080808:08080808
100015a0:	08 08 08 08 08 08 08 08 	0x08080808:08080808
100015a8:	08 08 08 08 08 08 08 08 	0x08080808:08080808
100015b0:	08 08 08 08 08 08 08 08 	0x08080808:08080808
100015b8:	08 08 08 08 08 08 08 08 	0x08080808:08080808
100015c0:	08 08 08 08 08 08 08 08 	0x08080808:08080808
100015c8:	08 08 08 08 08 08 08 08 	0x08080808:08080808
100015d0:	08 08 08 08 08 08 08 08 	0x08080808:08080808
100015d8:	08 08 08 08 08 08 08 08 	0x08080808:08080808
100015e0:	08 08 08 08 08 08 08 08 	0x08080808:08080808
100015e8:	08 08 08 08 08 08 08 08 	0x08080808:08080808
100015f0:	08 08 08 08 08 08 08 08 	0x08080808:08080808
100015f8:	08 08 08 08 08 08 08 08 	0x08080808:08080808
Disassembly of section .data:

10001600 <magic_header>:
10001600:	1f 9d 00 00 24 48 65 61 	0x00009d1f:61654824

10001604 <rcs_ident>:
10001604:	24 48 65 61 64 65 72 3a 	0x61654824:3a726564
1000160c:	20 63 6f 6d 70 72 65 73 	0x6d6f6320:73657270
10001614:	73 2e 63 2c 76 20 31 2e 	0x2c632e73:2e312076
1000161c:	33 20 39 30 2f 30 37 2f 	0x30392033:2f37302f
10001624:	31 38 20 32 30 3a 32 32 	0x32203831:32323a30
1000162c:	3a 33 34 20 6d 69 70 73 	0x2034333a:7370696d
10001634:	20 45 78 70 20 24 00 00 	0x70784520:00002420

1000163c <lmask>:
1000163c:	ff fe fc f8 f0 e0 c0 80 	0xf8fcfeff:80c0e0f0
10001644:	00 00 00 00 00 01 03 07 	nop 

10001648 <rmask>:
10001648:	00 01 03 07 0f 1f 3f 7f 	0x07030100:7f3f1f0f
10001650:	ff 00 00 00 00 00 00 00 	0x000000ff:00000000
	...

10001660 <freq_tab>:
	...
10002884:	4c 01 00 00 19 00 00 00 	0x0000014c:00000019
	...
100028e0:	3a 04 00 00 00 00 00 00 	0x0000043a:00000000
	...
100028f8:	02 00 00 00 96 04 00 00 	jal 10001258 <__ctype_tolower_C+0x1b4>
10002900:	ed 01 00 00 00 00 00 00 	0x000001ed:00000000
	...
10002914:	11 00 00 00 00 00 00 00 	0x00000011:00000000
	...
10002924:	33 00 00 00 30 00 00 00 	0x00000033:00000030
1000292c:	1d 00 00 00 01 00 00 00 	0x0000001d:00000001
10002934:	01 00 00 00 01 00 00 00 	j 10000004 <$LC0+0x4>
1000293c:	01 00 00 00 01 00 00 00 	j 10000004 <$LC0+0x4>
10002944:	01 00 00 00 00 00 00 00 	j 10000000 <$LC0>
	...
10002964:	f6 34 00 00 9c 12 00 00 	0x000034f6:0000129c
1000296c:	71 08 00 00 c9 06 00 00 	0x00000871:000006c9
10002974:	8b 03 00 00 57 0c 00 00 	0x0000038b:00000c57
1000297c:	93 06 00 00 3f 14 00 00 	0x00000693:0000143f
10002984:	9a 26 00 00 92 00 00 00 	0x0000269a:00000092
1000298c:	ba 01 00 00 d3 07 00 00 	0x000001ba:000007d3
10002994:	ab 0e 00 00 3d 0c 00 00 	0x00000eab:00000c3d
1000299c:	5c 10 00 00 96 05 00 00 	0x0000105c:00000596
100029a4:	53 00 00 00 06 03 00 00 	xori $0,$0,774
100029ac:	70 13 00 00 28 3e 00 00 	0x00001370:00003e28
100029b4:	30 03 00 00 e0 00 00 00 	sb $0,224($0)^+
100029bc:	6e 27 00 00 00 00 00 00 	0x0000276e:00000000
100029c4:	25 0a 00 00 03 00 00 00 	0x00000a25:00000003
100029cc:	66 18 00 00 00 00 00 00 	0x00001866:00000000
	...
100029e4:	92 07 00 00 2a 03 00 00 	0x00000792:0000032a
100029ec:	45 03 00 00 52 02 00 00 	0x00000345:00000252
100029f4:	38 01 00 00 af 02 00 00 	dsz 687($0)+
100029fc:	79 01 00 00 53 04 00 00 	0x00000179:00000453
10002a04:	8c 02 00 00 25 00 00 00 	0x0000028c:00000025
10002a0c:	aa 00 00 00 d4 01 00 00 	0x000000aa:000001d4
10002a14:	71 03 00 00 cc 01 00 00 	0x00000371:000001cc
10002a1c:	87 02 00 00 50 02 00 00 	0x00000287:00000250
10002a24:	33 00 00 00 28 01 00 00 	0x00000033:00000128
10002a2c:	f6 04 00 00 8b 0a 00 00 	0x000004f6:00000a8b
10002a34:	b9 00 00 00 7a 00 00 00 	0x000000b9:0000007a
10002a3c:	4e 04 00 00 00 00 00 00 	0x0000044e:00000000
10002a44:	be 01 00 00 00 00 00 00 	0x000001be:00000000
10002a4c:	00 00 00 00 72 02 00 00 	nop 
	...
10002a5c:	04 00 00 00 00 00 00 00 	jalr $0,$0
	...
10002a84:	58 4d 01 00 17 bb 00 00 	0x00014d58:0000bb17
	...
10002ae0:	35 01 00 00 00 00 00 00 	dsw $0,0($0)+
10002ae8:	00 00 00 00 09 00 00 00 	nop 
10002af0:	01 00 00 00 00 00 00 00 	j 10000000 <$LC0>
10002af8:	02 00 00 00 48 01 00 00 	jal 10000520 <$L355+0x48>
10002b00:	01 00 00 00 00 00 00 00 	j 10000000 <$LC0>
	...
10002b14:	05 00 00 00 22 00 00 00 	beq $0,$0,10002ba4 <freq_tab+0x1544>
10002b1c:	02 00 00 00 00 00 00 00 	jal 10000000 <$LC0>
10002b24:	02 00 00 00 02 00 00 00 	jal 10000008 <$LC0+0x8>
10002b2c:	01 00 00 00 00 00 00 00 	j 10000000 <$LC0>
	...
10002b64:	71 0e 00 00 33 0a 00 00 	0x00000e71:00000a33
10002b6c:	e2 0d 00 00 a9 08 00 00 	0x00000de2:000008a9
10002b74:	24 03 00 00 86 09 00 00 	lh $0,2438($0)^+
10002b7c:	20 05 00 00 3f 07 00 00 	0x00000520:0000073f
10002b84:	dd 03 00 00 e7 01 00 00 	0x000003dd:000001e7
10002b8c:	c4 06 00 00 9f 08 00 00 	0x000006c4:0000089f
10002b94:	60 09 00 00 12 02 00 00 	0x00000960:00000212
10002b9c:	ca 05 00 00 16 0b 00 00 	0x000005ca:00000b16
10002ba4:	08 02 00 00 0f 04 00 00 	0x00000208:0000040f
10002bac:	ed 0f 00 00 03 0a 00 00 	0x00000fed:00000a03
10002bb4:	d4 00 00 00 38 02 00 00 	0x000000d4:00000238
10002bbc:	27 04 00 00 3f 00 00 00 	0x00000427:0000003f
10002bc4:	f5 00 00 00 01 00 00 00 	0x000000f5:00000001
10002bcc:	02 00 00 00 00 00 00 00 	jal 10000000 <$LC0>
	...
10002be4:	0c 00 00 00 03 00 00 00 	bc1t 10002bf8 <freq_tab+0x1598>
10002bec:	03 00 00 00 00 00 00 00 	jr $0
10002bf4:	00 00 00 00 05 00 00 00 	nop 
10002bfc:	01 00 00 00 0c 00 00 00 	j 10000030 <$LC1+0xc>
10002c04:	03 00 00 00 00 00 00 00 	jr $0
	...
10002c14:	03 00 00 00 01 00 00 00 	jr $0
10002c1c:	07 00 00 00 02 00 00 00 	blez $0,10002c2c <freq_tab+0x15cc>
10002c24:	00 00 00 00 05 00 00 00 	nop 
10002c2c:	08 00 00 00 0e 00 00 00 	bgtz $0,10002c6c <freq_tab+0x160c>
10002c34:	01 00 00 00 00 00 00 00 	j 10000000 <$LC0>
10002c3c:	03 00 00 00 00 00 00 00 	jr $0
10002c44:	01 00 00 00 00 00 00 00 	j 10000000 <$LC0>
	...
10005684:	0a 00 00 00 0f 00 00 00 	bgez $0,100056c8 <freq_tab+0x4068>
	...
100056e0:	8d 3f 00 00 00 00 00 00 	0x00003f8d:00000000
100056e8:	01 00 00 00 00 00 00 00 	j 10000000 <$LC0>
100056f0:	01 00 00 00 00 00 00 00 	j 10000000 <$LC0>
100056f8:	46 00 00 00 33 0b 00 00 	mult $0,$0
10005700:	b5 00 00 00 00 00 00 00 	0x000000b5:00000000
	...
10005714:	04 00 00 00 03 00 00 00 	jalr $0,$0
1000571c:	04 00 00 00 00 00 00 00 	jalr $0,$0
10005724:	06 00 00 00 04 00 00 00 	bne $0,$0,1000573c <freq_tab+0x40dc>
1000572c:	02 00 00 00 01 00 00 00 	jal 10000004 <$LC0+0x4>
10005734:	01 00 00 00 07 00 00 00 	j 1000001c <$LC0+0x1c>
1000573c:	00 00 00 00 02 00 00 00 	nop 
10005744:	00 00 00 00 05 00 00 00 	nop 
	...
10005754:	01 00 00 00 00 00 00 00 	j 10000000 <$LC0>
	...
10005764:	3d 0f 00 00 16 0b 00 00 	0x00000f3d:00000b16
1000576c:	4b 10 00 00 99 06 00 00 	0x0000104b:00000699
10005774:	0f 09 00 00 97 07 00 00 	0x0000090f:00000797
1000577c:	15 0a 00 00 73 0d 00 00 	0x00000a15:00000d73
10005784:	50 4c 00 00 a1 04 00 00 	0x00004c50:000004a1
1000578c:	8c 03 00 00 83 0c 00 00 	0x0000038c:00000c83
10005794:	dd 0b 00 00 e0 03 00 00 	0x00000bdd:000003e0
1000579c:	66 09 00 00 c3 0b 00 00 	0x00000966:00000bc3
100057a4:	3d 01 00 00 fc 06 00 00 	0x0000013d:000006fc
100057ac:	0b 0e 00 00 c4 0c 00 00 	0x00000e0b:00000cc4
100057b4:	60 00 00 00 5e 06 00 00 	0x00000060:0000065e
100057bc:	30 09 00 00 29 00 00 00 	0x00000930:00000029
100057c4:	69 03 00 00 00 00 00 00 	0x00000369:00000000
100057cc:	11 00 00 00 02 00 00 00 	0x00000011:00000002
100057d4:	0d 00 00 00 00 00 00 00 	0x0000000d:00000000
	...
100057e4:	69 02 01 00 69 8e 00 00 	0x00010269:00008e69
100057ec:	98 60 00 00 6f 62 00 00 	0x00006098:0000626f
100057f4:	81 2b 00 00 61 76 00 00 	0x00002b81:00007661
100057fc:	b1 3d 00 00 b8 d0 00 00 	0x00003db1:0000d0b8
10005804:	7b 84 00 00 89 06 00 00 	0x0000847b:00000689
1000580c:	2c 1b 00 00 eb 5c 00 00 	0x00001b2c:00005ceb
10005814:	0a bc 00 00 08 59 00 00 	0x0000bc0a:00005908
1000581c:	4b 8b 00 00 20 50 00 00 	0x00008b4b:00005020
10005824:	98 06 00 00 ee 2a 00 00 	0x00000698:00002aee
1000582c:	eb d9 00 00 5f 9f 01 00 	0x0000d9eb:00019f5f
10005834:	45 1f 00 00 c5 10 00 00 	0x00001f45:000010c5
1000583c:	cb b9 00 00 00 00 00 00 	0x0000b9cb:00000000
10005844:	75 57 00 00 35 00 00 00 	0x00005775:00000035
	...
10005888:	c5 13 00 00 00 00 00 00 	0x000013c5:00000000
	...
100058e0:	64 0f 00 00 01 00 00 00 	0x00000f64:00000001
	...
100058fc:	c6 00 00 00 00 00 00 00 	sb $0,($0+$0)
	...
10005914:	8b 00 00 00 00 00 00 00 	0x0000008b:00000000
	...
10005a88:	02 00 00 00 00 00 00 00 	jal 10000000 <$LC0>
	...
10005ae0:	01 00 00 00 00 00 00 00 	j 10000000 <$LC0>
	...
10005b74:	01 00 00 00 00 00 00 00 	j 10000000 <$LC0>
	...
10005c84:	04 00 00 00 03 00 00 00 	jalr $0,$0
	...
10005ce0:	03 00 00 00 00 00 00 00 	jr $0
	...
10005f00:	01 00 00 00 00 00 00 00 	j 10000000 <$LC0>
	...
10005f60:	01 00 00 00 00 00 00 00 	j 10000000 <$LC0>
	...
10006010:	01 00 00 00 00 00 00 00 	j 10000000 <$LC0>
	...
1000604c:	01 00 00 00 00 00 00 00 	j 10000000 <$LC0>
	...
100062e0:	02 00 00 00 00 00 00 00 	jal 10000000 <$LC0>
	...
1000636c:	03 00 00 00 00 00 00 00 	jr $0
	...
100063ec:	45 00 00 00 00 00 00 00 	subu $0,$0,$0
	...
10006484:	01 00 00 00 b9 02 00 00 	j 10000ae4 <$LC42+0x4>
	...
100064e0:	15 09 00 00 0c 00 00 00 	0x00000915:0000000c
	...
100064fc:	1a 00 00 00 00 00 00 00 	0x0000001a:00000000
	...
10006510:	07 00 00 00 3d 00 00 00 	blez $0,1000660c <freq_tab+0x4fac>
	...
10006548:	04 00 00 00 04 00 00 00 	jalr $0,$0
	...
1000655c:	2c 00 00 00 00 00 00 00 	lwl $0,0($0)
10006564:	79 00 00 00 3a 00 00 00 	abs.d $f0,$f0
1000656c:	2b 00 00 00 19 00 00 00 	l.d $f0,25($0)
10006574:	0e 00 00 00 6a 00 00 00 	0x0000000e:0000006a
1000657c:	51 00 00 00 56 00 00 00 	ori $0,$0,86
10006584:	85 00 00 00 09 00 00 00 	cvt.w.d $f0,$f0
1000658c:	03 00 00 00 35 00 00 00 	jr $0
10006594:	30 00 00 00 29 00 00 00 	sb $0,41($0)
1000659c:	4e 00 00 00 21 00 00 00 	and $0,$0,$0
100065a4:	01 00 00 00 11 00 00 00 	j 10000044 <$LC1+0x20>
100065ac:	f1 00 00 00 89 03 00 00 	0x000000f1:00000389
100065b4:	03 00 00 00 0a 00 00 00 	jr $0
100065bc:	80 00 00 00 00 00 00 00 	cvt.s.d $f0,$f0
100065c4:	18 00 00 00 11 00 00 00 	0x00000018:00000011
	...
100065d4:	0e 00 00 00 00 00 00 00 	0x0000000e:00000000
	...
100065e4:	38 00 00 00 24 00 00 00 	dsz 36($0)
100065ec:	45 00 00 00 99 16 00 00 	subu $22,$0,$0
100065f4:	a3 04 00 00 30 00 00 00 	0x000004a3:00000030
100065fc:	7b 00 00 00 24 00 00 00 	mov.d $f0,$f0
10006604:	1c 00 00 00 03 00 00 00 	0x0000001c:00000003
1000660c:	04 00 00 00 5a 0a 00 00 	jalr $10,$0
10006614:	45 00 00 00 71 00 00 00 	subu $0,$0,$0
1000661c:	1f 00 00 00 1a 00 00 00 	0x0000001f:0000001a
10006624:	03 00 00 00 98 00 00 00 	jr $0
1000662c:	ea 22 00 00 6e 09 00 00 	0x000022ea:0000096e
10006634:	04 00 00 00 15 00 00 00 	jalr $0,$0
1000663c:	1b 00 00 00 00 00 00 00 	0x0000001b:00000000
10006644:	0e 00 00 00 02 00 00 00 	0x0000000e:00000002
	...
10006724:	04 00 00 00 00 00 00 00 	jalr $0,$0
	...
10006764:	13 00 00 00 1a 00 00 00 	0x00000013:0000001a
1000676c:	27 00 00 00 13 00 00 00 	0x00000027:00000013
10006774:	0b 00 00 00 74 00 00 00 	bc1f 1000694c <freq_tab+0x52ec>
1000677c:	2b 00 00 00 17 00 00 00 	l.d $f0,23($0)
10006784:	03 00 00 00 04 00 00 00 	jr $0
1000678c:	15 00 00 00 19 00 00 00 	0x00000015:00000019
10006794:	29 00 00 00 0a 00 00 00 	dlw $0,10($0)
1000679c:	0b 00 00 00 1f 00 00 00 	bc1f 10006820 <freq_tab+0x51c0>
100067a4:	08 00 00 00 09 00 00 00 	bgtz $0,100067d0 <freq_tab+0x5170>
100067ac:	97 00 00 00 27 00 00 00 	sqrt.d $f0,$f0
100067b4:	00 00 00 00 07 00 00 00 	nop 
100067bc:	0c 00 00 00 00 00 00 00 	bc1t 100067c4 <freq_tab+0x5164>
100067c4:	05 00 00 00 00 00 00 00 	beq $0,$0,100067cc <freq_tab+0x516c>
	...
100067e4:	03 00 00 00 00 00 00 00 	jr $0
	...
10006830:	01 00 00 00 00 00 00 00 	j 10000000 <$LC0>
	...
10006884:	2b 00 00 00 67 02 00 00 	l.d $f0,615($0)
	...
100068e0:	10 00 00 00 00 00 00 00 	0x00000010:00000000
	...
10006910:	05 00 00 00 00 00 00 00 	beq $0,$0,10006918 <freq_tab+0x52b8>
10006918:	01 00 00 00 00 00 00 00 	j 10000000 <$LC0>
	...
10006948:	01 00 00 00 00 00 00 00 	j 10000000 <$LC0>
	...
10006e84:	07 00 00 00 60 5e 00 00 	blez $0,1001e80c <_gp+0x45ac>
	...
10006ee0:	e1 ff 00 00 00 00 00 00 	0x0000ffe1:00000000
	...
10006efc:	74 01 00 00 00 00 00 00 	0x00000174:00000000
	...
10006f14:	4d 03 00 00 03 00 00 00 	0x0000034d:00000003
	...
10006fd4:	01 00 00 00 00 00 00 00 	j 10000000 <$LC0>
	...
10007088:	a2 04 00 00 00 00 00 00 	0x000004a2:00000000
	...
100070e0:	0a 00 00 00 00 00 00 00 	bgez $0,100070e8 <freq_tab+0x5a88>
	...
100070fc:	1b 00 00 00 00 00 00 00 	0x0000001b:00000000
	...
10007110:	01 00 00 00 dd 08 00 00 	j 10002374 <freq_tab+0xd14>
	...
10007164:	0c 00 00 00 1f 00 00 00 	bc1t 100071e8 <freq_tab+0x5b88>
1000716c:	1b 00 00 00 13 00 00 00 	0x0000001b:00000013
10007174:	04 00 00 00 10 00 00 00 	jalr $0,$0
1000717c:	1f 00 00 00 29 00 00 00 	0x0000001f:00000029
10007184:	3e 00 00 00 47 00 00 00 	0x0000003e:00000047
1000718c:	02 00 00 00 10 00 00 00 	jal 10000040 <$LC1+0x1c>
10007194:	2a 00 00 00 09 00 00 00 	l.s $f0,9($0)
1000719c:	3e 00 00 00 0f 00 00 00 	0x0000003e:0000000f
100071a4:	01 00 00 00 0b 00 00 00 	j 1000002c <$LC1+0x8>
100071ac:	28 00 00 00 0f 00 00 00 	lw $0,15($0)
100071b4:	05 00 00 00 04 00 00 00 	beq $0,$0,100071cc <freq_tab+0x5b6c>
100071bc:	19 00 00 00 00 00 00 00 	0x00000019:00000000
100071c4:	06 00 00 00 00 00 00 00 	bne $0,$0,100071cc <freq_tab+0x5b6c>
	...
100071e4:	1f 01 00 00 f8 01 00 00 	0x0000011f:000001f8
100071ec:	2d 01 00 00 d3 01 00 00 	0x0000012d:000001d3
100071f4:	b0 01 00 00 47 01 00 00 	0x000001b0:00000147
100071fc:	ac 00 00 00 7d 01 00 00 	0x000000ac:0000017d
10007204:	52 00 00 00 1e 00 00 00 	xor $0,$0,$0
1000720c:	32 00 00 00 18 01 00 00 	sh $0,280($0)
10007214:	f2 01 00 00 fd 00 00 00 	0x000001f2:000000fd
1000721c:	55 00 00 00 09 01 00 00 	sll $1,$0,0x9
10007224:	0d 00 00 00 8d 00 00 00 	0x0000000d:0000008d
1000722c:	d9 01 00 00 6e 01 00 00 	0x000001d9:0000016e
10007234:	24 00 00 00 3e 00 00 00 	lh $0,62($0)
1000723c:	5b 01 00 00 00 00 00 00 	0x0000015b:00000000
10007244:	2d 00 00 00 00 00 00 00 	lwr $0,0($0)
	...
10007284:	07 00 00 00 6e 77 00 00 	blez $0,10025044 <_gp+0xade4>
	...
100072e0:	a8 1b 00 00 00 00 00 00 	0x00001ba8:00000000
	...
100072fc:	c5 01 00 00 00 00 00 00 	l.s $f0,($0+$0)+
10007304:	01 00 00 00 00 00 00 00 	j 10000000 <$LC0>
1000730c:	00 00 00 00 07 00 00 00 	nop 
10007314:	38 00 00 00 00 00 00 00 	dsz 0($0)
1000731c:	00 00 00 00 02 00 00 00 	nop 
10007324:	02 00 00 00 00 00 00 00 	jal 10000000 <$LC0>
	...
10007334:	02 00 00 00 00 00 00 00 	jal 10000000 <$LC0>
	...
1000734c:	01 00 00 00 00 00 00 00 	j 10000000 <$LC0>
	...
10007364:	02 00 00 00 02 00 00 00 	jal 10000008 <$LC0+0x8>
	...
1000737c:	01 00 00 00 00 00 00 00 	j 10000000 <$LC0>
10007384:	02 00 00 00 00 00 00 00 	jal 10000000 <$LC0>
	...
100073ac:	12 00 00 00 04 00 00 00 	0x00000012:00000004
	...
100073d0:	02 00 00 00 00 00 00 00 	jal 10000000 <$LC0>
	...
10007410:	04 00 00 00 00 00 00 00 	jalr $0,$0
	...
10007420:	02 00 00 00 00 00 00 00 	jal 10000000 <$LC0>
	...
10007438:	03 00 00 00 00 00 00 00 	jr $0
	...
100075a8:	02 00 00 00 00 00 00 00 	jal 10000000 <$LC0>
	...
100075bc:	06 00 00 00 00 00 00 00 	bne $0,$0,100075c4 <freq_tab+0x5f64>
	...
10007630:	06 00 00 00 00 00 00 00 	bne $0,$0,10007638 <freq_tab+0x5fd8>
	...
10007718:	03 00 00 00 00 00 00 00 	jr $0
	...
10007804:	02 00 00 00 00 00 00 00 	jal 10000000 <$LC0>
	...
10007888:	02 00 00 00 00 00 00 00 	jal 10000000 <$LC0>
	...
100078e0:	32 00 00 00 00 00 00 00 	sh $0,0($0)
	...
10007914:	06 00 00 00 01 00 00 00 	bne $0,$0,10007920 <freq_tab+0x62c0>
1000791c:	00 00 00 00 03 00 00 00 	nop 
10007924:	01 00 00 00 01 00 00 00 	j 10000004 <$LC0+0x4>
	...
10007a2c:	01 00 00 00 01 00 00 00 	j 10000004 <$LC0+0x4>
	...
10007ae0:	31 00 00 00 00 00 00 00 	0x00000031:00000000
	...
10007b18:	01 00 00 00 00 00 00 00 	j 10000000 <$LC0>
	...
10007bf0:	01 00 00 00 00 00 00 00 	j 10000000 <$LC0>
	...
10007c2c:	03 00 00 00 01 00 00 00 	jr $0
	...
10007c88:	02 00 00 00 00 00 00 00 	jal 10000000 <$LC0>
	...
10007ce0:	1d 00 00 00 00 00 00 00 	0x0000001d:00000000
	...
10007d18:	01 00 00 00 00 00 00 00 	j 10000000 <$LC0>
	...
10007f18:	01 00 00 00 00 00 00 00 	j 10000000 <$LC0>
	...
10007ff0:	01 00 00 00 00 00 00 00 	j 10000000 <$LC0>
	...
10008118:	01 00 00 00 00 00 00 00 	j 10000000 <$LC0>
	...
10008204:	02 00 00 00 00 00 00 00 	jal 10000000 <$LC0>
	...
1000822c:	01 00 00 00 00 00 00 00 	j 10000000 <$LC0>
	...
10008318:	03 00 00 00 00 00 00 00 	jr $0
	...
100083f0:	02 00 00 00 00 00 00 00 	jal 10000000 <$LC0>
	...
10008404:	02 00 00 00 00 00 00 00 	jal 10000000 <$LC0>
	...
1000842c:	01 00 00 00 00 00 00 00 	j 10000000 <$LC0>
	...
10008518:	01 00 00 00 00 00 00 00 	j 10000000 <$LC0>
	...
10008718:	01 00 00 00 00 00 00 00 	j 10000000 <$LC0>
	...
100087f0:	02 00 00 00 00 00 00 00 	jal 10000000 <$LC0>
	...
10008918:	01 00 00 00 00 00 00 00 	j 10000000 <$LC0>
	...
10008a84:	05 00 00 00 26 1a 00 00 	beq $0,$0,1000f324 <freq_tab+0xdcc4>
	...
10008ae0:	4d 1e 00 00 00 00 00 00 	0x00001e4d:00000000
	...
10008afc:	65 00 00 00 00 00 00 00 	0x00000065:00000000
10008b04:	9b 02 00 00 00 00 00 00 	0x0000029b:00000000
	...
10008b14:	54 00 00 00 00 00 00 00 	nor $0,$0,$0
	...
10008bd4:	02 00 00 00 00 00 00 00 	jal 10000000 <$LC0>
	...
10008c88:	7f 1d 00 00 00 00 00 00 	0x00001d7f:00000000
	...
10008ce0:	a0 24 00 00 00 00 00 00 	0x000024a0:00000000
	...
10008cfc:	4f 00 00 00 00 00 00 00 	andi $0,$0,0
	...
10008d14:	22 00 00 00 00 00 00 00 	lbu $0,0($0)
	...
100090e0:	01 00 00 00 00 00 00 00 	j 10000000 <$LC0>
	...
100090f0:	01 00 00 00 00 00 00 00 	j 10000000 <$LC0>
	...
10009114:	01 00 00 00 00 00 00 00 	j 10000000 <$LC0>
	...
10009488:	5f 1e 00 00 00 00 00 00 	0x00001e5f:00000000
	...
100094e0:	9b 0a 00 00 00 00 00 00 	0x00000a9b:00000000
	...
100094fc:	48 00 00 00 00 00 00 00 	div $0,$0,$0
	...
10009514:	2f 00 00 00 00 00 00 00 	0x0000002f:00000000
	...
10009688:	01 00 00 00 00 00 00 00 	j 10000000 <$LC0>
	...
10009884:	dc 0b 00 00 67 00 00 00 	0x00000bdc:00000067
	...
100098e0:	82 08 00 00 01 00 00 00 	0x00000882:00000001
	...
100098fc:	3b 00 00 00 00 00 00 00 	0x0000003b:00000000
	...
10009910:	c2 00 00 00 07 00 00 00 	lh $0,($0+$0)
10009918:	03 00 00 00 00 00 00 00 	jr $0
	...
10009948:	04 00 00 00 04 00 00 00 	jalr $0,$0
	...
10009964:	48 00 00 00 0c 02 00 00 	div $0,$0,$0
1000996c:	91 06 00 00 50 03 00 00 	0x00000691:00000350
10009974:	17 02 00 00 99 02 00 00 	0x00000217:00000299
1000997c:	7d 03 00 00 07 00 00 00 	0x0000037d:00000007
10009984:	18 01 00 00 42 00 00 00 	0x00000118:00000042
1000998c:	2d 00 00 00 c1 0a 00 00 	lwr $0,2753($0)
10009994:	04 05 00 00 54 14 00 00 	0x00000504:00001454
1000999c:	00 00 00 00 85 01 00 00 	nop 
100099a4:	5c 00 00 00 ae 15 00 00 	slti $0,$0,5550
100099ac:	4b 05 00 00 46 06 00 00 	0x0000054b:00000646
100099b4:	dc 03 00 00 85 01 00 00 	0x000003dc:00000185
100099bc:	14 00 00 00 48 00 00 00 	0x00000014:00000048
100099c4:	4c 00 00 00 0b 00 00 00 	mflo $0
	...
100099d4:	f9 00 00 00 00 00 00 00 	0x000000f9:00000000
100099dc:	03 00 00 00 00 00 00 00 	jr $0
100099e4:	1a 00 00 00 87 00 00 00 	0x0000001a:00000087
100099ec:	b1 00 00 00 b7 00 00 00 	0x000000b1:000000b7
100099f4:	03 00 00 00 6f 00 00 00 	jr $0
100099fc:	e3 00 00 00 97 00 00 00 	0x000000e3:00000097
10009a04:	0b 00 00 00 41 00 00 00 	bc1f 10009b10 <freq_tab+0x84b0>
10009a0c:	00 00 00 00 27 04 00 00 	nop 
10009a14:	bb 00 00 00 ee 22 00 00 	0x000000bb:000022ee
10009a1c:	00 00 00 00 9b 00 00 00 	nop 
10009a24:	09 00 00 00 59 02 00 00 	bltz $0,1000a390 <freq_tab+0x8d30>
10009a2c:	a0 07 00 00 41 02 00 00 	0x000007a0:00000241
10009a34:	6e 00 00 00 11 00 00 00 	0x0000006e:00000011
10009a3c:	bd 00 00 00 00 00 00 00 	0x000000bd:00000000
10009a44:	aa 02 00 00 00 00 00 00 	0x000002aa:00000000
	...
10009a84:	10 00 00 00 00 00 00 00 	0x00000010:00000000
	...
10009ae0:	0a 00 00 00 00 00 00 00 	bgez $0,10009ae8 <freq_tab+0x8488>
	...
10009b10:	02 00 00 00 00 00 00 00 	jal 10000000 <$LC0>
	...
10009b64:	5f 04 00 00 1e 00 00 00 	0x0000045f:0000001e
	...
10009b74:	62 07 00 00 00 00 00 00 	0x00000762:00000000
10009b7c:	00 00 00 00 13 00 00 00 	nop 
10009b84:	3e 02 00 00 01 00 00 00 	0x0000023e:00000001
10009b8c:	00 00 00 00 6f 00 00 00 	nop 
	...
10009b9c:	72 02 00 00 00 00 00 00 	0x00000272:00000000
10009ba4:	00 00 00 00 9d 02 00 00 	nop 
10009bac:	06 00 00 00 01 00 00 00 	bne $0,$0,10009bb8 <freq_tab+0x8558>
10009bb4:	4b 02 00 00 00 00 00 00 	0x0000024b:00000000
10009bbc:	07 00 00 00 00 00 00 00 	blez $0,10009bc4 <freq_tab+0x8564>
10009bc4:	1c 01 00 00 00 00 00 00 	0x0000011c:00000000
	...
10009be4:	ab 01 00 00 00 00 00 00 	0x000001ab:00000000
	...
10009bf4:	13 07 00 00 00 00 00 00 	0x00000713:00000000
	...
10009c04:	c8 00 00 00 00 00 00 00 	sw $0,($0+$0)
10009c0c:	00 00 00 00 9e 00 00 00 	nop 
	...
10009c1c:	ca 01 00 00 00 00 00 00 	0x000001ca:00000000
10009c24:	00 00 00 00 47 02 00 00 	nop 
	...
10009c34:	19 0b 00 00 00 00 00 00 	0x00000b19:00000000
	...
10009c44:	42 03 00 00 00 00 00 00 	0x00000342:00000000
	...
10009c84:	21 00 00 00 03 00 00 00 	0x00000021:00000003
	...
10009ce0:	04 00 00 00 00 00 00 00 	jalr $0,$0
	...
10009cfc:	04 00 00 00 00 00 00 00 	jalr $0,$0
10009d04:	04 00 00 00 00 00 00 00 	jalr $0,$0
10009d0c:	00 00 00 00 01 00 00 00 	nop 
10009d14:	01 00 00 00 02 00 00 00 	j 10000008 <$LC0+0x8>
	...
10009d4c:	01 00 00 00 00 00 00 00 	j 10000000 <$LC0>
	...
10009d64:	75 07 00 00 0d 01 00 00 	0x00000775:0000010d
10009d6c:	15 00 00 00 5c 00 00 00 	0x00000015:0000005c
10009d74:	ff 0c 00 00 03 00 00 00 	0x00000cff:00000003
10009d7c:	00 00 00 00 12 07 00 00 	nop 
10009d84:	12 03 00 00 00 00 00 00 	0x00000312:00000000
10009d8c:	ec 03 00 00 c9 04 00 00 	0x000003ec:000004c9
10009d94:	06 00 00 00 00 00 00 00 	bne $0,$0,10009d9c <freq_tab+0x873c>
10009d9c:	50 04 00 00 00 00 00 00 	0x00000450:00000000
10009da4:	01 00 00 00 75 01 00 00 	j 100005d4 <$L355+0xfc>
10009dac:	00 00 00 00 63 04 00 00 	nop 
10009db4:	15 03 00 00 08 00 00 00 	0x00000315:00000008
10009dbc:	00 00 00 00 28 00 00 00 	nop 
10009dc4:	c6 00 00 00 00 00 00 00 	sb $0,($0+$0)
	...
10009dd4:	02 00 00 00 00 00 00 00 	jal 10000000 <$LC0>
	...
10009de4:	b0 06 00 00 00 00 00 00 	0x000006b0:00000000
	...
10009df4:	4c 00 00 00 00 00 00 00 	mflo $0
10009dfc:	00 00 00 00 01 02 00 00 	nop 
10009e04:	38 01 00 00 00 00 00 00 	dsz 0($0)+
10009e0c:	00 00 00 00 0a 03 00 00 	nop 
10009e14:	00 00 00 00 02 00 00 00 	nop 
10009e1c:	a8 07 00 00 00 00 00 00 	0x000007a8:00000000
10009e24:	00 00 00 00 e9 00 00 00 	nop 
	...
10009e34:	8a 00 00 00 00 00 00 00 	0x0000008a:00000000
	...
10009e44:	44 00 00 00 00 00 00 00 	sub $0,$0,$0
	...
10009e84:	57 06 00 00 27 00 00 00 	0x00000657:00000027
	...
10009ee0:	22 03 00 00 00 00 00 00 	lbu $0,0($0)^+
	...
10009efc:	09 00 00 00 00 00 00 00 	bltz $0,10009f04 <freq_tab+0x88a4>
	...
10009f10:	7b 00 00 00 0f 00 00 00 	mov.d $f0,$f0
10009f18:	02 00 00 00 00 00 00 00 	jal 10000000 <$LC0>
	...
10009f48:	1b 00 00 00 02 00 00 00 	0x0000001b:00000002
	...
10009f64:	33 02 00 00 00 00 00 00 	0x00000233:00000000
10009f6c:	01 00 00 00 0c 00 00 00 	j 10000030 <$LC1+0xc>
10009f74:	65 06 00 00 2c 00 00 00 	0x00000665:0000002c
10009f7c:	94 00 00 00 00 00 00 00 	c.le.s $f0,$f0
10009f84:	00 05 00 00 00 00 00 00 	0x00000500:00000000
10009f8c:	00 00 00 00 0a 00 00 00 	nop 
10009f94:	6b 00 00 00 02 00 00 00 	0x0000006b:00000002
10009f9c:	24 05 00 00 03 00 00 00 	0x00000524:00000003
10009fa4:	00 00 00 00 c4 03 00 00 	nop 
10009fac:	7a 00 00 00 00 00 00 00 	mov.s $f0,$f0
10009fb4:	28 04 00 00 0c 00 00 00 	lw $0,12($0)^-
10009fbc:	dc 00 00 00 00 00 00 00 	0x000000dc:00000000
10009fc4:	5b 01 00 00 00 00 00 00 	0x0000015b:00000000
	...
10009fd4:	72 00 00 00 00 00 00 00 	sub.s $f0,$f0,$f0
10009fdc:	02 00 00 00 00 00 00 00 	jal 10000000 <$LC0>
10009fe4:	f5 00 00 00 00 00 00 00 	0x000000f5:00000000
	...
10009ff4:	4a 02 00 00 00 00 00 00 	0x0000024a:00000000
	...
1000a004:	9c 02 00 00 00 00 00 00 	0x0000029c:00000000
	...
1000a01c:	eb 03 00 00 00 00 00 00 	0x000003eb:00000000
1000a024:	00 00 00 00 dd 00 00 00 	nop 
	...
1000a034:	73 01 00 00 00 00 00 00 	0x00000173:00000000
1000a03c:	04 00 00 00 00 00 00 00 	jalr $0,$0
1000a044:	05 00 00 00 00 00 00 00 	beq $0,$0,1000a04c <freq_tab+0x89ec>
	...
1000a084:	a1 0a 00 00 b1 00 00 00 	0x00000aa1:000000b1
	...
1000a0e0:	4d 08 00 00 00 00 00 00 	0x0000084d:00000000
	...
1000a0fc:	2e 00 00 00 00 00 00 00 	0x0000002e:00000000
	...
1000a110:	aa 00 00 00 1e 00 00 00 	0x000000aa:0000001e
1000a118:	09 00 00 00 00 00 00 00 	bltz $0,1000a120 <freq_tab+0x8ac0>
	...
1000a148:	26 00 00 00 00 00 00 00 	lhu $0,0($0)
	...
1000a164:	0b 03 00 00 ba 00 00 00 	0x0000030b:000000ba
1000a16c:	bc 00 00 00 a6 04 00 00 	0x000000bc:000004a6
1000a174:	10 03 00 00 12 00 00 00 	0x00000310:00000012
1000a17c:	a2 00 00 00 04 00 00 00 	lui $0,4
1000a184:	72 00 00 00 00 00 00 00 	sub.s $f0,$f0,$f0
1000a18c:	05 00 00 00 04 0a 00 00 	beq $0,$0,1000c9a4 <freq_tab+0xb344>
1000a194:	4a 03 00 00 ae 16 00 00 	0x0000034a:000016ae
1000a19c:	cb 03 00 00 29 01 00 00 	0x000003cb:00000129
1000a1a4:	07 00 00 00 14 10 00 00 	blez $0,1000e1fc <freq_tab+0xcb9c>
1000a1ac:	de 0f 00 00 aa 08 00 00 	0x00000fde:000008aa
1000a1b4:	78 01 00 00 8e 00 00 00 	0x00000178:0000008e
1000a1bc:	cd 00 00 00 a7 00 00 00 	0x000000cd:000000a7
1000a1c4:	ac 01 00 00 02 00 00 00 	0x000001ac:00000002
	...
1000a1d4:	89 00 00 00 00 00 00 00 	0x00000089:00000000
	...
1000a1e4:	b2 00 00 00 02 00 00 00 	0x000000b2:00000002
1000a1ec:	06 00 00 00 20 01 00 00 	bne $0,$0,1000a674 <freq_tab+0x9014>
1000a1f4:	00 00 00 00 03 00 00 00 	nop 
1000a1fc:	60 00 00 00 00 00 00 00 	0x00000060:00000000
1000a204:	43 00 00 00 00 00 00 00 	addiu $0,$0,0
1000a20c:	00 00 00 00 5e 00 00 00 	nop 
1000a214:	3f 00 00 00 4b 0a 00 00 	0x0000003f:00000a4b
1000a21c:	01 00 00 00 37 00 00 00 	j 100000dc <$LC6+0x10>
1000a224:	03 00 00 00 7d 00 00 00 	jr $0
1000a22c:	1d 00 00 00 1b 00 00 00 	0x0000001d:0000001b
1000a234:	15 00 00 00 58 01 00 00 	0x00000015:00000158
1000a23c:	00 00 00 00 8f 08 00 00 	nop 
1000a244:	05 00 00 00 00 00 00 00 	beq $0,$0,1000a24c <freq_tab+0x8bec>
	...
1000a284:	5a 02 00 00 17 00 00 00 	0x0000025a:00000017
	...
1000a2e0:	2a 04 00 00 00 00 00 00 	l.s $f0,0($0)^-
	...
1000a2fc:	02 00 00 00 00 00 00 00 	jal 10000000 <$LC0>
	...
1000a310:	17 00 00 00 01 00 00 00 	0x00000017:00000001
1000a318:	01 00 00 00 00 00 00 00 	j 10000000 <$LC0>
	...
1000a348:	05 00 00 00 01 00 00 00 	beq $0,$0,1000a354 <freq_tab+0x8cf4>
	...
1000a364:	87 02 00 00 00 00 00 00 	0x00000287:00000000
	...
1000a374:	b7 01 00 00 c2 03 00 00 	0x000001b7:000003c2
	...
1000a384:	77 00 00 00 00 00 00 00 	div.d $f0,$f0,$f0
1000a38c:	00 00 00 00 fd 00 00 00 	nop 
	...
1000a39c:	c6 02 00 00 00 00 00 00 	sb $0,($0+$0)-
1000a3a4:	00 00 00 00 0c 01 00 00 	nop 
1000a3ac:	00 00 00 00 23 00 00 00 	nop 
1000a3b4:	0e 00 00 00 00 00 00 00 	0x0000000e:00000000
	...
1000a3c4:	03 00 00 00 00 00 00 00 	jr $0
	...
1000a3d4:	18 00 00 00 00 00 00 00 	0x00000018:00000000
	...
1000a3e4:	d4 02 00 00 00 00 00 00 	0x000002d4:00000000
	...
1000a3f4:	c1 00 00 00 00 00 00 00 	lbu $0,($0+$0)
	...
1000a404:	14 05 00 00 00 00 00 00 	0x00000514:00000000
1000a40c:	00 00 00 00 f6 00 00 00 	nop 
	...
1000a41c:	8d 09 00 00 00 00 00 00 	0x0000098d:00000000
1000a424:	00 00 00 00 a6 04 00 00 	nop 
	...
1000a434:	50 00 00 00 00 00 00 00 	or $0,$0,$0
	...
1000a484:	cc 00 00 00 1a 00 00 00 	0x000000cc:0000001a
	...
1000a4e0:	0a 07 00 00 00 00 00 00 	0x0000070a:00000000
	...
1000a4fc:	09 00 00 00 00 00 00 00 	bltz $0,1000a504 <freq_tab+0x8ea4>
	...
1000a510:	0c 00 00 00 0a 00 00 00 	bc1t 1000a540 <freq_tab+0x8ee0>
1000a518:	10 00 00 00 00 00 00 00 	0x00000010:00000000
	...
1000a548:	03 00 00 00 00 00 00 00 	jr $0
	...
1000a564:	ce 02 00 00 bd 00 00 00 	dlw $0,($0+$0)-
	...
1000a574:	57 03 00 00 00 00 00 00 	0x00000357:00000000
1000a57c:	0b 00 00 00 9a 01 00 00 	bc1f 1000abec <freq_tab+0x958c>
1000a584:	37 00 00 00 00 00 00 00 	s.d $f0,0($0)
1000a58c:	00 00 00 00 aa 02 00 00 	nop 
1000a594:	02 00 00 00 42 00 00 00 	jal 10000108 <$LC7+0x4>
1000a59c:	b5 02 00 00 00 00 00 00 	0x000002b5:00000000
1000a5a4:	00 00 00 00 99 01 00 00 	nop 
1000a5ac:	6d 00 00 00 02 00 00 00 	0x0000006d:00000002
1000a5b4:	5a 01 00 00 00 00 00 00 	0x0000015a:00000000
	...
1000a5c4:	02 00 00 00 00 00 00 00 	jal 10000000 <$LC0>
	...
1000a5d4:	0b 00 00 00 00 00 00 00 	bc1f 1000a5dc <freq_tab+0x8f7c>
	...
1000a5e4:	e6 00 00 00 00 00 00 00 	0x000000e6:00000000
	...
1000a5f4:	5a 02 00 00 00 00 00 00 	0x0000025a:00000000
1000a5fc:	00 00 00 00 3a 00 00 00 	nop 
1000a604:	88 01 00 00 00 00 00 00 	0x00000188:00000000
1000a60c:	00 00 00 00 cd 00 00 00 	nop 
1000a614:	00 00 00 00 02 00 00 00 	nop 
1000a61c:	11 08 00 00 00 00 00 00 	0x00000811:00000000
1000a624:	00 00 00 00 ec 01 00 00 	nop 
	...
1000a634:	65 00 00 00 00 00 00 00 	0x00000065:00000000
	...
1000a684:	24 03 00 00 1f 00 00 00 	lh $0,31($0)^+
	...
1000a6e0:	ce 00 00 00 00 00 00 00 	dlw $0,($0+$0)
	...
1000a6fc:	03 00 00 00 00 00 00 00 	jr $0
	...
1000a710:	35 00 00 00 02 00 00 00 	dsw $0,2($0)
1000a718:	03 00 00 00 00 00 00 00 	jr $0
	...
1000a748:	09 00 00 00 01 00 00 00 	bltz $0,1000a754 <freq_tab+0x90f4>
	...
1000a764:	e4 07 00 00 3b 00 00 00 	0x000007e4:0000003b
	...
1000a774:	f4 0a 00 00 02 00 00 00 	0x00000af4:00000002
	...
1000a784:	e8 02 00 00 00 00 00 00 	0x000002e8:00000000
1000a78c:	00 00 00 00 03 00 00 00 	nop 
1000a794:	26 00 00 00 0f 01 00 00 	lhu $0,271($0)
1000a79c:	52 03 00 00 01 00 00 00 	0x00000352:00000001
1000a7a4:	00 00 00 00 49 00 00 00 	nop 
1000a7ac:	57 00 00 00 48 00 00 00 	srl $0,$0,0x48
1000a7b4:	30 02 00 00 00 00 00 00 	sb $0,0($0)-
1000a7bc:	06 00 00 00 00 00 00 00 	bne $0,$0,1000a7c4 <freq_tab+0x9164>
1000a7c4:	8b 00 00 00 00 00 00 00 	0x0000008b:00000000
	...
1000a7d4:	39 00 00 00 00 00 00 00 	swl $0,0($0)
	...
1000a7e4:	1d 07 00 00 00 00 00 00 	0x0000071d:00000000
	...
1000a7f4:	a0 0d 00 00 00 00 00 00 	0x00000da0:00000000
	...
1000a804:	9a 02 00 00 00 00 00 00 	0x0000029a:00000000
	...
1000a81c:	89 06 00 00 00 00 00 00 	0x00000689:00000000
	...
1000a834:	bf 00 00 00 00 00 00 00 	0x000000bf:00000000
	...
1000a844:	1d 00 00 00 00 00 00 00 	0x0000001d:00000000
	...
1000a884:	55 04 00 00 27 04 00 00 	0x00000455:00000427
	...
1000a8e0:	11 4d 00 00 09 00 00 00 	0x00004d11:00000009
	...
1000a8fc:	9d 07 00 00 00 00 00 00 	0x0000079d:00000000
	...
1000a910:	94 01 00 00 02 00 00 00 	0x00000194:00000002
1000a918:	c3 00 00 00 00 00 00 00 	lhu $0,($0+$0)
	...
1000a948:	1f 00 00 00 3b 00 00 00 	0x0000001f:0000003b
	...
1000a95c:	1f 00 00 00 00 00 00 00 	0x0000001f:00000000
1000a964:	d6 0a 00 00 7a 00 00 00 	0x00000ad6:0000007a
1000a96c:	d2 07 00 00 23 02 00 00 	0x000007d2:00000223
1000a974:	7b 01 00 00 90 00 00 00 	0x0000017b:00000090
1000a97c:	f7 00 00 00 02 00 00 00 	0x000000f7:00000002
1000a984:	18 07 00 00 00 00 00 00 	0x00000718:00000000
1000a98c:	22 00 00 00 d8 04 00 00 	lbu $0,1240($0)
1000a994:	00 03 00 00 86 16 00 00 	0x00000300:00001686
1000a99c:	0f 0c 00 00 50 01 00 00 	0x00000c0f:00000150
1000a9a4:	00 00 00 00 a8 03 00 00 	nop 
1000a9ac:	18 06 00 00 ac 02 00 00 	0x00000618:000002ac
1000a9b4:	ba 08 00 00 4e 03 00 00 	0x000008ba:0000034e
1000a9bc:	18 00 00 00 5d 00 00 00 	0x00000018:0000005d
1000a9c4:	00 00 00 00 b3 00 00 00 	nop 
	...
1000a9d4:	10 00 00 00 00 00 00 00 	0x00000010:00000000
	...
1000a9e4:	45 00 00 00 00 00 00 00 	subu $0,$0,$0
1000a9ec:	05 00 00 00 07 00 00 00 	beq $0,$0,1000aa10 <freq_tab+0x93b0>
1000a9f4:	00 00 00 00 ff 05 00 00 	nop 
1000a9fc:	02 00 00 00 00 00 00 00 	jal 10000000 <$LC0>
	...
1000aa10:	2d 00 00 00 60 00 00 00 	lwr $0,96($0)
1000aa18:	e4 05 00 00 03 00 00 00 	0x000005e4:00000003
1000aa20:	02 00 00 00 00 00 00 00 	jal 10000000 <$LC0>
1000aa28:	3f 00 00 00 ac 03 00 00 	0x0000003f:000003ac
1000aa30:	d6 03 00 00 00 00 00 00 	0x000003d6:00000000
	...
1000ab64:	b3 00 00 00 00 00 00 00 	0x000000b3:00000000
	...
1000ab74:	2a 00 00 00 00 00 00 00 	l.s $f0,0($0)
	...
1000ab9c:	61 01 00 00 00 00 00 00 	0x00000161:00000000
	...
1000abb4:	4b 01 00 00 00 00 00 00 	0x0000014b:00000000
	...
1000abe4:	8e 00 00 00 00 00 00 00 	0x0000008e:00000000
	...
1000abf4:	b7 00 00 00 00 00 00 00 	0x000000b7:00000000
	...
1000ac04:	02 00 00 00 00 00 00 00 	jal 10000000 <$LC0>
	...
1000ac1c:	b3 01 00 00 00 00 00 00 	0x000001b3:00000000
	...
1000ac34:	48 01 00 00 00 00 00 00 	0x00000148:00000000
	...
1000ac84:	35 04 00 00 02 00 00 00 	dsw $0,2($0)^-
	...
1000ace0:	20 01 00 00 00 00 00 00 	lb $0,0($0)+
	...
1000acfc:	07 00 00 00 00 00 00 00 	blez $0,1000ad04 <freq_tab+0x96a4>
	...
1000ad10:	5c 00 00 00 0b 00 00 00 	slti $0,$0,11
1000ad18:	04 00 00 00 00 00 00 00 	jalr $0,$0
	...
1000ad48:	17 00 00 00 03 00 00 00 	0x00000017:00000003
	...
1000ad64:	eb 00 00 00 00 00 00 00 	0x000000eb:00000000
	...
1000ad74:	20 04 00 00 01 00 00 00 	lb $0,1($0)^-
1000ad7c:	00 00 00 00 01 00 00 00 	nop 
1000ad84:	36 08 00 00 00 00 00 00 	0x00000836:00000000
1000ad8c:	00 00 00 00 98 00 00 00 	nop 
1000ad94:	00 00 00 00 09 00 00 00 	nop 
	...
1000ada8:	01 00 00 00 09 00 00 00 	j 10000024 <$LC1>
1000adb0:	01 00 00 00 00 00 00 00 	j 10000000 <$LC0>
1000adb8:	00 00 00 00 02 00 00 00 	nop 
1000adc0:	00 00 00 00 03 00 00 00 	nop 
	...
1000add4:	35 00 00 00 00 00 00 00 	dsw $0,0($0)
	...
1000ade4:	a1 00 00 00 00 00 00 00 	break 
	...
1000adf4:	96 00 00 00 00 00 00 00 	sqrt.s $f0,$f0
	...
1000ae04:	63 01 00 00 00 00 00 00 	0x00000163:00000000
	...
1000ae18:	ed 00 00 00 00 00 00 00 	0x000000ed:00000000
	...
1000ae84:	7c 02 00 00 22 00 00 00 	0x0000027c:00000022
	...
1000aee0:	52 01 00 00 00 00 00 00 	0x00000152:00000000
	...
1000aefc:	1d 00 00 00 00 00 00 00 	0x0000001d:00000000
	...
1000af10:	39 00 00 00 0b 00 00 00 	swl $0,11($0)
1000af18:	06 00 00 00 00 00 00 00 	bne $0,$0,1000af20 <freq_tab+0x98c0>
	...
1000af48:	0b 00 00 00 01 00 00 00 	bc1f 1000af54 <freq_tab+0x98f4>
	...
1000af64:	58 0a 00 00 cf 00 00 00 	0x00000a58:000000cf
1000af6c:	26 01 00 00 a3 00 00 00 	lhu $0,163($0)+
1000af74:	5e 0d 00 00 27 00 00 00 	0x00000d5e:00000027
1000af7c:	06 00 00 00 00 00 00 00 	bne $0,$0,1000af84 <freq_tab+0x9924>
1000af84:	9e 0a 00 00 00 00 00 00 	0x00000a9e:00000000
1000af8c:	0e 01 00 00 41 07 00 00 	0x0000010e:00000741
1000af94:	38 00 00 00 05 00 00 00 	dsz 5($0)
1000af9c:	b3 09 00 00 bb 00 00 00 	0x000009b3:000000bb
	...
1000afac:	79 02 00 00 a4 00 00 00 	0x00000279:000000a4
1000afb4:	57 05 00 00 db 00 00 00 	0x00000557:000000db
1000afbc:	01 00 00 00 1e 00 00 00 	j 10000078 <$LC3+0x8>
1000afc4:	2e 02 00 00 00 00 00 00 	0x0000022e:00000000
	...
1000afd4:	33 00 00 00 00 00 00 00 	0x00000033:00000000
	...
1000afe4:	5d 02 00 00 00 00 00 00 	0x0000025d:00000000
	...
1000aff4:	2a 05 00 00 00 00 00 00 	0x0000052a:00000000
	...
1000b004:	d7 01 00 00 00 00 00 00 	0x000001d7:00000000
1000b00c:	00 00 00 00 01 00 00 00 	nop 
	...
1000b01c:	71 07 00 00 00 00 00 00 	0x00000771:00000000
	...
1000b034:	27 01 00 00 00 00 00 00 	0x00000127:00000000
	...
1000b044:	3e 00 00 00 00 00 00 00 	0x0000003e:00000000
	...
1000b084:	c0 01 00 00 0e 00 00 00 	lb $0,($0+$0)+
	...
1000b0e0:	3a 00 00 00 00 00 00 00 	swr $0,0($0)
	...
1000b110:	2c 00 00 00 00 00 00 00 	lwl $0,0($0)
1000b118:	06 00 00 00 00 00 00 00 	bne $0,$0,1000b120 <freq_tab+0x9ac0>
	...
1000b148:	06 00 00 00 01 00 00 00 	bne $0,$0,1000b154 <freq_tab+0x9af4>
	...
1000b164:	b4 07 00 00 3b 01 00 00 	0x000007b4:0000013b
	...
1000b174:	51 05 00 00 00 00 00 00 	0x00000551:00000000
	...
1000b184:	fe 05 00 00 00 00 00 00 	0x000005fe:00000000
1000b18c:	00 00 00 00 99 01 00 00 	nop 
1000b194:	15 00 00 00 90 00 00 00 	0x00000015:00000090
1000b19c:	1e 05 00 00 2e 01 00 00 	0x0000051e:0000012e
1000b1a4:	00 00 00 00 01 00 00 00 	nop 
1000b1ac:	21 00 00 00 00 00 00 00 	0x00000021:00000000
1000b1b4:	ff 00 00 00 00 00 00 00 	0x000000ff:00000000
1000b1bc:	1a 00 00 00 00 00 00 00 	0x0000001a:00000000
1000b1c4:	0d 00 00 00 00 00 00 00 	0x0000000d:00000000
	...
1000b1d4:	1d 00 00 00 00 00 00 00 	0x0000001d:00000000
	...
1000b1e4:	89 08 00 00 00 00 00 00 	0x00000889:00000000
	...
1000b1f4:	04 03 00 00 00 00 00 00 	0x00000304:00000000
	...
1000b204:	ab 01 00 00 00 00 00 00 	0x000001ab:00000000
	...
1000b21c:	58 03 00 00 00 00 00 00 	0x00000358:00000000
	...
1000b234:	d4 01 00 00 00 00 00 00 	0x000001d4:00000000
	...
1000b244:	d2 06 00 00 00 00 00 00 	0x000006d2:00000000
	...
1000b284:	cb 07 00 00 8c 00 00 00 	0x000007cb:0000008c
	...
1000b2e0:	ac 03 00 00 00 00 00 00 	0x000003ac:00000000
	...
1000b2fc:	0e 00 00 00 00 00 00 00 	0x0000000e:00000000
	...
1000b310:	95 00 00 00 0d 00 00 00 	c.le.d $f0,$f0
1000b318:	04 00 00 00 00 00 00 00 	jalr $0,$0
	...
1000b348:	0f 00 00 00 05 00 00 00 	0x0000000f:00000005
	...
1000b364:	df 06 00 00 30 00 00 00 	0x000006df:00000030
1000b36c:	98 06 00 00 eb 07 00 00 	0x00000698:000007eb
1000b374:	eb 09 00 00 07 00 00 00 	0x000009eb:00000007
1000b37c:	83 0a 00 00 08 00 00 00 	0x00000a83:00000008
1000b384:	18 07 00 00 03 00 00 00 	0x00000718:00000003
1000b38c:	12 00 00 00 2c 00 00 00 	0x00000012:0000002c
1000b394:	21 00 00 00 d2 00 00 00 	0x00000021:000000d2
1000b39c:	e2 03 00 00 02 00 00 00 	0x000003e2:00000002
1000b3a4:	36 00 00 00 8c 04 00 00 	s.s $f0,1164($0)
1000b3ac:	27 02 00 00 96 09 00 00 	0x00000227:00000996
1000b3b4:	9f 01 00 00 5b 00 00 00 	0x0000019f:0000005b
1000b3bc:	41 00 00 00 00 00 00 00 	addi $0,$0,0
1000b3c4:	07 02 00 00 74 00 00 00 	0x00000207:00000074
	...
1000b3d4:	8f 00 00 00 00 00 00 00 	0x0000008f:00000000
	...
1000b3e4:	7f 02 00 00 00 00 00 00 	0x0000027f:00000000
	...
1000b3f4:	77 01 00 00 00 00 00 00 	0x00000177:00000000
	...
1000b404:	46 00 00 00 00 00 00 00 	mult $0,$0
	...
1000b41c:	d6 0b 00 00 00 00 00 00 	0x00000bd6:00000000
	...
1000b434:	8e 00 00 00 00 00 00 00 	0x0000008e:00000000
	...
1000b444:	16 00 00 00 00 00 00 00 	0x00000016:00000000
	...
1000b484:	b3 10 00 00 21 00 00 00 	0x000010b3:00000021
	...
1000b4e0:	87 06 00 00 16 00 00 00 	0x00000687:00000016
	...
1000b4fc:	5c 00 00 00 00 00 00 00 	slti $0,$0,0
	...
1000b510:	6e 05 00 00 02 00 00 00 	0x0000056e:00000002
1000b518:	08 00 00 00 00 00 00 00 	bgtz $0,1000b520 <freq_tab+0x9ec0>
	...
1000b548:	09 00 00 00 03 00 00 00 	bltz $0,1000b55c <freq_tab+0x9efc>
	...
1000b55c:	01 00 00 00 00 00 00 00 	j 10000000 <$LC0>
1000b564:	49 00 00 00 a3 01 00 00 	divu $0,$0,$0
1000b56c:	cb 01 00 00 9a 00 00 00 	0x000001cb:0000009a
1000b574:	0f 00 00 00 7b 04 00 00 	0x0000000f:0000047b
1000b57c:	db 00 00 00 09 01 00 00 	0x000000db:00000109
1000b584:	1a 01 00 00 02 00 00 00 	0x0000011a:00000002
1000b58c:	a2 00 00 00 ba 09 00 00 	lui $0,2490
1000b594:	56 04 00 00 9c 0e 00 00 	0x00000456:00000e9c
1000b59c:	4d 00 00 00 19 02 00 00 	mtlo $0
1000b5a4:	00 00 00 00 2e 0c 00 00 	nop 
1000b5ac:	c3 03 00 00 4b 04 00 00 	lhu $0,($0+$4)^+
1000b5b4:	66 04 00 00 80 00 00 00 	0x00000466:00000080
1000b5bc:	72 01 00 00 5c 00 00 00 	0x00000172:0000005c
1000b5c4:	76 00 00 00 05 00 00 00 	div.s $f0,$f0,$f0
	...
1000b5d4:	fc 00 00 00 00 00 00 00 	0x000000fc:00000000
	...
1000b5e4:	01 00 00 00 23 00 00 00 	j 1000008c <$LC4>
1000b5ec:	30 00 00 00 0b 00 00 00 	sb $0,11($0)
1000b5f4:	00 00 00 00 90 04 00 00 	nop 
1000b5fc:	00 00 00 00 19 00 00 00 	nop 
	...
1000b610:	7a 00 00 00 07 00 00 00 	mov.s $f0,$f0
1000b618:	04 02 00 00 00 00 00 00 	0x00000204:00000000
1000b620:	47 00 00 00 00 00 00 00 	multu $0,$0
1000b628:	18 03 00 00 0c 00 00 00 	0x00000318:0000000c
1000b630:	40 00 00 00 38 02 00 00 	add $2,$0,$0
1000b638:	1d 00 00 00 0c 00 00 00 	0x0000001d:0000000c
1000b640:	1e 00 00 00 01 00 00 00 	0x0000001e:00000001
	...
1000b684:	5b 00 00 00 1a 00 00 00 	slt $0,$0,$0
	...
1000b6e0:	53 00 00 00 00 00 00 00 	xori $0,$0,0
	...
1000b6fc:	03 00 00 00 00 00 00 00 	jr $0
	...
1000b710:	06 00 00 00 03 00 00 00 	bne $0,$0,1000b724 <freq_tab+0xa0c4>
	...
1000b748:	03 00 00 00 00 00 00 00 	jr $0
	...
1000b764:	cf 04 00 00 00 00 00 00 	l.d $f0,($0+$0)^-
1000b76c:	15 00 00 00 00 00 00 00 	0x00000015:00000000
1000b774:	3a 05 00 00 00 00 00 00 	0x0000053a:00000000
1000b77c:	00 00 00 00 83 03 00 00 	nop 
1000b784:	60 01 00 00 00 00 00 00 	0x00000160:00000000
1000b78c:	01 00 00 00 60 00 00 00 	j 10000180 <$LC10+0x1c>
	...
1000b79c:	c3 02 00 00 5a 00 00 00 	lhu $0,($0+$0)-
1000b7a4:	00 00 00 00 81 03 00 00 	nop 
1000b7ac:	2d 00 00 00 63 00 00 00 	lwr $0,99($0)
1000b7b4:	88 01 00 00 00 00 00 00 	0x00000188:00000000
	...
1000b7c4:	06 00 00 00 00 00 00 00 	bne $0,$0,1000b7cc <freq_tab+0xa16c>
	...
1000b7d4:	01 00 00 00 00 00 00 00 	j 10000000 <$LC0>
	...
1000b7e4:	fb 02 00 00 00 00 00 00 	0x000002fb:00000000
	...
1000b7f4:	24 02 00 00 00 00 00 00 	lh $0,0($0)-
1000b7fc:	00 00 00 00 8e 00 00 00 	nop 
1000b804:	b2 00 00 00 00 00 00 00 	0x000000b2:00000000
1000b80c:	00 00 00 00 16 01 00 00 	nop 
	...
1000b81c:	1d 02 00 00 00 00 00 00 	0x0000021d:00000000
1000b824:	00 00 00 00 cb 03 00 00 	nop 
1000b82c:	02 00 00 00 05 00 00 00 	jal 10000014 <$LC0+0x14>
1000b834:	ac 00 00 00 00 00 00 00 	0x000000ac:00000000
	...
1000b844:	4d 00 00 00 00 00 00 00 	mtlo $0
	...
1000b9b4:	a5 03 00 00 00 00 00 00 	0x000003a5:00000000
	...
1000ba34:	a4 00 00 00 00 00 00 00 	cfc1 $0,$f0
	...
1000ba84:	6b 07 00 00 53 00 00 00 	0x0000076b:00000053
	...
1000bae0:	28 03 00 00 00 00 00 00 	lw $0,0($0)^+
	...
1000bafc:	2a 00 00 00 00 00 00 00 	l.s $f0,0($0)
	...
1000bb10:	b5 00 00 00 13 00 00 00 	0x000000b5:00000013
1000bb18:	08 00 00 00 00 00 00 00 	bgtz $0,1000bb20 <freq_tab+0xa4c0>
	...
1000bb48:	1b 00 00 00 01 00 00 00 	0x0000001b:00000001
	...
1000bb64:	25 07 00 00 d6 00 00 00 	0x00000725:000000d6
1000bb6c:	e3 01 00 00 cb 08 00 00 	0x000001e3:000008cb
1000bb74:	ea 07 00 00 59 00 00 00 	0x000007ea:00000059
1000bb7c:	9f 01 00 00 02 00 00 00 	0x0000019f:00000002
1000bb84:	ad 0d 00 00 02 00 00 00 	0x00000dad:00000002
1000bb8c:	7a 02 00 00 1b 02 00 00 	0x0000027a:0000021b
1000bb94:	32 01 00 00 92 01 00 00 	sh $0,402($0)+
1000bb9c:	7a 0b 00 00 11 00 00 00 	0x00000b7a:00000011
1000bba4:	02 00 00 00 c9 00 00 00 	jal 10000324 <$L134+0x54>
1000bbac:	dd 01 00 00 cf 03 00 00 	0x000001dd:000003cf
1000bbb4:	b6 03 00 00 5d 00 00 00 	0x000003b6:0000005d
1000bbbc:	f8 00 00 00 00 00 00 00 	0x000000f8:00000000
1000bbc4:	98 05 00 00 00 00 00 00 	0x00000598:00000000
	...
1000bbd4:	8c 00 00 00 00 00 00 00 	0x0000008c:00000000
	...
1000bbe4:	7e 00 00 00 00 00 00 00 	0x0000007e:00000000
	...
1000bbf4:	b0 03 00 00 00 00 00 00 	0x000003b0:00000000
1000bbfc:	00 00 00 00 0d 00 00 00 	nop 
1000bc04:	55 01 00 00 00 00 00 00 	0x00000155:00000000
	...
1000bc1c:	d9 03 00 00 00 00 00 00 	0x000003d9:00000000
	...
1000bc34:	6a 00 00 00 00 00 00 00 	0x0000006a:00000000
	...
1000bc84:	63 17 00 00 2b 01 00 00 	0x00001763:0000012b
	...
1000bce0:	ed 06 00 00 01 00 00 00 	0x000006ed:00000001
	...
1000bcfc:	15 00 00 00 00 00 00 00 	0x00000015:00000000
1000bd04:	01 00 00 00 00 00 00 00 	j 10000000 <$LC0>
1000bd0c:	00 00 00 00 fd 01 00 00 	nop 
1000bd14:	08 00 00 00 1d 00 00 00 	bgtz $0,1000bd90 <freq_tab+0xa730>
	...
1000bd48:	2a 00 00 00 0b 00 00 00 	l.s $f0,11($0)
1000bd50:	00 00 00 00 02 00 00 00 	nop 
	...
1000bd64:	7f 05 00 00 99 00 00 00 	0x0000057f:00000099
1000bd6c:	06 04 00 00 c1 00 00 00 	0x00000406:000000c1
1000bd74:	c6 03 00 00 00 00 00 00 	sb $0,($0+$0)^+
1000bd7c:	00 00 00 00 15 02 00 00 	nop 
1000bd84:	03 07 00 00 00 00 00 00 	0x00000703:00000000
1000bd8c:	12 00 00 00 85 00 00 00 	0x00000012:00000085
1000bd94:	13 00 00 00 1d 00 00 00 	0x00000013:0000001d
1000bd9c:	4c 01 00 00 a9 01 00 00 	0x0000014c:000001a9
1000bda4:	08 00 00 00 1d 00 00 00 	bgtz $0,1000be20 <freq_tab+0xa7c0>
1000bdac:	ab 06 00 00 1e 0c 00 00 	0x000006ab:00000c1e
1000bdb4:	d2 01 00 00 00 00 00 00 	s.d $f0,($0+$0)+
1000bdbc:	46 00 00 00 00 00 00 00 	mult $0,$0
1000bdc4:	d5 00 00 00 00 00 00 00 	0x000000d5:00000000
	...
1000bdd4:	a2 01 00 00 00 00 00 00 	0x000001a2:00000000
	...
1000bde4:	7c 02 00 00 0b 00 00 00 	0x0000027c:0000000b
1000bdec:	98 00 00 00 01 00 00 00 	0x00000098:00000001
1000bdf4:	04 07 00 00 01 00 00 00 	0x00000704:00000001
1000bdfc:	00 00 00 00 20 06 00 00 	nop 
1000be04:	b2 05 00 00 00 00 00 00 	0x000005b2:00000000
1000be0c:	07 00 00 00 68 00 00 00 	blez $0,1000bfb4 <freq_tab+0xa954>
1000be14:	2b 00 00 00 18 00 00 00 	l.d $f0,24($0)
1000be1c:	6f 07 00 00 37 01 00 00 	0x0000076f:00000137
1000be24:	04 00 00 00 00 00 00 00 	jalr $0,$0
1000be2c:	00 00 00 00 b4 02 00 00 	nop 
1000be34:	9a 01 00 00 00 00 00 00 	0x0000019a:00000000
1000be3c:	df 00 00 00 00 00 00 00 	0x000000df:00000000
1000be44:	38 00 00 00 00 00 00 00 	dsz 0($0)
	...
1000be54:	01 00 00 00 00 00 00 00 	j 10000000 <$LC0>
	...
1000be84:	bf 06 00 00 79 00 00 00 	0x000006bf:00000079
	...
1000bee0:	9c 03 00 00 01 00 00 00 	0x0000039c:00000001
	...
1000befc:	17 00 00 00 00 00 00 00 	0x00000017:00000000
	...
1000bf10:	65 00 00 00 15 00 00 00 	0x00000065:00000015
1000bf18:	09 00 00 00 00 00 00 00 	bltz $0,1000bf20 <freq_tab+0xa8c0>
	...
1000bf48:	14 00 00 00 02 00 00 00 	0x00000014:00000002
	...
1000bf64:	a3 06 00 00 01 00 00 00 	0x000006a3:00000001
1000bf6c:	30 00 00 00 02 00 00 00 	sb $0,2($0)
1000bf74:	8f 08 00 00 00 00 00 00 	0x0000088f:00000000
1000bf7c:	05 00 00 00 03 08 00 00 	beq $0,$0,1000df90 <freq_tab+0xc930>
1000bf84:	be 09 00 00 0f 00 00 00 	0x000009be:0000000f
1000bf8c:	00 00 00 00 41 00 00 00 	nop 
1000bf94:	58 00 00 00 02 00 00 00 	srlv $0,$0,$0
1000bf9c:	81 06 00 00 02 00 00 00 	0x00000681:00000002
1000bfa4:	00 00 00 00 03 07 00 00 	nop 
1000bfac:	92 00 00 00 ab 00 00 00 	c.lt.s $f0,$f0
1000bfb4:	75 03 00 00 00 00 00 00 	0x00000375:00000000
1000bfbc:	2f 00 00 00 00 00 00 00 	0x0000002f:00000000
1000bfc4:	5c 00 00 00 4f 00 00 00 	slti $0,$0,79
	...
1000bfd4:	61 00 00 00 00 00 00 00 	0x00000061:00000000
	...
1000bfe4:	0e 02 00 00 00 00 00 00 	0x0000020e:00000000
	...
1000bff4:	28 01 00 00 00 00 00 00 	lw $0,0($0)+
1000bffc:	00 00 00 00 72 36 00 00 	nop 
1000c004:	6e 04 00 00 00 00 00 00 	0x0000046e:00000000
	...
1000c01c:	99 0f 00 00 00 00 00 00 	0x00000f99:00000000
1000c024:	00 00 00 00 82 02 00 00 	nop 
	...
1000c034:	ce 00 00 00 00 00 00 00 	dlw $0,($0+$0)
1000c03c:	eb 00 00 00 00 00 00 00 	0x000000eb:00000000
1000c044:	79 00 00 00 00 00 00 00 	abs.d $f0,$f0
	...
1000c084:	74 00 00 00 00 00 00 00 	mul.s $f0,$f0,$f0
	...
1000c0e0:	1b 00 00 00 00 00 00 00 	0x0000001b:00000000
	...
1000c0fc:	02 00 00 00 00 00 00 00 	jal 10000000 <$LC0>
	...
1000c110:	06 00 00 00 02 00 00 00 	bne $0,$0,1000c120 <freq_tab+0xaac0>
	...
1000c164:	18 00 00 00 63 00 00 00 	0x00000018:00000063
1000c16c:	5b 07 00 00 a9 01 00 00 	0x0000075b:000001a9
1000c174:	13 03 00 00 56 01 00 00 	0x00000313:00000156
1000c17c:	d2 00 00 00 00 00 00 00 	s.d $f0,($0+$0)
1000c184:	74 01 00 00 00 00 00 00 	0x00000174:00000000
1000c18c:	87 02 00 00 67 03 00 00 	0x00000287:00000367
1000c194:	0b 02 00 00 54 02 00 00 	0x0000020b:00000254
1000c19c:	35 00 00 00 3f 00 00 00 	dsw $0,63($0)
1000c1a4:	00 00 00 00 37 03 00 00 	nop 
1000c1ac:	6f 16 00 00 6c 02 00 00 	0x0000166f:0000026c
1000c1b4:	00 00 00 00 0f 00 00 00 	nop 
1000c1bc:	00 00 00 00 0b 00 00 00 	nop 
	...
1000c1d4:	08 00 00 00 00 00 00 00 	bgtz $0,1000c1dc <freq_tab+0xab7c>
	...
1000c1fc:	01 00 00 00 00 00 00 00 	j 10000000 <$LC0>
	...
1000c210:	16 00 00 00 01 00 00 00 	0x00000016:00000001
1000c218:	fe 01 00 00 00 00 00 00 	0x000001fe:00000000
1000c220:	70 01 00 00 00 00 00 00 	0x00000170:00000000
1000c228:	15 00 00 00 1f 00 00 00 	0x00000015:0000001f
1000c230:	06 00 00 00 00 00 00 00 	bne $0,$0,1000c238 <freq_tab+0xabd8>
	...
1000c284:	ec 01 00 00 8a 01 00 00 	0x000001ec:0000018a
	...
1000c2e0:	08 00 00 00 00 00 00 00 	bgtz $0,1000c2e8 <freq_tab+0xac88>
	...
1000c2fc:	02 00 00 00 00 00 00 00 	jal 10000000 <$LC0>
1000c304:	01 00 00 00 00 00 00 00 	j 10000000 <$LC0>
1000c30c:	00 00 00 00 10 00 00 00 	nop 
1000c314:	00 00 00 00 2a 00 00 00 	nop 
	...
1000c348:	05 00 00 00 00 00 00 00 	beq $0,$0,1000c350 <freq_tab+0xacf0>
	...
1000c364:	60 01 00 00 00 00 00 00 	0x00000160:00000000
	...
1000c374:	e1 01 00 00 00 00 00 00 	0x000001e1:00000000
	...
1000c384:	a7 06 00 00 00 00 00 00 	0x000006a7:00000000
	...
1000c39c:	0a 01 00 00 00 00 00 00 	0x0000010a:00000000
	...
1000c3b4:	06 00 00 00 00 00 00 00 	bne $0,$0,1000c3bc <freq_tab+0xad5c>
	...
1000c3c4:	15 00 00 00 00 00 00 00 	0x00000015:00000000
	...
1000c3e4:	9e 00 00 00 00 00 00 00 	0x0000009e:00000000
	...
1000c3f4:	f4 00 00 00 00 00 00 00 	0x000000f4:00000000
1000c3fc:	00 00 00 00 01 00 00 00 	nop 
1000c404:	8f 00 00 00 00 00 00 00 	0x0000008f:00000000
	...
1000c41c:	59 00 00 00 00 00 00 00 	sra $0,$0,0x0
	...
1000c434:	06 00 00 00 00 00 00 00 	bne $0,$0,1000c43c <freq_tab+0xaddc>
	...
1000c484:	1c 01 00 00 10 00 00 00 	0x0000011c:00000010
	...
1000c4e0:	07 00 00 00 00 00 00 00 	blez $0,1000c4e8 <freq_tab+0xae88>
	...
1000c4fc:	03 00 00 00 00 00 00 00 	jr $0
	...
1000c510:	1a 00 00 00 04 00 00 00 	0x0000001a:00000004
1000c518:	04 00 00 00 00 00 00 00 	jalr $0,$0
	...
1000c548:	01 00 00 00 00 00 00 00 	j 10000000 <$LC0>
	...
1000c564:	b3 02 00 00 27 00 00 00 	0x000002b3:00000027
1000c56c:	01 00 00 00 06 00 00 00 	j 10000018 <$LC0+0x18>
1000c574:	30 01 00 00 01 00 00 00 	sb $0,1($0)+
1000c57c:	01 00 00 00 20 00 00 00 	j 10000080 <$LC3+0x10>
1000c584:	16 02 00 00 00 00 00 00 	0x00000216:00000000
1000c58c:	01 00 00 00 09 00 00 00 	j 10000024 <$LC1>
1000c594:	01 00 00 00 0a 00 00 00 	j 10000028 <$LC1+0x4>
1000c59c:	be 00 00 00 00 00 00 00 	0x000000be:00000000
1000c5a4:	00 00 00 00 0c 00 00 00 	nop 
1000c5ac:	02 00 00 00 03 00 00 00 	jal 1000000c <$LC0+0xc>
	...
1000c5d4:	0b 00 00 00 00 00 00 00 	bc1f 1000c5dc <freq_tab+0xaf7c>
	...
1000c5e4:	97 02 00 00 00 00 00 00 	0x00000297:00000000
	...
1000c5f4:	73 07 00 00 00 00 00 00 	0x00000773:00000000
1000c5fc:	00 00 00 00 c9 1d 00 00 	nop 
1000c604:	93 08 00 00 00 00 00 00 	0x00000893:00000000
	...
1000c61c:	d5 01 00 00 00 00 00 00 	0x000001d5:00000000
1000c624:	00 00 00 00 3d 00 00 00 	nop 
	...
1000c644:	03 00 00 00 00 00 00 00 	jr $0
	...
1000c684:	79 00 00 00 01 00 00 00 	abs.d $f0,$f0
	...
1000c6e0:	05 00 00 00 00 00 00 00 	beq $0,$0,1000c6e8 <freq_tab+0xb088>
	...
1000c6fc:	01 00 00 00 00 00 00 00 	j 10000000 <$LC0>
	...
1000c710:	10 00 00 00 01 00 00 00 	0x00000010:00000001
1000c718:	1c 00 00 00 00 00 00 00 	0x0000001c:00000000
	...
1000c748:	03 00 00 00 00 00 00 00 	jr $0
	...
1000c764:	2a 00 00 00 00 00 00 00 	l.s $f0,0($0)
1000c76c:	0b 00 00 00 00 00 00 00 	bc1f 1000c774 <freq_tab+0xb114>
1000c774:	91 00 00 00 1e 00 00 00 	c.eq.d $f0,$f0
1000c77c:	00 00 00 00 02 00 00 00 	nop 
1000c784:	59 00 00 00 00 00 00 00 	sra $0,$0,0x0
1000c78c:	00 00 00 00 14 00 00 00 	nop 
	...
1000c79c:	01 00 00 00 0a 00 00 00 	j 10000028 <$LC1+0x4>
	...
1000c7ac:	01 00 00 00 1e 00 00 00 	j 10000078 <$LC3+0x8>
1000c7b4:	02 00 00 00 29 00 00 00 	jal 100000a4 <$LC7>
1000c7bc:	00 00 00 00 5c 00 00 00 	nop 
	...
1000c7d4:	08 00 00 00 00 00 00 00 	bgtz $0,1000c7dc <freq_tab+0xb17c>
	...
1000c7e4:	01 00 00 00 00 00 00 00 	j 10000000 <$LC0>
	...
1000c884:	58 06 00 00 0e 00 00 00 	0x00000658:0000000e
	...
1000c8e0:	ac 05 00 00 00 00 00 00 	0x000005ac:00000000
	...
1000c8fc:	0b 00 00 00 00 00 00 00 	bc1f 1000c904 <freq_tab+0xb2a4>
	...
1000c910:	72 00 00 00 13 00 00 00 	sub.s $f0,$f0,$f0
1000c918:	05 00 00 00 00 00 00 00 	beq $0,$0,1000c920 <freq_tab+0xb2c0>
	...
1000c948:	2c 00 00 00 02 00 00 00 	lwl $0,2($0)
	...
1000c964:	07 00 00 00 17 00 00 00 	blez $0,1000c9c8 <freq_tab+0xb368>
1000c96c:	54 00 00 00 00 00 00 00 	nor $0,$0,$0
1000c974:	63 00 00 00 00 00 00 00 	0x00000063:00000000
1000c97c:	01 00 00 00 00 00 00 00 	j 10000000 <$LC0>
1000c984:	01 00 00 00 00 00 00 00 	j 10000000 <$LC0>
1000c98c:	00 00 00 00 5b 00 00 00 	nop 
1000c994:	ad 00 00 00 1b 00 00 00 	0x000000ad:0000001b
1000c99c:	a0 01 00 00 01 00 00 00 	0x000001a0:00000001
1000c9a4:	00 00 00 00 0d 01 00 00 	nop 
1000c9ac:	d5 00 00 00 1c 00 00 00 	0x000000d5:0000001c
1000c9b4:	00 00 00 00 02 00 00 00 	nop 
1000c9bc:	02 00 00 00 00 00 00 00 	jal 10000000 <$LC0>
1000c9c4:	00 00 00 00 1b 00 00 00 	nop 
	...
1000c9d4:	84 00 00 00 00 00 00 00 	cvt.w.s $f0,$f0
	...
1000c9e4:	02 00 00 00 00 00 00 00 	jal 10000000 <$LC0>
	...
1000c9f4:	ef 02 00 00 00 00 00 00 	0x000002ef:00000000
	...
1000ca04:	15 00 00 00 00 00 00 00 	0x00000015:00000000
	...
1000ca1c:	f3 09 00 00 00 00 00 00 	0x000009f3:00000000
	...
1000ca84:	31 00 00 00 00 00 00 00 	0x00000031:00000000
	...
1000cae0:	0b 00 00 00 00 00 00 00 	bc1f 1000cae8 <freq_tab+0xb488>
	...
1000cb10:	08 00 00 00 00 00 00 00 	bgtz $0,1000cb18 <freq_tab+0xb4b8>
	...
1000cb48:	01 00 00 00 00 00 00 00 	j 10000000 <$LC0>
	...
1000cb64:	d8 00 00 00 00 00 00 00 	0x000000d8:00000000
	...
1000cb74:	42 00 00 00 00 00 00 00 	addu $0,$0,$0
	...
1000cb84:	01 00 00 00 00 00 00 00 	j 10000000 <$LC0>
	...
1000cb9c:	3a 00 00 00 00 00 00 00 	swr $0,0($0)
	...
1000cbbc:	09 00 00 00 00 00 00 00 	bltz $0,1000cbc4 <freq_tab+0xb564>
	...
1000cbd4:	01 00 00 00 00 00 00 00 	j 10000000 <$LC0>
	...
1000cbf4:	02 00 00 00 00 00 00 00 	jal 10000000 <$LC0>
	...
1000cc1c:	12 00 00 00 00 00 00 00 	0x00000012:00000000
	...
1000cc84:	01 00 00 00 00 00 00 00 	j 10000000 <$LC0>
	...
1000cce0:	0c 00 00 00 00 00 00 00 	bc1t 1000cce8 <freq_tab+0xb688>
	...
1000cd64:	1f 02 00 00 25 00 00 00 	0x0000021f:00000025
1000cd6c:	27 00 00 00 61 00 00 00 	0x00000027:00000061
1000cd74:	ba 0e 00 00 67 00 00 00 	0x00000eba:00000067
1000cd7c:	30 00 00 00 5a 00 00 00 	sb $0,90($0)
1000cd84:	05 00 00 00 04 00 00 00 	beq $0,$0,1000cd9c <freq_tab+0xb73c>
1000cd8c:	58 00 00 00 26 00 00 00 	srlv $0,$0,$0
1000cd94:	38 00 00 00 08 00 00 00 	dsz 8($0)
1000cd9c:	0d 00 00 00 2f 00 00 00 	0x0000000d:0000002f
1000cda4:	03 00 00 00 b9 01 00 00 	jr $0
1000cdac:	d0 00 00 00 e5 01 00 00 	dsw $0,($0+$1)
1000cdb4:	0a 00 00 00 01 00 00 00 	bgez $0,1000cdc0 <freq_tab+0xb760>
1000cdbc:	72 00 00 00 00 00 00 00 	sub.s $f0,$f0,$f0
	...
1000cde8:	01 00 00 00 00 00 00 00 	j 10000000 <$LC0>
1000cdf0:	01 00 00 00 00 00 00 00 	j 10000000 <$LC0>
	...
1000ce20:	02 00 00 00 00 00 00 00 	jal 10000000 <$LC0>
	...
1000cee8:	02 00 00 00 00 00 00 00 	jal 10000000 <$LC0>
	...
1000cf14:	02 00 00 00 00 00 00 00 	jal 10000000 <$LC0>
	...
1000d084:	11 00 00 00 3c 16 00 00 	0x00000011:0000163c
	...
1000d0e0:	25 02 00 00 00 00 00 00 	0x00000225:00000000
	...
1000d56c:	03 00 00 00 00 00 00 00 	jr $0
	...
1000d5b0:	02 00 00 00 00 00 00 00 	jal 10000000 <$LC0>
	...
1000d888:	37 02 00 00 00 00 00 00 	s.d $f0,0($0)-
	...
1000d8e0:	c4 36 00 00 ee 00 00 00 	0x000036c4:000000ee
	...
1000d8f0:	01 00 00 00 00 00 00 00 	j 10000000 <$LC0>
1000d8f8:	00 00 00 00 63 01 00 00 	nop 
	...
1000d910:	0a 03 00 00 bb 00 00 00 	0x0000030a:000000bb
1000d918:	19 01 00 00 00 00 00 00 	0x00000119:00000000
	...
1000d948:	55 00 00 00 66 00 00 00 	sll $0,$0,0x66
	...
1000d95c:	5e 00 00 00 00 00 00 00 	sltiu $0,$0,0
	...
1000d9d4:	05 00 00 00 00 00 00 00 	beq $0,$0,1000d9dc <freq_tab+0xc37c>
	...
1000d9e4:	01 00 00 00 2a 0b 00 00 	j 10002ca8 <freq_tab+0x1648>
1000d9ec:	ef 1d 00 00 c5 26 00 00 	0x00001def:000026c5
1000d9f4:	22 02 00 00 cc 06 00 00 	lbu $0,1740($0)-
1000d9fc:	47 11 00 00 c7 00 00 00 	0x00001147:000000c7
1000da04:	83 2c 00 00 31 01 00 00 	0x00002c83:00000131
1000da0c:	ac 1b 00 00 ba 4d 00 00 	0x00001bac:00004dba
1000da14:	cf 20 00 00 74 c5 00 00 	0x000020cf:0000c574
1000da1c:	51 00 00 00 46 0d 00 00 	ori $0,$0,3398
1000da24:	23 00 00 00 d3 78 00 00 	0x00000023:000078d3
1000da2c:	89 48 00 00 d9 90 00 00 	0x00004889:000090d9
1000da34:	8e 0d 00 00 62 2b 00 00 	0x00000d8e:00002b62
1000da3c:	9c 0a 00 00 c2 00 00 00 	0x00000a9c:000000c2
1000da44:	20 2b 00 00 68 01 00 00 	0x00002b20:00000168
	...
1000da88:	2e 00 00 00 00 00 00 00 	0x0000002e:00000000
	...
1000dae0:	2a 01 00 00 0c 00 00 00 	l.s $f0,12($0)+
	...
1000dafc:	56 00 00 00 00 00 00 00 	sllv $0,$0,$0
	...
1000db10:	68 00 00 00 14 00 00 00 	0x00000068:00000014
1000db18:	28 00 00 00 00 00 00 00 	lw $0,0($0)
	...
1000db48:	11 00 00 00 12 00 00 00 	0x00000011:00000012
	...
1000db5c:	11 00 00 00 00 00 00 00 	0x00000011:00000000
	...
1000dbd4:	05 00 00 00 00 00 00 00 	beq $0,$0,1000dbdc <freq_tab+0xc57c>
	...
1000dbe4:	bc 0d 00 00 77 01 00 00 	0x00000dbc:00000177
1000dbec:	00 00 00 00 32 00 00 00 	nop 
1000dbf4:	87 44 00 00 00 00 00 00 	0x00004487:00000000
1000dbfc:	03 00 00 00 3c 00 00 00 	jr $0
1000dc04:	c1 06 00 00 12 01 00 00 	0x000006c1:00000112
1000dc0c:	02 00 00 00 c4 16 00 00 	jal 10005b10 <freq_tab+0x44b0>
1000dc14:	1e 00 00 00 07 00 00 00 	0x0000001e:00000007
1000dc1c:	81 13 00 00 00 00 00 00 	0x00001381:00000000
1000dc24:	00 00 00 00 29 12 00 00 	nop 
1000dc2c:	76 02 00 00 ba 01 00 00 	0x00000276:000001ba
1000dc34:	0e 17 00 00 03 00 00 00 	0x0000170e:00000003
1000dc3c:	08 00 00 00 00 00 00 00 	bgtz $0,1000dc44 <freq_tab+0xc5e4>
1000dc44:	7f 0d 00 00 00 00 00 00 	0x00000d7f:00000000
	...
1000dc88:	16 00 00 00 00 00 00 00 	0x00000016:00000000
	...
1000dce0:	69 01 00 00 0d 00 00 00 	0x00000169:0000000d
	...
1000dcfc:	05 00 00 00 00 00 00 00 	beq $0,$0,1000dd04 <freq_tab+0xc6a4>
	...
1000dd10:	51 00 00 00 03 00 00 00 	ori $0,$0,3
1000dd18:	5d 00 00 00 00 00 00 00 	sltu $0,$0,$0
	...
1000dd48:	0e 00 00 00 10 00 00 00 	0x0000000e:00000010
	...
1000dd5c:	0c 00 00 00 00 00 00 00 	bc1t 1000dd64 <freq_tab+0xc704>
	...
1000ddd4:	2a 00 00 00 00 00 00 00 	l.s $f0,0($0)
	...
1000dde4:	ef 1d 00 00 32 00 00 00 	0x00001def:00000032
1000ddec:	26 03 00 00 17 00 00 00 	lhu $0,23($0)^+
1000ddf4:	74 3b 00 00 00 00 00 00 	0x00003b74:00000000
1000ddfc:	00 00 00 00 d4 38 00 00 	nop 
1000de04:	df 09 00 00 00 00 00 00 	0x000009df:00000000
1000de0c:	46 12 00 00 34 08 00 00 	0x00001246:00000834
1000de14:	06 00 00 00 00 00 00 00 	bne $0,$0,1000de1c <freq_tab+0xc7bc>
1000de1c:	63 39 00 00 00 00 00 00 	0x00003963:00000000
1000de24:	84 00 00 00 f1 0a 00 00 	cvt.w.s $f10,$f0
1000de2c:	2e 00 00 00 e6 0d 00 00 	0x0000002e:00000de6
1000de34:	2f 09 00 00 00 00 00 00 	0x0000092f:00000000
	...
1000de44:	73 02 00 00 00 00 00 00 	0x00000273:00000000
	...
1000de84:	b3 01 00 00 ea 0e 00 00 	0x000001b3:00000eea
	...
1000dee0:	4b ff 00 00 45 03 00 00 	0x0000ff4b:00000345
	...
1000defc:	ea 02 00 00 00 00 00 00 	0x000002ea:00000000
	...
1000df10:	1c 22 00 00 a9 01 00 00 	0x0000221c:000001a9
1000df18:	f7 0d 00 00 00 00 00 00 	0x00000df7:00000000
	...
1000df48:	87 05 00 00 08 07 00 00 	0x00000587:00000708
	...
1000df5c:	b6 03 00 00 00 00 00 00 	0x000003b6:00000000
	...
1000dfd4:	cd 00 00 00 00 00 00 00 	0x000000cd:00000000
	...
1000dfe4:	59 12 00 00 0a 00 00 00 	0x00001259:0000000a
1000dfec:	19 00 00 00 3e 03 00 00 	0x00000019:0000033e
1000dff4:	f9 3d 00 00 b5 00 00 00 	0x00003df9:000000b5
1000dffc:	0d 03 00 00 15 00 00 00 	0x0000030d:00000015
1000e004:	62 22 00 00 14 00 00 00 	0x00002262:00000014
1000e00c:	2c 00 00 00 62 04 00 00 	lwl $0,1122($0)
1000e014:	34 01 00 00 a5 01 00 00 	sw $0,421($0)+
1000e01c:	34 26 00 00 0f 00 00 00 	0x00002634:0000000f
1000e024:	00 00 00 00 1b 0a 00 00 	nop 
1000e02c:	26 18 00 00 10 00 00 00 	0x00001826:00000010
1000e034:	54 06 00 00 bc 01 00 00 	0x00000654:000001bc
1000e03c:	51 01 00 00 00 00 00 00 	0x00000151:00000000
1000e044:	ce 08 00 00 00 00 00 00 	0x000008ce:00000000
	...
1000e084:	29 01 00 00 66 1c 00 00 	dlw $0,7270($0)+
	...
1000e0e0:	61 e9 01 00 04 07 00 00 	0x0001e961:00000704
1000e0e8:	00 00 00 00 01 00 00 00 	nop 
	...
1000e0fc:	83 0c 00 00 00 00 00 00 	0x00000c83:00000000
	...
1000e110:	83 42 00 00 d8 04 00 00 	0x00004283:000004d8
1000e118:	ea 1e 00 00 00 00 00 00 	0x00001eea:00000000
	...
1000e148:	b6 0b 00 00 a0 0d 00 00 	0x00000bb6:00000da0
	...
1000e15c:	d3 08 00 00 00 00 00 00 	0x000008d3:00000000
	...
1000e1d4:	ca 01 00 00 00 00 00 00 	0x000001ca:00000000
	...
1000e1e4:	2f 70 00 00 45 02 00 00 	0x0000702f:00000245
1000e1ec:	12 17 00 00 f6 43 00 00 	0x00001712:000043f6
1000e1f4:	34 44 00 00 ac 0f 00 00 	0x00004434:00000fac
1000e1fc:	ac 06 00 00 d7 02 00 00 	0x000006ac:000002d7
1000e204:	74 16 00 00 3d 00 00 00 	0x00001674:0000003d
1000e20c:	bd 02 00 00 9f 3e 00 00 	0x000002bd:00003e9f
1000e214:	ed 1e 00 00 27 86 00 00 	0x00001eed:00008627
1000e21c:	42 04 00 00 31 0f 00 00 	0x00000442:00000f31
1000e224:	d6 01 00 00 c3 e0 00 00 	0x000001d6:0000e0c3
1000e22c:	11 7b 00 00 ac 38 00 00 	0x00007b11:000038ac
1000e234:	1a 06 00 00 c8 14 00 00 	0x0000061a:000014c8
1000e23c:	77 0a 00 00 33 07 00 00 	0x00000a77:00000733
1000e244:	8f 14 00 00 55 00 00 00 	0x0000148f:00000055
	...
1000e284:	0b 00 00 00 2f 03 00 00 	bc1f 1000ef48 <freq_tab+0xd8e8>
	...
1000e2e0:	3f 59 00 00 58 00 00 00 	0x0000593f:00000058
	...
1000e2fc:	55 00 00 00 00 00 00 00 	sll $0,$0,0x0
	...
1000e310:	60 03 00 00 cd 00 00 00 	0x00000360:000000cd
1000e318:	d8 01 00 00 00 00 00 00 	0x000001d8:00000000
	...
1000e348:	ba 00 00 00 de 00 00 00 	0x000000ba:000000de
	...
1000e35c:	7d 00 00 00 00 00 00 00 	neg.d $f0,$f0
	...
1000e3d4:	26 00 00 00 00 00 00 00 	lhu $0,0($0)
	...
1000e3e4:	db 1a 00 00 00 00 00 00 	0x00001adb:00000000
	...
1000e3f4:	fd 1a 00 00 18 0c 00 00 	0x00001afd:00000c18
	...
1000e404:	13 13 00 00 00 00 00 00 	0x00001313:00000000
1000e40c:	00 00 00 00 10 07 00 00 	nop 
1000e414:	00 00 00 00 05 00 00 00 	nop 
1000e41c:	5e 39 00 00 07 00 00 00 	0x0000395e:00000007
1000e424:	00 00 00 00 06 13 00 00 	nop 
1000e42c:	96 00 00 00 e5 07 00 00 	sqrt.s $f7,$f0
1000e434:	9b 09 00 00 00 00 00 00 	0x0000099b:00000000
1000e43c:	01 00 00 00 00 00 00 00 	j 10000000 <$LC0>
1000e444:	ba 00 00 00 00 00 00 00 	0x000000ba:00000000
	...
1000e484:	04 00 00 00 ea 02 00 00 	jalr $2,$0
	...
1000e4e0:	9b 2d 00 00 b3 00 00 00 	0x00002d9b:000000b3
	...
1000e4fc:	68 01 00 00 00 00 00 00 	0x00000168:00000000
	...
1000e510:	cf 06 00 00 15 01 00 00 	0x000006cf:00000115
1000e518:	b0 03 00 00 00 00 00 00 	0x000003b0:00000000
	...
1000e548:	76 01 00 00 c0 01 00 00 	0x00000176:000001c0
	...
1000e55c:	fe 00 00 00 00 00 00 00 	0x000000fe:00000000
	...
1000e5d4:	b7 00 00 00 00 00 00 00 	0x000000b7:00000000
	...
1000e5e4:	6c 0e 00 00 56 00 00 00 	0x00000e6c:00000056
1000e5ec:	00 00 00 00 86 00 00 00 	nop 
1000e5f4:	ec 22 00 00 0c 00 00 00 	0x000022ec:0000000c
1000e5fc:	2d 02 00 00 80 25 00 00 	0x0000022d:00002580
1000e604:	d4 0b 00 00 00 00 00 00 	0x00000bd4:00000000
1000e60c:	00 00 00 00 03 07 00 00 	nop 
1000e614:	0f 01 00 00 4d 04 00 00 	0x0000010f:0000044d
1000e61c:	6a 19 00 00 05 00 00 00 	0x0000196a:00000005
1000e624:	00 00 00 00 4c 13 00 00 	nop 
1000e62c:	73 06 00 00 dd 00 00 00 	0x00000673:000000dd
1000e634:	48 08 00 00 00 00 00 00 	0x00000848:00000000
1000e63c:	03 00 00 00 00 00 00 00 	jr $0
1000e644:	73 00 00 00 00 00 00 00 	sub.d $f0,$f0,$f0
	...
1000e684:	4e 00 00 00 a7 04 00 00 	and $4,$0,$0
	...
1000e6e0:	89 5c 00 00 24 01 00 00 	0x00005c89:00000124
	...
1000e6fc:	50 03 00 00 00 00 00 00 	0x00000350:00000000
	...
1000e710:	40 0b 00 00 e6 00 00 00 	0x00000b40:000000e6
1000e718:	99 04 00 00 00 00 00 00 	0x00000499:00000000
	...
1000e748:	99 01 00 00 e5 01 00 00 	0x00000199:000001e5
	...
1000e75c:	e9 00 00 00 00 00 00 00 	0x000000e9:00000000
	...
1000e7d4:	36 00 00 00 00 00 00 00 	s.s $f0,0($0)
	...
1000e7e4:	e0 a5 00 00 8e 00 00 00 	0x0000a5e0:0000008e
1000e7ec:	17 00 00 00 30 00 00 00 	0x00000017:00000030
1000e7f4:	67 47 01 00 9a 00 00 00 	0x00014767:0000009a
1000e7fc:	00 00 00 00 12 00 00 00 	nop 
1000e804:	bb 7f 00 00 00 00 00 00 	0x00007fbb:00000000
1000e80c:	00 00 00 00 d8 00 00 00 	nop 
1000e814:	41 01 00 00 02 02 00 00 	0x00000141:00000202
1000e81c:	16 5b 00 00 03 00 00 00 	0x00005b16:00000003
1000e824:	08 00 00 00 a6 08 00 00 	bgtz $0,10010ac4 <freq_tab+0xf464>
1000e82c:	76 02 00 00 0c 1a 00 00 	0x00000276:00001a0c
1000e834:	f0 0a 00 00 03 00 00 00 	0x00000af0:00000003
1000e83c:	49 00 00 00 00 00 00 00 	divu $0,$0,$0
1000e844:	07 1a 00 00 00 00 00 00 	0x00001a07:00000000
	...
1000e884:	04 00 00 00 0a 00 00 00 	jalr $0,$0
	...
1000e8e0:	39 00 00 00 04 00 00 00 	swl $0,4($0)
	...
1000e8fc:	5d 01 00 00 00 00 00 00 	0x0000015d:00000000
	...
1000e910:	27 00 00 00 10 00 00 00 	0x00000027:00000010
1000e918:	11 00 00 00 00 00 00 00 	0x00000011:00000000
	...
1000e948:	04 00 00 00 04 00 00 00 	jalr $0,$0
	...
1000e95c:	01 00 00 00 00 00 00 00 	j 10000000 <$LC0>
	...
1000e9d4:	02 00 00 00 00 00 00 00 	jal 10000000 <$LC0>
	...
1000e9e4:	ab 0a 00 00 4e 03 00 00 	0x00000aab:0000034e
1000e9ec:	3c 22 00 00 72 1b 00 00 	0x0000223c:00001b72
1000e9f4:	9e 28 00 00 b0 13 00 00 	0x0000289e:000013b0
1000e9fc:	dd 1b 00 00 19 00 00 00 	0x00001bdd:00000019
1000ea04:	11 00 00 00 00 00 00 00 	0x00000011:00000000
1000ea0c:	3e 0a 00 00 34 3a 00 00 	0x00000a3e:00003a34
1000ea14:	74 26 00 00 90 c6 00 00 	0x00002674:0000c690
1000ea1c:	6e 1c 00 00 61 06 00 00 	0x00001c6e:00000661
1000ea24:	5f 00 00 00 1d 31 00 00 	0x0000005f:0000311d
1000ea2c:	bb 89 00 00 b9 72 00 00 	0x000089bb:000072b9
1000ea34:	73 03 00 00 e9 15 00 00 	0x00000373:000015e9
1000ea3c:	0b 00 00 00 98 01 00 00 	bc1f 1000f0a4 <freq_tab+0xda44>
1000ea44:	00 00 00 00 61 02 00 00 	nop 
	...
1000eafc:	04 00 00 00 00 00 00 00 	jalr $0,$0
	...
1000eb18:	01 00 00 00 00 00 00 00 	j 10000000 <$LC0>
	...
1000ebe4:	dc 00 00 00 00 00 00 00 	0x000000dc:00000000
	...
1000ebf4:	f2 03 00 00 00 00 00 00 	0x000003f2:00000000
	...
1000ec04:	0d 00 00 00 00 00 00 00 	0x0000000d:00000000
	...
1000ec1c:	ed 02 00 00 00 00 00 00 	0x000002ed:00000000
	...
1000ec34:	be 03 00 00 00 00 00 00 	0x000003be:00000000
	...
1000ec84:	03 00 00 00 e9 01 00 00 	jr $0
	...
1000ece0:	2f 19 00 00 ce 00 00 00 	0x0000192f:000000ce
	...
1000ecfc:	a6 02 00 00 00 00 00 00 	0x000002a6:00000000
	...
1000ed10:	9d 06 00 00 9c 00 00 00 	0x0000069d:0000009c
1000ed18:	47 02 00 00 00 00 00 00 	0x00000247:00000000
	...
1000ed48:	f0 00 00 00 fe 00 00 00 	0x000000f0:000000fe
	...
1000ed5c:	a3 00 00 00 00 00 00 00 	mfc1 $0,$f0
	...
1000edd4:	14 00 00 00 00 00 00 00 	0x00000014:00000000
	...
1000ede4:	2d 00 00 00 0b 00 00 00 	lwr $0,11($0)
1000edec:	03 00 00 00 01 00 00 00 	jr $0
1000edf4:	13 29 00 00 3d 00 00 00 	0x00002913:0000003d
1000edfc:	01 00 00 00 06 00 00 00 	j 10000018 <$LC0+0x18>
1000ee04:	cd 10 00 00 00 00 00 00 	0x000010cd:00000000
1000ee0c:	00 00 00 00 95 01 00 00 	nop 
1000ee14:	12 00 00 00 2b 0e 00 00 	0x00000012:00000e2b
1000ee1c:	83 00 00 00 01 00 00 00 	cvt.d.w $f0,$f0
1000ee24:	00 00 00 00 1a 00 00 00 	nop 
1000ee2c:	f4 06 00 00 03 00 00 00 	0x000006f4:00000003
1000ee34:	15 00 00 00 00 00 00 00 	0x00000015:00000000
1000ee3c:	21 00 00 00 00 00 00 00 	0x00000021:00000000
1000ee44:	71 00 00 00 00 00 00 00 	add.d $f0,$f0,$f0
	...
1000ee84:	8c 00 00 00 77 04 00 00 	0x0000008c:00000477
	...
1000eee0:	c1 5f 00 00 7d 01 00 00 	0x00005fc1:0000017d
	...
1000eefc:	16 04 00 00 00 00 00 00 	0x00000416:00000000
	...
1000ef10:	f3 0b 00 00 98 01 00 00 	0x00000bf3:00000198
1000ef18:	c1 05 00 00 00 00 00 00 	0x000005c1:00000000
	...
1000ef48:	2c 02 00 00 ab 02 00 00 	0x0000022c:000002ab
	...
1000ef5c:	12 01 00 00 00 00 00 00 	0x00000112:00000000
1000ef64:	01 00 00 00 00 00 00 00 	j 10000000 <$LC0>
	...
1000efd4:	27 00 00 00 00 00 00 00 	0x00000027:00000000
	...
1000efe4:	1b 2a 00 00 d8 00 00 00 	0x00002a1b:000000d8
1000efec:	3d 02 00 00 8a 2b 00 00 	0x0000023d:00002b8a
1000eff4:	34 53 00 00 94 0a 00 00 	0x00005334:00000a94
1000effc:	4f 00 00 00 04 00 00 00 	andi $0,$0,4
1000f004:	f1 31 00 00 00 00 00 00 	0x000031f1:00000000
1000f00c:	28 03 00 00 3e 76 00 00 	lw $0,30270($0)^+
1000f014:	07 02 00 00 4a 00 00 00 	0x00000207:0000004a
1000f01c:	35 3f 00 00 29 02 00 00 	0x00003f35:00000229
1000f024:	01 00 00 00 a5 00 00 00 	j 10000294 <$L102+0xc>
1000f02c:	b6 0b 00 00 ee 09 00 00 	0x00000bb6:000009ee
1000f034:	81 06 00 00 55 03 00 00 	0x00000681:00000355
1000f03c:	53 00 00 00 00 00 00 00 	xori $0,$0,0
1000f044:	1a 19 00 00 04 00 00 00 	0x0000191a:00000004
	...
1000f084:	07 00 00 00 7c 02 00 00 	blez $0,1000fa7c <freq_tab+0xe41c>
	...
1000f0e0:	25 2d 00 00 ea 00 00 00 	0x00002d25:000000ea
	...
1000f0fc:	d6 01 00 00 00 00 00 00 	0x000001d6:00000000
1000f104:	01 00 00 00 00 00 00 00 	j 10000000 <$LC0>
1000f10c:	00 00 00 00 46 08 00 00 	nop 
1000f114:	3c 00 00 00 20 05 00 00 	0x0000003c:00000520
	...
1000f148:	f3 01 00 00 09 02 00 00 	0x000001f3:00000209
	...
1000f15c:	3e 01 00 00 00 00 00 00 	0x0000013e:00000000
	...
1000f1d4:	5e 00 00 00 00 00 00 00 	sltiu $0,$0,0
	...
1000f1e4:	77 3c 00 00 e5 08 00 00 	0x00003c77:000008e5
1000f1ec:	01 00 00 00 00 00 00 00 	j 10000000 <$LC0>
1000f1f4:	00 6b 00 00 39 01 00 00 	0x00006b00:00000139
1000f1fc:	01 00 00 00 01 00 00 00 	j 10000004 <$LC0+0x4>
1000f204:	fe 18 00 00 00 00 00 00 	0x000018fe:00000000
1000f20c:	00 00 00 00 8c 00 00 00 	nop 
1000f214:	60 05 00 00 a7 01 00 00 	0x00000560:000001a7
1000f21c:	80 22 00 00 39 0d 00 00 	0x00002280:00000d39
1000f224:	00 00 00 00 0c 00 00 00 	nop 
1000f22c:	33 07 00 00 12 00 00 00 	0x00000733:00000012
1000f234:	d5 0d 00 00 07 00 00 00 	0x00000dd5:00000007
1000f23c:	1a 00 00 00 00 00 00 00 	0x0000001a:00000000
1000f244:	cd 2f 00 00 00 00 00 00 	0x00002fcd:00000000
	...
1000f284:	65 04 00 00 f1 09 00 00 	0x00000465:000009f1
	...
1000f2e0:	cf a2 00 00 ff 02 00 00 	0x0000a2cf:000002ff
	...
1000f2fc:	d5 08 00 00 00 00 00 00 	0x000008d5:00000000
1000f304:	01 00 00 00 00 00 00 00 	j 10000000 <$LC0>
1000f30c:	00 00 00 00 b3 17 00 00 	nop 
1000f314:	61 01 00 00 83 0b 00 00 	0x00000161:00000b83
	...
1000f348:	b4 04 00 00 05 05 00 00 	0x000004b4:00000505
	...
1000f35c:	3f 03 00 00 00 00 00 00 	0x0000033f:00000000
	...
1000f3d4:	6f 01 00 00 00 00 00 00 	0x0000016f:00000000
	...
1000f3e4:	f6 0f 00 00 8a 00 00 00 	0x00000ff6:0000008a
1000f3ec:	b6 22 00 00 ed af 00 00 	0x000022b6:0000afed
1000f3f4:	7b 47 00 00 1a 05 00 00 	0x0000477b:0000051a
1000f3fc:	5b 5b 00 00 f7 00 00 00 	0x00005b5b:000000f7
1000f404:	84 14 00 00 43 01 00 00 	0x00001484:00000143
1000f40c:	1e 0c 00 00 b3 03 00 00 	0x00000c1e:000003b3
1000f414:	f9 00 00 00 f0 07 00 00 	0x000000f9:000007f0
1000f41c:	1d 5b 00 00 71 00 00 00 	0x00005b1d:00000071
1000f424:	20 01 00 00 97 01 00 00 	lb $0,407($0)+
1000f42c:	2f 1f 00 00 de 50 00 00 	0x00001f2f:000050de
1000f434:	3d 03 00 00 3c 02 00 00 	0x0000033d:0000023c
1000f43c:	ee 00 00 00 05 00 00 00 	0x000000ee:00000005
1000f444:	c6 09 00 00 39 00 00 00 	0x000009c6:00000039
	...
1000f488:	7b 03 00 00 00 00 00 00 	0x0000037b:00000000
	...
1000f4e0:	af 8d 00 00 84 01 00 00 	0x00008daf:00000184
	...
1000f4fc:	14 05 00 00 00 00 00 00 	0x00000514:00000000
	...
1000f510:	50 0b 00 00 70 02 00 00 	0x00000b50:00000270
1000f518:	0b 04 00 00 00 00 00 00 	0x0000040b:00000000
	...
1000f548:	94 01 00 00 12 02 00 00 	0x00000194:00000212
	...
1000f55c:	bb 01 00 00 00 00 00 00 	0x000001bb:00000000
	...
1000f578:	01 00 00 00 00 00 00 00 	j 10000000 <$LC0>
	...
1000f5d4:	0b 00 00 00 00 00 00 00 	bc1f 1000f5dc <freq_tab+0xdf7c>
	...
1000f5e4:	59 06 00 00 21 07 00 00 	0x00000659:00000721
1000f5ec:	42 07 00 00 83 1c 00 00 	0x00000742:00001c83
1000f5f4:	51 05 00 00 84 4a 00 00 	0x00000551:00004a84
1000f5fc:	87 03 00 00 63 01 00 00 	0x00000387:00000163
1000f604:	13 08 00 00 4f 00 00 00 	0x00000813:0000004f
1000f60c:	8a 0a 00 00 56 20 00 00 	0x00000a8a:00002056
1000f614:	9f 3d 00 00 7c 78 00 00 	0x00003d9f:0000787c
1000f61c:	22 30 00 00 8b 0a 00 00 	0x00003022:00000a8b
1000f624:	17 00 00 00 d8 93 00 00 	0x00000017:000093d8
1000f62c:	19 1d 00 00 44 48 00 00 	0x00001d19:00004844
1000f634:	29 dd 00 00 df 16 00 00 	0x0000dd29:000016df
1000f63c:	19 45 00 00 a0 00 00 00 	0x00004519:000000a0
1000f644:	88 06 00 00 8b 00 00 00 	0x00000688:0000008b
	...
1000f688:	12 01 00 00 00 00 00 00 	0x00000112:00000000
	...
1000f6e0:	e6 0b 00 00 4f 00 00 00 	0x00000be6:0000004f
	...
1000f6fc:	4a 01 00 00 00 00 00 00 	0x0000014a:00000000
	...
1000f710:	5e 02 00 00 5d 00 00 00 	0x0000025e:0000005d
1000f718:	54 01 00 00 06 00 00 00 	0x00000154:00000006
	...
1000f748:	86 00 00 00 87 00 00 00 	0x00000086:00000087
	...
1000f75c:	51 00 00 00 00 00 00 00 	ori $0,$0,0
	...
1000f7d4:	0a 00 00 00 00 00 00 00 	bgez $0,1000f7dc <freq_tab+0xe17c>
	...
1000f7e4:	a6 17 00 00 1a 00 00 00 	0x000017a6:0000001a
1000f7ec:	04 00 00 00 05 00 00 00 	jalr $0,$0
1000f7f4:	b0 23 00 00 0e 00 00 00 	0x000023b0:0000000e
1000f7fc:	00 00 00 00 6b 04 00 00 	nop 
1000f804:	76 0c 00 00 00 00 00 00 	0x00000c76:00000000
1000f80c:	18 00 00 00 de 10 00 00 	0x00000018:000010de
1000f814:	0b 00 00 00 03 00 00 00 	bc1f 1000f828 <freq_tab+0xe1c8>
1000f81c:	ea 19 00 00 98 08 00 00 	0x000019ea:00000898
1000f824:	00 00 00 00 65 1e 00 00 	nop 
1000f82c:	e7 03 00 00 10 06 00 00 	0x000003e7:00000610
1000f834:	07 08 00 00 00 00 00 00 	0x00000807:00000000
1000f83c:	1d 00 00 00 00 00 00 00 	0x0000001d:00000000
1000f844:	63 01 00 00 00 00 00 00 	0x00000163:00000000
	...
1000fa34:	c3 0b 00 00 00 00 00 00 	0x00000bc3:00000000
	...
1000fa84:	74 03 00 00 02 09 00 00 	0x00000374:00000902
	...
1000fae0:	40 c0 00 00 94 02 00 00 	0x0000c040:00000294
	...
1000fafc:	de 09 00 00 00 00 00 00 	0x000009de:00000000
1000fb04:	02 00 00 00 00 00 00 00 	jal 10000000 <$LC0>
1000fb0c:	00 00 00 00 bb 1a 00 00 	nop 
1000fb14:	2f 02 00 00 96 0b 00 00 	0x0000022f:00000b96
1000fb1c:	02 00 00 00 00 00 00 00 	jal 10000000 <$LC0>
	...
1000fb48:	28 05 00 00 5d 05 00 00 	0x00000528:0000055d
	...
1000fb5c:	89 03 00 00 00 00 00 00 	0x00000389:00000000
	...
1000fbd4:	07 01 00 00 00 00 00 00 	0x00000107:00000000
	...
1000fbe4:	2f 32 00 00 57 02 00 00 	0x0000322f:00000257
1000fbec:	49 09 00 00 4a 2a 00 00 	0x00000949:00002a4a
1000fbf4:	31 af 00 00 44 03 00 00 	0x0000af31:00000344
1000fbfc:	6b 06 00 00 c9 00 00 00 	0x0000066b:000000c9
1000fc04:	cd 37 00 00 44 00 00 00 	0x000037cd:00000044
1000fc0c:	77 06 00 00 38 08 00 00 	0x00000677:00000838
1000fc14:	6f 0a 00 00 bc 0e 00 00 	0x00000a6f:00000ebc
1000fc1c:	a2 3e 00 00 85 03 00 00 	0x00003ea2:00000385
1000fc24:	43 00 00 00 73 0f 00 00 	addiu $0,$0,3955
1000fc2c:	c3 2e 00 00 13 2b 00 00 	0x00002ec3:00002b13
1000fc34:	2b 12 00 00 d1 07 00 00 	0x0000122b:000007d1
1000fc3c:	ca 01 00 00 00 00 00 00 	0x000001ca:00000000
1000fc44:	58 15 00 00 03 00 00 00 	0x00001558:00000003
	...
1000fc84:	8d 00 00 00 6d 11 00 00 	0x0000008d:0000116d
	...
1000fce0:	d0 14 01 00 f0 04 00 00 	0x000114d0:000004f0
	...
1000fcfc:	ad 04 00 00 00 00 00 00 	0x000004ad:00000000
1000fd04:	02 00 00 00 00 00 00 00 	jal 10000000 <$LC0>
1000fd0c:	00 00 00 00 d8 2d 00 00 	nop 
1000fd14:	01 01 00 00 f3 11 00 00 	0x00000101:000011f3
	...
1000fd48:	ce 07 00 00 e4 08 00 00 	0x000007ce:000008e4
	...
1000fd5c:	f8 04 00 00 00 00 00 00 	0x000004f8:00000000
	...
1000fdd4:	8b 03 00 00 00 00 00 00 	0x0000038b:00000000
	...
1000fde4:	55 1a 00 00 4b 02 00 00 	0x00001a55:0000024b
1000fdec:	79 09 00 00 2c 01 00 00 	0x00000979:0000012c
1000fdf4:	58 63 00 00 c7 00 00 00 	0x00006358:000000c7
1000fdfc:	ba 00 00 00 7f 3a 00 00 	0x000000ba:00003a7f
1000fe04:	97 27 00 00 09 00 00 00 	0x00002797:00000009
1000fe0c:	d5 02 00 00 f8 06 00 00 	0x000002d5:000006f8
1000fe14:	58 03 00 00 cb 00 00 00 	0x00000358:000000cb
1000fe1c:	4a 2f 00 00 70 14 00 00 	0x00002f4a:00001470
1000fe24:	6d 00 00 00 09 00 00 00 	0x0000006d:00000009
1000fe2c:	e9 23 00 00 86 78 00 00 	0x000023e9:00007886
1000fe34:	1f 17 00 00 02 00 00 00 	0x0000171f:00000002
1000fe3c:	a2 0b 00 00 00 00 00 00 	0x00000ba2:00000000
1000fe44:	d7 01 00 00 00 00 00 00 	0x000001d7:00000000
	...
1000fe84:	dd 01 00 00 1c 0f 00 00 	0x000001dd:00000f1c
	...
1000fee0:	41 26 01 00 17 03 00 00 	0x00012641:00000317
	...
1000fefc:	0b 06 00 00 04 00 00 00 	0x0000060b:00000004
1000ff04:	01 00 00 00 00 00 00 00 	j 10000000 <$LC0>
1000ff0c:	00 00 00 00 cd 21 00 00 	nop 
1000ff14:	37 02 00 00 0e 10 00 00 	s.d $f0,4110($0)-
	...
1000ff48:	95 06 00 00 e5 06 00 00 	0x00000695:000006e5
	...
1000ff5c:	54 04 00 00 00 00 00 00 	0x00000454:00000000
	...
1000ffd4:	9a 05 00 00 00 00 00 00 	0x0000059a:00000000
	...
1000ffe4:	93 24 00 00 1b 00 00 00 	0x00002493:0000001b
1000ffec:	a8 05 00 00 03 00 00 00 	0x000005a8:00000003
1000fff4:	7c 5b 00 00 ae 00 00 00 	0x00005b7c:000000ae
1000fffc:	0a 00 00 00 b9 92 01 00 	bgez $0,fff4ae8 <_etext+0xfbdb5c8>
10010004:	ff 34 00 00 06 00 00 00 	0x000034ff:00000006
1001000c:	00 00 00 00 fb 0e 00 00 	nop 
10010014:	8d 00 00 00 82 01 00 00 	0x0000008d:00000182
1001001c:	9c 67 00 00 0c 00 00 00 	0x0000679c:0000000c
10010024:	00 00 00 00 6f 22 00 00 	nop 
1001002c:	49 14 00 00 70 11 00 00 	0x00001449:00001170
10010034:	70 10 00 00 01 00 00 00 	0x00001070:00000001
1001003c:	34 07 00 00 00 00 00 00 	0x00000734:00000000
10010044:	51 10 00 00 0b 00 00 00 	0x00001051:0000000b
	...
10010088:	05 02 00 00 00 00 00 00 	0x00000205:00000000
	...
100100e0:	19 3d 00 00 8d 00 00 00 	0x00003d19:0000008d
	...
100100fc:	46 01 00 00 00 00 00 00 	0x00000146:00000000
	...
10010110:	f5 07 00 00 17 00 00 00 	0x000007f5:00000017
10010118:	fe 02 00 00 00 00 00 00 	0x000002fe:00000000
	...
10010148:	09 01 00 00 fc 00 00 00 	0x00000109:000000fc
	...
1001015c:	67 01 00 00 00 00 00 00 	0x00000167:00000000
	...
100101e4:	f4 04 00 00 79 05 00 00 	0x000004f4:00000579
100101ec:	6a 12 00 00 0e 07 00 00 	0x0000126a:0000070e
100101f4:	ab 11 00 00 73 02 00 00 	0x000011ab:00000273
100101fc:	f2 10 00 00 00 00 00 00 	0x000010f2:00000000
10010204:	18 08 00 00 02 00 00 00 	0x00000818:00000002
1001020c:	93 02 00 00 8d 26 00 00 	0x00000293:0000268d
10010214:	d5 09 00 00 dd 2a 00 00 	0x000009d5:00002add
1001021c:	82 01 00 00 83 0e 00 00 	0x00000182:00000e83
10010224:	00 00 00 00 af 5c 00 00 	nop 
1001022c:	6c 3a 00 00 0f 35 00 00 	0x00003a6c:0000350f
10010234:	04 00 00 00 10 00 00 00 	jalr $0,$0
1001023c:	00 00 00 00 2c 00 00 00 	nop 
10010244:	7c 00 00 00 21 00 00 00 	neg.s $f0,$f0
	...
100102fc:	01 00 00 00 00 00 00 00 	j 10000000 <$LC0>
	...
10010318:	01 00 00 00 00 00 00 00 	j 10000000 <$LC0>
	...
100103e4:	ff 07 00 00 00 00 00 00 	0x000007ff:00000000
	...
100103f4:	0e 6d 00 00 00 00 00 00 	0x00006d0e:00000000
	...
10010404:	a9 12 00 00 00 00 00 00 	0x000012a9:00000000
1001040c:	00 00 00 00 02 00 00 00 	nop 
	...
1001041c:	fe 05 00 00 00 00 00 00 	0x000005fe:00000000
10010424:	00 00 00 00 06 00 00 00 	nop 
1001042c:	02 00 00 00 00 00 00 00 	jal 10000000 <$LC0>
10010434:	36 00 00 00 00 00 00 00 	s.s $f0,0($0)
	...
10010444:	65 01 00 00 00 00 00 00 	0x00000165:00000000
	...
10010484:	3a 00 00 00 4f 02 00 00 	swr $0,591($0)
	...
100104e0:	14 20 00 00 f9 00 00 00 	0x00002014:000000f9
	...
100104fc:	26 02 00 00 00 00 00 00 	lhu $0,0($0)-
	...
10010510:	66 07 00 00 a8 00 00 00 	0x00000766:000000a8
10010518:	10 02 00 00 00 00 00 00 	0x00000210:00000000
	...
10010548:	dd 00 00 00 e8 00 00 00 	0x000000dd:000000e8
	...
1001055c:	cb 00 00 00 00 00 00 00 	0x000000cb:00000000
	...
100105d4:	1a 00 00 00 00 00 00 00 	0x0000001a:00000000
	...
100105e4:	20 21 00 00 2c 00 00 00 	0x00002120:0000002c
100105ec:	05 00 00 00 e9 00 00 00 	beq $0,$0,10010998 <freq_tab+0xf338>
100105f4:	35 33 00 00 63 00 00 00 	0x00003335:00000063
100105fc:	04 00 00 00 73 27 00 00 	jalr $39,$0
10010604:	ba 45 00 00 00 00 00 00 	0x000045ba:00000000
1001060c:	2a 00 00 00 77 01 00 00 	l.s $f0,375($0)
10010614:	0b 00 00 00 0c 0e 00 00 	bc1f 10013e4c <htab+0x12bc>
1001061c:	50 23 00 00 01 00 00 00 	0x00002350:00000001
10010624:	00 00 00 00 09 05 00 00 	nop 
1001062c:	7f 06 00 00 25 00 00 00 	0x0000067f:00000025
10010634:	03 00 00 00 00 00 00 00 	jr $0
	...
10010644:	1f 00 00 00 01 00 00 00 	0x0000001f:00000001
	...
10010688:	18 00 00 00 00 00 00 00 	0x00000018:00000000
	...
100106e0:	e3 00 00 00 0a 00 00 00 	0x000000e3:0000000a
	...
100106fc:	4e 00 00 00 00 00 00 00 	and $0,$0,$0
	...
10010710:	42 00 00 00 09 00 00 00 	addu $0,$0,$0
10010718:	23 00 00 00 00 00 00 00 	0x00000023:00000000
	...
10010748:	0e 00 00 00 11 00 00 00 	0x0000000e:00000011
	...
1001075c:	09 00 00 00 00 00 00 00 	bltz $0,10010764 <freq_tab+0xf104>
	...
100107d4:	01 00 00 00 00 00 00 00 	j 10000000 <$LC0>
	...
100107e4:	b4 00 00 00 00 00 00 00 	0x000000b4:00000000
100107ec:	49 02 00 00 00 00 00 00 	0x00000249:00000000
100107f4:	61 05 00 00 1e 00 00 00 	0x00000561:0000001e
100107fc:	00 00 00 00 1e 00 00 00 	nop 
10010804:	4e 04 00 00 00 00 00 00 	0x0000044e:00000000
1001080c:	00 00 00 00 04 00 00 00 	nop 
10010814:	01 00 00 00 00 00 00 00 	j 10000000 <$LC0>
1001081c:	0b 00 00 00 8b 01 00 00 	bc1f 10010e50 <freq_tab+0xf7f0>
10010824:	0c 00 00 00 00 00 00 00 	bc1t 1001082c <freq_tab+0xf1cc>
1001082c:	03 00 00 00 79 02 00 00 	jr $0
10010834:	15 00 00 00 00 00 00 00 	0x00000015:00000000
	...
10010844:	05 00 00 00 00 00 00 00 	beq $0,$0,1001084c <freq_tab+0xf1ec>
	...
10010884:	4f 00 00 00 b4 08 00 00 	andi $0,$0,2228
	...
100108e0:	a3 ac 00 00 94 02 00 00 	0x0000aca3:00000294
	...
100108fc:	a5 03 00 00 01 00 00 00 	0x000003a5:00000001
	...
10010910:	44 1c 00 00 3d 01 00 00 	0x00001c44:0000013d
10010918:	0f 0a 00 00 00 00 00 00 	0x00000a0f:00000000
	...
10010948:	9b 03 00 00 02 04 00 00 	0x0000039b:00000402
	...
1001095c:	6b 02 00 00 00 00 00 00 	0x0000026b:00000000
	...
100109d4:	6e 00 00 00 00 00 00 00 	0x0000006e:00000000
	...
100109e4:	cc 01 00 00 45 00 00 00 	0x000001cc:00000045
100109ec:	1c 00 00 00 17 00 00 00 	0x0000001c:00000017
100109f4:	4c 0f 00 00 2e 00 00 00 	0x00000f4c:0000002e
100109fc:	0f 00 00 00 0e 00 00 00 	0x0000000f:0000000e
10010a04:	79 02 00 00 00 00 00 00 	0x00000279:00000000
10010a0c:	03 00 00 00 55 00 00 00 	jr $0
10010a14:	2e 01 00 00 2d 00 00 00 	0x0000012e:0000002d
10010a1c:	e4 50 00 00 87 00 00 00 	0x000050e4:00000087
10010a24:	00 00 00 00 6f 01 00 00 	nop 
10010a2c:	f9 08 00 00 4c 00 00 00 	0x000008f9:0000004c
10010a34:	00 00 00 00 0c 00 00 00 	nop 
10010a3c:	1d 00 00 00 04 00 00 00 	0x0000001d:00000004
10010a44:	00 00 00 00 08 00 00 00 	nop 
	...
10010a88:	01 00 00 00 00 00 00 00 	j 10000000 <$LC0>
	...
10010ae0:	17 00 00 00 03 00 00 00 	0x00000017:00000003
	...
10010b10:	18 00 00 00 08 00 00 00 	0x00000018:00000008
10010b18:	06 00 00 00 00 00 00 00 	bne $0,$0,10010b20 <freq_tab+0xf4c0>
	...
10010b48:	08 00 00 00 06 00 00 00 	bgtz $0,10010b68 <freq_tab+0xf508>
	...
10010b5c:	03 00 00 00 00 00 00 00 	jr $0
	...
10010be4:	9d 00 00 00 00 00 00 00 	0x0000009d:00000000
	...
10010bf4:	9b 03 00 00 00 00 00 00 	0x0000039b:00000000
	...
10010c04:	3c 00 00 00 00 00 00 00 	0x0000003c:00000000
10010c0c:	00 00 00 00 1c 00 00 00 	nop 
	...
10010c1c:	3e 00 00 00 00 00 00 00 	0x0000003e:00000000
	...
10010c34:	0b 00 00 00 04 00 00 00 	bc1f 10010c4c <freq_tab+0xf5ec>
10010c3c:	04 00 00 00 00 00 00 00 	jalr $0,$0
10010c44:	22 00 00 00 35 00 00 00 	lbu $0,53($0)
	...
10010d74:	01 00 00 00 00 00 00 00 	j 10000000 <$LC0>
	...
10010e84:	06 00 00 00 d6 01 00 00 	bne $0,$0,100115e4 <freq_tab+0xff84>
	...
10010ee0:	96 00 00 00 00 00 00 00 	sqrt.s $f0,$f0
	...
100110e8:	01 00 00 00 00 00 00 00 	j 10000000 <$LC0>
	...

10011660 <stdstreams>:
10011660:	eb be da fe 00 00 00 00 	0xfedabeeb:00000000
	...
1001167c:	01 00 00 00 00 00 00 00 	j 10000000 <$LC0>
	...
1001169c:	ff ff ff ff ff ff ff ff 	0xffffffff:ffffffff
100116a4:	b0 16 01 10 00 00 00 00 	0x100116b0:00000000
100116ac:	00 00 00 00 eb be da fe 	nop 
	...
100116c8:	01 00 00 00 02 00 00 00 	j 10000008 <$LC0+0x8>
	...
100116ec:	ff ff ff ff ff ff ff ff 	0xffffffff:ffffffff
100116f4:	00 17 01 10 00 00 00 00 	0x10011700:00000000
100116fc:	00 00 00 00 eb be da fe 	nop 
	...
10011718:	02 00 00 00 02 00 00 00 	jal 10000008 <$LC0+0x8>
	...
1001173c:	ff ff ff ff ff ff ff ff 	0xffffffff:ffffffff
	...
1001174c:	00 08 00 00 00 00 00 00 	0x00000800:00000000

10011750 <fnlist>:
	...

100118e0 <__clz_tab>:
100118e0:	00 01 02 02 03 03 03 03 	0x02020100:03030303
100118e8:	04 04 04 04 04 04 04 04 	0x04040404:04040404
100118f0:	05 05 05 05 05 05 05 05 	0x05050505:05050505
100118f8:	05 05 05 05 05 05 05 05 	0x05050505:05050505
10011900:	06 06 06 06 06 06 06 06 	0x06060606:06060606
10011908:	06 06 06 06 06 06 06 06 	0x06060606:06060606
10011910:	06 06 06 06 06 06 06 06 	0x06060606:06060606
10011918:	06 06 06 06 06 06 06 06 	0x06060606:06060606
10011920:	07 07 07 07 07 07 07 07 	0x07070707:07070707
10011928:	07 07 07 07 07 07 07 07 	0x07070707:07070707
10011930:	07 07 07 07 07 07 07 07 	0x07070707:07070707
10011938:	07 07 07 07 07 07 07 07 	0x07070707:07070707
10011940:	07 07 07 07 07 07 07 07 	0x07070707:07070707
10011948:	07 07 07 07 07 07 07 07 	0x07070707:07070707
10011950:	07 07 07 07 07 07 07 07 	0x07070707:07070707
10011958:	07 07 07 07 07 07 07 07 	0x07070707:07070707
10011960:	08 08 08 08 08 08 08 08 	0x08080808:08080808
10011968:	08 08 08 08 08 08 08 08 	0x08080808:08080808
10011970:	08 08 08 08 08 08 08 08 	0x08080808:08080808
10011978:	08 08 08 08 08 08 08 08 	0x08080808:08080808
10011980:	08 08 08 08 08 08 08 08 	0x08080808:08080808
10011988:	08 08 08 08 08 08 08 08 	0x08080808:08080808
10011990:	08 08 08 08 08 08 08 08 	0x08080808:08080808
10011998:	08 08 08 08 08 08 08 08 	0x08080808:08080808
100119a0:	08 08 08 08 08 08 08 08 	0x08080808:08080808
100119a8:	08 08 08 08 08 08 08 08 	0x08080808:08080808
100119b0:	08 08 08 08 08 08 08 08 	0x08080808:08080808
100119b8:	08 08 08 08 08 08 08 08 	0x08080808:08080808
100119c0:	08 08 08 08 08 08 08 08 	0x08080808:08080808
100119c8:	08 08 08 08 08 08 08 08 	0x08080808:08080808
100119d0:	08 08 08 08 08 08 08 08 	0x08080808:08080808
100119d8:	08 08 08 08 08 08 08 08 	0x08080808:08080808

100119e0 <sccsid>:
100119e0:	40 28 23 29 70 6f 77 2e 	0x29232840:2e776f70
100119e8:	63 09 38 2e 31 20 28 42 	0x2e380963:42282031
100119f0:	65 72 6b 65 6c 65 79 29 	0x656b7265:2979656c
100119f8:	20 36 2f 34 2f 39 33 00 	0x342f3620:0033392f

10011a00 <sccsid>:
10011a00:	40 28 23 29 6c 6f 67 2e 	0x29232840:2e676f6c
10011a08:	63 09 38 2e 32 20 28 42 	0x2e380963:42282032
10011a10:	65 72 6b 65 6c 65 79 29 	0x656b7265:2979656c
10011a18:	20 31 31 2f 33 30 2f 39 	0x2f313120:392f3033
10011a20:	33 00 00 00 00 00 00 00 	0x00000033:00000000

10011a28 <logF_head>:
	...
10011a30:	00 80 10 6b 2a e0 7f 3f 	0x6b108000:3f7fe02a
10011a38:	00 00 fc b0 a8 c0 8f 3f 	nop 
10011a40:	00 c0 d5 07 1b b9 97 3f 	0x07d5c000:3f97b91b
10011a48:	00 40 78 0e 9b 82 9f 3f 	0x0e784000:3f9f829b
10011a50:	00 c0 fe b9 87 9e a3 3f 	0xb9fec000:3fa39e87
10011a58:	00 c0 32 f6 58 74 a7 3f 	0xf632c000:3fa77458
10011a60:	00 80 19 71 dd 42 ab 3f 	0x71198000:3fab42dd
10011a68:	00 80 11 c0 30 0a af 3f 	0xc0118000:3faf0a30
10011a70:	00 80 a3 ee 36 65 b1 3f 	0xeea38000:3fb16536
10011a78:	00 c0 1b 96 d7 41 b3 3f 	0x961bc000:3fb341d7
10011a80:	00 00 06 3f 07 1b b5 3f 	nop 
10011a88:	00 80 e5 8a d2 f0 b6 3f 	0x8ae58000:3fb6f0d2
10011a90:	00 80 31 d6 45 c3 b8 3f 	0xd6318000:3fb8c345
10011a98:	00 c0 4a 3a 6d 92 ba 3f 	0x3a4ac000:3fba926d
10011aa0:	00 c0 5b 8f 54 5e bc 3f 	0x8f5bc000:3fbc5e54
10011aa8:	00 00 2b 6e 07 27 be 3f 	nop 
10011ab0:	00 00 dc 31 91 ec bf 3f 	nop 
10011ab8:	00 80 d0 7c 7e d7 c0 3f 	0x7cd08000:3fc0d77e
10011ac0:	00 80 2f d5 2a b7 c1 3f 	0xd52f8000:3fc1b72a
10011ac8:	00 00 20 f8 52 95 c2 3f 	nop 
10011ad0:	00 80 1e 20 fc 71 c3 3f 	0x201e8000:3fc371fc
10011ad8:	00 80 cb 6c 2b 4d c4 3f 	0x6ccb8000:3fc44d2b
10011ae0:	00 c0 a1 e3 e5 26 c5 3f 	0xe3a1c000:3fc526e5
10011ae8:	00 80 a7 70 30 ff c5 3f 	0x70a78000:3fc5ff30
10011af0:	00 c0 19 e7 0f d6 c6 3f 	0xe719c000:3fc6d60f
10011af8:	00 c0 10 02 89 ab c7 3f 	0x0210c000:3fc7ab89
10011b00:	00 c0 20 65 a0 7f c8 3f 	0x6520c000:3fc87fa0
10011b08:	00 40 f4 9c 5a 52 c9 3f 	0x9cf44000:3fc9525a
10011b10:	00 c0 e2 1f bc 23 ca 3f 	0x1fe2c000:3fca23bc
10011b18:	00 c0 80 4e c9 f3 ca 3f 	0x4e80c000:3fcaf3c9
10011b20:	00 80 2d 74 86 c2 cb 3f 	0x742d8000:3fcbc286
10011b28:	00 80 9a c7 f7 8f cc 3f 	0xc79a8000:3fcc8ff7
10011b30:	00 c0 4f 6b 21 5c cd 3f 	0x6b4fc000:3fcd5c21
10011b38:	00 00 2b 6e 07 27 ce 3f 	nop 
10011b40:	00 40 dc cb ad f0 ce 3f 	0xcbdc4000:3fcef0ad
10011b48:	00 40 5e 6d 18 b9 cf 3f 	0x6d5e4000:3fcfb918
10011b50:	00 c0 b4 94 25 40 d0 3f 	0x94b4c000:3fd04025
10011b58:	00 80 73 e2 24 a3 d0 3f 	0xe2738000:3fd0a324
10011b60:	00 40 ae f9 8b 05 d1 3f 	0xf9ae4000:3fd1058b
10011b68:	00 c0 ab ab 5c 67 d1 3f 	0xababc000:3fd1675c
10011b70:	00 80 69 c1 98 c8 d1 3f 	0xc1698000:3fd1c898
10011b78:	00 80 cf fb 41 29 d2 3f 	0xfbcf8000:3fd22941
10011b80:	00 80 de 13 5a 89 d2 3f 	0x13de8000:3fd2895a
10011b88:	00 00 e1 ba e2 e8 d2 3f 	nop 
10011b90:	00 80 98 9a dd 47 d3 3f 	0x9a988000:3fd347dd
10011b98:	00 40 69 55 4c a6 d3 3f 	0x55694000:3fd3a64c
10011ba0:	00 c0 86 86 30 04 d4 3f 	0x8686c000:3fd40430
10011ba8:	00 40 1c c2 8b 61 d4 3f 	0xc21c4000:3fd4618b
10011bb0:	00 80 77 95 5f be d4 3f 	0x95778000:3fd4be5f
10011bb8:	00 00 2e 87 ad 1a d5 3f 	nop 
10011bc0:	00 40 45 17 77 76 d5 3f 	0x17454000:3fd57677
10011bc8:	00 00 58 bf bd d1 d5 3f 	nop 
10011bd0:	00 c0 b9 f2 82 2c d6 3f 	0xf2b9c000:3fd62c82
10011bd8:	00 00 9b 1e c8 86 d6 3f 	nop 
10011be0:	00 c0 2b aa 8e e0 d6 3f 	0xaa2bc000:3fd6e08e
10011be8:	00 c0 bb f6 d7 39 d7 3f 	0xf6bbc000:3fd739d7
10011bf0:	00 40 dd 5f a5 92 d7 3f 	0x5fdd4000:3fd792a5
10011bf8:	00 c0 82 3b f8 ea d7 3f 	0x3b82c000:3fd7eaf8
10011c00:	00 80 1e da d1 42 d8 3f 	0xda1e8000:3fd842d1
10011c08:	00 40 c1 86 33 9a d8 3f 	0x86c14000:3fd89a33
10011c10:	00 80 36 87 1e f1 d8 3f 	0x87368000:3fd8f11e
10011c18:	00 00 21 1c 94 47 d9 3f 	nop 
10011c20:	00 00 18 81 95 9d d9 3f 	nop 
10011c28:	00 80 bf ec 23 f3 d9 3f 	0xecbf8000:3fd9f323
10011c30:	00 c0 e5 90 40 48 da 3f 	0x90e5c000:3fda4840
10011c38:	00 00 9a 9a ec 9c da 3f 	nop 
10011c40:	00 80 47 32 29 f1 da 3f 	0x32478000:3fdaf129
10011c48:	00 80 cc 7b f7 44 db 3f 	0x7bcc8000:3fdb44f7
10011c50:	00 00 93 96 58 98 db 3f 	nop 
10011c58:	00 00 a7 9d 4d eb db 3f 	nop 
10011c60:	00 c0 cd a7 d7 3d dc 3f 	0xa7cdc000:3fdc3dd7
10011c68:	00 80 9a c7 f7 8f dc 3f 	0xc79a8000:3fdc8ff7
10011c70:	00 00 86 0b af e1 dc 3f 	nop 
10011c78:	00 00 01 7e fe 32 dd 3f 	nop 
10011c80:	00 40 8a 25 e7 83 dd 3f 	0x258a4000:3fdd83e7
10011c88:	00 c0 c1 04 6a d4 dd 3f 	0x04c1c000:3fddd46a
10011c90:	00 80 7c 1a 88 24 de 3f 	0x1a7c8000:3fde2488
10011c98:	00 80 d6 61 42 74 de 3f 	0x61d68000:3fde7442
10011ca0:	00 80 46 d2 99 c3 de 3f 	0xd2468000:3fdec399
10011ca8:	00 00 af 5f 8f 12 df 3f 	nop 
10011cb0:	00 40 70 fa 23 61 df 3f 	0xfa704000:3fdf6123
10011cb8:	00 00 79 8f 58 af df 3f 	nop 
10011cc0:	00 00 58 08 2e fd df 3f 	nop 
10011cc8:	00 c0 a5 a5 52 25 e0 3f 	0xa5a5c000:3fe02552
10011cd0:	00 40 a9 9d df 4b e0 3f 	0x9da94000:3fe04bdf
10011cd8:	00 c0 1c 5c 3e 72 e0 3f 	0x5c1cc000:3fe0723e
10011ce0:	00 40 57 4f 6f 98 e0 3f 	0x4f574000:3fe0986f
10011ce8:	00 40 25 e4 72 be e0 3f 	0xe4254000:3fe0be72
10011cf0:	00 c0 d1 85 49 e4 e0 3f 	0x85d1c000:3fe0e449
10011cf8:	00 40 2d 9e f3 09 e1 3f 	0x9e2d4000:3fe109f3
10011d00:	00 00 94 95 71 2f e1 3f 	nop 
10011d08:	00 c0 f4 d2 c3 54 e1 3f 	0xd2f4c000:3fe154c3
10011d10:	00 80 d8 bb ea 79 e1 3f 	0xbbd88000:3fe179ea
10011d18:	00 c0 67 b4 e6 9e e1 3f 	0xb467c000:3fe19ee6
10011d20:	00 40 71 1f b8 c3 e1 3f 	0x1f714000:3fe1c3b8
10011d28:	00 40 70 5e 5f e8 e1 3f 	0x5e704000:3fe1e85f
10011d30:	00 c0 92 d1 dc 0c e2 3f 	0xd192c000:3fe20cdc
10011d38:	00 c0 be d7 30 31 e2 3f 	0xd7bec000:3fe23130
10011d40:	00 00 99 ce 5b 55 e2 3f 	nop 
10011d48:	00 c0 89 12 5e 79 e2 3f 	0x1289c000:3fe2795e
10011d50:	00 c0 c2 fe 37 9d e2 3f 	0xfec2c000:3fe29d37
10011d58:	00 80 44 ed e9 c0 e2 3f 	0xed448000:3fe2c0e9
10011d60:	00 00 e4 36 74 e4 e2 3f 	nop 
10011d68:	00 00 4f 33 d7 07 e3 3f 	nop 
10011d70:	00 00 12 39 13 2b e3 3f 	nop 
10011d78:	00 00 9d 9d 28 4e e3 3f 	nop 
10011d80:	00 40 47 b5 17 71 e3 3f 	0xb5474000:3fe37117
10011d88:	00 40 56 d3 e0 93 e3 3f 	0xd3564000:3fe393e0
10011d90:	00 00 00 4a 84 b6 e3 3f 	nop 
10011d98:	00 40 71 6a 02 d9 e3 3f 	0x6a714000:3fe3d902
10011da0:	00 80 d1 84 5b fb e3 3f 	0x84d18000:3fe3fb5b
10011da8:	00 80 46 e8 8f 1d e4 3f 	0xe8468000:3fe41d8f
10011db0:	00 c0 f9 e2 9f 3f e4 3f 	0xe2f9c000:3fe43f9f
10011db8:	00 40 1c c2 8b 61 e4 3f 	0xc21c4000:3fe4618b
10011dc0:	00 80 ea d1 53 83 e4 3f 	0xd1ea8000:3fe48353
10011dc8:	00 40 b0 5d f8 a4 e4 3f 	0x5db04000:3fe4a4f8
10011dd0:	00 00 cd af 79 c6 e4 3f 	nop 
10011dd8:	00 40 b7 11 d8 e7 e4 3f 	0x11b74000:3fe4e7d8
10011de0:	00 80 01 cc 13 09 e5 3f 	0xcc018000:3fe50913
10011de8:	00 c0 5b 26 2d 2a e5 3f 	0x265bc000:3fe52a2d
10011df0:	00 80 99 67 24 4b e5 3f 	0x67998000:3fe54b24
10011df8:	00 00 b4 d5 f9 6b e5 3f 	nop 
10011e00:	00 80 cd b5 ad 8c e5 3f 	0xb5cd8000:3fe58cad
10011e08:	00 80 35 4c 40 ad e5 3f 	0x4c358000:3fe5ad40
10011e10:	00 00 6c dc b1 cd e5 3f 	nop 
10011e18:	00 00 24 a9 02 ee e5 3f 	nop 
10011e20:	00 80 47 f4 32 0e e6 3f 	0xf4478000:3fe60e32
10011e28:	00 40 fa fe 42 2e e6 3f 	0xfefa4000:3fe62e42

10011e30 <logF_tail>:
	...
10011e38:	68 fc 96 c8 03 77 f8 bc 	0xc896fc68:bcf87703
10011e40:	99 a6 d3 f6 7c 1e df 3c 	0xf6d3a699:3cdf1e7c
10011e48:	19 67 15 b0 ad ca 0d bd 	0xb0156719:bd0dcaad
10011e50:	6c d8 07 0e 66 ff 09 bd 	0x0e07d86c:bd09ff66
10011e58:	9f fe 26 f5 b7 02 f5 bc 	0xf526fe9f:bcf502b7
10011e60:	ed a1 f2 34 46 fc 2c 3d 	0x34f2a1ed:3d2cfc46
10011e68:	4c 70 d6 e5 7a 82 1c bd 	0xe5d6704c:bd1c827a
10011e70:	91 8e 36 83 9e 59 2d bd 	0x83368e91:bd2d599e
10011e78:	07 a3 8f 76 5e 7c 14 bd 	0x768fa307:bd147c5e
10011e80:	10 76 83 99 92 d0 31 3d 	0x99837610:3d31d092
10011e88:	6a 68 8e 27 69 3f 38 3d 	0x278e686a:3d383f69
10011e90:	12 46 66 1b 64 b4 34 bd 	0x1b664612:bd34b464
10011e98:	66 2a b4 ac f5 20 3b 3d 	0xacb42a66:3d3b20f5
10011ea0:	9c 2a d2 0b 65 63 35 3d 	0x0bd22a9c:3d356365
10011ea8:	05 be 5f 58 57 0c 1d 3d 	0x585fbe05:3d1d0c57
10011eb0:	3b 00 f0 2a 2c 34 2a bd 	0x2af0003b:bd2a342c
10011eb8:	06 66 ae d1 55 45 35 bd 	0xd1ae6606:bd354555
10011ec0:	81 f4 e2 2e cd b2 3c 3d 	0x2ee2f481:3d3cb2cd
10011ec8:	1a 97 fb f9 d6 5f 48 bd 	0xf9fb971a:bd485fd6
10011ed0:	fc 1d 47 f4 67 b9 35 bd 	0xf4471dfc:bd35b967
10011ed8:	bc 8a 2d 9b 77 e8 3e 3d 	0x9b2d8abc:3d3ee877
10011ee0:	3a 78 35 61 c1 0c 17 bd 	0x6135783a:bd170cc1
10011ee8:	38 52 fc 37 ba 90 37 bd 	0x37fc5238:bd3790ba
10011ef0:	07 0a e2 73 c8 d3 43 3d 	0x73e20a07:3d43d3c8
10011ef8:	4d 5c 76 54 8d 1c 42 3d 	0x54765c4d:3d421c8d
10011f00:	6a 2d 6b e3 1b 09 49 3d 	0xe36b2d6a:3d49091b
10011f08:	fb 02 12 40 20 21 32 3d 	0x401202fb:3d322120
10011f10:	39 75 30 41 76 b4 46 3d 	0x41307539:3d46b476
10011f18:	0a 9f dc 91 cd 39 35 bd 	0x91dc9f0a:bd3539cd
10011f20:	f1 8f cd 3f 63 4e ba bc 	0x3fcd8ff1:bcba4e63
10011f28:	1c 12 9d f3 53 ac 39 3d 	0xf39d121c:3d39ac53
10011f30:	f3 1e d8 25 ac 21 4a 3d 	0x25d81ef3:3d4a21ac
10011f38:	1a 68 ca bb 91 ba 21 bd 	0xbbca681a:bd21ba91
10011f40:	3c 00 f0 2a 2c 34 3a bd 	0x2af0003c:bd3a342c
10011f48:	37 54 de 18 52 36 49 3d 	0x18de5437:3d493652
10011f50:	85 3c 99 ab 2a 57 0d bd 	0xab993c85:bd0d572a
10011f58:	b6 d0 7b e2 da 40 50 3d 	0xe27bd0b6:3d5040da
10011f60:	18 a0 f7 73 5f e3 50 3d 	0x73f7a018:3d50e35f
10011f68:	99 56 41 3f 31 aa 45 3d 	0x3f415699:3d45aa31
10011f70:	8f 2a 38 63 fc f1 59 bd 	0x63382a8f:bd59f1fc
10011f78:	40 75 8e c6 fb fa 59 3d 	0xc68e7540:3d59fafb
10011f80:	62 09 eb f5 76 69 3a bd 	0xf5eb0962:bd3a6976
10011f88:	f0 13 4c d2 7a 8d 3a 3d 	0xd24c13f0:3d3a8d7a
10011f90:	85 1a c9 2c 9c 30 5d 3d 	0x2cc91a85:3d5d309c
10011f98:	91 80 c5 d4 4d 59 25 bd 	0xd4c58091:bd25594d
10011fa0:	d0 35 d7 bc 1c a7 37 3d 	0xbcd735d0:3d37a71c
10011fa8:	0b 82 ed f3 42 1c 58 bd 	0xf3ed820b:bd581c42
10011fb0:	b3 37 7b 0b 7d c2 5e 3d 	0x0b7b37b3:3d5ec27d
10011fb8:	24 d8 9a cd 92 7c 3d bd 	0xcd9ad824:bd3d7c92
10011fc0:	c1 7c 0a db d8 4b 3f bd 	0xdb0a7cc1:bd3f4bd8
10011fc8:	0d ca b6 9a 54 6c 5a 3d 	0x9ab6ca0d:3d5a6c54
10011fd0:	e4 1e 1c 1b a1 94 43 3d 	0x1b1c1ee4:3d4394a1
10011fd8:	98 8a 7c bd bd 54 3e 3d 	0xbd7c8a98:3d3e54bd
10011fe0:	15 10 be 42 c4 ae 54 3d 	0x42be1015:3d54aec4
10011fe8:	29 e7 6c ec 73 1c 5e bd 	0xec6ce729:bd5e1c73
10011ff0:	fb 53 4c e2 9c 06 50 3d 	0xe24c53fb:3d50069c
10011ff8:	ea 1f 69 57 f0 89 3e 3d 	0x57691fea:3d3e89f0
10012000:	4b 18 5a 4c 9b 3c 50 bd 	0x4c5a184b:bd503c9b
10012008:	c2 cb 28 76 92 2e 46 3d 	0x7628cbc2:3d462e92
10012010:	81 08 c4 38 ad d5 22 3d 	0x38c40881:3d22d5ad
10012018:	96 2a 96 e8 81 38 5d bd 	0xe8962a96:bd5d3881
10012020:	7d 14 dd 4c ba fa 56 3d 	0x4cdd147d:3d56faba
10012028:	b8 13 d1 56 34 75 5f bd 	0x56d113b8:bd5f7534
10012030:	6f 76 8d b6 f2 4b 58 3d 	0xb68d766f:3d584bf2
10012038:	c5 23 65 0d 50 d7 33 bd 	0x0d6523c5:bd33d750
10012040:	5e ea 9f 90 1a 93 40 3d 	0x909fea5e:3d40931a
10012048:	a8 d7 ee 31 bb 53 3e bd 	0x31eed7a8:bd3e53bb
10012050:	d3 55 db 7d 19 c5 4e 3d 	0x7ddb55d3:3d4ec519
10012058:	89 4f b1 8f 59 fb 50 3d 	0x8fb14f89:3d50fb59
10012060:	ac 37 1d 86 f7 7b 5b 3d 	0x861d37ac:3d5b7bf7
10012068:	85 b4 3e 4c 8c b2 52 bd 	0x4c3eb485:bd52b28c
10012070:	f3 1e d8 25 ac 21 5a 3d 	0x25d81ef3:3d5a21ac
10012078:	a6 6a a8 05 09 29 48 bd 	0x05a86aa6:bd482909
10012080:	14 34 37 21 9e 2a 54 bd 	0x21373414:bd542a9e
10012088:	13 5d a4 ae af c1 50 bd 	0xaea45d13:bd50c1af
10012090:	74 92 9a 98 fb 82 32 3d 	0x989a9274:3d3282fb
10012098:	6b ba 70 42 e3 d9 53 bd 	0x4270ba6b:bd53d9e3
100120a0:	f2 bc 8d f6 8d 1f 3e 3d 	0xf68dbcf2:3d3e1f8d
100120a8:	e6 a7 dc b9 2e 80 49 3d 	0xb9dca7e6:3d49802e
100120b0:	4c c4 0e 72 cd b2 3b 3d 	0x720ec44c:3d3bb2cd
100120b8:	49 c3 93 ba 9e 53 57 bd 	0xba93c349:bd57539e
100120c0:	2b 36 98 a0 4c c2 49 bd 	0xa098362b:bd49c24c
100120c8:	67 93 5f d0 54 cf 46 bd 	0xd05f9367:bd46cf54
100120d0:	7f 5d 69 9c c6 fe 60 3d 	0x9c695d7f:3d60fec6
100120d8:	75 ff 3e 03 9a 2d 69 bd 	0x033eff75:bd692d9a
100120e0:	91 38 96 57 4e 40 6f 3d 	0x57963891:3d6f404e
100120e8:	01 d6 4a c0 8d be 55 bd 	0xc04ad601:bd55be8d
100120f0:	cc 44 68 67 49 7d 65 bd 	0x676844cc:bd657d49
100120f8:	2d bd cb d5 ed 17 59 3d 	0xd5cbbd2d:3d5917ed
10012100:	17 36 d9 c7 fb 2d 59 3d 	0xc7d93617:3d592dfb
10012108:	38 e6 dc fe ac 43 60 bd 	0xfedce638:bd6043ac
10012110:	96 a3 33 8f a9 e9 65 3d 	0x8f33a396:3d65e9a9
10012118:	a0 6f 0e c6 bf a0 69 3d 	0xc60e6fa0:3d69a0bf
10012120:	f0 ae 7b b9 98 dd 52 3d 	0xb97baef0:3d52dd98
10012128:	02 99 38 58 1b da 3e bd 	0x58389902:bd3eda1b
10012130:	7a be 34 8b bd 07 1a 3d 	0x8b34be7a:3d1a07bd
10012138:	8a f0 c2 af 6c 92 64 bd 	0xafc2f08a:bd64926c
10012140:	a6 1b 2f 39 a4 af 17 bd 	0x392f1ba6:bd17afa4
10012148:	5e 4a 8a f7 87 69 50 bd 	0xf78a4a5e:bd506987
10012150:	8d 84 81 0f 29 ca 5d bd 	0x0f81848d:bd5dca29
10012158:	b4 68 52 46 6f ea 5e bd 	0x465268b4:bd5eea6f
10012160:	74 63 38 f5 72 17 5d 3d 	0xf5386374:3d5d1772
10012168:	91 34 0c a1 02 42 33 3d 	0xa10c3491:3d334202
10012170:	f5 a1 90 b5 1f be 60 3d 	0xb590a1f5:3d60be1f
10012178:	7b b6 56 05 32 71 6d 3d 	0x0556b67b:3d6d7132
10012180:	7a 27 6d 14 e9 2c 6e bd 	0x146d277a:bd6e2ce9
10012188:	13 21 09 74 17 d7 4e 3d 	0x74092113:3d4ed717
10012190:	c9 9f bd 3b 56 e6 65 bd 	0x3bbd9fc9:bd65e656
10012198:	d3 f3 09 89 83 ea 3e bd 	0x8909f3d3:bd3eea83
100121a0:	0b 3d 26 04 a4 fa 66 3d 	0x04263d0b:3d66faa4
100121a8:	a3 af 62 b1 a4 bd 60 bd 	0xb162afa3:bd60bda4
100121b0:	17 7a 86 36 37 a3 5a bd 	0x36867a17:bd5aa337
100121b8:	c2 36 f7 e4 f4 ce 5c 3d 	0xe4f736c2:3d5ccef4
100121c0:	b3 37 7b 0b 7d c2 6e 3d 	0x0b7b37b3:3d6ec27d
100121c8:	60 76 d1 ab e7 be 51 3d 	0xabd17660:3d51bee7
100121d0:	90 85 0b 84 dd 4f 24 bd 	0x840b8590:bd244fdd
100121d8:	ce 22 13 97 4e c6 61 bd 	0x971322ce:bd61c64e
100121e0:	45 56 98 b0 9c b0 6b 3d 	0xb0985645:3d6bb09c
100121e8:	f5 a4 c5 34 b4 94 67 bd 	0x34c5a4f5:bd6794b4
100121f0:	57 bc 22 df b9 ab 46 3d 	0xdf22bc57:3d46abb9
100121f8:	44 8b 42 15 a9 97 64 3d 	0x15428b44:3d6497a9
10012200:	93 d1 3b c7 7d cd 58 bd 	0xc73bd193:bd58cd7d
10012208:	b4 89 36 b4 3d db 49 bd 	0xb43689b4:bd49db3d
10012210:	f0 a5 aa 29 fb 2c 6f 3d 	0x29aaa5f0:3d6f2cfb
10012218:	d7 c5 e3 f6 8c 64 67 3d 	0xf6e3c5d7:3d67648c
10012220:	d2 5f 09 d6 70 75 66 3d 	0xd6095fd2:3d667570
10012228:	16 b4 12 f9 94 b1 51 3d 	0xf912b416:3d51b194
10012230:	34 26 0e 1b 2a 43 48 bd 	0x1b0e2634:bd48432a
	...

10012240 <sccsid>:
10012240:	40 28 23 29 65 78 70 2e 	0x29232840:2e707865
10012248:	63 09 38 2e 31 20 28 42 	0x2e380963:42282031
10012250:	65 72 6b 65 6c 65 79 29 	0x656b7265:2979656c
10012258:	20 36 2f 34 2f 39 33 00 	0x342f3620:0033392f
Disassembly of section .sdata:

10012260 <maxbits>:
10012260:	10 00 00 00 00 00 01 00 	0x00000010:00010000

10012264 <maxmaxcode>:
10012264:	00 00 01 00 89 0d 01 00 	nop 

10012268 <hsize>:
10012268:	89 0d 01 00 00 00 00 00 	0x00010d89:00000000

1001226c <free_ent>:
1001226c:	00 00 00 00 00 00 00 00 	nop 

10012270 <exit_stat>:
10012270:	00 00 00 00 00 00 00 00 	nop 

10012274 <nomagic>:
10012274:	00 00 00 00 00 00 00 00 	nop 

10012278 <zcat_flg>:
10012278:	00 00 00 00 01 00 00 00 	nop 

1001227c <quiet>:
1001227c:	01 00 00 00 80 00 00 00 	j 10000200 <$LC14+0x18>

10012280 <block_compress>:
10012280:	80 00 00 00 00 00 00 00 	cvt.s.d $f0,$f0

10012284 <clear_flg>:
10012284:	00 00 00 00 00 00 00 00 	nop 

10012288 <ratio>:
10012288:	00 00 00 00 10 27 00 00 	nop 

1001228c <checkpoint>:
1001228c:	10 27 00 00 00 00 00 00 	0x00002710:00000000

10012290 <force>:
10012290:	00 00 00 00 00 00 00 00 	nop 

10012294 <do_decomp>:
10012294:	00 00 00 00 01 00 00 00 	nop 

10012298 <in_count>:
10012298:	01 00 00 00 00 00 00 00 	j 10000000 <$LC0>

1001229c <out_count>:
1001229c:	00 00 00 00 00 00 00 00 	nop 

100122a0 <offset>:
100122a0:	00 00 00 00 00 00 00 00 	nop 

100122a4 <size>:
100122a4:	00 00 00 00 25 73 0a 00 	nop 

100122a8 <$LC5>:
100122a8:	25 73 0a 00 00 00 00 00 	0x000a7325:00000000

100122b0 <$LC0>:
100122b0:	25 63 00 00 00 00 00 00 	0x00006325:00000000

100122b8 <$LC2>:
100122b8:	00 00 00 e0 ff ff 6f 41 	nop 

100122c0 <$LC4>:
100122c0:	00 00 00 4f 00 00 00 00 	nop 
	...

100122d0 <_exit_dummy_ref>:
100122d0:	e0 22 01 10 00 00 00 00 	0x100122e0:00000000

100122d4 <initialized.6>:
	...

100122e0 <_exit_dummy_decl>:
	...

100122f0 <stdin>:
100122f0:	60 16 01 10 b0 16 01 10 	0x10011660:100116b0

100122f4 <stdout>:
100122f4:	b0 16 01 10 00 17 01 10 	0x100116b0:10011700

100122f8 <stderr>:
100122f8:	00 17 01 10 60 16 01 10 	0x10011700:10011660

100122fc <__stdio_head>:
100122fc:	60 16 01 10 80 39 40 00 	0x10011660:00403980

10012300 <__default_room_functions>:
10012300:	80 39 40 00 f8 31 40 00 	0x00403980:004031f8
	...

10012310 <__exit_funcs>:
10012310:	50 17 01 10 00 00 00 00 	0x10011750:00000000
	...

10012320 <$LC0>:
10012320:	00 00 00 00 20 23 01 10 	nop 

10012324 <__progname>:
10012324:	20 23 01 10 00 00 00 00 	0x10012320:00000000
1001232c:	00 00 00 00 28 6e 75 6c 	nop 

10012330 <null>:
10012330:	28 6e 75 6c 6c 29 00 00 	0x6c756e28:0000296c

10012338 <$LC0>:
10012338:	00 00 00 00 28 6e 69 6c 	nop 

1001233c <nil>:
1001233c:	28 6e 69 6c 29 00 00 00 	0x6c696e28:00000029
	...

10012350 <__morecore>:
10012350:	00 1e 41 00 00 00 00 00 	0x00411e00:00000000
	...

10012360 <_aligned_blocks>:
	...

10012370 <sys_nerr>:
10012370:	4d 00 00 00 45 72 72 6f 	mtlo $111

10012374 <$LC0>:
10012374:	45 72 72 6f 72 20 30 00 	0x6f727245:00302072
1001237c:	00 00 00 00 a2 0e 00 10 	nop 

10012380 <__ctype_b>:
10012380:	a2 0e 00 10 a6 10 00 10 	0x10000ea2:100010a6

10012384 <__ctype_tolower>:
10012384:	a6 10 00 10 aa 12 00 10 	0x100010a6:100012aa

10012388 <__ctype_toupper>:
10012388:	aa 12 00 10 00 00 00 00 	0x100012aa:00000000

10012390 <_mb_shift>:
	...

100123a0 <$LC0>:
100123a0:	4e 61 4e 00 49 6e 66 00 	0x004e614e:00666e49

100123a4 <$LC1>:
100123a4:	49 6e 66 00 2d 43 1c eb 	0x00666e49:eb1c432d

100123a8 <$LC2>:
100123a8:	2d 43 1c eb e2 36 1a 3f 	0xeb1c432d:3f1a36e2

100123b0 <$LC3>:
100123b0:	00 00 00 00 00 00 24 40 	nop 
	...

100123c0 <$LC1>:
100123c0:	00 00 00 00 2e 00 00 00 	nop 

100123c4 <$LC0>:
100123c4:	2e 00 00 00 90 0e 00 10 	0x0000002e:10000e90

100123c8 <_numeric_info>:
100123c8:	90 0e 00 10 00 00 00 00 	0x10000e90:00000000

100123d0 <$LC4>:
100123d0:	00 00 00 00 00 00 f0 7f 	nop 

100123d8 <$LC0>:
100123d8:	99 99 99 99 99 99 b9 7f 	0x99999999:7fb99999

100123e0 <$LC1>:
100123e0:	00 00 00 00 00 00 24 40 	nop 

100123e8 <$LC2>:
100123e8:	00 00 00 00 00 00 10 00 	nop 

100123f0 <$LC3>:
100123f0:	ff ff ff ff ff ff ef 7f 	0xffffffff:7fefffff
	...

10012400 <__ctype_C>:
10012400:	ac 14 00 10 80 24 01 10 	0x100014ac:10012480

10012408 <_ctype_info>:
10012408:	00 24 01 10 00 00 00 00 	0x10012400:00000000

10012410 <zero>:
	...

10012418 <one>:
10012418:	00 00 00 00 00 00 f0 3f 	nop 

10012420 <two>:
10012420:	00 00 00 00 00 00 00 40 	nop 

10012428 <negone>:
10012428:	00 00 00 00 00 00 f0 bf 	nop 

10012430 <$LC0>:
10012430:	00 00 00 00 00 00 f0 3f 	nop 

10012438 <$LC1>:
10012438:	00 00 00 00 00 00 00 40 	nop 

10012440 <$LC2>:
10012440:	00 00 00 00 00 00 f0 bf 	nop 

10012448 <$LC3>:
10012448:	00 00 00 00 00 00 f8 ff 	nop 

10012450 <$LC4>:
10012450:	9c 75 00 88 3c e4 37 7e 	0x8800759c:7e37e43c

10012458 <$LC5>:
10012458:	59 f3 f8 c2 1f 6e a5 01 	0xc2f8f359:01a56e1f

10012460 <$LC6>:
10012460:	00 00 00 00 00 00 f0 3f 	nop 

10012468 <$LC7>:
10012468:	00 ef 64 ba 3f 49 d8 43 	0xba64ef00:43d8493f

10012470 <$LC8>:
10012470:	00 00 00 00 00 00 f0 7f 	nop 
	...

10012480 <__ctype_mbchar_C>:
	...

10012490 <__curbrk>:
10012490:	90 43 a1 12 90 43 a1 12 	0x12a14390:12a14390

10012494 <__minbrk>:
10012494:	90 43 a1 12 00 00 00 00 	0x12a14390:00000000
1001249c:	00 00 00 00 00 00 00 00 	nop 

100124a0 <$LC0>:
100124a0:	00 00 00 00 00 00 f8 7f 	nop 

100124a8 <$LC1>:
100124a8:	00 00 00 00 00 00 f0 3f 	nop 

100124b0 <$LC2>:
100124b0:	76 3b 77 30 d1 42 de 7f 	0x30773b76:7fde42d1

100124b8 <$LC3>:
100124b8:	00 00 00 00 00 00 00 40 	nop 

100124c0 <A1>:
100124c0:	e6 54 55 55 55 55 b5 3f 	0x555554e6:3fb55555

100124c8 <A2>:
100124c8:	d3 c6 ba 99 99 99 89 3f 	0x99bac6d3:3f899999

100124d0 <A3>:
100124d0:	9e 51 f1 07 23 49 62 3f 	0x07f1519e:3f624923

100124d8 <A4>:
100124d8:	f0 ff 5d c8 34 80 3c 3f 	0xc85dfff0:3f3c8034

100124e0 <$LC0>:
100124e0:	00 00 00 00 00 00 f0 3f 	nop 

100124e8 <$LC1>:
100124e8:	00 00 00 00 00 00 60 40 	nop 

100124f0 <$LC2>:
100124f0:	00 00 00 00 00 00 e0 3f 	nop 

100124f8 <$LC3>:
100124f8:	00 00 00 00 00 00 80 3f 	nop 

10012500 <$LC4>:
10012500:	00 00 00 00 00 08 80 40 	nop 

10012508 <$LC5>:
10012508:	00 00 00 00 00 00 f8 ff 	nop 

10012510 <$LC6>:
10012510:	00 00 00 00 00 00 f0 ff 	nop 

10012518 <$LC7>:
10012518:	00 00 00 00 00 00 f0 3f 	nop 

10012520 <$LC8>:
10012520:	00 00 00 00 00 00 60 40 	nop 

10012528 <$LC9>:
10012528:	00 00 00 00 00 00 e0 3f 	nop 

10012530 <$LC10>:
10012530:	00 00 00 00 00 00 80 3f 	nop 

10012538 <$LC11>:
10012538:	00 00 00 00 00 08 80 40 	nop 

10012540 <p1>:
10012540:	3e 55 55 55 55 55 c5 3f 	0x5555553e:3fc55555

10012548 <p2>:
10012548:	93 bd be 16 6c c1 66 bf 	0x16bebd93:bf66c16c

10012550 <p3>:
10012550:	2c de 25 af 6a 56 11 3f 	0xaf25de2c:3f11566a

10012558 <p4>:
10012558:	f1 6b d2 c5 41 bd bb be 	0xc5d26bf1:bebbbd41

10012560 <p5>:
10012560:	d0 a4 be 72 69 37 66 3e 	0x72bea4d0:3e663769

10012568 <ln2hi>:
10012568:	00 00 e0 fe 42 2e e6 3f 	nop 

10012570 <ln2lo>:
10012570:	76 3c 79 35 ef 39 ea 3d 	0x35793c76:3dea39ef

10012578 <lnhuge>:
10012578:	f2 ec b7 15 2b 60 86 40 	0x15b7ecf2:4086602b

10012580 <lntiny>:
10012580:	54 e3 ea eb f8 7a 87 c0 	0xebeae354:c0877af8

10012588 <invln2>:
10012588:	fe 82 2b 65 47 15 f7 3f 	0x652b82fe:3ff71547

10012590 <$LC0>:
10012590:	f2 ec b7 15 2b 60 86 40 	0x15b7ecf2:4086602b

10012598 <$LC1>:
10012598:	54 e3 ea eb f8 7a 87 c0 	0xebeae354:c0877af8

100125a0 <$LC2>:
100125a0:	00 00 00 00 00 00 e0 3f 	nop 

100125a8 <$LC3>:
100125a8:	fe 82 2b 65 47 15 f7 3f 	0x652b82fe:3ff71547

100125b0 <$LC4>:
100125b0:	00 00 e0 fe 42 2e e6 3f 	nop 

100125b8 <$LC5>:
100125b8:	76 3c 79 35 ef 39 ea 3d 	0x35793c76:3dea39ef

100125c0 <$LC6>:
100125c0:	d0 a4 be 72 69 37 66 3e 	0x72bea4d0:3e663769

100125c8 <$LC7>:
100125c8:	f1 6b d2 c5 41 bd bb be 	0xc5d26bf1:bebbbd41

100125d0 <$LC8>:
100125d0:	2c de 25 af 6a 56 11 3f 	0xaf25de2c:3f11566a

100125d8 <$LC9>:
100125d8:	93 bd be 16 6c c1 66 bf 	0x16bebd93:bf66c16c

100125e0 <$LC10>:
100125e0:	3e 55 55 55 55 55 c5 3f 	0x5555553e:3fc55555

100125e8 <$LC11>:
100125e8:	00 00 00 00 00 00 00 40 	nop 

100125f0 <$LC12>:
100125f0:	00 00 00 00 00 00 f0 3f 	nop 

100125f8 <$LC13>:
100125f8:	f2 ec b7 15 2b 60 86 40 	0x15b7ecf2:4086602b

10012600 <$LC14>:
10012600:	54 e3 ea eb f8 7a 87 c0 	0xebeae354:c0877af8

10012608 <$LC15>:
10012608:	fe 82 2b 65 47 15 f7 3f 	0x652b82fe:3ff71547

10012610 <$LC16>:
10012610:	00 00 00 00 00 00 e0 3f 	nop 

10012618 <$LC17>:
10012618:	00 00 e0 fe 42 2e e6 3f 	nop 

10012620 <$LC18>:
10012620:	76 3c 79 35 ef 39 ea 3d 	0x35793c76:3dea39ef

10012628 <$LC19>:
10012628:	d0 a4 be 72 69 37 66 3e 	0x72bea4d0:3e663769

10012630 <$LC20>:
10012630:	f1 6b d2 c5 41 bd bb be 	0xc5d26bf1:bebbbd41

10012638 <$LC21>:
10012638:	2c de 25 af 6a 56 11 3f 	0xaf25de2c:3f11566a

10012640 <$LC22>:
10012640:	93 bd be 16 6c c1 66 bf 	0x16bebd93:bf66c16c

10012648 <$LC23>:
10012648:	3e 55 55 55 55 55 c5 3f 	0x5555553e:3fc55555

10012650 <$LC24>:
10012650:	00 00 00 00 00 00 00 40 	nop 

10012658 <$LC25>:
10012658:	00 00 00 00 00 00 f0 3f 	nop 

10012660 <$LC0>:
10012660:	00 00 00 00 00 00 f0 7f 	nop 

10012668 <$LC2>:
10012668:	00 00 00 00 00 00 f8 7f 	nop 

10012670 <$LC1>:
10012670:	00 00 00 00 00 00 f0 3f 	nop 
	...

10012680 <$LC0>:
10012680:	00 00 00 00 00 00 f0 7f 	nop 

10012688 <$LC3>:
10012688:	00 00 00 00 00 00 f0 3f 	nop 

10012690 <$LC4>:
10012690:	00 00 00 00 00 80 4a 40 	nop 
	...
