
/home/palmerc/Development/nakajima/newsim/ss_precompiled_spec/compress95.ss:     file format ss-coff-little

Disassembly of section .text:

00400140 <__start>:
  400140:	28 00 00 00 00 00 10 1d 	lw $16,0($29)
  400148:	a2 00 00 00 02 10 1c 00 	lui $28,4098
  400150:	43 00 00 00 60 a2 1c 1c 	addiu $28,$28,-23968
  400158:	43 00 00 00 04 00 11 1d 	addiu $17,$29,4
  400160:	43 00 00 00 04 00 03 11 	addiu $3,$17,4
  400168:	55 00 00 00 02 02 10 00 	sll $2,$16,0x2
  400170:	42 00 00 00 00 03 02 03 	addu $3,$3,$2
  400178:	42 00 00 00 00 12 03 00 	addu $18,$0,$3
  400180:	34 00 00 00 64 84 12 1c 	sw $18,-31644($28)
  400188:	43 00 00 00 e8 ff 1d 1d 	addiu $29,$29,-24
  400190:	42 00 00 00 00 04 10 00 	addu $4,$0,$16
  400198:	42 00 00 00 00 05 11 00 	addu $5,$0,$17
  4001a0:	42 00 00 00 00 06 12 00 	addu $6,$0,$18
  4001a8:	02 00 00 00 d0 0a 10 00 	jal 402b40 <__libc_init>
  4001b0:	34 00 00 00 60 84 00 1c 	sw $0,-31648($28)
  4001b8:	42 00 00 00 00 04 10 00 	addu $4,$0,$16
  4001c0:	42 00 00 00 00 05 11 00 	addu $5,$0,$17
  4001c8:	42 00 00 00 00 06 12 00 	addu $6,$0,$18
  4001d0:	02 00 00 00 38 09 10 00 	jal 4024e0 <main>
  4001d8:	42 00 00 00 00 04 02 00 	addu $4,$0,$2
  4001e0:	02 00 00 00 dc 0a 10 00 	jal 402b70 <exit>
	...

004001f0 <spec_select_action>:
  4001f0:	28 00 00 00 00 80 02 1c 	lw $2,-32768($28)
  4001f8:	43 00 00 00 a0 ff 1d 1d 	addiu $29,$29,-96
  400200:	34 00 00 00 54 00 11 1d 	sw $17,84($29)
  400208:	42 00 00 00 00 11 07 00 	addu $17,$0,$7
  400210:	34 00 00 00 58 00 1f 1d 	sw $31,88($29)
  400218:	34 00 00 00 50 00 10 1d 	sw $16,80($29)
  400220:	5c 00 00 00 09 00 02 02 	slti $2,$2,9
  400228:	05 00 00 00 04 00 00 02 	beq $2,$0,400240 <spec_select_action+0x50>
  400230:	43 00 00 00 09 00 02 00 	addiu $2,$0,9
  400238:	34 00 00 00 00 80 02 1c 	sw $2,-32768($28)
  400240:	28 00 00 00 00 80 02 1c 	lw $2,-32768($28)
  400248:	5c 00 00 00 11 00 02 02 	slti $2,$2,17
  400250:	06 00 00 00 04 00 00 02 	bne $2,$0,400268 <spec_select_action+0x78>
  400258:	43 00 00 00 10 00 02 00 	addiu $2,$0,16
  400260:	34 00 00 00 00 80 02 1c 	sw $2,-32768($28)
  400268:	28 00 00 00 00 80 02 1c 	lw $2,-32768($28)
  400270:	43 00 00 00 01 00 10 00 	addiu $16,$0,1
  400278:	34 00 00 00 80 84 05 1c 	sw $5,-31616($28)
  400280:	34 00 00 00 70 84 04 1c 	sw $4,-31632($28)
  400288:	34 00 00 00 74 84 11 1c 	sw $17,-31628($28)
  400290:	34 00 00 00 34 80 06 1c 	sw $6,-32716($28)
  400298:	56 00 00 00 00 02 10 02 	sllv $2,$16,$2
  4002a0:	34 00 00 00 04 80 02 1c 	sw $2,-32764($28)
  4002a8:	06 00 00 00 04 00 00 06 	bne $6,$0,4002c0 <spec_select_action+0xd0>
  4002b0:	02 00 00 00 08 01 10 00 	jal 400420 <compress>
  4002b8:	01 00 00 00 fa 00 10 00 	j 4003e8 <spec_select_action+0x1f8>
  4002c0:	28 00 00 00 14 80 02 1c 	lw $2,-32748($28)
  4002c8:	06 00 00 00 44 00 00 02 	bne $2,$0,4003e0 <spec_select_action+0x1f0>
  4002d0:	02 00 00 00 94 06 10 00 	jal 401a50 <getbyte>
  4002d8:	a2 00 00 00 00 10 03 00 	lui $3,4096
  4002e0:	22 00 00 00 00 16 03 03 	lbu $3,5632($3)
  4002e8:	06 00 00 00 08 00 03 02 	bne $2,$3,400310 <spec_select_action+0x120>
  4002f0:	02 00 00 00 94 06 10 00 	jal 401a50 <getbyte>
  4002f8:	a2 00 00 00 00 10 03 00 	lui $3,4096
  400300:	22 00 00 00 01 16 03 03 	lbu $3,5633($3)
  400308:	05 00 00 00 0c 00 03 02 	beq $2,$3,400340 <spec_select_action+0x150>
  400310:	28 00 00 00 98 80 04 1c 	lw $4,-32616($28)
  400318:	a2 00 00 00 00 10 05 00 	lui $5,4096
  400320:	43 00 00 00 00 00 05 05 	addiu $5,$5,0
  400328:	02 00 00 00 54 0b 10 00 	jal 402d50 <fprintf>
  400330:	43 00 00 00 01 00 04 00 	addiu $4,$0,1
  400338:	02 00 00 00 dc 0a 10 00 	jal 402b70 <exit>
  400340:	02 00 00 00 94 06 10 00 	jal 401a50 <getbyte>
  400348:	a2 00 00 00 01 00 04 00 	lui $4,1
  400350:	51 00 00 00 a0 86 04 04 	ori $4,$4,34464
  400358:	4f 00 00 00 80 00 03 02 	andi $3,$2,128
  400360:	4f 00 00 00 1f 00 06 02 	andi $6,$2,31
  400368:	34 00 00 00 00 80 02 1c 	sw $2,-32768($28)
  400370:	56 00 00 00 00 02 10 06 	sllv $2,$16,$6
  400378:	34 00 00 00 04 80 02 1c 	sw $2,-32764($28)
  400380:	5c 00 00 00 11 00 02 06 	slti $2,$6,17
  400388:	34 00 00 00 20 80 03 1c 	sw $3,-32736($28)
  400390:	34 00 00 00 00 80 06 1c 	sw $6,-32768($28)
  400398:	34 00 00 00 88 84 04 1c 	sw $4,-31608($28)
  4003a0:	06 00 00 00 0e 00 00 02 	bne $2,$0,4003e0 <spec_select_action+0x1f0>
  4003a8:	28 00 00 00 98 80 04 1c 	lw $4,-32616($28)
  4003b0:	a2 00 00 00 00 10 05 00 	lui $5,4096
  4003b8:	43 00 00 00 24 00 05 05 	addiu $5,$5,36
  4003c0:	43 00 00 00 10 00 07 00 	addiu $7,$0,16
  4003c8:	02 00 00 00 54 0b 10 00 	jal 402d50 <fprintf>
  4003d0:	43 00 00 00 01 00 04 00 	addiu $4,$0,1
  4003d8:	02 00 00 00 dc 0a 10 00 	jal 402b70 <exit>
  4003e0:	02 00 00 00 30 03 10 00 	jal 400cc0 <decompress>
  4003e8:	28 00 00 00 74 84 02 1c 	lw $2,-31628($28)
  4003f0:	45 00 00 00 00 02 11 02 	subu $2,$2,$17
  4003f8:	28 00 00 00 58 00 1f 1d 	lw $31,88($29)
  400400:	28 00 00 00 54 00 11 1d 	lw $17,84($29)
  400408:	28 00 00 00 50 00 10 1d 	lw $16,80($29)
  400410:	43 00 00 00 60 00 1d 1d 	addiu $29,$29,96
  400418:	03 00 00 00 00 00 00 1f 	jr $31

00400420 <compress>:
  400420:	28 00 00 00 14 80 02 1c 	lw $2,-32748($28)
  400428:	43 00 00 00 c8 ff 1d 1d 	addiu $29,$29,-56
  400430:	34 00 00 00 30 00 1f 1d 	sw $31,48($29)
  400438:	34 00 00 00 2c 00 17 1d 	sw $23,44($29)
  400440:	34 00 00 00 28 00 16 1d 	sw $22,40($29)
  400448:	34 00 00 00 24 00 15 1d 	sw $21,36($29)
  400450:	34 00 00 00 20 00 14 1d 	sw $20,32($29)
  400458:	34 00 00 00 1c 00 13 1d 	sw $19,28($29)
  400460:	34 00 00 00 18 00 12 1d 	sw $18,24($29)
  400468:	34 00 00 00 14 00 11 1d 	sw $17,20($29)
  400470:	34 00 00 00 10 00 10 1d 	sw $16,16($29)
  400478:	06 00 00 00 18 00 00 02 	bne $2,$0,4004e0 <compress+0xc0>
  400480:	a2 00 00 00 00 10 04 00 	lui $4,4096
  400488:	22 00 00 00 00 16 04 04 	lbu $4,5632($4)
  400490:	02 00 00 00 aa 06 10 00 	jal 401aa8 <putbyte>
  400498:	a2 00 00 00 00 10 04 00 	lui $4,4096
  4004a0:	22 00 00 00 01 16 04 04 	lbu $4,5633($4)
  4004a8:	02 00 00 00 aa 06 10 00 	jal 401aa8 <putbyte>
  4004b0:	22 00 00 00 00 80 04 1c 	lbu $4,-32768($28)
  4004b8:	22 00 00 00 20 80 02 1c 	lbu $2,-32736($28)
  4004c0:	50 00 00 00 00 04 02 04 	or $4,$4,$2
  4004c8:	55 00 00 00 18 04 04 00 	sll $4,$4,0x18
  4004d0:	59 00 00 00 18 04 04 00 	sra $4,$4,0x18
  4004d8:	02 00 00 00 aa 06 10 00 	jal 401aa8 <putbyte>
  4004e0:	28 00 00 00 20 80 03 1c 	lw $3,-32736($28)
  4004e8:	43 00 00 00 00 01 04 00 	addiu $4,$0,256
  4004f0:	43 00 00 00 03 00 02 00 	addiu $2,$0,3
  4004f8:	34 00 00 00 78 84 02 1c 	sw $2,-31624($28)
  400500:	43 00 00 00 01 00 02 00 	addiu $2,$0,1
  400508:	34 00 00 00 38 80 02 1c 	sw $2,-32712($28)
  400510:	43 00 00 00 10 27 02 00 	addiu $2,$0,10000
  400518:	34 00 00 00 2c 80 02 1c 	sw $2,-32724($28)
  400520:	43 00 00 00 09 00 02 00 	addiu $2,$0,9
  400528:	34 00 00 00 7c 84 02 1c 	sw $2,-31620($28)
  400530:	43 00 00 00 ff 01 02 00 	addiu $2,$0,511
  400538:	34 00 00 00 40 84 00 1c 	sw $0,-31680($28)
  400540:	34 00 00 00 3c 80 00 1c 	sw $0,-32708($28)
  400548:	34 00 00 00 24 80 00 1c 	sw $0,-32732($28)
  400550:	34 00 00 00 28 80 00 1c 	sw $0,-32728($28)
  400558:	34 00 00 00 84 84 02 1c 	sw $2,-31612($28)
  400560:	05 00 00 00 02 00 00 03 	beq $3,$0,400570 <compress+0x150>
  400568:	43 00 00 00 01 01 04 00 	addiu $4,$0,257
  400570:	34 00 00 00 0c 80 04 1c 	sw $4,-32756($28)
  400578:	02 00 00 00 94 06 10 00 	jal 401a50 <getbyte>
  400580:	42 00 00 00 00 13 02 00 	addu $19,$0,$2
  400588:	28 00 00 00 08 80 11 1c 	lw $17,-32760($28)
  400590:	42 00 00 00 00 14 00 00 	addu $20,$0,$0
  400598:	51 00 00 00 ff ff 02 00 	ori $2,$0,65535
  4005a0:	5b 00 00 00 00 02 11 02 	slt $2,$2,$17
  4005a8:	06 00 00 00 0a 00 00 02 	bne $2,$0,4005d8 <compress+0x1b8>
  4005b0:	51 00 00 00 ff ff 03 00 	ori $3,$0,65535
  4005b8:	43 00 00 00 01 00 14 14 	addiu $20,$20,1
  4005c0:	55 00 00 00 01 11 11 00 	sll $17,$17,0x1
  4005c8:	5b 00 00 00 00 02 11 03 	slt $2,$3,$17
  4005d0:	05 00 00 00 f8 ff 00 02 	beq $2,$0,4005b8 <compress+0x198>
  4005d8:	43 00 00 00 08 00 02 00 	addiu $2,$0,8
  4005e0:	45 00 00 00 00 14 14 02 	subu $20,$2,$20
  4005e8:	28 00 00 00 08 80 15 1c 	lw $21,-32760($28)
  4005f0:	a2 00 00 00 01 10 17 00 	lui $23,4097
  4005f8:	43 00 00 00 90 2b 17 17 	addiu $23,$23,11152
  400600:	a2 00 00 00 05 10 16 00 	lui $22,4101
  400608:	43 00 00 00 30 62 16 16 	addiu $22,$22,25136
  400610:	42 00 00 00 00 04 15 00 	addu $4,$0,$21
  400618:	02 00 00 00 82 05 10 00 	jal 401608 <cl_hash>
  400620:	02 00 00 00 94 06 10 00 	jal 401a50 <getbyte>
  400628:	42 00 00 00 00 12 02 00 	addu $18,$0,$2
  400630:	43 00 00 00 ff ff 02 00 	addiu $2,$0,-1
  400638:	05 00 00 00 6e 00 02 12 	beq $18,$2,4007f8 <compress+0x3d8>
  400640:	28 00 00 00 00 80 04 1c 	lw $4,-32768($28)
  400648:	56 00 00 00 00 02 12 14 	sllv $2,$18,$20
  400650:	52 00 00 00 00 10 13 02 	xor $16,$2,$19
  400658:	28 00 00 00 38 80 03 1c 	lw $3,-32712($28)
  400660:	55 00 00 00 02 02 10 00 	sll $2,$16,0x2
  400668:	42 00 00 00 00 02 17 02 	addu $2,$2,$23
  400670:	28 00 00 00 00 00 02 02 	lw $2,0($2)
  400678:	56 00 00 00 00 04 12 04 	sllv $4,$18,$4
  400680:	42 00 00 00 00 11 13 04 	addu $17,$4,$19
  400688:	43 00 00 00 01 00 03 03 	addiu $3,$3,1
  400690:	34 00 00 00 38 80 03 1c 	sw $3,-32712($28)
  400698:	05 00 00 00 16 00 11 02 	beq $2,$17,4006f8 <compress+0x2d8>
  4006a0:	09 00 00 00 1e 00 00 02 	bltz $2,400720 <compress+0x300>
  4006a8:	45 00 00 00 00 03 10 15 	subu $3,$21,$16
  4006b0:	06 00 00 00 02 00 00 10 	bne $16,$0,4006c0 <compress+0x2a0>
  4006b8:	43 00 00 00 01 00 03 00 	addiu $3,$0,1
  4006c0:	45 00 00 00 00 10 03 10 	subu $16,$16,$3
  4006c8:	0a 00 00 00 02 00 00 10 	bgez $16,4006d8 <compress+0x2b8>
  4006d0:	42 00 00 00 00 10 15 10 	addu $16,$16,$21
  4006d8:	55 00 00 00 02 02 10 00 	sll $2,$16,0x2
  4006e0:	42 00 00 00 00 02 17 02 	addu $2,$2,$23
  4006e8:	28 00 00 00 00 00 02 02 	lw $2,0($2)
  4006f0:	06 00 00 00 08 00 11 02 	bne $2,$17,400718 <compress+0x2f8>
  4006f8:	55 00 00 00 01 02 10 00 	sll $2,$16,0x1
  400700:	42 00 00 00 00 02 16 02 	addu $2,$2,$22
  400708:	26 00 00 00 00 00 13 02 	lhu $19,0($2)
  400710:	01 00 00 00 88 01 10 00 	j 400620 <compress+0x200>
  400718:	08 00 00 00 e8 ff 00 02 	bgtz $2,4006c0 <compress+0x2a0>
  400720:	42 00 00 00 00 04 13 00 	addu $4,$0,$19
  400728:	02 00 00 00 48 02 10 00 	jal 400920 <output>
  400730:	28 00 00 00 3c 80 02 1c 	lw $2,-32708($28)
  400738:	28 00 00 00 0c 80 04 1c 	lw $4,-32756($28)
  400740:	28 00 00 00 04 80 03 1c 	lw $3,-32764($28)
  400748:	42 00 00 00 00 13 12 00 	addu $19,$0,$18
  400750:	43 00 00 00 01 00 02 02 	addiu $2,$2,1
  400758:	5b 00 00 00 00 03 03 04 	slt $3,$4,$3
  400760:	34 00 00 00 3c 80 02 1c 	sw $2,-32708($28)
  400768:	05 00 00 00 12 00 00 03 	beq $3,$0,4007b8 <compress+0x398>
  400770:	43 00 00 00 01 00 02 04 	addiu $2,$4,1
  400778:	34 00 00 00 0c 80 02 1c 	sw $2,-32756($28)
  400780:	55 00 00 00 01 02 10 00 	sll $2,$16,0x1
  400788:	42 00 00 00 00 02 16 02 	addu $2,$2,$22
  400790:	32 00 00 00 00 00 04 02 	sh $4,0($2)
  400798:	55 00 00 00 02 02 10 00 	sll $2,$16,0x2
  4007a0:	42 00 00 00 00 02 17 02 	addu $2,$2,$23
  4007a8:	34 00 00 00 00 00 11 02 	sw $17,0($2)
  4007b0:	01 00 00 00 88 01 10 00 	j 400620 <compress+0x200>
  4007b8:	28 00 00 00 38 80 02 1c 	lw $2,-32712($28)
  4007c0:	28 00 00 00 2c 80 03 1c 	lw $3,-32724($28)
  4007c8:	5b 00 00 00 00 02 03 02 	slt $2,$2,$3
  4007d0:	06 00 00 00 92 ff 00 02 	bne $2,$0,400620 <compress+0x200>
  4007d8:	28 00 00 00 20 80 02 1c 	lw $2,-32736($28)
  4007e0:	05 00 00 00 8e ff 00 02 	beq $2,$0,400620 <compress+0x200>
  4007e8:	02 00 00 00 18 05 10 00 	jal 401460 <cl_block>
  4007f0:	01 00 00 00 88 01 10 00 	j 400620 <compress+0x200>
  4007f8:	42 00 00 00 00 04 13 00 	addu $4,$0,$19
  400800:	02 00 00 00 48 02 10 00 	jal 400920 <output>
  400808:	28 00 00 00 3c 80 02 1c 	lw $2,-32708($28)
  400810:	43 00 00 00 ff ff 04 00 	addiu $4,$0,-1
  400818:	43 00 00 00 01 00 02 02 	addiu $2,$2,1
  400820:	34 00 00 00 3c 80 02 1c 	sw $2,-32708($28)
  400828:	02 00 00 00 48 02 10 00 	jal 400920 <output>
  400830:	28 00 00 00 18 80 02 1c 	lw $2,-32744($28)
  400838:	06 00 00 00 16 00 00 02 	bne $2,$0,400898 <compress+0x478>
  400840:	28 00 00 00 1c 80 02 1c 	lw $2,-32740($28)
  400848:	06 00 00 00 12 00 00 02 	bne $2,$0,400898 <compress+0x478>
  400850:	28 00 00 00 98 80 04 1c 	lw $4,-32616($28)
  400858:	a2 00 00 00 00 10 05 00 	lui $5,4096
  400860:	43 00 00 00 60 00 05 05 	addiu $5,$5,96
  400868:	02 00 00 00 54 0b 10 00 	jal 402d50 <fprintf>
  400870:	28 00 00 00 38 80 06 1c 	lw $6,-32712($28)
  400878:	28 00 00 00 78 84 05 1c 	lw $5,-31624($28)
  400880:	28 00 00 00 98 80 04 1c 	lw $4,-32616($28)
  400888:	45 00 00 00 00 05 05 06 	subu $5,$6,$5
  400890:	02 00 00 00 c6 05 10 00 	jal 401718 <prratio>
  400898:	28 00 00 00 78 84 03 1c 	lw $3,-31624($28)
  4008a0:	28 00 00 00 38 80 02 1c 	lw $2,-32712($28)
  4008a8:	5b 00 00 00 00 02 03 02 	slt $2,$2,$3
  4008b0:	05 00 00 00 04 00 00 02 	beq $2,$0,4008c8 <compress+0x4a8>
  4008b8:	43 00 00 00 02 00 02 00 	addiu $2,$0,2
  4008c0:	34 00 00 00 10 80 02 1c 	sw $2,-32752($28)
  4008c8:	28 00 00 00 30 00 1f 1d 	lw $31,48($29)
  4008d0:	28 00 00 00 2c 00 17 1d 	lw $23,44($29)
  4008d8:	28 00 00 00 28 00 16 1d 	lw $22,40($29)
  4008e0:	28 00 00 00 24 00 15 1d 	lw $21,36($29)
  4008e8:	28 00 00 00 20 00 14 1d 	lw $20,32($29)
  4008f0:	28 00 00 00 1c 00 13 1d 	lw $19,28($29)
  4008f8:	28 00 00 00 18 00 12 1d 	lw $18,24($29)
  400900:	28 00 00 00 14 00 11 1d 	lw $17,20($29)
  400908:	28 00 00 00 10 00 10 1d 	lw $16,16($29)
  400910:	43 00 00 00 38 00 1d 1d 	addiu $29,$29,56
  400918:	03 00 00 00 00 00 00 1f 	jr $31

00400920 <output>:
  400920:	28 00 00 00 40 84 07 1c 	lw $7,-31680($28)
  400928:	43 00 00 00 e0 ff 1d 1d 	addiu $29,$29,-32
  400930:	34 00 00 00 14 00 11 1d 	sw $17,20($29)
  400938:	28 00 00 00 7c 84 11 1c 	lw $17,-31620($28)
  400940:	42 00 00 00 00 08 04 00 	addu $8,$0,$4
  400948:	34 00 00 00 10 00 10 1d 	sw $16,16($29)
  400950:	a2 00 00 00 01 10 10 00 	lui $16,4097
  400958:	43 00 00 00 80 27 10 10 	addiu $16,$16,10112
  400960:	34 00 00 00 18 00 1f 1d 	sw $31,24($29)
  400968:	09 00 00 00 aa 00 00 08 	bltz $8,400c18 <output+0x2f8>
  400970:	59 00 00 00 03 02 07 00 	sra $2,$7,0x3
  400978:	42 00 00 00 00 10 10 02 	addu $16,$2,$16
  400980:	4f 00 00 00 07 00 07 07 	andi $7,$7,7
  400988:	43 00 00 00 f8 ff 02 11 	addiu $2,$17,-8
  400990:	42 00 00 00 00 11 07 02 	addu $17,$2,$7
  400998:	22 00 00 00 00 00 03 10 	lbu $3,0($16)
  4009a0:	a2 00 00 00 00 10 06 00 	lui $6,4096
  4009a8:	42 00 00 00 00 06 07 06 	addu $6,$6,$7
  4009b0:	22 00 00 00 48 16 06 06 	lbu $6,5704($6)
  4009b8:	56 00 00 00 00 04 08 07 	sllv $4,$8,$7
  4009c0:	a2 00 00 00 00 10 05 00 	lui $5,4096
  4009c8:	42 00 00 00 00 05 07 05 	addu $5,$5,$7
  4009d0:	22 00 00 00 3c 16 05 05 	lbu $5,5692($5)
  4009d8:	43 00 00 00 08 00 02 00 	addiu $2,$0,8
  4009e0:	45 00 00 00 00 02 07 02 	subu $2,$2,$7
  4009e8:	5a 00 00 00 00 08 08 02 	srav $8,$8,$2
  4009f0:	5c 00 00 00 08 00 02 11 	slti $2,$17,8
  4009f8:	4e 00 00 00 00 03 06 03 	and $3,$3,$6
  400a00:	4e 00 00 00 00 04 05 04 	and $4,$4,$5
  400a08:	50 00 00 00 00 03 04 03 	or $3,$3,$4
  400a10:	30 00 00 00 00 00 03 10 	sb $3,0($16)
  400a18:	43 00 00 00 01 00 10 10 	addiu $16,$16,1
  400a20:	06 00 00 00 08 00 00 02 	bne $2,$0,400a48 <output+0x128>
  400a28:	30 00 00 00 00 00 08 10 	sb $8,0($16)
  400a30:	43 00 00 00 01 00 10 10 	addiu $16,$16,1
  400a38:	59 00 00 00 08 08 08 00 	sra $8,$8,0x8
  400a40:	43 00 00 00 f8 ff 11 11 	addiu $17,$17,-8
  400a48:	05 00 00 00 02 00 00 11 	beq $17,$0,400a58 <output+0x138>
  400a50:	30 00 00 00 00 00 08 10 	sb $8,0($16)
  400a58:	28 00 00 00 40 84 02 1c 	lw $2,-31680($28)
  400a60:	28 00 00 00 7c 84 04 1c 	lw $4,-31620($28)
  400a68:	42 00 00 00 00 02 04 02 	addu $2,$2,$4
  400a70:	55 00 00 00 03 03 04 00 	sll $3,$4,0x3
  400a78:	34 00 00 00 40 84 02 1c 	sw $2,-31680($28)
  400a80:	06 00 00 00 18 00 03 02 	bne $2,$3,400ae8 <output+0x1c8>
  400a88:	28 00 00 00 78 84 02 1c 	lw $2,-31624($28)
  400a90:	a2 00 00 00 01 10 10 00 	lui $16,4097
  400a98:	43 00 00 00 80 27 10 10 	addiu $16,$16,10112
  400aa0:	42 00 00 00 00 11 04 00 	addu $17,$0,$4
  400aa8:	42 00 00 00 00 02 02 11 	addu $2,$17,$2
  400ab0:	34 00 00 00 78 84 02 1c 	sw $2,-31624($28)
  400ab8:	20 00 00 00 00 00 04 10 	lb $4,0($16)
  400ac0:	43 00 00 00 ff ff 11 11 	addiu $17,$17,-1
  400ac8:	43 00 00 00 01 00 10 10 	addiu $16,$16,1
  400ad0:	02 00 00 00 aa 06 10 00 	jal 401aa8 <putbyte>
  400ad8:	06 00 00 00 f6 ff 00 11 	bne $17,$0,400ab8 <output+0x198>
  400ae0:	34 00 00 00 40 84 00 1c 	sw $0,-31680($28)
  400ae8:	28 00 00 00 0c 80 03 1c 	lw $3,-32756($28)
  400af0:	28 00 00 00 84 84 02 1c 	lw $2,-31612($28)
  400af8:	5b 00 00 00 00 02 03 02 	slt $2,$2,$3
  400b00:	06 00 00 00 04 00 00 02 	bne $2,$0,400b18 <output+0x1f8>
  400b08:	28 00 00 00 24 80 02 1c 	lw $2,-32732($28)
  400b10:	07 00 00 00 60 00 00 02 	blez $2,400c98 <output+0x378>
  400b18:	28 00 00 00 40 84 02 1c 	lw $2,-31680($28)
  400b20:	07 00 00 00 10 00 00 02 	blez $2,400b68 <output+0x248>
  400b28:	28 00 00 00 7c 84 05 1c 	lw $5,-31620($28)
  400b30:	a2 00 00 00 01 10 04 00 	lui $4,4097
  400b38:	43 00 00 00 80 27 04 04 	addiu $4,$4,10112
  400b40:	02 00 00 00 e6 06 10 00 	jal 401b98 <writebytes>
  400b48:	28 00 00 00 78 84 02 1c 	lw $2,-31624($28)
  400b50:	28 00 00 00 7c 84 03 1c 	lw $3,-31620($28)
  400b58:	42 00 00 00 00 02 03 02 	addu $2,$2,$3
  400b60:	34 00 00 00 78 84 02 1c 	sw $2,-31624($28)
  400b68:	28 00 00 00 24 80 02 1c 	lw $2,-32732($28)
  400b70:	34 00 00 00 40 84 00 1c 	sw $0,-31680($28)
  400b78:	05 00 00 00 0c 00 00 02 	beq $2,$0,400bb0 <output+0x290>
  400b80:	43 00 00 00 09 00 02 00 	addiu $2,$0,9
  400b88:	34 00 00 00 7c 84 02 1c 	sw $2,-31620($28)
  400b90:	43 00 00 00 ff 01 02 00 	addiu $2,$0,511
  400b98:	34 00 00 00 84 84 02 1c 	sw $2,-31612($28)
  400ba0:	34 00 00 00 24 80 00 1c 	sw $0,-32732($28)
  400ba8:	01 00 00 00 26 03 10 00 	j 400c98 <output+0x378>
  400bb0:	28 00 00 00 7c 84 02 1c 	lw $2,-31620($28)
  400bb8:	28 00 00 00 00 80 03 1c 	lw $3,-32768($28)
  400bc0:	43 00 00 00 01 00 04 02 	addiu $4,$2,1
  400bc8:	34 00 00 00 7c 84 04 1c 	sw $4,-31620($28)
  400bd0:	06 00 00 00 06 00 03 04 	bne $4,$3,400bf0 <output+0x2d0>
  400bd8:	28 00 00 00 04 80 02 1c 	lw $2,-32764($28)
  400be0:	34 00 00 00 84 84 02 1c 	sw $2,-31612($28)
  400be8:	01 00 00 00 26 03 10 00 	j 400c98 <output+0x378>
  400bf0:	43 00 00 00 01 00 02 00 	addiu $2,$0,1
  400bf8:	56 00 00 00 00 02 02 04 	sllv $2,$2,$4
  400c00:	43 00 00 00 ff ff 02 02 	addiu $2,$2,-1
  400c08:	34 00 00 00 84 84 02 1c 	sw $2,-31612($28)
  400c10:	01 00 00 00 26 03 10 00 	j 400c98 <output+0x378>
  400c18:	07 00 00 00 0c 00 00 07 	blez $7,400c50 <output+0x330>
  400c20:	43 00 00 00 07 00 05 07 	addiu $5,$7,7
  400c28:	0a 00 00 00 02 00 00 05 	bgez $5,400c38 <output+0x318>
  400c30:	43 00 00 00 0e 00 05 07 	addiu $5,$7,14
  400c38:	42 00 00 00 00 04 10 00 	addu $4,$0,$16
  400c40:	59 00 00 00 03 05 05 00 	sra $5,$5,0x3
  400c48:	02 00 00 00 e6 06 10 00 	jal 401b98 <writebytes>
  400c50:	28 00 00 00 40 84 03 1c 	lw $3,-31680($28)
  400c58:	43 00 00 00 07 00 02 03 	addiu $2,$3,7
  400c60:	0a 00 00 00 02 00 00 02 	bgez $2,400c70 <output+0x350>
  400c68:	43 00 00 00 0e 00 02 03 	addiu $2,$3,14
  400c70:	28 00 00 00 78 84 03 1c 	lw $3,-31624($28)
  400c78:	59 00 00 00 03 02 02 00 	sra $2,$2,0x3
  400c80:	34 00 00 00 40 84 00 1c 	sw $0,-31680($28)
  400c88:	42 00 00 00 00 02 03 02 	addu $2,$2,$3
  400c90:	34 00 00 00 78 84 02 1c 	sw $2,-31624($28)
  400c98:	28 00 00 00 18 00 1f 1d 	lw $31,24($29)
  400ca0:	28 00 00 00 14 00 11 1d 	lw $17,20($29)
  400ca8:	28 00 00 00 10 00 10 1d 	lw $16,16($29)
  400cb0:	43 00 00 00 20 00 1d 1d 	addiu $29,$29,32
  400cb8:	03 00 00 00 00 00 00 1f 	jr $31

00400cc0 <decompress>:
  400cc0:	43 00 00 00 d0 ff 1d 1d 	addiu $29,$29,-48
  400cc8:	43 00 00 00 ff 00 03 00 	addiu $3,$0,255
  400cd0:	a2 00 00 00 05 10 04 00 	lui $4,4101
  400cd8:	43 00 00 00 2e 64 04 04 	addiu $4,$4,25646
  400ce0:	43 00 00 00 09 00 02 00 	addiu $2,$0,9
  400ce8:	34 00 00 00 7c 84 02 1c 	sw $2,-31620($28)
  400cf0:	43 00 00 00 ff 01 02 00 	addiu $2,$0,511
  400cf8:	34 00 00 00 2c 00 1f 1d 	sw $31,44($29)
  400d00:	34 00 00 00 28 00 16 1d 	sw $22,40($29)
  400d08:	34 00 00 00 24 00 15 1d 	sw $21,36($29)
  400d10:	34 00 00 00 20 00 14 1d 	sw $20,32($29)
  400d18:	34 00 00 00 1c 00 13 1d 	sw $19,28($29)
  400d20:	34 00 00 00 18 00 12 1d 	sw $18,24($29)
  400d28:	34 00 00 00 14 00 11 1d 	sw $17,20($29)
  400d30:	34 00 00 00 10 00 10 1d 	sw $16,16($29)
  400d38:	34 00 00 00 84 84 02 1c 	sw $2,-31612($28)
  400d40:	32 00 00 00 00 00 00 04 	sh $0,0($4)
  400d48:	43 00 00 00 fe ff 04 04 	addiu $4,$4,-2
  400d50:	a2 00 00 00 01 10 01 00 	lui $1,4097
  400d58:	42 00 00 00 00 01 03 01 	addu $1,$1,$3
  400d60:	30 00 00 00 90 2b 03 01 	sb $3,11152($1)
  400d68:	43 00 00 00 ff ff 03 03 	addiu $3,$3,-1
  400d70:	0a 00 00 00 f2 ff 00 03 	bgez $3,400d40 <decompress+0x80>
  400d78:	28 00 00 00 20 80 02 1c 	lw $2,-32736($28)
  400d80:	43 00 00 00 00 01 03 00 	addiu $3,$0,256
  400d88:	05 00 00 00 02 00 00 02 	beq $2,$0,400d98 <decompress+0xd8>
  400d90:	43 00 00 00 01 01 03 00 	addiu $3,$0,257
  400d98:	34 00 00 00 0c 80 03 1c 	sw $3,-32756($28)
  400da0:	02 00 00 00 12 04 10 00 	jal 401048 <getcode>
  400da8:	42 00 00 00 00 12 02 00 	addu $18,$0,$2
  400db0:	42 00 00 00 00 11 12 00 	addu $17,$0,$18
  400db8:	43 00 00 00 ff ff 02 00 	addiu $2,$0,-1
  400dc0:	05 00 00 00 8c 00 02 12 	beq $18,$2,400ff8 <decompress+0x338>
  400dc8:	55 00 00 00 18 04 12 00 	sll $4,$18,0x18
  400dd0:	59 00 00 00 18 04 04 00 	sra $4,$4,0x18
  400dd8:	02 00 00 00 aa 06 10 00 	jal 401aa8 <putbyte>
  400de0:	a2 00 00 00 02 10 10 00 	lui $16,4098
  400de8:	43 00 00 00 90 2b 10 10 	addiu $16,$16,11152
  400df0:	43 00 00 00 00 01 15 00 	addiu $21,$0,256
  400df8:	a2 00 00 00 05 10 14 00 	lui $20,4101
  400e00:	43 00 00 00 30 62 14 14 	addiu $20,$20,25136
  400e08:	42 00 00 00 00 16 10 00 	addu $22,$0,$16
  400e10:	02 00 00 00 12 04 10 00 	jal 401048 <getcode>
  400e18:	42 00 00 00 00 03 02 00 	addu $3,$0,$2
  400e20:	09 00 00 00 74 00 00 03 	bltz $3,400ff8 <decompress+0x338>
  400e28:	06 00 00 00 1e 00 15 03 	bne $3,$21,400ea8 <decompress+0x1e8>
  400e30:	28 00 00 00 20 80 02 1c 	lw $2,-32736($28)
  400e38:	05 00 00 00 1a 00 00 02 	beq $2,$0,400ea8 <decompress+0x1e8>
  400e40:	43 00 00 00 ff 00 03 00 	addiu $3,$0,255
  400e48:	43 00 00 00 fe 01 02 14 	addiu $2,$20,510
  400e50:	32 00 00 00 00 00 00 02 	sh $0,0($2)
  400e58:	43 00 00 00 fe ff 02 02 	addiu $2,$2,-2
  400e60:	43 00 00 00 ff ff 03 03 	addiu $3,$3,-1
  400e68:	0a 00 00 00 f8 ff 00 03 	bgez $3,400e50 <decompress+0x190>
  400e70:	43 00 00 00 01 00 02 00 	addiu $2,$0,1
  400e78:	34 00 00 00 24 80 02 1c 	sw $2,-32732($28)
  400e80:	34 00 00 00 0c 80 15 1c 	sw $21,-32756($28)
  400e88:	02 00 00 00 12 04 10 00 	jal 401048 <getcode>
  400e90:	42 00 00 00 00 03 02 00 	addu $3,$0,$2
  400e98:	43 00 00 00 ff ff 02 00 	addiu $2,$0,-1
  400ea0:	05 00 00 00 54 00 02 03 	beq $3,$2,400ff8 <decompress+0x338>
  400ea8:	28 00 00 00 0c 80 02 1c 	lw $2,-32756($28)
  400eb0:	42 00 00 00 00 13 03 00 	addu $19,$0,$3
  400eb8:	5b 00 00 00 00 02 02 13 	slt $2,$19,$2
  400ec0:	06 00 00 00 18 00 00 02 	bne $2,$0,400f28 <decompress+0x268>
  400ec8:	30 00 00 00 00 00 11 10 	sb $17,0($16)
  400ed0:	43 00 00 00 01 00 10 10 	addiu $16,$16,1
  400ed8:	42 00 00 00 00 03 12 00 	addu $3,$0,$18
  400ee0:	01 00 00 00 ca 03 10 00 	j 400f28 <decompress+0x268>
  400ee8:	a2 00 00 00 01 10 02 00 	lui $2,4097
  400ef0:	42 00 00 00 00 02 03 02 	addu $2,$2,$3
  400ef8:	22 00 00 00 90 2b 02 02 	lbu $2,11152($2)
  400f00:	30 00 00 00 00 00 02 10 	sb $2,0($16)
  400f08:	55 00 00 00 01 02 03 00 	sll $2,$3,0x1
  400f10:	42 00 00 00 00 02 14 02 	addu $2,$2,$20
  400f18:	26 00 00 00 00 00 03 02 	lhu $3,0($2)
  400f20:	43 00 00 00 01 00 10 10 	addiu $16,$16,1
  400f28:	5c 00 00 00 00 01 02 03 	slti $2,$3,256
  400f30:	05 00 00 00 ec ff 00 02 	beq $2,$0,400ee8 <decompress+0x228>
  400f38:	a2 00 00 00 01 10 11 00 	lui $17,4097
  400f40:	42 00 00 00 00 11 03 11 	addu $17,$17,$3
  400f48:	22 00 00 00 90 2b 11 11 	lbu $17,11152($17)
  400f50:	30 00 00 00 00 00 11 10 	sb $17,0($16)
  400f58:	43 00 00 00 01 00 10 10 	addiu $16,$16,1
  400f60:	43 00 00 00 ff ff 10 10 	addiu $16,$16,-1
  400f68:	22 00 00 00 00 00 04 10 	lbu $4,0($16)
  400f70:	02 00 00 00 aa 06 10 00 	jal 401aa8 <putbyte>
  400f78:	5d 00 00 00 00 02 10 16 	sltu $2,$22,$16
  400f80:	06 00 00 00 f6 ff 00 02 	bne $2,$0,400f60 <decompress+0x2a0>
  400f88:	28 00 00 00 0c 80 03 1c 	lw $3,-32756($28)
  400f90:	28 00 00 00 04 80 02 1c 	lw $2,-32764($28)
  400f98:	5b 00 00 00 00 02 02 03 	slt $2,$3,$2
  400fa0:	05 00 00 00 10 00 00 02 	beq $2,$0,400fe8 <decompress+0x328>
  400fa8:	55 00 00 00 01 02 03 00 	sll $2,$3,0x1
  400fb0:	42 00 00 00 00 02 14 02 	addu $2,$2,$20
  400fb8:	32 00 00 00 00 00 12 02 	sh $18,0($2)
  400fc0:	43 00 00 00 01 00 02 03 	addiu $2,$3,1
  400fc8:	a2 00 00 00 01 10 01 00 	lui $1,4097
  400fd0:	42 00 00 00 00 01 03 01 	addu $1,$1,$3
  400fd8:	30 00 00 00 90 2b 11 01 	sb $17,11152($1)
  400fe0:	34 00 00 00 0c 80 02 1c 	sw $2,-32756($28)
  400fe8:	42 00 00 00 00 12 13 00 	addu $18,$0,$19
  400ff0:	01 00 00 00 84 03 10 00 	j 400e10 <decompress+0x150>
  400ff8:	28 00 00 00 2c 00 1f 1d 	lw $31,44($29)
  401000:	28 00 00 00 28 00 16 1d 	lw $22,40($29)
  401008:	28 00 00 00 24 00 15 1d 	lw $21,36($29)
  401010:	28 00 00 00 20 00 14 1d 	lw $20,32($29)
  401018:	28 00 00 00 1c 00 13 1d 	lw $19,28($29)
  401020:	28 00 00 00 18 00 12 1d 	lw $18,24($29)
  401028:	28 00 00 00 14 00 11 1d 	lw $17,20($29)
  401030:	28 00 00 00 10 00 10 1d 	lw $16,16($29)
  401038:	43 00 00 00 30 00 1d 1d 	addiu $29,$29,48
  401040:	03 00 00 00 00 00 00 1f 	jr $31

00401048 <getcode>:
  401048:	28 00 00 00 24 80 02 1c 	lw $2,-32732($28)
  401050:	43 00 00 00 e8 ff 1d 1d 	addiu $29,$29,-24
  401058:	34 00 00 00 10 00 10 1d 	sw $16,16($29)
  401060:	a2 00 00 00 01 10 10 00 	lui $16,4097
  401068:	43 00 00 00 70 27 10 10 	addiu $16,$16,10096
  401070:	34 00 00 00 14 00 1f 1d 	sw $31,20($29)
  401078:	08 00 00 00 10 00 00 02 	bgtz $2,4010c0 <getcode+0x78>
  401080:	28 00 00 00 40 80 02 1c 	lw $2,-32704($28)
  401088:	28 00 00 00 44 80 03 1c 	lw $3,-32700($28)
  401090:	5b 00 00 00 00 02 03 02 	slt $2,$2,$3
  401098:	05 00 00 00 08 00 00 02 	beq $2,$0,4010c0 <getcode+0x78>
  4010a0:	28 00 00 00 0c 80 03 1c 	lw $3,-32756($28)
  4010a8:	28 00 00 00 84 84 02 1c 	lw $2,-31612($28)
  4010b0:	5b 00 00 00 00 02 03 02 	slt $2,$2,$3
  4010b8:	05 00 00 00 48 00 00 02 	beq $2,$0,4011e0 <getcode+0x198>
  4010c0:	28 00 00 00 0c 80 03 1c 	lw $3,-32756($28)
  4010c8:	28 00 00 00 84 84 02 1c 	lw $2,-31612($28)
  4010d0:	5b 00 00 00 00 02 03 02 	slt $2,$2,$3
  4010d8:	05 00 00 00 16 00 00 02 	beq $2,$0,401138 <getcode+0xf0>
  4010e0:	28 00 00 00 7c 84 02 1c 	lw $2,-31620($28)
  4010e8:	28 00 00 00 00 80 03 1c 	lw $3,-32768($28)
  4010f0:	43 00 00 00 01 00 04 02 	addiu $4,$2,1
  4010f8:	34 00 00 00 7c 84 04 1c 	sw $4,-31620($28)
  401100:	06 00 00 00 04 00 03 04 	bne $4,$3,401118 <getcode+0xd0>
  401108:	28 00 00 00 04 80 02 1c 	lw $2,-32764($28)
  401110:	01 00 00 00 4c 04 10 00 	j 401130 <getcode+0xe8>
  401118:	43 00 00 00 01 00 02 00 	addiu $2,$0,1
  401120:	56 00 00 00 00 02 02 04 	sllv $2,$2,$4
  401128:	43 00 00 00 ff ff 02 02 	addiu $2,$2,-1
  401130:	34 00 00 00 84 84 02 1c 	sw $2,-31612($28)
  401138:	28 00 00 00 24 80 02 1c 	lw $2,-32732($28)
  401140:	07 00 00 00 0a 00 00 02 	blez $2,401170 <getcode+0x128>
  401148:	43 00 00 00 09 00 02 00 	addiu $2,$0,9
  401150:	34 00 00 00 7c 84 02 1c 	sw $2,-31620($28)
  401158:	43 00 00 00 ff 01 02 00 	addiu $2,$0,511
  401160:	34 00 00 00 84 84 02 1c 	sw $2,-31612($28)
  401168:	34 00 00 00 24 80 00 1c 	sw $0,-32732($28)
  401170:	28 00 00 00 7c 84 05 1c 	lw $5,-31620($28)
  401178:	a2 00 00 00 01 10 04 00 	lui $4,4097
  401180:	43 00 00 00 70 27 04 04 	addiu $4,$4,10096
  401188:	02 00 00 00 b4 06 10 00 	jal 401ad0 <readbytes>
  401190:	34 00 00 00 44 80 02 1c 	sw $2,-32700($28)
  401198:	08 00 00 00 04 00 00 02 	bgtz $2,4011b0 <getcode+0x168>
  4011a0:	43 00 00 00 ff ff 02 00 	addiu $2,$0,-1
  4011a8:	01 00 00 00 b6 04 10 00 	j 4012d8 <getcode+0x290>
  4011b0:	28 00 00 00 7c 84 03 1c 	lw $3,-31620($28)
  4011b8:	55 00 00 00 03 02 02 00 	sll $2,$2,0x3
  4011c0:	43 00 00 00 01 00 02 02 	addiu $2,$2,1
  4011c8:	34 00 00 00 40 80 00 1c 	sw $0,-32704($28)
  4011d0:	45 00 00 00 00 02 03 02 	subu $2,$2,$3
  4011d8:	34 00 00 00 44 80 02 1c 	sw $2,-32700($28)
  4011e0:	28 00 00 00 40 80 05 1c 	lw $5,-32704($28)
  4011e8:	28 00 00 00 7c 84 04 1c 	lw $4,-31620($28)
  4011f0:	59 00 00 00 03 02 05 00 	sra $2,$5,0x3
  4011f8:	42 00 00 00 00 10 02 10 	addu $16,$16,$2
  401200:	4f 00 00 00 07 00 05 05 	andi $5,$5,7
  401208:	22 00 00 00 00 00 03 10 	lbu $3,0($16)
  401210:	43 00 00 00 f8 ff 02 04 	addiu $2,$4,-8
  401218:	42 00 00 00 00 04 05 02 	addu $4,$2,$5
  401220:	43 00 00 00 08 00 02 00 	addiu $2,$0,8
  401228:	5a 00 00 00 00 06 03 05 	srav $6,$3,$5
  401230:	43 00 00 00 01 00 10 10 	addiu $16,$16,1
  401238:	45 00 00 00 00 05 05 02 	subu $5,$2,$5
  401240:	5c 00 00 00 08 00 02 04 	slti $2,$4,8
  401248:	06 00 00 00 0c 00 00 02 	bne $2,$0,401280 <getcode+0x238>
  401250:	22 00 00 00 00 00 02 10 	lbu $2,0($16)
  401258:	43 00 00 00 f8 ff 04 04 	addiu $4,$4,-8
  401260:	56 00 00 00 00 02 02 05 	sllv $2,$2,$5
  401268:	50 00 00 00 00 06 02 06 	or $6,$6,$2
  401270:	43 00 00 00 01 00 10 10 	addiu $16,$16,1
  401278:	43 00 00 00 08 00 05 05 	addiu $5,$5,8
  401280:	22 00 00 00 00 00 02 10 	lbu $2,0($16)
  401288:	a2 00 00 00 00 10 03 00 	lui $3,4096
  401290:	42 00 00 00 00 03 04 03 	addu $3,$3,$4
  401298:	22 00 00 00 48 16 03 03 	lbu $3,5704($3)
  4012a0:	4e 00 00 00 00 02 03 02 	and $2,$2,$3
  4012a8:	28 00 00 00 40 80 03 1c 	lw $3,-32704($28)
  4012b0:	28 00 00 00 7c 84 04 1c 	lw $4,-31620($28)
  4012b8:	56 00 00 00 00 02 02 05 	sllv $2,$2,$5
  4012c0:	50 00 00 00 00 02 02 06 	or $2,$6,$2
  4012c8:	42 00 00 00 00 03 04 03 	addu $3,$3,$4
  4012d0:	34 00 00 00 40 80 03 1c 	sw $3,-32704($28)
  4012d8:	28 00 00 00 14 00 1f 1d 	lw $31,20($29)
  4012e0:	28 00 00 00 10 00 10 1d 	lw $16,16($29)
  4012e8:	43 00 00 00 18 00 1d 1d 	addiu $29,$29,24
  4012f0:	03 00 00 00 00 00 00 1f 	jr $31

004012f8 <rindex>:
  4012f8:	22 00 00 00 00 00 03 04 	lbu $3,0($4)
  401300:	20 00 00 00 00 00 02 04 	lb $2,0($4)
  401308:	43 00 00 00 f0 ff 1d 1d 	addiu $29,$29,-16
  401310:	42 00 00 00 00 06 00 00 	addu $6,$0,$0
  401318:	05 00 00 00 14 00 00 02 	beq $2,$0,401370 <rindex+0x78>
  401320:	55 00 00 00 18 02 05 00 	sll $2,$5,0x18
  401328:	59 00 00 00 18 05 02 00 	sra $5,$2,0x18
  401330:	55 00 00 00 18 02 03 00 	sll $2,$3,0x18
  401338:	59 00 00 00 18 02 02 00 	sra $2,$2,0x18
  401340:	06 00 00 00 02 00 05 02 	bne $2,$5,401350 <rindex+0x58>
  401348:	42 00 00 00 00 06 04 00 	addu $6,$0,$4
  401350:	43 00 00 00 01 00 04 04 	addiu $4,$4,1
  401358:	20 00 00 00 00 00 02 04 	lb $2,0($4)
  401360:	22 00 00 00 00 00 03 04 	lbu $3,0($4)
  401368:	06 00 00 00 f0 ff 00 02 	bne $2,$0,401330 <rindex+0x38>
  401370:	42 00 00 00 00 02 06 00 	addu $2,$0,$6
  401378:	43 00 00 00 10 00 1d 1d 	addiu $29,$29,16
  401380:	03 00 00 00 00 00 00 1f 	jr $31

00401388 <onintr>:
  401388:	43 00 00 00 e8 ff 1d 1d 	addiu $29,$29,-24
  401390:	34 00 00 00 10 00 1f 1d 	sw $31,16($29)
  401398:	a2 00 00 00 05 10 04 00 	lui $4,4101
  4013a0:	43 00 00 00 c0 61 04 04 	addiu $4,$4,25024
  4013a8:	02 00 00 00 68 0b 10 00 	jal 402da0 <unlink>
  4013b0:	43 00 00 00 01 00 04 00 	addiu $4,$0,1
  4013b8:	02 00 00 00 dc 0a 10 00 	jal 402b70 <exit>
  4013c0:	28 00 00 00 10 00 1f 1d 	lw $31,16($29)
  4013c8:	43 00 00 00 18 00 1d 1d 	addiu $29,$29,24
  4013d0:	03 00 00 00 00 00 00 1f 	jr $31

004013d8 <oops>:
  4013d8:	28 00 00 00 34 80 03 1c 	lw $3,-32716($28)
  4013e0:	43 00 00 00 e8 ff 1d 1d 	addiu $29,$29,-24
  4013e8:	43 00 00 00 01 00 02 00 	addiu $2,$0,1
  4013f0:	34 00 00 00 10 00 1f 1d 	sw $31,16($29)
  4013f8:	06 00 00 00 08 00 02 03 	bne $3,$2,401420 <oops+0x48>
  401400:	28 00 00 00 98 80 04 1c 	lw $4,-32616($28)
  401408:	a2 00 00 00 00 10 05 00 	lui $5,4096
  401410:	43 00 00 00 70 00 05 05 	addiu $5,$5,112
  401418:	02 00 00 00 54 0b 10 00 	jal 402d50 <fprintf>
  401420:	a2 00 00 00 05 10 04 00 	lui $4,4101
  401428:	43 00 00 00 c0 61 04 04 	addiu $4,$4,25024
  401430:	02 00 00 00 68 0b 10 00 	jal 402da0 <unlink>
  401438:	43 00 00 00 01 00 04 00 	addiu $4,$0,1
  401440:	02 00 00 00 dc 0a 10 00 	jal 402b70 <exit>
  401448:	28 00 00 00 10 00 1f 1d 	lw $31,16($29)
  401450:	43 00 00 00 18 00 1d 1d 	addiu $29,$29,24
  401458:	03 00 00 00 00 00 00 1f 	jr $31

00401460 <cl_block>:
  401460:	43 00 00 00 e8 ff 1d 1d 	addiu $29,$29,-24
  401468:	28 00 00 00 38 80 04 1c 	lw $4,-32712($28)
  401470:	a2 00 00 00 7f 00 03 00 	lui $3,127
  401478:	51 00 00 00 ff ff 03 03 	ori $3,$3,65535
  401480:	34 00 00 00 10 00 1f 1d 	sw $31,16($29)
  401488:	43 00 00 00 10 27 02 04 	addiu $2,$4,10000
  401490:	5b 00 00 00 00 03 04 03 	slt $3,$3,$4
  401498:	34 00 00 00 2c 80 02 1c 	sw $2,-32724($28)
  4014a0:	05 00 00 00 20 00 00 03 	beq $3,$0,401528 <cl_block+0xc8>
  4014a8:	28 00 00 00 78 84 02 1c 	lw $2,-31624($28)
  4014b0:	59 00 00 00 08 03 02 00 	sra $3,$2,0x8
  4014b8:	06 00 00 00 06 00 00 03 	bne $3,$0,4014d8 <cl_block+0x78>
  4014c0:	a2 00 00 00 ff 7f 03 00 	lui $3,32767
  4014c8:	51 00 00 00 ff ff 03 03 	ori $3,$3,65535
  4014d0:	01 00 00 00 60 05 10 00 	j 401580 <cl_block+0x120>
  4014d8:	48 00 00 00 00 00 03 04 	div $0,$4,$3
  4014e0:	06 00 00 00 02 00 00 03 	bne $3,$0,4014f0 <cl_block+0x90>
  4014e8:	a1 00 00 00 07 00 00 00 	break 
  4014f0:	43 00 00 00 ff ff 01 00 	addiu $1,$0,-1
  4014f8:	06 00 00 00 06 00 01 03 	bne $3,$1,401518 <cl_block+0xb8>
  401500:	a2 00 00 00 00 80 01 00 	lui $1,32768
  401508:	06 00 00 00 02 00 01 04 	bne $4,$1,401518 <cl_block+0xb8>
  401510:	a1 00 00 00 06 00 00 00 	break 
  401518:	4c 00 00 00 00 03 00 00 	mflo $3
  401520:	01 00 00 00 60 05 10 00 	j 401580 <cl_block+0x120>
  401528:	28 00 00 00 78 84 02 1c 	lw $2,-31624($28)
  401530:	55 00 00 00 08 03 04 00 	sll $3,$4,0x8
  401538:	48 00 00 00 00 00 02 03 	div $0,$3,$2
  401540:	06 00 00 00 02 00 00 02 	bne $2,$0,401550 <cl_block+0xf0>
  401548:	a1 00 00 00 07 00 00 00 	break 
  401550:	43 00 00 00 ff ff 01 00 	addiu $1,$0,-1
  401558:	06 00 00 00 06 00 01 02 	bne $2,$1,401578 <cl_block+0x118>
  401560:	a2 00 00 00 00 80 01 00 	lui $1,32768
  401568:	06 00 00 00 02 00 01 03 	bne $3,$1,401578 <cl_block+0x118>
  401570:	a1 00 00 00 06 00 00 00 	break 
  401578:	4c 00 00 00 00 03 00 00 	mflo $3
  401580:	28 00 00 00 28 80 02 1c 	lw $2,-32728($28)
  401588:	5b 00 00 00 00 02 03 02 	slt $2,$2,$3
  401590:	05 00 00 00 04 00 00 02 	beq $2,$0,4015a8 <cl_block+0x148>
  401598:	34 00 00 00 28 80 03 1c 	sw $3,-32728($28)
  4015a0:	01 00 00 00 7c 05 10 00 	j 4015f0 <cl_block+0x190>
  4015a8:	28 00 00 00 08 80 04 1c 	lw $4,-32760($28)
  4015b0:	34 00 00 00 28 80 00 1c 	sw $0,-32728($28)
  4015b8:	02 00 00 00 82 05 10 00 	jal 401608 <cl_hash>
  4015c0:	43 00 00 00 00 01 04 00 	addiu $4,$0,256
  4015c8:	43 00 00 00 01 01 02 00 	addiu $2,$0,257
  4015d0:	34 00 00 00 0c 80 02 1c 	sw $2,-32756($28)
  4015d8:	43 00 00 00 01 00 02 00 	addiu $2,$0,1
  4015e0:	34 00 00 00 24 80 02 1c 	sw $2,-32732($28)
  4015e8:	02 00 00 00 48 02 10 00 	jal 400920 <output>
  4015f0:	28 00 00 00 10 00 1f 1d 	lw $31,16($29)
  4015f8:	43 00 00 00 18 00 1d 1d 	addiu $29,$29,24
  401600:	03 00 00 00 00 00 00 1f 	jr $31

00401608 <cl_hash>:
  401608:	55 00 00 00 02 03 04 00 	sll $3,$4,0x2
  401610:	a2 00 00 00 01 10 02 00 	lui $2,4097
  401618:	43 00 00 00 90 2b 02 02 	addiu $2,$2,11152
  401620:	42 00 00 00 00 03 02 03 	addu $3,$3,$2
  401628:	43 00 00 00 ff ff 05 00 	addiu $5,$0,-1
  401630:	43 00 00 00 f0 ff 04 04 	addiu $4,$4,-16
  401638:	43 00 00 00 fc ff 02 03 	addiu $2,$3,-4
  401640:	34 00 00 00 c4 ff 05 02 	sw $5,-60($2)
  401648:	34 00 00 00 c8 ff 05 02 	sw $5,-56($2)
  401650:	34 00 00 00 cc ff 05 02 	sw $5,-52($2)
  401658:	34 00 00 00 d0 ff 05 02 	sw $5,-48($2)
  401660:	34 00 00 00 d4 ff 05 02 	sw $5,-44($2)
  401668:	34 00 00 00 d8 ff 05 02 	sw $5,-40($2)
  401670:	34 00 00 00 dc ff 05 02 	sw $5,-36($2)
  401678:	34 00 00 00 e0 ff 05 02 	sw $5,-32($2)
  401680:	34 00 00 00 e4 ff 05 02 	sw $5,-28($2)
  401688:	34 00 00 00 e8 ff 05 02 	sw $5,-24($2)
  401690:	34 00 00 00 ec ff 05 02 	sw $5,-20($2)
  401698:	34 00 00 00 f0 ff 05 02 	sw $5,-16($2)
  4016a0:	34 00 00 00 f4 ff 05 02 	sw $5,-12($2)
  4016a8:	34 00 00 00 f8 ff 05 02 	sw $5,-8($2)
  4016b0:	34 00 00 00 fc ff 05 02 	sw $5,-4($2)
  4016b8:	34 00 00 00 00 00 05 02 	sw $5,0($2)
  4016c0:	43 00 00 00 c0 ff 02 02 	addiu $2,$2,-64
  4016c8:	43 00 00 00 c0 ff 03 03 	addiu $3,$3,-64
  4016d0:	43 00 00 00 f0 ff 04 04 	addiu $4,$4,-16
  4016d8:	0a 00 00 00 d8 ff 00 04 	bgez $4,401640 <cl_hash+0x38>
  4016e0:	43 00 00 00 10 00 04 04 	addiu $4,$4,16
  4016e8:	07 00 00 00 08 00 00 04 	blez $4,401710 <cl_hash+0x108>
  4016f0:	43 00 00 00 fc ff 03 03 	addiu $3,$3,-4
  4016f8:	34 00 00 00 00 00 05 03 	sw $5,0($3)
  401700:	43 00 00 00 ff ff 04 04 	addiu $4,$4,-1
  401708:	08 00 00 00 f8 ff 00 04 	bgtz $4,4016f0 <cl_hash+0xe8>
  401710:	03 00 00 00 00 00 00 1f 	jr $31

00401718 <prratio>:
  401718:	43 00 00 00 e0 ff 1d 1d 	addiu $29,$29,-32
  401720:	34 00 00 00 14 00 11 1d 	sw $17,20($29)
  401728:	42 00 00 00 00 11 04 00 	addu $17,$0,$4
  401730:	a2 00 00 00 03 00 02 00 	lui $2,3
  401738:	51 00 00 00 dc 46 02 02 	ori $2,$2,18140
  401740:	5b 00 00 00 00 02 05 02 	slt $2,$2,$5
  401748:	34 00 00 00 18 00 1f 1d 	sw $31,24($29)
  401750:	34 00 00 00 10 00 10 1d 	sw $16,16($29)
  401758:	05 00 00 00 28 00 00 02 	beq $2,$0,401800 <prratio+0xe8>
  401760:	a2 00 00 00 db 68 02 00 	lui $2,26843
  401768:	51 00 00 00 ad 8b 02 02 	ori $2,$2,35757
  401770:	46 00 00 00 00 00 02 06 	mult $6,$2
  401778:	4a 00 00 00 00 03 00 00 	mfhi $3
  401780:	4c 00 00 00 00 02 00 00 	mflo $2
  401788:	57 00 00 00 00 02 03 00 	srl $2,$3,0x0
  401790:	42 00 00 00 00 03 00 00 	addu $3,$0,$0
  401798:	59 00 00 00 0c 02 02 00 	sra $2,$2,0xc
  4017a0:	59 00 00 00 1f 04 06 00 	sra $4,$6,0x1f
  4017a8:	45 00 00 00 00 02 04 02 	subu $2,$2,$4
  4017b0:	48 00 00 00 00 00 02 05 	div $0,$5,$2
  4017b8:	06 00 00 00 02 00 00 02 	bne $2,$0,4017c8 <prratio+0xb0>
  4017c0:	a1 00 00 00 07 00 00 00 	break 
  4017c8:	43 00 00 00 ff ff 01 00 	addiu $1,$0,-1
  4017d0:	06 00 00 00 06 00 01 02 	bne $2,$1,4017f0 <prratio+0xd8>
  4017d8:	a2 00 00 00 00 80 01 00 	lui $1,32768
  4017e0:	06 00 00 00 02 00 01 05 	bne $5,$1,4017f0 <prratio+0xd8>
  4017e8:	a1 00 00 00 06 00 00 00 	break 
  4017f0:	4c 00 00 00 00 10 00 00 	mflo $16
  4017f8:	01 00 00 00 20 06 10 00 	j 401880 <prratio+0x168>
  401800:	55 00 00 00 02 02 05 00 	sll $2,$5,0x2
  401808:	42 00 00 00 00 02 05 02 	addu $2,$2,$5
  401810:	55 00 00 00 03 02 02 00 	sll $2,$2,0x3
  401818:	45 00 00 00 00 02 05 02 	subu $2,$2,$5
  401820:	55 00 00 00 04 02 02 00 	sll $2,$2,0x4
  401828:	42 00 00 00 00 02 05 02 	addu $2,$2,$5
  401830:	55 00 00 00 04 02 02 00 	sll $2,$2,0x4
  401838:	48 00 00 00 00 00 06 02 	div $0,$2,$6
  401840:	06 00 00 00 02 00 00 06 	bne $6,$0,401850 <prratio+0x138>
  401848:	a1 00 00 00 07 00 00 00 	break 
  401850:	43 00 00 00 ff ff 01 00 	addiu $1,$0,-1
  401858:	06 00 00 00 06 00 01 06 	bne $6,$1,401878 <prratio+0x160>
  401860:	a2 00 00 00 00 80 01 00 	lui $1,32768
  401868:	06 00 00 00 02 00 01 02 	bne $2,$1,401878 <prratio+0x160>
  401870:	a1 00 00 00 06 00 00 00 	break 
  401878:	4c 00 00 00 00 10 00 00 	mflo $16
  401880:	0a 00 00 00 1a 00 00 10 	bgez $16,4018f0 <prratio+0x1d8>
  401888:	28 00 00 00 04 00 03 11 	lw $3,4($17)
  401890:	28 00 00 00 0c 00 02 11 	lw $2,12($17)
  401898:	5d 00 00 00 00 02 02 03 	sltu $2,$3,$2
  4018a0:	05 00 00 00 0a 00 00 02 	beq $2,$0,4018d0 <prratio+0x1b8>
  4018a8:	43 00 00 00 01 00 02 03 	addiu $2,$3,1
  4018b0:	34 00 00 00 04 00 02 11 	sw $2,4($17)
  4018b8:	43 00 00 00 2d 00 02 00 	addiu $2,$0,45
  4018c0:	30 00 00 00 00 00 02 03 	sb $2,0($3)
  4018c8:	01 00 00 00 3a 06 10 00 	j 4018e8 <prratio+0x1d0>
  4018d0:	42 00 00 00 00 04 11 00 	addu $4,$0,$17
  4018d8:	43 00 00 00 2d 00 05 00 	addiu $5,$0,45
  4018e0:	02 00 00 00 84 0f 10 00 	jal 403e10 <__flshfp>
  4018e8:	45 00 00 00 00 10 10 00 	subu $16,$0,$16
  4018f0:	a2 00 00 00 eb 51 06 00 	lui $6,20971
  4018f8:	51 00 00 00 1f 85 06 06 	ori $6,$6,34079
  401900:	46 00 00 00 00 00 06 10 	mult $16,$6
  401908:	4a 00 00 00 00 07 00 00 	mfhi $7
  401910:	4c 00 00 00 00 06 00 00 	mflo $6
  401918:	42 00 00 00 00 04 11 00 	addu $4,$0,$17
  401920:	a2 00 00 00 00 10 05 00 	lui $5,4096
  401928:	43 00 00 00 8c 00 05 05 	addiu $5,$5,140
  401930:	57 00 00 00 00 06 07 00 	srl $6,$7,0x0
  401938:	42 00 00 00 00 07 00 00 	addu $7,$0,$0
  401940:	59 00 00 00 05 06 06 00 	sra $6,$6,0x5
  401948:	59 00 00 00 1f 02 10 00 	sra $2,$16,0x1f
  401950:	45 00 00 00 00 06 02 06 	subu $6,$6,$2
  401958:	55 00 00 00 01 02 06 00 	sll $2,$6,0x1
  401960:	42 00 00 00 00 02 06 02 	addu $2,$2,$6
  401968:	55 00 00 00 03 02 02 00 	sll $2,$2,0x3
  401970:	42 00 00 00 00 02 06 02 	addu $2,$2,$6
  401978:	55 00 00 00 02 02 02 00 	sll $2,$2,0x2
  401980:	45 00 00 00 00 07 02 10 	subu $7,$16,$2
  401988:	02 00 00 00 54 0b 10 00 	jal 402d50 <fprintf>
  401990:	28 00 00 00 18 00 1f 1d 	lw $31,24($29)
  401998:	28 00 00 00 14 00 11 1d 	lw $17,20($29)
  4019a0:	28 00 00 00 10 00 10 1d 	lw $16,16($29)
  4019a8:	43 00 00 00 20 00 1d 1d 	addiu $29,$29,32
  4019b0:	03 00 00 00 00 00 00 1f 	jr $31

004019b8 <version>:
  4019b8:	43 00 00 00 e8 ff 1d 1d 	addiu $29,$29,-24
  4019c0:	28 00 00 00 98 80 04 1c 	lw $4,-32616($28)
  4019c8:	43 00 00 00 48 80 05 1c 	addiu $5,$28,-32696
  4019d0:	a2 00 00 00 00 10 06 00 	lui $6,4096
  4019d8:	43 00 00 00 04 16 06 06 	addiu $6,$6,5636
  4019e0:	34 00 00 00 10 00 1f 1d 	sw $31,16($29)
  4019e8:	02 00 00 00 54 0b 10 00 	jal 402d50 <fprintf>
  4019f0:	28 00 00 00 98 80 04 1c 	lw $4,-32616($28)
  4019f8:	a2 00 00 00 00 10 05 00 	lui $5,4096
  401a00:	43 00 00 00 98 00 05 05 	addiu $5,$5,152
  401a08:	02 00 00 00 54 0b 10 00 	jal 402d50 <fprintf>
  401a10:	28 00 00 00 98 80 04 1c 	lw $4,-32616($28)
  401a18:	a2 00 00 00 00 10 05 00 	lui $5,4096
  401a20:	43 00 00 00 a4 00 05 05 	addiu $5,$5,164
  401a28:	43 00 00 00 10 00 06 00 	addiu $6,$0,16
  401a30:	02 00 00 00 54 0b 10 00 	jal 402d50 <fprintf>
  401a38:	28 00 00 00 10 00 1f 1d 	lw $31,16($29)
  401a40:	43 00 00 00 18 00 1d 1d 	addiu $29,$29,24
  401a48:	03 00 00 00 00 00 00 1f 	jr $31

00401a50 <getbyte>:
  401a50:	28 00 00 00 80 84 03 1c 	lw $3,-31616($28)
  401a58:	08 00 00 00 04 00 00 03 	bgtz $3,401a70 <getbyte+0x20>
  401a60:	43 00 00 00 ff ff 02 00 	addiu $2,$0,-1
  401a68:	01 00 00 00 a8 06 10 00 	j 401aa0 <getbyte+0x50>
  401a70:	28 00 00 00 70 84 02 1c 	lw $2,-31632($28)
  401a78:	43 00 00 00 ff ff 03 03 	addiu $3,$3,-1
  401a80:	34 00 00 00 80 84 03 1c 	sw $3,-31616($28)
  401a88:	43 00 00 00 01 00 03 02 	addiu $3,$2,1
  401a90:	34 00 00 00 70 84 03 1c 	sw $3,-31632($28)
  401a98:	22 00 00 00 00 00 02 02 	lbu $2,0($2)
  401aa0:	03 00 00 00 00 00 00 1f 	jr $31

00401aa8 <putbyte>:
  401aa8:	28 00 00 00 74 84 03 1c 	lw $3,-31628($28)
  401ab0:	43 00 00 00 01 00 02 03 	addiu $2,$3,1
  401ab8:	34 00 00 00 74 84 02 1c 	sw $2,-31628($28)
  401ac0:	30 00 00 00 00 00 04 03 	sb $4,0($3)
  401ac8:	03 00 00 00 00 00 00 1f 	jr $31

00401ad0 <readbytes>:
  401ad0:	28 00 00 00 80 84 03 1c 	lw $3,-31616($28)
  401ad8:	43 00 00 00 f8 ff 1d 1d 	addiu $29,$29,-8
  401ae0:	08 00 00 00 04 00 00 03 	bgtz $3,401af8 <readbytes+0x28>
  401ae8:	43 00 00 00 ff ff 02 00 	addiu $2,$0,-1
  401af0:	01 00 00 00 e2 06 10 00 	j 401b88 <readbytes+0xb8>
  401af8:	5b 00 00 00 00 02 05 03 	slt $2,$3,$5
  401b00:	05 00 00 00 02 00 00 02 	beq $2,$0,401b10 <readbytes+0x40>
  401b08:	42 00 00 00 00 05 03 00 	addu $5,$0,$3
  401b10:	42 00 00 00 00 06 00 00 	addu $6,$0,$0
  401b18:	07 00 00 00 18 00 00 05 	blez $5,401b80 <readbytes+0xb0>
  401b20:	28 00 00 00 70 84 03 1c 	lw $3,-31632($28)
  401b28:	43 00 00 00 01 00 02 03 	addiu $2,$3,1
  401b30:	34 00 00 00 70 84 02 1c 	sw $2,-31632($28)
  401b38:	22 00 00 00 00 00 02 03 	lbu $2,0($3)
  401b40:	30 00 00 00 00 00 02 04 	sb $2,0($4)
  401b48:	28 00 00 00 80 84 02 1c 	lw $2,-31616($28)
  401b50:	43 00 00 00 01 00 06 06 	addiu $6,$6,1
  401b58:	43 00 00 00 01 00 04 04 	addiu $4,$4,1
  401b60:	43 00 00 00 ff ff 02 02 	addiu $2,$2,-1
  401b68:	34 00 00 00 80 84 02 1c 	sw $2,-31616($28)
  401b70:	5b 00 00 00 00 02 05 06 	slt $2,$6,$5
  401b78:	06 00 00 00 e8 ff 00 02 	bne $2,$0,401b20 <readbytes+0x50>
  401b80:	42 00 00 00 00 02 06 00 	addu $2,$0,$6
  401b88:	43 00 00 00 08 00 1d 1d 	addiu $29,$29,8
  401b90:	03 00 00 00 00 00 00 1f 	jr $31

00401b98 <writebytes>:
  401b98:	07 00 00 00 12 00 00 05 	blez $5,401be8 <writebytes+0x50>
  401ba0:	42 00 00 00 00 05 04 05 	addu $5,$5,$4
  401ba8:	28 00 00 00 74 84 03 1c 	lw $3,-31628($28)
  401bb0:	43 00 00 00 01 00 02 03 	addiu $2,$3,1
  401bb8:	34 00 00 00 74 84 02 1c 	sw $2,-31628($28)
  401bc0:	22 00 00 00 00 00 02 04 	lbu $2,0($4)
  401bc8:	43 00 00 00 01 00 04 04 	addiu $4,$4,1
  401bd0:	30 00 00 00 00 00 02 03 	sb $2,0($3)
  401bd8:	5b 00 00 00 00 02 05 04 	slt $2,$4,$5
  401be0:	06 00 00 00 f0 ff 00 02 	bne $2,$0,401ba8 <writebytes+0x10>
  401be8:	03 00 00 00 00 00 00 1f 	jr $31

00401bf0 <add_line>:
  401bf0:	42 00 00 00 00 08 05 00 	addu $8,$0,$5
  401bf8:	42 00 00 00 00 06 06 05 	addu $6,$5,$6
  401c00:	5b 00 00 00 00 02 06 05 	slt $2,$5,$6
  401c08:	05 00 00 00 0c 00 00 02 	beq $2,$0,401c40 <add_line+0x50>
  401c10:	42 00 00 00 00 05 04 05 	addu $5,$5,$4
  401c18:	30 00 00 00 00 00 07 05 	sb $7,0($5)
  401c20:	43 00 00 00 01 00 05 05 	addiu $5,$5,1
  401c28:	43 00 00 00 01 00 08 08 	addiu $8,$8,1
  401c30:	5b 00 00 00 00 02 06 08 	slt $2,$8,$6
  401c38:	06 00 00 00 f6 ff 00 02 	bne $2,$0,401c18 <add_line+0x28>
  401c40:	42 00 00 00 00 05 08 00 	addu $5,$0,$8
  401c48:	42 00 00 00 00 03 05 04 	addu $3,$4,$5
  401c50:	43 00 00 00 0a 00 02 00 	addiu $2,$0,10
  401c58:	30 00 00 00 00 00 02 03 	sb $2,0($3)
  401c60:	43 00 00 00 01 00 02 05 	addiu $2,$5,1
  401c68:	03 00 00 00 00 00 00 1f 	jr $31

00401c70 <fill_text_buffer>:
  401c70:	43 00 00 00 d8 ff 1d 1d 	addiu $29,$29,-40
  401c78:	34 00 00 00 1c 00 13 1d 	sw $19,28($29)
  401c80:	42 00 00 00 00 13 04 00 	addu $19,$0,$4
  401c88:	34 00 00 00 20 00 14 1d 	sw $20,32($29)
  401c90:	42 00 00 00 00 14 06 00 	addu $20,$0,$6
  401c98:	42 00 00 00 00 09 00 00 	addu $9,$0,$0
  401ca0:	a2 00 00 00 00 10 08 00 	lui $8,4096
  401ca8:	43 00 00 00 60 16 08 08 	addiu $8,$8,5728
  401cb0:	a2 00 00 00 e5 10 0a 00 	lui $10,4325
  401cb8:	43 00 00 00 f0 bd 0a 0a 	addiu $10,$10,-16912
  401cc0:	34 00 00 00 24 00 1f 1d 	sw $31,36($29)
  401cc8:	34 00 00 00 18 00 12 1d 	sw $18,24($29)
  401cd0:	34 00 00 00 14 00 11 1d 	sw $17,20($29)
  401cd8:	34 00 00 00 10 00 10 1d 	sw $16,16($29)
  401ce0:	42 00 00 00 00 07 00 00 	addu $7,$0,$0
  401ce8:	42 00 00 00 00 06 00 00 	addu $6,$0,$0
  401cf0:	42 00 00 00 00 03 08 00 	addu $3,$0,$8
  401cf8:	28 00 00 00 00 00 02 03 	lw $2,0($3)
  401d00:	43 00 00 00 01 00 06 06 	addiu $6,$6,1
  401d08:	42 00 00 00 00 07 02 07 	addu $7,$7,$2
  401d10:	43 00 00 00 04 00 03 03 	addiu $3,$3,4
  401d18:	5c 00 00 00 80 00 02 06 	slti $2,$6,128
  401d20:	06 00 00 00 f4 ff 00 02 	bne $2,$0,401cf8 <fill_text_buffer+0x88>
  401d28:	08 00 00 00 02 00 00 07 	bgtz $7,401d38 <fill_text_buffer+0xc8>
  401d30:	43 00 00 00 01 00 07 00 	addiu $7,$0,1
  401d38:	42 00 00 00 00 06 00 00 	addu $6,$0,$0
  401d40:	a5 00 00 00 00 00 07 02 	mtc1 $7,$f2
  401d48:	83 00 00 00 00 02 00 02 	cvt.d.w $f2,$f2
  401d50:	42 00 00 00 00 07 0a 00 	addu $7,$0,$10
  401d58:	42 00 00 00 00 03 08 00 	addu $3,$0,$8
  401d60:	2a 00 00 00 00 00 00 03 	l.s $f0,0($3)
  401d68:	83 00 00 00 00 00 00 00 	cvt.d.w $f0,$f0
  401d70:	77 00 00 00 00 00 02 00 	div.d $f0,$f0,$f2
  401d78:	43 00 00 00 04 00 03 03 	addiu $3,$3,4
  401d80:	43 00 00 00 01 00 06 06 	addiu $6,$6,1
  401d88:	5c 00 00 00 80 00 02 06 	slti $2,$6,128
  401d90:	37 00 00 00 00 00 00 07 	s.d $f0,0($7)
  401d98:	43 00 00 00 08 00 07 07 	addiu $7,$7,8
  401da0:	06 00 00 00 ee ff 00 02 	bne $2,$0,401d60 <fill_text_buffer+0xf0>
  401da8:	43 00 00 00 00 02 08 08 	addiu $8,$8,512
  401db0:	43 00 00 00 00 04 0a 0a 	addiu $10,$10,1024
  401db8:	43 00 00 00 01 00 09 09 	addiu $9,$9,1
  401dc0:	5c 00 00 00 80 00 02 09 	slti $2,$9,128
  401dc8:	06 00 00 00 c4 ff 00 02 	bne $2,$0,401ce0 <fill_text_buffer+0x70>
  401dd0:	42 00 00 00 00 09 00 00 	addu $9,$0,$0
  401dd8:	a2 00 00 00 e5 10 07 00 	lui $7,4325
  401de0:	43 00 00 00 f0 bd 07 07 	addiu $7,$7,-16912
  401de8:	43 00 00 00 01 00 06 00 	addiu $6,$0,1
  401df0:	43 00 00 00 08 00 03 07 	addiu $3,$7,8
  401df8:	2b 00 00 00 00 00 00 03 	l.d $f0,0($3)
  401e00:	2b 00 00 00 f8 ff 02 03 	l.d $f2,-8($3)
  401e08:	71 00 00 00 00 00 02 00 	add.d $f0,$f0,$f2
  401e10:	43 00 00 00 01 00 06 06 	addiu $6,$6,1
  401e18:	5c 00 00 00 80 00 02 06 	slti $2,$6,128
  401e20:	37 00 00 00 00 00 00 03 	s.d $f0,0($3)
  401e28:	43 00 00 00 08 00 03 03 	addiu $3,$3,8
  401e30:	06 00 00 00 f0 ff 00 02 	bne $2,$0,401df8 <fill_text_buffer+0x188>
  401e38:	43 00 00 00 00 04 07 07 	addiu $7,$7,1024
  401e40:	43 00 00 00 01 00 09 09 	addiu $9,$9,1
  401e48:	5c 00 00 00 80 00 02 09 	slti $2,$9,128
  401e50:	06 00 00 00 e4 ff 00 02 	bne $2,$0,401de8 <fill_text_buffer+0x178>
  401e58:	42 00 00 00 00 11 05 00 	addu $17,$0,$5
  401e60:	43 00 00 00 ff ff 13 13 	addiu $19,$19,-1
  401e68:	42 00 00 00 00 12 00 00 	addu $18,$0,$0
  401e70:	07 00 00 00 1a 00 00 13 	blez $19,401ee0 <fill_text_buffer+0x270>
  401e78:	42 00 00 00 00 10 14 00 	addu $16,$0,$20
  401e80:	43 00 00 00 01 00 12 12 	addiu $18,$18,1
  401e88:	43 00 00 00 ff ff 13 13 	addiu $19,$19,-1
  401e90:	02 00 00 00 3a 08 10 00 	jal 4020e8 <ran2>
  401e98:	55 00 00 00 18 04 11 00 	sll $4,$17,0x18
  401ea0:	a7 00 00 00 00 00 06 00 	dmfc1 $6,$f0
  401ea8:	59 00 00 00 18 04 04 00 	sra $4,$4,0x18
  401eb0:	02 00 00 00 f2 07 10 00 	jal 401fc8 <getranchar>
  401eb8:	42 00 00 00 00 05 02 00 	addu $5,$0,$2
  401ec0:	30 00 00 00 00 00 05 10 	sb $5,0($16)
  401ec8:	43 00 00 00 01 00 10 10 	addiu $16,$16,1
  401ed0:	42 00 00 00 00 11 05 00 	addu $17,$0,$5
  401ed8:	08 00 00 00 e8 ff 00 13 	bgtz $19,401e80 <fill_text_buffer+0x210>
  401ee0:	43 00 00 00 0a 00 05 00 	addiu $5,$0,10
  401ee8:	42 00 00 00 00 02 12 14 	addu $2,$20,$18
  401ef0:	30 00 00 00 00 00 05 02 	sb $5,0($2)
  401ef8:	28 00 00 00 24 00 1f 1d 	lw $31,36($29)
  401f00:	28 00 00 00 20 00 14 1d 	lw $20,32($29)
  401f08:	28 00 00 00 1c 00 13 1d 	lw $19,28($29)
  401f10:	28 00 00 00 18 00 12 1d 	lw $18,24($29)
  401f18:	28 00 00 00 14 00 11 1d 	lw $17,20($29)
  401f20:	28 00 00 00 10 00 10 1d 	lw $16,16($29)
  401f28:	43 00 00 00 28 00 1d 1d 	addiu $29,$29,40
  401f30:	03 00 00 00 00 00 00 1f 	jr $31

00401f38 <print_buffer>:
  401f38:	43 00 00 00 e0 ff 1d 1d 	addiu $29,$29,-32
  401f40:	34 00 00 00 18 00 1f 1d 	sw $31,24($29)
  401f48:	34 00 00 00 14 00 11 1d 	sw $17,20($29)
  401f50:	34 00 00 00 10 00 10 1d 	sw $16,16($29)
  401f58:	07 00 00 00 10 00 00 04 	blez $4,401fa0 <print_buffer+0x68>
  401f60:	42 00 00 00 00 10 05 00 	addu $16,$0,$5
  401f68:	42 00 00 00 00 11 10 04 	addu $17,$4,$16
  401f70:	20 00 00 00 00 00 05 10 	lb $5,0($16)
  401f78:	43 00 00 00 50 80 04 1c 	addiu $4,$28,-32688
  401f80:	02 00 00 00 54 12 10 00 	jal 404950 <printf>
  401f88:	43 00 00 00 01 00 10 10 	addiu $16,$16,1
  401f90:	5b 00 00 00 00 02 11 10 	slt $2,$16,$17
  401f98:	06 00 00 00 f4 ff 00 02 	bne $2,$0,401f70 <print_buffer+0x38>
  401fa0:	28 00 00 00 18 00 1f 1d 	lw $31,24($29)
  401fa8:	28 00 00 00 14 00 11 1d 	lw $17,20($29)
  401fb0:	28 00 00 00 10 00 10 1d 	lw $16,16($29)
  401fb8:	43 00 00 00 20 00 1d 1d 	addiu $29,$29,32
  401fc0:	03 00 00 00 00 00 00 1f 	jr $31

00401fc8 <getranchar>:
  401fc8:	55 00 00 00 18 04 04 00 	sll $4,$4,0x18
  401fd0:	59 00 00 00 0e 04 04 00 	sra $4,$4,0xe
  401fd8:	a2 00 00 00 e5 10 01 00 	lui $1,4325
  401fe0:	42 00 00 00 00 01 01 04 	addu $1,$4,$1
  401fe8:	2b 00 00 00 e8 c1 00 01 	l.d $f0,-15896($1)
  401ff0:	a8 00 00 00 00 00 06 02 	dmtc1 $6,$f2
  401ff8:	42 00 00 00 00 06 00 00 	addu $6,$0,$0
  402000:	93 00 00 00 00 00 02 00 	c.lt.d $f0,$f2
  402008:	43 00 00 00 7f 00 07 00 	addiu $7,$0,127
  402010:	0b 00 00 00 08 00 00 00 	bc1f 402038 <getranchar+0x70>
  402018:	43 00 00 00 65 00 02 00 	addiu $2,$0,101
  402020:	01 00 00 00 38 08 10 00 	j 4020e0 <getranchar+0x118>
  402028:	55 00 00 00 18 02 03 00 	sll $2,$3,0x18
  402030:	01 00 00 00 36 08 10 00 	j 4020d8 <getranchar+0x110>
  402038:	42 00 00 00 00 05 00 00 	addu $5,$0,$0
  402040:	a2 00 00 00 e5 10 02 00 	lui $2,4325
  402048:	43 00 00 00 f0 bd 02 02 	addiu $2,$2,-16912
  402050:	42 00 00 00 00 04 02 04 	addu $4,$4,$2
  402058:	42 00 00 00 00 02 07 06 	addu $2,$6,$7
  402060:	59 00 00 00 01 03 02 00 	sra $3,$2,0x1
  402068:	55 00 00 00 03 02 03 00 	sll $2,$3,0x3
  402070:	42 00 00 00 00 02 04 02 	addu $2,$2,$4
  402078:	2b 00 00 00 00 00 00 02 	l.d $f0,0($2)
  402080:	93 00 00 00 00 00 00 02 	c.lt.d $f2,$f0
  402088:	0b 00 00 00 04 00 00 00 	bc1f 4020a0 <getranchar+0xd8>
  402090:	42 00 00 00 00 07 03 00 	addu $7,$0,$3
  402098:	01 00 00 00 2e 08 10 00 	j 4020b8 <getranchar+0xf0>
  4020a0:	93 00 00 00 00 00 02 00 	c.lt.d $f0,$f2
  4020a8:	0b 00 00 00 de ff 00 00 	bc1f 402028 <getranchar+0x60>
  4020b0:	43 00 00 00 01 00 06 03 	addiu $6,$3,1
  4020b8:	43 00 00 00 01 00 05 05 	addiu $5,$5,1
  4020c0:	5c 00 00 00 07 00 02 05 	slti $2,$5,7
  4020c8:	06 00 00 00 e2 ff 00 02 	bne $2,$0,402058 <getranchar+0x90>
  4020d0:	55 00 00 00 18 02 06 00 	sll $2,$6,0x18
  4020d8:	59 00 00 00 18 02 02 00 	sra $2,$2,0x18
  4020e0:	03 00 00 00 00 00 00 1f 	jr $31

004020e8 <ran2>:
  4020e8:	28 00 00 00 90 84 04 1c 	lw $4,-31600($28)
  4020f0:	a2 00 00 00 ff 00 05 00 	lui $5,255
  4020f8:	51 00 00 00 ff ff 05 05 	ori $5,$5,65535
  402100:	2b 00 00 00 58 80 02 1c 	l.d $f2,-32680($28)
  402108:	55 00 00 00 01 02 04 00 	sll $2,$4,0x1
  402110:	42 00 00 00 00 02 04 02 	addu $2,$2,$4
  402118:	55 00 00 00 07 02 02 00 	sll $2,$2,0x7
  402120:	42 00 00 00 00 02 04 02 	addu $2,$2,$4
  402128:	55 00 00 00 04 03 02 00 	sll $3,$2,0x4
  402130:	42 00 00 00 00 02 03 02 	addu $2,$2,$3
  402138:	55 00 00 00 04 02 02 00 	sll $2,$2,0x4
  402140:	45 00 00 00 00 02 04 02 	subu $2,$2,$4
  402148:	55 00 00 00 02 03 02 00 	sll $3,$2,0x2
  402150:	45 00 00 00 00 03 02 03 	subu $3,$3,$2
  402158:	43 00 00 00 13 00 03 03 	addiu $3,$3,19
  402160:	4e 00 00 00 00 03 05 03 	and $3,$3,$5
  402168:	34 00 00 00 90 84 03 1c 	sw $3,-31600($28)
  402170:	2a 00 00 00 90 84 00 1c 	l.s $f0,-31600($28)
  402178:	83 00 00 00 00 00 00 00 	cvt.d.w $f0,$f0
  402180:	77 00 00 00 00 00 02 00 	div.d $f0,$f0,$f2
  402188:	03 00 00 00 00 00 00 1f 	jr $31

00402190 <ran>:
  402190:	28 00 00 00 90 84 06 1c 	lw $6,-31600($28)
  402198:	a2 00 00 00 4e 83 04 00 	lui $4,33614
  4021a0:	51 00 00 00 5f 0b 04 04 	ori $4,$4,2911
  4021a8:	46 00 00 00 00 00 04 06 	mult $6,$4
  4021b0:	4a 00 00 00 00 05 00 00 	mfhi $5
  4021b8:	4c 00 00 00 00 04 00 00 	mflo $4
  4021c0:	57 00 00 00 00 04 05 00 	srl $4,$5,0x0
  4021c8:	42 00 00 00 00 05 00 00 	addu $5,$0,$0
  4021d0:	42 00 00 00 00 04 04 06 	addu $4,$6,$4
  4021d8:	59 00 00 00 10 04 04 00 	sra $4,$4,0x10
  4021e0:	59 00 00 00 1f 02 06 00 	sra $2,$6,0x1f
  4021e8:	45 00 00 00 00 04 02 04 	subu $4,$4,$2
  4021f0:	55 00 00 00 04 02 04 00 	sll $2,$4,0x4
  4021f8:	45 00 00 00 00 02 04 02 	subu $2,$2,$4
  402200:	55 00 00 00 03 02 02 00 	sll $2,$2,0x3
  402208:	42 00 00 00 00 02 04 02 	addu $2,$2,$4
  402210:	55 00 00 00 05 03 02 00 	sll $3,$2,0x5
  402218:	42 00 00 00 00 02 03 02 	addu $2,$2,$3
  402220:	55 00 00 00 03 02 02 00 	sll $2,$2,0x3
  402228:	45 00 00 00 00 02 04 02 	subu $2,$2,$4
  402230:	55 00 00 00 02 02 02 00 	sll $2,$2,0x2
  402238:	42 00 00 00 00 02 04 02 	addu $2,$2,$4
  402240:	45 00 00 00 00 06 02 06 	subu $6,$6,$2
  402248:	55 00 00 00 02 03 06 00 	sll $3,$6,0x2
  402250:	42 00 00 00 00 03 06 03 	addu $3,$3,$6
  402258:	55 00 00 00 04 02 03 00 	sll $2,$3,0x4
  402260:	45 00 00 00 00 02 03 02 	subu $2,$2,$3
  402268:	55 00 00 00 05 02 02 00 	sll $2,$2,0x5
  402270:	42 00 00 00 00 02 06 02 	addu $2,$2,$6
  402278:	55 00 00 00 03 06 02 00 	sll $6,$2,0x3
  402280:	45 00 00 00 00 06 02 06 	subu $6,$6,$2
  402288:	55 00 00 00 01 02 04 00 	sll $2,$4,0x1
  402290:	42 00 00 00 00 02 04 02 	addu $2,$2,$4
  402298:	55 00 00 00 04 03 02 00 	sll $3,$2,0x4
  4022a0:	45 00 00 00 00 03 02 03 	subu $3,$3,$2
  4022a8:	55 00 00 00 06 02 03 00 	sll $2,$3,0x6
  4022b0:	45 00 00 00 00 02 03 02 	subu $2,$2,$3
  4022b8:	42 00 00 00 00 02 04 02 	addu $2,$2,$4
  4022c0:	45 00 00 00 00 06 02 06 	subu $6,$6,$2
  4022c8:	07 00 00 00 04 00 00 06 	blez $6,4022e0 <ran+0x150>
  4022d0:	34 00 00 00 90 84 06 1c 	sw $6,-31600($28)
  4022d8:	01 00 00 00 c0 08 10 00 	j 402300 <ran+0x170>
  4022e0:	a2 00 00 00 ff 7f 02 00 	lui $2,32767
  4022e8:	51 00 00 00 ff ff 02 02 	ori $2,$2,65535
  4022f0:	42 00 00 00 00 02 02 06 	addu $2,$6,$2
  4022f8:	34 00 00 00 90 84 02 1c 	sw $2,-31600($28)
  402300:	2a 00 00 00 60 80 02 1c 	l.s $f2,-32672($28)
  402308:	2a 00 00 00 90 84 00 1c 	l.s $f0,-31600($28)
  402310:	81 00 00 00 00 00 00 00 	cvt.s.w $f0,$f0
  402318:	76 00 00 00 00 00 02 00 	div.s $f0,$f0,$f2
  402320:	82 00 00 00 00 00 00 00 	cvt.d.s $f0,$f0
  402328:	03 00 00 00 00 00 00 1f 	jr $31

00402330 <compare_buffer>:
  402330:	43 00 00 00 d8 ff 1d 1d 	addiu $29,$29,-40
  402338:	34 00 00 00 14 00 11 1d 	sw $17,20($29)
  402340:	42 00 00 00 00 11 04 00 	addu $17,$0,$4
  402348:	34 00 00 00 1c 00 13 1d 	sw $19,28($29)
  402350:	42 00 00 00 00 13 05 00 	addu $19,$0,$5
  402358:	34 00 00 00 18 00 12 1d 	sw $18,24($29)
  402360:	42 00 00 00 00 12 06 00 	addu $18,$0,$6
  402368:	34 00 00 00 10 00 10 1d 	sw $16,16($29)
  402370:	42 00 00 00 00 10 07 00 	addu $16,$0,$7
  402378:	34 00 00 00 20 00 1f 1d 	sw $31,32($29)
  402380:	06 00 00 00 3e 00 10 13 	bne $19,$16,402480 <compare_buffer+0x150>
  402388:	a2 00 00 00 00 10 04 00 	lui $4,4096
  402390:	43 00 00 00 b0 00 04 04 	addiu $4,$4,176
  402398:	42 00 00 00 00 05 10 00 	addu $5,$0,$16
  4023a0:	02 00 00 00 54 12 10 00 	jal 404950 <printf>
  4023a8:	07 00 00 00 3e 00 00 10 	blez $16,4024a8 <compare_buffer+0x178>
  4023b0:	20 00 00 00 00 00 05 11 	lb $5,0($17)
  4023b8:	20 00 00 00 00 00 02 12 	lb $2,0($18)
  4023c0:	06 00 00 00 10 00 02 05 	bne $5,$2,402408 <compare_buffer+0xd8>
  4023c8:	42 00 00 00 00 02 11 10 	addu $2,$16,$17
  4023d0:	20 00 00 00 ff ff 06 02 	lb $6,-1($2)
  4023d8:	42 00 00 00 00 03 12 10 	addu $3,$16,$18
  4023e0:	20 00 00 00 ff ff 02 03 	lb $2,-1($3)
  4023e8:	06 00 00 00 06 00 02 06 	bne $6,$2,402408 <compare_buffer+0xd8>
  4023f0:	a2 00 00 00 00 10 04 00 	lui $4,4096
  4023f8:	43 00 00 00 cc 00 04 04 	addiu $4,$4,204
  402400:	01 00 00 00 28 09 10 00 	j 4024a0 <compare_buffer+0x170>
  402408:	a2 00 00 00 00 10 04 00 	lui $4,4096
  402410:	43 00 00 00 04 01 04 04 	addiu $4,$4,260
  402418:	02 00 00 00 54 12 10 00 	jal 404950 <printf>
  402420:	20 00 00 00 00 00 05 11 	lb $5,0($17)
  402428:	20 00 00 00 00 00 06 12 	lb $6,0($18)
  402430:	a2 00 00 00 00 10 04 00 	lui $4,4096
  402438:	43 00 00 00 30 01 04 04 	addiu $4,$4,304
  402440:	02 00 00 00 54 12 10 00 	jal 404950 <printf>
  402448:	42 00 00 00 00 02 11 13 	addu $2,$19,$17
  402450:	20 00 00 00 ff ff 05 02 	lb $5,-1($2)
  402458:	42 00 00 00 00 02 12 10 	addu $2,$16,$18
  402460:	20 00 00 00 ff ff 06 02 	lb $6,-1($2)
  402468:	a2 00 00 00 00 10 04 00 	lui $4,4096
  402470:	43 00 00 00 48 01 04 04 	addiu $4,$4,328
  402478:	01 00 00 00 28 09 10 00 	j 4024a0 <compare_buffer+0x170>
  402480:	a2 00 00 00 00 10 04 00 	lui $4,4096
  402488:	43 00 00 00 64 01 04 04 	addiu $4,$4,356
  402490:	42 00 00 00 00 05 13 00 	addu $5,$0,$19
  402498:	42 00 00 00 00 06 10 00 	addu $6,$0,$16
  4024a0:	02 00 00 00 54 12 10 00 	jal 404950 <printf>
  4024a8:	28 00 00 00 20 00 1f 1d 	lw $31,32($29)
  4024b0:	28 00 00 00 1c 00 13 1d 	lw $19,28($29)
  4024b8:	28 00 00 00 18 00 12 1d 	lw $18,24($29)
  4024c0:	28 00 00 00 14 00 11 1d 	lw $17,20($29)
  4024c8:	28 00 00 00 10 00 10 1d 	lw $16,16($29)
  4024d0:	43 00 00 00 28 00 1d 1d 	addiu $29,$29,40
  4024d8:	03 00 00 00 00 00 00 1f 	jr $31

004024e0 <main>:
  4024e0:	43 00 00 00 c0 ff 1d 1d 	addiu $29,$29,-64
  4024e8:	34 00 00 00 38 00 1f 1d 	sw $31,56($29)
  4024f0:	34 00 00 00 34 00 17 1d 	sw $23,52($29)
  4024f8:	34 00 00 00 30 00 16 1d 	sw $22,48($29)
  402500:	34 00 00 00 2c 00 15 1d 	sw $21,44($29)
  402508:	34 00 00 00 28 00 14 1d 	sw $20,40($29)
  402510:	34 00 00 00 24 00 13 1d 	sw $19,36($29)
  402518:	34 00 00 00 20 00 12 1d 	sw $18,32($29)
  402520:	34 00 00 00 1c 00 11 1d 	sw $17,28($29)
  402528:	34 00 00 00 18 00 10 1d 	sw $16,24($29)
  402530:	02 00 00 00 ba 0a 10 00 	jal 402ae8 <__main>
  402538:	a2 00 00 00 00 10 04 00 	lui $4,4096
  402540:	43 00 00 00 94 01 04 04 	addiu $4,$4,404
  402548:	02 00 00 00 54 12 10 00 	jal 404950 <printf>
  402550:	a2 00 00 00 00 10 04 00 	lui $4,4096
  402558:	43 00 00 00 b0 01 04 04 	addiu $4,$4,432
  402560:	43 00 00 00 10 00 05 1d 	addiu $5,$29,16
  402568:	43 00 00 00 14 00 06 1d 	addiu $6,$29,20
  402570:	43 00 00 00 90 84 07 1c 	addiu $7,$28,-31600
  402578:	02 00 00 00 70 12 10 00 	jal 4049c0 <scanf>
  402580:	a2 00 00 00 00 10 04 00 	lui $4,4096
  402588:	43 00 00 00 bc 01 04 04 	addiu $4,$4,444
  402590:	28 00 00 00 10 00 05 1d 	lw $5,16($29)
  402598:	20 00 00 00 14 00 06 1d 	lb $6,20($29)
  4025a0:	28 00 00 00 90 84 07 1c 	lw $7,-31600($28)
  4025a8:	43 00 00 00 01 00 12 00 	addiu $18,$0,1
  4025b0:	a2 00 00 00 07 10 02 00 	lui $2,4103
  4025b8:	43 00 00 00 50 7d 02 02 	addiu $2,$2,32080
  4025c0:	42 00 00 00 00 15 02 00 	addu $21,$0,$2
  4025c8:	a2 00 00 00 c4 11 17 00 	lui $23,4548
  4025d0:	43 00 00 00 90 fe 17 17 	addiu $23,$23,-368
  4025d8:	02 00 00 00 54 12 10 00 	jal 404950 <printf>
  4025e0:	28 00 00 00 10 00 04 1d 	lw $4,16($29)
  4025e8:	20 00 00 00 14 00 05 1d 	lb $5,20($29)
  4025f0:	a2 00 00 00 e7 10 16 00 	lui $22,4327
  4025f8:	43 00 00 00 f0 bd 16 16 	addiu $22,$22,-16912
  402600:	42 00 00 00 00 06 15 00 	addu $6,$0,$21
  402608:	02 00 00 00 1c 07 10 00 	jal 401c70 <fill_text_buffer>
  402610:	28 00 00 00 10 00 03 1d 	lw $3,16($29)
  402618:	22 00 00 00 14 00 06 1d 	lbu $6,20($29)
  402620:	42 00 00 00 00 04 03 00 	addu $4,$0,$3
  402628:	42 00 00 00 00 05 12 03 	addu $5,$3,$18
  402630:	5b 00 00 00 00 02 05 03 	slt $2,$3,$5
  402638:	05 00 00 00 0c 00 00 02 	beq $2,$0,402670 <main+0x190>
  402640:	42 00 00 00 00 03 15 03 	addu $3,$3,$21
  402648:	30 00 00 00 00 00 06 03 	sb $6,0($3)
  402650:	43 00 00 00 01 00 03 03 	addiu $3,$3,1
  402658:	43 00 00 00 01 00 04 04 	addiu $4,$4,1
  402660:	5b 00 00 00 00 02 05 04 	slt $2,$4,$5
  402668:	06 00 00 00 f6 ff 00 02 	bne $2,$0,402648 <main+0x168>
  402670:	42 00 00 00 00 03 04 00 	addu $3,$0,$4
  402678:	43 00 00 00 01 00 10 03 	addiu $16,$3,1
  402680:	a2 00 00 00 00 10 04 00 	lui $4,4096
  402688:	43 00 00 00 e8 01 04 04 	addiu $4,$4,488
  402690:	42 00 00 00 00 05 10 00 	addu $5,$0,$16
  402698:	42 00 00 00 00 02 03 15 	addu $2,$21,$3
  4026a0:	43 00 00 00 0a 00 03 00 	addiu $3,$0,10
  4026a8:	30 00 00 00 00 00 03 02 	sb $3,0($2)
  4026b0:	34 00 00 00 10 00 05 1d 	sw $5,16($29)
  4026b8:	02 00 00 00 54 12 10 00 	jal 404950 <printf>
  4026c0:	42 00 00 00 00 04 15 00 	addu $4,$0,$21
  4026c8:	28 00 00 00 10 00 05 1d 	lw $5,16($29)
  4026d0:	42 00 00 00 00 06 00 00 	addu $6,$0,$0
  4026d8:	42 00 00 00 00 07 17 00 	addu $7,$0,$23
  4026e0:	02 00 00 00 7c 00 10 00 	jal 4001f0 <spec_select_action>
  4026e8:	a2 00 00 00 00 10 04 00 	lui $4,4096
  4026f0:	43 00 00 00 04 02 04 04 	addiu $4,$4,516
  4026f8:	42 00 00 00 00 10 02 00 	addu $16,$0,$2
  402700:	42 00 00 00 00 05 10 00 	addu $5,$0,$16
  402708:	02 00 00 00 54 12 10 00 	jal 404950 <printf>
  402710:	42 00 00 00 00 04 17 00 	addu $4,$0,$23
  402718:	42 00 00 00 00 05 10 00 	addu $5,$0,$16
  402720:	43 00 00 00 01 00 06 00 	addiu $6,$0,1
  402728:	42 00 00 00 00 07 16 00 	addu $7,$0,$22
  402730:	02 00 00 00 7c 00 10 00 	jal 4001f0 <spec_select_action>
  402738:	42 00 00 00 00 10 02 00 	addu $16,$0,$2
  402740:	a2 00 00 00 00 10 04 00 	lui $4,4096
  402748:	43 00 00 00 20 02 04 04 	addiu $4,$4,544
  402750:	42 00 00 00 00 05 10 00 	addu $5,$0,$16
  402758:	02 00 00 00 54 12 10 00 	jal 404950 <printf>
  402760:	28 00 00 00 10 00 11 1d 	lw $17,16($29)
  402768:	42 00 00 00 00 13 15 00 	addu $19,$0,$21
  402770:	42 00 00 00 00 14 16 00 	addu $20,$0,$22
  402778:	06 00 00 00 46 00 10 11 	bne $17,$16,402898 <main+0x3b8>
  402780:	a2 00 00 00 00 10 04 00 	lui $4,4096
  402788:	43 00 00 00 b0 00 04 04 	addiu $4,$4,176
  402790:	42 00 00 00 00 05 10 00 	addu $5,$0,$16
  402798:	02 00 00 00 54 12 10 00 	jal 404950 <printf>
  4027a0:	07 00 00 00 46 00 00 10 	blez $16,4028c0 <main+0x3e0>
  4027a8:	a2 00 00 00 07 10 05 00 	lui $5,4103
  4027b0:	20 00 00 00 50 7d 05 05 	lb $5,32080($5)
  4027b8:	a2 00 00 00 e7 10 02 00 	lui $2,4327
  4027c0:	20 00 00 00 f0 bd 02 02 	lb $2,-16912($2)
  4027c8:	06 00 00 00 10 00 02 05 	bne $5,$2,402810 <main+0x330>
  4027d0:	42 00 00 00 00 02 13 10 	addu $2,$16,$19
  4027d8:	20 00 00 00 ff ff 06 02 	lb $6,-1($2)
  4027e0:	42 00 00 00 00 03 14 10 	addu $3,$16,$20
  4027e8:	20 00 00 00 ff ff 02 03 	lb $2,-1($3)
  4027f0:	06 00 00 00 06 00 02 06 	bne $6,$2,402810 <main+0x330>
  4027f8:	a2 00 00 00 00 10 04 00 	lui $4,4096
  402800:	43 00 00 00 cc 00 04 04 	addiu $4,$4,204
  402808:	01 00 00 00 2e 0a 10 00 	j 4028b8 <main+0x3d8>
  402810:	a2 00 00 00 00 10 04 00 	lui $4,4096
  402818:	43 00 00 00 04 01 04 04 	addiu $4,$4,260
  402820:	02 00 00 00 54 12 10 00 	jal 404950 <printf>
  402828:	a2 00 00 00 07 10 05 00 	lui $5,4103
  402830:	20 00 00 00 50 7d 05 05 	lb $5,32080($5)
  402838:	a2 00 00 00 e7 10 06 00 	lui $6,4327
  402840:	20 00 00 00 f0 bd 06 06 	lb $6,-16912($6)
  402848:	a2 00 00 00 00 10 04 00 	lui $4,4096
  402850:	43 00 00 00 30 01 04 04 	addiu $4,$4,304
  402858:	02 00 00 00 54 12 10 00 	jal 404950 <printf>
  402860:	42 00 00 00 00 02 13 11 	addu $2,$17,$19
  402868:	20 00 00 00 ff ff 05 02 	lb $5,-1($2)
  402870:	42 00 00 00 00 02 14 10 	addu $2,$16,$20
  402878:	20 00 00 00 ff ff 06 02 	lb $6,-1($2)
  402880:	a2 00 00 00 00 10 04 00 	lui $4,4096
  402888:	43 00 00 00 48 01 04 04 	addiu $4,$4,328
  402890:	01 00 00 00 2e 0a 10 00 	j 4028b8 <main+0x3d8>
  402898:	a2 00 00 00 00 10 04 00 	lui $4,4096
  4028a0:	43 00 00 00 64 01 04 04 	addiu $4,$4,356
  4028a8:	42 00 00 00 00 05 11 00 	addu $5,$0,$17
  4028b0:	42 00 00 00 00 06 10 00 	addu $6,$0,$16
  4028b8:	02 00 00 00 54 12 10 00 	jal 404950 <printf>
  4028c0:	43 00 00 00 01 00 12 12 	addiu $18,$18,1
  4028c8:	5c 00 00 00 1a 00 02 12 	slti $2,$18,26
  4028d0:	06 00 00 00 4e ff 00 02 	bne $2,$0,402610 <main+0x130>
  4028d8:	42 00 00 00 00 02 00 00 	addu $2,$0,$0
  4028e0:	28 00 00 00 38 00 1f 1d 	lw $31,56($29)
  4028e8:	28 00 00 00 34 00 17 1d 	lw $23,52($29)
  4028f0:	28 00 00 00 30 00 16 1d 	lw $22,48($29)
  4028f8:	28 00 00 00 2c 00 15 1d 	lw $21,44($29)
  402900:	28 00 00 00 28 00 14 1d 	lw $20,40($29)
  402908:	28 00 00 00 24 00 13 1d 	lw $19,36($29)
  402910:	28 00 00 00 20 00 12 1d 	lw $18,32($29)
  402918:	28 00 00 00 1c 00 11 1d 	lw $17,28($29)
  402920:	28 00 00 00 18 00 10 1d 	lw $16,24($29)
  402928:	43 00 00 00 40 00 1d 1d 	addiu $29,$29,64
  402930:	03 00 00 00 00 00 00 1f 	jr $31
	...

00402940 <__do_global_dtors>:
  402940:	43 00 00 00 e8 ff 1d 1d 	addiu $29,$29,-24
  402948:	34 00 00 00 10 00 10 1d 	sw $16,16($29)
  402950:	a2 00 00 00 01 10 10 00 	lui $16,4097
  402958:	43 00 00 00 0c 27 10 10 	addiu $16,$16,9996
  402960:	34 00 00 00 14 00 1f 1d 	sw $31,20($29)
  402968:	28 00 00 00 00 00 02 10 	lw $2,0($16)
  402970:	05 00 00 00 0a 00 00 02 	beq $2,$0,4029a0 <__do_global_dtors+0x60>
  402978:	28 00 00 00 00 00 02 10 	lw $2,0($16)
  402980:	43 00 00 00 04 00 10 10 	addiu $16,$16,4
  402988:	04 00 00 00 00 1f 00 02 	jalr $31,$2
  402990:	28 00 00 00 00 00 02 10 	lw $2,0($16)
  402998:	06 00 00 00 f6 ff 00 02 	bne $2,$0,402978 <__do_global_dtors+0x38>
  4029a0:	28 00 00 00 14 00 1f 1d 	lw $31,20($29)
  4029a8:	28 00 00 00 10 00 10 1d 	lw $16,16($29)
  4029b0:	43 00 00 00 18 00 1d 1d 	addiu $29,$29,24
  4029b8:	03 00 00 00 00 00 00 1f 	jr $31

004029c0 <__do_global_ctors>:
  4029c0:	43 00 00 00 e0 ff 1d 1d 	addiu $29,$29,-32
  4029c8:	34 00 00 00 18 00 1f 1d 	sw $31,24($29)
  4029d0:	34 00 00 00 14 00 11 1d 	sw $17,20($29)
  4029d8:	34 00 00 00 10 00 10 1d 	sw $16,16($29)
  4029e0:	a2 00 00 00 01 10 03 00 	lui $3,4097
  4029e8:	43 00 00 00 00 27 03 03 	addiu $3,$3,9984
  4029f0:	28 00 00 00 00 00 04 03 	lw $4,0($3)
  4029f8:	43 00 00 00 ff ff 02 00 	addiu $2,$0,-1
  402a00:	06 00 00 00 12 00 02 04 	bne $4,$2,402a50 <__do_global_ctors+0x90>
  402a08:	a2 00 00 00 01 10 02 00 	lui $2,4097
  402a10:	28 00 00 00 04 27 02 02 	lw $2,9988($2)
  402a18:	42 00 00 00 00 04 00 00 	addu $4,$0,$0
  402a20:	05 00 00 00 0a 00 00 02 	beq $2,$0,402a50 <__do_global_ctors+0x90>
  402a28:	43 00 00 00 04 00 03 03 	addiu $3,$3,4
  402a30:	43 00 00 00 04 00 03 03 	addiu $3,$3,4
  402a38:	28 00 00 00 00 00 02 03 	lw $2,0($3)
  402a40:	43 00 00 00 01 00 04 04 	addiu $4,$4,1
  402a48:	06 00 00 00 f8 ff 00 02 	bne $2,$0,402a30 <__do_global_ctors+0x70>
  402a50:	42 00 00 00 00 11 04 00 	addu $17,$0,$4
  402a58:	05 00 00 00 12 00 00 11 	beq $17,$0,402aa8 <__do_global_ctors+0xe8>
  402a60:	a2 00 00 00 01 10 03 00 	lui $3,4097
  402a68:	43 00 00 00 00 27 03 03 	addiu $3,$3,9984
  402a70:	55 00 00 00 02 02 11 00 	sll $2,$17,0x2
  402a78:	42 00 00 00 00 10 03 02 	addu $16,$2,$3
  402a80:	28 00 00 00 00 00 02 10 	lw $2,0($16)
  402a88:	43 00 00 00 ff ff 11 11 	addiu $17,$17,-1
  402a90:	04 00 00 00 00 1f 00 02 	jalr $31,$2
  402a98:	43 00 00 00 fc ff 10 10 	addiu $16,$16,-4
  402aa0:	06 00 00 00 f6 ff 00 11 	bne $17,$0,402a80 <__do_global_ctors+0xc0>
  402aa8:	a2 00 00 00 40 00 04 00 	lui $4,64
  402ab0:	43 00 00 00 40 29 04 04 	addiu $4,$4,10560
  402ab8:	02 00 00 00 8c 12 10 00 	jal 404a30 <atexit>
  402ac0:	28 00 00 00 18 00 1f 1d 	lw $31,24($29)
  402ac8:	28 00 00 00 14 00 11 1d 	lw $17,20($29)
  402ad0:	28 00 00 00 10 00 10 1d 	lw $16,16($29)
  402ad8:	43 00 00 00 20 00 1d 1d 	addiu $29,$29,32
  402ae0:	03 00 00 00 00 00 00 1f 	jr $31

00402ae8 <__main>:
  402ae8:	28 00 00 00 74 80 02 1c 	lw $2,-32652($28)
  402af0:	43 00 00 00 e8 ff 1d 1d 	addiu $29,$29,-24
  402af8:	34 00 00 00 10 00 1f 1d 	sw $31,16($29)
  402b00:	06 00 00 00 06 00 00 02 	bne $2,$0,402b20 <__main+0x38>
  402b08:	43 00 00 00 01 00 02 00 	addiu $2,$0,1
  402b10:	34 00 00 00 74 80 02 1c 	sw $2,-32652($28)
  402b18:	02 00 00 00 70 0a 10 00 	jal 4029c0 <__do_global_ctors>
  402b20:	28 00 00 00 10 00 1f 1d 	lw $31,16($29)
  402b28:	43 00 00 00 18 00 1d 1d 	addiu $29,$29,24
  402b30:	03 00 00 00 00 00 00 1f 	jr $31
	...

00402b40 <__libc_init>:
  402b40:	43 00 00 00 e8 ff 1d 1d 	addiu $29,$29,-24
  402b48:	34 00 00 00 10 00 1f 1d 	sw $31,16($29)
  402b50:	02 00 00 00 10 13 10 00 	jal 404c40 <__init_misc>
  402b58:	28 00 00 00 10 00 1f 1d 	lw $31,16($29)
  402b60:	43 00 00 00 18 00 1d 1d 	addiu $29,$29,24
  402b68:	03 00 00 00 00 00 00 1f 	jr $31

00402b70 <exit>:
  402b70:	43 00 00 00 d0 ff 1d 1d 	addiu $29,$29,-48
  402b78:	34 00 00 00 18 00 12 1d 	sw $18,24($29)
  402b80:	28 00 00 00 b0 80 12 1c 	lw $18,-32592($28)
  402b88:	34 00 00 00 1c 00 13 1d 	sw $19,28($29)
  402b90:	42 00 00 00 00 13 04 00 	addu $19,$0,$4
  402b98:	34 00 00 00 28 00 1f 1d 	sw $31,40($29)
  402ba0:	34 00 00 00 24 00 15 1d 	sw $21,36($29)
  402ba8:	34 00 00 00 20 00 14 1d 	sw $20,32($29)
  402bb0:	34 00 00 00 14 00 11 1d 	sw $17,20($29)
  402bb8:	34 00 00 00 10 00 10 1d 	sw $16,16($29)
  402bc0:	05 00 00 00 3a 00 00 12 	beq $18,$0,402cb0 <exit+0x140>
  402bc8:	43 00 00 00 01 00 15 00 	addiu $21,$0,1
  402bd0:	43 00 00 00 02 00 14 00 	addiu $20,$0,2
  402bd8:	28 00 00 00 04 00 10 12 	lw $16,4($18)
  402be0:	42 00 00 00 00 02 10 00 	addu $2,$0,$16
  402be8:	43 00 00 00 ff ff 10 10 	addiu $16,$16,-1
  402bf0:	05 00 00 00 2a 00 00 02 	beq $2,$0,402ca0 <exit+0x130>
  402bf8:	55 00 00 00 01 02 10 00 	sll $2,$16,0x1
  402c00:	42 00 00 00 00 02 10 02 	addu $2,$2,$16
  402c08:	55 00 00 00 02 02 02 00 	sll $2,$2,0x2
  402c10:	43 00 00 00 08 00 11 02 	addiu $17,$2,8
  402c18:	42 00 00 00 00 03 11 12 	addu $3,$18,$17
  402c20:	28 00 00 00 00 00 02 03 	lw $2,0($3)
  402c28:	05 00 00 00 06 00 15 02 	beq $2,$21,402c48 <exit+0xd8>
  402c30:	05 00 00 00 12 00 00 02 	beq $2,$0,402c80 <exit+0x110>
  402c38:	05 00 00 00 0c 00 14 02 	beq $2,$20,402c70 <exit+0x100>
  402c40:	01 00 00 00 20 0b 10 00 	j 402c80 <exit+0x110>
  402c48:	28 00 00 00 04 00 02 03 	lw $2,4($3)
  402c50:	28 00 00 00 08 00 05 03 	lw $5,8($3)
  402c58:	42 00 00 00 00 04 13 00 	addu $4,$0,$19
  402c60:	04 00 00 00 00 1f 00 02 	jalr $31,$2
  402c68:	01 00 00 00 20 0b 10 00 	j 402c80 <exit+0x110>
  402c70:	28 00 00 00 04 00 02 03 	lw $2,4($3)
  402c78:	04 00 00 00 00 1f 00 02 	jalr $31,$2
  402c80:	43 00 00 00 f4 ff 11 11 	addiu $17,$17,-12
  402c88:	42 00 00 00 00 02 10 00 	addu $2,$0,$16
  402c90:	43 00 00 00 ff ff 10 10 	addiu $16,$16,-1
  402c98:	06 00 00 00 de ff 00 02 	bne $2,$0,402c18 <exit+0xa8>
  402ca0:	28 00 00 00 00 00 12 12 	lw $18,0($18)
  402ca8:	06 00 00 00 ca ff 00 12 	bne $18,$0,402bd8 <exit+0x68>
  402cb0:	02 00 00 00 44 0b 10 00 	jal 402d10 <_cleanup>
  402cb8:	42 00 00 00 00 04 13 00 	addu $4,$0,$19
  402cc0:	02 00 00 00 38 13 10 00 	jal 404ce0 <_exit>
  402cc8:	28 00 00 00 28 00 1f 1d 	lw $31,40($29)
  402cd0:	28 00 00 00 24 00 15 1d 	lw $21,36($29)
  402cd8:	28 00 00 00 20 00 14 1d 	lw $20,32($29)
  402ce0:	28 00 00 00 1c 00 13 1d 	lw $19,28($29)
  402ce8:	28 00 00 00 18 00 12 1d 	lw $18,24($29)
  402cf0:	28 00 00 00 14 00 11 1d 	lw $17,20($29)
  402cf8:	28 00 00 00 10 00 10 1d 	lw $16,16($29)
  402d00:	43 00 00 00 30 00 1d 1d 	addiu $29,$29,48
  402d08:	03 00 00 00 00 00 00 1f 	jr $31

00402d10 <_cleanup>:
  402d10:	43 00 00 00 e8 ff 1d 1d 	addiu $29,$29,-24
  402d18:	34 00 00 00 10 00 1f 1d 	sw $31,16($29)
  402d20:	42 00 00 00 00 04 00 00 	addu $4,$0,$0
  402d28:	02 00 00 00 40 13 10 00 	jal 404d00 <fclose>
  402d30:	28 00 00 00 10 00 1f 1d 	lw $31,16($29)
  402d38:	43 00 00 00 18 00 1d 1d 	addiu $29,$29,24
  402d40:	03 00 00 00 00 00 00 1f 	jr $31
	...

00402d50 <fprintf>:
  402d50:	34 00 00 00 04 00 05 1d 	sw $5,4($29)
  402d58:	34 00 00 00 08 00 06 1d 	sw $6,8($29)
  402d60:	34 00 00 00 0c 00 07 1d 	sw $7,12($29)
  402d68:	43 00 00 00 e8 ff 1d 1d 	addiu $29,$29,-24
  402d70:	43 00 00 00 20 00 06 1d 	addiu $6,$29,32
  402d78:	34 00 00 00 10 00 1f 1d 	sw $31,16($29)
  402d80:	02 00 00 00 e0 13 10 00 	jal 404f80 <vfprintf>
  402d88:	28 00 00 00 10 00 1f 1d 	lw $31,16($29)
  402d90:	43 00 00 00 18 00 1d 1d 	addiu $29,$29,24
  402d98:	03 00 00 00 00 00 00 1f 	jr $31

00402da0 <unlink>:
  402da0:	43 00 00 00 e8 ff 1d 1d 	addiu $29,$29,-24
  402da8:	34 00 00 00 10 00 1f 1d 	sw $31,16($29)
  402db0:	02 00 00 00 40 1f 10 00 	jal 407d00 <__unlink>
  402db8:	28 00 00 00 10 00 1f 1d 	lw $31,16($29)
  402dc0:	43 00 00 00 18 00 1d 1d 	addiu $29,$29,24
  402dc8:	03 00 00 00 00 00 00 1f 	jr $31

00402dd0 <__stdio_check_funcs>:
  402dd0:	43 00 00 00 e8 ff 1d 1d 	addiu $29,$29,-24
  402dd8:	34 00 00 00 10 00 10 1d 	sw $16,16($29)
  402de0:	42 00 00 00 00 10 04 00 	addu $16,$0,$4
  402de8:	34 00 00 00 14 00 1f 1d 	sw $31,20($29)
  402df0:	28 00 00 00 4c 00 02 10 	lw $2,76($16)
  402df8:	4f 00 00 00 00 40 02 02 	andi $2,$2,16384
  402e00:	06 00 00 00 2c 00 00 02 	bne $2,$0,402eb8 <__stdio_check_funcs+0xe8>
  402e08:	28 00 00 00 a0 80 02 1c 	lw $2,-32608($28)
  402e10:	a2 00 00 00 01 10 03 00 	lui $3,4097
  402e18:	28 00 00 00 04 23 03 03 	lw $3,8964($3)
  402e20:	34 00 00 00 34 00 02 10 	sw $2,52($16)
  402e28:	34 00 00 00 38 00 03 10 	sw $3,56($16)
  402e30:	a2 00 00 00 00 10 05 00 	lui $5,4096
  402e38:	43 00 00 00 50 02 05 05 	addiu $5,$5,592
  402e40:	28 00 00 00 00 00 02 05 	lw $2,0($5)
  402e48:	28 00 00 00 04 00 03 05 	lw $3,4($5)
  402e50:	28 00 00 00 08 00 04 05 	lw $4,8($5)
  402e58:	34 00 00 00 20 00 02 10 	sw $2,32($16)
  402e60:	34 00 00 00 24 00 03 10 	sw $3,36($16)
  402e68:	34 00 00 00 28 00 04 10 	sw $4,40($16)
  402e70:	28 00 00 00 0c 00 02 05 	lw $2,12($5)
  402e78:	28 00 00 00 10 00 03 05 	lw $3,16($5)
  402e80:	34 00 00 00 2c 00 02 10 	sw $2,44($16)
  402e88:	34 00 00 00 30 00 03 10 	sw $3,48($16)
  402e90:	42 00 00 00 00 04 10 00 	addu $4,$0,$16
  402e98:	02 00 00 00 dc 20 10 00 	jal 408370 <__stdio_init_stream>
  402ea0:	28 00 00 00 4c 00 02 10 	lw $2,76($16)
  402ea8:	51 00 00 00 00 40 02 02 	ori $2,$2,16384
  402eb0:	34 00 00 00 4c 00 02 10 	sw $2,76($16)
  402eb8:	28 00 00 00 14 00 1f 1d 	lw $31,20($29)
  402ec0:	28 00 00 00 10 00 10 1d 	lw $16,16($29)
  402ec8:	43 00 00 00 18 00 1d 1d 	addiu $29,$29,24
  402ed0:	03 00 00 00 00 00 00 1f 	jr $31

00402ed8 <__stdio_check_offset>:
  402ed8:	43 00 00 00 d8 ff 1d 1d 	addiu $29,$29,-40
  402ee0:	34 00 00 00 18 00 10 1d 	sw $16,24($29)
  402ee8:	42 00 00 00 00 10 04 00 	addu $16,$0,$4
  402ef0:	34 00 00 00 20 00 1f 1d 	sw $31,32($29)
  402ef8:	34 00 00 00 1c 00 11 1d 	sw $17,28($29)
  402f00:	28 00 00 00 4c 00 02 10 	lw $2,76($16)
  402f08:	4f 00 00 00 00 40 02 02 	andi $2,$2,16384
  402f10:	06 00 00 00 2c 00 00 02 	bne $2,$0,402fc8 <__stdio_check_offset+0xf0>
  402f18:	28 00 00 00 a0 80 02 1c 	lw $2,-32608($28)
  402f20:	a2 00 00 00 01 10 03 00 	lui $3,4097
  402f28:	28 00 00 00 04 23 03 03 	lw $3,8964($3)
  402f30:	34 00 00 00 34 00 02 10 	sw $2,52($16)
  402f38:	34 00 00 00 38 00 03 10 	sw $3,56($16)
  402f40:	a2 00 00 00 00 10 05 00 	lui $5,4096
  402f48:	43 00 00 00 50 02 05 05 	addiu $5,$5,592
  402f50:	28 00 00 00 00 00 02 05 	lw $2,0($5)
  402f58:	28 00 00 00 04 00 03 05 	lw $3,4($5)
  402f60:	28 00 00 00 08 00 04 05 	lw $4,8($5)
  402f68:	34 00 00 00 20 00 02 10 	sw $2,32($16)
  402f70:	34 00 00 00 24 00 03 10 	sw $3,36($16)
  402f78:	34 00 00 00 28 00 04 10 	sw $4,40($16)
  402f80:	28 00 00 00 0c 00 02 05 	lw $2,12($5)
  402f88:	28 00 00 00 10 00 03 05 	lw $3,16($5)
  402f90:	34 00 00 00 2c 00 02 10 	sw $2,44($16)
  402f98:	34 00 00 00 30 00 03 10 	sw $3,48($16)
  402fa0:	42 00 00 00 00 04 10 00 	addu $4,$0,$16
  402fa8:	02 00 00 00 dc 20 10 00 	jal 408370 <__stdio_init_stream>
  402fb0:	28 00 00 00 4c 00 02 10 	lw $2,76($16)
  402fb8:	51 00 00 00 00 40 02 02 	ori $2,$2,16384
  402fc0:	34 00 00 00 4c 00 02 10 	sw $2,76($16)
  402fc8:	28 00 00 00 10 00 02 10 	lw $2,16($16)
  402fd0:	06 00 00 00 36 00 00 02 	bne $2,$0,4030b0 <__stdio_check_offset+0x1d8>
  402fd8:	28 00 00 00 4c 00 02 10 	lw $2,76($16)
  402fe0:	4f 00 00 00 00 08 02 02 	andi $2,$2,2048
  402fe8:	06 00 00 00 30 00 00 02 	bne $2,$0,4030b0 <__stdio_check_offset+0x1d8>
  402ff0:	28 00 00 00 14 00 02 10 	lw $2,20($16)
  402ff8:	06 00 00 00 04 00 00 02 	bne $2,$0,403010 <__stdio_check_offset+0x138>
  403000:	43 00 00 00 00 04 02 00 	addiu $2,$0,1024
  403008:	34 00 00 00 14 00 02 10 	sw $2,20($16)
  403010:	28 00 00 00 14 00 04 10 	lw $4,20($16)
  403018:	28 00 00 00 60 84 11 1c 	lw $17,-31648($28)
  403020:	5e 00 00 00 80 00 02 04 	sltiu $2,$4,128
  403028:	06 00 00 00 12 00 00 02 	bne $2,$0,403078 <__stdio_check_offset+0x1a0>
  403030:	02 00 00 00 96 22 10 00 	jal 408a58 <malloc>
  403038:	34 00 00 00 10 00 02 10 	sw $2,16($16)
  403040:	06 00 00 00 0c 00 00 02 	bne $2,$0,403078 <__stdio_check_offset+0x1a0>
  403048:	28 00 00 00 14 00 02 10 	lw $2,20($16)
  403050:	57 00 00 00 01 02 02 00 	srl $2,$2,0x1
  403058:	42 00 00 00 00 04 02 00 	addu $4,$0,$2
  403060:	5e 00 00 00 80 00 02 04 	sltiu $2,$4,128
  403068:	34 00 00 00 14 00 04 10 	sw $4,20($16)
  403070:	05 00 00 00 ee ff 00 02 	beq $2,$0,403030 <__stdio_check_offset+0x158>
  403078:	28 00 00 00 10 00 02 10 	lw $2,16($16)
  403080:	34 00 00 00 60 84 11 1c 	sw $17,-31648($28)
  403088:	06 00 00 00 08 00 00 02 	bne $2,$0,4030b0 <__stdio_check_offset+0x1d8>
  403090:	28 00 00 00 4c 00 02 10 	lw $2,76($16)
  403098:	34 00 00 00 14 00 00 10 	sw $0,20($16)
  4030a0:	51 00 00 00 00 08 02 02 	ori $2,$2,2048
  4030a8:	34 00 00 00 4c 00 02 10 	sw $2,76($16)
  4030b0:	28 00 00 00 04 00 02 10 	lw $2,4($16)
  4030b8:	06 00 00 00 0a 00 00 02 	bne $2,$0,4030e8 <__stdio_check_offset+0x210>
  4030c0:	28 00 00 00 10 00 02 10 	lw $2,16($16)
  4030c8:	28 00 00 00 10 00 03 10 	lw $3,16($16)
  4030d0:	34 00 00 00 04 00 02 10 	sw $2,4($16)
  4030d8:	34 00 00 00 08 00 03 10 	sw $3,8($16)
  4030e0:	34 00 00 00 0c 00 03 10 	sw $3,12($16)
  4030e8:	28 00 00 00 3c 00 03 10 	lw $3,60($16)
  4030f0:	43 00 00 00 ff ff 02 00 	addiu $2,$0,-1
  4030f8:	06 00 00 00 28 00 02 03 	bne $3,$2,4031a0 <__stdio_check_offset+0x2c8>
  403100:	28 00 00 00 28 00 02 10 	lw $2,40($16)
  403108:	06 00 00 00 08 00 00 02 	bne $2,$0,403130 <__stdio_check_offset+0x258>
  403110:	43 00 00 00 1d 00 02 00 	addiu $2,$0,29
  403118:	34 00 00 00 60 84 02 1c 	sw $2,-31648($28)
  403120:	43 00 00 00 ff ff 02 00 	addiu $2,$0,-1
  403128:	01 00 00 00 74 0c 10 00 	j 4031d0 <__stdio_check_offset+0x2f8>
  403130:	28 00 00 00 18 00 04 10 	lw $4,24($16)
  403138:	34 00 00 00 10 00 00 1d 	sw $0,16($29)
  403140:	28 00 00 00 28 00 02 10 	lw $2,40($16)
  403148:	43 00 00 00 10 00 05 1d 	addiu $5,$29,16
  403150:	43 00 00 00 01 00 06 00 	addiu $6,$0,1
  403158:	04 00 00 00 00 1f 00 02 	jalr $31,$2
  403160:	0a 00 00 00 0a 00 00 02 	bgez $2,403190 <__stdio_check_offset+0x2b8>
  403168:	28 00 00 00 60 84 03 1c 	lw $3,-31648($28)
  403170:	43 00 00 00 1d 00 02 00 	addiu $2,$0,29
  403178:	06 00 00 00 e8 ff 02 03 	bne $3,$2,403120 <__stdio_check_offset+0x248>
  403180:	34 00 00 00 28 00 00 10 	sw $0,40($16)
  403188:	01 00 00 00 48 0c 10 00 	j 403120 <__stdio_check_offset+0x248>
  403190:	28 00 00 00 10 00 02 1d 	lw $2,16($29)
  403198:	34 00 00 00 3c 00 02 10 	sw $2,60($16)
  4031a0:	28 00 00 00 40 00 03 10 	lw $3,64($16)
  4031a8:	43 00 00 00 ff ff 02 00 	addiu $2,$0,-1
  4031b0:	06 00 00 00 04 00 02 03 	bne $3,$2,4031c8 <__stdio_check_offset+0x2f0>
  4031b8:	28 00 00 00 3c 00 02 10 	lw $2,60($16)
  4031c0:	34 00 00 00 40 00 02 10 	sw $2,64($16)
  4031c8:	42 00 00 00 00 02 00 00 	addu $2,$0,$0
  4031d0:	28 00 00 00 20 00 1f 1d 	lw $31,32($29)
  4031d8:	28 00 00 00 1c 00 11 1d 	lw $17,28($29)
  4031e0:	28 00 00 00 18 00 10 1d 	lw $16,24($29)
  4031e8:	43 00 00 00 28 00 1d 1d 	addiu $29,$29,40
  4031f0:	03 00 00 00 00 00 00 1f 	jr $31

004031f8 <flushbuf>:
  4031f8:	43 00 00 00 b8 ff 1d 1d 	addiu $29,$29,-72
  403200:	34 00 00 00 20 00 10 1d 	sw $16,32($29)
  403208:	42 00 00 00 00 10 04 00 	addu $16,$0,$4
  403210:	34 00 00 00 30 00 14 1d 	sw $20,48($29)
  403218:	42 00 00 00 00 14 05 00 	addu $20,$0,$5
  403220:	54 00 00 00 00 02 14 00 	nor $2,$0,$20
  403228:	34 00 00 00 34 00 15 1d 	sw $21,52($29)
  403230:	5e 00 00 00 01 00 15 02 	sltiu $21,$2,1
  403238:	34 00 00 00 40 00 1f 1d 	sw $31,64($29)
  403240:	34 00 00 00 3c 00 17 1d 	sw $23,60($29)
  403248:	34 00 00 00 38 00 16 1d 	sw $22,56($29)
  403250:	34 00 00 00 2c 00 13 1d 	sw $19,44($29)
  403258:	34 00 00 00 28 00 12 1d 	sw $18,40($29)
  403260:	34 00 00 00 24 00 11 1d 	sw $17,36($29)
  403268:	28 00 00 00 0c 00 05 10 	lw $5,12($16)
  403270:	28 00 00 00 10 00 02 10 	lw $2,16($16)
  403278:	42 00 00 00 00 17 00 00 	addu $23,$0,$0
  403280:	43 00 00 00 ff ff 16 00 	addiu $22,$0,-1
  403288:	06 00 00 00 a8 00 02 05 	bne $5,$2,403530 <flushbuf+0x338>
  403290:	42 00 00 00 00 13 00 00 	addu $19,$0,$0
  403298:	28 00 00 00 04 00 02 10 	lw $2,4($16)
  4032a0:	28 00 00 00 40 00 03 10 	lw $3,64($16)
  4032a8:	28 00 00 00 1c 00 04 10 	lw $4,28($16)
  4032b0:	45 00 00 00 00 02 05 02 	subu $2,$2,$5
  4032b8:	42 00 00 00 00 02 03 02 	addu $2,$2,$3
  4032c0:	34 00 00 00 40 00 02 10 	sw $2,64($16)
  4032c8:	4f 00 00 00 01 00 02 04 	andi $2,$4,1
  4032d0:	05 00 00 00 6c 00 00 02 	beq $2,$0,403488 <flushbuf+0x290>
  4032d8:	28 00 00 00 34 00 02 10 	lw $2,52($16)
  4032e0:	05 00 00 00 68 00 00 02 	beq $2,$0,403488 <flushbuf+0x290>
  4032e8:	4f 00 00 00 04 00 02 04 	andi $2,$4,4
  4032f0:	06 00 00 00 64 00 00 02 	bne $2,$0,403488 <flushbuf+0x290>
  4032f8:	28 00 00 00 60 84 12 1c 	lw $18,-31648($28)
  403300:	28 00 00 00 10 00 02 10 	lw $2,16($16)
  403308:	42 00 00 00 00 11 00 00 	addu $17,$0,$0
  403310:	05 00 00 00 14 00 00 02 	beq $2,$0,403368 <flushbuf+0x170>
  403318:	42 00 00 00 00 04 10 00 	addu $4,$0,$16
  403320:	02 00 00 00 b6 0b 10 00 	jal 402ed8 <__stdio_check_offset>
  403328:	05 00 00 00 0e 00 16 02 	beq $2,$22,403368 <flushbuf+0x170>
  403330:	28 00 00 00 40 00 02 10 	lw $2,64($16)
  403338:	28 00 00 00 14 00 03 10 	lw $3,20($16)
  403340:	49 00 00 00 00 00 03 02 	divu $0,$2,$3
  403348:	06 00 00 00 02 00 00 03 	bne $3,$0,403358 <flushbuf+0x160>
  403350:	a1 00 00 00 07 00 00 00 	break 
  403358:	4a 00 00 00 00 03 00 00 	mfhi $3
  403360:	06 00 00 00 02 00 00 03 	bne $3,$0,403370 <flushbuf+0x178>
  403368:	43 00 00 00 01 00 11 00 	addiu $17,$0,1
  403370:	34 00 00 00 60 84 12 1c 	sw $18,-31648($28)
  403378:	06 00 00 00 40 00 00 11 	bne $17,$0,403480 <flushbuf+0x288>
  403380:	28 00 00 00 40 00 03 10 	lw $3,64($16)
  403388:	28 00 00 00 14 00 02 10 	lw $2,20($16)
  403390:	49 00 00 00 00 00 02 03 	divu $0,$3,$2
  403398:	06 00 00 00 02 00 00 02 	bne $2,$0,4033a8 <flushbuf+0x1b0>
  4033a0:	a1 00 00 00 07 00 00 00 	break 
  4033a8:	4a 00 00 00 00 11 00 00 	mfhi $17
  4033b0:	28 00 00 00 34 00 02 10 	lw $2,52($16)
  4033b8:	42 00 00 00 00 04 10 00 	addu $4,$0,$16
  4033c0:	45 00 00 00 00 03 11 03 	subu $3,$3,$17
  4033c8:	34 00 00 00 40 00 03 10 	sw $3,64($16)
  4033d0:	04 00 00 00 00 1f 00 02 	jalr $31,$2
  4033d8:	43 00 00 00 ff ff 03 00 	addiu $3,$0,-1
  4033e0:	06 00 00 00 06 00 03 02 	bne $2,$3,403400 <flushbuf+0x208>
  4033e8:	28 00 00 00 4c 00 02 10 	lw $2,76($16)
  4033f0:	4f 00 00 00 00 04 02 02 	andi $2,$2,1024
  4033f8:	06 00 00 00 4a 01 00 02 	bne $2,$0,403928 <flushbuf+0x730>
  403400:	28 00 00 00 4c 00 03 10 	lw $3,76($16)
  403408:	43 00 00 00 ff fd 02 00 	addiu $2,$0,-513
  403410:	28 00 00 00 08 00 04 10 	lw $4,8($16)
  403418:	28 00 00 00 10 00 05 10 	lw $5,16($16)
  403420:	4e 00 00 00 00 03 02 03 	and $3,$3,$2
  403428:	43 00 00 00 ff fb 02 00 	addiu $2,$0,-1025
  403430:	4e 00 00 00 00 03 02 03 	and $3,$3,$2
  403438:	45 00 00 00 00 04 05 04 	subu $4,$4,$5
  403440:	5d 00 00 00 00 04 11 04 	sltu $4,$4,$17
  403448:	34 00 00 00 4c 00 03 10 	sw $3,76($16)
  403450:	05 00 00 00 08 00 00 04 	beq $4,$0,403478 <flushbuf+0x280>
  403458:	28 00 00 00 40 00 02 10 	lw $2,64($16)
  403460:	42 00 00 00 00 02 02 11 	addu $2,$17,$2
  403468:	34 00 00 00 40 00 02 10 	sw $2,64($16)
  403470:	01 00 00 00 20 0d 10 00 	j 403480 <flushbuf+0x288>
  403478:	42 00 00 00 00 13 11 00 	addu $19,$0,$17
  403480:	43 00 00 00 01 00 17 00 	addiu $23,$0,1
  403488:	28 00 00 00 10 00 04 10 	lw $4,16($16)
  403490:	05 00 00 00 26 00 00 04 	beq $4,$0,403530 <flushbuf+0x338>
  403498:	28 00 00 00 14 00 02 10 	lw $2,20($16)
  4034a0:	28 00 00 00 10 00 03 10 	lw $3,16($16)
  4034a8:	42 00 00 00 00 02 02 04 	addu $2,$4,$2
  4034b0:	42 00 00 00 00 03 03 13 	addu $3,$19,$3
  4034b8:	34 00 00 00 0c 00 02 10 	sw $2,12($16)
  4034c0:	34 00 00 00 04 00 03 10 	sw $3,4($16)
  4034c8:	06 00 00 00 18 00 00 15 	bne $21,$0,403530 <flushbuf+0x338>
  4034d0:	43 00 00 00 01 00 02 03 	addiu $2,$3,1
  4034d8:	34 00 00 00 04 00 02 10 	sw $2,4($16)
  4034e0:	30 00 00 00 00 00 14 03 	sb $20,0($3)
  4034e8:	28 00 00 00 4c 00 02 10 	lw $2,76($16)
  4034f0:	4f 00 00 00 00 10 02 02 	andi $2,$2,4096
  4034f8:	05 00 00 00 06 00 00 02 	beq $2,$0,403518 <flushbuf+0x320>
  403500:	4f 00 00 00 ff 00 03 14 	andi $3,$20,255
  403508:	43 00 00 00 0a 00 02 00 	addiu $2,$0,10
  403510:	05 00 00 00 04 00 02 03 	beq $3,$2,403528 <flushbuf+0x330>
  403518:	42 00 00 00 00 13 00 00 	addu $19,$0,$0
  403520:	01 00 00 00 34 0e 10 00 	j 4038d0 <flushbuf+0x6d8>
  403528:	43 00 00 00 01 00 15 00 	addiu $21,$0,1
  403530:	28 00 00 00 04 00 02 10 	lw $2,4($16)
  403538:	28 00 00 00 10 00 04 10 	lw $4,16($16)
  403540:	45 00 00 00 00 13 04 02 	subu $19,$2,$4
  403548:	05 00 00 00 0c 00 00 13 	beq $19,$0,403580 <flushbuf+0x388>
  403550:	28 00 00 00 08 00 03 10 	lw $3,8($16)
  403558:	42 00 00 00 00 12 13 00 	addu $18,$0,$19
  403560:	5d 00 00 00 00 02 03 02 	sltu $2,$2,$3
  403568:	05 00 00 00 06 00 00 02 	beq $2,$0,403588 <flushbuf+0x390>
  403570:	45 00 00 00 00 12 04 03 	subu $18,$3,$4
  403578:	01 00 00 00 62 0d 10 00 	j 403588 <flushbuf+0x390>
  403580:	42 00 00 00 00 12 00 00 	addu $18,$0,$0
  403588:	28 00 00 00 24 00 02 10 	lw $2,36($16)
  403590:	05 00 00 00 04 00 00 02 	beq $2,$0,4035a8 <flushbuf+0x3b0>
  403598:	06 00 00 00 0e 00 00 12 	bne $18,$0,4035d8 <flushbuf+0x3e0>
  4035a0:	05 00 00 00 84 00 00 15 	beq $21,$0,4037b8 <flushbuf+0x5c0>
  4035a8:	28 00 00 00 3c 00 02 10 	lw $2,60($16)
  4035b0:	28 00 00 00 10 00 03 10 	lw $3,16($16)
  4035b8:	42 00 00 00 00 02 02 12 	addu $2,$18,$2
  4035c0:	34 00 00 00 04 00 03 10 	sw $3,4($16)
  4035c8:	34 00 00 00 3c 00 02 10 	sw $2,60($16)
  4035d0:	01 00 00 00 34 0e 10 00 	j 4038d0 <flushbuf+0x6d8>
  4035d8:	28 00 00 00 1c 00 02 10 	lw $2,28($16)
  4035e0:	4f 00 00 00 04 00 02 02 	andi $2,$2,4
  4035e8:	06 00 00 00 42 00 00 02 	bne $2,$0,4036f8 <flushbuf+0x500>
  4035f0:	28 00 00 00 60 84 11 1c 	lw $17,-31648($28)
  4035f8:	42 00 00 00 00 04 10 00 	addu $4,$0,$16
  403600:	02 00 00 00 b6 0b 10 00 	jal 402ed8 <__stdio_check_offset>
  403608:	43 00 00 00 ff ff 03 00 	addiu $3,$0,-1
  403610:	06 00 00 00 0a 00 03 02 	bne $2,$3,403640 <flushbuf+0x448>
  403618:	28 00 00 00 60 84 03 1c 	lw $3,-31648($28)
  403620:	43 00 00 00 1d 00 02 00 	addiu $2,$0,29
  403628:	06 00 00 00 2c 00 02 03 	bne $3,$2,4036e0 <flushbuf+0x4e8>
  403630:	34 00 00 00 60 84 11 1c 	sw $17,-31648($28)
  403638:	01 00 00 00 be 0d 10 00 	j 4036f8 <flushbuf+0x500>
  403640:	28 00 00 00 40 00 03 10 	lw $3,64($16)
  403648:	28 00 00 00 3c 00 02 10 	lw $2,60($16)
  403650:	05 00 00 00 28 00 02 03 	beq $3,$2,4036f8 <flushbuf+0x500>
  403658:	28 00 00 00 28 00 02 10 	lw $2,40($16)
  403660:	06 00 00 00 08 00 00 02 	bne $2,$0,403688 <flushbuf+0x490>
  403668:	28 00 00 00 4c 00 02 10 	lw $2,76($16)
  403670:	43 00 00 00 1d 00 03 00 	addiu $3,$0,29
  403678:	34 00 00 00 60 84 03 1c 	sw $3,-31648($28)
  403680:	01 00 00 00 ba 0d 10 00 	j 4036e8 <flushbuf+0x4f0>
  403688:	28 00 00 00 18 00 04 10 	lw $4,24($16)
  403690:	28 00 00 00 28 00 02 10 	lw $2,40($16)
  403698:	43 00 00 00 10 00 05 1d 	addiu $5,$29,16
  4036a0:	42 00 00 00 00 06 00 00 	addu $6,$0,$0
  4036a8:	34 00 00 00 10 00 03 1d 	sw $3,16($29)
  4036b0:	04 00 00 00 00 1f 00 02 	jalr $31,$2
  4036b8:	09 00 00 00 08 00 00 02 	bltz $2,4036e0 <flushbuf+0x4e8>
  4036c0:	28 00 00 00 10 00 02 1d 	lw $2,16($29)
  4036c8:	28 00 00 00 40 00 03 10 	lw $3,64($16)
  4036d0:	34 00 00 00 3c 00 02 10 	sw $2,60($16)
  4036d8:	05 00 00 00 06 00 03 02 	beq $2,$3,4036f8 <flushbuf+0x500>
  4036e0:	28 00 00 00 4c 00 02 10 	lw $2,76($16)
  4036e8:	51 00 00 00 00 04 02 02 	ori $2,$2,1024
  4036f0:	34 00 00 00 4c 00 02 10 	sw $2,76($16)
  4036f8:	28 00 00 00 4c 00 02 10 	lw $2,76($16)
  403700:	4f 00 00 00 00 04 02 02 	andi $2,$2,1024
  403708:	06 00 00 00 2a 00 00 02 	bne $2,$0,4037b8 <flushbuf+0x5c0>
  403710:	28 00 00 00 18 00 04 10 	lw $4,24($16)
  403718:	28 00 00 00 10 00 05 10 	lw $5,16($16)
  403720:	28 00 00 00 24 00 02 10 	lw $2,36($16)
  403728:	42 00 00 00 00 06 12 00 	addu $6,$0,$18
  403730:	04 00 00 00 00 1f 00 02 	jalr $31,$2
  403738:	42 00 00 00 00 03 02 00 	addu $3,$0,$2
  403740:	07 00 00 00 12 00 00 03 	blez $3,403790 <flushbuf+0x598>
  403748:	28 00 00 00 1c 00 02 10 	lw $2,28($16)
  403750:	4f 00 00 00 04 00 02 02 	andi $2,$2,4
  403758:	05 00 00 00 06 00 00 02 	beq $2,$0,403778 <flushbuf+0x580>
  403760:	43 00 00 00 ff ff 02 00 	addiu $2,$0,-1
  403768:	34 00 00 00 40 00 02 10 	sw $2,64($16)
  403770:	01 00 00 00 e2 0d 10 00 	j 403788 <flushbuf+0x590>
  403778:	28 00 00 00 3c 00 02 10 	lw $2,60($16)
  403780:	42 00 00 00 00 02 02 03 	addu $2,$3,$2
  403788:	34 00 00 00 3c 00 02 10 	sw $2,60($16)
  403790:	5b 00 00 00 00 02 12 03 	slt $2,$3,$18
  403798:	05 00 00 00 06 00 00 02 	beq $2,$0,4037b8 <flushbuf+0x5c0>
  4037a0:	28 00 00 00 4c 00 02 10 	lw $2,76($16)
  4037a8:	51 00 00 00 00 04 02 02 	ori $2,$2,1024
  4037b0:	34 00 00 00 4c 00 02 10 	sw $2,76($16)
  4037b8:	28 00 00 00 10 00 02 10 	lw $2,16($16)
  4037c0:	34 00 00 00 04 00 02 10 	sw $2,4($16)
  4037c8:	06 00 00 00 40 00 00 15 	bne $21,$0,4038d0 <flushbuf+0x6d8>
  4037d0:	28 00 00 00 4c 00 03 10 	lw $3,76($16)
  4037d8:	4f 00 00 00 00 04 02 03 	andi $2,$3,1024
  4037e0:	06 00 00 00 3a 00 00 02 	bne $2,$0,4038d0 <flushbuf+0x6d8>
  4037e8:	28 00 00 00 10 00 02 10 	lw $2,16($16)
  4037f0:	05 00 00 00 0a 00 00 02 	beq $2,$0,403820 <flushbuf+0x628>
  4037f8:	4f 00 00 00 00 10 02 03 	andi $2,$3,4096
  403800:	05 00 00 00 2a 00 00 02 	beq $2,$0,4038b0 <flushbuf+0x6b8>
  403808:	4f 00 00 00 ff 00 03 14 	andi $3,$20,255
  403810:	43 00 00 00 0a 00 02 00 	addiu $2,$0,10
  403818:	06 00 00 00 24 00 02 03 	bne $3,$2,4038b0 <flushbuf+0x6b8>
  403820:	28 00 00 00 18 00 04 10 	lw $4,24($16)
  403828:	28 00 00 00 24 00 02 10 	lw $2,36($16)
  403830:	43 00 00 00 18 00 05 1d 	addiu $5,$29,24
  403838:	43 00 00 00 01 00 06 00 	addiu $6,$0,1
  403840:	30 00 00 00 18 00 14 1d 	sb $20,24($29)
  403848:	04 00 00 00 00 1f 00 02 	jalr $31,$2
  403850:	08 00 00 00 08 00 00 02 	bgtz $2,403878 <flushbuf+0x680>
  403858:	28 00 00 00 4c 00 02 10 	lw $2,76($16)
  403860:	51 00 00 00 00 04 02 02 	ori $2,$2,1024
  403868:	34 00 00 00 4c 00 02 10 	sw $2,76($16)
  403870:	01 00 00 00 34 0e 10 00 	j 4038d0 <flushbuf+0x6d8>
  403878:	28 00 00 00 3c 00 02 10 	lw $2,60($16)
  403880:	28 00 00 00 40 00 03 10 	lw $3,64($16)
  403888:	43 00 00 00 01 00 02 02 	addiu $2,$2,1
  403890:	43 00 00 00 01 00 03 03 	addiu $3,$3,1
  403898:	34 00 00 00 3c 00 02 10 	sw $2,60($16)
  4038a0:	34 00 00 00 40 00 03 10 	sw $3,64($16)
  4038a8:	01 00 00 00 34 0e 10 00 	j 4038d0 <flushbuf+0x6d8>
  4038b0:	28 00 00 00 04 00 03 10 	lw $3,4($16)
  4038b8:	43 00 00 00 01 00 02 03 	addiu $2,$3,1
  4038c0:	34 00 00 00 04 00 02 10 	sw $2,4($16)
  4038c8:	30 00 00 00 00 00 14 03 	sb $20,0($3)
  4038d0:	06 00 00 00 0a 00 00 17 	bne $23,$0,403900 <flushbuf+0x708>
  4038d8:	28 00 00 00 40 00 02 10 	lw $2,64($16)
  4038e0:	28 00 00 00 10 00 03 10 	lw $3,16($16)
  4038e8:	42 00 00 00 00 02 02 13 	addu $2,$19,$2
  4038f0:	34 00 00 00 40 00 02 10 	sw $2,64($16)
  4038f8:	34 00 00 00 08 00 03 10 	sw $3,8($16)
  403900:	28 00 00 00 4c 00 02 10 	lw $2,76($16)
  403908:	4f 00 00 00 00 06 02 02 	andi $2,$2,1536
  403910:	05 00 00 00 04 00 00 02 	beq $2,$0,403928 <flushbuf+0x730>
  403918:	28 00 00 00 0c 00 02 10 	lw $2,12($16)
  403920:	34 00 00 00 04 00 02 10 	sw $2,4($16)
  403928:	28 00 00 00 40 00 1f 1d 	lw $31,64($29)
  403930:	28 00 00 00 3c 00 17 1d 	lw $23,60($29)
  403938:	28 00 00 00 38 00 16 1d 	lw $22,56($29)
  403940:	28 00 00 00 34 00 15 1d 	lw $21,52($29)
  403948:	28 00 00 00 30 00 14 1d 	lw $20,48($29)
  403950:	28 00 00 00 2c 00 13 1d 	lw $19,44($29)
  403958:	28 00 00 00 28 00 12 1d 	lw $18,40($29)
  403960:	28 00 00 00 24 00 11 1d 	lw $17,36($29)
  403968:	28 00 00 00 20 00 10 1d 	lw $16,32($29)
  403970:	43 00 00 00 48 00 1d 1d 	addiu $29,$29,72
  403978:	03 00 00 00 00 00 00 1f 	jr $31

00403980 <fillbuf>:
  403980:	43 00 00 00 c0 ff 1d 1d 	addiu $29,$29,-64
  403988:	34 00 00 00 20 00 10 1d 	sw $16,32($29)
  403990:	42 00 00 00 00 10 04 00 	addu $16,$0,$4
  403998:	34 00 00 00 3c 00 1f 1d 	sw $31,60($29)
  4039a0:	34 00 00 00 38 00 16 1d 	sw $22,56($29)
  4039a8:	34 00 00 00 34 00 15 1d 	sw $21,52($29)
  4039b0:	34 00 00 00 30 00 14 1d 	sw $20,48($29)
  4039b8:	34 00 00 00 2c 00 13 1d 	sw $19,44($29)
  4039c0:	34 00 00 00 28 00 12 1d 	sw $18,40($29)
  4039c8:	34 00 00 00 24 00 11 1d 	sw $17,36($29)
  4039d0:	28 00 00 00 20 00 02 10 	lw $2,32($16)
  4039d8:	42 00 00 00 00 15 00 00 	addu $21,$0,$0
  4039e0:	42 00 00 00 00 14 00 00 	addu $20,$0,$0
  4039e8:	06 00 00 00 08 00 00 02 	bne $2,$0,403a10 <fillbuf+0x90>
  4039f0:	28 00 00 00 4c 00 02 10 	lw $2,76($16)
  4039f8:	51 00 00 00 00 02 02 02 	ori $2,$2,512
  403a00:	34 00 00 00 4c 00 02 10 	sw $2,76($16)
  403a08:	01 00 00 00 4e 0f 10 00 	j 403d38 <fillbuf+0x3b8>
  403a10:	28 00 00 00 10 00 05 10 	lw $5,16($16)
  403a18:	06 00 00 00 06 00 00 05 	bne $5,$0,403a38 <fillbuf+0xb8>
  403a20:	43 00 00 00 10 00 12 1d 	addiu $18,$29,16
  403a28:	43 00 00 00 01 00 11 00 	addiu $17,$0,1
  403a30:	01 00 00 00 92 0e 10 00 	j 403a48 <fillbuf+0xc8>
  403a38:	42 00 00 00 00 12 05 00 	addu $18,$0,$5
  403a40:	28 00 00 00 14 00 11 10 	lw $17,20($16)
  403a48:	42 00 00 00 00 04 10 00 	addu $4,$0,$16
  403a50:	28 00 00 00 4c 00 02 10 	lw $2,76($16)
  403a58:	28 00 00 00 60 84 16 1c 	lw $22,-31648($28)
  403a60:	43 00 00 00 ff fd 03 00 	addiu $3,$0,-513
  403a68:	4e 00 00 00 00 02 03 02 	and $2,$2,$3
  403a70:	34 00 00 00 4c 00 02 10 	sw $2,76($16)
  403a78:	02 00 00 00 b6 0b 10 00 	jal 402ed8 <__stdio_check_offset>
  403a80:	06 00 00 00 58 00 00 02 	bne $2,$0,403be8 <fillbuf+0x268>
  403a88:	28 00 00 00 40 00 03 10 	lw $3,64($16)
  403a90:	28 00 00 00 3c 00 02 10 	lw $2,60($16)
  403a98:	05 00 00 00 52 00 02 03 	beq $3,$2,403be8 <fillbuf+0x268>
  403aa0:	28 00 00 00 14 00 02 10 	lw $2,20($16)
  403aa8:	05 00 00 00 0c 00 00 02 	beq $2,$0,403ae0 <fillbuf+0x160>
  403ab0:	49 00 00 00 00 00 02 03 	divu $0,$3,$2
  403ab8:	06 00 00 00 02 00 00 02 	bne $2,$0,403ac8 <fillbuf+0x148>
  403ac0:	a1 00 00 00 07 00 00 00 	break 
  403ac8:	4a 00 00 00 00 15 00 00 	mfhi $21
  403ad0:	45 00 00 00 00 02 15 03 	subu $2,$3,$21
  403ad8:	34 00 00 00 40 00 02 10 	sw $2,64($16)
  403ae0:	28 00 00 00 60 84 13 1c 	lw $19,-31648($28)
  403ae8:	42 00 00 00 00 04 10 00 	addu $4,$0,$16
  403af0:	02 00 00 00 b6 0b 10 00 	jal 402ed8 <__stdio_check_offset>
  403af8:	43 00 00 00 ff ff 03 00 	addiu $3,$0,-1
  403b00:	06 00 00 00 0a 00 03 02 	bne $2,$3,403b30 <fillbuf+0x1b0>
  403b08:	28 00 00 00 60 84 03 1c 	lw $3,-31648($28)
  403b10:	43 00 00 00 1d 00 02 00 	addiu $2,$0,29
  403b18:	06 00 00 00 2c 00 02 03 	bne $3,$2,403bd0 <fillbuf+0x250>
  403b20:	34 00 00 00 60 84 13 1c 	sw $19,-31648($28)
  403b28:	01 00 00 00 fa 0e 10 00 	j 403be8 <fillbuf+0x268>
  403b30:	28 00 00 00 40 00 03 10 	lw $3,64($16)
  403b38:	28 00 00 00 3c 00 02 10 	lw $2,60($16)
  403b40:	05 00 00 00 28 00 02 03 	beq $3,$2,403be8 <fillbuf+0x268>
  403b48:	28 00 00 00 28 00 02 10 	lw $2,40($16)
  403b50:	06 00 00 00 08 00 00 02 	bne $2,$0,403b78 <fillbuf+0x1f8>
  403b58:	28 00 00 00 4c 00 02 10 	lw $2,76($16)
  403b60:	43 00 00 00 1d 00 03 00 	addiu $3,$0,29
  403b68:	34 00 00 00 60 84 03 1c 	sw $3,-31648($28)
  403b70:	01 00 00 00 f6 0e 10 00 	j 403bd8 <fillbuf+0x258>
  403b78:	28 00 00 00 18 00 04 10 	lw $4,24($16)
  403b80:	28 00 00 00 28 00 02 10 	lw $2,40($16)
  403b88:	43 00 00 00 18 00 05 1d 	addiu $5,$29,24
  403b90:	42 00 00 00 00 06 00 00 	addu $6,$0,$0
  403b98:	34 00 00 00 18 00 03 1d 	sw $3,24($29)
  403ba0:	04 00 00 00 00 1f 00 02 	jalr $31,$2
  403ba8:	09 00 00 00 08 00 00 02 	bltz $2,403bd0 <fillbuf+0x250>
  403bb0:	28 00 00 00 18 00 02 1d 	lw $2,24($29)
  403bb8:	28 00 00 00 40 00 03 10 	lw $3,64($16)
  403bc0:	34 00 00 00 3c 00 02 10 	sw $2,60($16)
  403bc8:	05 00 00 00 06 00 03 02 	beq $2,$3,403be8 <fillbuf+0x268>
  403bd0:	28 00 00 00 4c 00 02 10 	lw $2,76($16)
  403bd8:	51 00 00 00 00 04 02 02 	ori $2,$2,1024
  403be0:	34 00 00 00 4c 00 02 10 	sw $2,76($16)
  403be8:	28 00 00 00 4c 00 02 10 	lw $2,76($16)
  403bf0:	34 00 00 00 60 84 16 1c 	sw $22,-31648($28)
  403bf8:	4f 00 00 00 00 06 02 02 	andi $2,$2,1536
  403c00:	06 00 00 00 36 00 00 02 	bne $2,$0,403ce0 <fillbuf+0x360>
  403c08:	5d 00 00 00 00 02 14 15 	sltu $2,$21,$20
  403c10:	06 00 00 00 32 00 00 02 	bne $2,$0,403ce0 <fillbuf+0x360>
  403c18:	28 00 00 00 18 00 04 10 	lw $4,24($16)
  403c20:	28 00 00 00 20 00 02 10 	lw $2,32($16)
  403c28:	42 00 00 00 00 05 12 00 	addu $5,$0,$18
  403c30:	42 00 00 00 00 06 11 00 	addu $6,$0,$17
  403c38:	04 00 00 00 00 1f 00 02 	jalr $31,$2
  403c40:	42 00 00 00 00 03 02 00 	addu $3,$0,$2
  403c48:	06 00 00 00 08 00 00 03 	bne $3,$0,403c70 <fillbuf+0x2f0>
  403c50:	28 00 00 00 4c 00 02 10 	lw $2,76($16)
  403c58:	51 00 00 00 00 02 02 02 	ori $2,$2,512
  403c60:	34 00 00 00 4c 00 02 10 	sw $2,76($16)
  403c68:	01 00 00 00 32 0f 10 00 	j 403cc8 <fillbuf+0x348>
  403c70:	0a 00 00 00 08 00 00 03 	bgez $3,403c98 <fillbuf+0x318>
  403c78:	28 00 00 00 4c 00 02 10 	lw $2,76($16)
  403c80:	51 00 00 00 00 04 02 02 	ori $2,$2,1024
  403c88:	34 00 00 00 4c 00 02 10 	sw $2,76($16)
  403c90:	01 00 00 00 32 0f 10 00 	j 403cc8 <fillbuf+0x348>
  403c98:	42 00 00 00 00 12 03 12 	addu $18,$18,$3
  403ca0:	28 00 00 00 3c 00 02 10 	lw $2,60($16)
  403ca8:	42 00 00 00 00 14 03 14 	addu $20,$20,$3
  403cb0:	45 00 00 00 00 11 03 11 	subu $17,$17,$3
  403cb8:	42 00 00 00 00 02 02 03 	addu $2,$3,$2
  403cc0:	34 00 00 00 3c 00 02 10 	sw $2,60($16)
  403cc8:	28 00 00 00 4c 00 02 10 	lw $2,76($16)
  403cd0:	4f 00 00 00 00 06 02 02 	andi $2,$2,1536
  403cd8:	05 00 00 00 ca ff 00 02 	beq $2,$0,403c08 <fillbuf+0x288>
  403ce0:	28 00 00 00 10 00 02 10 	lw $2,16($16)
  403ce8:	06 00 00 00 0e 00 00 02 	bne $2,$0,403d28 <fillbuf+0x3a8>
  403cf0:	28 00 00 00 4c 00 02 10 	lw $2,76($16)
  403cf8:	43 00 00 00 ff ff 03 00 	addiu $3,$0,-1
  403d00:	4f 00 00 00 00 06 02 02 	andi $2,$2,1536
  403d08:	06 00 00 00 02 00 00 02 	bne $2,$0,403d18 <fillbuf+0x398>
  403d10:	22 00 00 00 10 00 03 1d 	lbu $3,16($29)
  403d18:	42 00 00 00 00 02 03 00 	addu $2,$0,$3
  403d20:	01 00 00 00 70 0f 10 00 	j 403dc0 <fillbuf+0x440>
  403d28:	42 00 00 00 00 02 02 15 	addu $2,$21,$2
  403d30:	34 00 00 00 04 00 02 10 	sw $2,4($16)
  403d38:	28 00 00 00 4c 00 02 10 	lw $2,76($16)
  403d40:	4f 00 00 00 00 06 02 02 	andi $2,$2,1536
  403d48:	06 00 00 00 14 00 00 02 	bne $2,$0,403da0 <fillbuf+0x420>
  403d50:	28 00 00 00 10 00 02 10 	lw $2,16($16)
  403d58:	28 00 00 00 10 00 03 10 	lw $3,16($16)
  403d60:	28 00 00 00 04 00 04 10 	lw $4,4($16)
  403d68:	42 00 00 00 00 02 02 14 	addu $2,$20,$2
  403d70:	34 00 00 00 08 00 02 10 	sw $2,8($16)
  403d78:	43 00 00 00 01 00 02 04 	addiu $2,$4,1
  403d80:	34 00 00 00 0c 00 03 10 	sw $3,12($16)
  403d88:	34 00 00 00 04 00 02 10 	sw $2,4($16)
  403d90:	22 00 00 00 00 00 02 04 	lbu $2,0($4)
  403d98:	01 00 00 00 70 0f 10 00 	j 403dc0 <fillbuf+0x440>
  403da0:	28 00 00 00 10 00 03 10 	lw $3,16($16)
  403da8:	43 00 00 00 ff ff 02 00 	addiu $2,$0,-1
  403db0:	34 00 00 00 08 00 03 10 	sw $3,8($16)
  403db8:	34 00 00 00 0c 00 03 10 	sw $3,12($16)
  403dc0:	28 00 00 00 3c 00 1f 1d 	lw $31,60($29)
  403dc8:	28 00 00 00 38 00 16 1d 	lw $22,56($29)
  403dd0:	28 00 00 00 34 00 15 1d 	lw $21,52($29)
  403dd8:	28 00 00 00 30 00 14 1d 	lw $20,48($29)
  403de0:	28 00 00 00 2c 00 13 1d 	lw $19,44($29)
  403de8:	28 00 00 00 28 00 12 1d 	lw $18,40($29)
  403df0:	28 00 00 00 24 00 11 1d 	lw $17,36($29)
  403df8:	28 00 00 00 20 00 10 1d 	lw $16,32($29)
  403e00:	43 00 00 00 40 00 1d 1d 	addiu $29,$29,64
  403e08:	03 00 00 00 00 00 00 1f 	jr $31

00403e10 <__flshfp>:
  403e10:	43 00 00 00 d8 ff 1d 1d 	addiu $29,$29,-40
  403e18:	34 00 00 00 10 00 10 1d 	sw $16,16($29)
  403e20:	42 00 00 00 00 10 04 00 	addu $16,$0,$4
  403e28:	34 00 00 00 18 00 12 1d 	sw $18,24($29)
  403e30:	42 00 00 00 00 12 05 00 	addu $18,$0,$5
  403e38:	54 00 00 00 00 02 12 00 	nor $2,$0,$18
  403e40:	34 00 00 00 1c 00 13 1d 	sw $19,28($29)
  403e48:	5e 00 00 00 01 00 13 02 	sltiu $19,$2,1
  403e50:	34 00 00 00 20 00 1f 1d 	sw $31,32($29)
  403e58:	34 00 00 00 14 00 11 1d 	sw $17,20($29)
  403e60:	05 00 00 00 1a 00 00 10 	beq $16,$0,403ed0 <__flshfp+0xc0>
  403e68:	28 00 00 00 00 00 03 10 	lw $3,0($16)
  403e70:	a2 00 00 00 ed fe 02 00 	lui $2,65261
  403e78:	51 00 00 00 be ba 02 02 	ori $2,$2,47806
  403e80:	06 00 00 00 04 00 02 03 	bne $3,$2,403e98 <__flshfp+0x88>
  403e88:	28 00 00 00 04 00 02 10 	lw $2,4($16)
  403e90:	28 00 00 00 00 00 10 02 	lw $16,0($2)
  403e98:	28 00 00 00 00 00 03 10 	lw $3,0($16)
  403ea0:	a2 00 00 00 da fe 02 00 	lui $2,65242
  403ea8:	51 00 00 00 eb be 02 02 	ori $2,$2,48875
  403eb0:	06 00 00 00 06 00 02 03 	bne $3,$2,403ed0 <__flshfp+0xc0>
  403eb8:	28 00 00 00 1c 00 02 10 	lw $2,28($16)
  403ec0:	4f 00 00 00 02 00 02 02 	andi $2,$2,2
  403ec8:	06 00 00 00 08 00 00 02 	bne $2,$0,403ef0 <__flshfp+0xe0>
  403ed0:	43 00 00 00 16 00 02 00 	addiu $2,$0,22
  403ed8:	34 00 00 00 60 84 02 1c 	sw $2,-31648($28)
  403ee0:	43 00 00 00 ff ff 02 00 	addiu $2,$0,-1
  403ee8:	01 00 00 00 c4 10 10 00 	j 404310 <__flshfp+0x500>
  403ef0:	28 00 00 00 4c 00 03 10 	lw $3,76($16)
  403ef8:	4f 00 00 00 00 04 02 03 	andi $2,$3,1024
  403f00:	06 00 00 00 f6 ff 00 02 	bne $2,$0,403ee0 <__flshfp+0xd0>
  403f08:	4f 00 00 00 00 01 02 03 	andi $2,$3,256
  403f10:	05 00 00 00 0c 00 00 02 	beq $2,$0,403f48 <__flshfp+0x138>
  403f18:	28 00 00 00 48 00 02 10 	lw $2,72($16)
  403f20:	28 00 00 00 4c 00 03 10 	lw $3,76($16)
  403f28:	34 00 00 00 04 00 02 10 	sw $2,4($16)
  403f30:	43 00 00 00 ff fe 02 00 	addiu $2,$0,-257
  403f38:	4e 00 00 00 00 03 02 03 	and $3,$3,$2
  403f40:	34 00 00 00 4c 00 03 10 	sw $3,76($16)
  403f48:	28 00 00 00 4c 00 02 10 	lw $2,76($16)
  403f50:	4f 00 00 00 00 40 02 02 	andi $2,$2,16384
  403f58:	06 00 00 00 2c 00 00 02 	bne $2,$0,404010 <__flshfp+0x200>
  403f60:	28 00 00 00 a0 80 02 1c 	lw $2,-32608($28)
  403f68:	a2 00 00 00 01 10 03 00 	lui $3,4097
  403f70:	28 00 00 00 04 23 03 03 	lw $3,8964($3)
  403f78:	34 00 00 00 34 00 02 10 	sw $2,52($16)
  403f80:	34 00 00 00 38 00 03 10 	sw $3,56($16)
  403f88:	a2 00 00 00 00 10 05 00 	lui $5,4096
  403f90:	43 00 00 00 50 02 05 05 	addiu $5,$5,592
  403f98:	28 00 00 00 00 00 02 05 	lw $2,0($5)
  403fa0:	28 00 00 00 04 00 03 05 	lw $3,4($5)
  403fa8:	28 00 00 00 08 00 04 05 	lw $4,8($5)
  403fb0:	34 00 00 00 20 00 02 10 	sw $2,32($16)
  403fb8:	34 00 00 00 24 00 03 10 	sw $3,36($16)
  403fc0:	34 00 00 00 28 00 04 10 	sw $4,40($16)
  403fc8:	28 00 00 00 0c 00 02 05 	lw $2,12($5)
  403fd0:	28 00 00 00 10 00 03 05 	lw $3,16($5)
  403fd8:	34 00 00 00 2c 00 02 10 	sw $2,44($16)
  403fe0:	34 00 00 00 30 00 03 10 	sw $3,48($16)
  403fe8:	42 00 00 00 00 04 10 00 	addu $4,$0,$16
  403ff0:	02 00 00 00 dc 20 10 00 	jal 408370 <__stdio_init_stream>
  403ff8:	28 00 00 00 4c 00 02 10 	lw $2,76($16)
  404000:	51 00 00 00 00 40 02 02 	ori $2,$2,16384
  404008:	34 00 00 00 4c 00 02 10 	sw $2,76($16)
  404010:	28 00 00 00 10 00 02 10 	lw $2,16($16)
  404018:	06 00 00 00 36 00 00 02 	bne $2,$0,4040f8 <__flshfp+0x2e8>
  404020:	28 00 00 00 4c 00 02 10 	lw $2,76($16)
  404028:	4f 00 00 00 00 08 02 02 	andi $2,$2,2048
  404030:	06 00 00 00 30 00 00 02 	bne $2,$0,4040f8 <__flshfp+0x2e8>
  404038:	28 00 00 00 14 00 02 10 	lw $2,20($16)
  404040:	06 00 00 00 04 00 00 02 	bne $2,$0,404058 <__flshfp+0x248>
  404048:	43 00 00 00 00 04 02 00 	addiu $2,$0,1024
  404050:	34 00 00 00 14 00 02 10 	sw $2,20($16)
  404058:	28 00 00 00 14 00 04 10 	lw $4,20($16)
  404060:	28 00 00 00 60 84 11 1c 	lw $17,-31648($28)
  404068:	5e 00 00 00 80 00 02 04 	sltiu $2,$4,128
  404070:	06 00 00 00 12 00 00 02 	bne $2,$0,4040c0 <__flshfp+0x2b0>
  404078:	02 00 00 00 96 22 10 00 	jal 408a58 <malloc>
  404080:	34 00 00 00 10 00 02 10 	sw $2,16($16)
  404088:	06 00 00 00 0c 00 00 02 	bne $2,$0,4040c0 <__flshfp+0x2b0>
  404090:	28 00 00 00 14 00 02 10 	lw $2,20($16)
  404098:	57 00 00 00 01 02 02 00 	srl $2,$2,0x1
  4040a0:	42 00 00 00 00 04 02 00 	addu $4,$0,$2
  4040a8:	5e 00 00 00 80 00 02 04 	sltiu $2,$4,128
  4040b0:	34 00 00 00 14 00 04 10 	sw $4,20($16)
  4040b8:	05 00 00 00 ee ff 00 02 	beq $2,$0,404078 <__flshfp+0x268>
  4040c0:	28 00 00 00 10 00 02 10 	lw $2,16($16)
  4040c8:	34 00 00 00 60 84 11 1c 	sw $17,-31648($28)
  4040d0:	06 00 00 00 08 00 00 02 	bne $2,$0,4040f8 <__flshfp+0x2e8>
  4040d8:	28 00 00 00 4c 00 02 10 	lw $2,76($16)
  4040e0:	34 00 00 00 14 00 00 10 	sw $0,20($16)
  4040e8:	51 00 00 00 00 08 02 02 	ori $2,$2,2048
  4040f0:	34 00 00 00 4c 00 02 10 	sw $2,76($16)
  4040f8:	28 00 00 00 04 00 02 10 	lw $2,4($16)
  404100:	06 00 00 00 0a 00 00 02 	bne $2,$0,404130 <__flshfp+0x320>
  404108:	28 00 00 00 10 00 02 10 	lw $2,16($16)
  404110:	28 00 00 00 10 00 03 10 	lw $3,16($16)
  404118:	34 00 00 00 04 00 02 10 	sw $2,4($16)
  404120:	34 00 00 00 08 00 03 10 	sw $3,8($16)
  404128:	34 00 00 00 0c 00 03 10 	sw $3,12($16)
  404130:	28 00 00 00 38 00 02 10 	lw $2,56($16)
  404138:	06 00 00 00 0a 00 00 02 	bne $2,$0,404168 <__flshfp+0x358>
  404140:	28 00 00 00 4c 00 03 10 	lw $3,76($16)
  404148:	43 00 00 00 ff ff 02 00 	addiu $2,$0,-1
  404150:	51 00 00 00 00 04 03 03 	ori $3,$3,1024
  404158:	34 00 00 00 4c 00 03 10 	sw $3,76($16)
  404160:	01 00 00 00 c4 10 10 00 	j 404310 <__flshfp+0x500>
  404168:	06 00 00 00 30 00 00 13 	bne $19,$0,404230 <__flshfp+0x420>
  404170:	28 00 00 00 4c 00 02 10 	lw $2,76($16)
  404178:	28 00 00 00 04 00 04 10 	lw $4,4($16)
  404180:	4f 00 00 00 00 20 02 02 	andi $2,$2,8192
  404188:	05 00 00 00 0c 00 00 02 	beq $2,$0,4041c0 <__flshfp+0x3b0>
  404190:	28 00 00 00 10 00 02 10 	lw $2,16($16)
  404198:	28 00 00 00 14 00 03 10 	lw $3,20($16)
  4041a0:	42 00 00 00 00 02 03 02 	addu $2,$2,$3
  4041a8:	5d 00 00 00 00 02 02 04 	sltu $2,$4,$2
  4041b0:	06 00 00 00 08 00 00 02 	bne $2,$0,4041d8 <__flshfp+0x3c8>
  4041b8:	01 00 00 00 8c 10 10 00 	j 404230 <__flshfp+0x420>
  4041c0:	28 00 00 00 0c 00 02 10 	lw $2,12($16)
  4041c8:	5d 00 00 00 00 02 02 04 	sltu $2,$4,$2
  4041d0:	05 00 00 00 16 00 00 02 	beq $2,$0,404230 <__flshfp+0x420>
  4041d8:	28 00 00 00 04 00 03 10 	lw $3,4($16)
  4041e0:	43 00 00 00 01 00 02 03 	addiu $2,$3,1
  4041e8:	34 00 00 00 04 00 02 10 	sw $2,4($16)
  4041f0:	30 00 00 00 00 00 12 03 	sb $18,0($3)
  4041f8:	28 00 00 00 4c 00 02 10 	lw $2,76($16)
  404200:	4f 00 00 00 00 10 02 02 	andi $2,$2,4096
  404208:	05 00 00 00 3a 00 00 02 	beq $2,$0,4042f8 <__flshfp+0x4e8>
  404210:	4f 00 00 00 ff 00 03 12 	andi $3,$18,255
  404218:	43 00 00 00 0a 00 02 00 	addiu $2,$0,10
  404220:	06 00 00 00 34 00 02 03 	bne $3,$2,4042f8 <__flshfp+0x4e8>
  404228:	43 00 00 00 01 00 13 00 	addiu $19,$0,1
  404230:	28 00 00 00 4c 00 02 10 	lw $2,76($16)
  404238:	4f 00 00 00 00 20 02 02 	andi $2,$2,8192
  404240:	05 00 00 00 08 00 00 02 	beq $2,$0,404268 <__flshfp+0x458>
  404248:	28 00 00 00 10 00 02 10 	lw $2,16($16)
  404250:	28 00 00 00 14 00 03 10 	lw $3,20($16)
  404258:	42 00 00 00 00 02 03 02 	addu $2,$2,$3
  404260:	34 00 00 00 0c 00 02 10 	sw $2,12($16)
  404268:	43 00 00 00 ff ff 05 00 	addiu $5,$0,-1
  404270:	06 00 00 00 02 00 00 13 	bne $19,$0,404280 <__flshfp+0x470>
  404278:	4f 00 00 00 ff 00 05 12 	andi $5,$18,255
  404280:	28 00 00 00 38 00 02 10 	lw $2,56($16)
  404288:	42 00 00 00 00 04 10 00 	addu $4,$0,$16
  404290:	04 00 00 00 00 1f 00 02 	jalr $31,$2
  404298:	28 00 00 00 4c 00 02 10 	lw $2,76($16)
  4042a0:	4f 00 00 00 00 10 02 02 	andi $2,$2,4096
  4042a8:	05 00 00 00 0a 00 00 02 	beq $2,$0,4042d8 <__flshfp+0x4c8>
  4042b0:	28 00 00 00 4c 00 02 10 	lw $2,76($16)
  4042b8:	28 00 00 00 10 00 03 10 	lw $3,16($16)
  4042c0:	51 00 00 00 00 20 02 02 	ori $2,$2,8192
  4042c8:	34 00 00 00 0c 00 03 10 	sw $3,12($16)
  4042d0:	34 00 00 00 4c 00 02 10 	sw $2,76($16)
  4042d8:	28 00 00 00 4c 00 02 10 	lw $2,76($16)
  4042e0:	4f 00 00 00 00 04 02 02 	andi $2,$2,1024
  4042e8:	06 00 00 00 fc fe 00 02 	bne $2,$0,403ee0 <__flshfp+0xd0>
  4042f0:	06 00 00 00 04 00 00 13 	bne $19,$0,404308 <__flshfp+0x4f8>
  4042f8:	4f 00 00 00 ff 00 02 12 	andi $2,$18,255
  404300:	01 00 00 00 c4 10 10 00 	j 404310 <__flshfp+0x500>
  404308:	42 00 00 00 00 02 00 00 	addu $2,$0,$0
  404310:	28 00 00 00 20 00 1f 1d 	lw $31,32($29)
  404318:	28 00 00 00 1c 00 13 1d 	lw $19,28($29)
  404320:	28 00 00 00 18 00 12 1d 	lw $18,24($29)
  404328:	28 00 00 00 14 00 11 1d 	lw $17,20($29)
  404330:	28 00 00 00 10 00 10 1d 	lw $16,16($29)
  404338:	43 00 00 00 28 00 1d 1d 	addiu $29,$29,40
  404340:	03 00 00 00 00 00 00 1f 	jr $31

00404348 <__fillbf>:
  404348:	43 00 00 00 d8 ff 1d 1d 	addiu $29,$29,-40
  404350:	34 00 00 00 14 00 11 1d 	sw $17,20($29)
  404358:	42 00 00 00 00 11 04 00 	addu $17,$0,$4
  404360:	34 00 00 00 20 00 1f 1d 	sw $31,32($29)
  404368:	34 00 00 00 1c 00 13 1d 	sw $19,28($29)
  404370:	34 00 00 00 18 00 12 1d 	sw $18,24($29)
  404378:	34 00 00 00 10 00 10 1d 	sw $16,16($29)
  404380:	05 00 00 00 1a 00 00 11 	beq $17,$0,4043f0 <__fillbf+0xa8>
  404388:	28 00 00 00 00 00 03 11 	lw $3,0($17)
  404390:	a2 00 00 00 ed fe 02 00 	lui $2,65261
  404398:	51 00 00 00 be ba 02 02 	ori $2,$2,47806
  4043a0:	06 00 00 00 04 00 02 03 	bne $3,$2,4043b8 <__fillbf+0x70>
  4043a8:	28 00 00 00 04 00 02 11 	lw $2,4($17)
  4043b0:	28 00 00 00 00 00 11 02 	lw $17,0($2)
  4043b8:	28 00 00 00 00 00 03 11 	lw $3,0($17)
  4043c0:	a2 00 00 00 da fe 02 00 	lui $2,65242
  4043c8:	51 00 00 00 eb be 02 02 	ori $2,$2,48875
  4043d0:	06 00 00 00 06 00 02 03 	bne $3,$2,4043f0 <__fillbf+0xa8>
  4043d8:	28 00 00 00 1c 00 02 11 	lw $2,28($17)
  4043e0:	4f 00 00 00 01 00 02 02 	andi $2,$2,1
  4043e8:	06 00 00 00 08 00 00 02 	bne $2,$0,404410 <__fillbf+0xc8>
  4043f0:	43 00 00 00 16 00 02 00 	addiu $2,$0,22
  4043f8:	34 00 00 00 60 84 02 1c 	sw $2,-31648($28)
  404400:	43 00 00 00 ff ff 02 00 	addiu $2,$0,-1
  404408:	01 00 00 00 28 12 10 00 	j 4048a0 <__fillbf+0x558>
  404410:	28 00 00 00 4c 00 03 11 	lw $3,76($17)
  404418:	4f 00 00 00 00 01 02 03 	andi $2,$3,256
  404420:	05 00 00 00 10 00 00 02 	beq $2,$0,404468 <__fillbf+0x120>
  404428:	28 00 00 00 4c 00 02 11 	lw $2,76($17)
  404430:	43 00 00 00 ff fe 03 00 	addiu $3,$0,-257
  404438:	4e 00 00 00 00 02 03 02 	and $2,$2,$3
  404440:	28 00 00 00 48 00 03 11 	lw $3,72($17)
  404448:	34 00 00 00 4c 00 02 11 	sw $2,76($17)
  404450:	22 00 00 00 4c 00 02 11 	lbu $2,76($17)
  404458:	34 00 00 00 04 00 03 11 	sw $3,4($17)
  404460:	01 00 00 00 28 12 10 00 	j 4048a0 <__fillbf+0x558>
  404468:	4f 00 00 00 00 40 02 03 	andi $2,$3,16384
  404470:	06 00 00 00 2c 00 00 02 	bne $2,$0,404528 <__fillbf+0x1e0>
  404478:	28 00 00 00 a0 80 02 1c 	lw $2,-32608($28)
  404480:	a2 00 00 00 01 10 03 00 	lui $3,4097
  404488:	28 00 00 00 04 23 03 03 	lw $3,8964($3)
  404490:	34 00 00 00 34 00 02 11 	sw $2,52($17)
  404498:	34 00 00 00 38 00 03 11 	sw $3,56($17)
  4044a0:	a2 00 00 00 00 10 05 00 	lui $5,4096
  4044a8:	43 00 00 00 50 02 05 05 	addiu $5,$5,592
  4044b0:	28 00 00 00 00 00 02 05 	lw $2,0($5)
  4044b8:	28 00 00 00 04 00 03 05 	lw $3,4($5)
  4044c0:	28 00 00 00 08 00 04 05 	lw $4,8($5)
  4044c8:	34 00 00 00 20 00 02 11 	sw $2,32($17)
  4044d0:	34 00 00 00 24 00 03 11 	sw $3,36($17)
  4044d8:	34 00 00 00 28 00 04 11 	sw $4,40($17)
  4044e0:	28 00 00 00 0c 00 02 05 	lw $2,12($5)
  4044e8:	28 00 00 00 10 00 03 05 	lw $3,16($5)
  4044f0:	34 00 00 00 2c 00 02 11 	sw $2,44($17)
  4044f8:	34 00 00 00 30 00 03 11 	sw $3,48($17)
  404500:	42 00 00 00 00 04 11 00 	addu $4,$0,$17
  404508:	02 00 00 00 dc 20 10 00 	jal 408370 <__stdio_init_stream>
  404510:	28 00 00 00 4c 00 02 11 	lw $2,76($17)
  404518:	51 00 00 00 00 40 02 02 	ori $2,$2,16384
  404520:	34 00 00 00 4c 00 02 11 	sw $2,76($17)
  404528:	28 00 00 00 10 00 02 11 	lw $2,16($17)
  404530:	06 00 00 00 36 00 00 02 	bne $2,$0,404610 <__fillbf+0x2c8>
  404538:	28 00 00 00 4c 00 02 11 	lw $2,76($17)
  404540:	4f 00 00 00 00 08 02 02 	andi $2,$2,2048
  404548:	06 00 00 00 30 00 00 02 	bne $2,$0,404610 <__fillbf+0x2c8>
  404550:	28 00 00 00 14 00 02 11 	lw $2,20($17)
  404558:	06 00 00 00 04 00 00 02 	bne $2,$0,404570 <__fillbf+0x228>
  404560:	43 00 00 00 00 04 02 00 	addiu $2,$0,1024
  404568:	34 00 00 00 14 00 02 11 	sw $2,20($17)
  404570:	28 00 00 00 14 00 04 11 	lw $4,20($17)
  404578:	28 00 00 00 60 84 10 1c 	lw $16,-31648($28)
  404580:	5e 00 00 00 80 00 02 04 	sltiu $2,$4,128
  404588:	06 00 00 00 12 00 00 02 	bne $2,$0,4045d8 <__fillbf+0x290>
  404590:	02 00 00 00 96 22 10 00 	jal 408a58 <malloc>
  404598:	34 00 00 00 10 00 02 11 	sw $2,16($17)
  4045a0:	06 00 00 00 0c 00 00 02 	bne $2,$0,4045d8 <__fillbf+0x290>
  4045a8:	28 00 00 00 14 00 02 11 	lw $2,20($17)
  4045b0:	57 00 00 00 01 02 02 00 	srl $2,$2,0x1
  4045b8:	42 00 00 00 00 04 02 00 	addu $4,$0,$2
  4045c0:	5e 00 00 00 80 00 02 04 	sltiu $2,$4,128
  4045c8:	34 00 00 00 14 00 04 11 	sw $4,20($17)
  4045d0:	05 00 00 00 ee ff 00 02 	beq $2,$0,404590 <__fillbf+0x248>
  4045d8:	28 00 00 00 10 00 02 11 	lw $2,16($17)
  4045e0:	34 00 00 00 60 84 10 1c 	sw $16,-31648($28)
  4045e8:	06 00 00 00 08 00 00 02 	bne $2,$0,404610 <__fillbf+0x2c8>
  4045f0:	28 00 00 00 4c 00 02 11 	lw $2,76($17)
  4045f8:	34 00 00 00 14 00 00 11 	sw $0,20($17)
  404600:	51 00 00 00 00 08 02 02 	ori $2,$2,2048
  404608:	34 00 00 00 4c 00 02 11 	sw $2,76($17)
  404610:	28 00 00 00 04 00 02 11 	lw $2,4($17)
  404618:	06 00 00 00 0a 00 00 02 	bne $2,$0,404648 <__fillbf+0x300>
  404620:	28 00 00 00 10 00 02 11 	lw $2,16($17)
  404628:	28 00 00 00 10 00 03 11 	lw $3,16($17)
  404630:	34 00 00 00 04 00 02 11 	sw $2,4($17)
  404638:	34 00 00 00 08 00 03 11 	sw $3,8($17)
  404640:	34 00 00 00 0c 00 03 11 	sw $3,12($17)
  404648:	28 00 00 00 10 00 02 11 	lw $2,16($17)
  404650:	05 00 00 00 06 00 00 02 	beq $2,$0,404670 <__fillbf+0x328>
  404658:	28 00 00 00 4c 00 02 11 	lw $2,76($17)
  404660:	4f 00 00 00 00 10 02 02 	andi $2,$2,4096
  404668:	05 00 00 00 2e 00 00 02 	beq $2,$0,404728 <__fillbf+0x3e0>
  404670:	28 00 00 00 9c 80 10 1c 	lw $16,-32612($28)
  404678:	05 00 00 00 2a 00 00 10 	beq $16,$0,404728 <__fillbf+0x3e0>
  404680:	a2 00 00 00 ed fe 13 00 	lui $19,65261
  404688:	51 00 00 00 be ba 13 13 	ori $19,$19,47806
  404690:	a2 00 00 00 da fe 12 00 	lui $18,65242
  404698:	51 00 00 00 eb be 12 12 	ori $18,$18,48875
  4046a0:	28 00 00 00 00 00 02 10 	lw $2,0($16)
  4046a8:	06 00 00 00 04 00 13 02 	bne $2,$19,4046c0 <__fillbf+0x378>
  4046b0:	28 00 00 00 04 00 02 10 	lw $2,4($16)
  4046b8:	28 00 00 00 00 00 10 02 	lw $16,0($2)
  4046c0:	28 00 00 00 00 00 02 10 	lw $2,0($16)
  4046c8:	06 00 00 00 12 00 12 02 	bne $2,$18,404718 <__fillbf+0x3d0>
  4046d0:	28 00 00 00 4c 00 02 10 	lw $2,76($16)
  4046d8:	4f 00 00 00 00 10 02 02 	andi $2,$2,4096
  4046e0:	05 00 00 00 0c 00 00 02 	beq $2,$0,404718 <__fillbf+0x3d0>
  4046e8:	28 00 00 00 1c 00 02 10 	lw $2,28($16)
  4046f0:	4f 00 00 00 02 00 02 02 	andi $2,$2,2
  4046f8:	05 00 00 00 06 00 00 02 	beq $2,$0,404718 <__fillbf+0x3d0>
  404700:	42 00 00 00 00 04 10 00 	addu $4,$0,$16
  404708:	43 00 00 00 ff ff 05 00 	addiu $5,$0,-1
  404710:	02 00 00 00 84 0f 10 00 	jal 403e10 <__flshfp>
  404718:	28 00 00 00 44 00 10 10 	lw $16,68($16)
  404720:	06 00 00 00 de ff 00 10 	bne $16,$0,4046a0 <__fillbf+0x358>
  404728:	28 00 00 00 4c 00 02 11 	lw $2,76($17)
  404730:	4f 00 00 00 00 20 02 02 	andi $2,$2,8192
  404738:	05 00 00 00 10 00 00 02 	beq $2,$0,404780 <__fillbf+0x438>
  404740:	28 00 00 00 10 00 02 11 	lw $2,16($17)
  404748:	28 00 00 00 14 00 04 11 	lw $4,20($17)
  404750:	28 00 00 00 4c 00 03 11 	lw $3,76($17)
  404758:	42 00 00 00 00 02 04 02 	addu $2,$2,$4
  404760:	34 00 00 00 0c 00 02 11 	sw $2,12($17)
  404768:	43 00 00 00 ff df 02 00 	addiu $2,$0,-8193
  404770:	4e 00 00 00 00 03 02 03 	and $3,$3,$2
  404778:	34 00 00 00 4c 00 03 11 	sw $3,76($17)
  404780:	28 00 00 00 08 00 03 11 	lw $3,8($17)
  404788:	28 00 00 00 10 00 02 11 	lw $2,16($17)
  404790:	28 00 00 00 40 00 04 11 	lw $4,64($17)
  404798:	28 00 00 00 0c 00 05 11 	lw $5,12($17)
  4047a0:	45 00 00 00 00 03 02 03 	subu $3,$3,$2
  4047a8:	42 00 00 00 00 10 04 03 	addu $16,$3,$4
  4047b0:	5d 00 00 00 00 02 05 02 	sltu $2,$2,$5
  4047b8:	05 00 00 00 12 00 00 02 	beq $2,$0,404808 <__fillbf+0x4c0>
  4047c0:	28 00 00 00 38 00 02 11 	lw $2,56($17)
  4047c8:	06 00 00 00 08 00 00 02 	bne $2,$0,4047f0 <__fillbf+0x4a8>
  4047d0:	28 00 00 00 4c 00 02 11 	lw $2,76($17)
  4047d8:	51 00 00 00 00 04 02 02 	ori $2,$2,1024
  4047e0:	34 00 00 00 4c 00 02 11 	sw $2,76($17)
  4047e8:	01 00 00 00 02 12 10 00 	j 404808 <__fillbf+0x4c0>
  4047f0:	42 00 00 00 00 04 11 00 	addu $4,$0,$17
  4047f8:	43 00 00 00 ff ff 05 00 	addiu $5,$0,-1
  404800:	04 00 00 00 00 1f 00 02 	jalr $31,$2
  404808:	28 00 00 00 4c 00 03 11 	lw $3,76($17)
  404810:	34 00 00 00 40 00 10 11 	sw $16,64($17)
  404818:	4f 00 00 00 00 04 02 03 	andi $2,$3,1024
  404820:	06 00 00 00 1a 00 00 02 	bne $2,$0,404890 <__fillbf+0x548>
  404828:	28 00 00 00 34 00 02 11 	lw $2,52($17)
  404830:	05 00 00 00 12 00 00 02 	beq $2,$0,404880 <__fillbf+0x538>
  404838:	42 00 00 00 00 04 11 00 	addu $4,$0,$17
  404840:	04 00 00 00 00 1f 00 02 	jalr $31,$2
  404848:	28 00 00 00 10 00 03 11 	lw $3,16($17)
  404850:	42 00 00 00 00 04 02 00 	addu $4,$0,$2
  404858:	06 00 00 00 0e 00 00 03 	bne $3,$0,404898 <__fillbf+0x550>
  404860:	28 00 00 00 40 00 02 11 	lw $2,64($17)
  404868:	43 00 00 00 01 00 02 02 	addiu $2,$2,1
  404870:	34 00 00 00 40 00 02 11 	sw $2,64($17)
  404878:	01 00 00 00 26 12 10 00 	j 404898 <__fillbf+0x550>
  404880:	51 00 00 00 00 02 02 03 	ori $2,$3,512
  404888:	34 00 00 00 4c 00 02 11 	sw $2,76($17)
  404890:	43 00 00 00 ff ff 04 00 	addiu $4,$0,-1
  404898:	42 00 00 00 00 02 04 00 	addu $2,$0,$4
  4048a0:	28 00 00 00 20 00 1f 1d 	lw $31,32($29)
  4048a8:	28 00 00 00 1c 00 13 1d 	lw $19,28($29)
  4048b0:	28 00 00 00 18 00 12 1d 	lw $18,24($29)
  4048b8:	28 00 00 00 14 00 11 1d 	lw $17,20($29)
  4048c0:	28 00 00 00 10 00 10 1d 	lw $16,16($29)
  4048c8:	43 00 00 00 28 00 1d 1d 	addiu $29,$29,40
  4048d0:	03 00 00 00 00 00 00 1f 	jr $31

004048d8 <__invalidate>:
  4048d8:	43 00 00 00 e0 ff 1d 1d 	addiu $29,$29,-32
  4048e0:	34 00 00 00 10 00 10 1d 	sw $16,16($29)
  4048e8:	42 00 00 00 00 10 04 00 	addu $16,$0,$4
  4048f0:	34 00 00 00 18 00 1f 1d 	sw $31,24($29)
  4048f8:	34 00 00 00 14 00 11 1d 	sw $17,20($29)
  404900:	28 00 00 00 44 00 11 10 	lw $17,68($16)
  404908:	42 00 00 00 00 05 00 00 	addu $5,$0,$0
  404910:	43 00 00 00 50 00 06 00 	addiu $6,$0,80
  404918:	02 00 00 00 f8 24 10 00 	jal 4093e0 <memset>
  404920:	34 00 00 00 44 00 11 10 	sw $17,68($16)
  404928:	28 00 00 00 18 00 1f 1d 	lw $31,24($29)
  404930:	28 00 00 00 14 00 11 1d 	lw $17,20($29)
  404938:	28 00 00 00 10 00 10 1d 	lw $16,16($29)
  404940:	43 00 00 00 20 00 1d 1d 	addiu $29,$29,32
  404948:	03 00 00 00 00 00 00 1f 	jr $31

00404950 <printf>:
  404950:	34 00 00 00 04 00 05 1d 	sw $5,4($29)
  404958:	42 00 00 00 00 05 04 00 	addu $5,$0,$4
  404960:	34 00 00 00 00 00 04 1d 	sw $4,0($29)
  404968:	28 00 00 00 94 80 04 1c 	lw $4,-32620($28)
  404970:	34 00 00 00 08 00 06 1d 	sw $6,8($29)
  404978:	34 00 00 00 0c 00 07 1d 	sw $7,12($29)
  404980:	43 00 00 00 e8 ff 1d 1d 	addiu $29,$29,-24
  404988:	43 00 00 00 1c 00 06 1d 	addiu $6,$29,28
  404990:	34 00 00 00 10 00 1f 1d 	sw $31,16($29)
  404998:	02 00 00 00 e0 13 10 00 	jal 404f80 <vfprintf>
  4049a0:	28 00 00 00 10 00 1f 1d 	lw $31,16($29)
  4049a8:	43 00 00 00 18 00 1d 1d 	addiu $29,$29,24
  4049b0:	03 00 00 00 00 00 00 1f 	jr $31
	...

004049c0 <scanf>:
  4049c0:	34 00 00 00 04 00 05 1d 	sw $5,4($29)
  4049c8:	42 00 00 00 00 05 04 00 	addu $5,$0,$4
  4049d0:	34 00 00 00 00 00 04 1d 	sw $4,0($29)
  4049d8:	28 00 00 00 90 80 04 1c 	lw $4,-32624($28)
  4049e0:	34 00 00 00 08 00 06 1d 	sw $6,8($29)
  4049e8:	34 00 00 00 0c 00 07 1d 	sw $7,12($29)
  4049f0:	43 00 00 00 e8 ff 1d 1d 	addiu $29,$29,-24
  4049f8:	43 00 00 00 1c 00 06 1d 	addiu $6,$29,28
  404a00:	34 00 00 00 10 00 1f 1d 	sw $31,16($29)
  404a08:	02 00 00 00 54 25 10 00 	jal 409550 <__vfscanf>
  404a10:	28 00 00 00 10 00 1f 1d 	lw $31,16($29)
  404a18:	43 00 00 00 18 00 1d 1d 	addiu $29,$29,24
  404a20:	03 00 00 00 00 00 00 1f 	jr $31
	...

00404a30 <atexit>:
  404a30:	43 00 00 00 e8 ff 1d 1d 	addiu $29,$29,-24
  404a38:	34 00 00 00 10 00 10 1d 	sw $16,16($29)
  404a40:	42 00 00 00 00 10 04 00 	addu $16,$0,$4
  404a48:	34 00 00 00 14 00 1f 1d 	sw $31,20($29)
  404a50:	02 00 00 00 ae 12 10 00 	jal 404ab8 <__new_exitfn>
  404a58:	42 00 00 00 00 04 02 00 	addu $4,$0,$2
  404a60:	05 00 00 00 0a 00 00 04 	beq $4,$0,404a90 <atexit+0x60>
  404a68:	42 00 00 00 00 02 00 00 	addu $2,$0,$0
  404a70:	43 00 00 00 02 00 03 00 	addiu $3,$0,2
  404a78:	34 00 00 00 00 00 03 04 	sw $3,0($4)
  404a80:	34 00 00 00 04 00 10 04 	sw $16,4($4)
  404a88:	01 00 00 00 a6 12 10 00 	j 404a98 <atexit+0x68>
  404a90:	43 00 00 00 ff ff 02 00 	addiu $2,$0,-1
  404a98:	28 00 00 00 14 00 1f 1d 	lw $31,20($29)
  404aa0:	28 00 00 00 10 00 10 1d 	lw $16,16($29)
  404aa8:	43 00 00 00 18 00 1d 1d 	addiu $29,$29,24
  404ab0:	03 00 00 00 00 00 00 1f 	jr $31

00404ab8 <__new_exitfn>:
  404ab8:	28 00 00 00 b0 80 07 1c 	lw $7,-32592($28)
  404ac0:	43 00 00 00 e0 ff 1d 1d 	addiu $29,$29,-32
  404ac8:	34 00 00 00 18 00 1f 1d 	sw $31,24($29)
  404ad0:	05 00 00 00 26 00 00 07 	beq $7,$0,404b70 <__new_exitfn+0xb8>
  404ad8:	28 00 00 00 04 00 02 07 	lw $2,4($7)
  404ae0:	42 00 00 00 00 04 00 00 	addu $4,$0,$0
  404ae8:	05 00 00 00 16 00 00 02 	beq $2,$0,404b48 <__new_exitfn+0x90>
  404af0:	42 00 00 00 00 08 02 00 	addu $8,$0,$2
  404af8:	42 00 00 00 00 03 07 00 	addu $3,$0,$7
  404b00:	42 00 00 00 00 06 00 00 	addu $6,$0,$0
  404b08:	28 00 00 00 08 00 02 03 	lw $2,8($3)
  404b10:	42 00 00 00 00 05 06 00 	addu $5,$0,$6
  404b18:	05 00 00 00 2a 00 00 02 	beq $2,$0,404bc8 <__new_exitfn+0x110>
  404b20:	43 00 00 00 0c 00 03 03 	addiu $3,$3,12
  404b28:	43 00 00 00 0c 00 06 05 	addiu $6,$5,12
  404b30:	43 00 00 00 01 00 04 04 	addiu $4,$4,1
  404b38:	5d 00 00 00 00 02 08 04 	sltu $2,$4,$8
  404b40:	06 00 00 00 f0 ff 00 02 	bne $2,$0,404b08 <__new_exitfn+0x50>
  404b48:	28 00 00 00 04 00 03 07 	lw $3,4($7)
  404b50:	5e 00 00 00 20 00 02 03 	sltiu $2,$3,32
  404b58:	06 00 00 00 20 00 00 02 	bne $2,$0,404be0 <__new_exitfn+0x128>
  404b60:	28 00 00 00 00 00 07 07 	lw $7,0($7)
  404b68:	06 00 00 00 da ff 00 07 	bne $7,$0,404ad8 <__new_exitfn+0x20>
  404b70:	43 00 00 00 88 01 04 00 	addiu $4,$0,392
  404b78:	02 00 00 00 96 22 10 00 	jal 408a58 <malloc>
  404b80:	42 00 00 00 00 07 02 00 	addu $7,$0,$2
  404b88:	05 00 00 00 24 00 00 07 	beq $7,$0,404c20 <__new_exitfn+0x168>
  404b90:	28 00 00 00 b0 80 04 1c 	lw $4,-32592($28)
  404b98:	43 00 00 00 08 00 02 07 	addiu $2,$7,8
  404ba0:	43 00 00 00 01 00 03 00 	addiu $3,$0,1
  404ba8:	34 00 00 00 04 00 03 07 	sw $3,4($7)
  404bb0:	34 00 00 00 00 00 04 07 	sw $4,0($7)
  404bb8:	34 00 00 00 b0 80 07 1c 	sw $7,-32592($28)
  404bc0:	01 00 00 00 0a 13 10 00 	j 404c28 <__new_exitfn+0x170>
  404bc8:	43 00 00 00 08 00 02 06 	addiu $2,$6,8
  404bd0:	42 00 00 00 00 02 02 07 	addu $2,$7,$2
  404bd8:	01 00 00 00 0a 13 10 00 	j 404c28 <__new_exitfn+0x170>
  404be0:	43 00 00 00 01 00 02 03 	addiu $2,$3,1
  404be8:	34 00 00 00 04 00 02 07 	sw $2,4($7)
  404bf0:	55 00 00 00 01 02 03 00 	sll $2,$3,0x1
  404bf8:	42 00 00 00 00 02 03 02 	addu $2,$2,$3
  404c00:	55 00 00 00 02 02 02 00 	sll $2,$2,0x2
  404c08:	43 00 00 00 08 00 02 02 	addiu $2,$2,8
  404c10:	42 00 00 00 00 02 02 07 	addu $2,$7,$2
  404c18:	01 00 00 00 0a 13 10 00 	j 404c28 <__new_exitfn+0x170>
  404c20:	42 00 00 00 00 02 00 00 	addu $2,$0,$0
  404c28:	28 00 00 00 18 00 1f 1d 	lw $31,24($29)
  404c30:	43 00 00 00 20 00 1d 1d 	addiu $29,$29,32
  404c38:	03 00 00 00 00 00 00 1f 	jr $31

00404c40 <__init_misc>:
  404c40:	43 00 00 00 e8 ff 1d 1d 	addiu $29,$29,-24
  404c48:	34 00 00 00 10 00 10 1d 	sw $16,16($29)
  404c50:	42 00 00 00 00 10 05 00 	addu $16,$0,$5
  404c58:	34 00 00 00 14 00 1f 1d 	sw $31,20($29)
  404c60:	05 00 00 00 12 00 00 10 	beq $16,$0,404cb0 <__init_misc+0x70>
  404c68:	28 00 00 00 00 00 04 10 	lw $4,0($16)
  404c70:	05 00 00 00 0e 00 00 04 	beq $4,$0,404cb0 <__init_misc+0x70>
  404c78:	43 00 00 00 2f 00 05 00 	addiu $5,$0,47
  404c80:	02 00 00 00 b0 2d 10 00 	jal 40b6c0 <strrchr>
  404c88:	06 00 00 00 04 00 00 02 	bne $2,$0,404ca0 <__init_misc+0x60>
  404c90:	28 00 00 00 00 00 02 10 	lw $2,0($16)
  404c98:	01 00 00 00 2a 13 10 00 	j 404ca8 <__init_misc+0x68>
  404ca0:	43 00 00 00 01 00 02 02 	addiu $2,$2,1
  404ca8:	34 00 00 00 c4 80 02 1c 	sw $2,-32572($28)
  404cb0:	28 00 00 00 14 00 1f 1d 	lw $31,20($29)
  404cb8:	28 00 00 00 10 00 10 1d 	lw $16,16($29)
  404cc0:	43 00 00 00 18 00 1d 1d 	addiu $29,$29,24
  404cc8:	03 00 00 00 00 00 00 1f 	jr $31
  404cd0:	01 00 00 00 dc 2d 10 00 	j 40b770 <syscall_error>
	...

00404ce0 <_exit>:
  404ce0:	43 00 00 00 01 00 02 00 	addiu $2,$0,1
  404ce8:	a0 00 00 00 00 00 00 00 	syscall 
  404cf0:	06 00 00 00 f6 ff 00 07 	bne $7,$0,404cd0 <__init_misc+0x90>
	...

00404d00 <fclose>:
  404d00:	43 00 00 00 e0 ff 1d 1d 	addiu $29,$29,-32
  404d08:	34 00 00 00 10 00 10 1d 	sw $16,16($29)
  404d10:	42 00 00 00 00 10 04 00 	addu $16,$0,$4
  404d18:	34 00 00 00 1c 00 1f 1d 	sw $31,28($29)
  404d20:	34 00 00 00 18 00 12 1d 	sw $18,24($29)
  404d28:	34 00 00 00 14 00 11 1d 	sw $17,20($29)
  404d30:	06 00 00 00 24 00 00 10 	bne $16,$0,404dc8 <fclose+0xc8>
  404d38:	28 00 00 00 9c 80 10 1c 	lw $16,-32612($28)
  404d40:	05 00 00 00 1c 00 00 10 	beq $16,$0,404db8 <fclose+0xb8>
  404d48:	a2 00 00 00 ed fe 12 00 	lui $18,65261
  404d50:	51 00 00 00 be ba 12 12 	ori $18,$18,47806
  404d58:	a2 00 00 00 da fe 11 00 	lui $17,65242
  404d60:	51 00 00 00 eb be 11 11 	ori $17,$17,48875
  404d68:	28 00 00 00 00 00 02 10 	lw $2,0($16)
  404d70:	06 00 00 00 04 00 12 02 	bne $2,$18,404d88 <fclose+0x88>
  404d78:	28 00 00 00 04 00 02 10 	lw $2,4($16)
  404d80:	28 00 00 00 00 00 10 02 	lw $16,0($2)
  404d88:	28 00 00 00 00 00 02 10 	lw $2,0($16)
  404d90:	06 00 00 00 04 00 11 02 	bne $2,$17,404da8 <fclose+0xa8>
  404d98:	42 00 00 00 00 04 10 00 	addu $4,$0,$16
  404da0:	02 00 00 00 40 13 10 00 	jal 404d00 <fclose>
  404da8:	28 00 00 00 44 00 10 10 	lw $16,68($16)
  404db0:	06 00 00 00 ec ff 00 10 	bne $16,$0,404d68 <fclose+0x68>
  404db8:	42 00 00 00 00 02 00 00 	addu $2,$0,$0
  404dc0:	01 00 00 00 d2 13 10 00 	j 404f48 <fclose+0x248>
  404dc8:	28 00 00 00 00 00 03 10 	lw $3,0($16)
  404dd0:	a2 00 00 00 ed fe 02 00 	lui $2,65261
  404dd8:	51 00 00 00 be ba 02 02 	ori $2,$2,47806
  404de0:	06 00 00 00 04 00 02 03 	bne $3,$2,404df8 <fclose+0xf8>
  404de8:	28 00 00 00 04 00 02 10 	lw $2,4($16)
  404df0:	28 00 00 00 00 00 10 02 	lw $16,0($2)
  404df8:	28 00 00 00 00 00 03 10 	lw $3,0($16)
  404e00:	a2 00 00 00 da fe 02 00 	lui $2,65242
  404e08:	51 00 00 00 eb be 02 02 	ori $2,$2,48875
  404e10:	05 00 00 00 08 00 02 03 	beq $3,$2,404e38 <fclose+0x138>
  404e18:	43 00 00 00 16 00 02 00 	addiu $2,$0,22
  404e20:	34 00 00 00 60 84 02 1c 	sw $2,-31648($28)
  404e28:	43 00 00 00 ff ff 02 00 	addiu $2,$0,-1
  404e30:	01 00 00 00 d2 13 10 00 	j 404f48 <fclose+0x248>
  404e38:	28 00 00 00 1c 00 02 10 	lw $2,28($16)
  404e40:	4f 00 00 00 02 00 02 02 	andi $2,$2,2
  404e48:	05 00 00 00 0e 00 00 02 	beq $2,$0,404e88 <fclose+0x188>
  404e50:	42 00 00 00 00 04 10 00 	addu $4,$0,$16
  404e58:	43 00 00 00 ff ff 05 00 	addiu $5,$0,-1
  404e60:	02 00 00 00 84 0f 10 00 	jal 403e10 <__flshfp>
  404e68:	43 00 00 00 ff ff 03 00 	addiu $3,$0,-1
  404e70:	06 00 00 00 04 00 03 02 	bne $2,$3,404e88 <fclose+0x188>
  404e78:	43 00 00 00 ff ff 02 00 	addiu $2,$0,-1
  404e80:	01 00 00 00 d2 13 10 00 	j 404f48 <fclose+0x248>
  404e88:	28 00 00 00 10 00 04 10 	lw $4,16($16)
  404e90:	05 00 00 00 08 00 00 04 	beq $4,$0,404eb8 <fclose+0x1b8>
  404e98:	28 00 00 00 4c 00 02 10 	lw $2,76($16)
  404ea0:	4f 00 00 00 00 08 02 02 	andi $2,$2,2048
  404ea8:	06 00 00 00 02 00 00 02 	bne $2,$0,404eb8 <fclose+0x1b8>
  404eb0:	02 00 00 00 10 30 10 00 	jal 40c040 <free>
  404eb8:	28 00 00 00 2c 00 02 10 	lw $2,44($16)
  404ec0:	05 00 00 00 08 00 00 02 	beq $2,$0,404ee8 <fclose+0x1e8>
  404ec8:	28 00 00 00 18 00 04 10 	lw $4,24($16)
  404ed0:	04 00 00 00 00 1f 00 02 	jalr $31,$2
  404ed8:	42 00 00 00 00 11 02 00 	addu $17,$0,$2
  404ee0:	01 00 00 00 cc 13 10 00 	j 404f30 <fclose+0x230>
  404ee8:	28 00 00 00 4c 00 02 10 	lw $2,76($16)
  404ef0:	4f 00 00 00 00 40 02 02 	andi $2,$2,16384
  404ef8:	06 00 00 00 0a 00 00 02 	bne $2,$0,404f28 <fclose+0x228>
  404f00:	28 00 00 00 18 00 04 10 	lw $4,24($16)
  404f08:	05 00 00 00 06 00 00 04 	beq $4,$0,404f28 <fclose+0x228>
  404f10:	02 00 00 00 b4 1f 10 00 	jal 407ed0 <__stdio_close>
  404f18:	42 00 00 00 00 11 02 00 	addu $17,$0,$2
  404f20:	01 00 00 00 cc 13 10 00 	j 404f30 <fclose+0x230>
  404f28:	42 00 00 00 00 11 00 00 	addu $17,$0,$0
  404f30:	42 00 00 00 00 04 10 00 	addu $4,$0,$16
  404f38:	02 00 00 00 36 12 10 00 	jal 4048d8 <__invalidate>
  404f40:	59 00 00 00 1f 02 11 00 	sra $2,$17,0x1f
  404f48:	28 00 00 00 1c 00 1f 1d 	lw $31,28($29)
  404f50:	28 00 00 00 18 00 12 1d 	lw $18,24($29)
  404f58:	28 00 00 00 14 00 11 1d 	lw $17,20($29)
  404f60:	28 00 00 00 10 00 10 1d 	lw $16,16($29)
  404f68:	43 00 00 00 20 00 1d 1d 	addiu $29,$29,32
  404f70:	03 00 00 00 00 00 00 1f 	jr $31
	...

00404f80 <vfprintf>:
  404f80:	43 00 00 00 48 f6 1d 1d 	addiu $29,$29,-2488
  404f88:	34 00 00 00 a0 09 14 1d 	sw $20,2464($29)
  404f90:	42 00 00 00 00 14 04 00 	addu $20,$0,$4
  404f98:	34 00 00 00 90 09 10 1d 	sw $16,2448($29)
  404fa0:	42 00 00 00 00 10 05 00 	addu $16,$0,$5
  404fa8:	34 00 00 00 a4 09 15 1d 	sw $21,2468($29)
  404fb0:	42 00 00 00 00 15 00 00 	addu $21,$0,$0
  404fb8:	34 00 00 00 b4 09 1f 1d 	sw $31,2484($29)
  404fc0:	34 00 00 00 b0 09 1e 1d 	sw $30,2480($29)
  404fc8:	34 00 00 00 ac 09 17 1d 	sw $23,2476($29)
  404fd0:	34 00 00 00 a8 09 16 1d 	sw $22,2472($29)
  404fd8:	34 00 00 00 9c 09 13 1d 	sw $19,2460($29)
  404fe0:	34 00 00 00 98 09 12 1d 	sw $18,2456($29)
  404fe8:	34 00 00 00 94 09 11 1d 	sw $17,2452($29)
  404ff0:	34 00 00 00 c0 09 06 1d 	sw $6,2496($29)
  404ff8:	05 00 00 00 1c 00 00 14 	beq $20,$0,405070 <vfprintf+0xf0>
  405000:	28 00 00 00 00 00 03 14 	lw $3,0($20)
  405008:	a2 00 00 00 ed fe 02 00 	lui $2,65261
  405010:	51 00 00 00 be ba 02 02 	ori $2,$2,47806
  405018:	06 00 00 00 04 00 02 03 	bne $3,$2,405030 <vfprintf+0xb0>
  405020:	28 00 00 00 04 00 02 14 	lw $2,4($20)
  405028:	28 00 00 00 00 00 14 02 	lw $20,0($2)
  405030:	28 00 00 00 00 00 03 14 	lw $3,0($20)
  405038:	a2 00 00 00 da fe 02 00 	lui $2,65242
  405040:	51 00 00 00 eb be 02 02 	ori $2,$2,48875
  405048:	06 00 00 00 08 00 02 03 	bne $3,$2,405070 <vfprintf+0xf0>
  405050:	28 00 00 00 1c 00 02 14 	lw $2,28($20)
  405058:	4f 00 00 00 02 00 02 02 	andi $2,$2,2
  405060:	05 00 00 00 02 00 00 02 	beq $2,$0,405070 <vfprintf+0xf0>
  405068:	06 00 00 00 08 00 00 10 	bne $16,$0,405090 <vfprintf+0x110>
  405070:	43 00 00 00 16 00 02 00 	addiu $2,$0,22
  405078:	34 00 00 00 60 84 02 1c 	sw $2,-31648($28)
  405080:	43 00 00 00 ff ff 02 00 	addiu $2,$0,-1
  405088:	01 00 00 00 26 1d 10 00 	j 407498 <vfprintf+0x2518>
  405090:	28 00 00 00 4c 00 02 14 	lw $2,76($20)
  405098:	4f 00 00 00 00 40 02 02 	andi $2,$2,16384
  4050a0:	06 00 00 00 0a 00 00 02 	bne $2,$0,4050d0 <vfprintf+0x150>
  4050a8:	42 00 00 00 00 04 14 00 	addu $4,$0,$20
  4050b0:	43 00 00 00 ff ff 05 00 	addiu $5,$0,-1
  4050b8:	02 00 00 00 84 0f 10 00 	jal 403e10 <__flshfp>
  4050c0:	43 00 00 00 ff ff 03 00 	addiu $3,$0,-1
  4050c8:	05 00 00 00 ec ff 03 02 	beq $2,$3,405080 <vfprintf+0x100>
  4050d0:	28 00 00 00 10 00 02 14 	lw $2,16($20)
  4050d8:	5e 00 00 00 01 00 02 02 	sltiu $2,$2,1
  4050e0:	30 00 00 00 20 09 02 1d 	sb $2,2336($29)
  4050e8:	05 00 00 00 14 00 00 02 	beq $2,$0,405140 <vfprintf+0x1c0>
  4050f0:	43 00 00 00 10 00 02 1d 	addiu $2,$29,16
  4050f8:	34 00 00 00 10 00 02 14 	sw $2,16($20)
  405100:	28 00 00 00 10 00 03 14 	lw $3,16($20)
  405108:	28 00 00 00 10 00 04 14 	lw $4,16($20)
  405110:	34 00 00 00 04 00 02 14 	sw $2,4($20)
  405118:	43 00 00 00 00 04 02 00 	addiu $2,$0,1024
  405120:	34 00 00 00 14 00 02 14 	sw $2,20($20)
  405128:	43 00 00 00 00 04 03 03 	addiu $3,$3,1024
  405130:	34 00 00 00 0c 00 03 14 	sw $3,12($20)
  405138:	34 00 00 00 08 00 04 14 	sw $4,8($20)
  405140:	42 00 00 00 00 04 00 00 	addu $4,$0,$0
  405148:	42 00 00 00 00 05 00 00 	addu $5,$0,$0
  405150:	42 00 00 00 00 06 00 00 	addu $6,$0,$0
  405158:	02 00 00 00 5c 30 10 00 	jal 40c170 <mbtowc>
  405160:	42 00 00 00 00 08 10 00 	addu $8,$0,$16
  405168:	01 00 00 00 06 1d 10 00 	j 407418 <vfprintf+0x2498>
  405170:	4f 00 00 00 80 00 02 03 	andi $2,$3,128
  405178:	05 00 00 00 4c 00 00 02 	beq $2,$0,4052b0 <vfprintf+0x330>
  405180:	42 00 00 00 00 04 08 00 	addu $4,$0,$8
  405188:	34 00 00 00 80 09 08 1d 	sw $8,2432($29)
  405190:	02 00 00 00 e8 30 10 00 	jal 40c3a0 <strlen>
  405198:	28 00 00 00 80 09 08 1d 	lw $8,2432($29)
  4051a0:	42 00 00 00 00 04 00 00 	addu $4,$0,$0
  4051a8:	42 00 00 00 00 06 02 00 	addu $6,$0,$2
  4051b0:	42 00 00 00 00 05 08 00 	addu $5,$0,$8
  4051b8:	02 00 00 00 5c 30 10 00 	jal 40c170 <mbtowc>
  4051c0:	28 00 00 00 80 09 08 1d 	lw $8,2432($29)
  4051c8:	42 00 00 00 00 10 02 00 	addu $16,$0,$2
  4051d0:	07 00 00 00 36 00 00 10 	blez $16,4052b0 <vfprintf+0x330>
  4051d8:	43 00 00 00 ff ff 10 10 	addiu $16,$16,-1
  4051e0:	20 00 00 00 00 00 05 08 	lb $5,0($8)
  4051e8:	28 00 00 00 04 00 03 14 	lw $3,4($20)
  4051f0:	28 00 00 00 0c 00 02 14 	lw $2,12($20)
  4051f8:	43 00 00 00 01 00 08 08 	addiu $8,$8,1
  405200:	5d 00 00 00 00 02 02 03 	sltu $2,$3,$2
  405208:	05 00 00 00 10 00 00 02 	beq $2,$0,405250 <vfprintf+0x2d0>
  405210:	43 00 00 00 01 00 02 03 	addiu $2,$3,1
  405218:	34 00 00 00 04 00 02 14 	sw $2,4($20)
  405220:	42 00 00 00 00 02 05 00 	addu $2,$0,$5
  405228:	30 00 00 00 00 00 02 03 	sb $2,0($3)
  405230:	4f 00 00 00 ff 00 02 02 	andi $2,$2,255
  405238:	43 00 00 00 ff ff 0f 00 	addiu $15,$0,-1
  405240:	05 00 00 00 ac 00 0f 02 	beq $2,$15,4054f8 <vfprintf+0x578>
  405248:	01 00 00 00 a2 14 10 00 	j 405288 <vfprintf+0x308>
  405250:	42 00 00 00 00 04 14 00 	addu $4,$0,$20
  405258:	4f 00 00 00 ff 00 05 05 	andi $5,$5,255
  405260:	34 00 00 00 80 09 08 1d 	sw $8,2432($29)
  405268:	02 00 00 00 84 0f 10 00 	jal 403e10 <__flshfp>
  405270:	28 00 00 00 80 09 08 1d 	lw $8,2432($29)
  405278:	43 00 00 00 ff ff 0e 00 	addiu $14,$0,-1
  405280:	05 00 00 00 9c 00 0e 02 	beq $2,$14,4054f8 <vfprintf+0x578>
  405288:	43 00 00 00 01 00 15 15 	addiu $21,$21,1
  405290:	42 00 00 00 00 02 10 00 	addu $2,$0,$16
  405298:	43 00 00 00 ff ff 10 10 	addiu $16,$16,-1
  4052a0:	08 00 00 00 ce ff 00 02 	bgtz $2,4051e0 <vfprintf+0x260>
  4052a8:	01 00 00 00 06 1d 10 00 	j 407418 <vfprintf+0x2498>
  4052b0:	20 00 00 00 00 00 03 08 	lb $3,0($8)
  4052b8:	43 00 00 00 25 00 02 00 	addiu $2,$0,37
  4052c0:	05 00 00 00 6e 00 02 03 	beq $3,$2,405480 <vfprintf+0x500>
  4052c8:	43 00 00 00 01 00 10 08 	addiu $16,$8,1
  4052d0:	42 00 00 00 00 04 10 00 	addu $4,$0,$16
  4052d8:	43 00 00 00 25 00 05 00 	addiu $5,$0,37
  4052e0:	34 00 00 00 80 09 08 1d 	sw $8,2432($29)
  4052e8:	02 00 00 00 3c 31 10 00 	jal 40c4f0 <strchr>
  4052f0:	28 00 00 00 80 09 08 1d 	lw $8,2432($29)
  4052f8:	42 00 00 00 00 11 02 00 	addu $17,$0,$2
  405300:	06 00 00 00 0c 00 00 11 	bne $17,$0,405338 <vfprintf+0x3b8>
  405308:	42 00 00 00 00 04 10 00 	addu $4,$0,$16
  405310:	42 00 00 00 00 05 00 00 	addu $5,$0,$0
  405318:	34 00 00 00 80 09 08 1d 	sw $8,2432($29)
  405320:	02 00 00 00 3c 31 10 00 	jal 40c4f0 <strchr>
  405328:	42 00 00 00 00 11 02 00 	addu $17,$0,$2
  405330:	28 00 00 00 80 09 08 1d 	lw $8,2432($29)
  405338:	45 00 00 00 00 10 08 11 	subu $16,$17,$8
  405340:	5c 00 00 00 15 00 02 10 	slti $2,$16,21
  405348:	06 00 00 00 16 00 00 02 	bne $2,$0,4053a8 <vfprintf+0x428>
  405350:	42 00 00 00 00 04 08 00 	addu $4,$0,$8
  405358:	43 00 00 00 01 00 05 00 	addiu $5,$0,1
  405360:	42 00 00 00 00 06 10 00 	addu $6,$0,$16
  405368:	42 00 00 00 00 07 14 00 	addu $7,$0,$20
  405370:	34 00 00 00 80 09 08 1d 	sw $8,2432($29)
  405378:	02 00 00 00 a4 31 10 00 	jal 40c690 <fwrite>
  405380:	28 00 00 00 80 09 08 1d 	lw $8,2432($29)
  405388:	42 00 00 00 00 15 02 15 	addu $21,$21,$2
  405390:	06 00 00 00 26 08 10 02 	bne $2,$16,407430 <vfprintf+0x24b0>
  405398:	42 00 00 00 00 08 02 08 	addu $8,$8,$2
  4053a0:	01 00 00 00 06 1d 10 00 	j 407418 <vfprintf+0x2498>
  4053a8:	5d 00 00 00 00 02 11 08 	sltu $2,$8,$17
  4053b0:	05 00 00 00 18 08 00 02 	beq $2,$0,407418 <vfprintf+0x2498>
  4053b8:	20 00 00 00 00 00 05 08 	lb $5,0($8)
  4053c0:	28 00 00 00 04 00 03 14 	lw $3,4($20)
  4053c8:	28 00 00 00 0c 00 02 14 	lw $2,12($20)
  4053d0:	43 00 00 00 01 00 08 08 	addiu $8,$8,1
  4053d8:	5d 00 00 00 00 02 02 03 	sltu $2,$3,$2
  4053e0:	05 00 00 00 10 00 00 02 	beq $2,$0,405428 <vfprintf+0x4a8>
  4053e8:	43 00 00 00 01 00 02 03 	addiu $2,$3,1
  4053f0:	34 00 00 00 04 00 02 14 	sw $2,4($20)
  4053f8:	42 00 00 00 00 02 05 00 	addu $2,$0,$5
  405400:	30 00 00 00 00 00 02 03 	sb $2,0($3)
  405408:	4f 00 00 00 ff 00 02 02 	andi $2,$2,255
  405410:	43 00 00 00 ff ff 0f 00 	addiu $15,$0,-1
  405418:	05 00 00 00 36 00 0f 02 	beq $2,$15,4054f8 <vfprintf+0x578>
  405420:	01 00 00 00 18 15 10 00 	j 405460 <vfprintf+0x4e0>
  405428:	42 00 00 00 00 04 14 00 	addu $4,$0,$20
  405430:	4f 00 00 00 ff 00 05 05 	andi $5,$5,255
  405438:	34 00 00 00 80 09 08 1d 	sw $8,2432($29)
  405440:	02 00 00 00 84 0f 10 00 	jal 403e10 <__flshfp>
  405448:	28 00 00 00 80 09 08 1d 	lw $8,2432($29)
  405450:	43 00 00 00 ff ff 0e 00 	addiu $14,$0,-1
  405458:	05 00 00 00 26 00 0e 02 	beq $2,$14,4054f8 <vfprintf+0x578>
  405460:	43 00 00 00 01 00 15 15 	addiu $21,$21,1
  405468:	5d 00 00 00 00 02 11 08 	sltu $2,$8,$17
  405470:	06 00 00 00 d0 ff 00 02 	bne $2,$0,4053b8 <vfprintf+0x438>
  405478:	01 00 00 00 06 1d 10 00 	j 407418 <vfprintf+0x2498>
  405480:	43 00 00 00 01 00 08 08 	addiu $8,$8,1
  405488:	20 00 00 00 00 00 02 08 	lb $2,0($8)
  405490:	06 00 00 00 28 00 03 02 	bne $2,$3,405538 <vfprintf+0x5b8>
  405498:	43 00 00 00 01 00 08 08 	addiu $8,$8,1
  4054a0:	28 00 00 00 04 00 03 14 	lw $3,4($20)
  4054a8:	28 00 00 00 0c 00 02 14 	lw $2,12($20)
  4054b0:	5d 00 00 00 00 02 02 03 	sltu $2,$3,$2
  4054b8:	06 00 00 00 12 00 00 02 	bne $2,$0,405508 <vfprintf+0x588>
  4054c0:	42 00 00 00 00 04 14 00 	addu $4,$0,$20
  4054c8:	43 00 00 00 25 00 05 00 	addiu $5,$0,37
  4054d0:	34 00 00 00 80 09 08 1d 	sw $8,2432($29)
  4054d8:	02 00 00 00 84 0f 10 00 	jal 403e10 <__flshfp>
  4054e0:	28 00 00 00 80 09 08 1d 	lw $8,2432($29)
  4054e8:	43 00 00 00 ff ff 0f 00 	addiu $15,$0,-1
  4054f0:	06 00 00 00 0c 00 0f 02 	bne $2,$15,405528 <vfprintf+0x5a8>
  4054f8:	43 00 00 00 ff ff 15 00 	addiu $21,$0,-1
  405500:	01 00 00 00 0c 1d 10 00 	j 407430 <vfprintf+0x24b0>
  405508:	43 00 00 00 01 00 02 03 	addiu $2,$3,1
  405510:	34 00 00 00 04 00 02 14 	sw $2,4($20)
  405518:	43 00 00 00 25 00 02 00 	addiu $2,$0,37
  405520:	30 00 00 00 00 00 02 03 	sb $2,0($3)
  405528:	43 00 00 00 01 00 15 15 	addiu $21,$21,1
  405530:	01 00 00 00 06 1d 10 00 	j 407418 <vfprintf+0x2498>
  405538:	42 00 00 00 00 0d 00 00 	addu $13,$0,$0
  405540:	42 00 00 00 00 0c 00 00 	addu $12,$0,$0
  405548:	43 00 00 00 20 00 0e 00 	addiu $14,$0,32
  405550:	43 00 00 00 2b 00 07 00 	addiu $7,$0,43
  405558:	43 00 00 00 2d 00 06 00 	addiu $6,$0,45
  405560:	43 00 00 00 23 00 05 00 	addiu $5,$0,35
  405568:	43 00 00 00 30 00 04 00 	addiu $4,$0,48
  405570:	a2 00 00 00 00 10 09 00 	lui $9,4096
  405578:	43 00 00 00 88 02 09 09 	addiu $9,$9,648
  405580:	43 00 00 00 20 00 0f 00 	addiu $15,$0,32
  405588:	30 00 00 00 38 09 00 1d 	sb $0,2360($29)
  405590:	30 00 00 00 30 09 00 1d 	sb $0,2352($29)
  405598:	30 00 00 00 40 09 0e 1d 	sb $14,2368($29)
  4055a0:	01 00 00 00 9c 15 10 00 	j 405670 <vfprintf+0x6f0>
  4055a8:	22 00 00 00 00 00 02 08 	lbu $2,0($8)
  4055b0:	43 00 00 00 01 00 08 08 	addiu $8,$8,1
  4055b8:	43 00 00 00 e0 ff 02 02 	addiu $2,$2,-32
  4055c0:	55 00 00 00 18 02 02 00 	sll $2,$2,0x18
  4055c8:	59 00 00 00 18 03 02 00 	sra $3,$2,0x18
  4055d0:	5e 00 00 00 11 00 02 03 	sltiu $2,$3,17
  4055d8:	05 00 00 00 20 00 00 02 	beq $2,$0,405660 <vfprintf+0x6e0>
  4055e0:	55 00 00 00 02 02 03 00 	sll $2,$3,0x2
  4055e8:	42 00 00 00 00 02 09 02 	addu $2,$2,$9
  4055f0:	28 00 00 00 00 00 02 02 	lw $2,0($2)
  4055f8:	03 00 00 00 00 00 00 02 	jr $2
  405600:	43 00 00 00 01 00 0c 00 	addiu $12,$0,1
  405608:	01 00 00 00 98 15 10 00 	j 405660 <vfprintf+0x6e0>
  405610:	43 00 00 00 01 00 0d 00 	addiu $13,$0,1
  405618:	01 00 00 00 98 15 10 00 	j 405660 <vfprintf+0x6e0>
  405620:	43 00 00 00 01 00 0e 00 	addiu $14,$0,1
  405628:	30 00 00 00 30 09 0e 1d 	sb $14,2352($29)
  405630:	01 00 00 00 98 15 10 00 	j 405660 <vfprintf+0x6e0>
  405638:	43 00 00 00 01 00 0f 00 	addiu $15,$0,1
  405640:	30 00 00 00 38 09 0f 1d 	sb $15,2360($29)
  405648:	01 00 00 00 98 15 10 00 	j 405660 <vfprintf+0x6e0>
  405650:	43 00 00 00 30 00 0e 00 	addiu $14,$0,48
  405658:	30 00 00 00 40 09 0e 1d 	sb $14,2368($29)
  405660:	20 00 00 00 00 00 02 08 	lb $2,0($8)
  405668:	43 00 00 00 20 00 0f 00 	addiu $15,$0,32
  405670:	05 00 00 00 cc ff 0f 02 	beq $2,$15,4055a8 <vfprintf+0x628>
  405678:	05 00 00 00 ca ff 07 02 	beq $2,$7,4055a8 <vfprintf+0x628>
  405680:	05 00 00 00 c8 ff 06 02 	beq $2,$6,4055a8 <vfprintf+0x628>
  405688:	05 00 00 00 c6 ff 05 02 	beq $2,$5,4055a8 <vfprintf+0x628>
  405690:	05 00 00 00 c4 ff 04 02 	beq $2,$4,4055a8 <vfprintf+0x628>
  405698:	22 00 00 00 30 09 0e 1d 	lbu $14,2352($29)
  4056a0:	42 00 00 00 00 02 0e 00 	addu $2,$0,$14
  4056a8:	05 00 00 00 04 00 00 02 	beq $2,$0,4056c0 <vfprintf+0x740>
  4056b0:	43 00 00 00 20 00 0f 00 	addiu $15,$0,32
  4056b8:	30 00 00 00 40 09 0f 1d 	sb $15,2368($29)
  4056c0:	20 00 00 00 00 00 03 08 	lb $3,0($8)
  4056c8:	42 00 00 00 00 16 00 00 	addu $22,$0,$0
  4056d0:	43 00 00 00 2a 00 02 00 	addiu $2,$0,42
  4056d8:	06 00 00 00 1a 00 02 03 	bne $3,$2,405748 <vfprintf+0x7c8>
  4056e0:	28 00 00 00 c0 09 02 1d 	lw $2,2496($29)
  4056e8:	43 00 00 00 fc ff 03 00 	addiu $3,$0,-4
  4056f0:	43 00 00 00 03 00 02 02 	addiu $2,$2,3
  4056f8:	4e 00 00 00 00 02 03 02 	and $2,$2,$3
  405700:	28 00 00 00 00 00 16 02 	lw $22,0($2)
  405708:	43 00 00 00 04 00 02 02 	addiu $2,$2,4
  405710:	34 00 00 00 c0 09 02 1d 	sw $2,2496($29)
  405718:	0a 00 00 00 06 00 00 16 	bgez $22,405738 <vfprintf+0x7b8>
  405720:	45 00 00 00 00 16 16 00 	subu $22,$0,$22
  405728:	43 00 00 00 01 00 0e 00 	addiu $14,$0,1
  405730:	30 00 00 00 30 09 0e 1d 	sb $14,2352($29)
  405738:	43 00 00 00 01 00 08 08 	addiu $8,$8,1
  405740:	01 00 00 00 f8 15 10 00 	j 4057e0 <vfprintf+0x860>
  405748:	28 00 00 00 20 81 05 1c 	lw $5,-32480($28)
  405750:	55 00 00 00 01 02 03 00 	sll $2,$3,0x1
  405758:	42 00 00 00 00 02 05 02 	addu $2,$2,$5
  405760:	26 00 00 00 00 00 02 02 	lhu $2,0($2)
  405768:	4f 00 00 00 08 00 02 02 	andi $2,$2,8
  405770:	05 00 00 00 1a 00 00 02 	beq $2,$0,4057e0 <vfprintf+0x860>
  405778:	20 00 00 00 00 00 04 08 	lb $4,0($8)
  405780:	55 00 00 00 02 03 16 00 	sll $3,$22,0x2
  405788:	43 00 00 00 01 00 08 08 	addiu $8,$8,1
  405790:	20 00 00 00 00 00 02 08 	lb $2,0($8)
  405798:	42 00 00 00 00 03 16 03 	addu $3,$3,$22
  4057a0:	55 00 00 00 01 16 03 00 	sll $22,$3,0x1
  4057a8:	55 00 00 00 01 02 02 00 	sll $2,$2,0x1
  4057b0:	42 00 00 00 00 02 05 02 	addu $2,$2,$5
  4057b8:	26 00 00 00 00 00 03 02 	lhu $3,0($2)
  4057c0:	43 00 00 00 d0 ff 02 16 	addiu $2,$22,-48
  4057c8:	42 00 00 00 00 16 04 02 	addu $22,$2,$4
  4057d0:	4f 00 00 00 08 00 03 03 	andi $3,$3,8
  4057d8:	06 00 00 00 e6 ff 00 03 	bne $3,$0,405778 <vfprintf+0x7f8>
  4057e0:	20 00 00 00 00 00 03 08 	lb $3,0($8)
  4057e8:	43 00 00 00 ff ff 1e 00 	addiu $30,$0,-1
  4057f0:	43 00 00 00 2e 00 02 00 	addiu $2,$0,46
  4057f8:	06 00 00 00 4c 00 02 03 	bne $3,$2,405930 <vfprintf+0x9b0>
  405800:	43 00 00 00 01 00 08 08 	addiu $8,$8,1
  405808:	20 00 00 00 00 00 03 08 	lb $3,0($8)
  405810:	43 00 00 00 2a 00 02 00 	addiu $2,$0,42
  405818:	06 00 00 00 16 00 02 03 	bne $3,$2,405878 <vfprintf+0x8f8>
  405820:	28 00 00 00 c0 09 02 1d 	lw $2,2496($29)
  405828:	43 00 00 00 fc ff 03 00 	addiu $3,$0,-4
  405830:	43 00 00 00 03 00 02 02 	addiu $2,$2,3
  405838:	4e 00 00 00 00 02 03 02 	and $2,$2,$3
  405840:	28 00 00 00 00 00 1e 02 	lw $30,0($2)
  405848:	43 00 00 00 04 00 02 02 	addiu $2,$2,4
  405850:	34 00 00 00 c0 09 02 1d 	sw $2,2496($29)
  405858:	0a 00 00 00 02 00 00 1e 	bgez $30,405868 <vfprintf+0x8e8>
  405860:	43 00 00 00 ff ff 1e 00 	addiu $30,$0,-1
  405868:	43 00 00 00 01 00 08 08 	addiu $8,$8,1
  405870:	01 00 00 00 4c 16 10 00 	j 405930 <vfprintf+0x9b0>
  405878:	28 00 00 00 20 81 04 1c 	lw $4,-32480($28)
  405880:	55 00 00 00 01 02 03 00 	sll $2,$3,0x1
  405888:	42 00 00 00 00 02 04 02 	addu $2,$2,$4
  405890:	26 00 00 00 00 00 02 02 	lhu $2,0($2)
  405898:	4f 00 00 00 08 00 02 02 	andi $2,$2,8
  4058a0:	05 00 00 00 22 00 00 02 	beq $2,$0,405930 <vfprintf+0x9b0>
  4058a8:	42 00 00 00 00 1e 00 00 	addu $30,$0,$0
  4058b0:	05 00 00 00 1e 00 00 03 	beq $3,$0,405930 <vfprintf+0x9b0>
  4058b8:	42 00 00 00 00 05 04 00 	addu $5,$0,$4
  4058c0:	20 00 00 00 00 00 04 08 	lb $4,0($8)
  4058c8:	55 00 00 00 01 02 04 00 	sll $2,$4,0x1
  4058d0:	42 00 00 00 00 02 05 02 	addu $2,$2,$5
  4058d8:	26 00 00 00 00 00 02 02 	lhu $2,0($2)
  4058e0:	4f 00 00 00 08 00 02 02 	andi $2,$2,8
  4058e8:	05 00 00 00 10 00 00 02 	beq $2,$0,405930 <vfprintf+0x9b0>
  4058f0:	55 00 00 00 02 02 1e 00 	sll $2,$30,0x2
  4058f8:	42 00 00 00 00 02 1e 02 	addu $2,$2,$30
  405900:	55 00 00 00 01 1e 02 00 	sll $30,$2,0x1
  405908:	43 00 00 00 01 00 08 08 	addiu $8,$8,1
  405910:	20 00 00 00 00 00 03 08 	lb $3,0($8)
  405918:	43 00 00 00 d0 ff 02 1e 	addiu $2,$30,-48
  405920:	42 00 00 00 00 1e 04 02 	addu $30,$2,$4
  405928:	06 00 00 00 e4 ff 00 03 	bne $3,$0,4058c0 <vfprintf+0x940>
  405930:	42 00 00 00 00 07 00 00 	addu $7,$0,$0
  405938:	42 00 00 00 00 0a 00 00 	addu $10,$0,$0
  405940:	20 00 00 00 00 00 03 08 	lb $3,0($8)
  405948:	42 00 00 00 00 0b 00 00 	addu $11,$0,$0
  405950:	01 00 00 00 84 16 10 00 	j 405a10 <vfprintf+0xa90>
  405958:	22 00 00 00 00 00 02 08 	lbu $2,0($8)
  405960:	43 00 00 00 01 00 08 08 	addiu $8,$8,1
  405968:	43 00 00 00 b4 ff 02 02 	addiu $2,$2,-76
  405970:	55 00 00 00 18 02 02 00 	sll $2,$2,0x18
  405978:	59 00 00 00 18 03 02 00 	sra $3,$2,0x18
  405980:	5e 00 00 00 26 00 02 03 	sltiu $2,$3,38
  405988:	05 00 00 00 1e 00 00 02 	beq $2,$0,405a08 <vfprintf+0xa88>
  405990:	55 00 00 00 02 02 03 00 	sll $2,$3,0x2
  405998:	a2 00 00 00 00 10 01 00 	lui $1,4096
  4059a0:	42 00 00 00 00 01 02 01 	addu $1,$1,$2
  4059a8:	28 00 00 00 d0 02 02 01 	lw $2,720($1)
  4059b0:	03 00 00 00 00 00 00 02 	jr $2
  4059b8:	43 00 00 00 01 00 0b 00 	addiu $11,$0,1
  4059c0:	01 00 00 00 82 16 10 00 	j 405a08 <vfprintf+0xa88>
  4059c8:	42 00 00 00 00 02 0a 00 	addu $2,$0,$10
  4059d0:	06 00 00 00 0a 00 00 02 	bne $2,$0,405a00 <vfprintf+0xa80>
  4059d8:	43 00 00 00 01 00 0a 00 	addiu $10,$0,1
  4059e0:	01 00 00 00 82 16 10 00 	j 405a08 <vfprintf+0xa88>
  4059e8:	42 00 00 00 00 07 00 00 	addu $7,$0,$0
  4059f0:	42 00 00 00 00 0a 00 00 	addu $10,$0,$0
  4059f8:	01 00 00 00 82 16 10 00 	j 405a08 <vfprintf+0xa88>
  405a00:	43 00 00 00 01 00 07 00 	addiu $7,$0,1
  405a08:	20 00 00 00 00 00 03 08 	lb $3,0($8)
  405a10:	43 00 00 00 68 00 02 00 	addiu $2,$0,104
  405a18:	05 00 00 00 ce ff 02 03 	beq $3,$2,405958 <vfprintf+0x9d8>
  405a20:	43 00 00 00 6c 00 02 00 	addiu $2,$0,108
  405a28:	05 00 00 00 ca ff 02 03 	beq $3,$2,405958 <vfprintf+0x9d8>
  405a30:	43 00 00 00 4c 00 02 00 	addiu $2,$0,76
  405a38:	05 00 00 00 c6 ff 02 03 	beq $3,$2,405958 <vfprintf+0x9d8>
  405a40:	43 00 00 00 71 00 02 00 	addiu $2,$0,113
  405a48:	05 00 00 00 c2 ff 02 03 	beq $3,$2,405958 <vfprintf+0x9d8>
  405a50:	22 00 00 00 00 00 0f 08 	lbu $15,0($8)
  405a58:	28 00 00 00 f0 84 03 1c 	lw $3,-31504($28)
  405a60:	43 00 00 00 01 00 08 08 	addiu $8,$8,1
  405a68:	30 00 00 00 50 09 0f 1d 	sb $15,2384($29)
  405a70:	05 00 00 00 0a 00 00 03 	beq $3,$0,405aa0 <vfprintf+0xb20>
  405a78:	55 00 00 00 18 02 0f 00 	sll $2,$15,0x18
  405a80:	59 00 00 00 16 02 02 00 	sra $2,$2,0x16
  405a88:	42 00 00 00 00 02 03 02 	addu $2,$2,$3
  405a90:	28 00 00 00 00 00 09 02 	lw $9,0($2)
  405a98:	01 00 00 00 aa 16 10 00 	j 405aa8 <vfprintf+0xb28>
  405aa0:	42 00 00 00 00 09 00 00 	addu $9,$0,$0
  405aa8:	06 00 00 00 fe 05 00 09 	bne $9,$0,4072a8 <vfprintf+0x2328>
  405ab0:	22 00 00 00 50 09 0e 1d 	lbu $14,2384($29)
  405ab8:	43 00 00 00 bb ff 02 0e 	addiu $2,$14,-69
  405ac0:	55 00 00 00 18 02 02 00 	sll $2,$2,0x18
  405ac8:	59 00 00 00 18 03 02 00 	sra $3,$2,0x18
  405ad0:	5e 00 00 00 34 00 02 03 	sltiu $2,$3,52
  405ad8:	05 00 00 00 ee 05 00 02 	beq $2,$0,407298 <vfprintf+0x2318>
  405ae0:	55 00 00 00 02 02 03 00 	sll $2,$3,0x2
  405ae8:	a2 00 00 00 00 10 01 00 	lui $1,4096
  405af0:	42 00 00 00 00 01 02 01 	addu $1,$1,$2
  405af8:	28 00 00 00 68 03 02 01 	lw $2,872($1)
  405b00:	03 00 00 00 00 00 00 02 	jr $2
  405b08:	43 00 00 00 0a 00 0f 00 	addiu $15,$0,10
  405b10:	34 00 00 00 58 09 0f 1d 	sw $15,2392($29)
  405b18:	42 00 00 00 00 02 07 00 	addu $2,$0,$7
  405b20:	05 00 00 00 10 00 00 02 	beq $2,$0,405b68 <vfprintf+0xbe8>
  405b28:	28 00 00 00 c0 09 02 1d 	lw $2,2496($29)
  405b30:	43 00 00 00 f8 ff 03 00 	addiu $3,$0,-8
  405b38:	43 00 00 00 07 00 02 02 	addiu $2,$2,7
  405b40:	4e 00 00 00 00 02 03 02 	and $2,$2,$3
  405b48:	28 00 00 00 00 00 04 02 	lw $4,0($2)
  405b50:	28 00 00 00 04 00 05 02 	lw $5,4($2)
  405b58:	43 00 00 00 08 00 02 02 	addiu $2,$2,8
  405b60:	01 00 00 00 14 17 10 00 	j 405c50 <vfprintf+0xcd0>
  405b68:	42 00 00 00 00 02 0a 00 	addu $2,$0,$10
  405b70:	05 00 00 00 10 00 00 02 	beq $2,$0,405bb8 <vfprintf+0xc38>
  405b78:	28 00 00 00 c0 09 02 1d 	lw $2,2496($29)
  405b80:	43 00 00 00 fc ff 03 00 	addiu $3,$0,-4
  405b88:	43 00 00 00 03 00 02 02 	addiu $2,$2,3
  405b90:	4e 00 00 00 00 02 03 02 	and $2,$2,$3
  405b98:	28 00 00 00 00 00 03 02 	lw $3,0($2)
  405ba0:	43 00 00 00 04 00 02 02 	addiu $2,$2,4
  405ba8:	42 00 00 00 00 04 03 00 	addu $4,$0,$3
  405bb0:	01 00 00 00 12 17 10 00 	j 405c48 <vfprintf+0xcc8>
  405bb8:	42 00 00 00 00 02 0b 00 	addu $2,$0,$11
  405bc0:	06 00 00 00 10 00 00 02 	bne $2,$0,405c08 <vfprintf+0xc88>
  405bc8:	28 00 00 00 c0 09 02 1d 	lw $2,2496($29)
  405bd0:	43 00 00 00 fc ff 03 00 	addiu $3,$0,-4
  405bd8:	43 00 00 00 03 00 02 02 	addiu $2,$2,3
  405be0:	4e 00 00 00 00 02 03 02 	and $2,$2,$3
  405be8:	28 00 00 00 00 00 03 02 	lw $3,0($2)
  405bf0:	43 00 00 00 04 00 02 02 	addiu $2,$2,4
  405bf8:	42 00 00 00 00 04 03 00 	addu $4,$0,$3
  405c00:	01 00 00 00 12 17 10 00 	j 405c48 <vfprintf+0xcc8>
  405c08:	28 00 00 00 c0 09 02 1d 	lw $2,2496($29)
  405c10:	43 00 00 00 fc ff 03 00 	addiu $3,$0,-4
  405c18:	43 00 00 00 03 00 02 02 	addiu $2,$2,3
  405c20:	4e 00 00 00 00 02 03 02 	and $2,$2,$3
  405c28:	26 00 00 00 00 00 03 02 	lhu $3,0($2)
  405c30:	43 00 00 00 04 00 02 02 	addiu $2,$2,4
  405c38:	55 00 00 00 10 03 03 00 	sll $3,$3,0x10
  405c40:	59 00 00 00 10 04 03 00 	sra $4,$3,0x10
  405c48:	59 00 00 00 1f 05 03 00 	sra $5,$3,0x1f
  405c50:	34 00 00 00 c0 09 02 1d 	sw $2,2496($29)
  405c58:	57 00 00 00 1f 02 05 00 	srl $2,$5,0x1f
  405c60:	30 00 00 00 48 09 02 1d 	sb $2,2376($29)
  405c68:	42 00 00 00 00 10 04 00 	addu $16,$0,$4
  405c70:	42 00 00 00 00 11 05 00 	addu $17,$0,$5
  405c78:	05 00 00 00 62 00 00 02 	beq $2,$0,405e08 <vfprintf+0xe88>
  405c80:	45 00 00 00 00 10 10 00 	subu $16,$0,$16
  405c88:	45 00 00 00 00 11 11 00 	subu $17,$0,$17
  405c90:	5d 00 00 00 00 02 10 00 	sltu $2,$0,$16
  405c98:	45 00 00 00 00 11 02 11 	subu $17,$17,$2
  405ca0:	01 00 00 00 82 17 10 00 	j 405e08 <vfprintf+0xe88>
  405ca8:	43 00 00 00 0a 00 0e 00 	addiu $14,$0,10
  405cb0:	01 00 00 00 36 17 10 00 	j 405cd8 <vfprintf+0xd58>
  405cb8:	43 00 00 00 08 00 0f 00 	addiu $15,$0,8
  405cc0:	34 00 00 00 58 09 0f 1d 	sw $15,2392($29)
  405cc8:	01 00 00 00 38 17 10 00 	j 405ce0 <vfprintf+0xd60>
  405cd0:	43 00 00 00 10 00 0e 00 	addiu $14,$0,16
  405cd8:	34 00 00 00 58 09 0e 1d 	sw $14,2392($29)
  405ce0:	42 00 00 00 00 02 07 00 	addu $2,$0,$7
  405ce8:	05 00 00 00 10 00 00 02 	beq $2,$0,405d30 <vfprintf+0xdb0>
  405cf0:	28 00 00 00 c0 09 02 1d 	lw $2,2496($29)
  405cf8:	43 00 00 00 f8 ff 03 00 	addiu $3,$0,-8
  405d00:	43 00 00 00 07 00 02 02 	addiu $2,$2,7
  405d08:	4e 00 00 00 00 02 03 02 	and $2,$2,$3
  405d10:	28 00 00 00 00 00 10 02 	lw $16,0($2)
  405d18:	28 00 00 00 04 00 11 02 	lw $17,4($2)
  405d20:	43 00 00 00 08 00 02 02 	addiu $2,$2,8
  405d28:	01 00 00 00 7a 17 10 00 	j 405de8 <vfprintf+0xe68>
  405d30:	42 00 00 00 00 02 0a 00 	addu $2,$0,$10
  405d38:	05 00 00 00 0c 00 00 02 	beq $2,$0,405d70 <vfprintf+0xdf0>
  405d40:	28 00 00 00 c0 09 02 1d 	lw $2,2496($29)
  405d48:	43 00 00 00 fc ff 03 00 	addiu $3,$0,-4
  405d50:	43 00 00 00 03 00 02 02 	addiu $2,$2,3
  405d58:	4e 00 00 00 00 02 03 02 	and $2,$2,$3
  405d60:	28 00 00 00 00 00 10 02 	lw $16,0($2)
  405d68:	01 00 00 00 76 17 10 00 	j 405dd8 <vfprintf+0xe58>
  405d70:	42 00 00 00 00 02 0b 00 	addu $2,$0,$11
  405d78:	06 00 00 00 0c 00 00 02 	bne $2,$0,405db0 <vfprintf+0xe30>
  405d80:	28 00 00 00 c0 09 02 1d 	lw $2,2496($29)
  405d88:	43 00 00 00 fc ff 03 00 	addiu $3,$0,-4
  405d90:	43 00 00 00 03 00 02 02 	addiu $2,$2,3
  405d98:	4e 00 00 00 00 02 03 02 	and $2,$2,$3
  405da0:	28 00 00 00 00 00 10 02 	lw $16,0($2)
  405da8:	01 00 00 00 76 17 10 00 	j 405dd8 <vfprintf+0xe58>
  405db0:	28 00 00 00 c0 09 02 1d 	lw $2,2496($29)
  405db8:	43 00 00 00 fc ff 03 00 	addiu $3,$0,-4
  405dc0:	43 00 00 00 03 00 02 02 	addiu $2,$2,3
  405dc8:	4e 00 00 00 00 02 03 02 	and $2,$2,$3
  405dd0:	26 00 00 00 00 00 10 02 	lhu $16,0($2)
  405dd8:	43 00 00 00 04 00 02 02 	addiu $2,$2,4
  405de0:	42 00 00 00 00 11 00 00 	addu $17,$0,$0
  405de8:	34 00 00 00 c0 09 02 1d 	sw $2,2496($29)
  405df0:	42 00 00 00 00 0c 00 00 	addu $12,$0,$0
  405df8:	42 00 00 00 00 0d 00 00 	addu $13,$0,$0
  405e00:	30 00 00 00 48 09 00 1d 	sb $0,2376($29)
  405e08:	43 00 00 00 0f 09 0f 1d 	addiu $15,$29,2319
  405e10:	34 00 00 00 60 09 0f 1d 	sw $15,2400($29)
  405e18:	43 00 00 00 ff ff 0e 00 	addiu $14,$0,-1
  405e20:	06 00 00 00 02 00 0e 1e 	bne $30,$14,405e30 <vfprintf+0xeb0>
  405e28:	43 00 00 00 01 00 1e 00 	addiu $30,$0,1
  405e30:	42 00 00 00 00 12 10 00 	addu $18,$0,$16
  405e38:	42 00 00 00 00 13 11 00 	addu $19,$0,$17
  405e40:	22 00 00 00 50 09 0e 1d 	lbu $14,2384($29)
  405e48:	a2 00 00 00 00 10 0f 00 	lui $15,4096
  405e50:	43 00 00 00 40 0e 0f 0f 	addiu $15,$15,3648
  405e58:	43 00 00 00 10 09 03 1d 	addiu $3,$29,2320
  405e60:	34 00 00 00 68 09 0f 1d 	sw $15,2408($29)
  405e68:	55 00 00 00 18 02 0e 00 	sll $2,$14,0x18
  405e70:	59 00 00 00 18 02 02 00 	sra $2,$2,0x18
  405e78:	53 00 00 00 58 00 02 02 	xori $2,$2,88
  405e80:	06 00 00 00 06 00 00 02 	bne $2,$0,405ea0 <vfprintf+0xf20>
  405e88:	a2 00 00 00 00 10 0f 00 	lui $15,4096
  405e90:	43 00 00 00 68 0e 0f 0f 	addiu $15,$15,3688
  405e98:	34 00 00 00 68 09 0f 1d 	sw $15,2408($29)
  405ea0:	42 00 00 00 00 17 03 00 	addu $23,$0,$3
  405ea8:	06 00 00 00 02 00 00 10 	bne $16,$0,405eb8 <vfprintf+0xf38>
  405eb0:	05 00 00 00 36 00 00 11 	beq $17,$0,405f90 <vfprintf+0x1010>
  405eb8:	28 00 00 00 58 09 10 1d 	lw $16,2392($29)
  405ec0:	42 00 00 00 00 04 12 00 	addu $4,$0,$18
  405ec8:	42 00 00 00 00 05 13 00 	addu $5,$0,$19
  405ed0:	34 00 00 00 80 09 08 1d 	sw $8,2432($29)
  405ed8:	34 00 00 00 84 09 0c 1d 	sw $12,2436($29)
  405ee0:	34 00 00 00 88 09 0d 1d 	sw $13,2440($29)
  405ee8:	42 00 00 00 00 11 00 00 	addu $17,$0,$0
  405ef0:	42 00 00 00 00 06 10 00 	addu $6,$0,$16
  405ef8:	42 00 00 00 00 07 11 00 	addu $7,$0,$17
  405f00:	02 00 00 00 5c 62 10 00 	jal 418970 <__umoddi3>
  405f08:	28 00 00 00 68 09 0e 1d 	lw $14,2408($29)
  405f10:	43 00 00 00 ff ff 17 17 	addiu $23,$23,-1
  405f18:	42 00 00 00 00 02 02 0e 	addu $2,$14,$2
  405f20:	22 00 00 00 00 00 02 02 	lbu $2,0($2)
  405f28:	42 00 00 00 00 04 12 00 	addu $4,$0,$18
  405f30:	42 00 00 00 00 05 13 00 	addu $5,$0,$19
  405f38:	42 00 00 00 00 06 10 00 	addu $6,$0,$16
  405f40:	42 00 00 00 00 07 11 00 	addu $7,$0,$17
  405f48:	30 00 00 00 00 00 02 17 	sb $2,0($23)
  405f50:	02 00 00 00 70 62 10 00 	jal 4189c0 <__udivdi3>
  405f58:	28 00 00 00 80 09 08 1d 	lw $8,2432($29)
  405f60:	28 00 00 00 84 09 0c 1d 	lw $12,2436($29)
  405f68:	28 00 00 00 88 09 0d 1d 	lw $13,2440($29)
  405f70:	42 00 00 00 00 12 02 00 	addu $18,$0,$2
  405f78:	42 00 00 00 00 13 03 00 	addu $19,$0,$3
  405f80:	06 00 00 00 cc ff 00 12 	bne $18,$0,405eb8 <vfprintf+0xf38>
  405f88:	06 00 00 00 ca ff 00 13 	bne $19,$0,405eb8 <vfprintf+0xf38>
  405f90:	28 00 00 00 60 09 0f 1d 	lw $15,2400($29)
  405f98:	43 00 00 00 ff ff 10 17 	addiu $16,$23,-1
  405fa0:	22 00 00 00 38 09 0e 1d 	lbu $14,2360($29)
  405fa8:	45 00 00 00 00 02 10 0f 	subu $2,$15,$16
  405fb0:	45 00 00 00 00 16 02 16 	subu $22,$22,$2
  405fb8:	45 00 00 00 00 1e 02 1e 	subu $30,$30,$2
  405fc0:	42 00 00 00 00 02 0e 00 	addu $2,$0,$14
  405fc8:	05 00 00 00 10 00 00 02 	beq $2,$0,406010 <vfprintf+0x1090>
  405fd0:	28 00 00 00 58 09 0f 1d 	lw $15,2392($29)
  405fd8:	43 00 00 00 08 00 02 00 	addiu $2,$0,8
  405fe0:	06 00 00 00 0a 00 02 0f 	bne $15,$2,406010 <vfprintf+0x1090>
  405fe8:	08 00 00 00 0a 00 00 1e 	bgtz $30,406018 <vfprintf+0x1098>
  405ff0:	43 00 00 00 30 00 02 00 	addiu $2,$0,48
  405ff8:	30 00 00 00 ff ff 02 17 	sb $2,-1($23)
  406000:	43 00 00 00 ff ff 10 10 	addiu $16,$16,-1
  406008:	43 00 00 00 ff ff 16 16 	addiu $22,$22,-1
  406010:	07 00 00 00 14 00 00 1e 	blez $30,406068 <vfprintf+0x10e8>
  406018:	45 00 00 00 00 16 1e 16 	subu $22,$22,$30
  406020:	42 00 00 00 00 02 1e 00 	addu $2,$0,$30
  406028:	43 00 00 00 ff ff 1e 1e 	addiu $30,$30,-1
  406030:	07 00 00 00 0c 00 00 02 	blez $2,406068 <vfprintf+0x10e8>
  406038:	43 00 00 00 30 00 03 00 	addiu $3,$0,48
  406040:	30 00 00 00 00 00 03 10 	sb $3,0($16)
  406048:	43 00 00 00 ff ff 10 10 	addiu $16,$16,-1
  406050:	42 00 00 00 00 02 1e 00 	addu $2,$0,$30
  406058:	43 00 00 00 ff ff 1e 1e 	addiu $30,$30,-1
  406060:	08 00 00 00 f6 ff 00 02 	bgtz $2,406040 <vfprintf+0x10c0>
  406068:	22 00 00 00 38 09 0e 1d 	lbu $14,2360($29)
  406070:	42 00 00 00 00 02 0e 00 	addu $2,$0,$14
  406078:	05 00 00 00 08 00 00 02 	beq $2,$0,4060a0 <vfprintf+0x1120>
  406080:	28 00 00 00 58 09 0f 1d 	lw $15,2392($29)
  406088:	43 00 00 00 10 00 02 00 	addiu $2,$0,16
  406090:	06 00 00 00 02 00 02 0f 	bne $15,$2,4060a0 <vfprintf+0x1120>
  406098:	43 00 00 00 fe ff 16 16 	addiu $22,$22,-2
  4060a0:	22 00 00 00 48 09 0e 1d 	lbu $14,2376($29)
  4060a8:	42 00 00 00 00 02 0e 00 	addu $2,$0,$14
  4060b0:	06 00 00 00 08 00 00 02 	bne $2,$0,4060d8 <vfprintf+0x1158>
  4060b8:	42 00 00 00 00 02 0d 00 	addu $2,$0,$13
  4060c0:	06 00 00 00 04 00 00 02 	bne $2,$0,4060d8 <vfprintf+0x1158>
  4060c8:	42 00 00 00 00 02 0c 00 	addu $2,$0,$12
  4060d0:	05 00 00 00 02 00 00 02 	beq $2,$0,4060e0 <vfprintf+0x1160>
  4060d8:	43 00 00 00 ff ff 16 16 	addiu $22,$22,-1
  4060e0:	22 00 00 00 30 09 0f 1d 	lbu $15,2352($29)
  4060e8:	42 00 00 00 00 02 0f 00 	addu $2,$0,$15
  4060f0:	06 00 00 00 38 00 00 02 	bne $2,$0,4061d8 <vfprintf+0x1258>
  4060f8:	22 00 00 00 40 09 0e 1d 	lbu $14,2368($29)
  406100:	43 00 00 00 20 00 0f 00 	addiu $15,$0,32
  406108:	06 00 00 00 32 00 0f 0e 	bne $14,$15,4061d8 <vfprintf+0x1258>
  406110:	01 00 00 00 70 18 10 00 	j 4061c0 <vfprintf+0x1240>
  406118:	28 00 00 00 04 00 03 14 	lw $3,4($20)
  406120:	28 00 00 00 0c 00 02 14 	lw $2,12($20)
  406128:	5d 00 00 00 00 02 02 03 	sltu $2,$3,$2
  406130:	06 00 00 00 18 00 00 02 	bne $2,$0,406198 <vfprintf+0x1218>
  406138:	42 00 00 00 00 04 14 00 	addu $4,$0,$20
  406140:	43 00 00 00 20 00 05 00 	addiu $5,$0,32
  406148:	34 00 00 00 80 09 08 1d 	sw $8,2432($29)
  406150:	34 00 00 00 84 09 0c 1d 	sw $12,2436($29)
  406158:	34 00 00 00 88 09 0d 1d 	sw $13,2440($29)
  406160:	02 00 00 00 84 0f 10 00 	jal 403e10 <__flshfp>
  406168:	28 00 00 00 80 09 08 1d 	lw $8,2432($29)
  406170:	28 00 00 00 84 09 0c 1d 	lw $12,2436($29)
  406178:	28 00 00 00 88 09 0d 1d 	lw $13,2440($29)
  406180:	43 00 00 00 ff ff 0e 00 	addiu $14,$0,-1
  406188:	06 00 00 00 0a 00 0e 02 	bne $2,$14,4061b8 <vfprintf+0x1238>
  406190:	01 00 00 00 3e 15 10 00 	j 4054f8 <vfprintf+0x578>
  406198:	43 00 00 00 01 00 02 03 	addiu $2,$3,1
  4061a0:	34 00 00 00 04 00 02 14 	sw $2,4($20)
  4061a8:	43 00 00 00 20 00 0f 00 	addiu $15,$0,32
  4061b0:	30 00 00 00 00 00 0f 03 	sb $15,0($3)
  4061b8:	43 00 00 00 01 00 15 15 	addiu $21,$21,1
  4061c0:	42 00 00 00 00 02 16 00 	addu $2,$0,$22
  4061c8:	43 00 00 00 ff ff 16 16 	addiu $22,$22,-1
  4061d0:	08 00 00 00 d0 ff 00 02 	bgtz $2,406118 <vfprintf+0x1198>
  4061d8:	22 00 00 00 48 09 0e 1d 	lbu $14,2376($29)
  4061e0:	42 00 00 00 00 02 0e 00 	addu $2,$0,$14
  4061e8:	05 00 00 00 18 00 00 02 	beq $2,$0,406250 <vfprintf+0x12d0>
  4061f0:	28 00 00 00 04 00 03 14 	lw $3,4($20)
  4061f8:	28 00 00 00 0c 00 02 14 	lw $2,12($20)
  406200:	5d 00 00 00 00 02 02 03 	sltu $2,$3,$2
  406208:	06 00 00 00 06 00 00 02 	bne $2,$0,406228 <vfprintf+0x12a8>
  406210:	42 00 00 00 00 04 14 00 	addu $4,$0,$20
  406218:	43 00 00 00 2d 00 05 00 	addiu $5,$0,45
  406220:	01 00 00 00 ca 18 10 00 	j 406328 <vfprintf+0x13a8>
  406228:	43 00 00 00 01 00 02 03 	addiu $2,$3,1
  406230:	34 00 00 00 04 00 02 14 	sw $2,4($20)
  406238:	43 00 00 00 2d 00 02 00 	addiu $2,$0,45
  406240:	30 00 00 00 00 00 02 03 	sb $2,0($3)
  406248:	01 00 00 00 de 18 10 00 	j 406378 <vfprintf+0x13f8>
  406250:	42 00 00 00 00 02 0d 00 	addu $2,$0,$13
  406258:	05 00 00 00 22 00 00 02 	beq $2,$0,4062e8 <vfprintf+0x1368>
  406260:	28 00 00 00 04 00 03 14 	lw $3,4($20)
  406268:	28 00 00 00 0c 00 02 14 	lw $2,12($20)
  406270:	5d 00 00 00 00 02 02 03 	sltu $2,$3,$2
  406278:	06 00 00 00 10 00 00 02 	bne $2,$0,4062c0 <vfprintf+0x1340>
  406280:	42 00 00 00 00 04 14 00 	addu $4,$0,$20
  406288:	43 00 00 00 2b 00 05 00 	addiu $5,$0,43
  406290:	34 00 00 00 80 09 08 1d 	sw $8,2432($29)
  406298:	02 00 00 00 84 0f 10 00 	jal 403e10 <__flshfp>
  4062a0:	28 00 00 00 80 09 08 1d 	lw $8,2432($29)
  4062a8:	43 00 00 00 ff ff 0e 00 	addiu $14,$0,-1
  4062b0:	06 00 00 00 30 00 0e 02 	bne $2,$14,406378 <vfprintf+0x13f8>
  4062b8:	01 00 00 00 3e 15 10 00 	j 4054f8 <vfprintf+0x578>
  4062c0:	43 00 00 00 01 00 02 03 	addiu $2,$3,1
  4062c8:	34 00 00 00 04 00 02 14 	sw $2,4($20)
  4062d0:	43 00 00 00 2b 00 02 00 	addiu $2,$0,43
  4062d8:	30 00 00 00 00 00 02 03 	sb $2,0($3)
  4062e0:	01 00 00 00 de 18 10 00 	j 406378 <vfprintf+0x13f8>
  4062e8:	42 00 00 00 00 02 0c 00 	addu $2,$0,$12
  4062f0:	05 00 00 00 22 00 00 02 	beq $2,$0,406380 <vfprintf+0x1400>
  4062f8:	28 00 00 00 04 00 03 14 	lw $3,4($20)
  406300:	28 00 00 00 0c 00 02 14 	lw $2,12($20)
  406308:	5d 00 00 00 00 02 02 03 	sltu $2,$3,$2
  406310:	06 00 00 00 10 00 00 02 	bne $2,$0,406358 <vfprintf+0x13d8>
  406318:	42 00 00 00 00 04 14 00 	addu $4,$0,$20
  406320:	43 00 00 00 20 00 05 00 	addiu $5,$0,32
  406328:	34 00 00 00 80 09 08 1d 	sw $8,2432($29)
  406330:	02 00 00 00 84 0f 10 00 	jal 403e10 <__flshfp>
  406338:	28 00 00 00 80 09 08 1d 	lw $8,2432($29)
  406340:	43 00 00 00 ff ff 0f 00 	addiu $15,$0,-1
  406348:	06 00 00 00 0a 00 0f 02 	bne $2,$15,406378 <vfprintf+0x13f8>
  406350:	01 00 00 00 3e 15 10 00 	j 4054f8 <vfprintf+0x578>
  406358:	43 00 00 00 01 00 02 03 	addiu $2,$3,1
  406360:	34 00 00 00 04 00 02 14 	sw $2,4($20)
  406368:	43 00 00 00 20 00 0e 00 	addiu $14,$0,32
  406370:	30 00 00 00 00 00 0e 03 	sb $14,0($3)
  406378:	43 00 00 00 01 00 15 15 	addiu $21,$21,1
  406380:	22 00 00 00 38 09 0f 1d 	lbu $15,2360($29)
  406388:	42 00 00 00 00 02 0f 00 	addu $2,$0,$15
  406390:	05 00 00 00 56 00 00 02 	beq $2,$0,4064f0 <vfprintf+0x1570>
  406398:	28 00 00 00 58 09 0e 1d 	lw $14,2392($29)
  4063a0:	43 00 00 00 10 00 02 00 	addiu $2,$0,16
  4063a8:	06 00 00 00 50 00 02 0e 	bne $14,$2,4064f0 <vfprintf+0x1570>
  4063b0:	28 00 00 00 04 00 03 14 	lw $3,4($20)
  4063b8:	28 00 00 00 0c 00 02 14 	lw $2,12($20)
  4063c0:	5d 00 00 00 00 02 02 03 	sltu $2,$3,$2
  4063c8:	06 00 00 00 10 00 00 02 	bne $2,$0,406410 <vfprintf+0x1490>
  4063d0:	42 00 00 00 00 04 14 00 	addu $4,$0,$20
  4063d8:	43 00 00 00 30 00 05 00 	addiu $5,$0,48
  4063e0:	34 00 00 00 80 09 08 1d 	sw $8,2432($29)
  4063e8:	02 00 00 00 84 0f 10 00 	jal 403e10 <__flshfp>
  4063f0:	28 00 00 00 80 09 08 1d 	lw $8,2432($29)
  4063f8:	43 00 00 00 ff ff 0f 00 	addiu $15,$0,-1
  406400:	06 00 00 00 0a 00 0f 02 	bne $2,$15,406430 <vfprintf+0x14b0>
  406408:	01 00 00 00 3e 15 10 00 	j 4054f8 <vfprintf+0x578>
  406410:	43 00 00 00 01 00 02 03 	addiu $2,$3,1
  406418:	34 00 00 00 04 00 02 14 	sw $2,4($20)
  406420:	43 00 00 00 30 00 02 00 	addiu $2,$0,48
  406428:	30 00 00 00 00 00 02 03 	sb $2,0($3)
  406430:	43 00 00 00 01 00 15 15 	addiu $21,$21,1
  406438:	22 00 00 00 50 09 0e 1d 	lbu $14,2384($29)
  406440:	55 00 00 00 18 03 0e 00 	sll $3,$14,0x18
  406448:	28 00 00 00 04 00 04 14 	lw $4,4($20)
  406450:	28 00 00 00 0c 00 02 14 	lw $2,12($20)
  406458:	59 00 00 00 18 03 03 00 	sra $3,$3,0x18
  406460:	5d 00 00 00 00 02 02 04 	sltu $2,$4,$2
  406468:	05 00 00 00 10 00 00 02 	beq $2,$0,4064b0 <vfprintf+0x1530>
  406470:	43 00 00 00 01 00 02 04 	addiu $2,$4,1
  406478:	34 00 00 00 04 00 02 14 	sw $2,4($20)
  406480:	42 00 00 00 00 02 03 00 	addu $2,$0,$3
  406488:	30 00 00 00 00 00 02 04 	sb $2,0($4)
  406490:	4f 00 00 00 ff 00 02 02 	andi $2,$2,255
  406498:	43 00 00 00 ff ff 0f 00 	addiu $15,$0,-1
  4064a0:	05 00 00 00 14 fc 0f 02 	beq $2,$15,4054f8 <vfprintf+0x578>
  4064a8:	01 00 00 00 3a 19 10 00 	j 4064e8 <vfprintf+0x1568>
  4064b0:	42 00 00 00 00 04 14 00 	addu $4,$0,$20
  4064b8:	4f 00 00 00 ff 00 05 03 	andi $5,$3,255
  4064c0:	34 00 00 00 80 09 08 1d 	sw $8,2432($29)
  4064c8:	02 00 00 00 84 0f 10 00 	jal 403e10 <__flshfp>
  4064d0:	28 00 00 00 80 09 08 1d 	lw $8,2432($29)
  4064d8:	43 00 00 00 ff ff 0e 00 	addiu $14,$0,-1
  4064e0:	05 00 00 00 04 fc 0e 02 	beq $2,$14,4054f8 <vfprintf+0x578>
  4064e8:	43 00 00 00 01 00 15 15 	addiu $21,$21,1
  4064f0:	22 00 00 00 30 09 0f 1d 	lbu $15,2352($29)
  4064f8:	42 00 00 00 00 02 0f 00 	addu $2,$0,$15
  406500:	06 00 00 00 36 00 00 02 	bne $2,$0,4065e0 <vfprintf+0x1660>
  406508:	22 00 00 00 40 09 0e 1d 	lbu $14,2368($29)
  406510:	43 00 00 00 30 00 02 00 	addiu $2,$0,48
  406518:	42 00 00 00 00 03 0e 00 	addu $3,$0,$14
  406520:	06 00 00 00 2e 00 02 03 	bne $3,$2,4065e0 <vfprintf+0x1660>
  406528:	42 00 00 00 00 02 16 00 	addu $2,$0,$22
  406530:	43 00 00 00 ff ff 16 16 	addiu $22,$22,-1
  406538:	07 00 00 00 28 00 00 02 	blez $2,4065e0 <vfprintf+0x1660>
  406540:	43 00 00 00 30 00 11 00 	addiu $17,$0,48
  406548:	28 00 00 00 04 00 03 14 	lw $3,4($20)
  406550:	28 00 00 00 0c 00 02 14 	lw $2,12($20)
  406558:	5d 00 00 00 00 02 02 03 	sltu $2,$3,$2
  406560:	06 00 00 00 10 00 00 02 	bne $2,$0,4065a8 <vfprintf+0x1628>
  406568:	42 00 00 00 00 04 14 00 	addu $4,$0,$20
  406570:	43 00 00 00 30 00 05 00 	addiu $5,$0,48
  406578:	34 00 00 00 80 09 08 1d 	sw $8,2432($29)
  406580:	02 00 00 00 84 0f 10 00 	jal 403e10 <__flshfp>
  406588:	28 00 00 00 80 09 08 1d 	lw $8,2432($29)
  406590:	43 00 00 00 ff ff 0f 00 	addiu $15,$0,-1
  406598:	06 00 00 00 08 00 0f 02 	bne $2,$15,4065c0 <vfprintf+0x1640>
  4065a0:	01 00 00 00 3e 15 10 00 	j 4054f8 <vfprintf+0x578>
  4065a8:	43 00 00 00 01 00 02 03 	addiu $2,$3,1
  4065b0:	34 00 00 00 04 00 02 14 	sw $2,4($20)
  4065b8:	30 00 00 00 00 00 11 03 	sb $17,0($3)
  4065c0:	43 00 00 00 01 00 15 15 	addiu $21,$21,1
  4065c8:	42 00 00 00 00 02 16 00 	addu $2,$0,$22
  4065d0:	43 00 00 00 ff ff 16 16 	addiu $22,$22,-1
  4065d8:	08 00 00 00 da ff 00 02 	bgtz $2,406548 <vfprintf+0x15c8>
  4065e0:	28 00 00 00 60 09 0e 1d 	lw $14,2400($29)
  4065e8:	43 00 00 00 01 00 10 10 	addiu $16,$16,1
  4065f0:	5d 00 00 00 00 02 10 0e 	sltu $2,$14,$16
  4065f8:	06 00 00 00 32 00 00 02 	bne $2,$0,4066c8 <vfprintf+0x1748>
  406600:	28 00 00 00 04 00 03 14 	lw $3,4($20)
  406608:	28 00 00 00 0c 00 02 14 	lw $2,12($20)
  406610:	20 00 00 00 00 00 05 10 	lb $5,0($16)
  406618:	5d 00 00 00 00 02 02 03 	sltu $2,$3,$2
  406620:	05 00 00 00 10 00 00 02 	beq $2,$0,406668 <vfprintf+0x16e8>
  406628:	43 00 00 00 01 00 02 03 	addiu $2,$3,1
  406630:	34 00 00 00 04 00 02 14 	sw $2,4($20)
  406638:	42 00 00 00 00 02 05 00 	addu $2,$0,$5
  406640:	30 00 00 00 00 00 02 03 	sb $2,0($3)
  406648:	4f 00 00 00 ff 00 02 02 	andi $2,$2,255
  406650:	43 00 00 00 ff ff 0f 00 	addiu $15,$0,-1
  406658:	05 00 00 00 a6 fb 0f 02 	beq $2,$15,4054f8 <vfprintf+0x578>
  406660:	01 00 00 00 a8 19 10 00 	j 4066a0 <vfprintf+0x1720>
  406668:	42 00 00 00 00 04 14 00 	addu $4,$0,$20
  406670:	4f 00 00 00 ff 00 05 05 	andi $5,$5,255
  406678:	34 00 00 00 80 09 08 1d 	sw $8,2432($29)
  406680:	02 00 00 00 84 0f 10 00 	jal 403e10 <__flshfp>
  406688:	28 00 00 00 80 09 08 1d 	lw $8,2432($29)
  406690:	43 00 00 00 ff ff 0e 00 	addiu $14,$0,-1
  406698:	05 00 00 00 96 fb 0e 02 	beq $2,$14,4054f8 <vfprintf+0x578>
  4066a0:	43 00 00 00 01 00 15 15 	addiu $21,$21,1
  4066a8:	43 00 00 00 01 00 10 10 	addiu $16,$16,1
  4066b0:	28 00 00 00 60 09 0f 1d 	lw $15,2400($29)
  4066b8:	5d 00 00 00 00 02 10 0f 	sltu $2,$15,$16
  4066c0:	05 00 00 00 ce ff 00 02 	beq $2,$0,406600 <vfprintf+0x1680>
  4066c8:	22 00 00 00 30 09 0e 1d 	lbu $14,2352($29)
  4066d0:	42 00 00 00 00 02 0e 00 	addu $2,$0,$14
  4066d8:	05 00 00 00 4e 03 00 02 	beq $2,$0,407418 <vfprintf+0x2498>
  4066e0:	42 00 00 00 00 02 16 00 	addu $2,$0,$22
  4066e8:	43 00 00 00 ff ff 16 16 	addiu $22,$22,-1
  4066f0:	07 00 00 00 48 03 00 02 	blez $2,407418 <vfprintf+0x2498>
  4066f8:	28 00 00 00 04 00 03 14 	lw $3,4($20)
  406700:	28 00 00 00 0c 00 02 14 	lw $2,12($20)
  406708:	5d 00 00 00 00 02 02 03 	sltu $2,$3,$2
  406710:	06 00 00 00 10 00 00 02 	bne $2,$0,406758 <vfprintf+0x17d8>
  406718:	42 00 00 00 00 04 14 00 	addu $4,$0,$20
  406720:	43 00 00 00 20 00 05 00 	addiu $5,$0,32
  406728:	34 00 00 00 80 09 08 1d 	sw $8,2432($29)
  406730:	02 00 00 00 84 0f 10 00 	jal 403e10 <__flshfp>
  406738:	28 00 00 00 80 09 08 1d 	lw $8,2432($29)
  406740:	43 00 00 00 ff ff 0f 00 	addiu $15,$0,-1
  406748:	06 00 00 00 0a 00 0f 02 	bne $2,$15,406778 <vfprintf+0x17f8>
  406750:	01 00 00 00 3e 15 10 00 	j 4054f8 <vfprintf+0x578>
  406758:	43 00 00 00 01 00 02 03 	addiu $2,$3,1
  406760:	34 00 00 00 04 00 02 14 	sw $2,4($20)
  406768:	43 00 00 00 20 00 0e 00 	addiu $14,$0,32
  406770:	30 00 00 00 00 00 0e 03 	sb $14,0($3)
  406778:	43 00 00 00 01 00 15 15 	addiu $21,$21,1
  406780:	42 00 00 00 00 02 16 00 	addu $2,$0,$22
  406788:	43 00 00 00 ff ff 16 16 	addiu $22,$22,-1
  406790:	08 00 00 00 d8 ff 00 02 	bgtz $2,4066f8 <vfprintf+0x1778>
  406798:	01 00 00 00 06 1d 10 00 	j 407418 <vfprintf+0x2498>
  4067a0:	a2 00 00 00 41 00 09 00 	lui $9,65
  4067a8:	43 00 00 00 10 cf 09 09 	addiu $9,$9,-12528
  4067b0:	01 00 00 00 aa 1c 10 00 	j 4072a8 <vfprintf+0x2328>
  4067b8:	28 00 00 00 c0 09 02 1d 	lw $2,2496($29)
  4067c0:	43 00 00 00 fc ff 03 00 	addiu $3,$0,-4
  4067c8:	43 00 00 00 03 00 02 02 	addiu $2,$2,3
  4067d0:	4e 00 00 00 00 02 03 02 	and $2,$2,$3
  4067d8:	28 00 00 00 00 00 03 02 	lw $3,0($2)
  4067e0:	22 00 00 00 30 09 0f 1d 	lbu $15,2352($29)
  4067e8:	43 00 00 00 04 00 02 02 	addiu $2,$2,4
  4067f0:	42 00 00 00 00 10 03 00 	addu $16,$0,$3
  4067f8:	59 00 00 00 1f 11 03 00 	sra $17,$3,0x1f
  406800:	34 00 00 00 c0 09 02 1d 	sw $2,2496($29)
  406808:	42 00 00 00 00 02 0f 00 	addu $2,$0,$15
  406810:	06 00 00 00 2a 00 00 02 	bne $2,$0,4068c0 <vfprintf+0x1940>
  406818:	43 00 00 00 ff ff 16 16 	addiu $22,$22,-1
  406820:	07 00 00 00 26 00 00 16 	blez $22,4068c0 <vfprintf+0x1940>
  406828:	28 00 00 00 04 00 03 14 	lw $3,4($20)
  406830:	28 00 00 00 0c 00 02 14 	lw $2,12($20)
  406838:	5d 00 00 00 00 02 02 03 	sltu $2,$3,$2
  406840:	06 00 00 00 10 00 00 02 	bne $2,$0,406888 <vfprintf+0x1908>
  406848:	42 00 00 00 00 04 14 00 	addu $4,$0,$20
  406850:	43 00 00 00 20 00 05 00 	addiu $5,$0,32
  406858:	34 00 00 00 80 09 08 1d 	sw $8,2432($29)
  406860:	02 00 00 00 84 0f 10 00 	jal 403e10 <__flshfp>
  406868:	28 00 00 00 80 09 08 1d 	lw $8,2432($29)
  406870:	43 00 00 00 ff ff 0e 00 	addiu $14,$0,-1
  406878:	06 00 00 00 0a 00 0e 02 	bne $2,$14,4068a8 <vfprintf+0x1928>
  406880:	01 00 00 00 3e 15 10 00 	j 4054f8 <vfprintf+0x578>
  406888:	43 00 00 00 01 00 02 03 	addiu $2,$3,1
  406890:	34 00 00 00 04 00 02 14 	sw $2,4($20)
  406898:	43 00 00 00 20 00 0f 00 	addiu $15,$0,32
  4068a0:	30 00 00 00 00 00 0f 03 	sb $15,0($3)
  4068a8:	43 00 00 00 01 00 15 15 	addiu $21,$21,1
  4068b0:	43 00 00 00 ff ff 16 16 	addiu $22,$22,-1
  4068b8:	08 00 00 00 da ff 00 16 	bgtz $22,406828 <vfprintf+0x18a8>
  4068c0:	28 00 00 00 04 00 04 14 	lw $4,4($20)
  4068c8:	28 00 00 00 0c 00 02 14 	lw $2,12($20)
  4068d0:	4f 00 00 00 ff 00 05 10 	andi $5,$16,255
  4068d8:	5d 00 00 00 00 02 02 04 	sltu $2,$4,$2
  4068e0:	05 00 00 00 10 00 00 02 	beq $2,$0,406928 <vfprintf+0x19a8>
  4068e8:	43 00 00 00 01 00 02 04 	addiu $2,$4,1
  4068f0:	34 00 00 00 04 00 02 14 	sw $2,4($20)
  4068f8:	42 00 00 00 00 02 05 00 	addu $2,$0,$5
  406900:	30 00 00 00 00 00 02 04 	sb $2,0($4)
  406908:	4f 00 00 00 ff 00 02 02 	andi $2,$2,255
  406910:	43 00 00 00 ff ff 0e 00 	addiu $14,$0,-1
  406918:	05 00 00 00 f6 fa 0e 02 	beq $2,$14,4054f8 <vfprintf+0x578>
  406920:	01 00 00 00 56 1a 10 00 	j 406958 <vfprintf+0x19d8>
  406928:	42 00 00 00 00 04 14 00 	addu $4,$0,$20
  406930:	34 00 00 00 80 09 08 1d 	sw $8,2432($29)
  406938:	02 00 00 00 84 0f 10 00 	jal 403e10 <__flshfp>
  406940:	28 00 00 00 80 09 08 1d 	lw $8,2432($29)
  406948:	43 00 00 00 ff ff 0f 00 	addiu $15,$0,-1
  406950:	05 00 00 00 e8 fa 0f 02 	beq $2,$15,4054f8 <vfprintf+0x578>
  406958:	43 00 00 00 01 00 15 15 	addiu $21,$21,1
  406960:	22 00 00 00 30 09 0e 1d 	lbu $14,2352($29)
  406968:	42 00 00 00 00 02 0e 00 	addu $2,$0,$14
  406970:	05 00 00 00 a8 02 00 02 	beq $2,$0,407418 <vfprintf+0x2498>
  406978:	43 00 00 00 ff ff 16 16 	addiu $22,$22,-1
  406980:	07 00 00 00 a4 02 00 16 	blez $22,407418 <vfprintf+0x2498>
  406988:	28 00 00 00 04 00 03 14 	lw $3,4($20)
  406990:	28 00 00 00 0c 00 02 14 	lw $2,12($20)
  406998:	5d 00 00 00 00 02 02 03 	sltu $2,$3,$2
  4069a0:	06 00 00 00 10 00 00 02 	bne $2,$0,4069e8 <vfprintf+0x1a68>
  4069a8:	42 00 00 00 00 04 14 00 	addu $4,$0,$20
  4069b0:	43 00 00 00 20 00 05 00 	addiu $5,$0,32
  4069b8:	34 00 00 00 80 09 08 1d 	sw $8,2432($29)
  4069c0:	02 00 00 00 84 0f 10 00 	jal 403e10 <__flshfp>
  4069c8:	28 00 00 00 80 09 08 1d 	lw $8,2432($29)
  4069d0:	43 00 00 00 ff ff 0f 00 	addiu $15,$0,-1
  4069d8:	06 00 00 00 0a 00 0f 02 	bne $2,$15,406a08 <vfprintf+0x1a88>
  4069e0:	01 00 00 00 3e 15 10 00 	j 4054f8 <vfprintf+0x578>
  4069e8:	43 00 00 00 01 00 02 03 	addiu $2,$3,1
  4069f0:	34 00 00 00 04 00 02 14 	sw $2,4($20)
  4069f8:	43 00 00 00 20 00 0e 00 	addiu $14,$0,32
  406a00:	30 00 00 00 00 00 0e 03 	sb $14,0($3)
  406a08:	43 00 00 00 01 00 15 15 	addiu $21,$21,1
  406a10:	43 00 00 00 ff ff 16 16 	addiu $22,$22,-1
  406a18:	08 00 00 00 da ff 00 16 	bgtz $22,406988 <vfprintf+0x1a08>
  406a20:	01 00 00 00 06 1d 10 00 	j 407418 <vfprintf+0x2498>
  406a28:	28 00 00 00 c0 09 02 1d 	lw $2,2496($29)
  406a30:	43 00 00 00 fc ff 03 00 	addiu $3,$0,-4
  406a38:	43 00 00 00 03 00 02 02 	addiu $2,$2,3
  406a40:	4e 00 00 00 00 02 03 02 	and $2,$2,$3
  406a48:	28 00 00 00 00 00 10 02 	lw $16,0($2)
  406a50:	43 00 00 00 04 00 02 02 	addiu $2,$2,4
  406a58:	34 00 00 00 c0 09 02 1d 	sw $2,2496($29)
  406a60:	06 00 00 00 14 00 00 10 	bne $16,$0,406ab8 <vfprintf+0x1b38>
  406a68:	43 00 00 00 ff ff 0f 00 	addiu $15,$0,-1
  406a70:	05 00 00 00 04 00 0f 1e 	beq $30,$15,406a88 <vfprintf+0x1b08>
  406a78:	5c 00 00 00 06 00 02 1e 	slti $2,$30,6
  406a80:	06 00 00 00 06 00 00 02 	bne $2,$0,406aa0 <vfprintf+0x1b20>
  406a88:	43 00 00 00 d0 80 10 1c 	addiu $16,$28,-32560
  406a90:	43 00 00 00 06 00 11 00 	addiu $17,$0,6
  406a98:	01 00 00 00 b8 1a 10 00 	j 406ae0 <vfprintf+0x1b60>
  406aa0:	43 00 00 00 d8 80 10 1c 	addiu $16,$28,-32552
  406aa8:	42 00 00 00 00 11 00 00 	addu $17,$0,$0
  406ab0:	01 00 00 00 b8 1a 10 00 	j 406ae0 <vfprintf+0x1b60>
  406ab8:	42 00 00 00 00 04 10 00 	addu $4,$0,$16
  406ac0:	34 00 00 00 80 09 08 1d 	sw $8,2432($29)
  406ac8:	02 00 00 00 e8 30 10 00 	jal 40c3a0 <strlen>
  406ad0:	42 00 00 00 00 11 02 00 	addu $17,$0,$2
  406ad8:	28 00 00 00 80 09 08 1d 	lw $8,2432($29)
  406ae0:	43 00 00 00 ff ff 0e 00 	addiu $14,$0,-1
  406ae8:	05 00 00 00 06 00 0e 1e 	beq $30,$14,406b08 <vfprintf+0x1b88>
  406af0:	5d 00 00 00 00 02 11 1e 	sltu $2,$30,$17
  406af8:	05 00 00 00 02 00 00 02 	beq $2,$0,406b08 <vfprintf+0x1b88>
  406b00:	42 00 00 00 00 11 1e 00 	addu $17,$0,$30
  406b08:	22 00 00 00 30 09 0f 1d 	lbu $15,2352($29)
  406b10:	45 00 00 00 00 16 11 16 	subu $22,$22,$17
  406b18:	42 00 00 00 00 02 0f 00 	addu $2,$0,$15
  406b20:	06 00 00 00 2a 00 00 02 	bne $2,$0,406bd0 <vfprintf+0x1c50>
  406b28:	01 00 00 00 ee 1a 10 00 	j 406bb8 <vfprintf+0x1c38>
  406b30:	28 00 00 00 04 00 03 14 	lw $3,4($20)
  406b38:	28 00 00 00 0c 00 02 14 	lw $2,12($20)
  406b40:	5d 00 00 00 00 02 02 03 	sltu $2,$3,$2
  406b48:	06 00 00 00 10 00 00 02 	bne $2,$0,406b90 <vfprintf+0x1c10>
  406b50:	42 00 00 00 00 04 14 00 	addu $4,$0,$20
  406b58:	43 00 00 00 20 00 05 00 	addiu $5,$0,32
  406b60:	34 00 00 00 80 09 08 1d 	sw $8,2432($29)
  406b68:	02 00 00 00 84 0f 10 00 	jal 403e10 <__flshfp>
  406b70:	28 00 00 00 80 09 08 1d 	lw $8,2432($29)
  406b78:	43 00 00 00 ff ff 0e 00 	addiu $14,$0,-1
  406b80:	06 00 00 00 0a 00 0e 02 	bne $2,$14,406bb0 <vfprintf+0x1c30>
  406b88:	01 00 00 00 3e 15 10 00 	j 4054f8 <vfprintf+0x578>
  406b90:	43 00 00 00 01 00 02 03 	addiu $2,$3,1
  406b98:	34 00 00 00 04 00 02 14 	sw $2,4($20)
  406ba0:	43 00 00 00 20 00 0f 00 	addiu $15,$0,32
  406ba8:	30 00 00 00 00 00 0f 03 	sb $15,0($3)
  406bb0:	43 00 00 00 01 00 15 15 	addiu $21,$21,1
  406bb8:	42 00 00 00 00 02 16 00 	addu $2,$0,$22
  406bc0:	43 00 00 00 ff ff 16 16 	addiu $22,$22,-1
  406bc8:	08 00 00 00 d8 ff 00 02 	bgtz $2,406b30 <vfprintf+0x1bb0>
  406bd0:	5e 00 00 00 14 00 02 11 	sltiu $2,$17,20
  406bd8:	05 00 00 00 3a 00 00 02 	beq $2,$0,406cc8 <vfprintf+0x1d48>
  406be0:	42 00 00 00 00 02 11 00 	addu $2,$0,$17
  406be8:	43 00 00 00 ff ff 11 11 	addiu $17,$17,-1
  406bf0:	05 00 00 00 46 00 00 02 	beq $2,$0,406d10 <vfprintf+0x1d90>
  406bf8:	20 00 00 00 00 00 05 10 	lb $5,0($16)
  406c00:	28 00 00 00 04 00 03 14 	lw $3,4($20)
  406c08:	28 00 00 00 0c 00 02 14 	lw $2,12($20)
  406c10:	43 00 00 00 01 00 10 10 	addiu $16,$16,1
  406c18:	5d 00 00 00 00 02 02 03 	sltu $2,$3,$2
  406c20:	05 00 00 00 10 00 00 02 	beq $2,$0,406c68 <vfprintf+0x1ce8>
  406c28:	43 00 00 00 01 00 02 03 	addiu $2,$3,1
  406c30:	34 00 00 00 04 00 02 14 	sw $2,4($20)
  406c38:	42 00 00 00 00 02 05 00 	addu $2,$0,$5
  406c40:	30 00 00 00 00 00 02 03 	sb $2,0($3)
  406c48:	4f 00 00 00 ff 00 02 02 	andi $2,$2,255
  406c50:	43 00 00 00 ff ff 0e 00 	addiu $14,$0,-1
  406c58:	05 00 00 00 26 fa 0e 02 	beq $2,$14,4054f8 <vfprintf+0x578>
  406c60:	01 00 00 00 28 1b 10 00 	j 406ca0 <vfprintf+0x1d20>
  406c68:	42 00 00 00 00 04 14 00 	addu $4,$0,$20
  406c70:	4f 00 00 00 ff 00 05 05 	andi $5,$5,255
  406c78:	34 00 00 00 80 09 08 1d 	sw $8,2432($29)
  406c80:	02 00 00 00 84 0f 10 00 	jal 403e10 <__flshfp>
  406c88:	28 00 00 00 80 09 08 1d 	lw $8,2432($29)
  406c90:	43 00 00 00 ff ff 0f 00 	addiu $15,$0,-1
  406c98:	05 00 00 00 16 fa 0f 02 	beq $2,$15,4054f8 <vfprintf+0x578>
  406ca0:	43 00 00 00 01 00 15 15 	addiu $21,$21,1
  406ca8:	42 00 00 00 00 02 11 00 	addu $2,$0,$17
  406cb0:	43 00 00 00 ff ff 11 11 	addiu $17,$17,-1
  406cb8:	06 00 00 00 ce ff 00 02 	bne $2,$0,406bf8 <vfprintf+0x1c78>
  406cc0:	01 00 00 00 44 1b 10 00 	j 406d10 <vfprintf+0x1d90>
  406cc8:	42 00 00 00 00 04 10 00 	addu $4,$0,$16
  406cd0:	43 00 00 00 01 00 05 00 	addiu $5,$0,1
  406cd8:	42 00 00 00 00 06 11 00 	addu $6,$0,$17
  406ce0:	42 00 00 00 00 07 14 00 	addu $7,$0,$20
  406ce8:	34 00 00 00 80 09 08 1d 	sw $8,2432($29)
  406cf0:	02 00 00 00 a4 31 10 00 	jal 40c690 <fwrite>
  406cf8:	28 00 00 00 80 09 08 1d 	lw $8,2432($29)
  406d00:	06 00 00 00 fc f9 11 02 	bne $2,$17,4054f8 <vfprintf+0x578>
  406d08:	42 00 00 00 00 15 11 15 	addu $21,$21,$17
  406d10:	22 00 00 00 30 09 0e 1d 	lbu $14,2352($29)
  406d18:	42 00 00 00 00 02 0e 00 	addu $2,$0,$14
  406d20:	05 00 00 00 bc 01 00 02 	beq $2,$0,407418 <vfprintf+0x2498>
  406d28:	42 00 00 00 00 02 16 00 	addu $2,$0,$22
  406d30:	43 00 00 00 ff ff 16 16 	addiu $22,$22,-1
  406d38:	07 00 00 00 b6 01 00 02 	blez $2,407418 <vfprintf+0x2498>
  406d40:	28 00 00 00 04 00 03 14 	lw $3,4($20)
  406d48:	28 00 00 00 0c 00 02 14 	lw $2,12($20)
  406d50:	5d 00 00 00 00 02 02 03 	sltu $2,$3,$2
  406d58:	06 00 00 00 10 00 00 02 	bne $2,$0,406da0 <vfprintf+0x1e20>
  406d60:	42 00 00 00 00 04 14 00 	addu $4,$0,$20
  406d68:	43 00 00 00 20 00 05 00 	addiu $5,$0,32
  406d70:	34 00 00 00 80 09 08 1d 	sw $8,2432($29)
  406d78:	02 00 00 00 84 0f 10 00 	jal 403e10 <__flshfp>
  406d80:	28 00 00 00 80 09 08 1d 	lw $8,2432($29)
  406d88:	43 00 00 00 ff ff 0f 00 	addiu $15,$0,-1
  406d90:	06 00 00 00 0a 00 0f 02 	bne $2,$15,406dc0 <vfprintf+0x1e40>
  406d98:	01 00 00 00 3e 15 10 00 	j 4054f8 <vfprintf+0x578>
  406da0:	43 00 00 00 01 00 02 03 	addiu $2,$3,1
  406da8:	34 00 00 00 04 00 02 14 	sw $2,4($20)
  406db0:	43 00 00 00 20 00 0e 00 	addiu $14,$0,32
  406db8:	30 00 00 00 00 00 0e 03 	sb $14,0($3)
  406dc0:	43 00 00 00 01 00 15 15 	addiu $21,$21,1
  406dc8:	42 00 00 00 00 02 16 00 	addu $2,$0,$22
  406dd0:	43 00 00 00 ff ff 16 16 	addiu $22,$22,-1
  406dd8:	08 00 00 00 d8 ff 00 02 	bgtz $2,406d40 <vfprintf+0x1dc0>
  406de0:	01 00 00 00 06 1d 10 00 	j 407418 <vfprintf+0x2498>
  406de8:	28 00 00 00 c0 09 02 1d 	lw $2,2496($29)
  406df0:	43 00 00 00 fc ff 03 00 	addiu $3,$0,-4
  406df8:	43 00 00 00 03 00 02 02 	addiu $2,$2,3
  406e00:	4e 00 00 00 00 02 03 02 	and $2,$2,$3
  406e08:	28 00 00 00 00 00 03 02 	lw $3,0($2)
  406e10:	43 00 00 00 04 00 02 02 	addiu $2,$2,4
  406e18:	34 00 00 00 c0 09 02 1d 	sw $2,2496($29)
  406e20:	05 00 00 00 12 00 00 03 	beq $3,$0,406e70 <vfprintf+0x1ef0>
  406e28:	43 00 00 00 10 00 0f 00 	addiu $15,$0,16
  406e30:	43 00 00 00 78 00 0e 00 	addiu $14,$0,120
  406e38:	34 00 00 00 58 09 0f 1d 	sw $15,2392($29)
  406e40:	43 00 00 00 01 00 0f 00 	addiu $15,$0,1
  406e48:	42 00 00 00 00 10 03 00 	addu $16,$0,$3
  406e50:	42 00 00 00 00 11 00 00 	addu $17,$0,$0
  406e58:	30 00 00 00 50 09 0e 1d 	sb $14,2384($29)
  406e60:	30 00 00 00 38 09 0f 1d 	sb $15,2360($29)
  406e68:	01 00 00 00 80 17 10 00 	j 405e00 <vfprintf+0xe80>
  406e70:	22 00 00 00 30 09 0e 1d 	lbu $14,2352($29)
  406e78:	43 00 00 00 fb ff 16 16 	addiu $22,$22,-5
  406e80:	42 00 00 00 00 02 0e 00 	addu $2,$0,$14
  406e88:	06 00 00 00 2a 00 00 02 	bne $2,$0,406f38 <vfprintf+0x1fb8>
  406e90:	01 00 00 00 c8 1b 10 00 	j 406f20 <vfprintf+0x1fa0>
  406e98:	28 00 00 00 04 00 03 14 	lw $3,4($20)
  406ea0:	28 00 00 00 0c 00 02 14 	lw $2,12($20)
  406ea8:	5d 00 00 00 00 02 02 03 	sltu $2,$3,$2
  406eb0:	06 00 00 00 10 00 00 02 	bne $2,$0,406ef8 <vfprintf+0x1f78>
  406eb8:	42 00 00 00 00 04 14 00 	addu $4,$0,$20
  406ec0:	43 00 00 00 20 00 05 00 	addiu $5,$0,32
  406ec8:	34 00 00 00 80 09 08 1d 	sw $8,2432($29)
  406ed0:	02 00 00 00 84 0f 10 00 	jal 403e10 <__flshfp>
  406ed8:	28 00 00 00 80 09 08 1d 	lw $8,2432($29)
  406ee0:	43 00 00 00 ff ff 0f 00 	addiu $15,$0,-1
  406ee8:	06 00 00 00 0a 00 0f 02 	bne $2,$15,406f18 <vfprintf+0x1f98>
  406ef0:	01 00 00 00 3e 15 10 00 	j 4054f8 <vfprintf+0x578>
  406ef8:	43 00 00 00 01 00 02 03 	addiu $2,$3,1
  406f00:	34 00 00 00 04 00 02 14 	sw $2,4($20)
  406f08:	43 00 00 00 20 00 0e 00 	addiu $14,$0,32
  406f10:	30 00 00 00 00 00 0e 03 	sb $14,0($3)
  406f18:	43 00 00 00 01 00 15 15 	addiu $21,$21,1
  406f20:	42 00 00 00 00 02 16 00 	addu $2,$0,$22
  406f28:	43 00 00 00 ff ff 16 16 	addiu $22,$22,-1
  406f30:	08 00 00 00 d8 ff 00 02 	bgtz $2,406e98 <vfprintf+0x1f18>
  406f38:	20 00 00 00 dc 80 02 1c 	lb $2,-32548($28)
  406f40:	43 00 00 00 dc 80 10 1c 	addiu $16,$28,-32548
  406f48:	05 00 00 00 30 00 00 02 	beq $2,$0,407010 <vfprintf+0x2090>
  406f50:	28 00 00 00 04 00 03 14 	lw $3,4($20)
  406f58:	28 00 00 00 0c 00 02 14 	lw $2,12($20)
  406f60:	20 00 00 00 00 00 05 10 	lb $5,0($16)
  406f68:	5d 00 00 00 00 02 02 03 	sltu $2,$3,$2
  406f70:	05 00 00 00 10 00 00 02 	beq $2,$0,406fb8 <vfprintf+0x2038>
  406f78:	43 00 00 00 01 00 02 03 	addiu $2,$3,1
  406f80:	34 00 00 00 04 00 02 14 	sw $2,4($20)
  406f88:	42 00 00 00 00 02 05 00 	addu $2,$0,$5
  406f90:	30 00 00 00 00 00 02 03 	sb $2,0($3)
  406f98:	4f 00 00 00 ff 00 02 02 	andi $2,$2,255
  406fa0:	43 00 00 00 ff ff 0f 00 	addiu $15,$0,-1
  406fa8:	05 00 00 00 52 f9 0f 02 	beq $2,$15,4054f8 <vfprintf+0x578>
  406fb0:	01 00 00 00 fc 1b 10 00 	j 406ff0 <vfprintf+0x2070>
  406fb8:	42 00 00 00 00 04 14 00 	addu $4,$0,$20
  406fc0:	4f 00 00 00 ff 00 05 05 	andi $5,$5,255
  406fc8:	34 00 00 00 80 09 08 1d 	sw $8,2432($29)
  406fd0:	02 00 00 00 84 0f 10 00 	jal 403e10 <__flshfp>
  406fd8:	28 00 00 00 80 09 08 1d 	lw $8,2432($29)
  406fe0:	43 00 00 00 ff ff 0e 00 	addiu $14,$0,-1
  406fe8:	05 00 00 00 42 f9 0e 02 	beq $2,$14,4054f8 <vfprintf+0x578>
  406ff0:	43 00 00 00 01 00 15 15 	addiu $21,$21,1
  406ff8:	43 00 00 00 01 00 10 10 	addiu $16,$16,1
  407000:	20 00 00 00 00 00 02 10 	lb $2,0($16)
  407008:	06 00 00 00 d0 ff 00 02 	bne $2,$0,406f50 <vfprintf+0x1fd0>
  407010:	22 00 00 00 30 09 0f 1d 	lbu $15,2352($29)
  407018:	42 00 00 00 00 02 0f 00 	addu $2,$0,$15
  407020:	05 00 00 00 fc 00 00 02 	beq $2,$0,407418 <vfprintf+0x2498>
  407028:	42 00 00 00 00 02 16 00 	addu $2,$0,$22
  407030:	43 00 00 00 ff ff 16 16 	addiu $22,$22,-1
  407038:	07 00 00 00 f6 00 00 02 	blez $2,407418 <vfprintf+0x2498>
  407040:	28 00 00 00 04 00 03 14 	lw $3,4($20)
  407048:	28 00 00 00 0c 00 02 14 	lw $2,12($20)
  407050:	5d 00 00 00 00 02 02 03 	sltu $2,$3,$2
  407058:	06 00 00 00 10 00 00 02 	bne $2,$0,4070a0 <vfprintf+0x2120>
  407060:	42 00 00 00 00 04 14 00 	addu $4,$0,$20
  407068:	43 00 00 00 20 00 05 00 	addiu $5,$0,32
  407070:	34 00 00 00 80 09 08 1d 	sw $8,2432($29)
  407078:	02 00 00 00 84 0f 10 00 	jal 403e10 <__flshfp>
  407080:	28 00 00 00 80 09 08 1d 	lw $8,2432($29)
  407088:	43 00 00 00 ff ff 0e 00 	addiu $14,$0,-1
  407090:	06 00 00 00 0a 00 0e 02 	bne $2,$14,4070c0 <vfprintf+0x2140>
  407098:	01 00 00 00 3e 15 10 00 	j 4054f8 <vfprintf+0x578>
  4070a0:	43 00 00 00 01 00 02 03 	addiu $2,$3,1
  4070a8:	34 00 00 00 04 00 02 14 	sw $2,4($20)
  4070b0:	43 00 00 00 20 00 0f 00 	addiu $15,$0,32
  4070b8:	30 00 00 00 00 00 0f 03 	sb $15,0($3)
  4070c0:	43 00 00 00 01 00 15 15 	addiu $21,$21,1
  4070c8:	42 00 00 00 00 02 16 00 	addu $2,$0,$22
  4070d0:	43 00 00 00 ff ff 16 16 	addiu $22,$22,-1
  4070d8:	08 00 00 00 d8 ff 00 02 	bgtz $2,407040 <vfprintf+0x20c0>
  4070e0:	01 00 00 00 06 1d 10 00 	j 407418 <vfprintf+0x2498>
  4070e8:	42 00 00 00 00 02 07 00 	addu $2,$0,$7
  4070f0:	05 00 00 00 18 00 00 02 	beq $2,$0,407158 <vfprintf+0x21d8>
  4070f8:	28 00 00 00 c0 09 04 1d 	lw $4,2496($29)
  407100:	43 00 00 00 fc ff 05 00 	addiu $5,$0,-4
  407108:	43 00 00 00 03 00 04 04 	addiu $4,$4,3
  407110:	4e 00 00 00 00 04 05 04 	and $4,$4,$5
  407118:	28 00 00 00 00 00 05 04 	lw $5,0($4)
  407120:	42 00 00 00 00 02 15 00 	addu $2,$0,$21
  407128:	42 00 00 00 00 03 00 00 	addu $3,$0,$0
  407130:	43 00 00 00 04 00 04 04 	addiu $4,$4,4
  407138:	34 00 00 00 c0 09 04 1d 	sw $4,2496($29)
  407140:	34 00 00 00 00 00 02 05 	sw $2,0($5)
  407148:	34 00 00 00 04 00 03 05 	sw $3,4($5)
  407150:	01 00 00 00 06 1d 10 00 	j 407418 <vfprintf+0x2498>
  407158:	42 00 00 00 00 02 0a 00 	addu $2,$0,$10
  407160:	06 00 00 00 04 00 00 02 	bne $2,$0,407178 <vfprintf+0x21f8>
  407168:	42 00 00 00 00 02 0b 00 	addu $2,$0,$11
  407170:	06 00 00 00 12 00 00 02 	bne $2,$0,4071c0 <vfprintf+0x2240>
  407178:	28 00 00 00 c0 09 02 1d 	lw $2,2496($29)
  407180:	43 00 00 00 fc ff 03 00 	addiu $3,$0,-4
  407188:	43 00 00 00 03 00 02 02 	addiu $2,$2,3
  407190:	4e 00 00 00 00 02 03 02 	and $2,$2,$3
  407198:	28 00 00 00 00 00 03 02 	lw $3,0($2)
  4071a0:	43 00 00 00 04 00 02 02 	addiu $2,$2,4
  4071a8:	34 00 00 00 c0 09 02 1d 	sw $2,2496($29)
  4071b0:	34 00 00 00 00 00 15 03 	sw $21,0($3)
  4071b8:	01 00 00 00 06 1d 10 00 	j 407418 <vfprintf+0x2498>
  4071c0:	28 00 00 00 c0 09 02 1d 	lw $2,2496($29)
  4071c8:	43 00 00 00 fc ff 03 00 	addiu $3,$0,-4
  4071d0:	43 00 00 00 03 00 02 02 	addiu $2,$2,3
  4071d8:	4e 00 00 00 00 02 03 02 	and $2,$2,$3
  4071e0:	28 00 00 00 00 00 03 02 	lw $3,0($2)
  4071e8:	43 00 00 00 04 00 02 02 	addiu $2,$2,4
  4071f0:	34 00 00 00 c0 09 02 1d 	sw $2,2496($29)
  4071f8:	32 00 00 00 00 00 15 03 	sh $21,0($3)
  407200:	01 00 00 00 06 1d 10 00 	j 407418 <vfprintf+0x2498>
  407208:	28 00 00 00 60 84 06 1c 	lw $6,-31648($28)
  407210:	09 00 00 00 06 00 00 06 	bltz $6,407230 <vfprintf+0x22b0>
  407218:	28 00 00 00 10 81 02 1c 	lw $2,-32496($28)
  407220:	5b 00 00 00 00 02 06 02 	slt $2,$2,$6
  407228:	05 00 00 00 10 00 00 02 	beq $2,$0,407270 <vfprintf+0x22f0>
  407230:	43 00 00 00 10 04 10 1d 	addiu $16,$29,1040
  407238:	42 00 00 00 00 04 10 00 	addu $4,$0,$16
  407240:	a2 00 00 00 00 10 05 00 	lui $5,4096
  407248:	43 00 00 00 70 02 05 05 	addiu $5,$5,624
  407250:	34 00 00 00 80 09 08 1d 	sw $8,2432($29)
  407258:	02 00 00 00 60 46 10 00 	jal 411980 <sprintf>
  407260:	28 00 00 00 80 09 08 1d 	lw $8,2432($29)
  407268:	01 00 00 00 98 1a 10 00 	j 406a60 <vfprintf+0x1ae0>
  407270:	55 00 00 00 02 02 06 00 	sll $2,$6,0x2
  407278:	a2 00 00 00 00 10 10 00 	lui $16,4096
  407280:	42 00 00 00 00 10 02 10 	addu $16,$16,$2
  407288:	28 00 00 00 30 06 10 10 	lw $16,1584($16)
  407290:	01 00 00 00 98 1a 10 00 	j 406a60 <vfprintf+0x1ae0>
  407298:	a2 00 00 00 40 00 09 00 	lui $9,64
  4072a0:	43 00 00 00 f8 74 09 09 	addiu $9,$9,29944
  4072a8:	22 00 00 00 50 09 0e 1d 	lbu $14,2384($29)
  4072b0:	22 00 00 00 38 09 0f 1d 	lbu $15,2360($29)
  4072b8:	42 00 00 00 00 04 14 00 	addu $4,$0,$20
  4072c0:	43 00 00 00 10 09 05 1d 	addiu $5,$29,2320
  4072c8:	30 00 00 00 18 09 0e 1d 	sb $14,2328($29)
  4072d0:	28 00 00 00 18 09 02 1d 	lw $2,2328($29)
  4072d8:	43 00 00 00 c0 09 06 1d 	addiu $6,$29,2496
  4072e0:	43 00 00 00 ff fe 03 00 	addiu $3,$0,-257
  4072e8:	34 00 00 00 10 09 1e 1d 	sw $30,2320($29)
  4072f0:	34 00 00 00 14 09 16 1d 	sw $22,2324($29)
  4072f8:	34 00 00 00 80 09 08 1d 	sw $8,2432($29)
  407300:	22 00 00 00 30 09 0e 1d 	lbu $14,2352($29)
  407308:	4e 00 00 00 00 02 03 02 	and $2,$2,$3
  407310:	55 00 00 00 08 03 07 00 	sll $3,$7,0x8
  407318:	50 00 00 00 00 02 03 02 	or $2,$2,$3
  407320:	43 00 00 00 ff fd 03 00 	addiu $3,$0,-513
  407328:	4e 00 00 00 00 02 03 02 	and $2,$2,$3
  407330:	55 00 00 00 09 03 0b 00 	sll $3,$11,0x9
  407338:	50 00 00 00 00 02 03 02 	or $2,$2,$3
  407340:	43 00 00 00 ff fb 03 00 	addiu $3,$0,-1025
  407348:	4e 00 00 00 00 02 03 02 	and $2,$2,$3
  407350:	55 00 00 00 0a 03 0a 00 	sll $3,$10,0xa
  407358:	50 00 00 00 00 02 03 02 	or $2,$2,$3
  407360:	43 00 00 00 ff f7 03 00 	addiu $3,$0,-2049
  407368:	4e 00 00 00 00 02 03 02 	and $2,$2,$3
  407370:	55 00 00 00 0b 03 0f 00 	sll $3,$15,0xb
  407378:	50 00 00 00 00 02 03 02 	or $2,$2,$3
  407380:	43 00 00 00 ff ef 03 00 	addiu $3,$0,-4097
  407388:	4e 00 00 00 00 02 03 02 	and $2,$2,$3
  407390:	55 00 00 00 0c 03 0c 00 	sll $3,$12,0xc
  407398:	50 00 00 00 00 02 03 02 	or $2,$2,$3
  4073a0:	43 00 00 00 ff df 03 00 	addiu $3,$0,-8193
  4073a8:	4e 00 00 00 00 02 03 02 	and $2,$2,$3
  4073b0:	55 00 00 00 0d 03 0e 00 	sll $3,$14,0xd
  4073b8:	50 00 00 00 00 02 03 02 	or $2,$2,$3
  4073c0:	43 00 00 00 ff bf 03 00 	addiu $3,$0,-16385
  4073c8:	4e 00 00 00 00 02 03 02 	and $2,$2,$3
  4073d0:	22 00 00 00 40 09 0f 1d 	lbu $15,2368($29)
  4073d8:	55 00 00 00 0e 03 0d 00 	sll $3,$13,0xe
  4073e0:	50 00 00 00 00 02 03 02 	or $2,$2,$3
  4073e8:	34 00 00 00 18 09 02 1d 	sw $2,2328($29)
  4073f0:	30 00 00 00 1a 09 0f 1d 	sb $15,2330($29)
  4073f8:	04 00 00 00 00 1f 00 09 	jalr $31,$9
  407400:	28 00 00 00 80 09 08 1d 	lw $8,2432($29)
  407408:	09 00 00 00 3a f8 00 02 	bltz $2,4054f8 <vfprintf+0x578>
  407410:	42 00 00 00 00 15 02 15 	addu $21,$21,$2
  407418:	20 00 00 00 00 00 02 08 	lb $2,0($8)
  407420:	22 00 00 00 00 00 03 08 	lbu $3,0($8)
  407428:	06 00 00 00 50 f7 00 02 	bne $2,$0,405170 <vfprintf+0x1f0>
  407430:	22 00 00 00 20 09 0e 1d 	lbu $14,2336($29)
  407438:	42 00 00 00 00 02 0e 00 	addu $2,$0,$14
  407440:	05 00 00 00 12 00 00 02 	beq $2,$0,407490 <vfprintf+0x2510>
  407448:	42 00 00 00 00 04 14 00 	addu $4,$0,$20
  407450:	02 00 00 00 74 46 10 00 	jal 4119d0 <fflush>
  407458:	43 00 00 00 ff ff 03 00 	addiu $3,$0,-1
  407460:	05 00 00 00 06 f7 03 02 	beq $2,$3,405080 <vfprintf+0x100>
  407468:	34 00 00 00 0c 00 00 14 	sw $0,12($20)
  407470:	34 00 00 00 08 00 00 14 	sw $0,8($20)
  407478:	34 00 00 00 04 00 00 14 	sw $0,4($20)
  407480:	34 00 00 00 10 00 00 14 	sw $0,16($20)
  407488:	34 00 00 00 14 00 00 14 	sw $0,20($20)
  407490:	42 00 00 00 00 02 15 00 	addu $2,$0,$21
  407498:	28 00 00 00 b4 09 1f 1d 	lw $31,2484($29)
  4074a0:	28 00 00 00 b0 09 1e 1d 	lw $30,2480($29)
  4074a8:	28 00 00 00 ac 09 17 1d 	lw $23,2476($29)
  4074b0:	28 00 00 00 a8 09 16 1d 	lw $22,2472($29)
  4074b8:	28 00 00 00 a4 09 15 1d 	lw $21,2468($29)
  4074c0:	28 00 00 00 a0 09 14 1d 	lw $20,2464($29)
  4074c8:	28 00 00 00 9c 09 13 1d 	lw $19,2460($29)
  4074d0:	28 00 00 00 98 09 12 1d 	lw $18,2456($29)
  4074d8:	28 00 00 00 94 09 11 1d 	lw $17,2452($29)
  4074e0:	28 00 00 00 90 09 10 1d 	lw $16,2448($29)
  4074e8:	43 00 00 00 b8 09 1d 1d 	addiu $29,$29,2488
  4074f0:	03 00 00 00 00 00 00 1f 	jr $31

004074f8 <printf_unknown>:
  4074f8:	43 00 00 00 d0 fb 1d 1d 	addiu $29,$29,-1072
  407500:	34 00 00 00 10 04 10 1d 	sw $16,1040($29)
  407508:	42 00 00 00 00 10 04 00 	addu $16,$0,$4
  407510:	34 00 00 00 24 04 15 1d 	sw $21,1060($29)
  407518:	42 00 00 00 00 15 05 00 	addu $21,$0,$5
  407520:	34 00 00 00 2c 04 1f 1d 	sw $31,1068($29)
  407528:	34 00 00 00 28 04 16 1d 	sw $22,1064($29)
  407530:	34 00 00 00 20 04 14 1d 	sw $20,1056($29)
  407538:	34 00 00 00 1c 04 13 1d 	sw $19,1052($29)
  407540:	34 00 00 00 18 04 12 1d 	sw $18,1048($29)
  407548:	34 00 00 00 14 04 11 1d 	sw $17,1044($29)
  407550:	28 00 00 00 00 00 14 15 	lw $20,0($21)
  407558:	28 00 00 00 04 00 13 15 	lw $19,4($21)
  407560:	42 00 00 00 00 12 00 00 	addu $18,$0,$0
  407568:	43 00 00 00 0f 04 16 1d 	addiu $22,$29,1039
  407570:	28 00 00 00 04 00 03 10 	lw $3,4($16)
  407578:	28 00 00 00 0c 00 02 10 	lw $2,12($16)
  407580:	5d 00 00 00 00 02 02 03 	sltu $2,$3,$2
  407588:	05 00 00 00 0a 00 00 02 	beq $2,$0,4075b8 <printf_unknown+0xc0>
  407590:	43 00 00 00 01 00 02 03 	addiu $2,$3,1
  407598:	34 00 00 00 04 00 02 10 	sw $2,4($16)
  4075a0:	43 00 00 00 25 00 02 00 	addiu $2,$0,37
  4075a8:	30 00 00 00 00 00 02 03 	sb $2,0($3)
  4075b0:	01 00 00 00 78 1d 10 00 	j 4075e0 <printf_unknown+0xe8>
  4075b8:	42 00 00 00 00 04 10 00 	addu $4,$0,$16
  4075c0:	43 00 00 00 25 00 05 00 	addiu $5,$0,37
  4075c8:	02 00 00 00 84 0f 10 00 	jal 403e10 <__flshfp>
  4075d0:	43 00 00 00 ff ff 03 00 	addiu $3,$0,-1
  4075d8:	05 00 00 00 a8 01 03 02 	beq $2,$3,407c80 <printf_unknown+0x788>
  4075e0:	43 00 00 00 01 00 12 12 	addiu $18,$18,1
  4075e8:	28 00 00 00 08 00 02 15 	lw $2,8($21)
  4075f0:	4f 00 00 00 00 08 02 02 	andi $2,$2,2048
  4075f8:	05 00 00 00 1e 00 00 02 	beq $2,$0,407678 <printf_unknown+0x180>
  407600:	28 00 00 00 04 00 03 10 	lw $3,4($16)
  407608:	28 00 00 00 0c 00 02 10 	lw $2,12($16)
  407610:	5d 00 00 00 00 02 02 03 	sltu $2,$3,$2
  407618:	05 00 00 00 0a 00 00 02 	beq $2,$0,407648 <printf_unknown+0x150>
  407620:	43 00 00 00 01 00 02 03 	addiu $2,$3,1
  407628:	34 00 00 00 04 00 02 10 	sw $2,4($16)
  407630:	43 00 00 00 23 00 02 00 	addiu $2,$0,35
  407638:	30 00 00 00 00 00 02 03 	sb $2,0($3)
  407640:	01 00 00 00 9c 1d 10 00 	j 407670 <printf_unknown+0x178>
  407648:	42 00 00 00 00 04 10 00 	addu $4,$0,$16
  407650:	43 00 00 00 23 00 05 00 	addiu $5,$0,35
  407658:	02 00 00 00 84 0f 10 00 	jal 403e10 <__flshfp>
  407660:	43 00 00 00 ff ff 03 00 	addiu $3,$0,-1
  407668:	05 00 00 00 84 01 03 02 	beq $2,$3,407c80 <printf_unknown+0x788>
  407670:	43 00 00 00 01 00 12 12 	addiu $18,$18,1
  407678:	28 00 00 00 08 00 03 15 	lw $3,8($21)
  407680:	4f 00 00 00 00 40 02 03 	andi $2,$3,16384
  407688:	05 00 00 00 1e 00 00 02 	beq $2,$0,407708 <printf_unknown+0x210>
  407690:	28 00 00 00 04 00 03 10 	lw $3,4($16)
  407698:	28 00 00 00 0c 00 02 10 	lw $2,12($16)
  4076a0:	5d 00 00 00 00 02 02 03 	sltu $2,$3,$2
  4076a8:	05 00 00 00 0a 00 00 02 	beq $2,$0,4076d8 <printf_unknown+0x1e0>
  4076b0:	43 00 00 00 01 00 02 03 	addiu $2,$3,1
  4076b8:	34 00 00 00 04 00 02 10 	sw $2,4($16)
  4076c0:	43 00 00 00 2b 00 02 00 	addiu $2,$0,43
  4076c8:	30 00 00 00 00 00 02 03 	sb $2,0($3)
  4076d0:	01 00 00 00 e2 1d 10 00 	j 407788 <printf_unknown+0x290>
  4076d8:	42 00 00 00 00 04 10 00 	addu $4,$0,$16
  4076e0:	43 00 00 00 2b 00 05 00 	addiu $5,$0,43
  4076e8:	02 00 00 00 84 0f 10 00 	jal 403e10 <__flshfp>
  4076f0:	43 00 00 00 ff ff 03 00 	addiu $3,$0,-1
  4076f8:	06 00 00 00 22 00 03 02 	bne $2,$3,407788 <printf_unknown+0x290>
  407700:	01 00 00 00 20 1f 10 00 	j 407c80 <printf_unknown+0x788>
  407708:	4f 00 00 00 00 10 02 03 	andi $2,$3,4096
  407710:	05 00 00 00 1e 00 00 02 	beq $2,$0,407790 <printf_unknown+0x298>
  407718:	28 00 00 00 04 00 03 10 	lw $3,4($16)
  407720:	28 00 00 00 0c 00 02 10 	lw $2,12($16)
  407728:	5d 00 00 00 00 02 02 03 	sltu $2,$3,$2
  407730:	05 00 00 00 0a 00 00 02 	beq $2,$0,407760 <printf_unknown+0x268>
  407738:	43 00 00 00 01 00 02 03 	addiu $2,$3,1
  407740:	34 00 00 00 04 00 02 10 	sw $2,4($16)
  407748:	43 00 00 00 20 00 02 00 	addiu $2,$0,32
  407750:	30 00 00 00 00 00 02 03 	sb $2,0($3)
  407758:	01 00 00 00 e2 1d 10 00 	j 407788 <printf_unknown+0x290>
  407760:	42 00 00 00 00 04 10 00 	addu $4,$0,$16
  407768:	43 00 00 00 20 00 05 00 	addiu $5,$0,32
  407770:	02 00 00 00 84 0f 10 00 	jal 403e10 <__flshfp>
  407778:	43 00 00 00 ff ff 03 00 	addiu $3,$0,-1
  407780:	05 00 00 00 3e 01 03 02 	beq $2,$3,407c80 <printf_unknown+0x788>
  407788:	43 00 00 00 01 00 12 12 	addiu $18,$18,1
  407790:	28 00 00 00 08 00 02 15 	lw $2,8($21)
  407798:	4f 00 00 00 00 20 02 02 	andi $2,$2,8192
  4077a0:	05 00 00 00 1e 00 00 02 	beq $2,$0,407820 <printf_unknown+0x328>
  4077a8:	28 00 00 00 04 00 03 10 	lw $3,4($16)
  4077b0:	28 00 00 00 0c 00 02 10 	lw $2,12($16)
  4077b8:	5d 00 00 00 00 02 02 03 	sltu $2,$3,$2
  4077c0:	05 00 00 00 0a 00 00 02 	beq $2,$0,4077f0 <printf_unknown+0x2f8>
  4077c8:	43 00 00 00 01 00 02 03 	addiu $2,$3,1
  4077d0:	34 00 00 00 04 00 02 10 	sw $2,4($16)
  4077d8:	43 00 00 00 2d 00 02 00 	addiu $2,$0,45
  4077e0:	30 00 00 00 00 00 02 03 	sb $2,0($3)
  4077e8:	01 00 00 00 06 1e 10 00 	j 407818 <printf_unknown+0x320>
  4077f0:	42 00 00 00 00 04 10 00 	addu $4,$0,$16
  4077f8:	43 00 00 00 2d 00 05 00 	addiu $5,$0,45
  407800:	02 00 00 00 84 0f 10 00 	jal 403e10 <__flshfp>
  407808:	43 00 00 00 ff ff 03 00 	addiu $3,$0,-1
  407810:	05 00 00 00 1a 01 03 02 	beq $2,$3,407c80 <printf_unknown+0x788>
  407818:	43 00 00 00 01 00 12 12 	addiu $18,$18,1
  407820:	20 00 00 00 0a 00 03 15 	lb $3,10($21)
  407828:	43 00 00 00 30 00 02 00 	addiu $2,$0,48
  407830:	06 00 00 00 1e 00 02 03 	bne $3,$2,4078b0 <printf_unknown+0x3b8>
  407838:	28 00 00 00 04 00 03 10 	lw $3,4($16)
  407840:	28 00 00 00 0c 00 02 10 	lw $2,12($16)
  407848:	5d 00 00 00 00 02 02 03 	sltu $2,$3,$2
  407850:	05 00 00 00 0a 00 00 02 	beq $2,$0,407880 <printf_unknown+0x388>
  407858:	43 00 00 00 01 00 02 03 	addiu $2,$3,1
  407860:	34 00 00 00 04 00 02 10 	sw $2,4($16)
  407868:	43 00 00 00 30 00 02 00 	addiu $2,$0,48
  407870:	30 00 00 00 00 00 02 03 	sb $2,0($3)
  407878:	01 00 00 00 2a 1e 10 00 	j 4078a8 <printf_unknown+0x3b0>
  407880:	42 00 00 00 00 04 10 00 	addu $4,$0,$16
  407888:	43 00 00 00 30 00 05 00 	addiu $5,$0,48
  407890:	02 00 00 00 84 0f 10 00 	jal 403e10 <__flshfp>
  407898:	43 00 00 00 ff ff 03 00 	addiu $3,$0,-1
  4078a0:	05 00 00 00 f6 00 03 02 	beq $2,$3,407c80 <printf_unknown+0x788>
  4078a8:	43 00 00 00 01 00 12 12 	addiu $18,$18,1
  4078b0:	42 00 00 00 00 11 16 00 	addu $17,$0,$22
  4078b8:	07 00 00 00 26 00 00 13 	blez $19,407958 <printf_unknown+0x460>
  4078c0:	a2 00 00 00 66 66 03 00 	lui $3,26214
  4078c8:	51 00 00 00 67 66 03 03 	ori $3,$3,26215
  4078d0:	46 00 00 00 00 00 03 13 	mult $19,$3
  4078d8:	4a 00 00 00 00 05 00 00 	mfhi $5
  4078e0:	4c 00 00 00 00 04 00 00 	mflo $4
  4078e8:	57 00 00 00 00 04 05 00 	srl $4,$5,0x0
  4078f0:	42 00 00 00 00 05 00 00 	addu $5,$0,$0
  4078f8:	59 00 00 00 02 04 04 00 	sra $4,$4,0x2
  407900:	59 00 00 00 1f 02 13 00 	sra $2,$19,0x1f
  407908:	45 00 00 00 00 04 02 04 	subu $4,$4,$2
  407910:	55 00 00 00 02 02 04 00 	sll $2,$4,0x2
  407918:	42 00 00 00 00 02 04 02 	addu $2,$2,$4
  407920:	55 00 00 00 01 02 02 00 	sll $2,$2,0x1
  407928:	45 00 00 00 00 02 02 13 	subu $2,$19,$2
  407930:	43 00 00 00 30 00 02 02 	addiu $2,$2,48
  407938:	30 00 00 00 00 00 02 11 	sb $2,0($17)
  407940:	43 00 00 00 ff ff 11 11 	addiu $17,$17,-1
  407948:	42 00 00 00 00 13 04 00 	addu $19,$0,$4
  407950:	08 00 00 00 de ff 00 13 	bgtz $19,4078d0 <printf_unknown+0x3d8>
  407958:	43 00 00 00 01 00 11 11 	addiu $17,$17,1
  407960:	5d 00 00 00 00 02 11 16 	sltu $2,$22,$17
  407968:	06 00 00 00 28 00 00 02 	bne $2,$0,407a10 <printf_unknown+0x518>
  407970:	43 00 00 00 ff ff 13 00 	addiu $19,$0,-1
  407978:	28 00 00 00 04 00 03 10 	lw $3,4($16)
  407980:	28 00 00 00 0c 00 02 10 	lw $2,12($16)
  407988:	20 00 00 00 00 00 05 11 	lb $5,0($17)
  407990:	5d 00 00 00 00 02 02 03 	sltu $2,$3,$2
  407998:	05 00 00 00 0c 00 00 02 	beq $2,$0,4079d0 <printf_unknown+0x4d8>
  4079a0:	43 00 00 00 01 00 02 03 	addiu $2,$3,1
  4079a8:	34 00 00 00 04 00 02 10 	sw $2,4($16)
  4079b0:	42 00 00 00 00 02 05 00 	addu $2,$0,$5
  4079b8:	30 00 00 00 00 00 02 03 	sb $2,0($3)
  4079c0:	4f 00 00 00 ff 00 02 02 	andi $2,$2,255
  4079c8:	01 00 00 00 7a 1e 10 00 	j 4079e8 <printf_unknown+0x4f0>
  4079d0:	42 00 00 00 00 04 10 00 	addu $4,$0,$16
  4079d8:	4f 00 00 00 ff 00 05 05 	andi $5,$5,255
  4079e0:	02 00 00 00 84 0f 10 00 	jal 403e10 <__flshfp>
  4079e8:	05 00 00 00 a4 00 13 02 	beq $2,$19,407c80 <printf_unknown+0x788>
  4079f0:	43 00 00 00 01 00 12 12 	addiu $18,$18,1
  4079f8:	43 00 00 00 01 00 11 11 	addiu $17,$17,1
  407a00:	5d 00 00 00 00 02 11 16 	sltu $2,$22,$17
  407a08:	05 00 00 00 da ff 00 02 	beq $2,$0,407978 <printf_unknown+0x480>
  407a10:	28 00 00 00 00 00 02 15 	lw $2,0($21)
  407a18:	43 00 00 00 ff ff 11 00 	addiu $17,$0,-1
  407a20:	05 00 00 00 74 00 11 02 	beq $2,$17,407bf8 <printf_unknown+0x700>
  407a28:	28 00 00 00 04 00 03 10 	lw $3,4($16)
  407a30:	28 00 00 00 0c 00 02 10 	lw $2,12($16)
  407a38:	5d 00 00 00 00 02 02 03 	sltu $2,$3,$2
  407a40:	05 00 00 00 0a 00 00 02 	beq $2,$0,407a70 <printf_unknown+0x578>
  407a48:	43 00 00 00 01 00 02 03 	addiu $2,$3,1
  407a50:	34 00 00 00 04 00 02 10 	sw $2,4($16)
  407a58:	43 00 00 00 2e 00 02 00 	addiu $2,$0,46
  407a60:	30 00 00 00 00 00 02 03 	sb $2,0($3)
  407a68:	01 00 00 00 a4 1e 10 00 	j 407a90 <printf_unknown+0x598>
  407a70:	42 00 00 00 00 04 10 00 	addu $4,$0,$16
  407a78:	43 00 00 00 2e 00 05 00 	addiu $5,$0,46
  407a80:	02 00 00 00 84 0f 10 00 	jal 403e10 <__flshfp>
  407a88:	05 00 00 00 7c 00 11 02 	beq $2,$17,407c80 <printf_unknown+0x788>
  407a90:	43 00 00 00 01 00 12 12 	addiu $18,$18,1
  407a98:	42 00 00 00 00 11 16 00 	addu $17,$0,$22
  407aa0:	07 00 00 00 26 00 00 14 	blez $20,407b40 <printf_unknown+0x648>
  407aa8:	a2 00 00 00 66 66 03 00 	lui $3,26214
  407ab0:	51 00 00 00 67 66 03 03 	ori $3,$3,26215
  407ab8:	46 00 00 00 00 00 03 14 	mult $20,$3
  407ac0:	4a 00 00 00 00 05 00 00 	mfhi $5
  407ac8:	4c 00 00 00 00 04 00 00 	mflo $4
  407ad0:	57 00 00 00 00 04 05 00 	srl $4,$5,0x0
  407ad8:	42 00 00 00 00 05 00 00 	addu $5,$0,$0
  407ae0:	59 00 00 00 02 04 04 00 	sra $4,$4,0x2
  407ae8:	59 00 00 00 1f 02 14 00 	sra $2,$20,0x1f
  407af0:	45 00 00 00 00 04 02 04 	subu $4,$4,$2
  407af8:	55 00 00 00 02 02 04 00 	sll $2,$4,0x2
  407b00:	42 00 00 00 00 02 04 02 	addu $2,$2,$4
  407b08:	55 00 00 00 01 02 02 00 	sll $2,$2,0x1
  407b10:	45 00 00 00 00 02 02 14 	subu $2,$20,$2
  407b18:	43 00 00 00 30 00 02 02 	addiu $2,$2,48
  407b20:	30 00 00 00 00 00 02 11 	sb $2,0($17)
  407b28:	43 00 00 00 ff ff 11 11 	addiu $17,$17,-1
  407b30:	42 00 00 00 00 14 04 00 	addu $20,$0,$4
  407b38:	08 00 00 00 de ff 00 14 	bgtz $20,407ab8 <printf_unknown+0x5c0>
  407b40:	43 00 00 00 01 00 11 11 	addiu $17,$17,1
  407b48:	5d 00 00 00 00 02 11 16 	sltu $2,$22,$17
  407b50:	06 00 00 00 28 00 00 02 	bne $2,$0,407bf8 <printf_unknown+0x700>
  407b58:	43 00 00 00 ff ff 13 00 	addiu $19,$0,-1
  407b60:	28 00 00 00 04 00 03 10 	lw $3,4($16)
  407b68:	28 00 00 00 0c 00 02 10 	lw $2,12($16)
  407b70:	20 00 00 00 00 00 05 11 	lb $5,0($17)
  407b78:	5d 00 00 00 00 02 02 03 	sltu $2,$3,$2
  407b80:	05 00 00 00 0c 00 00 02 	beq $2,$0,407bb8 <printf_unknown+0x6c0>
  407b88:	43 00 00 00 01 00 02 03 	addiu $2,$3,1
  407b90:	34 00 00 00 04 00 02 10 	sw $2,4($16)
  407b98:	42 00 00 00 00 02 05 00 	addu $2,$0,$5
  407ba0:	30 00 00 00 00 00 02 03 	sb $2,0($3)
  407ba8:	4f 00 00 00 ff 00 02 02 	andi $2,$2,255
  407bb0:	01 00 00 00 f4 1e 10 00 	j 407bd0 <printf_unknown+0x6d8>
  407bb8:	42 00 00 00 00 04 10 00 	addu $4,$0,$16
  407bc0:	4f 00 00 00 ff 00 05 05 	andi $5,$5,255
  407bc8:	02 00 00 00 84 0f 10 00 	jal 403e10 <__flshfp>
  407bd0:	05 00 00 00 2a 00 13 02 	beq $2,$19,407c80 <printf_unknown+0x788>
  407bd8:	43 00 00 00 01 00 12 12 	addiu $18,$18,1
  407be0:	43 00 00 00 01 00 11 11 	addiu $17,$17,1
  407be8:	5d 00 00 00 00 02 11 16 	sltu $2,$22,$17
  407bf0:	05 00 00 00 da ff 00 02 	beq $2,$0,407b60 <printf_unknown+0x668>
  407bf8:	28 00 00 00 04 00 04 10 	lw $4,4($16)
  407c00:	28 00 00 00 0c 00 02 10 	lw $2,12($16)
  407c08:	22 00 00 00 08 00 05 15 	lbu $5,8($21)
  407c10:	5d 00 00 00 00 02 02 04 	sltu $2,$4,$2
  407c18:	05 00 00 00 10 00 00 02 	beq $2,$0,407c60 <printf_unknown+0x768>
  407c20:	43 00 00 00 01 00 02 04 	addiu $2,$4,1
  407c28:	42 00 00 00 00 03 05 00 	addu $3,$0,$5
  407c30:	34 00 00 00 04 00 02 10 	sw $2,4($16)
  407c38:	30 00 00 00 00 00 03 04 	sb $3,0($4)
  407c40:	4f 00 00 00 ff 00 03 03 	andi $3,$3,255
  407c48:	43 00 00 00 ff ff 02 00 	addiu $2,$0,-1
  407c50:	05 00 00 00 0a 00 02 03 	beq $3,$2,407c80 <printf_unknown+0x788>
  407c58:	01 00 00 00 24 1f 10 00 	j 407c90 <printf_unknown+0x798>
  407c60:	42 00 00 00 00 04 10 00 	addu $4,$0,$16
  407c68:	02 00 00 00 84 0f 10 00 	jal 403e10 <__flshfp>
  407c70:	43 00 00 00 ff ff 03 00 	addiu $3,$0,-1
  407c78:	06 00 00 00 04 00 03 02 	bne $2,$3,407c90 <printf_unknown+0x798>
  407c80:	43 00 00 00 ff ff 02 00 	addiu $2,$0,-1
  407c88:	01 00 00 00 26 1f 10 00 	j 407c98 <printf_unknown+0x7a0>
  407c90:	43 00 00 00 01 00 02 12 	addiu $2,$18,1
  407c98:	28 00 00 00 2c 04 1f 1d 	lw $31,1068($29)
  407ca0:	28 00 00 00 28 04 16 1d 	lw $22,1064($29)
  407ca8:	28 00 00 00 24 04 15 1d 	lw $21,1060($29)
  407cb0:	28 00 00 00 20 04 14 1d 	lw $20,1056($29)
  407cb8:	28 00 00 00 1c 04 13 1d 	lw $19,1052($29)
  407cc0:	28 00 00 00 18 04 12 1d 	lw $18,1048($29)
  407cc8:	28 00 00 00 14 04 11 1d 	lw $17,1044($29)
  407cd0:	28 00 00 00 10 04 10 1d 	lw $16,1040($29)
  407cd8:	43 00 00 00 30 04 1d 1d 	addiu $29,$29,1072
  407ce0:	03 00 00 00 00 00 00 1f 	jr $31
	...
  407cf0:	01 00 00 00 dc 2d 10 00 	j 40b770 <syscall_error>
	...

00407d00 <__unlink>:
  407d00:	43 00 00 00 0a 00 02 00 	addiu $2,$0,10
  407d08:	a0 00 00 00 00 00 00 00 	syscall 
  407d10:	06 00 00 00 f6 ff 00 07 	bne $7,$0,407cf0 <printf_unknown+0x7f8>
	...
  407d20:	03 00 00 00 00 00 00 1f 	jr $31
	...

00407d30 <__stdio_read>:
  407d30:	43 00 00 00 e8 ff 1d 1d 	addiu $29,$29,-24
  407d38:	34 00 00 00 10 00 1f 1d 	sw $31,16($29)
  407d40:	02 00 00 00 f8 46 10 00 	jal 411be0 <__read>
  407d48:	28 00 00 00 10 00 1f 1d 	lw $31,16($29)
  407d50:	43 00 00 00 18 00 1d 1d 	addiu $29,$29,24
  407d58:	03 00 00 00 00 00 00 1f 	jr $31

00407d60 <__stdio_write>:
  407d60:	43 00 00 00 d8 ff 1d 1d 	addiu $29,$29,-40
  407d68:	34 00 00 00 14 00 11 1d 	sw $17,20($29)
  407d70:	42 00 00 00 00 11 05 00 	addu $17,$0,$5
  407d78:	34 00 00 00 10 00 10 1d 	sw $16,16($29)
  407d80:	42 00 00 00 00 10 06 00 	addu $16,$0,$6
  407d88:	34 00 00 00 18 00 12 1d 	sw $18,24($29)
  407d90:	42 00 00 00 00 12 00 00 	addu $18,$0,$0
  407d98:	34 00 00 00 1c 00 13 1d 	sw $19,28($29)
  407da0:	42 00 00 00 00 13 04 00 	addu $19,$0,$4
  407da8:	34 00 00 00 20 00 1f 1d 	sw $31,32($29)
  407db0:	05 00 00 00 18 00 00 10 	beq $16,$0,407e18 <__stdio_write+0xb8>
  407db8:	42 00 00 00 00 04 13 00 	addu $4,$0,$19
  407dc0:	42 00 00 00 00 05 11 00 	addu $5,$0,$17
  407dc8:	42 00 00 00 00 06 10 00 	addu $6,$0,$16
  407dd0:	02 00 00 00 08 47 10 00 	jal 411c20 <__write>
  407dd8:	08 00 00 00 06 00 00 02 	bgtz $2,407df8 <__stdio_write+0x98>
  407de0:	0a 00 00 00 0a 00 00 02 	bgez $2,407e10 <__stdio_write+0xb0>
  407de8:	43 00 00 00 ff ff 02 00 	addiu $2,$0,-1
  407df0:	01 00 00 00 88 1f 10 00 	j 407e20 <__stdio_write+0xc0>
  407df8:	42 00 00 00 00 11 02 11 	addu $17,$17,$2
  407e00:	42 00 00 00 00 12 02 12 	addu $18,$18,$2
  407e08:	45 00 00 00 00 10 02 10 	subu $16,$16,$2
  407e10:	06 00 00 00 e8 ff 00 10 	bne $16,$0,407db8 <__stdio_write+0x58>
  407e18:	42 00 00 00 00 02 12 00 	addu $2,$0,$18
  407e20:	28 00 00 00 20 00 1f 1d 	lw $31,32($29)
  407e28:	28 00 00 00 1c 00 13 1d 	lw $19,28($29)
  407e30:	28 00 00 00 18 00 12 1d 	lw $18,24($29)
  407e38:	28 00 00 00 14 00 11 1d 	lw $17,20($29)
  407e40:	28 00 00 00 10 00 10 1d 	lw $16,16($29)
  407e48:	43 00 00 00 28 00 1d 1d 	addiu $29,$29,40
  407e50:	03 00 00 00 00 00 00 1f 	jr $31

00407e58 <__stdio_seek>:
  407e58:	43 00 00 00 e8 ff 1d 1d 	addiu $29,$29,-24
  407e60:	34 00 00 00 10 00 10 1d 	sw $16,16($29)
  407e68:	42 00 00 00 00 10 05 00 	addu $16,$0,$5
  407e70:	34 00 00 00 14 00 1f 1d 	sw $31,20($29)
  407e78:	28 00 00 00 00 00 05 10 	lw $5,0($16)
  407e80:	02 00 00 00 18 47 10 00 	jal 411c60 <__lseek>
  407e88:	09 00 00 00 06 00 00 02 	bltz $2,407ea8 <__stdio_seek+0x50>
  407e90:	34 00 00 00 00 00 02 10 	sw $2,0($16)
  407e98:	42 00 00 00 00 02 00 00 	addu $2,$0,$0
  407ea0:	01 00 00 00 ac 1f 10 00 	j 407eb0 <__stdio_seek+0x58>
  407ea8:	43 00 00 00 01 00 02 00 	addiu $2,$0,1
  407eb0:	28 00 00 00 14 00 1f 1d 	lw $31,20($29)
  407eb8:	28 00 00 00 10 00 10 1d 	lw $16,16($29)
  407ec0:	43 00 00 00 18 00 1d 1d 	addiu $29,$29,24
  407ec8:	03 00 00 00 00 00 00 1f 	jr $31

00407ed0 <__stdio_close>:
  407ed0:	43 00 00 00 e8 ff 1d 1d 	addiu $29,$29,-24
  407ed8:	34 00 00 00 10 00 1f 1d 	sw $31,16($29)
  407ee0:	02 00 00 00 28 47 10 00 	jal 411ca0 <__close>
  407ee8:	28 00 00 00 10 00 1f 1d 	lw $31,16($29)
  407ef0:	43 00 00 00 18 00 1d 1d 	addiu $29,$29,24
  407ef8:	03 00 00 00 00 00 00 1f 	jr $31

00407f00 <__stdio_fileno>:
  407f00:	42 00 00 00 00 02 04 00 	addu $2,$0,$4
  407f08:	03 00 00 00 00 00 00 1f 	jr $31

00407f10 <__stdio_open>:
  407f10:	43 00 00 00 e8 ff 1d 1d 	addiu $29,$29,-24
  407f18:	42 00 00 00 00 07 05 00 	addu $7,$0,$5
  407f20:	34 00 00 00 10 00 10 1d 	sw $16,16($29)
  407f28:	42 00 00 00 00 10 06 00 	addu $16,$0,$6
  407f30:	4f 00 00 00 03 00 03 07 	andi $3,$7,3
  407f38:	43 00 00 00 03 00 02 00 	addiu $2,$0,3
  407f40:	34 00 00 00 14 00 1f 1d 	sw $31,20($29)
  407f48:	06 00 00 00 04 00 02 03 	bne $3,$2,407f60 <__stdio_open+0x50>
  407f50:	43 00 00 00 02 00 05 00 	addiu $5,$0,2
  407f58:	01 00 00 00 dc 1f 10 00 	j 407f70 <__stdio_open+0x60>
  407f60:	53 00 00 00 01 00 05 07 	xori $5,$7,1
  407f68:	4f 00 00 00 01 00 05 05 	andi $5,$5,1
  407f70:	4f 00 00 00 04 00 02 07 	andi $2,$7,4
  407f78:	05 00 00 00 02 00 00 02 	beq $2,$0,407f88 <__stdio_open+0x78>
  407f80:	51 00 00 00 08 00 05 05 	ori $5,$5,8
  407f88:	4f 00 00 00 20 00 02 07 	andi $2,$7,32
  407f90:	05 00 00 00 02 00 00 02 	beq $2,$0,407fa0 <__stdio_open+0x90>
  407f98:	51 00 00 00 00 08 05 05 	ori $5,$5,2048
  407fa0:	4f 00 00 00 40 00 02 07 	andi $2,$7,64
  407fa8:	05 00 00 00 02 00 00 02 	beq $2,$0,407fb8 <__stdio_open+0xa8>
  407fb0:	51 00 00 00 00 04 05 05 	ori $5,$5,1024
  407fb8:	4f 00 00 00 10 00 02 07 	andi $2,$7,16
  407fc0:	05 00 00 00 08 00 00 02 	beq $2,$0,407fe8 <__stdio_open+0xd8>
  407fc8:	51 00 00 00 00 02 05 05 	ori $5,$5,512
  407fd0:	43 00 00 00 b6 01 06 00 	addiu $6,$0,438
  407fd8:	02 00 00 00 38 47 10 00 	jal 411ce0 <__open>
  407fe0:	01 00 00 00 fc 1f 10 00 	j 407ff0 <__stdio_open+0xe0>
  407fe8:	02 00 00 00 38 47 10 00 	jal 411ce0 <__open>
  407ff0:	09 00 00 00 06 00 00 02 	bltz $2,408010 <__stdio_open+0x100>
  407ff8:	34 00 00 00 00 00 02 10 	sw $2,0($16)
  408000:	42 00 00 00 00 02 00 00 	addu $2,$0,$0
  408008:	01 00 00 00 06 20 10 00 	j 408018 <__stdio_open+0x108>
  408010:	43 00 00 00 ff ff 02 00 	addiu $2,$0,-1
  408018:	28 00 00 00 14 00 1f 1d 	lw $31,20($29)
  408020:	28 00 00 00 10 00 10 1d 	lw $16,16($29)
  408028:	43 00 00 00 18 00 1d 1d 	addiu $29,$29,24
  408030:	03 00 00 00 00 00 00 1f 	jr $31

00408038 <__stdio_reopen>:
  408038:	43 00 00 00 d0 ff 1d 1d 	addiu $29,$29,-48
  408040:	34 00 00 00 1c 00 11 1d 	sw $17,28($29)
  408048:	42 00 00 00 00 11 04 00 	addu $17,$0,$4
  408050:	34 00 00 00 18 00 10 1d 	sw $16,24($29)
  408058:	42 00 00 00 00 10 05 00 	addu $16,$0,$5
  408060:	34 00 00 00 20 00 12 1d 	sw $18,32($29)
  408068:	42 00 00 00 00 12 06 00 	addu $18,$0,$6
  408070:	34 00 00 00 28 00 14 1d 	sw $20,40($29)
  408078:	42 00 00 00 00 14 07 00 	addu $20,$0,$7
  408080:	34 00 00 00 24 00 13 1d 	sw $19,36($29)
  408088:	43 00 00 00 10 00 13 1d 	addiu $19,$29,16
  408090:	4f 00 00 00 03 00 03 10 	andi $3,$16,3
  408098:	43 00 00 00 03 00 02 00 	addiu $2,$0,3
  4080a0:	34 00 00 00 2c 00 1f 1d 	sw $31,44($29)
  4080a8:	06 00 00 00 04 00 02 03 	bne $3,$2,4080c0 <__stdio_reopen+0x88>
  4080b0:	43 00 00 00 02 00 05 00 	addiu $5,$0,2
  4080b8:	01 00 00 00 34 20 10 00 	j 4080d0 <__stdio_reopen+0x98>
  4080c0:	53 00 00 00 01 00 05 10 	xori $5,$16,1
  4080c8:	4f 00 00 00 01 00 05 05 	andi $5,$5,1
  4080d0:	4f 00 00 00 04 00 02 10 	andi $2,$16,4
  4080d8:	05 00 00 00 02 00 00 02 	beq $2,$0,4080e8 <__stdio_reopen+0xb0>
  4080e0:	51 00 00 00 08 00 05 05 	ori $5,$5,8
  4080e8:	4f 00 00 00 20 00 02 10 	andi $2,$16,32
  4080f0:	05 00 00 00 02 00 00 02 	beq $2,$0,408100 <__stdio_reopen+0xc8>
  4080f8:	51 00 00 00 00 08 05 05 	ori $5,$5,2048
  408100:	4f 00 00 00 40 00 02 10 	andi $2,$16,64
  408108:	05 00 00 00 02 00 00 02 	beq $2,$0,408118 <__stdio_reopen+0xe0>
  408110:	51 00 00 00 00 04 05 05 	ori $5,$5,1024
  408118:	4f 00 00 00 10 00 02 10 	andi $2,$16,16
  408120:	05 00 00 00 0a 00 00 02 	beq $2,$0,408150 <__stdio_reopen+0x118>
  408128:	42 00 00 00 00 04 11 00 	addu $4,$0,$17
  408130:	51 00 00 00 00 02 05 05 	ori $5,$5,512
  408138:	43 00 00 00 b6 01 06 00 	addiu $6,$0,438
  408140:	02 00 00 00 38 47 10 00 	jal 411ce0 <__open>
  408148:	01 00 00 00 58 20 10 00 	j 408160 <__stdio_reopen+0x128>
  408150:	42 00 00 00 00 04 11 00 	addu $4,$0,$17
  408158:	02 00 00 00 38 47 10 00 	jal 411ce0 <__open>
  408160:	0a 00 00 00 04 00 00 02 	bgez $2,408178 <__stdio_reopen+0x140>
  408168:	43 00 00 00 ff ff 02 00 	addiu $2,$0,-1
  408170:	01 00 00 00 62 20 10 00 	j 408188 <__stdio_reopen+0x150>
  408178:	34 00 00 00 00 00 02 13 	sw $2,0($19)
  408180:	42 00 00 00 00 02 00 00 	addu $2,$0,$0
  408188:	05 00 00 00 50 00 00 02 	beq $2,$0,4082d0 <__stdio_reopen+0x298>
  408190:	28 00 00 00 60 84 02 1c 	lw $2,-31648($28)
  408198:	43 00 00 00 e9 ff 02 02 	addiu $2,$2,-23
  4081a0:	5e 00 00 00 02 00 02 02 	sltiu $2,$2,2
  4081a8:	05 00 00 00 48 00 00 02 	beq $2,$0,4082d0 <__stdio_reopen+0x298>
  4081b0:	28 00 00 00 00 00 04 12 	lw $4,0($18)
  4081b8:	04 00 00 00 00 1f 00 14 	jalr $31,$20
  4081c0:	43 00 00 00 10 00 13 1d 	addiu $19,$29,16
  4081c8:	4f 00 00 00 03 00 03 10 	andi $3,$16,3
  4081d0:	43 00 00 00 03 00 02 00 	addiu $2,$0,3
  4081d8:	06 00 00 00 04 00 02 03 	bne $3,$2,4081f0 <__stdio_reopen+0x1b8>
  4081e0:	43 00 00 00 02 00 05 00 	addiu $5,$0,2
  4081e8:	01 00 00 00 80 20 10 00 	j 408200 <__stdio_reopen+0x1c8>
  4081f0:	53 00 00 00 01 00 05 10 	xori $5,$16,1
  4081f8:	4f 00 00 00 01 00 05 05 	andi $5,$5,1
  408200:	4f 00 00 00 04 00 02 10 	andi $2,$16,4
  408208:	05 00 00 00 02 00 00 02 	beq $2,$0,408218 <__stdio_reopen+0x1e0>
  408210:	51 00 00 00 08 00 05 05 	ori $5,$5,8
  408218:	4f 00 00 00 20 00 02 10 	andi $2,$16,32
  408220:	05 00 00 00 02 00 00 02 	beq $2,$0,408230 <__stdio_reopen+0x1f8>
  408228:	51 00 00 00 00 08 05 05 	ori $5,$5,2048
  408230:	4f 00 00 00 40 00 02 10 	andi $2,$16,64
  408238:	05 00 00 00 02 00 00 02 	beq $2,$0,408248 <__stdio_reopen+0x210>
  408240:	51 00 00 00 00 04 05 05 	ori $5,$5,1024
  408248:	4f 00 00 00 10 00 02 10 	andi $2,$16,16
  408250:	05 00 00 00 0a 00 00 02 	beq $2,$0,408280 <__stdio_reopen+0x248>
  408258:	42 00 00 00 00 04 11 00 	addu $4,$0,$17
  408260:	51 00 00 00 00 02 05 05 	ori $5,$5,512
  408268:	43 00 00 00 b6 01 06 00 	addiu $6,$0,438
  408270:	02 00 00 00 38 47 10 00 	jal 411ce0 <__open>
  408278:	01 00 00 00 a4 20 10 00 	j 408290 <__stdio_reopen+0x258>
  408280:	42 00 00 00 00 04 11 00 	addu $4,$0,$17
  408288:	02 00 00 00 38 47 10 00 	jal 411ce0 <__open>
  408290:	0a 00 00 00 04 00 00 02 	bgez $2,4082a8 <__stdio_reopen+0x270>
  408298:	43 00 00 00 ff ff 02 00 	addiu $2,$0,-1
  4082a0:	01 00 00 00 ae 20 10 00 	j 4082b8 <__stdio_reopen+0x280>
  4082a8:	34 00 00 00 00 00 02 13 	sw $2,0($19)
  4082b0:	42 00 00 00 00 02 00 00 	addu $2,$0,$0
  4082b8:	05 00 00 00 04 00 00 02 	beq $2,$0,4082d0 <__stdio_reopen+0x298>
  4082c0:	43 00 00 00 ff ff 02 00 	addiu $2,$0,-1
  4082c8:	01 00 00 00 ca 20 10 00 	j 408328 <__stdio_reopen+0x2f0>
  4082d0:	28 00 00 00 10 00 04 1d 	lw $4,16($29)
  4082d8:	28 00 00 00 00 00 05 12 	lw $5,0($18)
  4082e0:	05 00 00 00 0e 00 05 04 	beq $4,$5,408320 <__stdio_reopen+0x2e8>
  4082e8:	a2 00 00 00 40 00 02 00 	lui $2,64
  4082f0:	43 00 00 00 d0 7e 02 02 	addiu $2,$2,32464
  4082f8:	06 00 00 00 04 00 02 14 	bne $20,$2,408310 <__stdio_reopen+0x2d8>
  408300:	02 00 00 00 48 47 10 00 	jal 411d20 <__dup2>
  408308:	0a 00 00 00 04 00 00 02 	bgez $2,408320 <__stdio_reopen+0x2e8>
  408310:	28 00 00 00 10 00 02 1d 	lw $2,16($29)
  408318:	34 00 00 00 00 00 02 12 	sw $2,0($18)
  408320:	42 00 00 00 00 02 00 00 	addu $2,$0,$0
  408328:	28 00 00 00 2c 00 1f 1d 	lw $31,44($29)
  408330:	28 00 00 00 28 00 14 1d 	lw $20,40($29)
  408338:	28 00 00 00 24 00 13 1d 	lw $19,36($29)
  408340:	28 00 00 00 20 00 12 1d 	lw $18,32($29)
  408348:	28 00 00 00 1c 00 11 1d 	lw $17,28($29)
  408350:	28 00 00 00 18 00 10 1d 	lw $16,24($29)
  408358:	43 00 00 00 30 00 1d 1d 	addiu $29,$29,48
  408360:	03 00 00 00 00 00 00 1f 	jr $31
	...

00408370 <__stdio_init_stream>:
  408370:	43 00 00 00 a0 ff 1d 1d 	addiu $29,$29,-96
  408378:	34 00 00 00 50 00 10 1d 	sw $16,80($29)
  408380:	42 00 00 00 00 10 04 00 	addu $16,$0,$4
  408388:	34 00 00 00 58 00 1f 1d 	sw $31,88($29)
  408390:	34 00 00 00 54 00 11 1d 	sw $17,84($29)
  408398:	28 00 00 00 10 00 02 10 	lw $2,16($16)
  4083a0:	28 00 00 00 18 00 11 10 	lw $17,24($16)
  4083a8:	06 00 00 00 34 00 00 02 	bne $2,$0,408480 <__stdio_init_stream+0x110>
  4083b0:	28 00 00 00 4c 00 02 10 	lw $2,76($16)
  4083b8:	4f 00 00 00 00 08 02 02 	andi $2,$2,2048
  4083c0:	06 00 00 00 2e 00 00 02 	bne $2,$0,408480 <__stdio_init_stream+0x110>
  4083c8:	42 00 00 00 00 04 11 00 	addu $4,$0,$17
  4083d0:	43 00 00 00 10 00 05 1d 	addiu $5,$29,16
  4083d8:	02 00 00 00 58 47 10 00 	jal 411d60 <__fstat>
  4083e0:	09 00 00 00 26 00 00 02 	bltz $2,408480 <__stdio_init_stream+0x110>
  4083e8:	26 00 00 00 18 00 02 1d 	lhu $2,24($29)
  4083f0:	4f 00 00 00 00 f0 03 02 	andi $3,$2,61440
  4083f8:	43 00 00 00 00 10 02 00 	addiu $2,$0,4096
  408400:	06 00 00 00 08 00 02 03 	bne $3,$2,408428 <__stdio_init_stream+0xb8>
  408408:	28 00 00 00 4c 00 02 10 	lw $2,76($16)
  408410:	51 00 00 00 00 08 02 02 	ori $2,$2,2048
  408418:	34 00 00 00 4c 00 02 10 	sw $2,76($16)
  408420:	01 00 00 00 20 21 10 00 	j 408480 <__stdio_init_stream+0x110>
  408428:	43 00 00 00 00 20 02 00 	addiu $2,$0,8192
  408430:	06 00 00 00 0e 00 02 03 	bne $3,$2,408470 <__stdio_init_stream+0x100>
  408438:	42 00 00 00 00 04 11 00 	addu $4,$0,$17
  408440:	02 00 00 00 64 47 10 00 	jal 411d90 <__isatty>
  408448:	05 00 00 00 08 00 00 02 	beq $2,$0,408470 <__stdio_init_stream+0x100>
  408450:	28 00 00 00 4c 00 02 10 	lw $2,76($16)
  408458:	34 00 00 00 28 00 00 10 	sw $0,40($16)
  408460:	51 00 00 00 00 10 02 02 	ori $2,$2,4096
  408468:	34 00 00 00 4c 00 02 10 	sw $2,76($16)
  408470:	28 00 00 00 40 00 02 1d 	lw $2,64($29)
  408478:	34 00 00 00 14 00 02 10 	sw $2,20($16)
  408480:	28 00 00 00 58 00 1f 1d 	lw $31,88($29)
  408488:	28 00 00 00 54 00 11 1d 	lw $17,84($29)
  408490:	28 00 00 00 50 00 10 1d 	lw $16,80($29)
  408498:	43 00 00 00 60 00 1d 1d 	addiu $29,$29,96
  4084a0:	03 00 00 00 00 00 00 1f 	jr $31
	...

004084b0 <initialize>:
  4084b0:	43 00 00 00 e8 ff 1d 1d 	addiu $29,$29,-24
  4084b8:	28 00 00 00 f0 80 03 1c 	lw $3,-32528($28)
  4084c0:	43 00 00 00 00 30 04 00 	addiu $4,$0,12288
  4084c8:	43 00 00 00 00 04 02 00 	addiu $2,$0,1024
  4084d0:	34 00 00 00 14 00 1f 1d 	sw $31,20($29)
  4084d8:	34 00 00 00 10 00 10 1d 	sw $16,16($29)
  4084e0:	34 00 00 00 50 84 02 1c 	sw $2,-31664($28)
  4084e8:	04 00 00 00 00 1f 00 03 	jalr $31,$3
  4084f0:	42 00 00 00 00 10 02 00 	addu $16,$0,$2
  4084f8:	4f 00 00 00 ff 0f 02 10 	andi $2,$16,4095
  408500:	05 00 00 00 0a 00 00 02 	beq $2,$0,408530 <initialize+0x80>
  408508:	43 00 00 00 00 10 04 00 	addiu $4,$0,4096
  408510:	45 00 00 00 00 04 02 04 	subu $4,$4,$2
  408518:	28 00 00 00 f0 80 02 1c 	lw $2,-32528($28)
  408520:	42 00 00 00 00 10 04 10 	addu $16,$16,$4
  408528:	04 00 00 00 00 1f 00 02 	jalr $31,$2
  408530:	28 00 00 00 c4 84 02 1c 	lw $2,-31548($28)
  408538:	05 00 00 00 02 00 00 02 	beq $2,$0,408548 <initialize+0x98>
  408540:	04 00 00 00 00 1f 00 02 	jalr $31,$2
  408548:	34 00 00 00 c8 84 10 1c 	sw $16,-31544($28)
  408550:	05 00 00 00 2e 00 00 10 	beq $16,$0,408610 <initialize+0x160>
  408558:	28 00 00 00 50 84 02 1c 	lw $2,-31664($28)
  408560:	42 00 00 00 00 04 10 00 	addu $4,$0,$16
  408568:	42 00 00 00 00 05 00 00 	addu $5,$0,$0
  408570:	55 00 00 00 01 06 02 00 	sll $6,$2,0x1
  408578:	42 00 00 00 00 06 02 06 	addu $6,$6,$2
  408580:	55 00 00 00 02 06 06 00 	sll $6,$6,0x2
  408588:	02 00 00 00 f8 24 10 00 	jal 4093e0 <memset>
  408590:	28 00 00 00 c8 84 04 1c 	lw $4,-31544($28)
  408598:	28 00 00 00 50 84 05 1c 	lw $5,-31664($28)
  4085a0:	43 00 00 00 01 00 02 00 	addiu $2,$0,1
  4085a8:	43 00 00 00 01 00 03 00 	addiu $3,$0,1
  4085b0:	34 00 00 00 bc 84 00 1c 	sw $0,-31556($28)
  4085b8:	34 00 00 00 d8 84 03 1c 	sw $3,-31528($28)
  4085c0:	34 00 00 00 cc 84 03 1c 	sw $3,-31540($28)
  4085c8:	55 00 00 00 01 03 05 00 	sll $3,$5,0x1
  4085d0:	42 00 00 00 00 03 05 03 	addu $3,$3,$5
  4085d8:	55 00 00 00 02 03 03 00 	sll $3,$3,0x2
  4085e0:	34 00 00 00 00 00 00 04 	sw $0,0($4)
  4085e8:	34 00 00 00 08 00 00 04 	sw $0,8($4)
  4085f0:	34 00 00 00 04 00 00 04 	sw $0,4($4)
  4085f8:	34 00 00 00 d4 84 04 1c 	sw $4,-31532($28)
  408600:	34 00 00 00 b0 84 03 1c 	sw $3,-31568($28)
  408608:	01 00 00 00 86 21 10 00 	j 408618 <initialize+0x168>
  408610:	42 00 00 00 00 02 00 00 	addu $2,$0,$0
  408618:	28 00 00 00 14 00 1f 1d 	lw $31,20($29)
  408620:	28 00 00 00 10 00 10 1d 	lw $16,16($29)
  408628:	43 00 00 00 18 00 1d 1d 	addiu $29,$29,24
  408630:	03 00 00 00 00 00 00 1f 	jr $31

00408638 <morecore>:
  408638:	28 00 00 00 f0 80 02 1c 	lw $2,-32528($28)
  408640:	43 00 00 00 d8 ff 1d 1d 	addiu $29,$29,-40
  408648:	34 00 00 00 1c 00 13 1d 	sw $19,28($29)
  408650:	42 00 00 00 00 13 04 00 	addu $19,$0,$4
  408658:	34 00 00 00 24 00 1f 1d 	sw $31,36($29)
  408660:	34 00 00 00 20 00 14 1d 	sw $20,32($29)
  408668:	34 00 00 00 18 00 12 1d 	sw $18,24($29)
  408670:	34 00 00 00 14 00 11 1d 	sw $17,20($29)
  408678:	34 00 00 00 10 00 10 1d 	sw $16,16($29)
  408680:	04 00 00 00 00 1f 00 02 	jalr $31,$2
  408688:	42 00 00 00 00 10 02 00 	addu $16,$0,$2
  408690:	4f 00 00 00 ff 0f 02 10 	andi $2,$16,4095
  408698:	05 00 00 00 0a 00 00 02 	beq $2,$0,4086c8 <morecore+0x90>
  4086a0:	43 00 00 00 00 10 04 00 	addiu $4,$0,4096
  4086a8:	45 00 00 00 00 04 02 04 	subu $4,$4,$2
  4086b0:	28 00 00 00 f0 80 02 1c 	lw $2,-32528($28)
  4086b8:	42 00 00 00 00 10 04 10 	addu $16,$16,$4
  4086c0:	04 00 00 00 00 1f 00 02 	jalr $31,$2
  4086c8:	28 00 00 00 c4 84 02 1c 	lw $2,-31548($28)
  4086d0:	05 00 00 00 02 00 00 02 	beq $2,$0,4086e0 <morecore+0xa8>
  4086d8:	04 00 00 00 00 1f 00 02 	jalr $31,$2
  4086e0:	42 00 00 00 00 12 10 00 	addu $18,$0,$16
  4086e8:	06 00 00 00 04 00 00 12 	bne $18,$0,408700 <morecore+0xc8>
  4086f0:	42 00 00 00 00 02 00 00 	addu $2,$0,$0
  4086f8:	01 00 00 00 86 22 10 00 	j 408a18 <morecore+0x3e0>
  408700:	28 00 00 00 d4 84 05 1c 	lw $5,-31532($28)
  408708:	42 00 00 00 00 04 13 12 	addu $4,$18,$19
  408710:	45 00 00 00 00 02 05 04 	subu $2,$4,$5
  408718:	0a 00 00 00 02 00 00 02 	bgez $2,408728 <morecore+0xf0>
  408720:	43 00 00 00 ff 0f 02 02 	addiu $2,$2,4095
  408728:	28 00 00 00 50 84 03 1c 	lw $3,-31664($28)
  408730:	59 00 00 00 0c 02 02 00 	sra $2,$2,0xc
  408738:	43 00 00 00 01 00 02 02 	addiu $2,$2,1
  408740:	5d 00 00 00 00 02 02 03 	sltu $2,$3,$2
  408748:	05 00 00 00 a0 00 00 02 	beq $2,$0,4089d0 <morecore+0x398>
  408750:	42 00 00 00 00 11 03 00 	addu $17,$0,$3
  408758:	42 00 00 00 00 03 05 00 	addu $3,$0,$5
  408760:	45 00 00 00 00 02 03 04 	subu $2,$4,$3
  408768:	0a 00 00 00 02 00 00 02 	bgez $2,408778 <morecore+0x140>
  408770:	43 00 00 00 ff 0f 02 02 	addiu $2,$2,4095
  408778:	59 00 00 00 0c 02 02 00 	sra $2,$2,0xc
  408780:	43 00 00 00 01 00 02 02 	addiu $2,$2,1
  408788:	5d 00 00 00 00 02 02 11 	sltu $2,$17,$2
  408790:	05 00 00 00 04 00 00 02 	beq $2,$0,4087a8 <morecore+0x170>
  408798:	55 00 00 00 01 11 11 00 	sll $17,$17,0x1
  4087a0:	01 00 00 00 d8 21 10 00 	j 408760 <morecore+0x128>
  4087a8:	55 00 00 00 01 02 11 00 	sll $2,$17,0x1
  4087b0:	42 00 00 00 00 02 11 02 	addu $2,$2,$17
  4087b8:	28 00 00 00 f0 80 03 1c 	lw $3,-32528($28)
  4087c0:	55 00 00 00 02 14 02 00 	sll $20,$2,0x2
  4087c8:	42 00 00 00 00 04 14 00 	addu $4,$0,$20
  4087d0:	04 00 00 00 00 1f 00 03 	jalr $31,$3
  4087d8:	42 00 00 00 00 10 02 00 	addu $16,$0,$2
  4087e0:	4f 00 00 00 ff 0f 02 10 	andi $2,$16,4095
  4087e8:	05 00 00 00 0a 00 00 02 	beq $2,$0,408818 <morecore+0x1e0>
  4087f0:	43 00 00 00 00 10 04 00 	addiu $4,$0,4096
  4087f8:	45 00 00 00 00 04 02 04 	subu $4,$4,$2
  408800:	28 00 00 00 f0 80 02 1c 	lw $2,-32528($28)
  408808:	42 00 00 00 00 10 04 10 	addu $16,$16,$4
  408810:	04 00 00 00 00 1f 00 02 	jalr $31,$2
  408818:	28 00 00 00 c4 84 02 1c 	lw $2,-31548($28)
  408820:	05 00 00 00 02 00 00 02 	beq $2,$0,408830 <morecore+0x1f8>
  408828:	04 00 00 00 00 1f 00 02 	jalr $31,$2
  408830:	06 00 00 00 0a 00 00 10 	bne $16,$0,408860 <morecore+0x228>
  408838:	28 00 00 00 f0 80 02 1c 	lw $2,-32528($28)
  408840:	45 00 00 00 00 04 13 00 	subu $4,$0,$19
  408848:	04 00 00 00 00 1f 00 02 	jalr $31,$2
  408850:	42 00 00 00 00 02 00 00 	addu $2,$0,$0
  408858:	01 00 00 00 86 22 10 00 	j 408a18 <morecore+0x3e0>
  408860:	28 00 00 00 50 84 02 1c 	lw $2,-31664($28)
  408868:	42 00 00 00 00 04 10 00 	addu $4,$0,$16
  408870:	28 00 00 00 c8 84 05 1c 	lw $5,-31544($28)
  408878:	55 00 00 00 01 06 02 00 	sll $6,$2,0x1
  408880:	42 00 00 00 00 06 02 06 	addu $6,$6,$2
  408888:	55 00 00 00 02 06 06 00 	sll $6,$6,0x2
  408890:	02 00 00 00 94 47 10 00 	jal 411e50 <memcpy>
  408898:	28 00 00 00 50 84 02 1c 	lw $2,-31664($28)
  4088a0:	42 00 00 00 00 05 00 00 	addu $5,$0,$0
  4088a8:	55 00 00 00 01 04 02 00 	sll $4,$2,0x1
  4088b0:	42 00 00 00 00 04 02 04 	addu $4,$4,$2
  4088b8:	55 00 00 00 02 04 04 00 	sll $4,$4,0x2
  4088c0:	42 00 00 00 00 04 04 10 	addu $4,$16,$4
  4088c8:	45 00 00 00 00 02 02 11 	subu $2,$17,$2
  4088d0:	55 00 00 00 01 06 02 00 	sll $6,$2,0x1
  4088d8:	42 00 00 00 00 06 02 06 	addu $6,$6,$2
  4088e0:	55 00 00 00 02 06 06 00 	sll $6,$6,0x2
  4088e8:	02 00 00 00 f8 24 10 00 	jal 4093e0 <memset>
  4088f0:	28 00 00 00 c8 84 04 1c 	lw $4,-31544($28)
  4088f8:	28 00 00 00 d4 84 02 1c 	lw $2,-31532($28)
  408900:	45 00 00 00 00 05 02 04 	subu $5,$4,$2
  408908:	42 00 00 00 00 03 05 00 	addu $3,$0,$5
  408910:	0a 00 00 00 02 00 00 05 	bgez $5,408920 <morecore+0x2e8>
  408918:	43 00 00 00 ff 0f 03 05 	addiu $3,$5,4095
  408920:	59 00 00 00 0c 03 03 00 	sra $3,$3,0xc
  408928:	55 00 00 00 01 02 03 00 	sll $2,$3,0x1
  408930:	42 00 00 00 00 02 03 02 	addu $2,$2,$3
  408938:	55 00 00 00 02 02 02 00 	sll $2,$2,0x2
  408940:	42 00 00 00 00 06 10 02 	addu $6,$2,$16
  408948:	34 00 00 00 0c 00 00 06 	sw $0,12($6)
  408950:	28 00 00 00 50 84 03 1c 	lw $3,-31664($28)
  408958:	28 00 00 00 d8 84 05 1c 	lw $5,-31528($28)
  408960:	34 00 00 00 c8 84 10 1c 	sw $16,-31544($28)
  408968:	55 00 00 00 01 02 03 00 	sll $2,$3,0x1
  408970:	42 00 00 00 00 02 03 02 	addu $2,$2,$3
  408978:	55 00 00 00 02 02 02 00 	sll $2,$2,0x2
  408980:	28 00 00 00 b0 84 03 1c 	lw $3,-31568($28)
  408988:	43 00 00 00 ff 0f 02 02 	addiu $2,$2,4095
  408990:	57 00 00 00 0c 02 02 00 	srl $2,$2,0xc
  408998:	43 00 00 00 01 00 05 05 	addiu $5,$5,1
  4089a0:	34 00 00 00 10 00 02 06 	sw $2,16($6)
  4089a8:	34 00 00 00 d8 84 05 1c 	sw $5,-31528($28)
  4089b0:	42 00 00 00 00 03 03 14 	addu $3,$20,$3
  4089b8:	34 00 00 00 b0 84 03 1c 	sw $3,-31568($28)
  4089c0:	02 00 00 00 e4 2d 10 00 	jal 40b790 <_free_internal>
  4089c8:	34 00 00 00 50 84 11 1c 	sw $17,-31664($28)
  4089d0:	28 00 00 00 d4 84 03 1c 	lw $3,-31532($28)
  4089d8:	42 00 00 00 00 02 13 12 	addu $2,$18,$19
  4089e0:	45 00 00 00 00 02 03 02 	subu $2,$2,$3
  4089e8:	0a 00 00 00 02 00 00 02 	bgez $2,4089f8 <morecore+0x3c0>
  4089f0:	43 00 00 00 ff 0f 02 02 	addiu $2,$2,4095
  4089f8:	59 00 00 00 0c 02 02 00 	sra $2,$2,0xc
  408a00:	43 00 00 00 01 00 02 02 	addiu $2,$2,1
  408a08:	34 00 00 00 c0 84 02 1c 	sw $2,-31552($28)
  408a10:	42 00 00 00 00 02 12 00 	addu $2,$0,$18
  408a18:	28 00 00 00 24 00 1f 1d 	lw $31,36($29)
  408a20:	28 00 00 00 20 00 14 1d 	lw $20,32($29)
  408a28:	28 00 00 00 1c 00 13 1d 	lw $19,28($29)
  408a30:	28 00 00 00 18 00 12 1d 	lw $18,24($29)
  408a38:	28 00 00 00 14 00 11 1d 	lw $17,20($29)
  408a40:	28 00 00 00 10 00 10 1d 	lw $16,16($29)
  408a48:	43 00 00 00 28 00 1d 1d 	addiu $29,$29,40
  408a50:	03 00 00 00 00 00 00 1f 	jr $31

00408a58 <malloc>:
  408a58:	28 00 00 00 b4 84 02 1c 	lw $2,-31564($28)
  408a60:	43 00 00 00 d8 ff 1d 1d 	addiu $29,$29,-40
  408a68:	34 00 00 00 10 00 10 1d 	sw $16,16($29)
  408a70:	42 00 00 00 00 10 04 00 	addu $16,$0,$4
  408a78:	34 00 00 00 24 00 1f 1d 	sw $31,36($29)
  408a80:	34 00 00 00 20 00 14 1d 	sw $20,32($29)
  408a88:	34 00 00 00 1c 00 13 1d 	sw $19,28($29)
  408a90:	34 00 00 00 18 00 12 1d 	sw $18,24($29)
  408a98:	34 00 00 00 14 00 11 1d 	sw $17,20($29)
  408aa0:	05 00 00 00 04 00 00 02 	beq $2,$0,408ab8 <malloc+0x60>
  408aa8:	04 00 00 00 00 1f 00 02 	jalr $31,$2
  408ab0:	01 00 00 00 e6 24 10 00 	j 409398 <malloc+0x940>
  408ab8:	28 00 00 00 cc 84 02 1c 	lw $2,-31540($28)
  408ac0:	06 00 00 00 04 00 00 02 	bne $2,$0,408ad8 <malloc+0x80>
  408ac8:	02 00 00 00 2c 21 10 00 	jal 4084b0 <initialize>
  408ad0:	05 00 00 00 e4 01 00 02 	beq $2,$0,409268 <malloc+0x810>
  408ad8:	5e 00 00 00 08 00 02 10 	sltiu $2,$16,8
  408ae0:	05 00 00 00 02 00 00 02 	beq $2,$0,408af0 <malloc+0x98>
  408ae8:	43 00 00 00 08 00 10 00 	addiu $16,$0,8
  408af0:	5e 00 00 00 01 08 02 10 	sltiu $2,$16,2049
  408af8:	05 00 00 00 e4 00 00 02 	beq $2,$0,408e90 <malloc+0x438>
  408b00:	43 00 00 00 01 00 11 00 	addiu $17,$0,1
  408b08:	43 00 00 00 ff ff 10 10 	addiu $16,$16,-1
  408b10:	57 00 00 00 01 10 10 00 	srl $16,$16,0x1
  408b18:	05 00 00 00 06 00 00 10 	beq $16,$0,408b38 <malloc+0xe0>
  408b20:	43 00 00 00 01 00 11 11 	addiu $17,$17,1
  408b28:	57 00 00 00 01 10 10 00 	srl $16,$16,0x1
  408b30:	06 00 00 00 fa ff 00 10 	bne $16,$0,408b20 <malloc+0xc8>
  408b38:	55 00 00 00 03 10 11 00 	sll $16,$17,0x3
  408b40:	a2 00 00 00 a1 12 02 00 	lui $2,4769
  408b48:	42 00 00 00 00 02 10 02 	addu $2,$2,$16
  408b50:	28 00 00 00 30 3f 02 02 	lw $2,16176($2)
  408b58:	05 00 00 00 54 00 00 02 	beq $2,$0,408cb0 <malloc+0x258>
  408b60:	42 00 00 00 00 06 02 00 	addu $6,$0,$2
  408b68:	28 00 00 00 04 00 03 06 	lw $3,4($6)
  408b70:	28 00 00 00 00 00 02 06 	lw $2,0($6)
  408b78:	34 00 00 00 00 00 02 03 	sw $2,0($3)
  408b80:	28 00 00 00 00 00 03 06 	lw $3,0($6)
  408b88:	05 00 00 00 04 00 00 03 	beq $3,$0,408ba0 <malloc+0x148>
  408b90:	28 00 00 00 04 00 02 06 	lw $2,4($6)
  408b98:	34 00 00 00 04 00 02 03 	sw $2,4($3)
  408ba0:	28 00 00 00 d4 84 02 1c 	lw $2,-31532($28)
  408ba8:	45 00 00 00 00 02 02 06 	subu $2,$6,$2
  408bb0:	0a 00 00 00 02 00 00 02 	bgez $2,408bc0 <malloc+0x168>
  408bb8:	43 00 00 00 ff 0f 02 02 	addiu $2,$2,4095
  408bc0:	59 00 00 00 0c 02 02 00 	sra $2,$2,0xc
  408bc8:	43 00 00 00 01 00 07 02 	addiu $7,$2,1
  408bd0:	28 00 00 00 c8 84 03 1c 	lw $3,-31544($28)
  408bd8:	55 00 00 00 01 02 07 00 	sll $2,$7,0x1
  408be0:	42 00 00 00 00 02 07 02 	addu $2,$2,$7
  408be8:	55 00 00 00 02 02 02 00 	sll $2,$2,0x2
  408bf0:	42 00 00 00 00 03 03 02 	addu $3,$2,$3
  408bf8:	28 00 00 00 04 00 02 03 	lw $2,4($3)
  408c00:	43 00 00 00 ff ff 02 02 	addiu $2,$2,-1
  408c08:	34 00 00 00 04 00 02 03 	sw $2,4($3)
  408c10:	05 00 00 00 08 00 00 02 	beq $2,$0,408c38 <malloc+0x1e0>
  408c18:	28 00 00 00 00 00 02 06 	lw $2,0($6)
  408c20:	4f 00 00 00 ff 0f 02 02 	andi $2,$2,4095
  408c28:	58 00 00 00 00 02 02 11 	srlv $2,$2,$17
  408c30:	34 00 00 00 08 00 02 03 	sw $2,8($3)
  408c38:	28 00 00 00 d8 84 02 1c 	lw $2,-31528($28)
  408c40:	43 00 00 00 01 00 05 00 	addiu $5,$0,1
  408c48:	28 00 00 00 b8 84 03 1c 	lw $3,-31560($28)
  408c50:	28 00 00 00 d0 84 04 1c 	lw $4,-31536($28)
  408c58:	56 00 00 00 00 05 05 11 	sllv $5,$5,$17
  408c60:	43 00 00 00 01 00 02 02 	addiu $2,$2,1
  408c68:	34 00 00 00 d8 84 02 1c 	sw $2,-31528($28)
  408c70:	28 00 00 00 b0 84 02 1c 	lw $2,-31568($28)
  408c78:	43 00 00 00 ff ff 03 03 	addiu $3,$3,-1
  408c80:	45 00 00 00 00 04 05 04 	subu $4,$4,$5
  408c88:	34 00 00 00 b8 84 03 1c 	sw $3,-31560($28)
  408c90:	34 00 00 00 d0 84 04 1c 	sw $4,-31536($28)
  408c98:	42 00 00 00 00 02 02 05 	addu $2,$5,$2
  408ca0:	34 00 00 00 b0 84 02 1c 	sw $2,-31568($28)
  408ca8:	01 00 00 00 e4 24 10 00 	j 409390 <malloc+0x938>
  408cb0:	43 00 00 00 00 10 04 00 	addiu $4,$0,4096
  408cb8:	02 00 00 00 96 22 10 00 	jal 408a58 <malloc>
  408cc0:	42 00 00 00 00 06 02 00 	addu $6,$0,$2
  408cc8:	05 00 00 00 66 01 00 06 	beq $6,$0,409268 <malloc+0x810>
  408cd0:	43 00 00 00 01 00 04 00 	addiu $4,$0,1
  408cd8:	43 00 00 00 00 10 02 00 	addiu $2,$0,4096
  408ce0:	5a 00 00 00 00 03 02 11 	srav $3,$2,$17
  408ce8:	5d 00 00 00 00 02 03 04 	sltu $2,$4,$3
  408cf0:	05 00 00 00 26 00 00 02 	beq $2,$0,408d90 <malloc+0x338>
  408cf8:	42 00 00 00 00 07 10 00 	addu $7,$0,$16
  408d00:	a2 00 00 00 a1 12 02 00 	lui $2,4769
  408d08:	43 00 00 00 30 3f 02 02 	addiu $2,$2,16176
  408d10:	42 00 00 00 00 05 02 07 	addu $5,$7,$2
  408d18:	42 00 00 00 00 08 03 00 	addu $8,$0,$3
  408d20:	a2 00 00 00 a1 12 03 00 	lui $3,4769
  408d28:	42 00 00 00 00 03 07 03 	addu $3,$3,$7
  408d30:	28 00 00 00 30 3f 03 03 	lw $3,16176($3)
  408d38:	56 00 00 00 00 02 04 11 	sllv $2,$4,$17
  408d40:	42 00 00 00 00 02 02 06 	addu $2,$6,$2
  408d48:	34 00 00 00 00 00 03 02 	sw $3,0($2)
  408d50:	34 00 00 00 04 00 05 02 	sw $5,4($2)
  408d58:	34 00 00 00 00 00 02 05 	sw $2,0($5)
  408d60:	28 00 00 00 00 00 03 02 	lw $3,0($2)
  408d68:	05 00 00 00 02 00 00 03 	beq $3,$0,408d78 <malloc+0x320>
  408d70:	34 00 00 00 04 00 02 03 	sw $2,4($3)
  408d78:	43 00 00 00 01 00 04 04 	addiu $4,$4,1
  408d80:	5d 00 00 00 00 02 08 04 	sltu $2,$4,$8
  408d88:	06 00 00 00 e4 ff 00 02 	bne $2,$0,408d20 <malloc+0x2c8>
  408d90:	28 00 00 00 d4 84 02 1c 	lw $2,-31532($28)
  408d98:	45 00 00 00 00 02 02 06 	subu $2,$6,$2
  408da0:	0a 00 00 00 02 00 00 02 	bgez $2,408db0 <malloc+0x358>
  408da8:	43 00 00 00 ff 0f 02 02 	addiu $2,$2,4095
  408db0:	59 00 00 00 0c 02 02 00 	sra $2,$2,0xc
  408db8:	43 00 00 00 01 00 07 02 	addiu $7,$2,1
  408dc0:	28 00 00 00 c8 84 03 1c 	lw $3,-31544($28)
  408dc8:	55 00 00 00 01 02 07 00 	sll $2,$7,0x1
  408dd0:	42 00 00 00 00 02 07 02 	addu $2,$2,$7
  408dd8:	28 00 00 00 b8 84 05 1c 	lw $5,-31560($28)
  408de0:	55 00 00 00 02 02 02 00 	sll $2,$2,0x2
  408de8:	42 00 00 00 00 02 03 02 	addu $2,$2,$3
  408df0:	43 00 00 00 ff ff 03 04 	addiu $3,$4,-1
  408df8:	43 00 00 00 ff ff 05 05 	addiu $5,$5,-1
  408e00:	34 00 00 00 00 00 11 02 	sw $17,0($2)
  408e08:	34 00 00 00 04 00 03 02 	sw $3,4($2)
  408e10:	34 00 00 00 08 00 03 02 	sw $3,8($2)
  408e18:	43 00 00 00 00 10 02 00 	addiu $2,$0,4096
  408e20:	28 00 00 00 d0 84 04 1c 	lw $4,-31536($28)
  408e28:	5a 00 00 00 00 02 02 11 	srav $2,$2,$17
  408e30:	42 00 00 00 00 05 02 05 	addu $5,$5,$2
  408e38:	28 00 00 00 b0 84 02 1c 	lw $2,-31568($28)
  408e40:	43 00 00 00 01 00 03 00 	addiu $3,$0,1
  408e48:	56 00 00 00 00 03 03 11 	sllv $3,$3,$17
  408e50:	34 00 00 00 b8 84 05 1c 	sw $5,-31560($28)
  408e58:	43 00 00 00 00 10 04 04 	addiu $4,$4,4096
  408e60:	45 00 00 00 00 04 03 04 	subu $4,$4,$3
  408e68:	43 00 00 00 00 f0 02 02 	addiu $2,$2,-4096
  408e70:	42 00 00 00 00 02 03 02 	addu $2,$2,$3
  408e78:	34 00 00 00 d0 84 04 1c 	sw $4,-31536($28)
  408e80:	34 00 00 00 b0 84 02 1c 	sw $2,-31568($28)
  408e88:	01 00 00 00 e4 24 10 00 	j 409390 <malloc+0x938>
  408e90:	28 00 00 00 bc 84 07 1c 	lw $7,-31556($28)
  408e98:	28 00 00 00 c8 84 05 1c 	lw $5,-31544($28)
  408ea0:	43 00 00 00 ff 0f 02 10 	addiu $2,$16,4095
  408ea8:	55 00 00 00 01 04 07 00 	sll $4,$7,0x1
  408eb0:	42 00 00 00 00 03 07 04 	addu $3,$4,$7
  408eb8:	55 00 00 00 02 03 03 00 	sll $3,$3,0x2
  408ec0:	42 00 00 00 00 03 05 03 	addu $3,$3,$5
  408ec8:	28 00 00 00 00 00 03 03 	lw $3,0($3)
  408ed0:	57 00 00 00 0c 12 02 00 	srl $18,$2,0xc
  408ed8:	42 00 00 00 00 14 07 00 	addu $20,$0,$7
  408ee0:	5d 00 00 00 00 03 12 03 	sltu $3,$3,$18
  408ee8:	05 00 00 00 96 00 00 03 	beq $3,$0,409148 <malloc+0x6f0>
  408ef0:	55 00 00 00 0c 13 12 00 	sll $19,$18,0xc
  408ef8:	42 00 00 00 00 02 07 04 	addu $2,$4,$7
  408f00:	55 00 00 00 02 02 02 00 	sll $2,$2,0x2
  408f08:	42 00 00 00 00 02 05 02 	addu $2,$2,$5
  408f10:	28 00 00 00 04 00 07 02 	lw $7,4($2)
  408f18:	06 00 00 00 7a 00 14 07 	bne $7,$20,409108 <malloc+0x6b0>
  408f20:	28 00 00 00 08 00 07 05 	lw $7,8($5)
  408f28:	28 00 00 00 c0 84 03 1c 	lw $3,-31552($28)
  408f30:	55 00 00 00 01 02 07 00 	sll $2,$7,0x1
  408f38:	42 00 00 00 00 02 07 02 	addu $2,$2,$7
  408f40:	55 00 00 00 02 02 02 00 	sll $2,$2,0x2
  408f48:	42 00 00 00 00 02 05 02 	addu $2,$2,$5
  408f50:	28 00 00 00 00 00 11 02 	lw $17,0($2)
  408f58:	05 00 00 00 38 00 00 03 	beq $3,$0,409040 <malloc+0x5e8>
  408f60:	42 00 00 00 00 10 11 07 	addu $16,$7,$17
  408f68:	06 00 00 00 34 00 03 10 	bne $16,$3,409040 <malloc+0x5e8>
  408f70:	28 00 00 00 f0 80 02 1c 	lw $2,-32528($28)
  408f78:	42 00 00 00 00 04 00 00 	addu $4,$0,$0
  408f80:	04 00 00 00 00 1f 00 02 	jalr $31,$2
  408f88:	28 00 00 00 d4 84 04 1c 	lw $4,-31532($28)
  408f90:	43 00 00 00 ff ff 03 10 	addiu $3,$16,-1
  408f98:	55 00 00 00 0c 03 03 00 	sll $3,$3,0xc
  408fa0:	42 00 00 00 00 03 04 03 	addu $3,$3,$4
  408fa8:	06 00 00 00 24 00 03 02 	bne $2,$3,409040 <malloc+0x5e8>
  408fb0:	45 00 00 00 00 11 11 12 	subu $17,$18,$17
  408fb8:	55 00 00 00 0c 10 11 00 	sll $16,$17,0xc
  408fc0:	42 00 00 00 00 04 10 00 	addu $4,$0,$16
  408fc8:	02 00 00 00 8e 21 10 00 	jal 408638 <morecore>
  408fd0:	05 00 00 00 1a 00 00 02 	beq $2,$0,409040 <malloc+0x5e8>
  408fd8:	28 00 00 00 c8 84 03 1c 	lw $3,-31544($28)
  408fe0:	28 00 00 00 08 00 07 03 	lw $7,8($3)
  408fe8:	55 00 00 00 01 02 07 00 	sll $2,$7,0x1
  408ff0:	42 00 00 00 00 02 07 02 	addu $2,$2,$7
  408ff8:	55 00 00 00 02 02 02 00 	sll $2,$2,0x2
  409000:	42 00 00 00 00 02 03 02 	addu $2,$2,$3
  409008:	28 00 00 00 d0 84 03 1c 	lw $3,-31536($28)
  409010:	28 00 00 00 00 00 04 02 	lw $4,0($2)
  409018:	42 00 00 00 00 03 03 10 	addu $3,$16,$3
  409020:	42 00 00 00 00 04 04 11 	addu $4,$17,$4
  409028:	34 00 00 00 d0 84 03 1c 	sw $3,-31536($28)
  409030:	34 00 00 00 00 00 04 02 	sw $4,0($2)
  409038:	01 00 00 00 42 24 10 00 	j 409108 <malloc+0x6b0>
  409040:	42 00 00 00 00 04 13 00 	addu $4,$0,$19
  409048:	02 00 00 00 8e 21 10 00 	jal 408638 <morecore>
  409050:	42 00 00 00 00 06 02 00 	addu $6,$0,$2
  409058:	05 00 00 00 82 00 00 06 	beq $6,$0,409268 <malloc+0x810>
  409060:	28 00 00 00 d4 84 02 1c 	lw $2,-31532($28)
  409068:	45 00 00 00 00 02 02 06 	subu $2,$6,$2
  409070:	0a 00 00 00 02 00 00 02 	bgez $2,409080 <malloc+0x628>
  409078:	43 00 00 00 ff 0f 02 02 	addiu $2,$2,4095
  409080:	59 00 00 00 0c 02 02 00 	sra $2,$2,0xc
  409088:	43 00 00 00 01 00 07 02 	addiu $7,$2,1
  409090:	42 00 00 00 00 02 06 00 	addu $2,$0,$6
  409098:	28 00 00 00 c8 84 06 1c 	lw $6,-31544($28)
  4090a0:	55 00 00 00 01 03 07 00 	sll $3,$7,0x1
  4090a8:	42 00 00 00 00 03 07 03 	addu $3,$3,$7
  4090b0:	28 00 00 00 d8 84 04 1c 	lw $4,-31528($28)
  4090b8:	28 00 00 00 b0 84 05 1c 	lw $5,-31568($28)
  4090c0:	55 00 00 00 02 03 03 00 	sll $3,$3,0x2
  4090c8:	42 00 00 00 00 03 06 03 	addu $3,$3,$6
  4090d0:	43 00 00 00 01 00 04 04 	addiu $4,$4,1
  4090d8:	42 00 00 00 00 05 05 13 	addu $5,$19,$5
  4090e0:	34 00 00 00 00 00 00 03 	sw $0,0($3)
  4090e8:	34 00 00 00 04 00 12 03 	sw $18,4($3)
  4090f0:	34 00 00 00 d8 84 04 1c 	sw $4,-31528($28)
  4090f8:	34 00 00 00 b0 84 05 1c 	sw $5,-31568($28)
  409100:	01 00 00 00 e6 24 10 00 	j 409398 <malloc+0x940>
  409108:	28 00 00 00 c8 84 05 1c 	lw $5,-31544($28)
  409110:	55 00 00 00 01 04 07 00 	sll $4,$7,0x1
  409118:	42 00 00 00 00 02 07 04 	addu $2,$4,$7
  409120:	55 00 00 00 02 02 02 00 	sll $2,$2,0x2
  409128:	42 00 00 00 00 02 05 02 	addu $2,$2,$5
  409130:	28 00 00 00 00 00 02 02 	lw $2,0($2)
  409138:	5d 00 00 00 00 02 12 02 	sltu $2,$2,$18
  409140:	06 00 00 00 6c ff 00 02 	bne $2,$0,408ef8 <malloc+0x4a0>
  409148:	43 00 00 00 ff ff 03 07 	addiu $3,$7,-1
  409150:	28 00 00 00 d4 84 04 1c 	lw $4,-31532($28)
  409158:	28 00 00 00 c8 84 08 1c 	lw $8,-31544($28)
  409160:	55 00 00 00 01 02 07 00 	sll $2,$7,0x1
  409168:	42 00 00 00 00 02 07 02 	addu $2,$2,$7
  409170:	55 00 00 00 02 02 02 00 	sll $2,$2,0x2
  409178:	42 00 00 00 00 05 08 02 	addu $5,$2,$8
  409180:	28 00 00 00 00 00 09 05 	lw $9,0($5)
  409188:	55 00 00 00 0c 03 03 00 	sll $3,$3,0xc
  409190:	42 00 00 00 00 06 04 03 	addu $6,$3,$4
  409198:	5d 00 00 00 00 02 09 12 	sltu $2,$18,$9
  4091a0:	05 00 00 00 34 00 00 02 	beq $2,$0,409278 <malloc+0x820>
  4091a8:	42 00 00 00 00 04 12 07 	addu $4,$7,$18
  4091b0:	55 00 00 00 01 02 04 00 	sll $2,$4,0x1
  4091b8:	42 00 00 00 00 02 04 02 	addu $2,$2,$4
  4091c0:	55 00 00 00 02 02 02 00 	sll $2,$2,0x2
  4091c8:	42 00 00 00 00 02 08 02 	addu $2,$2,$8
  4091d0:	45 00 00 00 00 03 12 09 	subu $3,$9,$18
  4091d8:	34 00 00 00 00 00 03 02 	sw $3,0($2)
  4091e0:	28 00 00 00 04 00 03 05 	lw $3,4($5)
  4091e8:	34 00 00 00 04 00 03 02 	sw $3,4($2)
  4091f0:	28 00 00 00 08 00 03 05 	lw $3,8($5)
  4091f8:	34 00 00 00 08 00 03 02 	sw $3,8($2)
  409200:	28 00 00 00 04 00 03 05 	lw $3,4($5)
  409208:	34 00 00 00 bc 84 04 1c 	sw $4,-31556($28)
  409210:	28 00 00 00 08 00 05 05 	lw $5,8($5)
  409218:	55 00 00 00 01 02 03 00 	sll $2,$3,0x1
  409220:	42 00 00 00 00 02 03 02 	addu $2,$2,$3
  409228:	55 00 00 00 02 02 02 00 	sll $2,$2,0x2
  409230:	42 00 00 00 00 02 08 02 	addu $2,$2,$8
  409238:	34 00 00 00 08 00 04 02 	sw $4,8($2)
  409240:	55 00 00 00 01 02 05 00 	sll $2,$5,0x1
  409248:	42 00 00 00 00 02 05 02 	addu $2,$2,$5
  409250:	55 00 00 00 02 02 02 00 	sll $2,$2,0x2
  409258:	42 00 00 00 00 02 08 02 	addu $2,$2,$8
  409260:	01 00 00 00 c0 24 10 00 	j 409300 <malloc+0x8a8>
  409268:	42 00 00 00 00 02 00 00 	addu $2,$0,$0
  409270:	01 00 00 00 e6 24 10 00 	j 409398 <malloc+0x940>
  409278:	28 00 00 00 04 00 03 05 	lw $3,4($5)
  409280:	55 00 00 00 01 02 03 00 	sll $2,$3,0x1
  409288:	42 00 00 00 00 02 03 02 	addu $2,$2,$3
  409290:	28 00 00 00 08 00 03 05 	lw $3,8($5)
  409298:	55 00 00 00 02 02 02 00 	sll $2,$2,0x2
  4092a0:	42 00 00 00 00 02 08 02 	addu $2,$2,$8
  4092a8:	34 00 00 00 08 00 03 02 	sw $3,8($2)
  4092b0:	28 00 00 00 08 00 03 05 	lw $3,8($5)
  4092b8:	28 00 00 00 b8 84 02 1c 	lw $2,-31560($28)
  4092c0:	28 00 00 00 04 00 04 05 	lw $4,4($5)
  4092c8:	43 00 00 00 ff ff 02 02 	addiu $2,$2,-1
  4092d0:	34 00 00 00 b8 84 02 1c 	sw $2,-31560($28)
  4092d8:	55 00 00 00 01 02 03 00 	sll $2,$3,0x1
  4092e0:	42 00 00 00 00 02 03 02 	addu $2,$2,$3
  4092e8:	55 00 00 00 02 02 02 00 	sll $2,$2,0x2
  4092f0:	42 00 00 00 00 02 08 02 	addu $2,$2,$8
  4092f8:	34 00 00 00 bc 84 04 1c 	sw $4,-31556($28)
  409300:	34 00 00 00 04 00 04 02 	sw $4,4($2)
  409308:	28 00 00 00 c8 84 04 1c 	lw $4,-31544($28)
  409310:	55 00 00 00 01 02 07 00 	sll $2,$7,0x1
  409318:	42 00 00 00 00 02 07 02 	addu $2,$2,$7
  409320:	28 00 00 00 d8 84 03 1c 	lw $3,-31528($28)
  409328:	55 00 00 00 02 02 02 00 	sll $2,$2,0x2
  409330:	42 00 00 00 00 02 04 02 	addu $2,$2,$4
  409338:	34 00 00 00 00 00 00 02 	sw $0,0($2)
  409340:	34 00 00 00 04 00 12 02 	sw $18,4($2)
  409348:	28 00 00 00 b0 84 02 1c 	lw $2,-31568($28)
  409350:	43 00 00 00 01 00 03 03 	addiu $3,$3,1
  409358:	34 00 00 00 d8 84 03 1c 	sw $3,-31528($28)
  409360:	28 00 00 00 d0 84 03 1c 	lw $3,-31536($28)
  409368:	55 00 00 00 0c 04 12 00 	sll $4,$18,0xc
  409370:	42 00 00 00 00 02 02 04 	addu $2,$4,$2
  409378:	45 00 00 00 00 03 04 03 	subu $3,$3,$4
  409380:	34 00 00 00 b0 84 02 1c 	sw $2,-31568($28)
  409388:	34 00 00 00 d0 84 03 1c 	sw $3,-31536($28)
  409390:	42 00 00 00 00 02 06 00 	addu $2,$0,$6
  409398:	28 00 00 00 24 00 1f 1d 	lw $31,36($29)
  4093a0:	28 00 00 00 20 00 14 1d 	lw $20,32($29)
  4093a8:	28 00 00 00 1c 00 13 1d 	lw $19,28($29)
  4093b0:	28 00 00 00 18 00 12 1d 	lw $18,24($29)
  4093b8:	28 00 00 00 14 00 11 1d 	lw $17,20($29)
  4093c0:	28 00 00 00 10 00 10 1d 	lw $16,16($29)
  4093c8:	43 00 00 00 28 00 1d 1d 	addiu $29,$29,40
  4093d0:	03 00 00 00 00 00 00 1f 	jr $31
	...

004093e0 <memset>:
  4093e0:	42 00 00 00 00 08 04 00 	addu $8,$0,$4
  4093e8:	5e 00 00 00 08 00 02 06 	sltiu $2,$6,8
  4093f0:	06 00 00 00 46 00 00 02 	bne $2,$0,409510 <memset+0x130>
  4093f8:	4f 00 00 00 ff 00 07 05 	andi $7,$5,255
  409400:	55 00 00 00 08 02 07 00 	sll $2,$7,0x8
  409408:	50 00 00 00 00 07 02 07 	or $7,$7,$2
  409410:	55 00 00 00 10 02 07 00 	sll $2,$7,0x10
  409418:	50 00 00 00 00 07 02 07 	or $7,$7,$2
  409420:	4f 00 00 00 03 00 02 04 	andi $2,$4,3
  409428:	05 00 00 00 0a 00 00 02 	beq $2,$0,409458 <memset+0x78>
  409430:	30 00 00 00 00 00 05 08 	sb $5,0($8)
  409438:	43 00 00 00 01 00 08 08 	addiu $8,$8,1
  409440:	43 00 00 00 ff ff 06 06 	addiu $6,$6,-1
  409448:	4f 00 00 00 03 00 02 08 	andi $2,$8,3
  409450:	06 00 00 00 f6 ff 00 02 	bne $2,$0,409430 <memset+0x50>
