
/export/capc5/SPEC_TRACE/SimpleScalar/bin/tomcatv.ss:     file format ss-coff-little

Disassembly of section .text:

00400140 <__start>:
  400140:	28 00 00 00 00 00 10 1d 	lw $16,0($29)
  400148:	a2 00 00 00 01 10 1c 00 	lui $28,4097
  400150:	43 00 00 00 30 b3 1c 1c 	addiu $28,$28,-19664
  400158:	43 00 00 00 04 00 11 1d 	addiu $17,$29,4
  400160:	43 00 00 00 04 00 03 11 	addiu $3,$17,4
  400168:	55 00 00 00 02 02 10 00 	sll $2,$16,0x2
  400170:	42 00 00 00 00 03 02 03 	addu $3,$3,$2
  400178:	42 00 00 00 00 12 03 00 	addu $18,$0,$3
  400180:	34 00 00 00 54 86 12 1c 	sw $18,-31148($28)
  400188:	43 00 00 00 e8 ff 1d 1d 	addiu $29,$29,-24
  400190:	42 00 00 00 00 04 10 00 	addu $4,$0,$16
  400198:	42 00 00 00 00 05 11 00 	addu $5,$0,$17
  4001a0:	42 00 00 00 00 06 12 00 	addu $6,$0,$18
  4001a8:	02 00 00 00 88 0b 10 00 	jal 402e20 <__libc_init>
  4001b0:	34 00 00 00 50 86 00 1c 	sw $0,-31152($28)
  4001b8:	42 00 00 00 00 04 10 00 	addu $4,$0,$16
  4001c0:	42 00 00 00 00 05 11 00 	addu $5,$0,$17
  4001c8:	42 00 00 00 00 06 12 00 	addu $6,$0,$18
  4001d0:	02 00 00 00 94 0b 10 00 	jal 402e50 <main>
  4001d8:	42 00 00 00 00 04 02 00 	addu $4,$0,$2
  4001e0:	02 00 00 00 6c 0c 10 00 	jal 4031b0 <exit>
	...

004001f0 <MAIN__>:
  4001f0:	a2 00 00 00 e1 00 08 00 	lui $8,225
  4001f8:	51 00 00 00 10 20 08 08 	ori $8,$8,8208
  400200:	45 00 00 00 00 1d 08 1d 	subu $29,$29,$8
  400208:	42 00 00 00 00 09 1d 08 	addu $9,$8,$29
  400210:	43 00 00 00 10 00 04 1d 	addiu $4,$29,16
  400218:	43 00 00 00 01 00 02 00 	addiu $2,$0,1
  400220:	34 00 00 00 d4 ff 1f 09 	sw $31,-44($9)
  400228:	34 00 00 00 d0 ff 1e 09 	sw $30,-48($9)
  400230:	34 00 00 00 cc ff 17 09 	sw $23,-52($9)
  400238:	34 00 00 00 c8 ff 16 09 	sw $22,-56($9)
  400240:	34 00 00 00 c4 ff 15 09 	sw $21,-60($9)
  400248:	34 00 00 00 c0 ff 14 09 	sw $20,-64($9)
  400250:	34 00 00 00 bc ff 13 09 	sw $19,-68($9)
  400258:	34 00 00 00 b8 ff 12 09 	sw $18,-72($9)
  400260:	34 00 00 00 b4 ff 11 09 	sw $17,-76($9)
  400268:	34 00 00 00 b0 ff 10 09 	sw $16,-80($9)
  400270:	37 00 00 00 f8 ff 1c 09 	s.d $f28,-8($9)
  400278:	37 00 00 00 f0 ff 1a 09 	s.d $f26,-16($9)
  400280:	37 00 00 00 e8 ff 18 09 	s.d $f24,-24($9)
  400288:	37 00 00 00 e0 ff 16 09 	s.d $f22,-32($9)
  400290:	37 00 00 00 d8 ff 14 09 	s.d $f20,-40($9)
  400298:	34 00 00 00 10 00 02 1d 	sw $2,16($29)
  4002a0:	43 00 00 00 0a 00 02 00 	addiu $2,$0,10
  4002a8:	34 00 00 00 14 00 02 1d 	sw $2,20($29)
  4002b0:	43 00 00 00 0d 00 02 00 	addiu $2,$0,13
  4002b8:	34 00 00 00 1c 00 02 1d 	sw $2,28($29)
  4002c0:	a2 00 00 00 00 10 02 00 	lui $2,4096
  4002c8:	43 00 00 00 00 00 02 02 	addiu $2,$2,0
  4002d0:	34 00 00 00 18 00 02 1d 	sw $2,24($29)
  4002d8:	43 00 00 00 10 80 02 1c 	addiu $2,$28,-32752
  4002e0:	34 00 00 00 2c 00 00 1d 	sw $0,44($29)
  4002e8:	34 00 00 00 20 00 02 1d 	sw $2,32($29)
  4002f0:	34 00 00 00 24 00 00 1d 	sw $0,36($29)
  4002f8:	34 00 00 00 28 00 00 1d 	sw $0,40($29)
  400300:	34 00 00 00 30 00 00 1d 	sw $0,48($29)
  400308:	02 00 00 00 fc 0c 10 00 	jal 4033f0 <f_open>
  400310:	05 00 00 00 1a 00 00 02 	beq $2,$0,400380 <MAIN__+0x190>
  400318:	a2 00 00 00 00 10 04 00 	lui $4,4096
  400320:	43 00 00 00 1c 25 04 04 	addiu $4,$4,9500
  400328:	02 00 00 00 94 0f 10 00 	jal 403e50 <s_wsle>
  400330:	43 00 00 00 00 80 04 1c 	addiu $4,$28,-32768
  400338:	43 00 00 00 04 80 05 1c 	addiu $5,$28,-32764
  400340:	a2 00 00 00 00 10 06 00 	lui $6,4096
  400348:	43 00 00 00 10 00 06 06 	addiu $6,$6,16
  400350:	43 00 00 00 29 00 07 00 	addiu $7,$0,41
  400358:	02 00 00 00 0c 10 10 00 	jal 404030 <do_lio>
  400360:	02 00 00 00 ec 0f 10 00 	jal 403fb0 <e_wsle>
  400368:	43 00 00 00 14 80 04 1c 	addiu $4,$28,-32748
  400370:	42 00 00 00 00 05 00 00 	addu $5,$0,$0
  400378:	02 00 00 00 24 10 10 00 	jal 404090 <s_stop>
  400380:	a2 00 00 00 00 10 04 00 	lui $4,4096
  400388:	43 00 00 00 30 25 04 04 	addiu $4,$4,9520
  400390:	02 00 00 00 b2 19 10 00 	jal 4066c8 <s_rsle>
  400398:	a2 00 00 00 e1 00 06 00 	lui $6,225
  4003a0:	51 00 00 00 e0 1e 06 06 	ori $6,$6,7904
  4003a8:	43 00 00 00 08 80 04 1c 	addiu $4,$28,-32760
  4003b0:	43 00 00 00 04 80 05 1c 	addiu $5,$28,-32764
  4003b8:	43 00 00 00 10 00 10 1d 	addiu $16,$29,16
  4003c0:	42 00 00 00 00 06 06 10 	addu $6,$16,$6
  4003c8:	43 00 00 00 04 00 07 00 	addiu $7,$0,4
  4003d0:	02 00 00 00 0c 10 10 00 	jal 404030 <do_lio>
  4003d8:	a2 00 00 00 e1 00 06 00 	lui $6,225
  4003e0:	51 00 00 00 e4 1e 06 06 	ori $6,$6,7908
  4003e8:	43 00 00 00 08 80 04 1c 	addiu $4,$28,-32760
  4003f0:	43 00 00 00 04 80 05 1c 	addiu $5,$28,-32764
  4003f8:	42 00 00 00 00 06 06 10 	addu $6,$16,$6
  400400:	43 00 00 00 04 00 07 00 	addiu $7,$0,4
  400408:	02 00 00 00 0c 10 10 00 	jal 404030 <do_lio>
  400410:	a2 00 00 00 e1 00 06 00 	lui $6,225
  400418:	51 00 00 00 e8 1e 06 06 	ori $6,$6,7912
  400420:	43 00 00 00 0c 80 04 1c 	addiu $4,$28,-32756
  400428:	43 00 00 00 04 80 05 1c 	addiu $5,$28,-32764
  400430:	42 00 00 00 00 06 06 10 	addu $6,$16,$6
  400438:	43 00 00 00 08 00 07 00 	addiu $7,$0,8
  400440:	02 00 00 00 0c 10 10 00 	jal 404030 <do_lio>
  400448:	a2 00 00 00 e1 00 06 00 	lui $6,225
  400450:	51 00 00 00 f0 1e 06 06 	ori $6,$6,7920
  400458:	43 00 00 00 0c 80 04 1c 	addiu $4,$28,-32756
  400460:	43 00 00 00 04 80 05 1c 	addiu $5,$28,-32764
  400468:	42 00 00 00 00 06 06 10 	addu $6,$16,$6
  400470:	43 00 00 00 08 00 07 00 	addiu $7,$0,8
  400478:	02 00 00 00 0c 10 10 00 	jal 404030 <do_lio>
  400480:	a2 00 00 00 e1 00 06 00 	lui $6,225
  400488:	51 00 00 00 f8 1e 06 06 	ori $6,$6,7928
  400490:	43 00 00 00 0c 80 04 1c 	addiu $4,$28,-32756
  400498:	43 00 00 00 04 80 05 1c 	addiu $5,$28,-32764
  4004a0:	42 00 00 00 00 06 06 10 	addu $6,$16,$6
  4004a8:	43 00 00 00 08 00 07 00 	addiu $7,$0,8
  4004b0:	02 00 00 00 0c 10 10 00 	jal 404030 <do_lio>
  4004b8:	02 00 00 00 b8 10 10 00 	jal 4042e0 <e_rsle>
  4004c0:	a2 00 00 00 e1 00 02 00 	lui $2,225
  4004c8:	42 00 00 00 00 10 02 10 	addu $16,$16,$2
  4004d0:	28 00 00 00 e4 1e 02 10 	lw $2,7908($16)
  4004d8:	5c 00 00 00 e9 03 02 02 	slti $2,$2,1001
  4004e0:	05 00 00 00 06 00 00 02 	beq $2,$0,400500 <MAIN__+0x310>
  4004e8:	28 00 00 00 e0 1e 02 10 	lw $2,7904($16)
  4004f0:	5c 00 00 00 02 02 02 02 	slti $2,$2,514
  4004f8:	06 00 00 00 1a 00 00 02 	bne $2,$0,400568 <MAIN__+0x378>
  400500:	a2 00 00 00 00 10 04 00 	lui $4,4096
  400508:	43 00 00 00 44 25 04 04 	addiu $4,$4,9540
  400510:	02 00 00 00 94 0f 10 00 	jal 403e50 <s_wsle>
  400518:	43 00 00 00 00 80 04 1c 	addiu $4,$28,-32768
  400520:	43 00 00 00 04 80 05 1c 	addiu $5,$28,-32764
  400528:	a2 00 00 00 00 10 06 00 	lui $6,4096
  400530:	43 00 00 00 3c 00 06 06 	addiu $6,$6,60
  400538:	43 00 00 00 32 00 07 00 	addiu $7,$0,50
  400540:	02 00 00 00 0c 10 10 00 	jal 404030 <do_lio>
  400548:	02 00 00 00 ec 0f 10 00 	jal 403fb0 <e_wsle>
  400550:	43 00 00 00 14 80 04 1c 	addiu $4,$28,-32748
  400558:	42 00 00 00 00 05 00 00 	addu $5,$0,$0
  400560:	02 00 00 00 24 10 10 00 	jal 404090 <s_stop>
  400568:	a2 00 00 00 e1 00 02 00 	lui $2,225
  400570:	43 00 00 00 10 00 05 1d 	addiu $5,$29,16
  400578:	42 00 00 00 00 02 02 05 	addu $2,$5,$2
  400580:	28 00 00 00 e0 1e 1e 02 	lw $30,7904($2)
  400588:	43 00 00 00 01 00 17 00 	addiu $23,$0,1
  400590:	07 00 00 00 a6 00 00 1e 	blez $30,400830 <MAIN__+0x640>
  400598:	42 00 00 00 00 15 02 00 	addu $21,$0,$2
  4005a0:	a2 00 00 00 e1 00 02 00 	lui $2,225
  4005a8:	51 00 00 00 00 1f 02 02 	ori $2,$2,7936
  4005b0:	42 00 00 00 00 10 02 05 	addu $16,$5,$2
  4005b8:	a2 00 00 00 20 00 02 00 	lui $2,32
  4005c0:	51 00 00 00 30 20 02 02 	ori $2,$2,8240
  4005c8:	42 00 00 00 00 14 02 05 	addu $20,$5,$2
  4005d0:	a2 00 00 00 40 00 02 00 	lui $2,64
  4005d8:	51 00 00 00 38 40 02 02 	ori $2,$2,16440
  4005e0:	42 00 00 00 00 05 02 05 	addu $5,$5,$2
  4005e8:	a2 00 00 00 e1 00 0e 00 	lui $14,225
  4005f0:	51 00 00 00 b0 1f 0e 0e 	ori $14,$14,8112
  4005f8:	42 00 00 00 00 0e 1d 0e 	addu $14,$14,$29
  400600:	34 00 00 00 00 00 05 0e 	sw $5,0($14)
  400608:	43 00 00 00 01 02 12 00 	addiu $18,$0,513
  400610:	28 00 00 00 e0 1e 16 15 	lw $22,7904($21)
  400618:	a2 00 00 00 e1 00 13 00 	lui $19,225
  400620:	51 00 00 00 18 1f 13 13 	ori $19,$19,7960
  400628:	42 00 00 00 00 13 1d 13 	addu $19,$19,$29
  400630:	43 00 00 00 01 00 02 00 	addiu $2,$0,1
  400638:	a2 00 00 00 e1 00 0e 00 	lui $14,225
  400640:	51 00 00 00 18 1f 0e 0e 	ori $14,$14,7960
  400648:	42 00 00 00 00 0e 1d 0e 	addu $14,$14,$29
  400650:	34 00 00 00 00 00 16 13 	sw $22,0($19)
  400658:	34 00 00 00 00 00 02 10 	sw $2,0($16)
  400660:	28 00 00 00 00 00 0e 0e 	lw $14,0($14)
  400668:	07 00 00 00 4c 00 00 0e 	blez $14,4007a0 <MAIN__+0x5b0>
  400670:	42 00 00 00 00 11 12 00 	addu $17,$0,$18
  400678:	a2 00 00 00 00 10 04 00 	lui $4,4096
  400680:	43 00 00 00 58 25 04 04 	addiu $4,$4,9560
  400688:	02 00 00 00 8e 1b 10 00 	jal 406e38 <s_rsfe>
  400690:	06 00 00 00 4c 00 00 02 	bne $2,$0,4007c8 <MAIN__+0x5d8>
  400698:	28 00 00 00 00 00 05 10 	lw $5,0($16)
  4006a0:	43 00 00 00 04 80 04 1c 	addiu $4,$28,-32764
  4006a8:	43 00 00 00 08 00 06 00 	addiu $6,$0,8
  4006b0:	42 00 00 00 00 05 11 05 	addu $5,$5,$17
  4006b8:	55 00 00 00 03 05 05 00 	sll $5,$5,0x3
  4006c0:	43 00 00 00 f0 ef 05 05 	addiu $5,$5,-4112
  4006c8:	42 00 00 00 00 05 05 14 	addu $5,$20,$5
  4006d0:	02 00 00 00 24 28 10 00 	jal 40a090 <do_fio>
  4006d8:	06 00 00 00 3a 00 00 02 	bne $2,$0,4007c8 <MAIN__+0x5d8>
  4006e0:	28 00 00 00 00 00 05 10 	lw $5,0($16)
  4006e8:	43 00 00 00 04 80 04 1c 	addiu $4,$28,-32764
  4006f0:	43 00 00 00 08 00 06 00 	addiu $6,$0,8
  4006f8:	a2 00 00 00 e1 00 13 00 	lui $19,225
  400700:	51 00 00 00 b0 1f 13 13 	ori $19,$19,8112
  400708:	42 00 00 00 00 13 1d 13 	addu $19,$19,$29
  400710:	28 00 00 00 00 00 13 13 	lw $19,0($19)
  400718:	42 00 00 00 00 05 11 05 	addu $5,$5,$17
  400720:	55 00 00 00 03 05 05 00 	sll $5,$5,0x3
  400728:	43 00 00 00 f0 ef 05 05 	addiu $5,$5,-4112
  400730:	42 00 00 00 00 05 05 13 	addu $5,$19,$5
  400738:	02 00 00 00 24 28 10 00 	jal 40a090 <do_fio>
  400740:	06 00 00 00 20 00 00 02 	bne $2,$0,4007c8 <MAIN__+0x5d8>
  400748:	02 00 00 00 04 2a 10 00 	jal 40a810 <e_rsfe>
  400750:	06 00 00 00 1c 00 00 02 	bne $2,$0,4007c8 <MAIN__+0x5d8>
  400758:	28 00 00 00 00 00 02 10 	lw $2,0($16)
  400760:	a2 00 00 00 e1 00 16 00 	lui $22,225
  400768:	51 00 00 00 18 1f 16 16 	ori $22,$22,7960
  400770:	42 00 00 00 00 16 1d 16 	addu $22,$22,$29
  400778:	43 00 00 00 01 00 02 02 	addiu $2,$2,1
  400780:	34 00 00 00 00 00 02 10 	sw $2,0($16)
  400788:	28 00 00 00 00 00 16 16 	lw $22,0($22)
  400790:	5b 00 00 00 00 02 02 16 	slt $2,$22,$2
  400798:	05 00 00 00 b6 ff 00 02 	beq $2,$0,400678 <MAIN__+0x488>
  4007a0:	43 00 00 00 01 02 12 12 	addiu $18,$18,513
  4007a8:	43 00 00 00 01 00 17 17 	addiu $23,$23,1
  4007b0:	5b 00 00 00 00 02 17 1e 	slt $2,$30,$23
  4007b8:	05 00 00 00 94 ff 00 02 	beq $2,$0,400610 <MAIN__+0x420>
  4007c0:	01 00 00 00 0c 02 10 00 	j 400830 <MAIN__+0x640>
  4007c8:	a2 00 00 00 00 10 04 00 	lui $4,4096
  4007d0:	43 00 00 00 6c 25 04 04 	addiu $4,$4,9580
  4007d8:	02 00 00 00 94 0f 10 00 	jal 403e50 <s_wsle>
  4007e0:	43 00 00 00 00 80 04 1c 	addiu $4,$28,-32768
  4007e8:	43 00 00 00 04 80 05 1c 	addiu $5,$28,-32764
  4007f0:	a2 00 00 00 00 10 06 00 	lui $6,4096
  4007f8:	43 00 00 00 70 00 06 06 	addiu $6,$6,112
  400800:	43 00 00 00 20 00 07 00 	addiu $7,$0,32
  400808:	02 00 00 00 0c 10 10 00 	jal 404030 <do_lio>
  400810:	02 00 00 00 ec 0f 10 00 	jal 403fb0 <e_wsle>
  400818:	43 00 00 00 14 80 04 1c 	addiu $4,$28,-32748
  400820:	42 00 00 00 00 05 00 00 	addu $5,$0,$0
  400828:	02 00 00 00 24 10 10 00 	jal 404090 <s_stop>
  400830:	a2 00 00 00 e1 00 02 00 	lui $2,225
  400838:	43 00 00 00 10 00 04 1d 	addiu $4,$29,16
  400840:	42 00 00 00 00 02 02 04 	addu $2,$4,$2
  400848:	28 00 00 00 e4 1e 13 02 	lw $19,7908($2)
  400850:	a2 00 00 00 e1 00 0e 00 	lui $14,225
  400858:	51 00 00 00 18 1f 0e 0e 	ori $14,$14,7960
  400860:	42 00 00 00 00 0e 1d 0e 	addu $14,$14,$29
  400868:	a2 00 00 00 e1 00 16 00 	lui $22,225
  400870:	51 00 00 00 20 1f 16 16 	ori $22,$22,7968
  400878:	42 00 00 00 00 16 1d 16 	addu $22,$22,$29
  400880:	34 00 00 00 00 00 13 0e 	sw $19,0($14)
  400888:	43 00 00 00 01 00 0e 00 	addiu $14,$0,1
  400890:	34 00 00 00 00 00 0e 16 	sw $14,0($22)
  400898:	a2 00 00 00 e1 00 13 00 	lui $19,225
  4008a0:	51 00 00 00 18 1f 13 13 	ori $19,$19,7960
  4008a8:	42 00 00 00 00 13 1d 13 	addu $19,$19,$29
  4008b0:	28 00 00 00 00 00 13 13 	lw $19,0($19)
  4008b8:	07 00 00 00 9e 08 00 13 	blez $19,402b38 <MAIN__+0x2948>
  4008c0:	a2 00 00 00 e0 00 0e 00 	lui $14,224
  4008c8:	a2 00 00 00 e1 00 16 00 	lui $22,225
  4008d0:	51 00 00 00 28 1f 16 16 	ori $22,$22,7976
  4008d8:	42 00 00 00 00 16 1d 16 	addu $22,$22,$29
  4008e0:	34 00 00 00 00 00 0e 16 	sw $14,0($22)
  4008e8:	a2 00 00 00 e1 00 13 00 	lui $19,225
  4008f0:	51 00 00 00 28 1f 13 13 	ori $19,$19,7976
  4008f8:	42 00 00 00 00 13 1d 13 	addu $19,$19,$29
  400900:	28 00 00 00 00 00 16 13 	lw $22,0($19)
  400908:	a2 00 00 00 e1 00 0e 00 	lui $14,225
  400910:	51 00 00 00 38 1f 0e 0e 	ori $14,$14,7992
  400918:	42 00 00 00 00 0e 1d 0e 	addu $14,$14,$29
  400920:	51 00 00 00 58 e0 16 16 	ori $22,$22,57432
  400928:	a2 00 00 00 e1 00 13 00 	lui $19,225
  400930:	51 00 00 00 28 1f 13 13 	ori $19,$19,7976
  400938:	42 00 00 00 00 13 1d 13 	addu $19,$19,$29
  400940:	34 00 00 00 00 00 16 13 	sw $22,0($19)
  400948:	34 00 00 00 00 00 02 0e 	sw $2,0($14)
  400950:	a2 00 00 00 e1 00 16 00 	lui $22,225
  400958:	a2 00 00 00 e1 00 13 00 	lui $19,225
  400960:	51 00 00 00 78 1f 13 13 	ori $19,$19,8056
  400968:	42 00 00 00 00 13 1d 13 	addu $19,$19,$29
  400970:	34 00 00 00 00 00 16 13 	sw $22,0($19)
  400978:	a2 00 00 00 e1 00 0e 00 	lui $14,225
  400980:	51 00 00 00 78 1f 0e 0e 	ori $14,$14,8056
  400988:	42 00 00 00 00 0e 1d 0e 	addu $14,$14,$29
  400990:	28 00 00 00 00 00 13 0e 	lw $19,0($14)
  400998:	a2 00 00 00 e1 00 16 00 	lui $22,225
  4009a0:	51 00 00 00 80 1f 16 16 	ori $22,$22,8064
  4009a8:	42 00 00 00 00 16 1d 16 	addu $22,$22,$29
  4009b0:	51 00 00 00 00 1f 13 13 	ori $19,$19,7936
  4009b8:	a2 00 00 00 e1 00 0e 00 	lui $14,225
  4009c0:	51 00 00 00 78 1f 0e 0e 	ori $14,$14,8056
  4009c8:	42 00 00 00 00 0e 1d 0e 	addu $14,$14,$29
  4009d0:	34 00 00 00 00 00 13 0e 	sw $19,0($14)
  4009d8:	34 00 00 00 00 00 04 16 	sw $4,0($22)
  4009e0:	a2 00 00 00 e1 00 0e 00 	lui $14,225
  4009e8:	51 00 00 00 80 1f 0e 0e 	ori $14,$14,8064
  4009f0:	42 00 00 00 00 0e 1d 0e 	addu $14,$14,$29
  4009f8:	28 00 00 00 00 00 13 0e 	lw $19,0($14)
  400a00:	a2 00 00 00 e1 00 0e 00 	lui $14,225
  400a08:	51 00 00 00 78 1f 0e 0e 	ori $14,$14,8056
  400a10:	42 00 00 00 00 0e 1d 0e 	addu $14,$14,$29
  400a18:	28 00 00 00 00 00 0e 0e 	lw $14,0($14)
  400a20:	2b 00 00 00 18 80 1a 1c 	l.d $f26,-32744($28)
  400a28:	a2 00 00 00 20 00 16 00 	lui $22,32
  400a30:	42 00 00 00 00 13 0e 13 	addu $19,$19,$14
  400a38:	a2 00 00 00 e1 00 0e 00 	lui $14,225
  400a40:	51 00 00 00 70 1f 0e 0e 	ori $14,$14,8048
  400a48:	42 00 00 00 00 0e 1d 0e 	addu $14,$14,$29
  400a50:	34 00 00 00 00 00 13 0e 	sw $19,0($14)
  400a58:	a2 00 00 00 e1 00 13 00 	lui $19,225
  400a60:	51 00 00 00 40 1f 13 13 	ori $19,$19,8000
  400a68:	42 00 00 00 00 13 1d 13 	addu $19,$19,$29
  400a70:	34 00 00 00 00 00 16 13 	sw $22,0($19)
  400a78:	a2 00 00 00 e1 00 0e 00 	lui $14,225
  400a80:	51 00 00 00 40 1f 0e 0e 	ori $14,$14,8000
  400a88:	42 00 00 00 00 0e 1d 0e 	addu $14,$14,$29
  400a90:	28 00 00 00 00 00 13 0e 	lw $19,0($14)
  400a98:	a2 00 00 00 e1 00 16 00 	lui $22,225
  400aa0:	51 00 00 00 50 1f 16 16 	ori $22,$22,8016
  400aa8:	42 00 00 00 00 16 1d 16 	addu $22,$22,$29
  400ab0:	51 00 00 00 28 10 13 13 	ori $19,$19,4136
  400ab8:	a2 00 00 00 e1 00 0e 00 	lui $14,225
  400ac0:	51 00 00 00 40 1f 0e 0e 	ori $14,$14,8000
  400ac8:	42 00 00 00 00 0e 1d 0e 	addu $14,$14,$29
  400ad0:	34 00 00 00 00 00 13 0e 	sw $19,0($14)
  400ad8:	a2 00 00 00 60 00 0e 00 	lui $14,96
  400ae0:	34 00 00 00 00 00 0e 16 	sw $14,0($22)
  400ae8:	a2 00 00 00 e1 00 13 00 	lui $19,225
  400af0:	51 00 00 00 50 1f 13 13 	ori $19,$19,8016
  400af8:	42 00 00 00 00 13 1d 13 	addu $19,$19,$29
  400b00:	28 00 00 00 00 00 16 13 	lw $22,0($19)
  400b08:	a2 00 00 00 e1 00 0e 00 	lui $14,225
  400b10:	51 00 00 00 58 1f 0e 0e 	ori $14,$14,8024
  400b18:	42 00 00 00 00 0e 1d 0e 	addu $14,$14,$29
  400b20:	51 00 00 00 30 50 16 16 	ori $22,$22,20528
  400b28:	a2 00 00 00 e1 00 13 00 	lui $19,225
  400b30:	51 00 00 00 50 1f 13 13 	ori $19,$19,8016
  400b38:	42 00 00 00 00 13 1d 13 	addu $19,$19,$29
  400b40:	34 00 00 00 00 00 16 13 	sw $22,0($19)
  400b48:	a2 00 00 00 80 00 13 00 	lui $19,128
  400b50:	34 00 00 00 00 00 13 0e 	sw $19,0($14)
  400b58:	a2 00 00 00 e1 00 16 00 	lui $22,225
  400b60:	51 00 00 00 58 1f 16 16 	ori $22,$22,8024
  400b68:	42 00 00 00 00 16 1d 16 	addu $22,$22,$29
  400b70:	28 00 00 00 00 00 0e 16 	lw $14,0($22)
  400b78:	a2 00 00 00 e1 00 13 00 	lui $19,225
  400b80:	51 00 00 00 60 1f 13 13 	ori $19,$19,8032
  400b88:	42 00 00 00 00 13 1d 13 	addu $19,$19,$29
  400b90:	51 00 00 00 38 70 0e 0e 	ori $14,$14,28728
  400b98:	a2 00 00 00 e1 00 16 00 	lui $22,225
  400ba0:	51 00 00 00 58 1f 16 16 	ori $22,$22,8024
  400ba8:	42 00 00 00 00 16 1d 16 	addu $22,$22,$29
  400bb0:	34 00 00 00 00 00 0e 16 	sw $14,0($22)
  400bb8:	a2 00 00 00 a0 00 16 00 	lui $22,160
  400bc0:	34 00 00 00 00 00 16 13 	sw $22,0($19)
  400bc8:	a2 00 00 00 e1 00 0e 00 	lui $14,225
  400bd0:	51 00 00 00 60 1f 0e 0e 	ori $14,$14,8032
  400bd8:	42 00 00 00 00 0e 1d 0e 	addu $14,$14,$29
  400be0:	28 00 00 00 00 00 13 0e 	lw $19,0($14)
  400be8:	a2 00 00 00 e1 00 16 00 	lui $22,225
  400bf0:	51 00 00 00 68 1f 16 16 	ori $22,$22,8040
  400bf8:	42 00 00 00 00 16 1d 16 	addu $22,$22,$29
  400c00:	51 00 00 00 40 90 13 13 	ori $19,$19,36928
  400c08:	a2 00 00 00 e1 00 0e 00 	lui $14,225
  400c10:	51 00 00 00 60 1f 0e 0e 	ori $14,$14,8032
  400c18:	42 00 00 00 00 0e 1d 0e 	addu $14,$14,$29
  400c20:	34 00 00 00 00 00 13 0e 	sw $19,0($14)
  400c28:	a2 00 00 00 c0 00 0e 00 	lui $14,192
  400c30:	34 00 00 00 00 00 0e 16 	sw $14,0($22)
  400c38:	a2 00 00 00 e1 00 13 00 	lui $19,225
  400c40:	51 00 00 00 68 1f 13 13 	ori $19,$19,8040
  400c48:	42 00 00 00 00 13 1d 13 	addu $19,$19,$29
  400c50:	28 00 00 00 00 00 16 13 	lw $22,0($19)
  400c58:	a2 00 00 00 e1 00 0e 00 	lui $14,225
  400c60:	51 00 00 00 80 1f 0e 0e 	ori $14,$14,8064
  400c68:	42 00 00 00 00 0e 1d 0e 	addu $14,$14,$29
  400c70:	51 00 00 00 48 b0 16 16 	ori $22,$22,45128
  400c78:	a2 00 00 00 e1 00 13 00 	lui $19,225
  400c80:	51 00 00 00 68 1f 13 13 	ori $19,$19,8040
  400c88:	42 00 00 00 00 13 1d 13 	addu $19,$19,$29
  400c90:	34 00 00 00 00 00 16 13 	sw $22,0($19)
  400c98:	28 00 00 00 00 00 13 0e 	lw $19,0($14)
  400ca0:	a2 00 00 00 e0 00 03 00 	lui $3,224
  400ca8:	51 00 00 00 98 ff 03 03 	ori $3,$3,65432
  400cb0:	a2 00 00 00 e1 00 0e 00 	lui $14,225
  400cb8:	51 00 00 00 28 1f 0e 0e 	ori $14,$14,7976
  400cc0:	42 00 00 00 00 0e 1d 0e 	addu $14,$14,$29
  400cc8:	28 00 00 00 00 00 0e 0e 	lw $14,0($14)
  400cd0:	a2 00 00 00 e1 00 16 00 	lui $22,225
  400cd8:	51 00 00 00 98 1f 16 16 	ori $22,$22,8088
  400ce0:	42 00 00 00 00 16 1d 16 	addu $22,$22,$29
  400ce8:	42 00 00 00 00 02 0e 13 	addu $2,$19,$14
  400cf0:	43 00 00 00 08 00 02 02 	addiu $2,$2,8
  400cf8:	a2 00 00 00 e1 00 13 00 	lui $19,225
  400d00:	51 00 00 00 90 1f 13 13 	ori $19,$19,8080
  400d08:	42 00 00 00 00 13 1d 13 	addu $19,$19,$29
  400d10:	34 00 00 00 00 00 02 13 	sw $2,0($19)
  400d18:	43 00 00 00 08 00 0e 00 	addiu $14,$0,8
  400d20:	34 00 00 00 00 00 0e 16 	sw $14,0($22)
  400d28:	a2 00 00 00 e1 00 13 00 	lui $19,225
  400d30:	51 00 00 00 80 1f 13 13 	ori $19,$19,8064
  400d38:	42 00 00 00 00 13 1d 13 	addu $19,$19,$29
  400d40:	28 00 00 00 00 00 13 13 	lw $19,0($19)
  400d48:	a2 00 00 00 e1 00 16 00 	lui $22,225
  400d50:	51 00 00 00 30 1f 16 16 	ori $22,$22,7984
  400d58:	42 00 00 00 00 16 1d 16 	addu $22,$22,$29
  400d60:	42 00 00 00 00 03 03 13 	addu $3,$19,$3
  400d68:	a2 00 00 00 e1 00 13 00 	lui $19,225
  400d70:	51 00 00 00 30 1f 13 13 	ori $19,$19,7984
  400d78:	42 00 00 00 00 13 1d 13 	addu $19,$19,$29
  400d80:	34 00 00 00 00 00 03 13 	sw $3,0($19)
  400d88:	28 00 00 00 00 00 16 16 	lw $22,0($22)
  400d90:	43 00 00 00 08 00 0e 16 	addiu $14,$22,8
  400d98:	a2 00 00 00 e1 00 16 00 	lui $22,225
  400da0:	51 00 00 00 a0 1f 16 16 	ori $22,$22,8096
  400da8:	42 00 00 00 00 16 1d 16 	addu $22,$22,$29
  400db0:	34 00 00 00 00 00 0e 16 	sw $14,0($22)
  400db8:	a2 00 00 00 e1 00 0e 00 	lui $14,225
  400dc0:	51 00 00 00 90 1f 0e 0e 	ori $14,$14,8080
  400dc8:	42 00 00 00 00 0e 1d 0e 	addu $14,$14,$29
  400dd0:	28 00 00 00 00 00 13 0e 	lw $19,0($14)
  400dd8:	28 00 00 00 00 00 0e 0e 	lw $14,0($14)
  400de0:	a2 00 00 00 e1 00 13 00 	lui $19,225
  400de8:	51 00 00 00 a0 1f 13 13 	ori $19,$19,8096
  400df0:	42 00 00 00 00 13 1d 13 	addu $19,$19,$29
  400df8:	38 00 00 00 00 00 00 0e 	dsz 0($14)
  400e00:	28 00 00 00 00 00 16 13 	lw $22,0($19)
  400e08:	28 00 00 00 00 00 13 13 	lw $19,0($19)
  400e10:	a2 00 00 00 e1 00 16 00 	lui $22,225
  400e18:	51 00 00 00 38 1f 16 16 	ori $22,$22,7992
  400e20:	42 00 00 00 00 16 1d 16 	addu $22,$22,$29
  400e28:	38 00 00 00 00 00 00 13 	dsz 0($19)
  400e30:	28 00 00 00 00 00 0e 16 	lw $14,0($22)
  400e38:	28 00 00 00 e0 1e 02 0e 	lw $2,7904($14)
  400e40:	43 00 00 00 02 00 17 00 	addiu $23,$0,2
  400e48:	43 00 00 00 ff ff 1e 02 	addiu $30,$2,-1
  400e50:	5c 00 00 00 02 00 02 1e 	slti $2,$30,2
  400e58:	06 00 00 00 ac 02 00 02 	bne $2,$0,401910 <MAIN__+0x1720>
  400e60:	43 00 00 00 02 04 16 00 	addiu $22,$0,1026
  400e68:	a2 00 00 00 e1 00 13 00 	lui $19,225
  400e70:	51 00 00 00 88 1f 13 13 	ori $19,$19,8072
  400e78:	42 00 00 00 00 13 1d 13 	addu $19,$19,$29
  400e80:	34 00 00 00 00 00 16 13 	sw $22,0($19)
  400e88:	a2 00 00 00 e1 00 0e 00 	lui $14,225
  400e90:	51 00 00 00 38 1f 0e 0e 	ori $14,$14,7992
  400e98:	42 00 00 00 00 0e 1d 0e 	addu $14,$14,$29
  400ea0:	28 00 00 00 00 00 13 0e 	lw $19,0($14)
  400ea8:	a2 00 00 00 e1 00 16 00 	lui $22,225
  400eb0:	51 00 00 00 80 1f 16 16 	ori $22,$22,8064
  400eb8:	42 00 00 00 00 16 1d 16 	addu $22,$22,$29
  400ec0:	28 00 00 00 00 00 18 16 	lw $24,0($22)
  400ec8:	28 00 00 00 e0 1e 02 13 	lw $2,7904($19)
  400ed0:	a2 00 00 00 e1 00 0e 00 	lui $14,225
  400ed8:	51 00 00 00 70 1f 0e 0e 	ori $14,$14,8048
  400ee0:	42 00 00 00 00 0e 1d 0e 	addu $14,$14,$29
  400ee8:	43 00 00 00 ff ff 19 02 	addiu $25,$2,-1
  400ef0:	28 00 00 00 00 00 13 0e 	lw $19,0($14)
  400ef8:	43 00 00 00 02 00 16 00 	addiu $22,$0,2
  400f00:	5c 00 00 00 02 00 02 19 	slti $2,$25,2
  400f08:	34 00 00 00 00 00 16 13 	sw $22,0($19)
  400f10:	06 00 00 00 66 02 00 02 	bne $2,$0,4018b0 <MAIN__+0x16c0>
  400f18:	a2 00 00 00 e1 00 0e 00 	lui $14,225
  400f20:	51 00 00 00 88 1f 0e 0e 	ori $14,$14,8072
  400f28:	42 00 00 00 00 0e 1d 0e 	addu $14,$14,$29
  400f30:	28 00 00 00 00 00 13 0e 	lw $19,0($14)
  400f38:	a2 00 00 00 e1 00 0e 00 	lui $14,225
  400f40:	51 00 00 00 48 1f 0e 0e 	ori $14,$14,8008
  400f48:	42 00 00 00 00 0e 1d 0e 	addu $14,$14,$29
  400f50:	34 00 00 00 00 00 13 0e 	sw $19,0($14)
  400f58:	a2 00 00 00 20 00 0d 00 	lui $13,32
  400f60:	51 00 00 00 18 10 0d 0d 	ori $13,$13,4120
  400f68:	a2 00 00 00 40 00 0e 00 	lui $14,64
  400f70:	a2 00 00 00 e1 00 16 00 	lui $22,225
  400f78:	51 00 00 00 b8 1f 16 16 	ori $22,$22,8120
  400f80:	42 00 00 00 00 16 1d 16 	addu $22,$22,$29
  400f88:	34 00 00 00 00 00 0e 16 	sw $14,0($22)
  400f90:	a2 00 00 00 e1 00 13 00 	lui $19,225
  400f98:	51 00 00 00 b8 1f 13 13 	ori $19,$19,8120
  400fa0:	42 00 00 00 00 13 1d 13 	addu $19,$19,$29
  400fa8:	28 00 00 00 00 00 16 13 	lw $22,0($19)
  400fb0:	a2 00 00 00 40 00 0f 00 	lui $15,64
  400fb8:	51 00 00 00 20 30 0f 0f 	ori $15,$15,12320
  400fc0:	a2 00 00 00 20 00 10 00 	lui $16,32
  400fc8:	51 00 00 00 28 20 10 10 	ori $16,$16,8232
  400fd0:	a2 00 00 00 20 00 11 00 	lui $17,32
  400fd8:	51 00 00 00 18 00 11 11 	ori $17,$17,24
  400fe0:	a2 00 00 00 40 00 12 00 	lui $18,64
  400fe8:	51 00 00 00 30 40 12 12 	ori $18,$18,16432
  400ff0:	a2 00 00 00 e1 00 0e 00 	lui $14,225
  400ff8:	51 00 00 00 78 1f 0e 0e 	ori $14,$14,8056
  401000:	42 00 00 00 00 0e 1d 0e 	addu $14,$14,$29
  401008:	a2 00 00 00 40 00 14 00 	lui $20,64
  401010:	51 00 00 00 20 20 14 14 	ori $20,$20,8224
  401018:	42 00 00 00 00 10 10 18 	addu $16,$24,$16
  401020:	42 00 00 00 00 11 11 18 	addu $17,$24,$17
  401028:	42 00 00 00 00 12 12 18 	addu $18,$24,$18
  401030:	42 00 00 00 00 14 14 18 	addu $20,$24,$20
  401038:	42 00 00 00 00 0d 0d 18 	addu $13,$24,$13
  401040:	42 00 00 00 00 0f 0f 18 	addu $15,$24,$15
  401048:	a2 00 00 00 20 00 05 00 	lui $5,32
  401050:	51 00 00 00 20 10 05 05 	ori $5,$5,4128
  401058:	a2 00 00 00 40 00 06 00 	lui $6,64
  401060:	51 00 00 00 28 30 06 06 	ori $6,$6,12328
  401068:	a2 00 00 00 20 00 07 00 	lui $7,32
  401070:	51 00 00 00 20 00 07 07 	ori $7,$7,32
  401078:	a2 00 00 00 20 00 08 00 	lui $8,32
  401080:	51 00 00 00 20 20 08 08 	ori $8,$8,8224
  401088:	a2 00 00 00 20 00 09 00 	lui $9,32
  401090:	51 00 00 00 10 00 09 09 	ori $9,$9,16
  401098:	a2 00 00 00 40 00 0b 00 	lui $11,64
  4010a0:	51 00 00 00 28 20 0b 0b 	ori $11,$11,8232
  4010a8:	a2 00 00 00 40 00 0c 00 	lui $12,64
  4010b0:	51 00 00 00 28 40 0c 0c 	ori $12,$12,16424
  4010b8:	42 00 00 00 00 05 05 18 	addu $5,$24,$5
  4010c0:	42 00 00 00 00 06 06 18 	addu $6,$24,$6
  4010c8:	42 00 00 00 00 07 07 18 	addu $7,$24,$7
  4010d0:	42 00 00 00 00 08 08 18 	addu $8,$24,$8
  4010d8:	42 00 00 00 00 09 09 18 	addu $9,$24,$9
  4010e0:	42 00 00 00 00 0b 0b 18 	addu $11,$24,$11
  4010e8:	42 00 00 00 00 0c 0c 18 	addu $12,$24,$12
  4010f0:	51 00 00 00 30 30 16 16 	ori $22,$22,12336
  4010f8:	a2 00 00 00 e1 00 13 00 	lui $19,225
  401100:	51 00 00 00 b8 1f 13 13 	ori $19,$19,8120
  401108:	42 00 00 00 00 13 1d 13 	addu $19,$19,$29
  401110:	34 00 00 00 00 00 16 13 	sw $22,0($19)
  401118:	28 00 00 00 00 00 0e 0e 	lw $14,0($14)
  401120:	a2 00 00 00 e1 00 13 00 	lui $19,225
  401128:	51 00 00 00 48 1f 13 13 	ori $19,$19,8008
  401130:	42 00 00 00 00 13 1d 13 	addu $19,$19,$29
  401138:	28 00 00 00 00 00 13 13 	lw $19,0($19)
  401140:	a2 00 00 00 e1 00 16 00 	lui $22,225
  401148:	51 00 00 00 40 1f 16 16 	ori $22,$22,8000
  401150:	42 00 00 00 00 16 1d 16 	addu $22,$22,$29
  401158:	28 00 00 00 00 00 16 16 	lw $22,0($22)
  401160:	42 00 00 00 00 15 0e 18 	addu $21,$24,$14
  401168:	28 00 00 00 00 00 04 15 	lw $4,0($21)
  401170:	42 00 00 00 00 0a 16 18 	addu $10,$24,$22
  401178:	a2 00 00 00 e1 00 0e 00 	lui $14,225
  401180:	51 00 00 00 b8 1f 0e 0e 	ori $14,$14,8120
  401188:	42 00 00 00 00 0e 1d 0e 	addu $14,$14,$29
  401190:	a2 00 00 00 e1 00 16 00 	lui $22,225
  401198:	51 00 00 00 b8 1f 16 16 	ori $22,$22,8120
  4011a0:	42 00 00 00 00 16 1d 16 	addu $22,$22,$29
  4011a8:	42 00 00 00 00 04 04 13 	addu $4,$19,$4
  4011b0:	55 00 00 00 03 04 04 00 	sll $4,$4,0x3
  4011b8:	42 00 00 00 00 03 04 10 	addu $3,$16,$4
  4011c0:	42 00 00 00 00 02 04 11 	addu $2,$17,$4
  4011c8:	2b 00 00 00 00 00 06 03 	l.d $f6,0($3)
  4011d0:	2b 00 00 00 00 00 00 02 	l.d $f0,0($2)
  4011d8:	28 00 00 00 00 00 13 0e 	lw $19,0($14)
  4011e0:	42 00 00 00 00 03 04 12 	addu $3,$18,$4
  4011e8:	73 00 00 00 00 06 00 06 	sub.d $f6,$f6,$f0
  4011f0:	42 00 00 00 00 02 04 14 	addu $2,$20,$4
  4011f8:	2b 00 00 00 00 00 08 03 	l.d $f8,0($3)
  401200:	42 00 00 00 00 13 13 18 	addu $19,$24,$19
  401208:	2b 00 00 00 00 00 00 02 	l.d $f0,0($2)
  401210:	75 00 00 00 00 16 06 06 	mul.d $f22,$f6,$f6
  401218:	a2 00 00 00 e1 00 0e 00 	lui $14,225
  401220:	51 00 00 00 b8 1f 0e 0e 	ori $14,$14,8120
  401228:	73 00 00 00 00 08 00 08 	sub.d $f8,$f8,$f0
  401230:	42 00 00 00 00 03 04 0a 	addu $3,$10,$4
  401238:	2b 00 00 00 00 00 0e 03 	l.d $f14,0($3)
  401240:	42 00 00 00 00 02 04 0d 	addu $2,$13,$4
  401248:	2b 00 00 00 00 00 00 02 	l.d $f0,0($2)
  401250:	42 00 00 00 00 0e 1d 0e 	addu $14,$14,$29
  401258:	75 00 00 00 00 02 08 08 	mul.d $f2,$f8,$f8
  401260:	34 00 00 00 00 00 13 0e 	sw $19,0($14)
  401268:	28 00 00 00 00 00 16 16 	lw $22,0($22)
  401270:	42 00 00 00 00 02 04 0f 	addu $2,$15,$4
  401278:	73 00 00 00 00 0e 00 0e 	sub.d $f14,$f14,$f0
  401280:	a2 00 00 00 20 00 13 00 	lui $19,32
  401288:	42 00 00 00 00 03 04 16 	addu $3,$22,$4
  401290:	2b 00 00 00 00 00 04 03 	l.d $f4,0($3)
  401298:	75 00 00 00 00 14 0e 0e 	mul.d $f20,$f14,$f14
  4012a0:	2b 00 00 00 00 00 00 02 	l.d $f0,0($2)
  4012a8:	a2 00 00 00 e1 00 0e 00 	lui $14,225
  4012b0:	51 00 00 00 b0 1f 0e 0e 	ori $14,$14,8112
  4012b8:	42 00 00 00 00 0e 1d 0e 	addu $14,$14,$29
  4012c0:	73 00 00 00 00 04 00 04 	sub.d $f4,$f4,$f0
  4012c8:	a2 00 00 00 e1 00 16 00 	lui $22,225
  4012d0:	51 00 00 00 b0 1f 16 16 	ori $22,$22,8112
  4012d8:	42 00 00 00 00 16 1d 16 	addu $22,$22,$29
  4012e0:	34 00 00 00 00 00 13 0e 	sw $19,0($14)
  4012e8:	75 00 00 00 00 00 04 04 	mul.d $f0,$f4,$f4
  4012f0:	28 00 00 00 00 00 0e 16 	lw $14,0($22)
  4012f8:	a2 00 00 00 e1 00 13 00 	lui $19,225
  401300:	51 00 00 00 a8 1f 13 13 	ori $19,$19,8104
  401308:	71 00 00 00 00 16 02 16 	add.d $f22,$f22,$f2
  401310:	42 00 00 00 00 13 1d 13 	addu $19,$19,$29
  401318:	51 00 00 00 30 20 0e 0e 	ori $14,$14,8240
  401320:	a2 00 00 00 e1 00 16 00 	lui $22,225
  401328:	51 00 00 00 b0 1f 16 16 	ori $22,$22,8112
  401330:	75 00 00 00 00 16 1a 16 	mul.d $f22,$f22,$f26
  401338:	42 00 00 00 00 16 1d 16 	addu $22,$22,$29
  401340:	34 00 00 00 00 00 0e 16 	sw $14,0($22)
  401348:	a2 00 00 00 40 00 16 00 	lui $22,64
  401350:	34 00 00 00 00 00 16 13 	sw $22,0($19)
  401358:	a2 00 00 00 e1 00 0e 00 	lui $14,225
  401360:	51 00 00 00 a8 1f 0e 0e 	ori $14,$14,8104
  401368:	75 00 00 00 00 0e 06 0e 	mul.d $f14,$f14,$f6
  401370:	42 00 00 00 00 0e 1d 0e 	addu $14,$14,$29
  401378:	28 00 00 00 00 00 13 0e 	lw $19,0($14)
  401380:	a2 00 00 00 e1 00 16 00 	lui $22,225
  401388:	51 00 00 00 50 1f 16 16 	ori $22,$22,8016
  401390:	71 00 00 00 00 14 00 14 	add.d $f20,$f20,$f0
  401398:	42 00 00 00 00 16 1d 16 	addu $22,$22,$29
  4013a0:	2b 00 00 00 28 80 02 1c 	l.d $f2,-32728($28)
  4013a8:	51 00 00 00 38 40 13 13 	ori $19,$19,16440
  4013b0:	75 00 00 00 00 14 1a 14 	mul.d $f20,$f20,$f26
  4013b8:	a2 00 00 00 e1 00 0e 00 	lui $14,225
  4013c0:	51 00 00 00 a8 1f 0e 0e 	ori $14,$14,8104
  4013c8:	42 00 00 00 00 0e 1d 0e 	addu $14,$14,$29
  4013d0:	34 00 00 00 00 00 13 0e 	sw $19,0($14)
  4013d8:	28 00 00 00 00 00 16 16 	lw $22,0($22)
  4013e0:	a2 00 00 00 e1 00 0e 00 	lui $14,225
  4013e8:	51 00 00 00 58 1f 0e 0e 	ori $14,$14,8024
  4013f0:	42 00 00 00 00 0e 1d 0e 	addu $14,$14,$29
  4013f8:	75 00 00 00 00 04 08 04 	mul.d $f4,$f4,$f8
  401400:	a2 00 00 00 e1 00 13 00 	lui $19,225
  401408:	51 00 00 00 48 1f 13 13 	ori $19,$19,8008
  401410:	42 00 00 00 00 13 1d 13 	addu $19,$19,$29
  401418:	42 00 00 00 00 02 16 18 	addu $2,$24,$22
  401420:	42 00 00 00 00 02 04 02 	addu $2,$2,$4
  401428:	a2 00 00 00 e1 00 16 00 	lui $22,225
  401430:	51 00 00 00 48 1f 16 16 	ori $22,$22,8008
  401438:	42 00 00 00 00 16 1d 16 	addu $22,$22,$29
  401440:	7d 00 00 00 00 00 00 14 	neg.d $f0,$f20
  401448:	75 00 00 00 00 02 02 16 	mul.d $f2,$f22,$f2
  401450:	71 00 00 00 00 0e 04 0e 	add.d $f14,$f14,$f4
  401458:	37 00 00 00 00 00 00 02 	s.d $f0,0($2)
  401460:	28 00 00 00 00 00 02 15 	lw $2,0($21)
  401468:	28 00 00 00 00 00 0e 0e 	lw $14,0($14)
  401470:	28 00 00 00 00 00 13 13 	lw $19,0($19)
  401478:	2b 00 00 00 20 80 18 1c 	l.d $f24,-32736($28)
  401480:	71 00 00 00 00 00 14 14 	add.d $f0,$f20,$f20
  401488:	42 00 00 00 00 03 0e 18 	addu $3,$24,$14
  401490:	42 00 00 00 00 02 02 13 	addu $2,$19,$2
  401498:	55 00 00 00 03 02 02 00 	sll $2,$2,0x3
  4014a0:	71 00 00 00 00 00 02 00 	add.d $f0,$f0,$f2
  4014a8:	42 00 00 00 00 03 02 03 	addu $3,$3,$2
  4014b0:	a2 00 00 00 e1 00 0e 00 	lui $14,225
  4014b8:	51 00 00 00 b8 1f 0e 0e 	ori $14,$14,8120
  4014c0:	42 00 00 00 00 0e 1d 0e 	addu $14,$14,$29
  4014c8:	37 00 00 00 00 00 00 03 	s.d $f0,0($3)
  4014d0:	28 00 00 00 00 00 03 15 	lw $3,0($21)
  4014d8:	28 00 00 00 00 00 16 16 	lw $22,0($22)
  4014e0:	75 00 00 00 00 0e 18 0e 	mul.d $f14,$f14,$f24
  4014e8:	28 00 00 00 00 00 13 0e 	lw $19,0($14)
  4014f0:	42 00 00 00 00 03 03 16 	addu $3,$22,$3
  4014f8:	55 00 00 00 03 03 03 00 	sll $3,$3,0x3
  401500:	42 00 00 00 00 0a 03 0a 	addu $10,$10,$3
  401508:	42 00 00 00 00 05 03 05 	addu $5,$5,$3
  401510:	2b 00 00 00 00 00 00 05 	l.d $f0,0($5)
  401518:	2b 00 00 00 00 00 08 0a 	l.d $f8,0($10)
  401520:	42 00 00 00 00 0d 03 0d 	addu $13,$13,$3
  401528:	2b 00 00 00 00 00 02 0d 	l.d $f2,0($13)
  401530:	42 00 00 00 00 13 03 13 	addu $19,$19,$3
  401538:	a2 00 00 00 e1 00 0e 00 	lui $14,225
  401540:	51 00 00 00 b8 1f 0e 0e 	ori $14,$14,8120
  401548:	42 00 00 00 00 0e 1d 0e 	addu $14,$14,$29
  401550:	42 00 00 00 00 06 03 06 	addu $6,$6,$3
  401558:	42 00 00 00 00 0f 03 0f 	addu $15,$15,$3
  401560:	42 00 00 00 00 10 03 10 	addu $16,$16,$3
  401568:	42 00 00 00 00 11 03 11 	addu $17,$17,$3
  401570:	42 00 00 00 00 12 03 12 	addu $18,$18,$3
  401578:	42 00 00 00 00 02 18 03 	addu $2,$3,$24
  401580:	34 00 00 00 00 00 13 0e 	sw $19,0($14)
  401588:	71 00 00 00 00 00 00 00 	add.d $f0,$f0,$f0
  401590:	2b 00 00 00 00 00 0c 06 	l.d $f12,0($6)
  401598:	a2 00 00 00 e1 00 16 00 	lui $22,225
  4015a0:	51 00 00 00 b0 1f 16 16 	ori $22,$22,8112
  4015a8:	42 00 00 00 00 16 1d 16 	addu $22,$22,$29
  4015b0:	71 00 00 00 00 0c 0c 0c 	add.d $f12,$f12,$f12
  4015b8:	42 00 00 00 00 07 03 07 	addu $7,$7,$3
  4015c0:	42 00 00 00 00 08 03 08 	addu $8,$8,$3
  4015c8:	a2 00 00 00 e1 00 0e 00 	lui $14,225
  4015d0:	51 00 00 00 b8 1f 0e 0e 	ori $14,$14,8120
  4015d8:	73 00 00 00 00 08 00 08 	sub.d $f8,$f8,$f0
  4015e0:	2b 00 00 00 00 00 0a 10 	l.d $f10,0($16)
  4015e8:	42 00 00 00 00 0e 1d 0e 	addu $14,$14,$29
  4015f0:	28 00 00 00 00 00 13 0e 	lw $19,0($14)
  4015f8:	73 00 00 00 00 0a 00 0a 	sub.d $f10,$f10,$f0
  401600:	42 00 00 00 00 09 03 09 	addu $9,$9,$3
  401608:	42 00 00 00 00 14 03 14 	addu $20,$20,$3
  401610:	2b 00 00 00 00 00 1c 13 	l.d $f28,0($19)
  401618:	71 00 00 00 00 08 02 08 	add.d $f8,$f8,$f2
  401620:	2b 00 00 00 00 00 06 11 	l.d $f6,0($17)
  401628:	28 00 00 00 00 00 0e 16 	lw $14,0($22)
  401630:	7b 00 00 00 00 12 00 1c 	mov.d $f18,$f28
  401638:	73 00 00 00 00 12 0c 12 	sub.d $f18,$f18,$f12
  401640:	75 00 00 00 00 08 08 16 	mul.d $f8,$f22,$f8
  401648:	2b 00 00 00 00 00 10 12 	l.d $f16,0($18)
  401650:	42 00 00 00 00 0e 0e 02 	addu $14,$2,$14
  401658:	71 00 00 00 00 0a 06 0a 	add.d $f10,$f10,$f6
  401660:	a2 00 00 00 e1 00 16 00 	lui $22,225
  401668:	51 00 00 00 b0 1f 16 16 	ori $22,$22,8112
  401670:	42 00 00 00 00 16 1d 16 	addu $22,$22,$29
  401678:	2b 00 00 00 00 00 02 0f 	l.d $f2,0($15)
  401680:	73 00 00 00 00 10 0c 10 	sub.d $f16,$f16,$f12
  401688:	75 00 00 00 00 0a 0a 14 	mul.d $f10,$f20,$f10
  401690:	34 00 00 00 00 00 0e 16 	sw $14,0($22)
  401698:	a2 00 00 00 e1 00 0e 00 	lui $14,225
  4016a0:	51 00 00 00 b0 1f 0e 0e 	ori $14,$14,8112
  4016a8:	42 00 00 00 00 0e 1d 0e 	addu $14,$14,$29
  4016b0:	28 00 00 00 00 00 13 0e 	lw $19,0($14)
  4016b8:	71 00 00 00 00 12 02 12 	add.d $f18,$f18,$f2
  4016c0:	2b 00 00 00 00 00 06 14 	l.d $f6,0($20)
  4016c8:	42 00 00 00 00 0b 03 0b 	addu $11,$11,$3
  4016d0:	2b 00 00 00 00 00 1c 13 	l.d $f28,0($19)
  4016d8:	71 00 00 00 00 10 06 10 	add.d $f16,$f16,$f6
  4016e0:	2b 00 00 00 00 00 02 07 	l.d $f2,0($7)
  4016e8:	7b 00 00 00 00 04 00 1c 	mov.d $f4,$f28
  4016f0:	75 00 00 00 00 16 12 16 	mul.d $f22,$f22,$f18
  4016f8:	73 00 00 00 00 04 02 04 	sub.d $f4,$f4,$f2
  401700:	42 00 00 00 00 0c 03 0c 	addu $12,$12,$3
  401708:	2b 00 00 00 00 00 00 08 	l.d $f0,0($8)
  401710:	a2 00 00 00 e1 00 16 00 	lui $22,225
  401718:	51 00 00 00 a8 1f 16 16 	ori $22,$22,8104
  401720:	71 00 00 00 00 08 0a 08 	add.d $f8,$f8,$f10
  401728:	42 00 00 00 00 16 1d 16 	addu $22,$22,$29
  401730:	28 00 00 00 00 00 16 16 	lw $22,0($22)
  401738:	75 00 00 00 00 14 10 14 	mul.d $f20,$f20,$f16
  401740:	73 00 00 00 00 04 00 04 	sub.d $f4,$f4,$f0
  401748:	2b 00 00 00 00 00 02 09 	l.d $f2,0($9)
  401750:	42 00 00 00 00 02 16 02 	addu $2,$2,$22
  401758:	a2 00 00 00 e1 00 0e 00 	lui $14,225
  401760:	51 00 00 00 60 1f 0e 0e 	ori $14,$14,8032
  401768:	71 00 00 00 00 04 02 04 	add.d $f4,$f4,$f2
  401770:	42 00 00 00 00 0e 1d 0e 	addu $14,$14,$29
  401778:	2b 00 00 00 00 00 06 0c 	l.d $f6,0($12)
  401780:	2b 00 00 00 00 00 00 02 	l.d $f0,0($2)
  401788:	71 00 00 00 00 16 14 16 	add.d $f22,$f22,$f20
  401790:	2b 00 00 00 00 00 02 0b 	l.d $f2,0($11)
  401798:	a2 00 00 00 40 00 02 00 	lui $2,64
  4017a0:	51 00 00 00 18 20 02 02 	ori $2,$2,8216
  4017a8:	73 00 00 00 00 00 02 00 	sub.d $f0,$f0,$f2
  4017b0:	42 00 00 00 00 02 02 18 	addu $2,$24,$2
  4017b8:	42 00 00 00 00 02 03 02 	addu $2,$2,$3
  4017c0:	75 00 00 00 00 04 04 0e 	mul.d $f4,$f14,$f4
  4017c8:	73 00 00 00 00 00 06 00 	sub.d $f0,$f0,$f6
  4017d0:	2b 00 00 00 00 00 02 02 	l.d $f2,0($2)
  4017d8:	28 00 00 00 00 00 0e 0e 	lw $14,0($14)
  4017e0:	a2 00 00 00 e1 00 16 00 	lui $22,225
  4017e8:	51 00 00 00 48 1f 16 16 	ori $22,$22,8008
  4017f0:	71 00 00 00 00 00 02 00 	add.d $f0,$f0,$f2
  4017f8:	42 00 00 00 00 16 1d 16 	addu $22,$22,$29
  401800:	a2 00 00 00 e1 00 13 00 	lui $19,225
  401808:	51 00 00 00 68 1f 13 13 	ori $19,$19,8040
  401810:	42 00 00 00 00 13 1d 13 	addu $19,$19,$29
  401818:	73 00 00 00 00 08 04 08 	sub.d $f8,$f8,$f4
  401820:	75 00 00 00 00 0e 00 0e 	mul.d $f14,$f14,$f0
  401828:	42 00 00 00 00 02 0e 18 	addu $2,$24,$14
  401830:	42 00 00 00 00 02 03 02 	addu $2,$2,$3
  401838:	37 00 00 00 00 00 08 02 	s.d $f8,0($2)
  401840:	28 00 00 00 00 00 13 13 	lw $19,0($19)
  401848:	28 00 00 00 00 00 02 15 	lw $2,0($21)
  401850:	28 00 00 00 00 00 16 16 	lw $22,0($22)
  401858:	42 00 00 00 00 03 13 18 	addu $3,$24,$19
  401860:	73 00 00 00 00 16 0e 16 	sub.d $f22,$f22,$f14
  401868:	42 00 00 00 00 02 02 16 	addu $2,$22,$2
  401870:	55 00 00 00 03 02 02 00 	sll $2,$2,0x3
  401878:	42 00 00 00 00 03 02 03 	addu $3,$3,$2
  401880:	37 00 00 00 00 00 16 03 	s.d $f22,0($3)
  401888:	28 00 00 00 00 00 02 15 	lw $2,0($21)
  401890:	43 00 00 00 01 00 02 02 	addiu $2,$2,1
  401898:	34 00 00 00 00 00 02 15 	sw $2,0($21)
  4018a0:	5b 00 00 00 00 02 02 19 	slt $2,$25,$2
  4018a8:	05 00 00 00 aa fd 00 02 	beq $2,$0,400f58 <MAIN__+0xd68>
  4018b0:	a2 00 00 00 e1 00 0e 00 	lui $14,225
  4018b8:	51 00 00 00 88 1f 0e 0e 	ori $14,$14,8072
  4018c0:	42 00 00 00 00 0e 1d 0e 	addu $14,$14,$29
  4018c8:	28 00 00 00 00 00 13 0e 	lw $19,0($14)
  4018d0:	43 00 00 00 01 00 17 17 	addiu $23,$23,1
  4018d8:	5b 00 00 00 00 02 17 1e 	slt $2,$30,$23
  4018e0:	43 00 00 00 01 02 13 13 	addiu $19,$19,513
  4018e8:	a2 00 00 00 e1 00 0e 00 	lui $14,225
  4018f0:	51 00 00 00 88 1f 0e 0e 	ori $14,$14,8072
  4018f8:	42 00 00 00 00 0e 1d 0e 	addu $14,$14,$29
  401900:	34 00 00 00 00 00 13 0e 	sw $19,0($14)
  401908:	05 00 00 00 5e fd 00 02 	beq $2,$0,400e88 <MAIN__+0xc98>
  401910:	a2 00 00 00 e1 00 16 00 	lui $22,225
  401918:	51 00 00 00 38 1f 16 16 	ori $22,$22,7992
  401920:	42 00 00 00 00 16 1d 16 	addu $22,$22,$29
  401928:	28 00 00 00 00 00 0e 16 	lw $14,0($22)
  401930:	28 00 00 00 e0 1e 02 0e 	lw $2,7904($14)
  401938:	43 00 00 00 02 00 17 00 	addiu $23,$0,2
  401940:	43 00 00 00 ff ff 1e 02 	addiu $30,$2,-1
  401948:	5c 00 00 00 02 00 02 1e 	slti $2,$30,2
  401950:	06 00 00 00 e0 00 00 02 	bne $2,$0,401cd8 <MAIN__+0x1ae8>
  401958:	a2 00 00 00 e1 00 13 00 	lui $19,225
  401960:	51 00 00 00 98 1f 13 13 	ori $19,$19,8088
  401968:	42 00 00 00 00 13 1d 13 	addu $19,$19,$29
  401970:	28 00 00 00 00 00 08 13 	lw $8,0($19)
  401978:	a5 00 00 00 00 00 00 06 	mtc1 $0,$f6
  401980:	a5 00 00 00 00 00 00 07 	mtc1 $0,$f7
  401988:	43 00 00 00 02 04 07 00 	addiu $7,$0,1026
  401990:	a2 00 00 00 e1 00 16 00 	lui $22,225
  401998:	51 00 00 00 38 1f 16 16 	ori $22,$22,7992
  4019a0:	42 00 00 00 00 16 1d 16 	addu $22,$22,$29
  4019a8:	28 00 00 00 00 00 0e 16 	lw $14,0($22)
  4019b0:	a2 00 00 00 e1 00 13 00 	lui $19,225
  4019b8:	51 00 00 00 80 1f 13 13 	ori $19,$19,8064
  4019c0:	42 00 00 00 00 13 1d 13 	addu $19,$19,$29
  4019c8:	28 00 00 00 00 00 04 13 	lw $4,0($19)
  4019d0:	28 00 00 00 e0 1e 02 0e 	lw $2,7904($14)
  4019d8:	a2 00 00 00 e1 00 16 00 	lui $22,225
  4019e0:	51 00 00 00 70 1f 16 16 	ori $22,$22,8048
  4019e8:	42 00 00 00 00 16 1d 16 	addu $22,$22,$29
  4019f0:	43 00 00 00 ff ff 19 02 	addiu $25,$2,-1
  4019f8:	28 00 00 00 00 00 0e 16 	lw $14,0($22)
  401a00:	43 00 00 00 02 00 13 00 	addiu $19,$0,2
  401a08:	5c 00 00 00 02 00 02 19 	slti $2,$25,2
  401a10:	34 00 00 00 00 00 13 0e 	sw $19,0($14)
  401a18:	06 00 00 00 a6 00 00 02 	bne $2,$0,401cb8 <MAIN__+0x1ac8>
  401a20:	a2 00 00 00 e1 00 16 00 	lui $22,225
  401a28:	51 00 00 00 30 1f 16 16 	ori $22,$22,7984
  401a30:	a2 00 00 00 e1 00 0e 00 	lui $14,225
  401a38:	51 00 00 00 80 1f 0e 0e 	ori $14,$14,8064
  401a40:	42 00 00 00 00 0e 1d 0e 	addu $14,$14,$29
  401a48:	28 00 00 00 00 00 13 0e 	lw $19,0($14)
  401a50:	42 00 00 00 00 16 1d 16 	addu $22,$22,$29
  401a58:	28 00 00 00 00 00 16 16 	lw $22,0($22)
  401a60:	a2 00 00 00 e1 00 0e 00 	lui $14,225
  401a68:	51 00 00 00 68 1f 0e 0e 	ori $14,$14,8040
  401a70:	42 00 00 00 00 0e 1d 0e 	addu $14,$14,$29
  401a78:	28 00 00 00 00 00 0e 0e 	lw $14,0($14)
  401a80:	42 00 00 00 00 06 07 00 	addu $6,$0,$7
  401a88:	42 00 00 00 00 05 08 16 	addu $5,$22,$8
  401a90:	42 00 00 00 00 0a 0e 13 	addu $10,$19,$14
  401a98:	a2 00 00 00 e1 00 13 00 	lui $19,225
  401aa0:	51 00 00 00 80 1f 13 13 	ori $19,$19,8064
  401aa8:	42 00 00 00 00 13 1d 13 	addu $19,$19,$29
  401ab0:	28 00 00 00 00 00 09 13 	lw $9,0($19)
  401ab8:	a2 00 00 00 e1 00 16 00 	lui $22,225
  401ac0:	51 00 00 00 78 1f 16 16 	ori $22,$22,8056
  401ac8:	42 00 00 00 00 16 1d 16 	addu $22,$22,$29
  401ad0:	28 00 00 00 00 00 16 16 	lw $22,0($22)
  401ad8:	a2 00 00 00 e1 00 0e 00 	lui $14,225
  401ae0:	51 00 00 00 60 1f 0e 0e 	ori $14,$14,8032
  401ae8:	42 00 00 00 00 0e 1d 0e 	addu $14,$14,$29
  401af0:	28 00 00 00 00 00 0e 0e 	lw $14,0($14)
  401af8:	a2 00 00 00 e1 00 13 00 	lui $19,225
  401b00:	51 00 00 00 28 1f 13 13 	ori $19,$19,7976
  401b08:	42 00 00 00 00 13 1d 13 	addu $19,$19,$29
  401b10:	42 00 00 00 00 02 16 04 	addu $2,$4,$22
  401b18:	28 00 00 00 00 00 02 02 	lw $2,0($2)
  401b20:	28 00 00 00 00 00 13 13 	lw $19,0($19)
  401b28:	42 00 00 00 00 03 0e 04 	addu $3,$4,$14
  401b30:	42 00 00 00 00 02 02 06 	addu $2,$6,$2
  401b38:	55 00 00 00 03 02 02 00 	sll $2,$2,0x3
  401b40:	42 00 00 00 00 03 02 03 	addu $3,$3,$2
  401b48:	2b 00 00 00 00 00 02 03 	l.d $f2,0($3)
  401b50:	42 00 00 00 00 02 13 04 	addu $2,$4,$19
  401b58:	42 00 00 00 00 02 08 02 	addu $2,$2,$8
  401b60:	2b 00 00 00 00 00 04 02 	l.d $f4,0($2)
  401b68:	95 00 00 00 00 00 02 06 	c.le.d $f6,$f2
  401b70:	7b 00 00 00 00 00 00 02 	mov.d $f0,$f2
  401b78:	0c 00 00 00 02 00 00 00 	bc1t 401b88 <MAIN__+0x1998>
  401b80:	7d 00 00 00 00 00 00 02 	neg.d $f0,$f2
  401b88:	95 00 00 00 00 00 04 00 	c.le.d $f0,$f4
  401b90:	0b 00 00 00 04 00 00 00 	bc1f 401ba8 <MAIN__+0x19b8>
  401b98:	37 00 00 00 00 00 04 02 	s.d $f4,0($2)
  401ba0:	01 00 00 00 ec 06 10 00 	j 401bb0 <MAIN__+0x19c0>
  401ba8:	37 00 00 00 00 00 00 02 	s.d $f0,0($2)
  401bb0:	a2 00 00 00 e1 00 16 00 	lui $22,225
  401bb8:	51 00 00 00 70 1f 16 16 	ori $22,$22,8048
  401bc0:	42 00 00 00 00 16 1d 16 	addu $22,$22,$29
  401bc8:	28 00 00 00 00 00 0e 16 	lw $14,0($22)
  401bd0:	28 00 00 00 00 00 02 0e 	lw $2,0($14)
  401bd8:	42 00 00 00 00 02 02 06 	addu $2,$6,$2
  401be0:	55 00 00 00 03 02 02 00 	sll $2,$2,0x3
  401be8:	42 00 00 00 00 02 02 0a 	addu $2,$10,$2
  401bf0:	2b 00 00 00 00 00 02 02 	l.d $f2,0($2)
  401bf8:	2b 00 00 00 00 00 04 05 	l.d $f4,0($5)
  401c00:	95 00 00 00 00 00 02 06 	c.le.d $f6,$f2
  401c08:	7b 00 00 00 00 00 00 02 	mov.d $f0,$f2
  401c10:	0c 00 00 00 02 00 00 00 	bc1t 401c20 <MAIN__+0x1a30>
  401c18:	7d 00 00 00 00 00 00 02 	neg.d $f0,$f2
  401c20:	95 00 00 00 00 00 04 00 	c.le.d $f0,$f4
  401c28:	0b 00 00 00 04 00 00 00 	bc1f 401c40 <MAIN__+0x1a50>
  401c30:	37 00 00 00 00 00 04 05 	s.d $f4,0($5)
  401c38:	01 00 00 00 12 07 10 00 	j 401c48 <MAIN__+0x1a58>
  401c40:	37 00 00 00 00 00 00 05 	s.d $f0,0($5)
  401c48:	a2 00 00 00 e1 00 13 00 	lui $19,225
  401c50:	51 00 00 00 70 1f 13 13 	ori $19,$19,8048
  401c58:	42 00 00 00 00 13 1d 13 	addu $19,$19,$29
  401c60:	28 00 00 00 00 00 16 13 	lw $22,0($19)
  401c68:	a2 00 00 00 e1 00 0e 00 	lui $14,225
  401c70:	51 00 00 00 70 1f 0e 0e 	ori $14,$14,8048
  401c78:	42 00 00 00 00 0e 1d 0e 	addu $14,$14,$29
  401c80:	28 00 00 00 00 00 02 16 	lw $2,0($22)
  401c88:	28 00 00 00 00 00 13 0e 	lw $19,0($14)
  401c90:	42 00 00 00 00 04 09 00 	addu $4,$0,$9
  401c98:	43 00 00 00 01 00 02 02 	addiu $2,$2,1
  401ca0:	34 00 00 00 00 00 02 13 	sw $2,0($19)
  401ca8:	5b 00 00 00 00 02 02 19 	slt $2,$25,$2
  401cb0:	05 00 00 00 80 ff 00 02 	beq $2,$0,401ab8 <MAIN__+0x18c8>
  401cb8:	43 00 00 00 01 02 07 07 	addiu $7,$7,513
  401cc0:	43 00 00 00 01 00 17 17 	addiu $23,$23,1
  401cc8:	5b 00 00 00 00 02 17 1e 	slt $2,$30,$23
  401cd0:	05 00 00 00 2e ff 00 02 	beq $2,$0,401990 <MAIN__+0x17a0>
  401cd8:	a2 00 00 00 e1 00 16 00 	lui $22,225
  401ce0:	51 00 00 00 38 1f 16 16 	ori $22,$22,7992
  401ce8:	42 00 00 00 00 16 1d 16 	addu $22,$22,$29
  401cf0:	28 00 00 00 00 00 0e 16 	lw $14,0($22)
  401cf8:	a2 00 00 00 e1 00 13 00 	lui $19,225
  401d00:	51 00 00 00 80 1f 13 13 	ori $19,$19,8064
  401d08:	42 00 00 00 00 13 1d 13 	addu $19,$19,$29
  401d10:	28 00 00 00 00 00 05 13 	lw $5,0($19)
  401d18:	28 00 00 00 e0 1e 02 0e 	lw $2,7904($14)
  401d20:	a2 00 00 00 e1 00 16 00 	lui $22,225
  401d28:	51 00 00 00 70 1f 16 16 	ori $22,$22,8048
  401d30:	42 00 00 00 00 16 1d 16 	addu $22,$22,$29
  401d38:	43 00 00 00 ff ff 19 02 	addiu $25,$2,-1
  401d40:	28 00 00 00 00 00 0e 16 	lw $14,0($22)
  401d48:	43 00 00 00 02 00 13 00 	addiu $19,$0,2
  401d50:	5c 00 00 00 02 00 02 19 	slti $2,$25,2
  401d58:	34 00 00 00 00 00 13 0e 	sw $19,0($14)
  401d60:	06 00 00 00 2c 00 00 02 	bne $2,$0,401e18 <MAIN__+0x1c28>
  401d68:	43 00 00 00 38 10 07 1d 	addiu $7,$29,4152
  401d70:	a2 00 00 00 80 00 06 00 	lui $6,128
  401d78:	51 00 00 00 48 90 06 06 	ori $6,$6,36936
  401d80:	2b 00 00 00 30 80 02 1c 	l.d $f2,-32720($28)
  401d88:	a2 00 00 00 e1 00 16 00 	lui $22,225
  401d90:	51 00 00 00 78 1f 16 16 	ori $22,$22,8056
  401d98:	42 00 00 00 00 16 1d 16 	addu $22,$22,$29
  401da0:	28 00 00 00 00 00 16 16 	lw $22,0($22)
  401da8:	42 00 00 00 00 04 16 05 	addu $4,$5,$22
  401db0:	28 00 00 00 00 00 03 04 	lw $3,0($4)
  401db8:	42 00 00 00 00 02 06 05 	addu $2,$5,$6
  401dc0:	55 00 00 00 03 03 03 00 	sll $3,$3,0x3
  401dc8:	42 00 00 00 00 02 03 02 	addu $2,$2,$3
  401dd0:	2b 00 00 00 00 00 00 02 	l.d $f0,0($2)
  401dd8:	77 00 00 00 00 00 00 02 	div.d $f0,$f2,$f0
  401de0:	42 00 00 00 00 03 03 07 	addu $3,$7,$3
  401de8:	37 00 00 00 00 00 00 03 	s.d $f0,0($3)
  401df0:	28 00 00 00 00 00 02 04 	lw $2,0($4)
  401df8:	43 00 00 00 01 00 02 02 	addiu $2,$2,1
  401e00:	34 00 00 00 00 00 02 04 	sw $2,0($4)
  401e08:	5b 00 00 00 00 02 02 19 	slt $2,$25,$2
  401e10:	05 00 00 00 dc ff 00 02 	beq $2,$0,401d88 <MAIN__+0x1b98>
  401e18:	a2 00 00 00 e1 00 0e 00 	lui $14,225
  401e20:	51 00 00 00 38 1f 0e 0e 	ori $14,$14,7992
  401e28:	42 00 00 00 00 0e 1d 0e 	addu $14,$14,$29
  401e30:	28 00 00 00 00 00 13 0e 	lw $19,0($14)
  401e38:	28 00 00 00 e0 1e 02 13 	lw $2,7904($19)
  401e40:	43 00 00 00 03 00 17 00 	addiu $23,$0,3
  401e48:	43 00 00 00 ff ff 19 02 	addiu $25,$2,-1
  401e50:	5c 00 00 00 03 00 02 19 	slti $2,$25,3
  401e58:	06 00 00 00 ce 00 00 02 	bne $2,$0,402198 <MAIN__+0x1fa8>
  401e60:	43 00 00 00 20 e0 0d 1d 	addiu $13,$29,-8160
  401e68:	43 00 00 00 28 f0 0c 1d 	addiu $12,$29,-4056
  401e70:	a2 00 00 00 60 00 0b 00 	lui $11,96
  401e78:	51 00 00 00 28 40 0b 0b 	ori $11,$11,16424
  401e80:	2b 00 00 00 30 80 06 1c 	l.d $f6,-32720($28)
  401e88:	43 00 00 00 03 06 08 00 	addiu $8,$0,1539
  401e90:	a2 00 00 00 e1 00 16 00 	lui $22,225
  401e98:	51 00 00 00 38 1f 16 16 	ori $22,$22,7992
  401ea0:	42 00 00 00 00 16 1d 16 	addu $22,$22,$29
  401ea8:	28 00 00 00 00 00 0e 16 	lw $14,0($22)
  401eb0:	a2 00 00 00 e1 00 13 00 	lui $19,225
  401eb8:	51 00 00 00 80 1f 13 13 	ori $19,$19,8064
  401ec0:	42 00 00 00 00 13 1d 13 	addu $19,$19,$29
  401ec8:	28 00 00 00 00 00 06 13 	lw $6,0($19)
  401ed0:	28 00 00 00 e0 1e 02 0e 	lw $2,7904($14)
  401ed8:	a2 00 00 00 e1 00 16 00 	lui $22,225
  401ee0:	51 00 00 00 70 1f 16 16 	ori $22,$22,8048
  401ee8:	42 00 00 00 00 16 1d 16 	addu $22,$22,$29
  401ef0:	43 00 00 00 ff ff 1e 02 	addiu $30,$2,-1
  401ef8:	28 00 00 00 00 00 0e 16 	lw $14,0($22)
  401f00:	43 00 00 00 02 00 13 00 	addiu $19,$0,2
  401f08:	5c 00 00 00 02 00 02 1e 	slti $2,$30,2
  401f10:	34 00 00 00 00 00 13 0e 	sw $19,0($14)
  401f18:	06 00 00 00 96 00 00 02 	bne $2,$0,402178 <MAIN__+0x1f88>
  401f20:	42 00 00 00 00 07 08 00 	addu $7,$0,$8
  401f28:	a2 00 00 00 a0 00 0a 00 	lui $10,160
  401f30:	51 00 00 00 38 80 0a 0a 	ori $10,$10,32824
  401f38:	a2 00 00 00 c0 00 09 00 	lui $9,192
  401f40:	51 00 00 00 40 a0 09 09 	ori $9,$9,41024
  401f48:	a2 00 00 00 e1 00 16 00 	lui $22,225
  401f50:	51 00 00 00 78 1f 16 16 	ori $22,$22,8056
  401f58:	42 00 00 00 00 16 1d 16 	addu $22,$22,$29
  401f60:	28 00 00 00 00 00 16 16 	lw $22,0($22)
  401f68:	a2 00 00 00 e1 00 0e 00 	lui $14,225
  401f70:	51 00 00 00 50 1f 0e 0e 	ori $14,$14,8016
  401f78:	42 00 00 00 00 0e 1d 0e 	addu $14,$14,$29
  401f80:	28 00 00 00 00 00 0e 0e 	lw $14,0($14)
  401f88:	42 00 00 00 00 05 16 06 	addu $5,$6,$22
  401f90:	28 00 00 00 00 00 03 05 	lw $3,0($5)
  401f98:	42 00 00 00 00 02 0e 06 	addu $2,$6,$14
  401fa0:	42 00 00 00 00 03 03 07 	addu $3,$7,$3
  401fa8:	55 00 00 00 03 03 03 00 	sll $3,$3,0x3
  401fb0:	42 00 00 00 00 02 03 02 	addu $2,$2,$3
  401fb8:	42 00 00 00 00 04 03 0d 	addu $4,$13,$3
  401fc0:	2b 00 00 00 00 00 04 02 	l.d $f4,0($2)
  401fc8:	2b 00 00 00 00 00 00 04 	l.d $f0,0($4)
  401fd0:	75 00 00 00 00 04 00 04 	mul.d $f4,$f4,$f0
  401fd8:	a2 00 00 00 e1 00 13 00 	lui $19,225
  401fe0:	51 00 00 00 58 1f 13 13 	ori $19,$19,8024
  401fe8:	42 00 00 00 00 02 0b 06 	addu $2,$6,$11
  401ff0:	42 00 00 00 00 02 03 02 	addu $2,$2,$3
  401ff8:	2b 00 00 00 00 00 02 02 	l.d $f2,0($2)
  402000:	42 00 00 00 00 13 1d 13 	addu $19,$19,$29
  402008:	28 00 00 00 00 00 13 13 	lw $19,0($19)
  402010:	75 00 00 00 00 02 04 02 	mul.d $f2,$f2,$f4
  402018:	42 00 00 00 00 02 13 06 	addu $2,$6,$19
  402020:	42 00 00 00 00 02 03 02 	addu $2,$2,$3
  402028:	2b 00 00 00 00 00 00 02 	l.d $f0,0($2)
  402030:	73 00 00 00 00 00 02 00 	sub.d $f0,$f0,$f2
  402038:	77 00 00 00 00 00 00 06 	div.d $f0,$f6,$f0
  402040:	42 00 00 00 00 03 03 0c 	addu $3,$12,$3
  402048:	37 00 00 00 00 00 00 03 	s.d $f0,0($3)
  402050:	28 00 00 00 00 00 03 05 	lw $3,0($5)
  402058:	a2 00 00 00 e1 00 16 00 	lui $22,225
  402060:	51 00 00 00 60 1f 16 16 	ori $22,$22,8032
  402068:	42 00 00 00 00 02 0a 06 	addu $2,$6,$10
  402070:	42 00 00 00 00 03 03 07 	addu $3,$7,$3
  402078:	55 00 00 00 03 03 03 00 	sll $3,$3,0x3
  402080:	42 00 00 00 00 02 03 02 	addu $2,$2,$3
  402088:	2b 00 00 00 00 00 02 02 	l.d $f2,0($2)
  402090:	42 00 00 00 00 16 1d 16 	addu $22,$22,$29
  402098:	28 00 00 00 00 00 16 16 	lw $22,0($22)
  4020a0:	75 00 00 00 00 02 04 02 	mul.d $f2,$f2,$f4
  4020a8:	42 00 00 00 00 02 16 06 	addu $2,$6,$22
  4020b0:	42 00 00 00 00 02 03 02 	addu $2,$2,$3
  4020b8:	2b 00 00 00 00 00 00 02 	l.d $f0,0($2)
  4020c0:	73 00 00 00 00 00 02 00 	sub.d $f0,$f0,$f2
  4020c8:	37 00 00 00 00 00 00 02 	s.d $f0,0($2)
  4020d0:	28 00 00 00 00 00 03 05 	lw $3,0($5)
  4020d8:	a2 00 00 00 e1 00 0e 00 	lui $14,225
  4020e0:	51 00 00 00 68 1f 0e 0e 	ori $14,$14,8040
  4020e8:	42 00 00 00 00 02 09 06 	addu $2,$6,$9
  4020f0:	42 00 00 00 00 03 03 07 	addu $3,$7,$3
  4020f8:	55 00 00 00 03 03 03 00 	sll $3,$3,0x3
  402100:	42 00 00 00 00 02 03 02 	addu $2,$2,$3
  402108:	2b 00 00 00 00 00 02 02 	l.d $f2,0($2)
  402110:	42 00 00 00 00 0e 1d 0e 	addu $14,$14,$29
  402118:	28 00 00 00 00 00 0e 0e 	lw $14,0($14)
  402120:	75 00 00 00 00 02 04 02 	mul.d $f2,$f2,$f4
  402128:	42 00 00 00 00 02 0e 06 	addu $2,$6,$14
  402130:	42 00 00 00 00 02 03 02 	addu $2,$2,$3
  402138:	2b 00 00 00 00 00 00 02 	l.d $f0,0($2)
  402140:	73 00 00 00 00 00 02 00 	sub.d $f0,$f0,$f2
  402148:	37 00 00 00 00 00 00 02 	s.d $f0,0($2)
  402150:	28 00 00 00 00 00 02 05 	lw $2,0($5)
  402158:	43 00 00 00 01 00 02 02 	addiu $2,$2,1
  402160:	34 00 00 00 00 00 02 05 	sw $2,0($5)
  402168:	5b 00 00 00 00 02 02 1e 	slt $2,$30,$2
  402170:	05 00 00 00 74 ff 00 02 	beq $2,$0,401f48 <MAIN__+0x1d58>
  402178:	43 00 00 00 01 02 08 08 	addiu $8,$8,513
  402180:	43 00 00 00 01 00 17 17 	addiu $23,$23,1
  402188:	5b 00 00 00 00 02 17 19 	slt $2,$25,$23
  402190:	05 00 00 00 3e ff 00 02 	beq $2,$0,401e90 <MAIN__+0x1ca0>
  402198:	a2 00 00 00 e1 00 13 00 	lui $19,225
  4021a0:	51 00 00 00 38 1f 13 13 	ori $19,$19,7992
  4021a8:	42 00 00 00 00 13 1d 13 	addu $19,$19,$29
  4021b0:	28 00 00 00 00 00 16 13 	lw $22,0($19)
  4021b8:	a2 00 00 00 e1 00 0e 00 	lui $14,225
  4021c0:	51 00 00 00 80 1f 0e 0e 	ori $14,$14,8064
  4021c8:	42 00 00 00 00 0e 1d 0e 	addu $14,$14,$29
  4021d0:	28 00 00 00 00 00 08 0e 	lw $8,0($14)
  4021d8:	28 00 00 00 e0 1e 02 16 	lw $2,7904($22)
  4021e0:	a2 00 00 00 e1 00 13 00 	lui $19,225
  4021e8:	51 00 00 00 70 1f 13 13 	ori $19,$19,8048
  4021f0:	42 00 00 00 00 13 1d 13 	addu $19,$19,$29
  4021f8:	43 00 00 00 ff ff 1e 02 	addiu $30,$2,-1
  402200:	28 00 00 00 00 00 16 13 	lw $22,0($19)
  402208:	43 00 00 00 02 00 0e 00 	addiu $14,$0,2
  402210:	5c 00 00 00 02 00 02 1e 	slti $2,$30,2
  402218:	34 00 00 00 00 00 0e 16 	sw $14,0($22)
  402220:	06 00 00 00 56 00 00 02 	bne $2,$0,402380 <MAIN__+0x2190>
  402228:	a2 00 00 00 a0 00 0b 00 	lui $11,160
  402230:	51 00 00 00 38 80 0b 0b 	ori $11,$11,32824
  402238:	43 00 00 00 20 e0 09 1d 	addiu $9,$29,-8160
  402240:	a2 00 00 00 c0 00 0a 00 	lui $10,192
  402248:	51 00 00 00 40 a0 0a 0a 	ori $10,$10,41024
  402250:	a2 00 00 00 e1 00 13 00 	lui $19,225
  402258:	42 00 00 00 00 06 13 08 	addu $6,$8,$19
  402260:	a2 00 00 00 e1 00 16 00 	lui $22,225
  402268:	51 00 00 00 78 1f 16 16 	ori $22,$22,8056
  402270:	42 00 00 00 00 16 1d 16 	addu $22,$22,$29
  402278:	28 00 00 00 00 00 16 16 	lw $22,0($22)
  402280:	28 00 00 00 e0 1e 03 06 	lw $3,7904($6)
  402288:	42 00 00 00 00 05 0b 08 	addu $5,$8,$11
  402290:	42 00 00 00 00 07 16 08 	addu $7,$8,$22
  402298:	28 00 00 00 00 00 04 07 	lw $4,0($7)
  4022a0:	55 00 00 00 09 02 03 00 	sll $2,$3,0x9
  4022a8:	42 00 00 00 00 02 03 02 	addu $2,$2,$3
  4022b0:	42 00 00 00 00 02 04 02 	addu $2,$2,$4
  4022b8:	55 00 00 00 03 02 02 00 	sll $2,$2,0x3
  4022c0:	42 00 00 00 00 05 02 05 	addu $5,$5,$2
  4022c8:	42 00 00 00 00 02 02 09 	addu $2,$9,$2
  4022d0:	2b 00 00 00 00 00 00 05 	l.d $f0,0($5)
  4022d8:	2b 00 00 00 00 00 02 02 	l.d $f2,0($2)
  4022e0:	75 00 00 00 00 00 02 00 	mul.d $f0,$f0,$f2
  4022e8:	37 00 00 00 00 00 00 05 	s.d $f0,0($5)
  4022f0:	28 00 00 00 e0 1e 03 06 	lw $3,7904($6)
  4022f8:	42 00 00 00 00 04 0a 08 	addu $4,$8,$10
  402300:	28 00 00 00 00 00 05 07 	lw $5,0($7)
  402308:	55 00 00 00 09 02 03 00 	sll $2,$3,0x9
  402310:	42 00 00 00 00 02 03 02 	addu $2,$2,$3
  402318:	42 00 00 00 00 02 05 02 	addu $2,$2,$5
  402320:	55 00 00 00 03 02 02 00 	sll $2,$2,0x3
  402328:	42 00 00 00 00 04 02 04 	addu $4,$4,$2
  402330:	42 00 00 00 00 02 02 09 	addu $2,$9,$2
  402338:	2b 00 00 00 00 00 00 04 	l.d $f0,0($4)
  402340:	2b 00 00 00 00 00 02 02 	l.d $f2,0($2)
  402348:	75 00 00 00 00 00 02 00 	mul.d $f0,$f0,$f2
  402350:	37 00 00 00 00 00 00 04 	s.d $f0,0($4)
  402358:	28 00 00 00 00 00 02 07 	lw $2,0($7)
  402360:	43 00 00 00 01 00 02 02 	addiu $2,$2,1
  402368:	34 00 00 00 00 00 02 07 	sw $2,0($7)
  402370:	5b 00 00 00 00 02 02 1e 	slt $2,$30,$2
  402378:	05 00 00 00 b4 ff 00 02 	beq $2,$0,402250 <MAIN__+0x2060>
  402380:	a2 00 00 00 e1 00 0e 00 	lui $14,225
  402388:	51 00 00 00 38 1f 0e 0e 	ori $14,$14,7992
  402390:	42 00 00 00 00 0e 1d 0e 	addu $14,$14,$29
  402398:	28 00 00 00 00 00 13 0e 	lw $19,0($14)
  4023a0:	28 00 00 00 e0 1e 02 13 	lw $2,7904($19)
  4023a8:	43 00 00 00 fe ff 17 02 	addiu $23,$2,-2
  4023b0:	5c 00 00 00 02 00 02 17 	slti $2,$23,2
  4023b8:	06 00 00 00 ae 00 00 02 	bne $2,$0,402678 <MAIN__+0x2488>
  4023c0:	a2 00 00 00 a0 00 0c 00 	lui $12,160
  4023c8:	51 00 00 00 48 a0 0c 0c 	ori $12,$12,41032
  4023d0:	43 00 00 00 28 f0 0a 1d 	addiu $10,$29,-4056
  4023d8:	a2 00 00 00 c0 00 0b 00 	lui $11,192
  4023e0:	51 00 00 00 50 c0 0b 0b 	ori $11,$11,49232
  4023e8:	55 00 00 00 09 02 17 00 	sll $2,$23,0x9
  4023f0:	42 00 00 00 00 09 17 02 	addu $9,$2,$23
  4023f8:	a2 00 00 00 e1 00 16 00 	lui $22,225
  402400:	51 00 00 00 38 1f 16 16 	ori $22,$22,7992
  402408:	42 00 00 00 00 16 1d 16 	addu $22,$22,$29
  402410:	28 00 00 00 00 00 0e 16 	lw $14,0($22)
  402418:	a2 00 00 00 e1 00 13 00 	lui $19,225
  402420:	51 00 00 00 80 1f 13 13 	ori $19,$19,8064
  402428:	42 00 00 00 00 13 1d 13 	addu $19,$19,$29
  402430:	28 00 00 00 00 00 07 13 	lw $7,0($19)
  402438:	28 00 00 00 e0 1e 02 0e 	lw $2,7904($14)
  402440:	a2 00 00 00 e1 00 16 00 	lui $22,225
  402448:	51 00 00 00 70 1f 16 16 	ori $22,$22,8048
  402450:	42 00 00 00 00 16 1d 16 	addu $22,$22,$29
  402458:	43 00 00 00 ff ff 1e 02 	addiu $30,$2,-1
  402460:	28 00 00 00 00 00 0e 16 	lw $14,0($22)
  402468:	43 00 00 00 02 00 13 00 	addiu $19,$0,2
  402470:	5c 00 00 00 02 00 02 1e 	slti $2,$30,2
  402478:	34 00 00 00 00 00 13 0e 	sw $19,0($14)
  402480:	06 00 00 00 74 00 00 02 	bne $2,$0,402658 <MAIN__+0x2468>
  402488:	42 00 00 00 00 08 09 00 	addu $8,$0,$9
  402490:	a2 00 00 00 e1 00 16 00 	lui $22,225
  402498:	51 00 00 00 78 1f 16 16 	ori $22,$22,8056
  4024a0:	42 00 00 00 00 16 1d 16 	addu $22,$22,$29
  4024a8:	28 00 00 00 00 00 16 16 	lw $22,0($22)
  4024b0:	a2 00 00 00 e1 00 0e 00 	lui $14,225
  4024b8:	51 00 00 00 50 1f 0e 0e 	ori $14,$14,8016
  4024c0:	42 00 00 00 00 0e 1d 0e 	addu $14,$14,$29
  4024c8:	28 00 00 00 00 00 0e 0e 	lw $14,0($14)
  4024d0:	42 00 00 00 00 02 0c 07 	addu $2,$7,$12
  4024d8:	42 00 00 00 00 06 16 07 	addu $6,$7,$22
  4024e0:	28 00 00 00 00 00 03 06 	lw $3,0($6)
  4024e8:	a2 00 00 00 e1 00 13 00 	lui $19,225
  4024f0:	51 00 00 00 60 1f 13 13 	ori $19,$19,8032
  4024f8:	42 00 00 00 00 05 0e 07 	addu $5,$7,$14
  402500:	42 00 00 00 00 03 03 08 	addu $3,$8,$3
  402508:	55 00 00 00 03 03 03 00 	sll $3,$3,0x3
  402510:	42 00 00 00 00 04 03 05 	addu $4,$5,$3
  402518:	42 00 00 00 00 02 03 02 	addu $2,$2,$3
  402520:	2b 00 00 00 00 00 04 04 	l.d $f4,0($4)
  402528:	2b 00 00 00 00 00 00 02 	l.d $f0,0($2)
  402530:	42 00 00 00 00 13 1d 13 	addu $19,$19,$29
  402538:	28 00 00 00 00 00 13 13 	lw $19,0($19)
  402540:	75 00 00 00 00 04 00 04 	mul.d $f4,$f4,$f0
  402548:	42 00 00 00 00 02 13 07 	addu $2,$7,$19
  402550:	42 00 00 00 00 02 03 02 	addu $2,$2,$3
  402558:	2b 00 00 00 00 00 02 02 	l.d $f2,0($2)
  402560:	42 00 00 00 00 03 03 0a 	addu $3,$10,$3
  402568:	73 00 00 00 00 02 04 02 	sub.d $f2,$f2,$f4
  402570:	2b 00 00 00 00 00 00 03 	l.d $f0,0($3)
  402578:	75 00 00 00 00 02 00 02 	mul.d $f2,$f2,$f0
  402580:	37 00 00 00 00 00 02 02 	s.d $f2,0($2)
  402588:	28 00 00 00 00 00 03 06 	lw $3,0($6)
  402590:	a2 00 00 00 e1 00 16 00 	lui $22,225
  402598:	51 00 00 00 68 1f 16 16 	ori $22,$22,8040
  4025a0:	42 00 00 00 00 02 0b 07 	addu $2,$7,$11
  4025a8:	42 00 00 00 00 03 03 08 	addu $3,$8,$3
  4025b0:	55 00 00 00 03 03 03 00 	sll $3,$3,0x3
  4025b8:	42 00 00 00 00 05 03 05 	addu $5,$5,$3
  4025c0:	42 00 00 00 00 02 03 02 	addu $2,$2,$3
  4025c8:	2b 00 00 00 00 00 04 05 	l.d $f4,0($5)
  4025d0:	2b 00 00 00 00 00 00 02 	l.d $f0,0($2)
  4025d8:	42 00 00 00 00 16 1d 16 	addu $22,$22,$29
  4025e0:	28 00 00 00 00 00 16 16 	lw $22,0($22)
  4025e8:	75 00 00 00 00 04 00 04 	mul.d $f4,$f4,$f0
  4025f0:	42 00 00 00 00 02 16 07 	addu $2,$7,$22
  4025f8:	42 00 00 00 00 02 03 02 	addu $2,$2,$3
  402600:	2b 00 00 00 00 00 02 02 	l.d $f2,0($2)
  402608:	42 00 00 00 00 03 03 0a 	addu $3,$10,$3
  402610:	73 00 00 00 00 02 04 02 	sub.d $f2,$f2,$f4
  402618:	2b 00 00 00 00 00 00 03 	l.d $f0,0($3)
  402620:	75 00 00 00 00 02 00 02 	mul.d $f2,$f2,$f0
  402628:	37 00 00 00 00 00 02 02 	s.d $f2,0($2)
  402630:	28 00 00 00 00 00 02 06 	lw $2,0($6)
  402638:	43 00 00 00 01 00 02 02 	addiu $2,$2,1
  402640:	34 00 00 00 00 00 02 06 	sw $2,0($6)
  402648:	5b 00 00 00 00 02 02 1e 	slt $2,$30,$2
  402650:	05 00 00 00 8e ff 00 02 	beq $2,$0,402490 <MAIN__+0x22a0>
  402658:	43 00 00 00 ff fd 09 09 	addiu $9,$9,-513
  402660:	43 00 00 00 ff ff 17 17 	addiu $23,$23,-1
  402668:	5c 00 00 00 02 00 02 17 	slti $2,$23,2
  402670:	05 00 00 00 60 ff 00 02 	beq $2,$0,4023f8 <MAIN__+0x2208>
  402678:	a2 00 00 00 e1 00 0e 00 	lui $14,225
  402680:	51 00 00 00 38 1f 0e 0e 	ori $14,$14,7992
  402688:	42 00 00 00 00 0e 1d 0e 	addu $14,$14,$29
  402690:	28 00 00 00 00 00 13 0e 	lw $19,0($14)
  402698:	28 00 00 00 e0 1e 02 13 	lw $2,7904($19)
  4026a0:	43 00 00 00 02 00 17 00 	addiu $23,$0,2
  4026a8:	43 00 00 00 ff ff 1e 02 	addiu $30,$2,-1
  4026b0:	5c 00 00 00 02 00 02 1e 	slti $2,$30,2
  4026b8:	06 00 00 00 88 00 00 02 	bne $2,$0,4028e0 <MAIN__+0x26f0>
  4026c0:	a2 00 00 00 20 00 0a 00 	lui $10,32
  4026c8:	51 00 00 00 20 10 0a 0a 	ori $10,$10,4128
  4026d0:	a2 00 00 00 40 00 09 00 	lui $9,64
  4026d8:	51 00 00 00 28 30 09 09 	ori $9,$9,12328
  4026e0:	43 00 00 00 02 04 08 00 	addiu $8,$0,1026
  4026e8:	a2 00 00 00 e1 00 16 00 	lui $22,225
  4026f0:	51 00 00 00 38 1f 16 16 	ori $22,$22,7992
  4026f8:	42 00 00 00 00 16 1d 16 	addu $22,$22,$29
  402700:	28 00 00 00 00 00 0e 16 	lw $14,0($22)
  402708:	a2 00 00 00 e1 00 13 00 	lui $19,225
  402710:	51 00 00 00 80 1f 13 13 	ori $19,$19,8064
  402718:	42 00 00 00 00 13 1d 13 	addu $19,$19,$29
  402720:	28 00 00 00 00 00 06 13 	lw $6,0($19)
  402728:	28 00 00 00 e0 1e 02 0e 	lw $2,7904($14)
  402730:	a2 00 00 00 e1 00 16 00 	lui $22,225
  402738:	51 00 00 00 70 1f 16 16 	ori $22,$22,8048
  402740:	42 00 00 00 00 16 1d 16 	addu $22,$22,$29
  402748:	43 00 00 00 ff ff 19 02 	addiu $25,$2,-1
  402750:	28 00 00 00 00 00 0e 16 	lw $14,0($22)
  402758:	43 00 00 00 02 00 13 00 	addiu $19,$0,2
  402760:	5c 00 00 00 02 00 02 19 	slti $2,$25,2
  402768:	34 00 00 00 00 00 13 0e 	sw $19,0($14)
  402770:	06 00 00 00 52 00 00 02 	bne $2,$0,4028c0 <MAIN__+0x26d0>
  402778:	42 00 00 00 00 07 08 00 	addu $7,$0,$8
  402780:	a2 00 00 00 e1 00 16 00 	lui $22,225
  402788:	51 00 00 00 78 1f 16 16 	ori $22,$22,8056
  402790:	42 00 00 00 00 16 1d 16 	addu $22,$22,$29
  402798:	28 00 00 00 00 00 16 16 	lw $22,0($22)
  4027a0:	a2 00 00 00 e1 00 0e 00 	lui $14,225
  4027a8:	51 00 00 00 60 1f 0e 0e 	ori $14,$14,8032
  4027b0:	42 00 00 00 00 0e 1d 0e 	addu $14,$14,$29
  4027b8:	28 00 00 00 00 00 0e 0e 	lw $14,0($14)
  4027c0:	42 00 00 00 00 05 16 06 	addu $5,$6,$22
  4027c8:	28 00 00 00 00 00 03 05 	lw $3,0($5)
  4027d0:	42 00 00 00 00 04 0a 06 	addu $4,$6,$10
  4027d8:	42 00 00 00 00 02 0e 06 	addu $2,$6,$14
  4027e0:	42 00 00 00 00 03 03 07 	addu $3,$7,$3
  4027e8:	55 00 00 00 03 03 03 00 	sll $3,$3,0x3
  4027f0:	42 00 00 00 00 04 03 04 	addu $4,$4,$3
  4027f8:	42 00 00 00 00 02 03 02 	addu $2,$2,$3
  402800:	2b 00 00 00 00 00 02 04 	l.d $f2,0($4)
  402808:	2b 00 00 00 00 00 00 02 	l.d $f0,0($2)
  402810:	71 00 00 00 00 02 00 02 	add.d $f2,$f2,$f0
  402818:	a2 00 00 00 e1 00 13 00 	lui $19,225
  402820:	51 00 00 00 68 1f 13 13 	ori $19,$19,8040
  402828:	42 00 00 00 00 13 1d 13 	addu $19,$19,$29
  402830:	37 00 00 00 00 00 02 04 	s.d $f2,0($4)
  402838:	28 00 00 00 00 00 03 05 	lw $3,0($5)
  402840:	42 00 00 00 00 04 09 06 	addu $4,$6,$9
  402848:	28 00 00 00 00 00 13 13 	lw $19,0($19)
  402850:	42 00 00 00 00 03 03 07 	addu $3,$7,$3
  402858:	55 00 00 00 03 03 03 00 	sll $3,$3,0x3
  402860:	42 00 00 00 00 04 03 04 	addu $4,$4,$3
  402868:	42 00 00 00 00 02 13 06 	addu $2,$6,$19
  402870:	42 00 00 00 00 02 03 02 	addu $2,$2,$3
  402878:	2b 00 00 00 00 00 02 04 	l.d $f2,0($4)
  402880:	2b 00 00 00 00 00 00 02 	l.d $f0,0($2)
  402888:	71 00 00 00 00 02 00 02 	add.d $f2,$f2,$f0
  402890:	37 00 00 00 00 00 02 04 	s.d $f2,0($4)
  402898:	28 00 00 00 00 00 02 05 	lw $2,0($5)
  4028a0:	43 00 00 00 01 00 02 02 	addiu $2,$2,1
  4028a8:	34 00 00 00 00 00 02 05 	sw $2,0($5)
  4028b0:	5b 00 00 00 00 02 02 19 	slt $2,$25,$2
  4028b8:	05 00 00 00 b0 ff 00 02 	beq $2,$0,402780 <MAIN__+0x2590>
  4028c0:	43 00 00 00 01 02 08 08 	addiu $8,$8,513
  4028c8:	43 00 00 00 01 00 17 17 	addiu $23,$23,1
  4028d0:	5b 00 00 00 00 02 17 1e 	slt $2,$30,$23
  4028d8:	05 00 00 00 82 ff 00 02 	beq $2,$0,4026e8 <MAIN__+0x24f8>
  4028e0:	a2 00 00 00 e1 00 0e 00 	lui $14,225
  4028e8:	51 00 00 00 90 1f 0e 0e 	ori $14,$14,8080
  4028f0:	42 00 00 00 00 0e 1d 0e 	addu $14,$14,$29
  4028f8:	28 00 00 00 00 00 13 0e 	lw $19,0($14)
  402900:	2b 00 00 00 00 00 1c 13 	l.d $f28,0($19)
  402908:	a5 00 00 00 00 00 00 04 	mtc1 $0,$f4
  402910:	a5 00 00 00 00 00 00 05 	mtc1 $0,$f5
  402918:	7b 00 00 00 00 02 00 1c 	mov.d $f2,$f28
  402920:	95 00 00 00 00 00 02 04 	c.le.d $f4,$f2
  402928:	0c 00 00 00 02 00 00 00 	bc1t 402938 <MAIN__+0x2748>
  402930:	7d 00 00 00 00 02 00 02 	neg.d $f2,$f2
  402938:	a2 00 00 00 e1 00 16 00 	lui $22,225
  402940:	51 00 00 00 30 1f 16 16 	ori $22,$22,7984
  402948:	42 00 00 00 00 16 1d 16 	addu $22,$22,$29
  402950:	28 00 00 00 00 00 0e 16 	lw $14,0($22)
  402958:	a2 00 00 00 e1 00 16 00 	lui $22,225
  402960:	51 00 00 00 98 1f 16 16 	ori $22,$22,8088
  402968:	42 00 00 00 00 16 1d 16 	addu $22,$22,$29
  402970:	28 00 00 00 00 00 16 16 	lw $22,0($22)
  402978:	42 00 00 00 00 02 16 0e 	addu $2,$14,$22
  402980:	2b 00 00 00 00 00 00 02 	l.d $f0,0($2)
  402988:	95 00 00 00 00 00 00 04 	c.le.d $f4,$f0
  402990:	0c 00 00 00 02 00 00 00 	bc1t 4029a0 <MAIN__+0x27b0>
  402998:	7d 00 00 00 00 00 00 00 	neg.d $f0,$f0
  4029a0:	2b 00 00 00 38 80 04 1c 	l.d $f4,-32712($28)
  4029a8:	95 00 00 00 00 00 04 02 	c.le.d $f2,$f4
  4029b0:	0b 00 00 00 04 00 00 00 	bc1f 4029c8 <MAIN__+0x27d8>
  4029b8:	95 00 00 00 00 00 04 00 	c.le.d $f0,$f4
  4029c0:	0c 00 00 00 5c 00 00 00 	bc1t 402b38 <MAIN__+0x2948>
  4029c8:	a2 00 00 00 e1 00 0e 00 	lui $14,225
  4029d0:	51 00 00 00 90 1f 0e 0e 	ori $14,$14,8080
  4029d8:	42 00 00 00 00 0e 1d 0e 	addu $14,$14,$29
  4029e0:	28 00 00 00 00 00 13 0e 	lw $19,0($14)
  4029e8:	a2 00 00 00 e1 00 16 00 	lui $22,225
  4029f0:	51 00 00 00 98 1f 16 16 	ori $22,$22,8088
  4029f8:	42 00 00 00 00 16 1d 16 	addu $22,$22,$29
  402a00:	43 00 00 00 08 00 13 13 	addiu $19,$19,8
  402a08:	a2 00 00 00 e1 00 0e 00 	lui $14,225
  402a10:	51 00 00 00 90 1f 0e 0e 	ori $14,$14,8080
  402a18:	42 00 00 00 00 0e 1d 0e 	addu $14,$14,$29
  402a20:	34 00 00 00 00 00 13 0e 	sw $19,0($14)
  402a28:	28 00 00 00 00 00 0e 16 	lw $14,0($22)
  402a30:	a2 00 00 00 e1 00 13 00 	lui $19,225
  402a38:	51 00 00 00 a0 1f 13 13 	ori $19,$19,8096
  402a40:	42 00 00 00 00 13 1d 13 	addu $19,$19,$29
  402a48:	43 00 00 00 08 00 0e 0e 	addiu $14,$14,8
  402a50:	a2 00 00 00 e1 00 16 00 	lui $22,225
  402a58:	51 00 00 00 98 1f 16 16 	ori $22,$22,8088
  402a60:	42 00 00 00 00 16 1d 16 	addu $22,$22,$29
  402a68:	34 00 00 00 00 00 0e 16 	sw $14,0($22)
  402a70:	28 00 00 00 00 00 16 13 	lw $22,0($19)
  402a78:	a2 00 00 00 e1 00 0e 00 	lui $14,225
  402a80:	51 00 00 00 20 1f 0e 0e 	ori $14,$14,7968
  402a88:	42 00 00 00 00 0e 1d 0e 	addu $14,$14,$29
  402a90:	43 00 00 00 08 00 16 16 	addiu $22,$22,8
  402a98:	a2 00 00 00 e1 00 13 00 	lui $19,225
  402aa0:	51 00 00 00 a0 1f 13 13 	ori $19,$19,8096
  402aa8:	42 00 00 00 00 13 1d 13 	addu $19,$19,$29
  402ab0:	34 00 00 00 00 00 16 13 	sw $22,0($19)
  402ab8:	28 00 00 00 00 00 13 0e 	lw $19,0($14)
  402ac0:	a2 00 00 00 e1 00 16 00 	lui $22,225
  402ac8:	51 00 00 00 18 1f 16 16 	ori $22,$22,7960
  402ad0:	42 00 00 00 00 16 1d 16 	addu $22,$22,$29
  402ad8:	43 00 00 00 01 00 13 13 	addiu $19,$19,1
  402ae0:	a2 00 00 00 e1 00 0e 00 	lui $14,225
  402ae8:	51 00 00 00 20 1f 0e 0e 	ori $14,$14,7968
  402af0:	42 00 00 00 00 0e 1d 0e 	addu $14,$14,$29
  402af8:	34 00 00 00 00 00 13 0e 	sw $19,0($14)
  402b00:	28 00 00 00 00 00 0e 16 	lw $14,0($22)
  402b08:	a2 00 00 00 e1 00 16 00 	lui $22,225
  402b10:	51 00 00 00 20 1f 16 16 	ori $22,$22,7968
  402b18:	42 00 00 00 00 16 1d 16 	addu $22,$22,$29
  402b20:	28 00 00 00 00 00 16 16 	lw $22,0($22)
  402b28:	5b 00 00 00 00 02 16 0e 	slt $2,$14,$22
  402b30:	05 00 00 00 a0 f8 00 02 	beq $2,$0,400db8 <MAIN__+0xbc8>
  402b38:	a2 00 00 00 00 10 04 00 	lui $4,4096
  402b40:	43 00 00 00 80 25 04 04 	addiu $4,$4,9600
  402b48:	02 00 00 00 54 2b 10 00 	jal 40ad50 <s_wsfe>
  402b50:	02 00 00 00 9a 2a 10 00 	jal 40aa68 <e_wsfe>
  402b58:	a2 00 00 00 00 10 04 00 	lui $4,4096
  402b60:	43 00 00 00 94 25 04 04 	addiu $4,$4,9620
  402b68:	02 00 00 00 54 2b 10 00 	jal 40ad50 <s_wsfe>
  402b70:	02 00 00 00 9a 2a 10 00 	jal 40aa68 <e_wsfe>
  402b78:	a2 00 00 00 e1 00 0e 00 	lui $14,225
  402b80:	51 00 00 00 20 1f 0e 0e 	ori $14,$14,7968
  402b88:	42 00 00 00 00 0e 1d 0e 	addu $14,$14,$29
  402b90:	28 00 00 00 00 00 0e 0e 	lw $14,0($14)
  402b98:	a2 00 00 00 e1 00 02 00 	lui $2,225
  402ba0:	51 00 00 00 00 1f 02 02 	ori $2,$2,7936
  402ba8:	43 00 00 00 10 00 05 1d 	addiu $5,$29,16
  402bb0:	42 00 00 00 00 03 02 05 	addu $3,$5,$2
  402bb8:	43 00 00 00 01 00 02 00 	addiu $2,$0,1
  402bc0:	43 00 00 00 ff ff 13 0e 	addiu $19,$14,-1
  402bc8:	a2 00 00 00 e1 00 0e 00 	lui $14,225
  402bd0:	51 00 00 00 18 1f 0e 0e 	ori $14,$14,7960
  402bd8:	42 00 00 00 00 0e 1d 0e 	addu $14,$14,$29
  402be0:	34 00 00 00 00 00 13 0e 	sw $19,0($14)
  402be8:	a2 00 00 00 e1 00 13 00 	lui $19,225
  402bf0:	51 00 00 00 18 1f 13 13 	ori $19,$19,7960
  402bf8:	42 00 00 00 00 13 1d 13 	addu $19,$19,$29
  402c00:	34 00 00 00 00 00 02 03 	sw $2,0($3)
  402c08:	28 00 00 00 00 00 13 13 	lw $19,0($19)
  402c10:	07 00 00 00 52 00 00 13 	blez $19,402d60 <MAIN__+0x2b70>
  402c18:	42 00 00 00 00 11 03 00 	addu $17,$0,$3
  402c20:	a2 00 00 00 e0 00 02 00 	lui $2,224
  402c28:	51 00 00 00 60 e0 02 02 	ori $2,$2,57440
  402c30:	42 00 00 00 00 14 02 05 	addu $20,$5,$2
  402c38:	a2 00 00 00 e1 00 02 00 	lui $2,225
  402c40:	42 00 00 00 00 10 02 05 	addu $16,$5,$2
  402c48:	a2 00 00 00 e0 00 02 00 	lui $2,224
  402c50:	51 00 00 00 a0 ff 02 02 	ori $2,$2,65440
  402c58:	42 00 00 00 00 12 02 05 	addu $18,$5,$2
  402c60:	a2 00 00 00 00 10 04 00 	lui $4,4096
  402c68:	43 00 00 00 a8 25 04 04 	addiu $4,$4,9640
  402c70:	02 00 00 00 54 2b 10 00 	jal 40ad50 <s_wsfe>
  402c78:	43 00 00 00 04 80 04 1c 	addiu $4,$28,-32764
  402c80:	42 00 00 00 00 05 11 00 	addu $5,$0,$17
  402c88:	43 00 00 00 04 00 06 00 	addiu $6,$0,4
  402c90:	02 00 00 00 24 28 10 00 	jal 40a090 <do_fio>
  402c98:	28 00 00 00 00 1f 05 10 	lw $5,7936($16)
  402ca0:	43 00 00 00 04 80 04 1c 	addiu $4,$28,-32764
  402ca8:	43 00 00 00 08 00 06 00 	addiu $6,$0,8
  402cb0:	55 00 00 00 03 05 05 00 	sll $5,$5,0x3
  402cb8:	43 00 00 00 f8 ff 05 05 	addiu $5,$5,-8
  402cc0:	42 00 00 00 00 05 05 14 	addu $5,$20,$5
  402cc8:	02 00 00 00 24 28 10 00 	jal 40a090 <do_fio>
  402cd0:	28 00 00 00 00 1f 05 10 	lw $5,7936($16)
  402cd8:	43 00 00 00 04 80 04 1c 	addiu $4,$28,-32764
  402ce0:	43 00 00 00 08 00 06 00 	addiu $6,$0,8
  402ce8:	55 00 00 00 03 05 05 00 	sll $5,$5,0x3
  402cf0:	43 00 00 00 f8 ff 05 05 	addiu $5,$5,-8
  402cf8:	42 00 00 00 00 05 05 12 	addu $5,$18,$5
  402d00:	02 00 00 00 24 28 10 00 	jal 40a090 <do_fio>
  402d08:	02 00 00 00 9a 2a 10 00 	jal 40aa68 <e_wsfe>
  402d10:	28 00 00 00 00 1f 02 10 	lw $2,7936($16)
  402d18:	a2 00 00 00 e1 00 16 00 	lui $22,225
  402d20:	51 00 00 00 18 1f 16 16 	ori $22,$22,7960
  402d28:	42 00 00 00 00 16 1d 16 	addu $22,$22,$29
  402d30:	43 00 00 00 01 00 02 02 	addiu $2,$2,1
  402d38:	34 00 00 00 00 1f 02 10 	sw $2,7936($16)
  402d40:	28 00 00 00 00 00 02 11 	lw $2,0($17)
  402d48:	28 00 00 00 00 00 16 16 	lw $22,0($22)
  402d50:	5b 00 00 00 00 02 02 16 	slt $2,$22,$2
  402d58:	05 00 00 00 c0 ff 00 02 	beq $2,$0,402c60 <MAIN__+0x2a70>
  402d60:	43 00 00 00 14 80 04 1c 	addiu $4,$28,-32748
  402d68:	42 00 00 00 00 05 00 00 	addu $5,$0,$0
  402d70:	02 00 00 00 24 10 10 00 	jal 404090 <s_stop>
  402d78:	42 00 00 00 00 02 00 00 	addu $2,$0,$0
  402d80:	a2 00 00 00 e1 00 08 00 	lui $8,225
  402d88:	51 00 00 00 10 20 08 08 	ori $8,$8,8208
  402d90:	42 00 00 00 00 09 1d 08 	addu $9,$8,$29
  402d98:	28 00 00 00 d4 ff 1f 09 	lw $31,-44($9)
  402da0:	28 00 00 00 d0 ff 1e 09 	lw $30,-48($9)
  402da8:	28 00 00 00 cc ff 17 09 	lw $23,-52($9)
  402db0:	28 00 00 00 c8 ff 16 09 	lw $22,-56($9)
  402db8:	28 00 00 00 c4 ff 15 09 	lw $21,-60($9)
  402dc0:	28 00 00 00 c0 ff 14 09 	lw $20,-64($9)
  402dc8:	28 00 00 00 bc ff 13 09 	lw $19,-68($9)
  402dd0:	28 00 00 00 b8 ff 12 09 	lw $18,-72($9)
  402dd8:	28 00 00 00 b4 ff 11 09 	lw $17,-76($9)
  402de0:	28 00 00 00 b0 ff 10 09 	lw $16,-80($9)
  402de8:	2b 00 00 00 f8 ff 1c 09 	l.d $f28,-8($9)
  402df0:	2b 00 00 00 f0 ff 1a 09 	l.d $f26,-16($9)
  402df8:	2b 00 00 00 e8 ff 18 09 	l.d $f24,-24($9)
  402e00:	2b 00 00 00 e0 ff 16 09 	l.d $f22,-32($9)
  402e08:	2b 00 00 00 d8 ff 14 09 	l.d $f20,-40($9)
  402e10:	42 00 00 00 00 1d 08 1d 	addu $29,$29,$8
  402e18:	03 00 00 00 00 00 00 1f 	jr $31

00402e20 <__libc_init>:
  402e20:	43 00 00 00 e8 ff 1d 1d 	addiu $29,$29,-24
  402e28:	34 00 00 00 10 00 1f 1d 	sw $31,16($29)
  402e30:	02 00 00 00 04 2c 10 00 	jal 40b010 <__init_misc>
  402e38:	28 00 00 00 10 00 1f 1d 	lw $31,16($29)
  402e40:	43 00 00 00 18 00 1d 1d 	addiu $29,$29,24
  402e48:	03 00 00 00 00 00 00 1f 	jr $31

00402e50 <main>:
  402e50:	43 00 00 00 e0 ff 1d 1d 	addiu $29,$29,-32
  402e58:	34 00 00 00 10 00 10 1d 	sw $16,16($29)
  402e60:	42 00 00 00 00 10 04 00 	addu $16,$0,$4
  402e68:	34 00 00 00 14 00 11 1d 	sw $17,20($29)
  402e70:	42 00 00 00 00 11 05 00 	addu $17,$0,$5
  402e78:	34 00 00 00 18 00 1f 1d 	sw $31,24($29)
  402e80:	02 00 00 00 2a 9e 10 00 	jal 4278a8 <__main>
  402e88:	43 00 00 00 08 00 04 00 	addiu $4,$0,8
  402e90:	a2 00 00 00 40 00 05 00 	lui $5,64
  402e98:	43 00 00 00 00 30 05 05 	addiu $5,$5,12288
  402ea0:	34 00 00 00 64 86 10 1c 	sw $16,-31132($28)
  402ea8:	34 00 00 00 60 86 11 1c 	sw $17,-31136($28)
  402eb0:	02 00 00 00 38 2c 10 00 	jal 40b0e0 <signal>
  402eb8:	43 00 00 00 06 00 04 00 	addiu $4,$0,6
  402ec0:	a2 00 00 00 40 00 05 00 	lui $5,64
  402ec8:	43 00 00 00 48 30 05 05 	addiu $5,$5,12360
  402ed0:	02 00 00 00 38 2c 10 00 	jal 40b0e0 <signal>
  402ed8:	43 00 00 00 05 00 04 00 	addiu $4,$0,5
  402ee0:	a2 00 00 00 40 00 05 00 	lui $5,64
  402ee8:	43 00 00 00 60 31 05 05 	addiu $5,$5,12640
  402ef0:	02 00 00 00 38 2c 10 00 	jal 40b0e0 <signal>
  402ef8:	43 00 00 00 03 00 04 00 	addiu $4,$0,3
  402f00:	a2 00 00 00 40 00 05 00 	lui $5,64
  402f08:	43 00 00 00 90 30 05 05 	addiu $5,$5,12432
  402f10:	02 00 00 00 38 2c 10 00 	jal 40b0e0 <signal>
  402f18:	43 00 00 00 01 00 10 00 	addiu $16,$0,1
  402f20:	06 00 00 00 06 00 10 02 	bne $2,$16,402f40 <main+0xf0>
  402f28:	43 00 00 00 03 00 04 00 	addiu $4,$0,3
  402f30:	43 00 00 00 01 00 05 00 	addiu $5,$0,1
  402f38:	02 00 00 00 38 2c 10 00 	jal 40b0e0 <signal>
  402f40:	43 00 00 00 02 00 04 00 	addiu $4,$0,2
  402f48:	a2 00 00 00 40 00 05 00 	lui $5,64
  402f50:	43 00 00 00 d8 30 05 05 	addiu $5,$5,12504
  402f58:	02 00 00 00 38 2c 10 00 	jal 40b0e0 <signal>
  402f60:	06 00 00 00 06 00 10 02 	bne $2,$16,402f80 <main+0x130>
  402f68:	43 00 00 00 02 00 04 00 	addiu $4,$0,2
  402f70:	43 00 00 00 01 00 05 00 	addiu $5,$0,1
  402f78:	02 00 00 00 38 2c 10 00 	jal 40b0e0 <signal>
  402f80:	43 00 00 00 0f 00 04 00 	addiu $4,$0,15
  402f88:	a2 00 00 00 40 00 05 00 	lui $5,64
  402f90:	43 00 00 00 20 31 05 05 	addiu $5,$5,12576
  402f98:	02 00 00 00 38 2c 10 00 	jal 40b0e0 <signal>
  402fa0:	02 00 00 00 6a 2d 10 00 	jal 40b5a8 <f_init>
  402fa8:	a2 00 00 00 41 00 04 00 	lui $4,65
  402fb0:	43 00 00 00 58 bc 04 04 	addiu $4,$4,-17320
  402fb8:	02 00 00 00 dc 2f 10 00 	jal 40bf70 <atexit>
  402fc0:	02 00 00 00 7c 00 10 00 	jal 4001f0 <MAIN__>
  402fc8:	42 00 00 00 00 04 00 00 	addu $4,$0,$0
  402fd0:	02 00 00 00 6c 0c 10 00 	jal 4031b0 <exit>
  402fd8:	28 00 00 00 18 00 1f 1d 	lw $31,24($29)
  402fe0:	28 00 00 00 14 00 11 1d 	lw $17,20($29)
  402fe8:	28 00 00 00 10 00 10 1d 	lw $16,16($29)
  402ff0:	43 00 00 00 20 00 1d 1d 	addiu $29,$29,32
  402ff8:	03 00 00 00 00 00 00 1f 	jr $31

00403000 <sigfdie>:
  403000:	43 00 00 00 e8 ff 1d 1d 	addiu $29,$29,-24
  403008:	34 00 00 00 10 00 1f 1d 	sw $31,16($29)
  403010:	a2 00 00 00 00 10 04 00 	lui $4,4096
  403018:	43 00 00 00 a0 00 04 04 	addiu $4,$4,160
  403020:	43 00 00 00 01 00 05 00 	addiu $5,$0,1
  403028:	02 00 00 00 60 30 10 00 	jal 40c180 <sig_die>
  403030:	28 00 00 00 10 00 1f 1d 	lw $31,16($29)
  403038:	43 00 00 00 18 00 1d 1d 	addiu $29,$29,24
  403040:	03 00 00 00 00 00 00 1f 	jr $31

00403048 <sigidie>:
  403048:	43 00 00 00 e8 ff 1d 1d 	addiu $29,$29,-24
  403050:	34 00 00 00 10 00 1f 1d 	sw $31,16($29)
  403058:	a2 00 00 00 00 10 04 00 	lui $4,4096
  403060:	43 00 00 00 b4 00 04 04 	addiu $4,$4,180
  403068:	43 00 00 00 01 00 05 00 	addiu $5,$0,1
  403070:	02 00 00 00 60 30 10 00 	jal 40c180 <sig_die>
  403078:	28 00 00 00 10 00 1f 1d 	lw $31,16($29)
  403080:	43 00 00 00 18 00 1d 1d 	addiu $29,$29,24
  403088:	03 00 00 00 00 00 00 1f 	jr $31

00403090 <sigqdie>:
  403090:	43 00 00 00 e8 ff 1d 1d 	addiu $29,$29,-24
  403098:	34 00 00 00 10 00 1f 1d 	sw $31,16($29)
  4030a0:	a2 00 00 00 00 10 04 00 	lui $4,4096
  4030a8:	43 00 00 00 c0 00 04 04 	addiu $4,$4,192
  4030b0:	43 00 00 00 01 00 05 00 	addiu $5,$0,1
  4030b8:	02 00 00 00 60 30 10 00 	jal 40c180 <sig_die>
  4030c0:	28 00 00 00 10 00 1f 1d 	lw $31,16($29)
  4030c8:	43 00 00 00 18 00 1d 1d 	addiu $29,$29,24
  4030d0:	03 00 00 00 00 00 00 1f 	jr $31

004030d8 <sigindie>:
  4030d8:	43 00 00 00 e8 ff 1d 1d 	addiu $29,$29,-24
  4030e0:	34 00 00 00 10 00 1f 1d 	sw $31,16($29)
  4030e8:	a2 00 00 00 00 10 04 00 	lui $4,4096
  4030f0:	43 00 00 00 cc 00 04 04 	addiu $4,$4,204
  4030f8:	42 00 00 00 00 05 00 00 	addu $5,$0,$0
  403100:	02 00 00 00 60 30 10 00 	jal 40c180 <sig_die>
  403108:	28 00 00 00 10 00 1f 1d 	lw $31,16($29)
  403110:	43 00 00 00 18 00 1d 1d 	addiu $29,$29,24
  403118:	03 00 00 00 00 00 00 1f 	jr $31

00403120 <sigtdie>:
  403120:	43 00 00 00 e8 ff 1d 1d 	addiu $29,$29,-24
  403128:	34 00 00 00 10 00 1f 1d 	sw $31,16($29)
  403130:	43 00 00 00 40 80 04 1c 	addiu $4,$28,-32704
  403138:	42 00 00 00 00 05 00 00 	addu $5,$0,$0
  403140:	02 00 00 00 60 30 10 00 	jal 40c180 <sig_die>
  403148:	28 00 00 00 10 00 1f 1d 	lw $31,16($29)
  403150:	43 00 00 00 18 00 1d 1d 	addiu $29,$29,24
  403158:	03 00 00 00 00 00 00 1f 	jr $31

00403160 <sigtrdie>:
  403160:	43 00 00 00 e8 ff 1d 1d 	addiu $29,$29,-24
  403168:	34 00 00 00 10 00 1f 1d 	sw $31,16($29)
  403170:	a2 00 00 00 00 10 04 00 	lui $4,4096
  403178:	43 00 00 00 d8 00 04 04 	addiu $4,$4,216
  403180:	43 00 00 00 01 00 05 00 	addiu $5,$0,1
  403188:	02 00 00 00 60 30 10 00 	jal 40c180 <sig_die>
  403190:	28 00 00 00 10 00 1f 1d 	lw $31,16($29)
  403198:	43 00 00 00 18 00 1d 1d 	addiu $29,$29,24
  4031a0:	03 00 00 00 00 00 00 1f 	jr $31
	...

004031b0 <exit>:
  4031b0:	43 00 00 00 d0 ff 1d 1d 	addiu $29,$29,-48
  4031b8:	34 00 00 00 18 00 12 1d 	sw $18,24($29)
  4031c0:	28 00 00 00 80 81 12 1c 	lw $18,-32384($28)
  4031c8:	34 00 00 00 1c 00 13 1d 	sw $19,28($29)
  4031d0:	42 00 00 00 00 13 04 00 	addu $19,$0,$4
  4031d8:	34 00 00 00 28 00 1f 1d 	sw $31,40($29)
  4031e0:	34 00 00 00 24 00 15 1d 	sw $21,36($29)
  4031e8:	34 00 00 00 20 00 14 1d 	sw $20,32($29)
  4031f0:	34 00 00 00 14 00 11 1d 	sw $17,20($29)
  4031f8:	34 00 00 00 10 00 10 1d 	sw $16,16($29)
  403200:	05 00 00 00 3a 00 00 12 	beq $18,$0,4032f0 <exit+0x140>
  403208:	43 00 00 00 01 00 15 00 	addiu $21,$0,1
  403210:	43 00 00 00 02 00 14 00 	addiu $20,$0,2
  403218:	28 00 00 00 04 00 10 12 	lw $16,4($18)
  403220:	42 00 00 00 00 02 10 00 	addu $2,$0,$16
  403228:	43 00 00 00 ff ff 10 10 	addiu $16,$16,-1
  403230:	05 00 00 00 2a 00 00 02 	beq $2,$0,4032e0 <exit+0x130>
  403238:	55 00 00 00 01 02 10 00 	sll $2,$16,0x1
  403240:	42 00 00 00 00 02 10 02 	addu $2,$2,$16
  403248:	55 00 00 00 02 02 02 00 	sll $2,$2,0x2
  403250:	43 00 00 00 08 00 11 02 	addiu $17,$2,8
  403258:	42 00 00 00 00 03 11 12 	addu $3,$18,$17
  403260:	28 00 00 00 00 00 02 03 	lw $2,0($3)
  403268:	05 00 00 00 06 00 15 02 	beq $2,$21,403288 <exit+0xd8>
  403270:	05 00 00 00 12 00 00 02 	beq $2,$0,4032c0 <exit+0x110>
  403278:	05 00 00 00 0c 00 14 02 	beq $2,$20,4032b0 <exit+0x100>
  403280:	01 00 00 00 b0 0c 10 00 	j 4032c0 <exit+0x110>
  403288:	28 00 00 00 04 00 02 03 	lw $2,4($3)
  403290:	28 00 00 00 08 00 05 03 	lw $5,8($3)
  403298:	42 00 00 00 00 04 13 00 	addu $4,$0,$19
  4032a0:	04 00 00 00 00 1f 00 02 	jalr $31,$2
  4032a8:	01 00 00 00 b0 0c 10 00 	j 4032c0 <exit+0x110>
  4032b0:	28 00 00 00 04 00 02 03 	lw $2,4($3)
  4032b8:	04 00 00 00 00 1f 00 02 	jalr $31,$2
  4032c0:	43 00 00 00 f4 ff 11 11 	addiu $17,$17,-12
  4032c8:	42 00 00 00 00 02 10 00 	addu $2,$0,$16
  4032d0:	43 00 00 00 ff ff 10 10 	addiu $16,$16,-1
  4032d8:	06 00 00 00 de ff 00 02 	bne $2,$0,403258 <exit+0xa8>
  4032e0:	28 00 00 00 00 00 12 12 	lw $18,0($18)
  4032e8:	06 00 00 00 ca ff 00 12 	bne $18,$0,403218 <exit+0x68>
  4032f0:	02 00 00 00 28 2c 10 00 	jal 40b0a0 <_cleanup>
  4032f8:	42 00 00 00 00 04 13 00 	addu $4,$0,$19
  403300:	02 00 00 00 7c 30 10 00 	jal 40c1f0 <_exit>
  403308:	28 00 00 00 28 00 1f 1d 	lw $31,40($29)
  403310:	28 00 00 00 24 00 15 1d 	lw $21,36($29)
  403318:	28 00 00 00 20 00 14 1d 	lw $20,32($29)
  403320:	28 00 00 00 1c 00 13 1d 	lw $19,28($29)
  403328:	28 00 00 00 18 00 12 1d 	lw $18,24($29)
  403330:	28 00 00 00 14 00 11 1d 	lw $17,20($29)
  403338:	28 00 00 00 10 00 10 1d 	lw $16,16($29)
  403340:	43 00 00 00 30 00 1d 1d 	addiu $29,$29,48
  403348:	03 00 00 00 00 00 00 1f 	jr $31

00403350 <f__isdev>:
  403350:	43 00 00 00 e8 ff 1d 1d 	addiu $29,$29,-24
  403358:	42 00 00 00 00 05 00 00 	addu $5,$0,$0
  403360:	34 00 00 00 14 00 1f 1d 	sw $31,20($29)
  403368:	34 00 00 00 10 00 10 1d 	sw $16,16($29)
  403370:	02 00 00 00 84 30 10 00 	jal 40c210 <open>
  403378:	42 00 00 00 00 10 02 00 	addu $16,$0,$2
  403380:	43 00 00 00 ff ff 02 00 	addiu $2,$0,-1
  403388:	05 00 00 00 0e 00 02 10 	beq $16,$2,4033c8 <f__isdev+0x78>
  403390:	42 00 00 00 00 04 10 00 	addu $4,$0,$16
  403398:	02 00 00 00 a8 30 10 00 	jal 40c2a0 <isatty>
  4033a0:	42 00 00 00 00 04 10 00 	addu $4,$0,$16
  4033a8:	42 00 00 00 00 10 02 00 	addu $16,$0,$2
  4033b0:	02 00 00 00 b4 30 10 00 	jal 40c2d0 <close>
  4033b8:	42 00 00 00 00 02 10 00 	addu $2,$0,$16
  4033c0:	01 00 00 00 f4 0c 10 00 	j 4033d0 <f__isdev+0x80>
  4033c8:	42 00 00 00 00 02 00 00 	addu $2,$0,$0
  4033d0:	28 00 00 00 14 00 1f 1d 	lw $31,20($29)
  4033d8:	28 00 00 00 10 00 10 1d 	lw $16,16($29)
  4033e0:	43 00 00 00 18 00 1d 1d 	addiu $29,$29,24
  4033e8:	03 00 00 00 00 00 00 1f 	jr $31

004033f0 <f_open>:
  4033f0:	43 00 00 00 c0 fe 1d 1d 	addiu $29,$29,-320
  4033f8:	34 00 00 00 30 01 12 1d 	sw $18,304($29)
  403400:	42 00 00 00 00 12 04 00 	addu $18,$0,$4
  403408:	34 00 00 00 3c 01 1f 1d 	sw $31,316($29)
  403410:	34 00 00 00 38 01 14 1d 	sw $20,312($29)
  403418:	34 00 00 00 34 01 13 1d 	sw $19,308($29)
  403420:	34 00 00 00 2c 01 11 1d 	sw $17,300($29)
  403428:	34 00 00 00 28 01 10 1d 	sw $16,296($29)
  403430:	28 00 00 00 04 00 03 12 	lw $3,4($18)
  403438:	5e 00 00 00 64 00 02 03 	sltiu $2,$3,100
  403440:	06 00 00 00 14 00 00 02 	bne $2,$0,403498 <f_open+0xa8>
  403448:	28 00 00 00 00 00 02 12 	lw $2,0($18)
  403450:	05 00 00 00 06 00 00 02 	beq $2,$0,403470 <f_open+0x80>
  403458:	43 00 00 00 65 00 02 00 	addiu $2,$0,101
  403460:	34 00 00 00 50 86 02 1c 	sw $2,-31152($28)
  403468:	01 00 00 00 22 0d 10 00 	j 403488 <f_open+0x98>
  403470:	43 00 00 00 65 00 04 00 	addiu $4,$0,101
  403478:	43 00 00 00 70 80 05 1c 	addiu $5,$28,-32656
  403480:	02 00 00 00 9a 2c 10 00 	jal 40b268 <f__fatal>
  403488:	43 00 00 00 65 00 02 00 	addiu $2,$0,101
  403490:	01 00 00 00 2c 0f 10 00 	j 403cb0 <f_open+0x8c0>
  403498:	55 00 00 00 01 02 03 00 	sll $2,$3,0x1
  4034a0:	42 00 00 00 00 02 03 02 	addu $2,$2,$3
  4034a8:	55 00 00 00 04 02 02 00 	sll $2,$2,0x4
  4034b0:	a2 00 00 00 00 10 03 00 	lui $3,4096
  4034b8:	43 00 00 00 50 57 03 03 	addiu $3,$3,22352
  4034c0:	42 00 00 00 00 11 03 02 	addu $17,$2,$3
  4034c8:	28 00 00 00 00 00 02 11 	lw $2,0($17)
  4034d0:	34 00 00 00 f4 86 11 1c 	sw $17,-30988($28)
  4034d8:	05 00 00 00 3e 00 00 02 	beq $2,$0,4035d8 <f_open+0x1e8>
  4034e0:	28 00 00 00 08 00 02 12 	lw $2,8($18)
  4034e8:	06 00 00 00 16 00 00 02 	bne $2,$0,403548 <f_open+0x158>
  4034f0:	28 00 00 00 20 00 02 12 	lw $2,32($18)
  4034f8:	05 00 00 00 ea 01 00 02 	beq $2,$0,403ca8 <f_open+0x8b8>
  403500:	20 00 00 00 00 00 04 02 	lb $4,0($2)
  403508:	42 00 00 00 00 03 00 00 	addu $3,$0,$0
  403510:	43 00 00 00 7a 00 02 00 	addiu $2,$0,122
  403518:	05 00 00 00 04 00 02 04 	beq $4,$2,403530 <f_open+0x140>
  403520:	43 00 00 00 5a 00 02 00 	addiu $2,$0,90
  403528:	06 00 00 00 02 00 02 04 	bne $4,$2,403538 <f_open+0x148>
  403530:	43 00 00 00 01 00 03 00 	addiu $3,$0,1
  403538:	34 00 00 00 20 00 03 11 	sw $3,32($17)
  403540:	01 00 00 00 2a 0f 10 00 	j 403ca8 <f_open+0x8b8>
  403548:	28 00 00 00 04 00 04 11 	lw $4,4($17)
  403550:	05 00 00 00 10 00 00 04 	beq $4,$0,403598 <f_open+0x1a8>
  403558:	02 00 00 00 c0 30 10 00 	jal 40c300 <strlen>
  403560:	28 00 00 00 0c 00 03 12 	lw $3,12($18)
  403568:	06 00 00 00 0a 00 03 02 	bne $2,$3,403598 <f_open+0x1a8>
  403570:	28 00 00 00 04 00 04 11 	lw $4,4($17)
  403578:	42 00 00 00 00 06 02 00 	addu $6,$0,$2
  403580:	42 00 00 00 00 05 04 00 	addu $5,$0,$4
  403588:	02 00 00 00 14 31 10 00 	jal 40c450 <strncmp>
  403590:	05 00 00 00 d6 ff 00 02 	beq $2,$0,4034f0 <f_open+0x100>
  403598:	28 00 00 00 04 00 02 12 	lw $2,4($18)
  4035a0:	34 00 00 00 14 01 02 1d 	sw $2,276($29)
  4035a8:	34 00 00 00 18 01 00 1d 	sw $0,280($29)
  4035b0:	28 00 00 00 00 00 02 12 	lw $2,0($18)
  4035b8:	43 00 00 00 10 01 04 1d 	addiu $4,$29,272
  4035c0:	34 00 00 00 10 01 02 1d 	sw $2,272($29)
  4035c8:	02 00 00 00 a8 2e 10 00 	jal 40baa0 <f_clos>
  4035d0:	06 00 00 00 b6 01 00 02 	bne $2,$0,403cb0 <f_open+0x8c0>
  4035d8:	28 00 00 00 1c 00 02 12 	lw $2,28($18)
  4035e0:	34 00 00 00 10 00 02 11 	sw $2,16($17)
  4035e8:	28 00 00 00 20 00 02 12 	lw $2,32($18)
  4035f0:	42 00 00 00 00 04 00 00 	addu $4,$0,$0
  4035f8:	05 00 00 00 0c 00 00 02 	beq $2,$0,403630 <f_open+0x240>
  403600:	20 00 00 00 00 00 03 02 	lb $3,0($2)
  403608:	43 00 00 00 7a 00 02 00 	addiu $2,$0,122
  403610:	05 00 00 00 04 00 02 03 	beq $3,$2,403628 <f_open+0x238>
  403618:	43 00 00 00 5a 00 02 00 	addiu $2,$0,90
  403620:	06 00 00 00 02 00 02 03 	bne $3,$2,403630 <f_open+0x240>
  403628:	43 00 00 00 01 00 04 00 	addiu $4,$0,1
  403630:	34 00 00 00 20 00 04 11 	sw $4,32($17)
  403638:	28 00 00 00 18 00 02 12 	lw $2,24($18)
  403640:	06 00 00 00 06 00 00 02 	bne $2,$0,403660 <f_open+0x270>
  403648:	28 00 00 00 10 00 02 11 	lw $2,16($17)
  403650:	08 00 00 00 12 00 00 02 	bgtz $2,4036a0 <f_open+0x2b0>
  403658:	01 00 00 00 a2 0d 10 00 	j 403688 <f_open+0x298>
  403660:	20 00 00 00 00 00 03 02 	lb $3,0($2)
  403668:	43 00 00 00 66 00 02 00 	addiu $2,$0,102
  403670:	05 00 00 00 04 00 02 03 	beq $3,$2,403688 <f_open+0x298>
  403678:	43 00 00 00 46 00 02 00 	addiu $2,$0,70
  403680:	06 00 00 00 06 00 02 03 	bne $3,$2,4036a0 <f_open+0x2b0>
  403688:	43 00 00 00 01 00 02 00 	addiu $2,$0,1
  403690:	34 00 00 00 18 00 02 11 	sw $2,24($17)
  403698:	01 00 00 00 aa 0d 10 00 	j 4036a8 <f_open+0x2b8>
  4036a0:	34 00 00 00 18 00 00 11 	sw $0,24($17)
  4036a8:	28 00 00 00 08 00 04 12 	lw $4,8($18)
  4036b0:	28 00 00 00 18 00 14 11 	lw $20,24($17)
  4036b8:	05 00 00 00 1e 00 00 04 	beq $4,$0,403738 <f_open+0x348>
  4036c0:	28 00 00 00 0c 00 05 12 	lw $5,12($18)
  4036c8:	43 00 00 00 10 00 06 1d 	addiu $6,$29,16
  4036d0:	02 00 00 00 7c 31 10 00 	jal 40c5f0 <g_char>
  4036d8:	20 00 00 00 10 00 02 1d 	lb $2,16($29)
  4036e0:	06 00 00 00 1e 00 00 02 	bne $2,$0,403760 <f_open+0x370>
  4036e8:	28 00 00 00 00 00 02 12 	lw $2,0($18)
  4036f0:	05 00 00 00 06 00 00 02 	beq $2,$0,403710 <f_open+0x320>
  4036f8:	43 00 00 00 6b 00 02 00 	addiu $2,$0,107
  403700:	34 00 00 00 50 86 02 1c 	sw $2,-31152($28)
  403708:	01 00 00 00 ca 0d 10 00 	j 403728 <f_open+0x338>
  403710:	43 00 00 00 6b 00 04 00 	addiu $4,$0,107
  403718:	43 00 00 00 70 80 05 1c 	addiu $5,$28,-32656
  403720:	02 00 00 00 9a 2c 10 00 	jal 40b268 <f__fatal>
  403728:	43 00 00 00 6b 00 02 00 	addiu $2,$0,107
  403730:	01 00 00 00 2c 0f 10 00 	j 403cb0 <f_open+0x8c0>
  403738:	28 00 00 00 04 00 06 12 	lw $6,4($18)
  403740:	43 00 00 00 10 00 04 1d 	addiu $4,$29,16
  403748:	a2 00 00 00 00 10 05 00 	lui $5,4096
  403750:	43 00 00 00 f0 00 05 05 	addiu $5,$5,240
  403758:	02 00 00 00 d4 31 10 00 	jal 40c750 <sprintf>
  403760:	34 00 00 00 2c 00 00 11 	sw $0,44($17)
  403768:	28 00 00 00 10 00 02 12 	lw $2,16($18)
  403770:	05 00 00 00 06 00 00 02 	beq $2,$0,403790 <f_open+0x3a0>
  403778:	20 00 00 00 00 00 02 02 	lb $2,0($2)
  403780:	43 00 00 00 b2 ff 03 02 	addiu $3,$2,-78
  403788:	01 00 00 00 e6 0d 10 00 	j 403798 <f_open+0x3a8>
  403790:	43 00 00 00 27 00 03 00 	addiu $3,$0,39
  403798:	5e 00 00 00 26 00 02 03 	sltiu $2,$3,38
  4037a0:	05 00 00 00 48 00 00 02 	beq $2,$0,4038c8 <f_open+0x4d8>
  4037a8:	55 00 00 00 02 02 03 00 	sll $2,$3,0x2
  4037b0:	a2 00 00 00 00 10 01 00 	lui $1,4096
  4037b8:	42 00 00 00 00 01 02 01 	addu $1,$1,$2
  4037c0:	28 00 00 00 08 01 02 01 	lw $2,264($1)
  4037c8:	03 00 00 00 00 00 00 02 	jr $2
  4037d0:	43 00 00 00 10 00 04 1d 	addiu $4,$29,16
  4037d8:	42 00 00 00 00 05 00 00 	addu $5,$0,$0
  4037e0:	02 00 00 00 e8 31 10 00 	jal 40c7a0 <access>
  4037e8:	05 00 00 00 36 00 00 02 	beq $2,$0,4038c8 <f_open+0x4d8>
  4037f0:	01 00 00 00 de 0e 10 00 	j 403b78 <f_open+0x788>
  4037f8:	43 00 00 00 01 00 02 00 	addiu $2,$0,1
  403800:	34 00 00 00 2c 00 02 11 	sw $2,44($17)
  403808:	43 00 00 00 10 00 04 1d 	addiu $4,$29,16
  403810:	02 00 00 00 f4 31 10 00 	jal 40c7d0 <tmpnam>
  403818:	01 00 00 00 24 0e 10 00 	j 403890 <f_open+0x4a0>
  403820:	43 00 00 00 10 00 04 1d 	addiu $4,$29,16
  403828:	42 00 00 00 00 05 00 00 	addu $5,$0,$0
  403830:	02 00 00 00 e8 31 10 00 	jal 40c7a0 <access>
  403838:	06 00 00 00 14 00 00 02 	bne $2,$0,403890 <f_open+0x4a0>
  403840:	28 00 00 00 00 00 02 12 	lw $2,0($18)
  403848:	05 00 00 00 06 00 00 02 	beq $2,$0,403868 <f_open+0x478>
  403850:	43 00 00 00 80 00 02 00 	addiu $2,$0,128
  403858:	34 00 00 00 50 86 02 1c 	sw $2,-31152($28)
  403860:	01 00 00 00 20 0e 10 00 	j 403880 <f_open+0x490>
  403868:	43 00 00 00 80 00 04 00 	addiu $4,$0,128
  403870:	43 00 00 00 70 80 05 1c 	addiu $5,$28,-32656
  403878:	02 00 00 00 9a 2c 10 00 	jal 40b268 <f__fatal>
  403880:	43 00 00 00 80 00 02 00 	addiu $2,$0,128
  403888:	01 00 00 00 2c 0f 10 00 	j 403cb0 <f_open+0x8c0>
  403890:	a2 00 00 00 00 10 05 00 	lui $5,4096
  403898:	28 00 00 00 c0 25 05 05 	lw $5,9664($5)
  4038a0:	43 00 00 00 10 00 04 1d 	addiu $4,$29,16
  4038a8:	02 00 00 00 b2 32 10 00 	jal 40cac8 <fopen>
  4038b0:	05 00 00 00 04 00 00 02 	beq $2,$0,4038c8 <f_open+0x4d8>
  4038b8:	42 00 00 00 00 04 02 00 	addu $4,$0,$2
  4038c0:	02 00 00 00 fc 32 10 00 	jal 40cbf0 <fclose>
  4038c8:	43 00 00 00 10 00 04 1d 	addiu $4,$29,16
  4038d0:	02 00 00 00 c0 30 10 00 	jal 40c300 <strlen>
  4038d8:	43 00 00 00 01 00 04 02 	addiu $4,$2,1
  4038e0:	02 00 00 00 06 35 10 00 	jal 40d418 <malloc>
  4038e8:	34 00 00 00 04 00 02 11 	sw $2,4($17)
  4038f0:	06 00 00 00 16 00 00 02 	bne $2,$0,403950 <f_open+0x560>
  4038f8:	28 00 00 00 00 00 02 12 	lw $2,0($18)
  403900:	05 00 00 00 06 00 00 02 	beq $2,$0,403920 <f_open+0x530>
  403908:	43 00 00 00 71 00 02 00 	addiu $2,$0,113
  403910:	34 00 00 00 50 86 02 1c 	sw $2,-31152($28)
  403918:	01 00 00 00 50 0e 10 00 	j 403940 <f_open+0x550>
  403920:	43 00 00 00 71 00 04 00 	addiu $4,$0,113
  403928:	a2 00 00 00 00 10 05 00 	lui $5,4096
  403930:	43 00 00 00 fc 00 05 05 	addiu $5,$5,252
  403938:	02 00 00 00 9a 2c 10 00 	jal 40b268 <f__fatal>
  403940:	43 00 00 00 71 00 02 00 	addiu $2,$0,113
  403948:	01 00 00 00 2c 0f 10 00 	j 403cb0 <f_open+0x8c0>
  403950:	42 00 00 00 00 04 02 00 	addu $4,$0,$2
  403958:	43 00 00 00 10 00 05 1d 	addiu $5,$29,16
  403960:	02 00 00 00 68 37 10 00 	jal 40dda0 <strcpy>
  403968:	34 00 00 00 24 00 00 11 	sw $0,36($17)
  403970:	34 00 00 00 28 00 00 11 	sw $0,40($17)
  403978:	28 00 00 00 14 00 02 12 	lw $2,20($18)
  403980:	05 00 00 00 0c 00 00 02 	beq $2,$0,4039b8 <f_open+0x5c8>
  403988:	20 00 00 00 00 00 03 02 	lb $3,0($2)
  403990:	43 00 00 00 64 00 02 00 	addiu $2,$0,100
  403998:	05 00 00 00 04 00 02 03 	beq $3,$2,4039b0 <f_open+0x5c0>
  4039a0:	43 00 00 00 44 00 02 00 	addiu $2,$0,68
  4039a8:	06 00 00 00 02 00 02 03 	bne $3,$2,4039b8 <f_open+0x5c8>
  4039b0:	42 00 00 00 00 14 00 00 	addu $20,$0,$0
  4039b8:	43 00 00 00 10 00 04 1d 	addiu $4,$29,16
  4039c0:	42 00 00 00 00 05 00 00 	addu $5,$0,$0
  4039c8:	02 00 00 00 84 30 10 00 	jal 40c210 <open>
  4039d0:	42 00 00 00 00 10 02 00 	addu $16,$0,$2
  4039d8:	43 00 00 00 ff ff 02 00 	addiu $2,$0,-1
  4039e0:	06 00 00 00 04 00 02 10 	bne $16,$2,4039f8 <f_open+0x608>
  4039e8:	42 00 00 00 00 10 00 00 	addu $16,$0,$0
  4039f0:	01 00 00 00 88 0e 10 00 	j 403a20 <f_open+0x630>
  4039f8:	42 00 00 00 00 04 10 00 	addu $4,$0,$16
  403a00:	02 00 00 00 a8 30 10 00 	jal 40c2a0 <isatty>
  403a08:	42 00 00 00 00 04 10 00 	addu $4,$0,$16
  403a10:	42 00 00 00 00 10 02 00 	addu $16,$0,$2
  403a18:	02 00 00 00 b4 30 10 00 	jal 40c2d0 <close>
  403a20:	05 00 00 00 18 00 00 10 	beq $16,$0,403a88 <f_open+0x698>
  403a28:	55 00 00 00 02 02 14 00 	sll $2,$20,0x2
  403a30:	42 00 00 00 00 05 1c 02 	addu $5,$2,$28
  403a38:	28 00 00 00 50 80 05 05 	lw $5,-32688($5)
  403a40:	43 00 00 00 10 00 04 1d 	addiu $4,$29,16
  403a48:	02 00 00 00 b2 32 10 00 	jal 40cac8 <fopen>
  403a50:	34 00 00 00 00 00 02 11 	sw $2,0($17)
  403a58:	06 00 00 00 54 00 00 02 	bne $2,$0,403bb0 <f_open+0x7c0>
  403a60:	28 00 00 00 00 00 02 12 	lw $2,0($18)
  403a68:	06 00 00 00 4c 00 00 02 	bne $2,$0,403ba0 <f_open+0x7b0>
  403a70:	28 00 00 00 50 86 04 1c 	lw $4,-31152($28)
  403a78:	43 00 00 00 10 00 05 1d 	addiu $5,$29,16
  403a80:	01 00 00 00 e6 0e 10 00 	j 403b98 <f_open+0x7a8>
  403a88:	55 00 00 00 02 13 14 00 	sll $19,$20,0x2
  403a90:	42 00 00 00 00 05 1c 13 	addu $5,$19,$28
  403a98:	28 00 00 00 50 80 05 05 	lw $5,-32688($5)
  403aa0:	43 00 00 00 10 00 04 1d 	addiu $4,$29,16
  403aa8:	02 00 00 00 b2 32 10 00 	jal 40cac8 <fopen>
  403ab0:	34 00 00 00 00 00 02 11 	sw $2,0($17)
  403ab8:	06 00 00 00 3c 00 00 02 	bne $2,$0,403bb0 <f_open+0x7c0>
  403ac0:	51 00 00 00 02 00 02 14 	ori $2,$20,2
  403ac8:	55 00 00 00 02 02 02 00 	sll $2,$2,0x2
  403ad0:	a2 00 00 00 00 10 05 00 	lui $5,4096
  403ad8:	42 00 00 00 00 05 02 05 	addu $5,$5,$2
  403ae0:	28 00 00 00 c0 25 05 05 	lw $5,9664($5)
  403ae8:	43 00 00 00 10 00 04 1d 	addiu $4,$29,16
  403af0:	02 00 00 00 b2 32 10 00 	jal 40cac8 <fopen>
  403af8:	a2 00 00 00 00 10 10 00 	lui $16,4096
  403b00:	43 00 00 00 c0 25 10 10 	addiu $16,$16,9664
  403b08:	34 00 00 00 00 00 02 11 	sw $2,0($17)
  403b10:	05 00 00 00 06 00 00 02 	beq $2,$0,403b30 <f_open+0x740>
  403b18:	43 00 00 00 02 00 02 00 	addiu $2,$0,2
  403b20:	34 00 00 00 28 00 02 11 	sw $2,40($17)
  403b28:	01 00 00 00 ec 0e 10 00 	j 403bb0 <f_open+0x7c0>
  403b30:	42 00 00 00 00 02 10 13 	addu $2,$19,$16
  403b38:	28 00 00 00 00 00 05 02 	lw $5,0($2)
  403b40:	43 00 00 00 10 00 04 1d 	addiu $4,$29,16
  403b48:	02 00 00 00 b2 32 10 00 	jal 40cac8 <fopen>
  403b50:	34 00 00 00 00 00 02 11 	sw $2,0($17)
  403b58:	05 00 00 00 06 00 00 02 	beq $2,$0,403b78 <f_open+0x788>
  403b60:	43 00 00 00 01 00 02 00 	addiu $2,$0,1
  403b68:	34 00 00 00 28 00 02 11 	sw $2,40($17)
  403b70:	01 00 00 00 ec 0e 10 00 	j 403bb0 <f_open+0x7c0>
  403b78:	28 00 00 00 00 00 02 12 	lw $2,0($18)
  403b80:	06 00 00 00 06 00 00 02 	bne $2,$0,403ba0 <f_open+0x7b0>
  403b88:	28 00 00 00 50 86 04 1c 	lw $4,-31152($28)
  403b90:	43 00 00 00 70 80 05 1c 	addiu $5,$28,-32656
  403b98:	02 00 00 00 9a 2c 10 00 	jal 40b268 <f__fatal>
  403ba0:	28 00 00 00 50 86 02 1c 	lw $2,-31152($28)
  403ba8:	01 00 00 00 2c 0f 10 00 	j 403cb0 <f_open+0x8c0>
  403bb0:	28 00 00 00 00 00 04 11 	lw $4,0($17)
  403bb8:	02 00 00 00 88 2c 10 00 	jal 40b220 <f__canseek>
  403bc0:	34 00 00 00 14 00 02 11 	sw $2,20($17)
  403bc8:	05 00 00 00 36 00 00 02 	beq $2,$0,403ca8 <f_open+0x8b8>
  403bd0:	28 00 00 00 1c 00 02 12 	lw $2,28($18)
  403bd8:	05 00 00 00 06 00 00 02 	beq $2,$0,403bf8 <f_open+0x808>
  403be0:	28 00 00 00 00 00 04 11 	lw $4,0($17)
  403be8:	02 00 00 00 7c 37 10 00 	jal 40ddf0 <rewind>
  403bf0:	01 00 00 00 2a 0f 10 00 	j 403ca8 <f_open+0x8b8>
  403bf8:	28 00 00 00 14 00 02 12 	lw $2,20($18)
  403c00:	05 00 00 00 28 00 00 02 	beq $2,$0,403ca8 <f_open+0x8b8>
  403c08:	20 00 00 00 00 00 03 02 	lb $3,0($2)
  403c10:	43 00 00 00 61 00 02 00 	addiu $2,$0,97
  403c18:	05 00 00 00 04 00 02 03 	beq $3,$2,403c30 <f_open+0x840>
  403c20:	43 00 00 00 41 00 02 00 	addiu $2,$0,65
  403c28:	06 00 00 00 1e 00 02 03 	bne $3,$2,403ca8 <f_open+0x8b8>
  403c30:	28 00 00 00 00 00 04 11 	lw $4,0($17)
  403c38:	42 00 00 00 00 05 00 00 	addu $5,$0,$0
  403c40:	43 00 00 00 02 00 06 00 	addiu $6,$0,2
  403c48:	02 00 00 00 9c 37 10 00 	jal 40de70 <fseek>
  403c50:	05 00 00 00 14 00 00 02 	beq $2,$0,403ca8 <f_open+0x8b8>
  403c58:	28 00 00 00 00 00 02 12 	lw $2,0($18)
  403c60:	05 00 00 00 06 00 00 02 	beq $2,$0,403c80 <f_open+0x890>
  403c68:	43 00 00 00 81 00 02 00 	addiu $2,$0,129
  403c70:	34 00 00 00 50 86 02 1c 	sw $2,-31152($28)
  403c78:	01 00 00 00 26 0f 10 00 	j 403c98 <f_open+0x8a8>
  403c80:	43 00 00 00 81 00 04 00 	addiu $4,$0,129
  403c88:	43 00 00 00 70 80 05 1c 	addiu $5,$28,-32656
  403c90:	02 00 00 00 9a 2c 10 00 	jal 40b268 <f__fatal>
  403c98:	43 00 00 00 81 00 02 00 	addiu $2,$0,129
  403ca0:	01 00 00 00 2c 0f 10 00 	j 403cb0 <f_open+0x8c0>
  403ca8:	42 00 00 00 00 02 00 00 	addu $2,$0,$0
  403cb0:	28 00 00 00 3c 01 1f 1d 	lw $31,316($29)
  403cb8:	28 00 00 00 38 01 14 1d 	lw $20,312($29)
  403cc0:	28 00 00 00 34 01 13 1d 	lw $19,308($29)
  403cc8:	28 00 00 00 30 01 12 1d 	lw $18,304($29)
  403cd0:	28 00 00 00 2c 01 11 1d 	lw $17,300($29)
  403cd8:	28 00 00 00 28 01 10 1d 	lw $16,296($29)
  403ce0:	43 00 00 00 40 01 1d 1d 	addiu $29,$29,320
  403ce8:	03 00 00 00 00 00 00 1f 	jr $31

00403cf0 <fk_open>:
  403cf0:	43 00 00 00 a8 ff 1d 1d 	addiu $29,$29,-88
  403cf8:	34 00 00 00 4c 00 11 1d 	sw $17,76($29)
  403d00:	42 00 00 00 00 11 04 00 	addu $17,$0,$4
  403d08:	34 00 00 00 50 00 12 1d 	sw $18,80($29)
  403d10:	42 00 00 00 00 12 05 00 	addu $18,$0,$5
  403d18:	34 00 00 00 48 00 10 1d 	sw $16,72($29)
  403d20:	42 00 00 00 00 10 06 00 	addu $16,$0,$6
  403d28:	43 00 00 00 10 00 04 1d 	addiu $4,$29,16
  403d30:	a2 00 00 00 00 10 05 00 	lui $5,4096
  403d38:	43 00 00 00 f0 00 05 05 	addiu $5,$5,240
  403d40:	34 00 00 00 54 00 1f 1d 	sw $31,84($29)
  403d48:	02 00 00 00 d4 31 10 00 	jal 40c750 <sprintf>
  403d50:	43 00 00 00 10 00 04 1d 	addiu $4,$29,16
  403d58:	43 00 00 00 01 00 02 00 	addiu $2,$0,1
  403d60:	34 00 00 00 20 00 02 1d 	sw $2,32($29)
  403d68:	34 00 00 00 24 00 10 1d 	sw $16,36($29)
  403d70:	34 00 00 00 28 00 04 1d 	sw $4,40($29)
  403d78:	02 00 00 00 c0 30 10 00 	jal 40c300 <strlen>
  403d80:	34 00 00 00 2c 00 02 1d 	sw $2,44($29)
  403d88:	43 00 00 00 03 00 02 00 	addiu $2,$0,3
  403d90:	34 00 00 00 30 00 00 1d 	sw $0,48($29)
  403d98:	06 00 00 00 04 00 02 11 	bne $17,$2,403db0 <fk_open+0xc0>
  403da0:	43 00 00 00 78 80 02 1c 	addiu $2,$28,-32648
  403da8:	01 00 00 00 6e 0f 10 00 	j 403db8 <fk_open+0xc8>
  403db0:	43 00 00 00 7c 80 02 1c 	addiu $2,$28,-32644
  403db8:	34 00 00 00 34 00 02 1d 	sw $2,52($29)
  403dc0:	43 00 00 00 05 00 02 00 	addiu $2,$0,5
  403dc8:	06 00 00 00 04 00 02 12 	bne $18,$2,403de0 <fk_open+0xf0>
  403dd0:	43 00 00 00 80 80 02 1c 	addiu $2,$28,-32640
  403dd8:	01 00 00 00 7a 0f 10 00 	j 403de8 <fk_open+0xf8>
  403de0:	43 00 00 00 84 80 02 1c 	addiu $2,$28,-32636
  403de8:	34 00 00 00 38 00 02 1d 	sw $2,56($29)
  403df0:	43 00 00 00 20 00 04 1d 	addiu $4,$29,32
  403df8:	53 00 00 00 04 00 02 11 	xori $2,$17,4
  403e00:	5e 00 00 00 01 00 02 02 	sltiu $2,$2,1
  403e08:	34 00 00 00 3c 00 02 1d 	sw $2,60($29)
  403e10:	34 00 00 00 40 00 00 1d 	sw $0,64($29)
  403e18:	02 00 00 00 fc 0c 10 00 	jal 4033f0 <f_open>
  403e20:	28 00 00 00 54 00 1f 1d 	lw $31,84($29)
  403e28:	28 00 00 00 50 00 12 1d 	lw $18,80($29)
  403e30:	28 00 00 00 4c 00 11 1d 	lw $17,76($29)
  403e38:	28 00 00 00 48 00 10 1d 	lw $16,72($29)
  403e40:	43 00 00 00 58 00 1d 1d 	addiu $29,$29,88
  403e48:	03 00 00 00 00 00 00 1f 	jr $31

00403e50 <s_wsle>:
  403e50:	28 00 00 00 0c 87 02 1c 	lw $2,-30964($28)
  403e58:	43 00 00 00 e8 ff 1d 1d 	addiu $29,$29,-24
  403e60:	34 00 00 00 10 00 10 1d 	sw $16,16($29)
  403e68:	42 00 00 00 00 10 04 00 	addu $16,$0,$4
  403e70:	34 00 00 00 14 00 1f 1d 	sw $31,20($29)
  403e78:	06 00 00 00 02 00 00 02 	bne $2,$0,403e88 <s_wsle+0x38>
  403e80:	02 00 00 00 6a 2d 10 00 	jal 40b5a8 <f_init>
  403e88:	42 00 00 00 00 04 10 00 	addu $4,$0,$16
  403e90:	02 00 00 00 a4 17 10 00 	jal 405e90 <c_le>
  403e98:	06 00 00 00 3c 00 00 02 	bne $2,$0,403f90 <s_wsle+0x140>
  403ea0:	28 00 00 00 f4 86 05 1c 	lw $5,-30988($28)
  403ea8:	28 00 00 00 28 00 04 05 	lw $4,40($5)
  403eb0:	43 00 00 00 01 00 03 00 	addiu $3,$0,1
  403eb8:	a2 00 00 00 41 00 02 00 	lui $2,65
  403ec0:	43 00 00 00 70 e2 02 02 	addiu $2,$2,-7568
  403ec8:	34 00 00 00 e0 86 02 1c 	sw $2,-31008($28)
  403ed0:	a2 00 00 00 41 00 02 00 	lui $2,65
  403ed8:	43 00 00 00 48 e9 02 02 	addiu $2,$2,-5816
  403ee0:	34 00 00 00 78 86 02 1c 	sw $2,-31112($28)
  403ee8:	43 00 00 00 50 00 02 00 	addiu $2,$0,80
  403ef0:	34 00 00 00 70 87 02 1c 	sw $2,-30864($28)
  403ef8:	a2 00 00 00 41 00 02 00 	lui $2,65
  403f00:	43 00 00 00 08 ac 02 02 	addiu $2,$2,-21496
  403f08:	34 00 00 00 04 87 00 1c 	sw $0,-30972($28)
  403f10:	34 00 00 00 00 87 03 1c 	sw $3,-30976($28)
  403f18:	34 00 00 00 2c 87 03 1c 	sw $3,-30932($28)
  403f20:	34 00 00 00 08 87 02 1c 	sw $2,-30968($28)
  403f28:	05 00 00 00 16 00 03 04 	beq $4,$3,403f88 <s_wsle+0x138>
  403f30:	42 00 00 00 00 04 05 00 	addu $4,$0,$5
  403f38:	02 00 00 00 1c 2e 10 00 	jal 40b870 <f__nowwriting>
  403f40:	05 00 00 00 10 00 00 02 	beq $2,$0,403f88 <s_wsle+0x138>
  403f48:	28 00 00 00 00 00 02 10 	lw $2,0($16)
  403f50:	06 00 00 00 08 00 00 02 	bne $2,$0,403f78 <s_wsle+0x128>
  403f58:	28 00 00 00 50 86 04 1c 	lw $4,-31152($28)
  403f60:	a2 00 00 00 00 10 05 00 	lui $5,4096
  403f68:	43 00 00 00 a0 01 05 05 	addiu $5,$5,416
  403f70:	02 00 00 00 9a 2c 10 00 	jal 40b268 <f__fatal>
  403f78:	28 00 00 00 50 86 02 1c 	lw $2,-31152($28)
  403f80:	01 00 00 00 e4 0f 10 00 	j 403f90 <s_wsle+0x140>
  403f88:	42 00 00 00 00 02 00 00 	addu $2,$0,$0
  403f90:	28 00 00 00 14 00 1f 1d 	lw $31,20($29)
  403f98:	28 00 00 00 10 00 10 1d 	lw $16,16($29)
  403fa0:	43 00 00 00 18 00 1d 1d 	addiu $29,$29,24
  403fa8:	03 00 00 00 00 00 00 1f 	jr $31

00403fb0 <e_wsle>:
  403fb0:	43 00 00 00 e8 ff 1d 1d 	addiu $29,$29,-24
  403fb8:	43 00 00 00 0a 00 04 00 	addiu $4,$0,10
  403fc0:	34 00 00 00 10 00 1f 1d 	sw $31,16($29)
  403fc8:	02 00 00 00 9c 38 10 00 	jal 40e270 <t_putc>
  403fd0:	28 00 00 00 fc 86 04 1c 	lw $4,-30980($28)
  403fd8:	28 00 00 00 44 81 02 1c 	lw $2,-32444($28)
  403fe0:	34 00 00 00 24 87 00 1c 	sw $0,-30940($28)
  403fe8:	05 00 00 00 04 00 02 04 	beq $4,$2,404000 <e_wsle+0x50>
  403ff0:	28 00 00 00 48 81 02 1c 	lw $2,-32440($28)
  403ff8:	06 00 00 00 02 00 02 04 	bne $4,$2,404008 <e_wsle+0x58>
  404000:	02 00 00 00 80 3b 10 00 	jal 40ee00 <fflush>
  404008:	42 00 00 00 00 02 00 00 	addu $2,$0,$0
  404010:	28 00 00 00 10 00 1f 1d 	lw $31,16($29)
  404018:	43 00 00 00 18 00 1d 1d 	addiu $29,$29,24
  404020:	03 00 00 00 00 00 00 1f 	jr $31
	...

00404030 <do_lio>:
  404030:	43 00 00 00 e8 ff 1d 1d 	addiu $29,$29,-24
  404038:	42 00 00 00 00 02 04 00 	addu $2,$0,$4
  404040:	28 00 00 00 78 86 03 1c 	lw $3,-31112($28)
  404048:	42 00 00 00 00 04 05 00 	addu $4,$0,$5
  404050:	42 00 00 00 00 05 06 00 	addu $5,$0,$6
  404058:	42 00 00 00 00 06 07 00 	addu $6,$0,$7
  404060:	34 00 00 00 10 00 1f 1d 	sw $31,16($29)
  404068:	28 00 00 00 00 00 07 02 	lw $7,0($2)
  404070:	04 00 00 00 00 1f 00 03 	jalr $31,$3
  404078:	28 00 00 00 10 00 1f 1d 	lw $31,16($29)
  404080:	43 00 00 00 18 00 1d 1d 	addiu $29,$29,24
  404088:	03 00 00 00 00 00 00 1f 	jr $31

00404090 <s_stop>:
  404090:	43 00 00 00 d8 ff 1d 1d 	addiu $29,$29,-40
  404098:	34 00 00 00 18 00 10 1d 	sw $16,24($29)
  4040a0:	42 00 00 00 00 10 04 00 	addu $16,$0,$4
  4040a8:	34 00 00 00 20 00 12 1d 	sw $18,32($29)
  4040b0:	42 00 00 00 00 12 05 00 	addu $18,$0,$5
  4040b8:	34 00 00 00 24 00 1f 1d 	sw $31,36($29)
  4040c0:	34 00 00 00 1c 00 11 1d 	sw $17,28($29)
  4040c8:	07 00 00 00 34 00 00 12 	blez $18,4041a0 <s_stop+0x110>
  4040d0:	28 00 00 00 48 81 04 1c 	lw $4,-32440($28)
  4040d8:	43 00 00 00 90 80 05 1c 	addiu $5,$28,-32624
  4040e0:	42 00 00 00 00 11 00 00 	addu $17,$0,$0
  4040e8:	02 00 00 00 00 3c 10 00 	jal 40f000 <fprintf>
  4040f0:	07 00 00 00 22 00 00 12 	blez $18,404180 <s_stop+0xf0>
  4040f8:	28 00 00 00 48 81 04 1c 	lw $4,-32440($28)
  404100:	28 00 00 00 04 00 03 04 	lw $3,4($4)
  404108:	28 00 00 00 0c 00 02 04 	lw $2,12($4)
  404110:	5d 00 00 00 00 02 02 03 	sltu $2,$3,$2
  404118:	05 00 00 00 0c 00 00 02 	beq $2,$0,404150 <s_stop+0xc0>
  404120:	43 00 00 00 01 00 02 03 	addiu $2,$3,1
  404128:	34 00 00 00 04 00 02 04 	sw $2,4($4)
  404130:	22 00 00 00 00 00 02 10 	lbu $2,0($16)
  404138:	43 00 00 00 01 00 10 10 	addiu $16,$16,1
  404140:	30 00 00 00 00 00 02 03 	sb $2,0($3)
  404148:	01 00 00 00 5a 10 10 00 	j 404168 <s_stop+0xd8>
  404150:	22 00 00 00 00 00 05 10 	lbu $5,0($16)
  404158:	43 00 00 00 01 00 10 10 	addiu $16,$16,1
  404160:	02 00 00 00 24 40 10 00 	jal 410090 <__flshfp>
  404168:	43 00 00 00 01 00 11 11 	addiu $17,$17,1
  404170:	5b 00 00 00 00 02 12 11 	slt $2,$17,$18
  404178:	06 00 00 00 de ff 00 02 	bne $2,$0,4040f8 <s_stop+0x68>
  404180:	28 00 00 00 48 81 04 1c 	lw $4,-32440($28)
  404188:	a2 00 00 00 00 10 05 00 	lui $5,4096
  404190:	43 00 00 00 c0 01 05 05 	addiu $5,$5,448
  404198:	02 00 00 00 00 3c 10 00 	jal 40f000 <fprintf>
  4041a0:	42 00 00 00 00 04 00 00 	addu $4,$0,$0
  4041a8:	02 00 00 00 6c 0c 10 00 	jal 4031b0 <exit>
  4041b0:	28 00 00 00 24 00 1f 1d 	lw $31,36($29)
  4041b8:	28 00 00 00 20 00 12 1d 	lw $18,32($29)
  4041c0:	28 00 00 00 1c 00 11 1d 	lw $17,28($29)
  4041c8:	28 00 00 00 18 00 10 1d 	lw $16,24($29)
  4041d0:	43 00 00 00 28 00 1d 1d 	addiu $29,$29,40
  4041d8:	03 00 00 00 00 00 00 1f 	jr $31

004041e0 <t_getc>:
  4041e0:	28 00 00 00 f4 86 02 1c 	lw $2,-30988($28)
  4041e8:	43 00 00 00 e8 ff 1d 1d 	addiu $29,$29,-24
  4041f0:	34 00 00 00 10 00 1f 1d 	sw $31,16($29)
  4041f8:	28 00 00 00 24 00 02 02 	lw $2,36($2)
  404200:	06 00 00 00 2e 00 00 02 	bne $2,$0,4042c0 <t_getc+0xe0>
  404208:	28 00 00 00 fc 86 04 1c 	lw $4,-30980($28)
  404210:	28 00 00 00 04 00 03 04 	lw $3,4($4)
  404218:	28 00 00 00 08 00 02 04 	lw $2,8($4)
  404220:	5d 00 00 00 00 02 02 03 	sltu $2,$3,$2
  404228:	05 00 00 00 08 00 00 02 	beq $2,$0,404250 <t_getc+0x70>
  404230:	43 00 00 00 01 00 02 03 	addiu $2,$3,1
  404238:	34 00 00 00 04 00 02 04 	sw $2,4($4)
  404240:	22 00 00 00 00 00 03 03 	lbu $3,0($3)
  404248:	01 00 00 00 98 10 10 00 	j 404260 <t_getc+0x80>
  404250:	02 00 00 00 72 41 10 00 	jal 4105c8 <__fillbf>
  404258:	42 00 00 00 00 03 02 00 	addu $3,$0,$2
  404260:	43 00 00 00 ff ff 02 00 	addiu $2,$0,-1
  404268:	05 00 00 00 04 00 02 03 	beq $3,$2,404280 <t_getc+0xa0>
  404270:	42 00 00 00 00 02 03 00 	addu $2,$0,$3
  404278:	01 00 00 00 b2 10 10 00 	j 4042c8 <t_getc+0xe8>
  404280:	28 00 00 00 fc 86 02 1c 	lw $2,-30980($28)
  404288:	28 00 00 00 4c 00 02 02 	lw $2,76($2)
  404290:	4f 00 00 00 00 02 02 02 	andi $2,$2,512
  404298:	05 00 00 00 08 00 00 02 	beq $2,$0,4042c0 <t_getc+0xe0>
  4042a0:	28 00 00 00 f4 86 03 1c 	lw $3,-30988($28)
  4042a8:	43 00 00 00 01 00 02 00 	addiu $2,$0,1
  4042b0:	34 00 00 00 80 86 02 1c 	sw $2,-31104($28)
  4042b8:	34 00 00 00 24 00 02 03 	sw $2,36($3)
  4042c0:	43 00 00 00 ff ff 02 00 	addiu $2,$0,-1
  4042c8:	28 00 00 00 10 00 1f 1d 	lw $31,16($29)
  4042d0:	43 00 00 00 18 00 1d 1d 	addiu $29,$29,24
  4042d8:	03 00 00 00 00 00 00 1f 	jr $31

004042e0 <e_rsle>:
  4042e0:	28 00 00 00 f4 86 02 1c 	lw $2,-30988($28)
  4042e8:	43 00 00 00 e0 ff 1d 1d 	addiu $29,$29,-32
  4042f0:	34 00 00 00 1c 00 1f 1d 	sw $31,28($29)
  4042f8:	34 00 00 00 18 00 12 1d 	sw $18,24($29)
  404300:	34 00 00 00 14 00 11 1d 	sw $17,20($29)
  404308:	34 00 00 00 10 00 10 1d 	sw $16,16($29)
  404310:	28 00 00 00 24 00 02 02 	lw $2,36($2)
  404318:	06 00 00 00 36 00 00 02 	bne $2,$0,4043f8 <e_rsle+0x118>
  404320:	43 00 00 00 ff ff 11 00 	addiu $17,$0,-1
  404328:	43 00 00 00 01 00 10 00 	addiu $16,$0,1
  404330:	43 00 00 00 0a 00 12 00 	addiu $18,$0,10
  404338:	28 00 00 00 f4 86 02 1c 	lw $2,-30988($28)
  404340:	28 00 00 00 24 00 02 02 	lw $2,36($2)
  404348:	06 00 00 00 24 00 00 02 	bne $2,$0,4043e0 <e_rsle+0x100>
  404350:	28 00 00 00 fc 86 04 1c 	lw $4,-30980($28)
  404358:	28 00 00 00 04 00 03 04 	lw $3,4($4)
  404360:	28 00 00 00 08 00 02 04 	lw $2,8($4)
  404368:	5d 00 00 00 00 02 02 03 	sltu $2,$3,$2
  404370:	05 00 00 00 08 00 00 02 	beq $2,$0,404398 <e_rsle+0xb8>
  404378:	43 00 00 00 01 00 02 03 	addiu $2,$3,1
  404380:	34 00 00 00 04 00 02 04 	sw $2,4($4)
  404388:	22 00 00 00 00 00 02 03 	lbu $2,0($3)
  404390:	01 00 00 00 e8 10 10 00 	j 4043a0 <e_rsle+0xc0>
  404398:	02 00 00 00 72 41 10 00 	jal 4105c8 <__fillbf>
  4043a0:	06 00 00 00 10 00 11 02 	bne $2,$17,4043e8 <e_rsle+0x108>
  4043a8:	28 00 00 00 fc 86 02 1c 	lw $2,-30980($28)
  4043b0:	28 00 00 00 4c 00 02 02 	lw $2,76($2)
  4043b8:	4f 00 00 00 00 02 02 02 	andi $2,$2,512
  4043c0:	05 00 00 00 06 00 00 02 	beq $2,$0,4043e0 <e_rsle+0x100>
  4043c8:	28 00 00 00 f4 86 02 1c 	lw $2,-30988($28)
  4043d0:	34 00 00 00 80 86 10 1c 	sw $16,-31104($28)
  4043d8:	34 00 00 00 24 00 10 02 	sw $16,36($2)
  4043e0:	43 00 00 00 ff ff 02 00 	addiu $2,$0,-1
  4043e8:	05 00 00 00 02 00 12 02 	beq $2,$18,4043f8 <e_rsle+0x118>
  4043f0:	06 00 00 00 d0 ff 11 02 	bne $2,$17,404338 <e_rsle+0x58>
  4043f8:	42 00 00 00 00 02 00 00 	addu $2,$0,$0
  404400:	28 00 00 00 1c 00 1f 1d 	lw $31,28($29)
  404408:	28 00 00 00 18 00 12 1d 	lw $18,24($29)
  404410:	28 00 00 00 14 00 11 1d 	lw $17,20($29)
  404418:	28 00 00 00 10 00 10 1d 	lw $16,16($29)
  404420:	43 00 00 00 20 00 1d 1d 	addiu $29,$29,32
  404428:	03 00 00 00 00 00 00 1f 	jr $31

00404430 <l_R>:
  404430:	43 00 00 00 90 ff 1d 1d 	addiu $29,$29,-112
  404438:	34 00 00 00 60 00 16 1d 	sw $22,96($29)
  404440:	42 00 00 00 00 16 04 00 	addu $22,$0,$4
  404448:	34 00 00 00 6c 00 1f 1d 	sw $31,108($29)
  404450:	34 00 00 00 68 00 1e 1d 	sw $30,104($29)
  404458:	34 00 00 00 64 00 17 1d 	sw $23,100($29)
  404460:	34 00 00 00 5c 00 15 1d 	sw $21,92($29)
  404468:	34 00 00 00 58 00 14 1d 	sw $20,88($29)
  404470:	34 00 00 00 54 00 13 1d 	sw $19,84($29)
  404478:	34 00 00 00 50 00 12 1d 	sw $18,80($29)
  404480:	34 00 00 00 4c 00 11 1d 	sw $17,76($29)
  404488:	34 00 00 00 48 00 10 1d 	sw $16,72($29)
  404490:	06 00 00 00 08 00 00 16 	bne $22,$0,4044b8 <l_R+0x88>
  404498:	28 00 00 00 a0 86 02 1c 	lw $2,-31072($28)
  4044a0:	08 00 00 00 ce 01 00 02 	bgtz $2,404be0 <l_R+0x7b0>
  4044a8:	43 00 00 00 01 00 02 00 	addiu $2,$0,1
  4044b0:	34 00 00 00 a0 86 02 1c 	sw $2,-31072($28)
  4044b8:	34 00 00 00 70 86 00 1c 	sw $0,-31120($28)
  4044c0:	42 00 00 00 00 13 00 00 	addu $19,$0,$0
  4044c8:	42 00 00 00 00 1e 00 00 	addu $30,$0,$0
  4044d0:	43 00 00 00 10 00 12 1d 	addiu $18,$29,16
  4044d8:	42 00 00 00 00 17 12 00 	addu $23,$0,$18
  4044e0:	28 00 00 00 74 86 02 1c 	lw $2,-31116($28)
  4044e8:	43 00 00 00 38 00 15 1d 	addiu $21,$29,56
  4044f0:	42 00 00 00 00 14 00 00 	addu $20,$0,$0
  4044f8:	04 00 00 00 00 1f 00 02 	jalr $31,$2
  404500:	42 00 00 00 00 10 02 00 	addu $16,$0,$2
  404508:	43 00 00 00 2b 00 02 00 	addiu $2,$0,43
  404510:	05 00 00 00 0e 00 02 10 	beq $16,$2,404550 <l_R+0x120>
  404518:	43 00 00 00 2d 00 02 00 	addiu $2,$0,45
  404520:	06 00 00 00 10 00 02 10 	bne $16,$2,404568 <l_R+0x138>
  404528:	43 00 00 00 2d 00 02 00 	addiu $2,$0,45
  404530:	30 00 00 00 10 00 02 1d 	sb $2,16($29)
  404538:	43 00 00 00 11 00 12 1d 	addiu $18,$29,17
  404540:	42 00 00 00 00 17 12 00 	addu $23,$0,$18
  404548:	43 00 00 00 39 00 15 1d 	addiu $21,$29,57
  404550:	28 00 00 00 74 86 02 1c 	lw $2,-31116($28)
  404558:	04 00 00 00 00 1f 00 02 	jalr $31,$2
  404560:	42 00 00 00 00 10 02 00 	addu $16,$0,$2
  404568:	43 00 00 00 30 00 02 00 	addiu $2,$0,48
  404570:	06 00 00 00 0c 00 02 10 	bne $16,$2,4045a8 <l_R+0x178>
  404578:	43 00 00 00 30 00 11 00 	addiu $17,$0,48
  404580:	28 00 00 00 74 86 02 1c 	lw $2,-31116($28)
  404588:	43 00 00 00 01 00 14 14 	addiu $20,$20,1
  404590:	04 00 00 00 00 1f 00 02 	jalr $31,$2
  404598:	42 00 00 00 00 10 02 00 	addu $16,$0,$2
  4045a0:	05 00 00 00 f6 ff 11 10 	beq $16,$17,404580 <l_R+0x150>
  4045a8:	28 00 00 00 d0 81 02 1c 	lw $2,-32304($28)
  4045b0:	55 00 00 00 01 03 10 00 	sll $3,$16,0x1
  4045b8:	42 00 00 00 00 03 02 03 	addu $3,$3,$2
  4045c0:	26 00 00 00 00 00 02 03 	lhu $2,0($3)
  4045c8:	4f 00 00 00 08 00 02 02 	andi $2,$2,8
  4045d0:	05 00 00 00 1e 00 00 02 	beq $2,$0,404650 <l_R+0x220>
  4045d8:	5d 00 00 00 00 02 15 12 	sltu $2,$18,$21
  4045e0:	05 00 00 00 06 00 00 02 	beq $2,$0,404600 <l_R+0x1d0>
  4045e8:	30 00 00 00 00 00 10 12 	sb $16,0($18)
  4045f0:	43 00 00 00 01 00 12 12 	addiu $18,$18,1
  4045f8:	01 00 00 00 82 11 10 00 	j 404608 <l_R+0x1d8>
  404600:	43 00 00 00 01 00 13 13 	addiu $19,$19,1
  404608:	28 00 00 00 74 86 02 1c 	lw $2,-31116($28)
  404610:	04 00 00 00 00 1f 00 02 	jalr $31,$2
  404618:	28 00 00 00 d0 81 03 1c 	lw $3,-32304($28)
  404620:	42 00 00 00 00 10 02 00 	addu $16,$0,$2
  404628:	55 00 00 00 01 02 10 00 	sll $2,$16,0x1
  404630:	42 00 00 00 00 02 03 02 	addu $2,$2,$3
  404638:	26 00 00 00 00 00 02 02 	lhu $2,0($2)
  404640:	4f 00 00 00 08 00 02 02 	andi $2,$2,8
  404648:	06 00 00 00 e2 ff 00 02 	bne $2,$0,4045d8 <l_R+0x1a8>
  404650:	43 00 00 00 2a 00 02 00 	addiu $2,$0,42
  404658:	06 00 00 00 2c 00 02 10 	bne $16,$2,404710 <l_R+0x2e0>
  404660:	06 00 00 00 2a 00 00 16 	bne $22,$0,404710 <l_R+0x2e0>
  404668:	05 00 00 00 08 00 17 12 	beq $18,$23,404690 <l_R+0x260>
  404670:	06 00 00 00 06 00 00 13 	bne $19,$0,404690 <l_R+0x260>
  404678:	20 00 00 00 10 00 03 1d 	lb $3,16($29)
  404680:	43 00 00 00 2d 00 02 00 	addiu $2,$0,45
  404688:	06 00 00 00 0e 00 02 03 	bne $3,$2,4046c8 <l_R+0x298>
  404690:	28 00 00 00 e4 86 02 1c 	lw $2,-31004($28)
  404698:	28 00 00 00 00 00 04 02 	lw $4,0($2)
  4046a0:	43 00 00 00 70 00 05 00 	addiu $5,$0,112
  4046a8:	a2 00 00 00 00 10 06 00 	lui $6,4096
  4046b0:	43 00 00 00 e0 01 06 06 	addiu $6,$6,480
  4046b8:	02 00 00 00 84 2e 10 00 	jal 40ba10 <err__fl>
  4046c0:	01 00 00 00 fa 12 10 00 	j 404be8 <l_R+0x7b8>
  4046c8:	43 00 00 00 01 00 1e 00 	addiu $30,$0,1
  4046d0:	43 00 00 00 01 00 16 00 	addiu $22,$0,1
  4046d8:	43 00 00 00 10 00 04 1d 	addiu $4,$29,16
  4046e0:	42 00 00 00 00 05 00 00 	addu $5,$0,$0
  4046e8:	43 00 00 00 0a 00 06 00 	addiu $6,$0,10
  4046f0:	30 00 00 00 00 00 00 12 	sb $0,0($18)
  4046f8:	02 00 00 00 f4 42 10 00 	jal 410bd0 <strtol>
  404700:	34 00 00 00 a0 86 02 1c 	sw $2,-31072($28)
  404708:	01 00 00 00 34 11 10 00 	j 4044d0 <l_R+0xa0>
  404710:	43 00 00 00 2e 00 02 00 	addiu $2,$0,46
  404718:	06 00 00 00 42 00 02 10 	bne $16,$2,404828 <l_R+0x3f8>
  404720:	28 00 00 00 74 86 02 1c 	lw $2,-31116($28)
  404728:	04 00 00 00 00 1f 00 02 	jalr $31,$2
  404730:	42 00 00 00 00 10 02 00 	addu $16,$0,$2
  404738:	06 00 00 00 12 00 17 12 	bne $18,$23,404788 <l_R+0x358>
  404740:	43 00 00 00 30 00 02 00 	addiu $2,$0,48
  404748:	06 00 00 00 0e 00 02 10 	bne $16,$2,404788 <l_R+0x358>
  404750:	43 00 00 00 30 00 11 00 	addiu $17,$0,48
  404758:	28 00 00 00 74 86 02 1c 	lw $2,-31116($28)
  404760:	43 00 00 00 01 00 14 14 	addiu $20,$20,1
  404768:	43 00 00 00 ff ff 13 13 	addiu $19,$19,-1
  404770:	04 00 00 00 00 1f 00 02 	jalr $31,$2
  404778:	42 00 00 00 00 10 02 00 	addu $16,$0,$2
  404780:	05 00 00 00 f4 ff 11 10 	beq $16,$17,404758 <l_R+0x328>
  404788:	28 00 00 00 d0 81 02 1c 	lw $2,-32304($28)
  404790:	55 00 00 00 01 03 10 00 	sll $3,$16,0x1
  404798:	42 00 00 00 00 03 02 03 	addu $3,$3,$2
  4047a0:	26 00 00 00 00 00 02 03 	lhu $2,0($3)
  4047a8:	4f 00 00 00 08 00 02 02 	andi $2,$2,8
  4047b0:	05 00 00 00 1c 00 00 02 	beq $2,$0,404828 <l_R+0x3f8>
  4047b8:	5d 00 00 00 00 02 15 12 	sltu $2,$18,$21
  4047c0:	05 00 00 00 06 00 00 02 	beq $2,$0,4047e0 <l_R+0x3b0>
  4047c8:	30 00 00 00 00 00 10 12 	sb $16,0($18)
  4047d0:	43 00 00 00 01 00 12 12 	addiu $18,$18,1
  4047d8:	43 00 00 00 ff ff 13 13 	addiu $19,$19,-1
  4047e0:	28 00 00 00 74 86 02 1c 	lw $2,-31116($28)
  4047e8:	04 00 00 00 00 1f 00 02 	jalr $31,$2
  4047f0:	28 00 00 00 d0 81 03 1c 	lw $3,-32304($28)
  4047f8:	42 00 00 00 00 10 02 00 	addu $16,$0,$2
  404800:	55 00 00 00 01 02 10 00 	sll $2,$16,0x1
  404808:	42 00 00 00 00 02 03 02 	addu $2,$2,$3
  404810:	26 00 00 00 00 00 02 02 	lhu $2,0($2)
  404818:	4f 00 00 00 08 00 02 02 	andi $2,$2,8
  404820:	06 00 00 00 e4 ff 00 02 	bne $2,$0,4047b8 <l_R+0x388>
  404828:	45 00 00 00 00 02 17 12 	subu $2,$18,$23
  404830:	a2 00 00 00 00 10 03 00 	lui $3,4096
  404838:	42 00 00 00 00 03 10 03 	addu $3,$3,$16
  404840:	22 00 00 00 d1 25 03 03 	lbu $3,9681($3)
  404848:	42 00 00 00 00 14 02 14 	addu $20,$20,$2
  404850:	42 00 00 00 00 16 00 00 	addu $22,$0,$0
  404858:	4f 00 00 00 10 00 02 03 	andi $2,$3,16
  404860:	06 00 00 00 16 00 00 02 	bne $2,$0,4048c0 <l_R+0x490>
  404868:	05 00 00 00 6a 00 00 14 	beq $20,$0,404a18 <l_R+0x5e8>
  404870:	4f 00 00 00 08 00 02 03 	andi $2,$3,8
  404878:	05 00 00 00 66 00 00 02 	beq $2,$0,404a18 <l_R+0x5e8>
  404880:	28 00 00 00 74 86 02 1c 	lw $2,-31116($28)
  404888:	04 00 00 00 00 1f 00 02 	jalr $31,$2
  404890:	42 00 00 00 00 10 02 00 	addu $16,$0,$2
  404898:	a2 00 00 00 00 10 02 00 	lui $2,4096
  4048a0:	42 00 00 00 00 02 10 02 	addu $2,$2,$16
  4048a8:	22 00 00 00 d1 25 02 02 	lbu $2,9681($2)
  4048b0:	4f 00 00 00 10 00 02 02 	andi $2,$2,16
  4048b8:	05 00 00 00 0c 00 00 02 	beq $2,$0,4048f0 <l_R+0x4c0>
  4048c0:	43 00 00 00 2d 00 02 00 	addiu $2,$0,45
  4048c8:	06 00 00 00 02 00 02 10 	bne $16,$2,4048d8 <l_R+0x4a8>
  4048d0:	43 00 00 00 01 00 16 00 	addiu $22,$0,1
  4048d8:	28 00 00 00 74 86 02 1c 	lw $2,-31116($28)
  4048e0:	04 00 00 00 00 1f 00 02 	jalr $31,$2
  4048e8:	42 00 00 00 00 10 02 00 	addu $16,$0,$2
  4048f0:	28 00 00 00 d0 81 02 1c 	lw $2,-32304($28)
  4048f8:	55 00 00 00 01 03 10 00 	sll $3,$16,0x1
  404900:	42 00 00 00 00 03 02 03 	addu $3,$3,$2
  404908:	26 00 00 00 00 00 02 03 	lhu $2,0($3)
  404910:	4f 00 00 00 08 00 02 02 	andi $2,$2,8
  404918:	06 00 00 00 0e 00 00 02 	bne $2,$0,404958 <l_R+0x528>
  404920:	28 00 00 00 e4 86 02 1c 	lw $2,-31004($28)
  404928:	28 00 00 00 00 00 04 02 	lw $4,0($2)
  404930:	43 00 00 00 70 00 05 00 	addiu $5,$0,112
  404938:	a2 00 00 00 00 10 06 00 	lui $6,4096
  404940:	43 00 00 00 f8 01 06 06 	addiu $6,$6,504
  404948:	02 00 00 00 84 2e 10 00 	jal 40ba10 <err__fl>
  404950:	01 00 00 00 fa 12 10 00 	j 404be8 <l_R+0x7b8>
  404958:	43 00 00 00 d0 ff 11 10 	addiu $17,$16,-48
  404960:	a2 00 00 00 f5 05 15 00 	lui $21,1525
  404968:	51 00 00 00 ff e0 15 15 	ori $21,$21,57599
  404970:	28 00 00 00 74 86 02 1c 	lw $2,-31116($28)
  404978:	04 00 00 00 00 1f 00 02 	jalr $31,$2
  404980:	28 00 00 00 d0 81 03 1c 	lw $3,-32304($28)
  404988:	42 00 00 00 00 10 02 00 	addu $16,$0,$2
  404990:	55 00 00 00 01 02 10 00 	sll $2,$16,0x1
  404998:	42 00 00 00 00 02 03 02 	addu $2,$2,$3
  4049a0:	26 00 00 00 00 00 02 02 	lhu $2,0($2)
  4049a8:	4f 00 00 00 08 00 02 02 	andi $2,$2,8
  4049b0:	05 00 00 00 10 00 00 02 	beq $2,$0,4049f8 <l_R+0x5c8>
  4049b8:	55 00 00 00 02 02 11 00 	sll $2,$17,0x2
  4049c0:	42 00 00 00 00 02 11 02 	addu $2,$2,$17
  4049c8:	55 00 00 00 01 02 02 00 	sll $2,$2,0x1
  4049d0:	42 00 00 00 00 02 10 02 	addu $2,$2,$16
  4049d8:	43 00 00 00 d0 ff 11 02 	addiu $17,$2,-48
  4049e0:	5b 00 00 00 00 02 11 15 	slt $2,$21,$17
  4049e8:	06 00 00 00 cc ff 00 02 	bne $2,$0,404920 <l_R+0x4f0>
  4049f0:	01 00 00 00 5c 12 10 00 	j 404970 <l_R+0x540>
  4049f8:	05 00 00 00 04 00 00 16 	beq $22,$0,404a10 <l_R+0x5e0>
  404a00:	45 00 00 00 00 13 11 13 	subu $19,$19,$17
  404a08:	01 00 00 00 86 12 10 00 	j 404a18 <l_R+0x5e8>
  404a10:	42 00 00 00 00 13 11 13 	addu $19,$19,$17
  404a18:	28 00 00 00 fc 86 05 1c 	lw $5,-30980($28)
  404a20:	28 00 00 00 7c 86 02 1c 	lw $2,-31108($28)
  404a28:	42 00 00 00 00 04 10 00 	addu $4,$0,$16
  404a30:	04 00 00 00 00 1f 00 02 	jalr $31,$2
  404a38:	5d 00 00 00 00 02 12 17 	sltu $2,$23,$18
  404a40:	05 00 00 00 2e 00 00 02 	beq $2,$0,404b00 <l_R+0x6d0>
  404a48:	43 00 00 00 ff ff 12 12 	addiu $18,$18,-1
  404a50:	20 00 00 00 00 00 03 12 	lb $3,0($18)
  404a58:	43 00 00 00 01 00 14 14 	addiu $20,$20,1
  404a60:	43 00 00 00 30 00 02 00 	addiu $2,$0,48
  404a68:	06 00 00 00 0a 00 02 03 	bne $3,$2,404a98 <l_R+0x668>
  404a70:	43 00 00 00 30 00 03 00 	addiu $3,$0,48
  404a78:	43 00 00 00 ff ff 12 12 	addiu $18,$18,-1
  404a80:	20 00 00 00 00 00 02 12 	lb $2,0($18)
  404a88:	43 00 00 00 01 00 13 13 	addiu $19,$19,1
  404a90:	05 00 00 00 f8 ff 03 02 	beq $2,$3,404a78 <l_R+0x648>
  404a98:	05 00 00 00 0a 00 00 13 	beq $19,$0,404ac8 <l_R+0x698>
  404aa0:	43 00 00 00 01 00 04 12 	addiu $4,$18,1
  404aa8:	43 00 00 00 a0 80 05 1c 	addiu $5,$28,-32608
  404ab0:	42 00 00 00 00 06 13 00 	addu $6,$0,$19
  404ab8:	02 00 00 00 d4 31 10 00 	jal 40c750 <sprintf>
  404ac0:	01 00 00 00 b4 12 10 00 	j 404ad0 <l_R+0x6a0>
  404ac8:	30 00 00 00 01 00 00 12 	sb $0,1($18)
  404ad0:	43 00 00 00 10 00 04 1d 	addiu $4,$29,16
  404ad8:	42 00 00 00 00 05 00 00 	addu $5,$0,$0
  404ae0:	02 00 00 00 00 44 10 00 	jal 411000 <strtod>
  404ae8:	36 00 00 00 98 86 00 1c 	s.s $f0,-31080($28)
  404af0:	36 00 00 00 9c 86 01 1c 	s.s $f1,-31076($28)
  404af8:	01 00 00 00 c4 12 10 00 	j 404b10 <l_R+0x6e0>
  404b00:	34 00 00 00 98 86 00 1c 	sw $0,-31080($28)
  404b08:	34 00 00 00 9c 86 00 1c 	sw $0,-31076($28)
  404b10:	05 00 00 00 06 00 00 14 	beq $20,$0,404b30 <l_R+0x700>
  404b18:	43 00 00 00 03 00 02 00 	addiu $2,$0,3
  404b20:	34 00 00 00 70 86 02 1c 	sw $2,-31120($28)
  404b28:	01 00 00 00 f8 12 10 00 	j 404be0 <l_R+0x7b0>
  404b30:	43 00 00 00 2c 00 02 00 	addiu $2,$0,44
  404b38:	05 00 00 00 28 00 02 10 	beq $16,$2,404be0 <l_R+0x7b0>
  404b40:	43 00 00 00 2f 00 02 00 	addiu $2,$0,47
  404b48:	05 00 00 00 24 00 02 10 	beq $16,$2,404be0 <l_R+0x7b0>
  404b50:	05 00 00 00 0a 00 00 1e 	beq $30,$0,404b80 <l_R+0x750>
  404b58:	43 00 00 00 20 00 02 00 	addiu $2,$0,32
  404b60:	05 00 00 00 1e 00 02 10 	beq $16,$2,404be0 <l_R+0x7b0>
  404b68:	43 00 00 00 f7 ff 02 10 	addiu $2,$16,-9
  404b70:	5e 00 00 00 02 00 02 02 	sltiu $2,$2,2
  404b78:	06 00 00 00 18 00 00 02 	bne $2,$0,404be0 <l_R+0x7b0>
  404b80:	28 00 00 00 84 86 02 1c 	lw $2,-31100($28)
  404b88:	5c 00 00 00 02 00 02 02 	slti $2,$2,2
  404b90:	05 00 00 00 0e 00 00 02 	beq $2,$0,404bd0 <l_R+0x7a0>
  404b98:	28 00 00 00 e4 86 02 1c 	lw $2,-31004($28)
  404ba0:	28 00 00 00 00 00 04 02 	lw $4,0($2)
  404ba8:	43 00 00 00 70 00 05 00 	addiu $5,$0,112
  404bb0:	a2 00 00 00 00 10 06 00 	lui $6,4096
  404bb8:	43 00 00 00 08 02 06 06 	addiu $6,$6,520
  404bc0:	02 00 00 00 84 2e 10 00 	jal 40ba10 <err__fl>
  404bc8:	01 00 00 00 fa 12 10 00 	j 404be8 <l_R+0x7b8>
  404bd0:	43 00 00 00 02 00 02 00 	addiu $2,$0,2
  404bd8:	34 00 00 00 8c 86 02 1c 	sw $2,-31092($28)
  404be0:	42 00 00 00 00 02 00 00 	addu $2,$0,$0
  404be8:	28 00 00 00 6c 00 1f 1d 	lw $31,108($29)
  404bf0:	28 00 00 00 68 00 1e 1d 	lw $30,104($29)
  404bf8:	28 00 00 00 64 00 17 1d 	lw $23,100($29)
  404c00:	28 00 00 00 60 00 16 1d 	lw $22,96($29)
  404c08:	28 00 00 00 5c 00 15 1d 	lw $21,92($29)
  404c10:	28 00 00 00 58 00 14 1d 	lw $20,88($29)
  404c18:	28 00 00 00 54 00 13 1d 	lw $19,84($29)
  404c20:	28 00 00 00 50 00 12 1d 	lw $18,80($29)
  404c28:	28 00 00 00 4c 00 11 1d 	lw $17,76($29)
  404c30:	28 00 00 00 48 00 10 1d 	lw $16,72($29)
  404c38:	43 00 00 00 70 00 1d 1d 	addiu $29,$29,112
  404c40:	03 00 00 00 00 00 00 1f 	jr $31

00404c48 <l_C>:
  404c48:	28 00 00 00 a0 86 02 1c 	lw $2,-31072($28)
  404c50:	43 00 00 00 e0 ff 1d 1d 	addiu $29,$29,-32
  404c58:	34 00 00 00 14 00 1f 1d 	sw $31,20($29)
  404c60:	34 00 00 00 10 00 10 1d 	sw $16,16($29)
  404c68:	36 00 00 00 18 00 14 1d 	s.s $f20,24($29)
  404c70:	36 00 00 00 1c 00 15 1d 	s.s $f21,28($29)
  404c78:	07 00 00 00 04 00 00 02 	blez $2,404c90 <l_C+0x48>
  404c80:	42 00 00 00 00 02 00 00 	addu $2,$0,$0
  404c88:	01 00 00 00 a2 14 10 00 	j 405288 <l_C+0x640>
  404c90:	28 00 00 00 74 86 02 1c 	lw $2,-31116($28)
  404c98:	34 00 00 00 70 86 00 1c 	sw $0,-31120($28)
  404ca0:	04 00 00 00 00 1f 00 02 	jalr $31,$2
  404ca8:	42 00 00 00 00 04 02 00 	addu $4,$0,$2
  404cb0:	43 00 00 00 28 00 02 00 	addiu $2,$0,40
  404cb8:	05 00 00 00 b4 00 02 04 	beq $4,$2,404f90 <l_C+0x348>
  404cc0:	28 00 00 00 84 86 02 1c 	lw $2,-31100($28)
  404cc8:	5c 00 00 00 02 00 02 02 	slti $2,$2,2
  404cd0:	06 00 00 00 14 00 00 02 	bne $2,$0,404d28 <l_C+0xe0>
  404cd8:	43 00 00 00 d0 ff 02 04 	addiu $2,$4,-48
  404ce0:	5e 00 00 00 0a 00 02 02 	sltiu $2,$2,10
  404ce8:	06 00 00 00 0e 00 00 02 	bne $2,$0,404d28 <l_C+0xe0>
  404cf0:	28 00 00 00 fc 86 05 1c 	lw $5,-30980($28)
  404cf8:	28 00 00 00 7c 86 02 1c 	lw $2,-31108($28)
  404d00:	04 00 00 00 00 1f 00 02 	jalr $31,$2
  404d08:	42 00 00 00 00 02 00 00 	addu $2,$0,$0
  404d10:	43 00 00 00 02 00 03 00 	addiu $3,$0,2
  404d18:	34 00 00 00 8c 86 03 1c 	sw $3,-31092($28)
  404d20:	01 00 00 00 a2 14 10 00 	j 405288 <l_C+0x640>
  404d28:	43 00 00 00 d0 ff 04 04 	addiu $4,$4,-48
  404d30:	5e 00 00 00 0a 00 02 04 	sltiu $2,$4,10
  404d38:	06 00 00 00 04 00 00 02 	bne $2,$0,404d50 <l_C+0x108>
  404d40:	43 00 00 00 01 00 02 00 	addiu $2,$0,1
  404d48:	01 00 00 00 7e 13 10 00 	j 404df8 <l_C+0x1b0>
  404d50:	34 00 00 00 a0 86 04 1c 	sw $4,-31072($28)
  404d58:	28 00 00 00 74 86 02 1c 	lw $2,-31116($28)
  404d60:	04 00 00 00 00 1f 00 02 	jalr $31,$2
  404d68:	42 00 00 00 00 04 02 00 	addu $4,$0,$2
  404d70:	5c 00 00 00 30 00 02 04 	slti $2,$4,48
  404d78:	06 00 00 00 14 00 00 02 	bne $2,$0,404dd0 <l_C+0x188>
  404d80:	5c 00 00 00 3a 00 02 04 	slti $2,$4,58
  404d88:	05 00 00 00 10 00 00 02 	beq $2,$0,404dd0 <l_C+0x188>
  404d90:	28 00 00 00 a0 86 03 1c 	lw $3,-31072($28)
  404d98:	55 00 00 00 02 02 03 00 	sll $2,$3,0x2
  404da0:	42 00 00 00 00 02 03 02 	addu $2,$2,$3
  404da8:	55 00 00 00 01 02 02 00 	sll $2,$2,0x1
  404db0:	42 00 00 00 00 02 04 02 	addu $2,$2,$4
  404db8:	43 00 00 00 d0 ff 02 02 	addiu $2,$2,-48
  404dc0:	34 00 00 00 a0 86 02 1c 	sw $2,-31072($28)
  404dc8:	01 00 00 00 56 13 10 00 	j 404d58 <l_C+0x110>
  404dd0:	28 00 00 00 fc 86 05 1c 	lw $5,-30980($28)
  404dd8:	28 00 00 00 7c 86 02 1c 	lw $2,-31108($28)
  404de0:	04 00 00 00 00 1f 00 02 	jalr $31,$2
  404de8:	28 00 00 00 a0 86 02 1c 	lw $2,-31072($28)
  404df0:	5c 00 00 00 01 00 02 02 	slti $2,$2,1
  404df8:	05 00 00 00 1e 00 00 02 	beq $2,$0,404e78 <l_C+0x230>
  404e00:	28 00 00 00 fc 86 02 1c 	lw $2,-30980($28)
  404e08:	05 00 00 00 06 00 00 02 	beq $2,$0,404e28 <l_C+0x1e0>
  404e10:	28 00 00 00 4c 00 02 02 	lw $2,76($2)
  404e18:	4f 00 00 00 00 02 02 02 	andi $2,$2,512
  404e20:	06 00 00 00 0c 00 00 02 	bne $2,$0,404e58 <l_C+0x210>
  404e28:	28 00 00 00 e4 86 02 1c 	lw $2,-31004($28)
  404e30:	28 00 00 00 00 00 04 02 	lw $4,0($2)
  404e38:	43 00 00 00 70 00 05 00 	addiu $5,$0,112
  404e40:	a2 00 00 00 00 10 06 00 	lui $6,4096
  404e48:	43 00 00 00 18 02 06 06 	addiu $6,$6,536
  404e50:	01 00 00 00 a0 14 10 00 	j 405280 <l_C+0x638>
  404e58:	28 00 00 00 e4 86 02 1c 	lw $2,-31004($28)
  404e60:	28 00 00 00 00 00 02 02 	lw $2,0($2)
  404e68:	06 00 00 00 24 00 00 02 	bne $2,$0,404f00 <l_C+0x2b8>
  404e70:	01 00 00 00 c6 13 10 00 	j 404f18 <l_C+0x2d0>
  404e78:	28 00 00 00 74 86 02 1c 	lw $2,-31116($28)
  404e80:	04 00 00 00 00 1f 00 02 	jalr $31,$2
  404e88:	43 00 00 00 2a 00 03 00 	addiu $3,$0,42
  404e90:	05 00 00 00 2a 00 03 02 	beq $2,$3,404f40 <l_C+0x2f8>
  404e98:	28 00 00 00 fc 86 02 1c 	lw $2,-30980($28)
  404ea0:	05 00 00 00 06 00 00 02 	beq $2,$0,404ec0 <l_C+0x278>
  404ea8:	28 00 00 00 4c 00 02 02 	lw $2,76($2)
  404eb0:	4f 00 00 00 00 02 02 02 	andi $2,$2,512
  404eb8:	06 00 00 00 0a 00 00 02 	bne $2,$0,404ee8 <l_C+0x2a0>
  404ec0:	28 00 00 00 e4 86 02 1c 	lw $2,-31004($28)
  404ec8:	28 00 00 00 00 00 04 02 	lw $4,0($2)
  404ed0:	43 00 00 00 70 00 05 00 	addiu $5,$0,112
  404ed8:	43 00 00 00 b0 80 06 1c 	addiu $6,$28,-32592
  404ee0:	01 00 00 00 a0 14 10 00 	j 405280 <l_C+0x638>
  404ee8:	28 00 00 00 e4 86 02 1c 	lw $2,-31004($28)
  404ef0:	28 00 00 00 00 00 02 02 	lw $2,0($2)
  404ef8:	05 00 00 00 06 00 00 02 	beq $2,$0,404f18 <l_C+0x2d0>
  404f00:	43 00 00 00 ff ff 02 00 	addiu $2,$0,-1
  404f08:	34 00 00 00 50 86 02 1c 	sw $2,-31152($28)
  404f10:	01 00 00 00 cc 13 10 00 	j 404f30 <l_C+0x2e8>
  404f18:	43 00 00 00 ff ff 04 00 	addiu $4,$0,-1
  404f20:	43 00 00 00 a8 80 05 1c 	addiu $5,$28,-32600
  404f28:	02 00 00 00 9a 2c 10 00 	jal 40b268 <f__fatal>
  404f30:	43 00 00 00 ff ff 02 00 	addiu $2,$0,-1
  404f38:	01 00 00 00 a2 14 10 00 	j 405288 <l_C+0x640>
  404f40:	28 00 00 00 74 86 02 1c 	lw $2,-31116($28)
  404f48:	04 00 00 00 00 1f 00 02 	jalr $31,$2
  404f50:	42 00 00 00 00 04 02 00 	addu $4,$0,$2
  404f58:	43 00 00 00 28 00 02 00 	addiu $2,$0,40
  404f60:	05 00 00 00 0e 00 02 04 	beq $4,$2,404fa0 <l_C+0x358>
  404f68:	28 00 00 00 fc 86 05 1c 	lw $5,-30980($28)
  404f70:	28 00 00 00 7c 86 02 1c 	lw $2,-31108($28)
  404f78:	04 00 00 00 00 1f 00 02 	jalr $31,$2
  404f80:	42 00 00 00 00 02 00 00 	addu $2,$0,$0
  404f88:	01 00 00 00 a2 14 10 00 	j 405288 <l_C+0x640>
  404f90:	43 00 00 00 01 00 02 00 	addiu $2,$0,1
  404f98:	34 00 00 00 a0 86 02 1c 	sw $2,-31072($28)
  404fa0:	28 00 00 00 74 86 02 1c 	lw $2,-31116($28)
  404fa8:	04 00 00 00 00 1f 00 02 	jalr $31,$2
  404fb0:	42 00 00 00 00 04 02 00 	addu $4,$0,$2
  404fb8:	a2 00 00 00 00 10 02 00 	lui $2,4096
  404fc0:	42 00 00 00 00 02 04 02 	addu $2,$2,$4
  404fc8:	22 00 00 00 d1 25 02 02 	lbu $2,9681($2)
  404fd0:	4f 00 00 00 20 00 02 02 	andi $2,$2,32
  404fd8:	06 00 00 00 f0 ff 00 02 	bne $2,$0,404fa0 <l_C+0x358>
  404fe0:	28 00 00 00 fc 86 05 1c 	lw $5,-30980($28)
  404fe8:	28 00 00 00 7c 86 02 1c 	lw $2,-31108($28)
  404ff0:	04 00 00 00 00 1f 00 02 	jalr $31,$2
  404ff8:	28 00 00 00 84 86 10 1c 	lw $16,-31100($28)
  405000:	43 00 00 00 01 00 04 00 	addiu $4,$0,1
  405008:	34 00 00 00 84 86 00 1c 	sw $0,-31100($28)
  405010:	02 00 00 00 0c 11 10 00 	jal 404430 <l_R>
  405018:	42 00 00 00 00 04 02 00 	addu $4,$0,$2
  405020:	06 00 00 00 98 00 00 04 	bne $4,$0,405288 <l_C+0x640>
  405028:	28 00 00 00 70 86 02 1c 	lw $2,-31120($28)
  405030:	06 00 00 00 0c 00 00 02 	bne $2,$0,405068 <l_C+0x420>
  405038:	28 00 00 00 e4 86 02 1c 	lw $2,-31004($28)
  405040:	28 00 00 00 00 00 04 02 	lw $4,0($2)
  405048:	43 00 00 00 70 00 05 00 	addiu $5,$0,112
  405050:	a2 00 00 00 00 10 06 00 	lui $6,4096
  405058:	43 00 00 00 28 02 06 06 	addiu $6,$6,552
  405060:	01 00 00 00 a0 14 10 00 	j 405280 <l_C+0x638>
  405068:	2a 00 00 00 98 86 14 1c 	l.s $f20,-31080($28)
  405070:	2a 00 00 00 9c 86 15 1c 	l.s $f21,-31076($28)
  405078:	28 00 00 00 74 86 02 1c 	lw $2,-31116($28)
  405080:	04 00 00 00 00 1f 00 02 	jalr $31,$2
  405088:	42 00 00 00 00 04 02 00 	addu $4,$0,$2
  405090:	a2 00 00 00 00 10 02 00 	lui $2,4096
  405098:	42 00 00 00 00 02 04 02 	addu $2,$2,$4
  4050a0:	22 00 00 00 d1 25 02 02 	lbu $2,9681($2)
  4050a8:	4f 00 00 00 20 00 02 02 	andi $2,$2,32
  4050b0:	06 00 00 00 f0 ff 00 02 	bne $2,$0,405078 <l_C+0x430>
  4050b8:	43 00 00 00 2c 00 02 00 	addiu $2,$0,44
  4050c0:	05 00 00 00 12 00 02 04 	beq $4,$2,405110 <l_C+0x4c8>
  4050c8:	28 00 00 00 fc 86 05 1c 	lw $5,-30980($28)
  4050d0:	28 00 00 00 7c 86 02 1c 	lw $2,-31108($28)
  4050d8:	04 00 00 00 00 1f 00 02 	jalr $31,$2
  4050e0:	28 00 00 00 e4 86 02 1c 	lw $2,-31004($28)
  4050e8:	28 00 00 00 00 00 04 02 	lw $4,0($2)
  4050f0:	43 00 00 00 70 00 05 00 	addiu $5,$0,112
  4050f8:	a2 00 00 00 00 10 06 00 	lui $6,4096
  405100:	43 00 00 00 38 02 06 06 	addiu $6,$6,568
  405108:	01 00 00 00 a0 14 10 00 	j 405280 <l_C+0x638>
  405110:	28 00 00 00 74 86 02 1c 	lw $2,-31116($28)
  405118:	04 00 00 00 00 1f 00 02 	jalr $31,$2
  405120:	42 00 00 00 00 04 02 00 	addu $4,$0,$2
  405128:	a2 00 00 00 00 10 02 00 	lui $2,4096
  405130:	42 00 00 00 00 02 04 02 	addu $2,$2,$4
  405138:	22 00 00 00 d1 25 02 02 	lbu $2,9681($2)
  405140:	4f 00 00 00 20 00 02 02 	andi $2,$2,32
  405148:	06 00 00 00 f0 ff 00 02 	bne $2,$0,405110 <l_C+0x4c8>
  405150:	28 00 00 00 fc 86 05 1c 	lw $5,-30980($28)
  405158:	28 00 00 00 7c 86 02 1c 	lw $2,-31108($28)
  405160:	04 00 00 00 00 1f 00 02 	jalr $31,$2
  405168:	43 00 00 00 01 00 04 00 	addiu $4,$0,1
  405170:	02 00 00 00 0c 11 10 00 	jal 404430 <l_R>
  405178:	42 00 00 00 00 04 02 00 	addu $4,$0,$2
  405180:	06 00 00 00 40 00 00 04 	bne $4,$0,405288 <l_C+0x640>
  405188:	28 00 00 00 70 86 02 1c 	lw $2,-31120($28)
  405190:	06 00 00 00 0c 00 00 02 	bne $2,$0,4051c8 <l_C+0x580>
  405198:	28 00 00 00 e4 86 02 1c 	lw $2,-31004($28)
  4051a0:	28 00 00 00 00 00 04 02 	lw $4,0($2)
  4051a8:	43 00 00 00 70 00 05 00 	addiu $5,$0,112
  4051b0:	a2 00 00 00 00 10 06 00 	lui $6,4096
  4051b8:	43 00 00 00 44 02 06 06 	addiu $6,$6,580
  4051c0:	01 00 00 00 a0 14 10 00 	j 405280 <l_C+0x638>
  4051c8:	28 00 00 00 74 86 02 1c 	lw $2,-31116($28)
  4051d0:	04 00 00 00 00 1f 00 02 	jalr $31,$2
  4051d8:	42 00 00 00 00 04 02 00 	addu $4,$0,$2
  4051e0:	a2 00 00 00 00 10 02 00 	lui $2,4096
  4051e8:	42 00 00 00 00 02 04 02 	addu $2,$2,$4
  4051f0:	22 00 00 00 d1 25 02 02 	lbu $2,9681($2)
  4051f8:	4f 00 00 00 20 00 02 02 	andi $2,$2,32
  405200:	06 00 00 00 f0 ff 00 02 	bne $2,$0,4051c8 <l_C+0x580>
  405208:	43 00 00 00 29 00 02 00 	addiu $2,$0,41
  405210:	06 00 00 00 12 00 02 04 	bne $4,$2,405260 <l_C+0x618>
  405218:	2a 00 00 00 98 86 00 1c 	l.s $f0,-31080($28)
  405220:	2a 00 00 00 9c 86 01 1c 	l.s $f1,-31076($28)
  405228:	42 00 00 00 00 02 00 00 	addu $2,$0,$0
  405230:	34 00 00 00 84 86 10 1c 	sw $16,-31100($28)
  405238:	36 00 00 00 90 86 00 1c 	s.s $f0,-31088($28)
  405240:	36 00 00 00 94 86 01 1c 	s.s $f1,-31084($28)
  405248:	36 00 00 00 98 86 14 1c 	s.s $f20,-31080($28)
  405250:	36 00 00 00 9c 86 15 1c 	s.s $f21,-31076($28)
  405258:	01 00 00 00 a2 14 10 00 	j 405288 <l_C+0x640>
  405260:	28 00 00 00 e4 86 02 1c 	lw $2,-31004($28)
  405268:	28 00 00 00 00 00 04 02 	lw $4,0($2)
  405270:	43 00 00 00 70 00 05 00 	addiu $5,$0,112
  405278:	43 00 00 00 b8 80 06 1c 	addiu $6,$28,-32584
  405280:	02 00 00 00 84 2e 10 00 	jal 40ba10 <err__fl>
  405288:	28 00 00 00 14 00 1f 1d 	lw $31,20($29)
  405290:	28 00 00 00 10 00 10 1d 	lw $16,16($29)
  405298:	2a 00 00 00 18 00 14 1d 	l.s $f20,24($29)
  4052a0:	2a 00 00 00 1c 00 15 1d 	l.s $f21,28($29)
  4052a8:	43 00 00 00 20 00 1d 1d 	addiu $29,$29,32
  4052b0:	03 00 00 00 00 00 00 1f 	jr $31

004052b8 <l_L>:
  4052b8:	28 00 00 00 a0 86 02 1c 	lw $2,-31072($28)
  4052c0:	43 00 00 00 e8 ff 1d 1d 	addiu $29,$29,-24
  4052c8:	34 00 00 00 14 00 1f 1d 	sw $31,20($29)
  4052d0:	34 00 00 00 10 00 10 1d 	sw $16,16($29)
  4052d8:	08 00 00 00 fe 00 00 02 	bgtz $2,4056d8 <l_L+0x420>
  4052e0:	28 00 00 00 74 86 03 1c 	lw $3,-31116($28)
  4052e8:	43 00 00 00 01 00 02 00 	addiu $2,$0,1
  4052f0:	34 00 00 00 a0 86 02 1c 	sw $2,-31072($28)
  4052f8:	34 00 00 00 70 86 00 1c 	sw $0,-31120($28)
  405300:	04 00 00 00 00 1f 00 03 	jalr $31,$3
  405308:	28 00 00 00 d0 81 03 1c 	lw $3,-32304($28)
  405310:	42 00 00 00 00 04 02 00 	addu $4,$0,$2
  405318:	55 00 00 00 01 02 04 00 	sll $2,$4,0x1
  405320:	42 00 00 00 00 02 03 02 	addu $2,$2,$3
  405328:	26 00 00 00 00 00 02 02 	lhu $2,0($2)
  405330:	4f 00 00 00 08 00 02 02 	andi $2,$2,8
  405338:	05 00 00 00 66 00 00 02 	beq $2,$0,4054d8 <l_L+0x220>
  405340:	43 00 00 00 d0 ff 04 04 	addiu $4,$4,-48
  405348:	5e 00 00 00 0a 00 02 04 	sltiu $2,$4,10
  405350:	05 00 00 00 26 00 00 02 	beq $2,$0,4053f0 <l_L+0x138>
  405358:	34 00 00 00 a0 86 04 1c 	sw $4,-31072($28)
  405360:	28 00 00 00 74 86 02 1c 	lw $2,-31116($28)
  405368:	04 00 00 00 00 1f 00 02 	jalr $31,$2
  405370:	42 00 00 00 00 04 02 00 	addu $4,$0,$2
  405378:	5c 00 00 00 30 00 02 04 	slti $2,$4,48
  405380:	06 00 00 00 14 00 00 02 	bne $2,$0,4053d8 <l_L+0x120>
  405388:	5c 00 00 00 3a 00 02 04 	slti $2,$4,58
  405390:	05 00 00 00 10 00 00 02 	beq $2,$0,4053d8 <l_L+0x120>
  405398:	28 00 00 00 a0 86 03 1c 	lw $3,-31072($28)
  4053a0:	55 00 00 00 02 02 03 00 	sll $2,$3,0x2
  4053a8:	42 00 00 00 00 02 03 02 	addu $2,$2,$3
  4053b0:	55 00 00 00 01 02 02 00 	sll $2,$2,0x1
  4053b8:	42 00 00 00 00 02 04 02 	addu $2,$2,$4
  4053c0:	43 00 00 00 d0 ff 02 02 	addiu $2,$2,-48
  4053c8:	34 00 00 00 a0 86 02 1c 	sw $2,-31072($28)
  4053d0:	01 00 00 00 d8 14 10 00 	j 405360 <l_L+0xa8>
  4053d8:	28 00 00 00 fc 86 05 1c 	lw $5,-30980($28)
  4053e0:	28 00 00 00 7c 86 02 1c 	lw $2,-31108($28)
  4053e8:	04 00 00 00 00 1f 00 02 	jalr $31,$2
  4053f0:	28 00 00 00 74 86 02 1c 	lw $2,-31116($28)
  4053f8:	04 00 00 00 00 1f 00 02 	jalr $31,$2
  405400:	43 00 00 00 2a 00 03 00 	addiu $3,$0,42
  405408:	05 00 00 00 2c 00 03 02 	beq $2,$3,4054c0 <l_L+0x208>
  405410:	28 00 00 00 fc 86 02 1c 	lw $2,-30980($28)
  405418:	05 00 00 00 06 00 00 02 	beq $2,$0,405438 <l_L+0x180>
  405420:	28 00 00 00 4c 00 02 02 	lw $2,76($2)
  405428:	4f 00 00 00 00 02 02 02 	andi $2,$2,512
  405430:	06 00 00 00 0c 00 00 02 	bne $2,$0,405468 <l_L+0x1b0>
  405438:	28 00 00 00 e4 86 02 1c 	lw $2,-31004($28)
  405440:	28 00 00 00 00 00 04 02 	lw $4,0($2)
  405448:	43 00 00 00 70 00 05 00 	addiu $5,$0,112
  405450:	43 00 00 00 b0 80 06 1c 	addiu $6,$28,-32592
  405458:	02 00 00 00 84 2e 10 00 	jal 40ba10 <err__fl>
  405460:	01 00 00 00 b8 15 10 00 	j 4056e0 <l_L+0x428>
  405468:	28 00 00 00 e4 86 02 1c 	lw $2,-31004($28)
  405470:	28 00 00 00 00 00 02 02 	lw $2,0($2)
  405478:	05 00 00 00 06 00 00 02 	beq $2,$0,405498 <l_L+0x1e0>
  405480:	43 00 00 00 ff ff 02 00 	addiu $2,$0,-1
  405488:	34 00 00 00 50 86 02 1c 	sw $2,-31152($28)
  405490:	01 00 00 00 2c 15 10 00 	j 4054b0 <l_L+0x1f8>
  405498:	43 00 00 00 ff ff 04 00 	addiu $4,$0,-1
  4054a0:	43 00 00 00 a8 80 05 1c 	addiu $5,$28,-32600
  4054a8:	02 00 00 00 9a 2c 10 00 	jal 40b268 <f__fatal>
  4054b0:	43 00 00 00 ff ff 02 00 	addiu $2,$0,-1
  4054b8:	01 00 00 00 b8 15 10 00 	j 4056e0 <l_L+0x428>
  4054c0:	28 00 00 00 74 86 02 1c 	lw $2,-31116($28)
  4054c8:	04 00 00 00 00 1f 00 02 	jalr $31,$2
  4054d0:	42 00 00 00 00 04 02 00 	addu $4,$0,$2
  4054d8:	43 00 00 00 2e 00 02 00 	addiu $2,$0,46
  4054e0:	06 00 00 00 06 00 02 04 	bne $4,$2,405500 <l_L+0x248>
  4054e8:	28 00 00 00 74 86 02 1c 	lw $2,-31116($28)
  4054f0:	04 00 00 00 00 1f 00 02 	jalr $31,$2
  4054f8:	42 00 00 00 00 04 02 00 	addu $4,$0,$2
  405500:	43 00 00 00 54 00 02 00 	addiu $2,$0,84
  405508:	05 00 00 00 12 00 02 04 	beq $4,$2,405558 <l_L+0x2a0>
  405510:	5c 00 00 00 55 00 02 04 	slti $2,$4,85
  405518:	05 00 00 00 06 00 00 02 	beq $2,$0,405538 <l_L+0x280>
  405520:	43 00 00 00 46 00 02 00 	addiu $2,$0,70
  405528:	05 00 00 00 14 00 02 04 	beq $4,$2,405580 <l_L+0x2c8>
  405530:	01 00 00 00 66 15 10 00 	j 405598 <l_L+0x2e0>
  405538:	43 00 00 00 66 00 02 00 	addiu $2,$0,102
  405540:	05 00 00 00 0e 00 02 04 	beq $4,$2,405580 <l_L+0x2c8>
  405548:	43 00 00 00 74 00 02 00 	addiu $2,$0,116
  405550:	06 00 00 00 10 00 02 04 	bne $4,$2,405598 <l_L+0x2e0>
  405558:	2a 00 00 00 c8 80 00 1c 	l.s $f0,-32568($28)
  405560:	2a 00 00 00 cc 80 01 1c 	l.s $f1,-32564($28)
  405568:	36 00 00 00 98 86 00 1c 	s.s $f0,-31080($28)
  405570:	36 00 00 00 9c 86 01 1c 	s.s $f1,-31076($28)
  405578:	01 00 00 00 98 15 10 00 	j 405660 <l_L+0x3a8>
  405580:	34 00 00 00 98 86 00 1c 	sw $0,-31080($28)
  405588:	34 00 00 00 9c 86 00 1c 	sw $0,-31076($28)
  405590:	01 00 00 00 98 15 10 00 	j 405660 <l_L+0x3a8>
  405598:	a2 00 00 00 00 10 03 00 	lui $3,4096
  4055a0:	42 00 00 00 00 03 04 03 	addu $3,$3,$4
  4055a8:	22 00 00 00 d1 25 03 03 	lbu $3,9681($3)
  4055b0:	4f 00 00 00 02 00 02 03 	andi $2,$3,2
  4055b8:	06 00 00 00 40 00 00 02 	bne $2,$0,4056c0 <l_L+0x408>
  4055c0:	4f 00 00 00 01 00 02 03 	andi $2,$3,1
  4055c8:	06 00 00 00 3c 00 00 02 	bne $2,$0,4056c0 <l_L+0x408>
  4055d0:	43 00 00 00 ff ff 02 00 	addiu $2,$0,-1
  4055d8:	05 00 00 00 38 00 02 04 	beq $4,$2,4056c0 <l_L+0x408>
  4055e0:	28 00 00 00 84 86 02 1c 	lw $2,-31100($28)
  4055e8:	5c 00 00 00 02 00 02 02 	slti $2,$2,2
  4055f0:	06 00 00 00 0e 00 00 02 	bne $2,$0,405630 <l_L+0x378>
  4055f8:	28 00 00 00 fc 86 05 1c 	lw $5,-30980($28)
  405600:	28 00 00 00 7c 86 02 1c 	lw $2,-31108($28)
  405608:	04 00 00 00 00 1f 00 02 	jalr $31,$2
  405610:	42 00 00 00 00 02 00 00 	addu $2,$0,$0
  405618:	43 00 00 00 02 00 03 00 	addiu $3,$0,2
  405620:	34 00 00 00 8c 86 03 1c 	sw $3,-31092($28)
  405628:	01 00 00 00 b8 15 10 00 	j 4056e0 <l_L+0x428>
  405630:	28 00 00 00 e4 86 02 1c 	lw $2,-31004($28)
  405638:	28 00 00 00 00 00 04 02 	lw $4,0($2)
  405640:	43 00 00 00 70 00 05 00 	addiu $5,$0,112
  405648:	43 00 00 00 c0 80 06 1c 	addiu $6,$28,-32576
  405650:	02 00 00 00 84 2e 10 00 	jal 40ba10 <err__fl>
  405658:	01 00 00 00 b8 15 10 00 	j 4056e0 <l_L+0x428>
  405660:	43 00 00 00 03 00 02 00 	addiu $2,$0,3
  405668:	34 00 00 00 70 86 02 1c 	sw $2,-31120($28)
  405670:	43 00 00 00 ff ff 10 00 	addiu $16,$0,-1
  405678:	28 00 00 00 74 86 02 1c 	lw $2,-31116($28)
  405680:	04 00 00 00 00 1f 00 02 	jalr $31,$2
  405688:	42 00 00 00 00 04 02 00 	addu $4,$0,$2
  405690:	a2 00 00 00 00 10 02 00 	lui $2,4096
  405698:	42 00 00 00 00 02 04 02 	addu $2,$2,$4
  4056a0:	22 00 00 00 d1 25 02 02 	lbu $2,9681($2)
  4056a8:	4f 00 00 00 01 00 02 02 	andi $2,$2,1
  4056b0:	06 00 00 00 02 00 00 02 	bne $2,$0,4056c0 <l_L+0x408>
  4056b8:	06 00 00 00 ee ff 10 04 	bne $4,$16,405678 <l_L+0x3c0>
  4056c0:	28 00 00 00 fc 86 05 1c 	lw $5,-30980($28)
  4056c8:	28 00 00 00 7c 86 02 1c 	lw $2,-31108($28)
  4056d0:	04 00 00 00 00 1f 00 02 	jalr $31,$2
  4056d8:	42 00 00 00 00 02 00 00 	addu $2,$0,$0
  4056e0:	28 00 00 00 14 00 1f 1d 	lw $31,20($29)
  4056e8:	28 00 00 00 10 00 10 1d 	lw $16,16($29)
  4056f0:	43 00 00 00 18 00 1d 1d 	addiu $29,$29,24
  4056f8:	03 00 00 00 00 00 00 1f 	jr $31

00405700 <l_CHAR>:
  405700:	28 00 00 00 a0 86 02 1c 	lw $2,-31072($28)
  405708:	43 00 00 00 c8 ff 1d 1d 	addiu $29,$29,-56
  405710:	34 00 00 00 30 00 1f 1d 	sw $31,48($29)
  405718:	34 00 00 00 2c 00 17 1d 	sw $23,44($29)
  405720:	34 00 00 00 28 00 16 1d 	sw $22,40($29)
  405728:	34 00 00 00 24 00 15 1d 	sw $21,36($29)
  405730:	34 00 00 00 20 00 14 1d 	sw $20,32($29)
  405738:	34 00 00 00 1c 00 13 1d 	sw $19,28($29)
  405740:	34 00 00 00 18 00 12 1d 	sw $18,24($29)
  405748:	34 00 00 00 14 00 11 1d 	sw $17,20($29)
  405750:	34 00 00 00 10 00 10 1d 	sw $16,16($29)
  405758:	07 00 00 00 04 00 00 02 	blez $2,405770 <l_CHAR+0x70>
  405760:	42 00 00 00 00 02 00 00 	addu $2,$0,$0
  405768:	01 00 00 00 8e 17 10 00 	j 405e38 <l_CHAR+0x738>
  405770:	28 00 00 00 88 86 04 1c 	lw $4,-31096($28)
  405778:	34 00 00 00 70 86 00 1c 	sw $0,-31120($28)
  405780:	05 00 00 00 02 00 00 04 	beq $4,$0,405790 <l_CHAR+0x90>
  405788:	02 00 00 00 a8 47 10 00 	jal 411ea0 <free>
  405790:	43 00 00 00 80 00 14 00 	addiu $20,$0,128
  405798:	43 00 00 00 80 00 04 00 	addiu $4,$0,128
  4057a0:	02 00 00 00 06 35 10 00 	jal 40d418 <malloc>
  4057a8:	34 00 00 00 88 86 02 1c 	sw $2,-31096($28)
  4057b0:	42 00 00 00 00 12 02 00 	addu $18,$0,$2
  4057b8:	06 00 00 00 0e 00 00 12 	bne $18,$0,4057f8 <l_CHAR+0xf8>
  4057c0:	28 00 00 00 e4 86 02 1c 	lw $2,-31004($28)
  4057c8:	28 00 00 00 00 00 04 02 	lw $4,0($2)
  4057d0:	43 00 00 00 71 00 05 00 	addiu $5,$0,113
  4057d8:	a2 00 00 00 00 10 06 00 	lui $6,4096
  4057e0:	43 00 00 00 58 02 06 06 	addiu $6,$6,600
  4057e8:	02 00 00 00 84 2e 10 00 	jal 40ba10 <err__fl>
  4057f0:	01 00 00 00 8e 17 10 00 	j 405e38 <l_CHAR+0x738>
  4057f8:	28 00 00 00 74 86 02 1c 	lw $2,-31116($28)
  405800:	04 00 00 00 00 1f 00 02 	jalr $31,$2
  405808:	28 00 00 00 d0 81 03 1c 	lw $3,-32304($28)
  405810:	42 00 00 00 00 10 02 00 	addu $16,$0,$2
  405818:	55 00 00 00 01 02 10 00 	sll $2,$16,0x1
  405820:	42 00 00 00 00 02 03 02 	addu $2,$2,$3
  405828:	26 00 00 00 00 00 02 02 	lhu $2,0($2)
  405830:	4f 00 00 00 08 00 02 02 	andi $2,$2,8
  405838:	05 00 00 00 70 00 00 02 	beq $2,$0,405a00 <l_CHAR+0x300>
  405840:	43 00 00 00 d0 ff 02 10 	addiu $2,$16,-48
  405848:	34 00 00 00 a0 86 02 1c 	sw $2,-31072($28)
  405850:	30 00 00 00 00 00 10 12 	sb $16,0($18)
  405858:	43 00 00 00 01 00 12 12 	addiu $18,$18,1
  405860:	43 00 00 00 01 00 11 00 	addiu $17,$0,1
  405868:	a2 00 00 00 00 10 13 00 	lui $19,4096
  405870:	43 00 00 00 70 02 13 13 	addiu $19,$19,624
  405878:	28 00 00 00 74 86 02 1c 	lw $2,-31116($28)
  405880:	04 00 00 00 00 1f 00 02 	jalr $31,$2
  405888:	42 00 00 00 00 10 02 00 	addu $16,$0,$2
  405890:	43 00 00 00 01 00 03 10 	addiu $3,$16,1
  405898:	5e 00 00 00 31 00 02 03 	sltiu $2,$3,49
  4058a0:	05 00 00 00 24 00 00 02 	beq $2,$0,405938 <l_CHAR+0x238>
  4058a8:	55 00 00 00 02 02 03 00 	sll $2,$3,0x2
  4058b0:	42 00 00 00 00 02 13 02 	addu $2,$2,$19
  4058b8:	28 00 00 00 00 00 02 02 	lw $2,0($2)
  4058c0:	03 00 00 00 00 00 00 02 	jr $2
  4058c8:	28 00 00 00 a0 86 02 1c 	lw $2,-31072($28)
  4058d0:	05 00 00 00 b2 00 00 02 	beq $2,$0,405ba0 <l_CHAR+0x4a0>
  4058d8:	28 00 00 00 88 86 12 1c 	lw $18,-31096($28)
  4058e0:	01 00 00 00 88 16 10 00 	j 405a20 <l_CHAR+0x320>
  4058e8:	28 00 00 00 fc 86 05 1c 	lw $5,-30980($28)
  4058f0:	28 00 00 00 7c 86 02 1c 	lw $2,-31108($28)
  4058f8:	42 00 00 00 00 04 10 00 	addu $4,$0,$16
  405900:	04 00 00 00 00 1f 00 02 	jalr $31,$2
  405908:	42 00 00 00 00 02 00 00 	addu $2,$0,$0
  405910:	43 00 00 00 01 00 03 00 	addiu $3,$0,1
  405918:	34 00 00 00 a0 86 03 1c 	sw $3,-31072($28)
  405920:	43 00 00 00 09 00 03 00 	addiu $3,$0,9
  405928:	34 00 00 00 70 86 03 1c 	sw $3,-31120($28)
  405930:	01 00 00 00 8c 17 10 00 	j 405e30 <l_CHAR+0x730>
  405938:	28 00 00 00 d0 81 02 1c 	lw $2,-32304($28)
  405940:	55 00 00 00 01 03 10 00 	sll $3,$16,0x1
  405948:	42 00 00 00 00 03 02 03 	addu $3,$3,$2
  405950:	26 00 00 00 00 00 02 03 	lhu $2,0($3)
  405958:	4f 00 00 00 08 00 02 02 	andi $2,$2,8
  405960:	05 00 00 00 8e 00 00 02 	beq $2,$0,405ba0 <l_CHAR+0x4a0>
  405968:	30 00 00 00 00 00 10 12 	sb $16,0($18)
  405970:	28 00 00 00 a0 86 03 1c 	lw $3,-31072($28)
  405978:	43 00 00 00 01 00 12 12 	addiu $18,$18,1
  405980:	43 00 00 00 01 00 11 11 	addiu $17,$17,1
  405988:	55 00 00 00 02 02 03 00 	sll $2,$3,0x2
  405990:	42 00 00 00 00 02 03 02 	addu $2,$2,$3
  405998:	55 00 00 00 01 02 02 00 	sll $2,$2,0x1
  4059a0:	42 00 00 00 00 02 10 02 	addu $2,$2,$16
  4059a8:	43 00 00 00 d0 ff 02 02 	addiu $2,$2,-48
  4059b0:	34 00 00 00 a0 86 02 1c 	sw $2,-31072($28)
  4059b8:	06 00 00 00 ae ff 14 11 	bne $17,$20,405878 <l_CHAR+0x178>
  4059c0:	28 00 00 00 88 86 04 1c 	lw $4,-31096($28)
  4059c8:	43 00 00 00 80 00 14 11 	addiu $20,$17,128
  4059d0:	42 00 00 00 00 05 14 00 	addu $5,$0,$20
  4059d8:	02 00 00 00 d0 47 10 00 	jal 411f40 <realloc>
  4059e0:	34 00 00 00 88 86 02 1c 	sw $2,-31096($28)
  4059e8:	05 00 00 00 f8 00 00 02 	beq $2,$0,405dd0 <l_CHAR+0x6d0>
  4059f0:	42 00 00 00 00 12 02 11 	addu $18,$17,$2
  4059f8:	01 00 00 00 1e 16 10 00 	j 405878 <l_CHAR+0x178>
  405a00:	28 00 00 00 fc 86 05 1c 	lw $5,-30980($28)
  405a08:	28 00 00 00 7c 86 02 1c 	lw $2,-31108($28)
  405a10:	42 00 00 00 00 04 10 00 	addu $4,$0,$16
  405a18:	04 00 00 00 00 1f 00 02 	jalr $31,$2
  405a20:	28 00 00 00 74 86 02 1c 	lw $2,-31116($28)
  405a28:	04 00 00 00 00 1f 00 02 	jalr $31,$2
  405a30:	42 00 00 00 00 10 02 00 	addu $16,$0,$2
  405a38:	43 00 00 00 27 00 02 00 	addiu $2,$0,39
  405a40:	05 00 00 00 04 00 02 10 	beq $16,$2,405a58 <l_CHAR+0x358>
  405a48:	43 00 00 00 22 00 02 00 	addiu $2,$0,34
  405a50:	06 00 00 00 04 00 02 10 	bne $16,$2,405a68 <l_CHAR+0x368>
  405a58:	42 00 00 00 00 17 10 00 	addu $23,$0,$16
  405a60:	01 00 00 00 04 17 10 00 	j 405c10 <l_CHAR+0x510>
  405a68:	a2 00 00 00 00 10 03 00 	lui $3,4096
  405a70:	42 00 00 00 00 03 10 03 	addu $3,$3,$16
  405a78:	22 00 00 00 d1 25 03 03 	lbu $3,9681($3)
  405a80:	4f 00 00 00 02 00 02 03 	andi $2,$3,2
  405a88:	06 00 00 00 0c 00 00 02 	bne $2,$0,405ac0 <l_CHAR+0x3c0>
  405a90:	4f 00 00 00 01 00 02 03 	andi $2,$3,1
  405a98:	05 00 00 00 04 00 00 02 	beq $2,$0,405ab0 <l_CHAR+0x3b0>
  405aa0:	43 00 00 00 0a 00 02 00 	addiu $2,$0,10
  405aa8:	06 00 00 00 04 00 02 10 	bne $16,$2,405ac0 <l_CHAR+0x3c0>
  405ab0:	43 00 00 00 ff ff 02 00 	addiu $2,$0,-1
  405ab8:	06 00 00 00 0c 00 02 10 	bne $16,$2,405af0 <l_CHAR+0x3f0>
  405ac0:	28 00 00 00 fc 86 05 1c 	lw $5,-30980($28)
  405ac8:	28 00 00 00 7c 86 02 1c 	lw $2,-31108($28)
  405ad0:	42 00 00 00 00 04 10 00 	addu $4,$0,$16
  405ad8:	04 00 00 00 00 1f 00 02 	jalr $31,$2
  405ae0:	42 00 00 00 00 02 00 00 	addu $2,$0,$0
  405ae8:	01 00 00 00 8e 17 10 00 	j 405e38 <l_CHAR+0x738>
  405af0:	30 00 00 00 00 00 10 12 	sb $16,0($18)
  405af8:	43 00 00 00 01 00 12 12 	addiu $18,$18,1
  405b00:	43 00 00 00 01 00 11 00 	addiu $17,$0,1
  405b08:	28 00 00 00 74 86 02 1c 	lw $2,-31116($28)
  405b10:	04 00 00 00 00 1f 00 02 	jalr $31,$2
  405b18:	42 00 00 00 00 10 02 00 	addu $16,$0,$2
  405b20:	43 00 00 00 01 00 03 10 	addiu $3,$16,1
  405b28:	5e 00 00 00 31 00 02 03 	sltiu $2,$3,49
  405b30:	05 00 00 00 1e 00 00 02 	beq $2,$0,405bb0 <l_CHAR+0x4b0>
  405b38:	55 00 00 00 02 02 03 00 	sll $2,$3,0x2
  405b40:	a2 00 00 00 00 10 01 00 	lui $1,4096
  405b48:	42 00 00 00 00 01 02 01 	addu $1,$1,$2
  405b50:	28 00 00 00 38 03 02 01 	lw $2,824($1)
  405b58:	03 00 00 00 00 00 00 02 	jr $2
  405b60:	28 00 00 00 fc 86 05 1c 	lw $5,-30980($28)
  405b68:	28 00 00 00 7c 86 02 1c 	lw $2,-31108($28)
  405b70:	42 00 00 00 00 04 10 00 	addu $4,$0,$16
  405b78:	04 00 00 00 00 1f 00 02 	jalr $31,$2
  405b80:	42 00 00 00 00 02 00 00 	addu $2,$0,$0
  405b88:	43 00 00 00 09 00 03 00 	addiu $3,$0,9
  405b90:	34 00 00 00 70 86 03 1c 	sw $3,-31120($28)
  405b98:	01 00 00 00 8c 17 10 00 	j 405e30 <l_CHAR+0x730>
  405ba0:	43 00 00 00 01 00 02 00 	addiu $2,$0,1
  405ba8:	34 00 00 00 a0 86 02 1c 	sw $2,-31072($28)
  405bb0:	30 00 00 00 00 00 10 12 	sb $16,0($18)
  405bb8:	43 00 00 00 01 00 12 12 	addiu $18,$18,1
  405bc0:	43 00 00 00 01 00 11 11 	addiu $17,$17,1
  405bc8:	06 00 00 00 ce ff 14 11 	bne $17,$20,405b08 <l_CHAR+0x408>
  405bd0:	28 00 00 00 88 86 04 1c 	lw $4,-31096($28)
  405bd8:	43 00 00 00 80 00 14 11 	addiu $20,$17,128
  405be0:	42 00 00 00 00 05 14 00 	addu $5,$0,$20
  405be8:	02 00 00 00 d0 47 10 00 	jal 411f40 <realloc>
  405bf0:	34 00 00 00 88 86 02 1c 	sw $2,-31096($28)
  405bf8:	05 00 00 00 74 00 00 02 	beq $2,$0,405dd0 <l_CHAR+0x6d0>
  405c00:	42 00 00 00 00 12 02 11 	addu $18,$17,$2
  405c08:	01 00 00 00 c2 16 10 00 	j 405b08 <l_CHAR+0x408>
  405c10:	43 00 00 00 09 00 02 00 	addiu $2,$0,9
  405c18:	34 00 00 00 70 86 02 1c 	sw $2,-31120($28)
  405c20:	42 00 00 00 00 11 00 00 	addu $17,$0,$0
  405c28:	55 00 00 00 18 02 17 00 	sll $2,$23,0x18
  405c30:	59 00 00 00 18 13 02 00 	sra $19,$2,0x18
  405c38:	43 00 00 00 0a 00 16 00 	addiu $22,$0,10
  405c40:	43 00 00 00 ff ff 15 00 	addiu $21,$0,-1
  405c48:	28 00 00 00 74 86 02 1c 	lw $2,-31116($28)
  405c50:	04 00 00 00 00 1f 00 02 	jalr $31,$2
  405c58:	42 00 00 00 00 10 02 00 	addu $16,$0,$2
  405c60:	05 00 00 00 10 00 13 10 	beq $16,$19,405ca8 <l_CHAR+0x5a8>
  405c68:	05 00 00 00 0e 00 16 10 	beq $16,$22,405ca8 <l_CHAR+0x5a8>
  405c70:	05 00 00 00 0c 00 15 10 	beq $16,$21,405ca8 <l_CHAR+0x5a8>
  405c78:	43 00 00 00 01 00 11 11 	addiu $17,$17,1
  405c80:	5b 00 00 00 00 02 14 11 	slt $2,$17,$20
  405c88:	05 00 00 00 06 00 00 02 	beq $2,$0,405ca8 <l_CHAR+0x5a8>
  405c90:	30 00 00 00 00 00 10 12 	sb $16,0($18)
  405c98:	43 00 00 00 01 00 12 12 	addiu $18,$18,1
  405ca0:	01 00 00 00 12 17 10 00 	j 405c48 <l_CHAR+0x548>
  405ca8:	06 00 00 00 14 00 14 11 	bne $17,$20,405d00 <l_CHAR+0x600>
  405cb0:	28 00 00 00 88 86 04 1c 	lw $4,-31096($28)
  405cb8:	43 00 00 00 80 00 14 14 	addiu $20,$20,128
  405cc0:	42 00 00 00 00 05 14 00 	addu $5,$0,$20
  405cc8:	02 00 00 00 d0 47 10 00 	jal 411f40 <realloc>
  405cd0:	34 00 00 00 88 86 02 1c 	sw $2,-31096($28)
  405cd8:	05 00 00 00 3c 00 00 02 	beq $2,$0,405dd0 <l_CHAR+0x6d0>
  405ce0:	42 00 00 00 00 02 02 11 	addu $2,$17,$2
  405ce8:	30 00 00 00 ff ff 10 02 	sb $16,-1($2)
  405cf0:	42 00 00 00 00 12 02 00 	addu $18,$0,$2
  405cf8:	01 00 00 00 0a 17 10 00 	j 405c28 <l_CHAR+0x528>
  405d00:	43 00 00 00 ff ff 02 00 	addiu $2,$0,-1
  405d08:	05 00 00 00 4a 00 02 10 	beq $16,$2,405e38 <l_CHAR+0x738>
  405d10:	43 00 00 00 0a 00 02 00 	addiu $2,$0,10
  405d18:	06 00 00 00 14 00 02 10 	bne $16,$2,405d70 <l_CHAR+0x670>
  405d20:	20 00 00 00 ff ff 03 12 	lb $3,-1($18)
  405d28:	43 00 00 00 5c 00 02 00 	addiu $2,$0,92
  405d30:	06 00 00 00 bc ff 02 03 	bne $3,$2,405c28 <l_CHAR+0x528>
  405d38:	43 00 00 00 ff ff 12 12 	addiu $18,$18,-1
  405d40:	5b 00 00 00 00 02 14 11 	slt $2,$17,$20
  405d48:	05 00 00 00 d8 ff 00 02 	beq $2,$0,405cb0 <l_CHAR+0x5b0>
  405d50:	43 00 00 00 0a 00 02 00 	addiu $2,$0,10
  405d58:	30 00 00 00 00 00 02 12 	sb $2,0($18)
  405d60:	43 00 00 00 01 00 12 12 	addiu $18,$18,1
  405d68:	01 00 00 00 0a 17 10 00 	j 405c28 <l_CHAR+0x528>
  405d70:	28 00 00 00 74 86 02 1c 	lw $2,-31116($28)
  405d78:	04 00 00 00 00 1f 00 02 	jalr $31,$2
  405d80:	42 00 00 00 00 10 02 00 	addu $16,$0,$2
  405d88:	55 00 00 00 18 02 17 00 	sll $2,$23,0x18
  405d90:	59 00 00 00 18 02 02 00 	sra $2,$2,0x18
  405d98:	06 00 00 00 1a 00 02 10 	bne $16,$2,405e08 <l_CHAR+0x708>
  405da0:	43 00 00 00 01 00 11 11 	addiu $17,$17,1
  405da8:	5b 00 00 00 00 02 14 11 	slt $2,$17,$20
  405db0:	05 00 00 00 be ff 00 02 	beq $2,$0,405cb0 <l_CHAR+0x5b0>
  405db8:	30 00 00 00 00 00 10 12 	sb $16,0($18)
  405dc0:	43 00 00 00 01 00 12 12 	addiu $18,$18,1
  405dc8:	01 00 00 00 0a 17 10 00 	j 405c28 <l_CHAR+0x528>
  405dd0:	28 00 00 00 e4 86 02 1c 	lw $2,-31004($28)
  405dd8:	28 00 00 00 00 00 04 02 	lw $4,0($2)
  405de0:	43 00 00 00 71 00 05 00 	addiu $5,$0,113
  405de8:	a2 00 00 00 00 10 06 00 	lui $6,4096
  405df0:	43 00 00 00 54 26 06 06 	addiu $6,$6,9812
  405df8:	02 00 00 00 84 2e 10 00 	jal 40ba10 <err__fl>
  405e00:	01 00 00 00 8e 17 10 00 	j 405e38 <l_CHAR+0x738>
  405e08:	28 00 00 00 fc 86 05 1c 	lw $5,-30980($28)
  405e10:	28 00 00 00 7c 86 02 1c 	lw $2,-31108($28)
  405e18:	42 00 00 00 00 04 10 00 	addu $4,$0,$16
  405e20:	04 00 00 00 00 1f 00 02 	jalr $31,$2
  405e28:	42 00 00 00 00 02 00 00 	addu $2,$0,$0
  405e30:	30 00 00 00 00 00 00 12 	sb $0,0($18)
  405e38:	28 00 00 00 30 00 1f 1d 	lw $31,48($29)
  405e40:	28 00 00 00 2c 00 17 1d 	lw $23,44($29)
  405e48:	28 00 00 00 28 00 16 1d 	lw $22,40($29)
  405e50:	28 00 00 00 24 00 15 1d 	lw $21,36($29)
  405e58:	28 00 00 00 20 00 14 1d 	lw $20,32($29)
  405e60:	28 00 00 00 1c 00 13 1d 	lw $19,28($29)
  405e68:	28 00 00 00 18 00 12 1d 	lw $18,24($29)
  405e70:	28 00 00 00 14 00 11 1d 	lw $17,20($29)
  405e78:	28 00 00 00 10 00 10 1d 	lw $16,16($29)
  405e80:	43 00 00 00 38 00 1d 1d 	addiu $29,$29,56
  405e88:	03 00 00 00 00 00 00 1f 	jr $31

00405e90 <c_le>:
  405e90:	43 00 00 00 e8 ff 1d 1d 	addiu $29,$29,-24
  405e98:	34 00 00 00 10 00 10 1d 	sw $16,16($29)
  405ea0:	42 00 00 00 00 10 04 00 	addu $16,$0,$4
  405ea8:	34 00 00 00 14 00 1f 1d 	sw $31,20($29)
  405eb0:	28 00 00 00 04 00 02 10 	lw $2,4($16)
  405eb8:	43 00 00 00 d0 80 03 1c 	addiu $3,$28,-32560
  405ec0:	34 00 00 00 ec 86 03 1c 	sw $3,-30996($28)
  405ec8:	5e 00 00 00 64 00 02 02 	sltiu $2,$2,100
  405ed0:	06 00 00 00 14 00 00 02 	bne $2,$0,405f28 <c_le+0x98>
  405ed8:	28 00 00 00 00 00 02 10 	lw $2,0($16)
  405ee0:	05 00 00 00 06 00 00 02 	beq $2,$0,405f00 <c_le+0x70>
  405ee8:	43 00 00 00 65 00 02 00 	addiu $2,$0,101
  405ef0:	34 00 00 00 50 86 02 1c 	sw $2,-31152($28)
  405ef8:	01 00 00 00 c6 17 10 00 	j 405f18 <c_le+0x88>
  405f00:	43 00 00 00 65 00 04 00 	addiu $4,$0,101
  405f08:	43 00 00 00 d8 80 05 1c 	addiu $5,$28,-32552
  405f10:	02 00 00 00 9a 2c 10 00 	jal 40b268 <f__fatal>
  405f18:	43 00 00 00 65 00 02 00 	addiu $2,$0,101
  405f20:	01 00 00 00 22 18 10 00 	j 406088 <c_le+0x1f8>
  405f28:	28 00 00 00 04 00 03 10 	lw $3,4($16)
  405f30:	55 00 00 00 01 02 03 00 	sll $2,$3,0x1
  405f38:	42 00 00 00 00 02 03 02 	addu $2,$2,$3
  405f40:	55 00 00 00 04 02 02 00 	sll $2,$2,0x4
  405f48:	a2 00 00 00 00 10 03 00 	lui $3,4096
  405f50:	43 00 00 00 50 57 03 03 	addiu $3,$3,22352
  405f58:	42 00 00 00 00 02 03 02 	addu $2,$2,$3
  405f60:	28 00 00 00 00 00 03 02 	lw $3,0($2)
  405f68:	34 00 00 00 24 87 00 1c 	sw $0,-30940($28)
  405f70:	34 00 00 00 20 87 00 1c 	sw $0,-30944($28)
  405f78:	34 00 00 00 e4 86 10 1c 	sw $16,-31004($28)
  405f80:	34 00 00 00 f4 86 02 1c 	sw $2,-30988($28)
  405f88:	06 00 00 00 1e 00 00 03 	bne $3,$0,406008 <c_le+0x178>
  405f90:	28 00 00 00 04 00 06 10 	lw $6,4($16)
  405f98:	43 00 00 00 03 00 04 00 	addiu $4,$0,3
  405fa0:	43 00 00 00 05 00 05 00 	addiu $5,$0,5
  405fa8:	02 00 00 00 3c 0f 10 00 	jal 403cf0 <fk_open>
  405fb0:	05 00 00 00 14 00 00 02 	beq $2,$0,406008 <c_le+0x178>
  405fb8:	28 00 00 00 00 00 02 10 	lw $2,0($16)
  405fc0:	05 00 00 00 06 00 00 02 	beq $2,$0,405fe0 <c_le+0x150>
  405fc8:	43 00 00 00 66 00 02 00 	addiu $2,$0,102
  405fd0:	34 00 00 00 50 86 02 1c 	sw $2,-31152($28)
  405fd8:	01 00 00 00 fe 17 10 00 	j 405ff8 <c_le+0x168>
  405fe0:	43 00 00 00 66 00 04 00 	addiu $4,$0,102
  405fe8:	43 00 00 00 e0 80 05 1c 	addiu $5,$28,-32544
  405ff0:	02 00 00 00 9a 2c 10 00 	jal 40b268 <f__fatal>
  405ff8:	43 00 00 00 66 00 02 00 	addiu $2,$0,102
  406000:	01 00 00 00 22 18 10 00 	j 406088 <c_le+0x1f8>
  406008:	28 00 00 00 f4 86 02 1c 	lw $2,-30988($28)
  406010:	28 00 00 00 00 00 03 02 	lw $3,0($2)
  406018:	28 00 00 00 18 00 02 02 	lw $2,24($2)
  406020:	34 00 00 00 fc 86 03 1c 	sw $3,-30980($28)
  406028:	06 00 00 00 14 00 00 02 	bne $2,$0,406080 <c_le+0x1f0>
  406030:	28 00 00 00 00 00 02 10 	lw $2,0($16)
  406038:	05 00 00 00 06 00 00 02 	beq $2,$0,406058 <c_le+0x1c8>
  406040:	43 00 00 00 67 00 02 00 	addiu $2,$0,103
  406048:	34 00 00 00 50 86 02 1c 	sw $2,-31152($28)
  406050:	01 00 00 00 1c 18 10 00 	j 406070 <c_le+0x1e0>
  406058:	43 00 00 00 67 00 04 00 	addiu $4,$0,103
  406060:	43 00 00 00 e0 80 05 1c 	addiu $5,$28,-32544
  406068:	02 00 00 00 9a 2c 10 00 	jal 40b268 <f__fatal>
  406070:	43 00 00 00 67 00 02 00 	addiu $2,$0,103
  406078:	01 00 00 00 22 18 10 00 	j 406088 <c_le+0x1f8>
  406080:	42 00 00 00 00 02 00 00 	addu $2,$0,$0
  406088:	28 00 00 00 14 00 1f 1d 	lw $31,20($29)
  406090:	28 00 00 00 10 00 10 1d 	lw $16,16($29)
  406098:	43 00 00 00 18 00 1d 1d 	addiu $29,$29,24
  4060a0:	03 00 00 00 00 00 00 1f 	jr $31

004060a8 <l_read>:
  4060a8:	43 00 00 00 c0 ff 1d 1d 	addiu $29,$29,-64
  4060b0:	34 00 00 00 38 00 1e 1d 	sw $30,56($29)
  4060b8:	42 00 00 00 00 1e 04 00 	addu $30,$0,$4
  4060c0:	34 00 00 00 20 00 12 1d 	sw $18,32($29)
  4060c8:	42 00 00 00 00 12 05 00 	addu $18,$0,$5
  4060d0:	34 00 00 00 3c 00 1f 1d 	sw $31,60($29)
  4060d8:	34 00 00 00 34 00 17 1d 	sw $23,52($29)
  4060e0:	34 00 00 00 30 00 16 1d 	sw $22,48($29)
  4060e8:	34 00 00 00 2c 00 15 1d 	sw $21,44($29)
  4060f0:	34 00 00 00 28 00 14 1d 	sw $20,40($29)
  4060f8:	34 00 00 00 24 00 13 1d 	sw $19,36($29)
  406100:	34 00 00 00 1c 00 11 1d 	sw $17,28($29)
  406108:	34 00 00 00 18 00 10 1d 	sw $16,24($29)
  406110:	28 00 00 00 00 00 02 1e 	lw $2,0($30)
  406118:	42 00 00 00 00 15 06 00 	addu $21,$0,$6
  406120:	42 00 00 00 00 14 00 00 	addu $20,$0,$0
  406128:	07 00 00 00 4c 01 00 02 	blez $2,406660 <l_read+0x5b8>
  406130:	43 00 00 00 fe ff 16 07 	addiu $22,$7,-2
  406138:	55 00 00 00 02 17 16 00 	sll $23,$22,0x2
  406140:	43 00 00 00 08 00 13 05 	addiu $19,$5,8
  406148:	28 00 00 00 8c 86 02 1c 	lw $2,-31092($28)
  406150:	06 00 00 00 42 01 00 02 	bne $2,$0,406660 <l_read+0x5b8>
  406158:	28 00 00 00 80 86 02 1c 	lw $2,-31104($28)
  406160:	05 00 00 00 08 00 00 02 	beq $2,$0,406188 <l_read+0xe0>
  406168:	28 00 00 00 e4 86 02 1c 	lw $2,-31004($28)
  406170:	28 00 00 00 08 00 02 02 	lw $2,8($2)
  406178:	06 00 00 00 88 00 00 02 	bne $2,$0,4063a0 <l_read+0x2f8>
  406180:	01 00 00 00 ee 18 10 00 	j 4063b8 <l_read+0x310>
  406188:	28 00 00 00 a0 86 02 1c 	lw $2,-31072($28)
  406190:	06 00 00 00 2c 00 00 02 	bne $2,$0,406248 <l_read+0x1a0>
  406198:	34 00 00 00 70 86 00 1c 	sw $0,-31120($28)
  4061a0:	28 00 00 00 74 86 02 1c 	lw $2,-31116($28)
  4061a8:	04 00 00 00 00 1f 00 02 	jalr $31,$2
  4061b0:	42 00 00 00 00 04 02 00 	addu $4,$0,$2
  4061b8:	43 00 00 00 01 00 03 04 	addiu $3,$4,1
  4061c0:	5e 00 00 00 31 00 02 03 	sltiu $2,$3,49
  4061c8:	05 00 00 00 18 00 00 02 	beq $2,$0,406230 <l_read+0x188>
  4061d0:	55 00 00 00 02 02 03 00 	sll $2,$3,0x2
  4061d8:	a2 00 00 00 00 10 08 00 	lui $8,4096
  4061e0:	43 00 00 00 00 04 08 08 	addiu $8,$8,1024
  4061e8:	42 00 00 00 00 02 08 02 	addu $2,$2,$8
  4061f0:	28 00 00 00 00 00 02 02 	lw $2,0($2)
  4061f8:	03 00 00 00 00 00 00 02 	jr $2
  406200:	43 00 00 00 01 00 08 00 	addiu $8,$0,1
  406208:	34 00 00 00 8c 86 08 1c 	sw $8,-31092($28)
  406210:	01 00 00 00 d4 18 10 00 	j 406350 <l_read+0x2a8>
  406218:	43 00 00 00 01 00 08 00 	addiu $8,$0,1
  406220:	34 00 00 00 a0 86 08 1c 	sw $8,-31072($28)
  406228:	01 00 00 00 d4 18 10 00 	j 406350 <l_read+0x2a8>
  406230:	28 00 00 00 fc 86 05 1c 	lw $5,-30980($28)
  406238:	28 00 00 00 7c 86 02 1c 	lw $2,-31108($28)
  406240:	04 00 00 00 00 1f 00 02 	jalr $31,$2
  406248:	5e 00 00 00 0c 00 02 16 	sltiu $2,$22,12
  406250:	05 00 00 00 20 00 00 02 	beq $2,$0,4062d8 <l_read+0x230>
  406258:	a2 00 00 00 00 10 02 00 	lui $2,4096
  406260:	42 00 00 00 00 02 17 02 	addu $2,$2,$23
  406268:	28 00 00 00 c8 04 02 02 	lw $2,1224($2)
  406270:	03 00 00 00 00 00 00 02 	jr $2
  406278:	42 00 00 00 00 04 00 00 	addu $4,$0,$0
  406280:	02 00 00 00 0c 11 10 00 	jal 404430 <l_R>
  406288:	05 00 00 00 12 00 00 02 	beq $2,$0,4062d8 <l_read+0x230>
  406290:	01 00 00 00 9a 19 10 00 	j 406668 <l_read+0x5c0>
  406298:	02 00 00 00 12 13 10 00 	jal 404c48 <l_C>
  4062a0:	05 00 00 00 0c 00 00 02 	beq $2,$0,4062d8 <l_read+0x230>
  4062a8:	01 00 00 00 9a 19 10 00 	j 406668 <l_read+0x5c0>
  4062b0:	02 00 00 00 ae 14 10 00 	jal 4052b8 <l_L>
  4062b8:	05 00 00 00 06 00 00 02 	beq $2,$0,4062d8 <l_read+0x230>
  4062c0:	01 00 00 00 9a 19 10 00 	j 406668 <l_read+0x5c0>
  4062c8:	02 00 00 00 c0 15 10 00 	jal 405700 <l_CHAR>
  4062d0:	06 00 00 00 e4 00 00 02 	bne $2,$0,406668 <l_read+0x5c0>
  4062d8:	43 00 00 00 20 00 11 00 	addiu $17,$0,32
  4062e0:	43 00 00 00 09 00 10 00 	addiu $16,$0,9
  4062e8:	28 00 00 00 74 86 02 1c 	lw $2,-31116($28)
  4062f0:	04 00 00 00 00 1f 00 02 	jalr $31,$2
  4062f8:	42 00 00 00 00 04 02 00 	addu $4,$0,$2
  406300:	05 00 00 00 f8 ff 11 04 	beq $4,$17,4062e8 <l_read+0x240>
  406308:	05 00 00 00 f6 ff 10 04 	beq $4,$16,4062e8 <l_read+0x240>
  406310:	43 00 00 00 2c 00 02 00 	addiu $2,$0,44
  406318:	06 00 00 00 06 00 02 04 	bne $4,$2,406338 <l_read+0x290>
  406320:	28 00 00 00 a0 86 02 1c 	lw $2,-31072($28)
  406328:	5c 00 00 00 02 00 02 02 	slti $2,$2,2
  406330:	06 00 00 00 06 00 00 02 	bne $2,$0,406350 <l_read+0x2a8>
  406338:	28 00 00 00 fc 86 05 1c 	lw $5,-30980($28)
  406340:	28 00 00 00 7c 86 02 1c 	lw $2,-31108($28)
  406348:	04 00 00 00 00 1f 00 02 	jalr $31,$2
  406350:	28 00 00 00 8c 86 02 1c 	lw $2,-31092($28)
  406358:	06 00 00 00 c0 00 00 02 	bne $2,$0,406660 <l_read+0x5b8>
  406360:	28 00 00 00 fc 86 04 1c 	lw $4,-30980($28)
  406368:	05 00 00 00 2e 00 00 04 	beq $4,$0,406428 <l_read+0x380>
  406370:	28 00 00 00 4c 00 03 04 	lw $3,76($4)
  406378:	4f 00 00 00 00 02 02 03 	andi $2,$3,512
  406380:	05 00 00 00 16 00 00 02 	beq $2,$0,4063e0 <l_read+0x338>
  406388:	28 00 00 00 e4 86 02 1c 	lw $2,-31004($28)
  406390:	28 00 00 00 08 00 02 02 	lw $2,8($2)
  406398:	05 00 00 00 06 00 00 02 	beq $2,$0,4063b8 <l_read+0x310>
  4063a0:	43 00 00 00 ff ff 08 00 	addiu $8,$0,-1
  4063a8:	34 00 00 00 50 86 08 1c 	sw $8,-31152($28)
  4063b0:	01 00 00 00 f4 18 10 00 	j 4063d0 <l_read+0x328>
  4063b8:	43 00 00 00 ff ff 04 00 	addiu $4,$0,-1
  4063c0:	43 00 00 00 e4 80 05 1c 	addiu $5,$28,-32540
  4063c8:	02 00 00 00 9a 2c 10 00 	jal 40b268 <f__fatal>
  4063d0:	43 00 00 00 ff ff 02 00 	addiu $2,$0,-1
  4063d8:	01 00 00 00 9a 19 10 00 	j 406668 <l_read+0x5c0>
  4063e0:	4f 00 00 00 00 04 02 03 	andi $2,$3,1024
  4063e8:	05 00 00 00 0e 00 00 02 	beq $2,$0,406428 <l_read+0x380>
  4063f0:	02 00 00 00 f8 48 10 00 	jal 4123e0 <clearerr>
  4063f8:	28 00 00 00 e4 86 02 1c 	lw $2,-31004($28)
  406400:	28 00 00 00 50 86 05 1c 	lw $5,-31152($28)
  406408:	28 00 00 00 00 00 04 02 	lw $4,0($2)
  406410:	43 00 00 00 e4 80 06 1c 	addiu $6,$28,-32540
  406418:	02 00 00 00 84 2e 10 00 	jal 40ba10 <err__fl>
  406420:	01 00 00 00 9a 19 10 00 	j 406668 <l_read+0x5c0>
  406428:	28 00 00 00 70 86 02 1c 	lw $2,-31120($28)
  406430:	05 00 00 00 6e 00 00 02 	beq $2,$0,4065f0 <l_read+0x548>
  406438:	5e 00 00 00 0c 00 02 16 	sltiu $2,$22,12
  406440:	05 00 00 00 6a 00 00 02 	beq $2,$0,4065f0 <l_read+0x548>
  406448:	a2 00 00 00 00 10 02 00 	lui $2,4096
  406450:	42 00 00 00 00 02 17 02 	addu $2,$2,$23
  406458:	28 00 00 00 f8 04 02 02 	lw $2,1272($2)
  406460:	03 00 00 00 00 00 00 02 	jr $2
  406468:	2a 00 00 00 98 86 00 1c 	l.s $f0,-31080($28)
  406470:	2a 00 00 00 9c 86 01 1c 	l.s $f1,-31076($28)
  406478:	85 00 00 00 00 02 00 00 	cvt.w.d $f2,$f0
  406480:	a3 00 00 00 00 00 02 02 	mfc1 $2,$f2
  406488:	30 00 00 00 00 00 02 12 	sb $2,0($18)
  406490:	01 00 00 00 7c 19 10 00 	j 4065f0 <l_read+0x548>
  406498:	2a 00 00 00 98 86 00 1c 	l.s $f0,-31080($28)
  4064a0:	2a 00 00 00 9c 86 01 1c 	l.s $f1,-31076($28)
  4064a8:	85 00 00 00 00 02 00 00 	cvt.w.d $f2,$f0
  4064b0:	a3 00 00 00 00 00 02 02 	mfc1 $2,$f2
  4064b8:	32 00 00 00 00 00 02 12 	sh $2,0($18)
  4064c0:	01 00 00 00 7c 19 10 00 	j 4065f0 <l_read+0x548>
  4064c8:	2a 00 00 00 98 86 00 1c 	l.s $f0,-31080($28)
  4064d0:	2a 00 00 00 9c 86 01 1c 	l.s $f1,-31076($28)
  4064d8:	85 00 00 00 00 02 00 00 	cvt.w.d $f2,$f0
  4064e0:	36 00 00 00 00 00 02 12 	s.s $f2,0($18)
  4064e8:	01 00 00 00 7c 19 10 00 	j 4065f0 <l_read+0x548>
  4064f0:	2a 00 00 00 98 86 00 1c 	l.s $f0,-31080($28)
  4064f8:	2a 00 00 00 9c 86 01 1c 	l.s $f1,-31076($28)
  406500:	80 00 00 00 00 00 00 00 	cvt.s.d $f0,$f0
  406508:	36 00 00 00 00 00 00 12 	s.s $f0,0($18)
  406510:	01 00 00 00 7c 19 10 00 	j 4065f0 <l_read+0x548>
  406518:	2a 00 00 00 98 86 00 1c 	l.s $f0,-31080($28)
  406520:	2a 00 00 00 9c 86 01 1c 	l.s $f1,-31076($28)
  406528:	36 00 00 00 00 00 00 12 	s.s $f0,0($18)
  406530:	36 00 00 00 04 00 01 12 	s.s $f1,4($18)
  406538:	01 00 00 00 7c 19 10 00 	j 4065f0 <l_read+0x548>
  406540:	2a 00 00 00 98 86 00 1c 	l.s $f0,-31080($28)
  406548:	2a 00 00 00 9c 86 01 1c 	l.s $f1,-31076($28)
  406550:	80 00 00 00 00 00 00 00 	cvt.s.d $f0,$f0
  406558:	36 00 00 00 00 00 00 12 	s.s $f0,0($18)
  406560:	2a 00 00 00 90 86 00 1c 	l.s $f0,-31088($28)
  406568:	2a 00 00 00 94 86 01 1c 	l.s $f1,-31084($28)
  406570:	80 00 00 00 00 00 00 00 	cvt.s.d $f0,$f0
  406578:	36 00 00 00 fc ff 00 13 	s.s $f0,-4($19)
  406580:	01 00 00 00 7c 19 10 00 	j 4065f0 <l_read+0x548>
  406588:	2a 00 00 00 98 86 00 1c 	l.s $f0,-31080($28)
  406590:	2a 00 00 00 9c 86 01 1c 	l.s $f1,-31076($28)
  406598:	36 00 00 00 00 00 00 12 	s.s $f0,0($18)
  4065a0:	36 00 00 00 04 00 01 12 	s.s $f1,4($18)
  4065a8:	2a 00 00 00 90 86 00 1c 	l.s $f0,-31088($28)
  4065b0:	2a 00 00 00 94 86 01 1c 	l.s $f1,-31084($28)
  4065b8:	36 00 00 00 00 00 00 13 	s.s $f0,0($19)
  4065c0:	36 00 00 00 04 00 01 13 	s.s $f1,4($19)
  4065c8:	01 00 00 00 7c 19 10 00 	j 4065f0 <l_read+0x548>
  4065d0:	28 00 00 00 88 86 04 1c 	lw $4,-31096($28)
  4065d8:	42 00 00 00 00 05 12 00 	addu $5,$0,$18
  4065e0:	42 00 00 00 00 06 15 00 	addu $6,$0,$21
  4065e8:	02 00 00 00 a8 31 10 00 	jal 40c6a0 <b_char>
  4065f0:	28 00 00 00 a0 86 02 1c 	lw $2,-31072($28)
  4065f8:	07 00 00 00 04 00 00 02 	blez $2,406610 <l_read+0x568>
  406600:	43 00 00 00 ff ff 02 02 	addiu $2,$2,-1
  406608:	34 00 00 00 a0 86 02 1c 	sw $2,-31072($28)
  406610:	28 00 00 00 84 86 02 1c 	lw $2,-31100($28)
  406618:	42 00 00 00 00 13 15 13 	addu $19,$19,$21
  406620:	42 00 00 00 00 12 15 12 	addu $18,$18,$21
  406628:	05 00 00 00 04 00 00 02 	beq $2,$0,406640 <l_read+0x598>
  406630:	43 00 00 00 01 00 02 02 	addiu $2,$2,1
  406638:	34 00 00 00 84 86 02 1c 	sw $2,-31100($28)
  406640:	28 00 00 00 00 00 02 1e 	lw $2,0($30)
  406648:	43 00 00 00 01 00 14 14 	addiu $20,$20,1
  406650:	5b 00 00 00 00 02 02 14 	slt $2,$20,$2
  406658:	06 00 00 00 ba fe 00 02 	bne $2,$0,406148 <l_read+0xa0>
  406660:	42 00 00 00 00 02 00 00 	addu $2,$0,$0
  406668:	28 00 00 00 3c 00 1f 1d 	lw $31,60($29)
  406670:	28 00 00 00 38 00 1e 1d 	lw $30,56($29)
  406678:	28 00 00 00 34 00 17 1d 	lw $23,52($29)
  406680:	28 00 00 00 30 00 16 1d 	lw $22,48($29)
  406688:	28 00 00 00 2c 00 15 1d 	lw $21,44($29)
  406690:	28 00 00 00 28 00 14 1d 	lw $20,40($29)
  406698:	28 00 00 00 24 00 13 1d 	lw $19,36($29)
  4066a0:	28 00 00 00 20 00 12 1d 	lw $18,32($29)
  4066a8:	28 00 00 00 1c 00 11 1d 	lw $17,28($29)
  4066b0:	28 00 00 00 18 00 10 1d 	lw $16,24($29)
  4066b8:	43 00 00 00 40 00 1d 1d 	addiu $29,$29,64
  4066c0:	03 00 00 00 00 00 00 1f 	jr $31

004066c8 <s_rsle>:
  4066c8:	28 00 00 00 0c 87 02 1c 	lw $2,-30964($28)
  4066d0:	43 00 00 00 e8 ff 1d 1d 	addiu $29,$29,-24
  4066d8:	34 00 00 00 10 00 10 1d 	sw $16,16($29)
  4066e0:	42 00 00 00 00 10 04 00 	addu $16,$0,$4
  4066e8:	34 00 00 00 14 00 1f 1d 	sw $31,20($29)
  4066f0:	06 00 00 00 02 00 00 02 	bne $2,$0,406700 <s_rsle+0x38>
  4066f8:	02 00 00 00 6a 2d 10 00 	jal 40b5a8 <f_init>
  406700:	28 00 00 00 04 00 02 10 	lw $2,4($16)
  406708:	43 00 00 00 d0 80 03 1c 	addiu $3,$28,-32560
  406710:	34 00 00 00 ec 86 03 1c 	sw $3,-30996($28)
  406718:	5e 00 00 00 64 00 02 02 	sltiu $2,$2,100
  406720:	06 00 00 00 14 00 00 02 	bne $2,$0,406778 <s_rsle+0xb0>
  406728:	28 00 00 00 00 00 02 10 	lw $2,0($16)
  406730:	05 00 00 00 06 00 00 02 	beq $2,$0,406750 <s_rsle+0x88>
  406738:	43 00 00 00 65 00 02 00 	addiu $2,$0,101
  406740:	34 00 00 00 50 86 02 1c 	sw $2,-31152($28)
  406748:	01 00 00 00 da 19 10 00 	j 406768 <s_rsle+0xa0>
  406750:	43 00 00 00 65 00 04 00 	addiu $4,$0,101
  406758:	43 00 00 00 d8 80 05 1c 	addiu $5,$28,-32552
  406760:	02 00 00 00 9a 2c 10 00 	jal 40b268 <f__fatal>
  406768:	43 00 00 00 65 00 02 00 	addiu $2,$0,101
  406770:	01 00 00 00 36 1a 10 00 	j 4068d8 <s_rsle+0x210>
  406778:	28 00 00 00 04 00 03 10 	lw $3,4($16)
  406780:	55 00 00 00 01 02 03 00 	sll $2,$3,0x1
  406788:	42 00 00 00 00 02 03 02 	addu $2,$2,$3
  406790:	55 00 00 00 04 02 02 00 	sll $2,$2,0x4
  406798:	a2 00 00 00 00 10 03 00 	lui $3,4096
  4067a0:	43 00 00 00 50 57 03 03 	addiu $3,$3,22352
  4067a8:	42 00 00 00 00 02 03 02 	addu $2,$2,$3
  4067b0:	28 00 00 00 00 00 03 02 	lw $3,0($2)
  4067b8:	34 00 00 00 24 87 00 1c 	sw $0,-30940($28)
  4067c0:	34 00 00 00 20 87 00 1c 	sw $0,-30944($28)
  4067c8:	34 00 00 00 e4 86 10 1c 	sw $16,-31004($28)
  4067d0:	34 00 00 00 f4 86 02 1c 	sw $2,-30988($28)
  4067d8:	06 00 00 00 1e 00 00 03 	bne $3,$0,406858 <s_rsle+0x190>
  4067e0:	28 00 00 00 04 00 06 10 	lw $6,4($16)
  4067e8:	43 00 00 00 03 00 04 00 	addiu $4,$0,3
  4067f0:	43 00 00 00 05 00 05 00 	addiu $5,$0,5
  4067f8:	02 00 00 00 3c 0f 10 00 	jal 403cf0 <fk_open>
  406800:	05 00 00 00 14 00 00 02 	beq $2,$0,406858 <s_rsle+0x190>
  406808:	28 00 00 00 00 00 02 10 	lw $2,0($16)
  406810:	05 00 00 00 06 00 00 02 	beq $2,$0,406830 <s_rsle+0x168>
  406818:	43 00 00 00 66 00 02 00 	addiu $2,$0,102
  406820:	34 00 00 00 50 86 02 1c 	sw $2,-31152($28)
  406828:	01 00 00 00 12 1a 10 00 	j 406848 <s_rsle+0x180>
  406830:	43 00 00 00 66 00 04 00 	addiu $4,$0,102
  406838:	43 00 00 00 e0 80 05 1c 	addiu $5,$28,-32544
  406840:	02 00 00 00 9a 2c 10 00 	jal 40b268 <f__fatal>
  406848:	43 00 00 00 66 00 02 00 	addiu $2,$0,102
  406850:	01 00 00 00 36 1a 10 00 	j 4068d8 <s_rsle+0x210>
  406858:	28 00 00 00 f4 86 02 1c 	lw $2,-30988($28)
  406860:	28 00 00 00 00 00 03 02 	lw $3,0($2)
  406868:	28 00 00 00 18 00 02 02 	lw $2,24($2)
  406870:	34 00 00 00 fc 86 03 1c 	sw $3,-30980($28)
  406878:	06 00 00 00 14 00 00 02 	bne $2,$0,4068d0 <s_rsle+0x208>
  406880:	28 00 00 00 00 00 02 10 	lw $2,0($16)
  406888:	05 00 00 00 06 00 00 02 	beq $2,$0,4068a8 <s_rsle+0x1e0>
  406890:	43 00 00 00 67 00 02 00 	addiu $2,$0,103
  406898:	34 00 00 00 50 86 02 1c 	sw $2,-31152($28)
  4068a0:	01 00 00 00 30 1a 10 00 	j 4068c0 <s_rsle+0x1f8>
  4068a8:	43 00 00 00 67 00 04 00 	addiu $4,$0,103
  4068b0:	43 00 00 00 e0 80 05 1c 	addiu $5,$28,-32544
  4068b8:	02 00 00 00 9a 2c 10 00 	jal 40b268 <f__fatal>
  4068c0:	43 00 00 00 67 00 02 00 	addiu $2,$0,103
  4068c8:	01 00 00 00 36 1a 10 00 	j 4068d8 <s_rsle+0x210>
  4068d0:	42 00 00 00 00 02 00 00 	addu $2,$0,$0
  4068d8:	06 00 00 00 42 00 00 02 	bne $2,$0,4069e8 <s_rsle+0x320>
  4068e0:	28 00 00 00 f4 86 04 1c 	lw $4,-30988($28)
  4068e8:	28 00 00 00 28 00 02 04 	lw $2,40($4)
  4068f0:	43 00 00 00 01 00 03 00 	addiu $3,$0,1
  4068f8:	34 00 00 00 04 87 03 1c 	sw $3,-30972($28)
  406900:	34 00 00 00 00 87 03 1c 	sw $3,-30976($28)
  406908:	34 00 00 00 2c 87 03 1c 	sw $3,-30932($28)
  406910:	a2 00 00 00 40 00 03 00 	lui $3,64
  406918:	43 00 00 00 a8 60 03 03 	addiu $3,$3,24744
  406920:	34 00 00 00 78 86 03 1c 	sw $3,-31112($28)
  406928:	34 00 00 00 8c 86 00 1c 	sw $0,-31092($28)
  406930:	34 00 00 00 a0 86 00 1c 	sw $0,-31072($28)
  406938:	34 00 00 00 80 86 00 1c 	sw $0,-31104($28)
  406940:	05 00 00 00 14 00 00 02 	beq $2,$0,406998 <s_rsle+0x2d0>
  406948:	02 00 00 00 d8 2d 10 00 	jal 40b760 <f__nowreading>
  406950:	05 00 00 00 10 00 00 02 	beq $2,$0,406998 <s_rsle+0x2d0>
  406958:	28 00 00 00 00 00 02 10 	lw $2,0($16)
  406960:	06 00 00 00 08 00 00 02 	bne $2,$0,406988 <s_rsle+0x2c0>
  406968:	28 00 00 00 50 86 04 1c 	lw $4,-31152($28)
  406970:	a2 00 00 00 00 10 05 00 	lui $5,4096
  406978:	43 00 00 00 64 02 05 05 	addiu $5,$5,612
  406980:	02 00 00 00 9a 2c 10 00 	jal 40b268 <f__fatal>
  406988:	28 00 00 00 50 86 02 1c 	lw $2,-31152($28)
  406990:	01 00 00 00 7a 1a 10 00 	j 4069e8 <s_rsle+0x320>
  406998:	42 00 00 00 00 02 00 00 	addu $2,$0,$0
  4069a0:	a2 00 00 00 40 00 03 00 	lui $3,64
  4069a8:	43 00 00 00 e0 41 03 03 	addiu $3,$3,16864
  4069b0:	34 00 00 00 74 86 03 1c 	sw $3,-31116($28)
  4069b8:	a2 00 00 00 41 00 03 00 	lui $3,65
  4069c0:	43 00 00 00 20 24 03 03 	addiu $3,$3,9248
  4069c8:	34 00 00 00 7c 86 03 1c 	sw $3,-31108($28)
  4069d0:	a2 00 00 00 40 00 03 00 	lui $3,64
  4069d8:	43 00 00 00 10 6a 03 03 	addiu $3,$3,27152
  4069e0:	34 00 00 00 18 87 03 1c 	sw $3,-30952($28)
  4069e8:	28 00 00 00 14 00 1f 1d 	lw $31,20($29)
  4069f0:	28 00 00 00 10 00 10 1d 	lw $16,16($29)
  4069f8:	43 00 00 00 18 00 1d 1d 	addiu $29,$29,24
  406a00:	03 00 00 00 00 00 00 1f 	jr $31
	...

00406a10 <xrd_SL>:
  406a10:	28 00 00 00 f4 86 02 1c 	lw $2,-30988($28)
  406a18:	43 00 00 00 e0 ff 1d 1d 	addiu $29,$29,-32
  406a20:	34 00 00 00 18 00 1f 1d 	sw $31,24($29)
  406a28:	34 00 00 00 14 00 11 1d 	sw $17,20($29)
  406a30:	34 00 00 00 10 00 10 1d 	sw $16,16($29)
  406a38:	28 00 00 00 24 00 02 02 	lw $2,36($2)
  406a40:	06 00 00 00 1c 00 00 02 	bne $2,$0,406ab8 <xrd_SL+0xa8>
  406a48:	43 00 00 00 0a 00 11 00 	addiu $17,$0,10
  406a50:	43 00 00 00 ff ff 10 00 	addiu $16,$0,-1
  406a58:	28 00 00 00 fc 86 04 1c 	lw $4,-30980($28)
  406a60:	28 00 00 00 04 00 03 04 	lw $3,4($4)
  406a68:	28 00 00 00 08 00 02 04 	lw $2,8($4)
  406a70:	5d 00 00 00 00 02 02 03 	sltu $2,$3,$2
  406a78:	05 00 00 00 08 00 00 02 	beq $2,$0,406aa0 <xrd_SL+0x90>
  406a80:	43 00 00 00 01 00 02 03 	addiu $2,$3,1
  406a88:	34 00 00 00 04 00 02 04 	sw $2,4($4)
  406a90:	22 00 00 00 00 00 02 03 	lbu $2,0($3)
  406a98:	01 00 00 00 aa 1a 10 00 	j 406aa8 <xrd_SL+0x98>
  406aa0:	02 00 00 00 72 41 10 00 	jal 4105c8 <__fillbf>
  406aa8:	05 00 00 00 02 00 11 02 	beq $2,$17,406ab8 <xrd_SL+0xa8>
  406ab0:	06 00 00 00 e8 ff 10 02 	bne $2,$16,406a58 <xrd_SL+0x48>
  406ab8:	43 00 00 00 01 00 02 00 	addiu $2,$0,1
  406ac0:	34 00 00 00 24 87 00 1c 	sw $0,-30940($28)
  406ac8:	34 00 00 00 30 87 00 1c 	sw $0,-30928($28)
  406ad0:	28 00 00 00 18 00 1f 1d 	lw $31,24($29)
  406ad8:	28 00 00 00 14 00 11 1d 	lw $17,20($29)
  406ae0:	28 00 00 00 10 00 10 1d 	lw $16,16($29)
  406ae8:	43 00 00 00 20 00 1d 1d 	addiu $29,$29,32
  406af0:	03 00 00 00 00 00 00 1f 	jr $31

00406af8 <x_getc>:
  406af8:	28 00 00 00 f4 86 02 1c 	lw $2,-30988($28)
  406b00:	43 00 00 00 e8 ff 1d 1d 	addiu $29,$29,-24
  406b08:	34 00 00 00 10 00 1f 1d 	sw $31,16($29)
  406b10:	28 00 00 00 24 00 02 02 	lw $2,36($2)
  406b18:	06 00 00 00 4a 00 00 02 	bne $2,$0,406c48 <x_getc+0x150>
  406b20:	28 00 00 00 fc 86 04 1c 	lw $4,-30980($28)
  406b28:	28 00 00 00 04 00 03 04 	lw $3,4($4)
  406b30:	28 00 00 00 08 00 02 04 	lw $2,8($4)
  406b38:	5d 00 00 00 00 02 02 03 	sltu $2,$3,$2
  406b40:	05 00 00 00 08 00 00 02 	beq $2,$0,406b68 <x_getc+0x70>
  406b48:	43 00 00 00 01 00 02 03 	addiu $2,$3,1
  406b50:	34 00 00 00 04 00 02 04 	sw $2,4($4)
  406b58:	22 00 00 00 00 00 04 03 	lbu $4,0($3)
  406b60:	01 00 00 00 de 1a 10 00 	j 406b78 <x_getc+0x80>
  406b68:	02 00 00 00 72 41 10 00 	jal 4105c8 <__fillbf>
  406b70:	42 00 00 00 00 04 02 00 	addu $4,$0,$2
  406b78:	43 00 00 00 ff ff 02 00 	addiu $2,$0,-1
  406b80:	05 00 00 00 18 00 02 04 	beq $4,$2,406be8 <x_getc+0xf0>
  406b88:	43 00 00 00 0a 00 02 00 	addiu $2,$0,10
  406b90:	05 00 00 00 0a 00 02 04 	beq $4,$2,406bc0 <x_getc+0xc8>
  406b98:	28 00 00 00 24 87 03 1c 	lw $3,-30940($28)
  406ba0:	42 00 00 00 00 02 04 00 	addu $2,$0,$4
  406ba8:	43 00 00 00 01 00 03 03 	addiu $3,$3,1
  406bb0:	34 00 00 00 24 87 03 1c 	sw $3,-30940($28)
  406bb8:	01 00 00 00 14 1b 10 00 	j 406c50 <x_getc+0x158>
  406bc0:	28 00 00 00 fc 86 05 1c 	lw $5,-30980($28)
  406bc8:	43 00 00 00 0a 00 04 00 	addiu $4,$0,10
  406bd0:	02 00 00 00 08 49 10 00 	jal 412420 <ungetc>
  406bd8:	43 00 00 00 0a 00 02 00 	addiu $2,$0,10
  406be0:	01 00 00 00 14 1b 10 00 	j 406c50 <x_getc+0x158>
  406be8:	28 00 00 00 f4 86 04 1c 	lw $4,-30988($28)
  406bf0:	28 00 00 00 24 00 02 04 	lw $2,36($4)
  406bf8:	06 00 00 00 08 00 00 02 	bne $2,$0,406c20 <x_getc+0x128>
  406c00:	28 00 00 00 fc 86 02 1c 	lw $2,-30980($28)
  406c08:	28 00 00 00 4c 00 02 02 	lw $2,76($2)
  406c10:	4f 00 00 00 00 02 02 02 	andi $2,$2,512
  406c18:	05 00 00 00 0a 00 00 02 	beq $2,$0,406c48 <x_getc+0x150>
  406c20:	43 00 00 00 ff ff 02 00 	addiu $2,$0,-1
  406c28:	43 00 00 00 01 00 03 00 	addiu $3,$0,1
  406c30:	34 00 00 00 50 86 00 1c 	sw $0,-31152($28)
  406c38:	34 00 00 00 24 00 03 04 	sw $3,36($4)
  406c40:	01 00 00 00 14 1b 10 00 	j 406c50 <x_getc+0x158>
  406c48:	43 00 00 00 ff ff 02 00 	addiu $2,$0,-1
  406c50:	28 00 00 00 10 00 1f 1d 	lw $31,16($29)
  406c58:	43 00 00 00 18 00 1d 1d 	addiu $29,$29,24
  406c60:	03 00 00 00 00 00 00 1f 	jr $31

00406c68 <x_endp>:
  406c68:	28 00 00 00 f4 86 02 1c 	lw $2,-30988($28)
  406c70:	43 00 00 00 e0 ff 1d 1d 	addiu $29,$29,-32
  406c78:	34 00 00 00 18 00 1f 1d 	sw $31,24($29)
  406c80:	34 00 00 00 14 00 11 1d 	sw $17,20($29)
  406c88:	34 00 00 00 10 00 10 1d 	sw $16,16($29)
  406c90:	28 00 00 00 24 00 02 02 	lw $2,36($2)
  406c98:	06 00 00 00 1c 00 00 02 	bne $2,$0,406d10 <x_endp+0xa8>
  406ca0:	43 00 00 00 0a 00 11 00 	addiu $17,$0,10
  406ca8:	43 00 00 00 ff ff 10 00 	addiu $16,$0,-1
  406cb0:	28 00 00 00 fc 86 04 1c 	lw $4,-30980($28)
  406cb8:	28 00 00 00 04 00 03 04 	lw $3,4($4)
  406cc0:	28 00 00 00 08 00 02 04 	lw $2,8($4)
  406cc8:	5d 00 00 00 00 02 02 03 	sltu $2,$3,$2
  406cd0:	05 00 00 00 08 00 00 02 	beq $2,$0,406cf8 <x_endp+0x90>
  406cd8:	43 00 00 00 01 00 02 03 	addiu $2,$3,1
  406ce0:	34 00 00 00 04 00 02 04 	sw $2,4($4)
  406ce8:	22 00 00 00 00 00 02 03 	lbu $2,0($3)
  406cf0:	01 00 00 00 40 1b 10 00 	j 406d00 <x_endp+0x98>
  406cf8:	02 00 00 00 72 41 10 00 	jal 4105c8 <__fillbf>
  406d00:	05 00 00 00 02 00 11 02 	beq $2,$17,406d10 <x_endp+0xa8>
  406d08:	06 00 00 00 e8 ff 10 02 	bne $2,$16,406cb0 <x_endp+0x48>
  406d10:	42 00 00 00 00 02 00 00 	addu $2,$0,$0
  406d18:	34 00 00 00 24 87 00 1c 	sw $0,-30940($28)
  406d20:	34 00 00 00 30 87 00 1c 	sw $0,-30928($28)
  406d28:	28 00 00 00 18 00 1f 1d 	lw $31,24($29)
  406d30:	28 00 00 00 14 00 11 1d 	lw $17,20($29)
  406d38:	28 00 00 00 10 00 10 1d 	lw $16,16($29)
  406d40:	43 00 00 00 20 00 1d 1d 	addiu $29,$29,32
  406d48:	03 00 00 00 00 00 00 1f 	jr $31

00406d50 <x_rev>:
  406d50:	28 00 00 00 f4 86 02 1c 	lw $2,-30988($28)
  406d58:	43 00 00 00 e0 ff 1d 1d 	addiu $29,$29,-32
  406d60:	34 00 00 00 18 00 1f 1d 	sw $31,24($29)
  406d68:	34 00 00 00 14 00 11 1d 	sw $17,20($29)
  406d70:	34 00 00 00 10 00 10 1d 	sw $16,16($29)
  406d78:	28 00 00 00 24 00 02 02 	lw $2,36($2)
  406d80:	06 00 00 00 1c 00 00 02 	bne $2,$0,406df8 <x_rev+0xa8>
  406d88:	43 00 00 00 0a 00 11 00 	addiu $17,$0,10
  406d90:	43 00 00 00 ff ff 10 00 	addiu $16,$0,-1
  406d98:	28 00 00 00 fc 86 04 1c 	lw $4,-30980($28)
  406da0:	28 00 00 00 04 00 03 04 	lw $3,4($4)
  406da8:	28 00 00 00 08 00 02 04 	lw $2,8($4)
  406db0:	5d 00 00 00 00 02 02 03 	sltu $2,$3,$2
  406db8:	05 00 00 00 08 00 00 02 	beq $2,$0,406de0 <x_rev+0x90>
  406dc0:	43 00 00 00 01 00 02 03 	addiu $2,$3,1
  406dc8:	34 00 00 00 04 00 02 04 	sw $2,4($4)
  406dd0:	22 00 00 00 00 00 02 03 	lbu $2,0($3)
  406dd8:	01 00 00 00 7a 1b 10 00 	j 406de8 <x_rev+0x98>
  406de0:	02 00 00 00 72 41 10 00 	jal 4105c8 <__fillbf>
  406de8:	05 00 00 00 02 00 11 02 	beq $2,$17,406df8 <x_rev+0xa8>
  406df0:	06 00 00 00 e8 ff 10 02 	bne $2,$16,406d98 <x_rev+0x48>
  406df8:	42 00 00 00 00 02 00 00 	addu $2,$0,$0
  406e00:	34 00 00 00 24 87 00 1c 	sw $0,-30940($28)
  406e08:	34 00 00 00 30 87 00 1c 	sw $0,-30928($28)
  406e10:	28 00 00 00 18 00 1f 1d 	lw $31,24($29)
  406e18:	28 00 00 00 14 00 11 1d 	lw $17,20($29)
  406e20:	28 00 00 00 10 00 10 1d 	lw $16,16($29)
  406e28:	43 00 00 00 20 00 1d 1d 	addiu $29,$29,32
  406e30:	03 00 00 00 00 00 00 1f 	jr $31

00406e38 <s_rsfe>:
  406e38:	28 00 00 00 0c 87 02 1c 	lw $2,-30964($28)
  406e40:	43 00 00 00 e8 ff 1d 1d 	addiu $29,$29,-24
  406e48:	34 00 00 00 10 00 10 1d 	sw $16,16($29)
  406e50:	42 00 00 00 00 10 04 00 	addu $16,$0,$4
  406e58:	34 00 00 00 14 00 1f 1d 	sw $31,20($29)
  406e60:	06 00 00 00 02 00 00 02 	bne $2,$0,406e70 <s_rsfe+0x38>
  406e68:	02 00 00 00 6a 2d 10 00 	jal 40b5a8 <f_init>
  406e70:	42 00 00 00 00 04 10 00 	addu $4,$0,$16
  406e78:	02 00 00 00 26 2a 10 00 	jal 40a898 <c_sfe>
  406e80:	06 00 00 00 8c 00 00 02 	bne $2,$0,4070b8 <s_rsfe+0x280>
  406e88:	28 00 00 00 04 00 02 10 	lw $2,4($16)
  406e90:	28 00 00 00 0c 00 04 10 	lw $4,12($16)
  406e98:	55 00 00 00 01 03 02 00 	sll $3,$2,0x1
  406ea0:	42 00 00 00 00 03 02 03 	addu $3,$3,$2
  406ea8:	55 00 00 00 04 03 03 00 	sll $3,$3,0x4
  406eb0:	a2 00 00 00 00 10 02 00 	lui $2,4096
  406eb8:	43 00 00 00 50 57 02 02 	addiu $2,$2,22352
  406ec0:	42 00 00 00 00 03 02 03 	addu $3,$3,$2
  406ec8:	28 00 00 00 00 00 05 03 	lw $5,0($3)
  406ed0:	34 00 00 00 e4 86 10 1c 	sw $16,-31004($28)
  406ed8:	34 00 00 00 24 87 00 1c 	sw $0,-30940($28)
  406ee0:	34 00 00 00 30 87 00 1c 	sw $0,-30928($28)
  406ee8:	34 00 00 00 20 87 00 1c 	sw $0,-30944($28)
  406ef0:	43 00 00 00 01 00 02 00 	addiu $2,$0,1
  406ef8:	34 00 00 00 04 87 02 1c 	sw $2,-30972($28)
  406f00:	34 00 00 00 e8 86 02 1c 	sw $2,-31000($28)
  406f08:	34 00 00 00 2c 87 02 1c 	sw $2,-30932($28)
  406f10:	34 00 00 00 00 87 02 1c 	sw $2,-30976($28)
  406f18:	34 00 00 00 ec 86 04 1c 	sw $4,-30996($28)
  406f20:	34 00 00 00 f4 86 03 1c 	sw $3,-30988($28)
  406f28:	34 00 00 00 fc 86 05 1c 	sw $5,-30980($28)
  406f30:	02 00 00 00 6a 27 10 00 	jal 409da8 <pars_f>
  406f38:	0a 00 00 00 14 00 00 02 	bgez $2,406f90 <s_rsfe+0x158>
  406f40:	28 00 00 00 00 00 02 10 	lw $2,0($16)
  406f48:	05 00 00 00 06 00 00 02 	beq $2,$0,406f68 <s_rsfe+0x130>
  406f50:	43 00 00 00 64 00 02 00 	addiu $2,$0,100
  406f58:	34 00 00 00 50 86 02 1c 	sw $2,-31152($28)
  406f60:	01 00 00 00 e0 1b 10 00 	j 406f80 <s_rsfe+0x148>
  406f68:	43 00 00 00 64 00 04 00 	addiu $4,$0,100
  406f70:	43 00 00 00 f0 80 05 1c 	addiu $5,$28,-32528
  406f78:	02 00 00 00 9a 2c 10 00 	jal 40b268 <f__fatal>
  406f80:	43 00 00 00 64 00 02 00 	addiu $2,$0,100
  406f88:	01 00 00 00 2e 1c 10 00 	j 4070b8 <s_rsfe+0x280>
  406f90:	a2 00 00 00 40 00 02 00 	lui $2,64
  406f98:	43 00 00 00 f8 6a 02 02 	addiu $2,$2,27384
  406fa0:	34 00 00 00 f0 86 02 1c 	sw $2,-30992($28)
  406fa8:	a2 00 00 00 41 00 02 00 	lui $2,65
  406fb0:	43 00 00 00 58 37 02 02 	addiu $2,$2,14168
  406fb8:	34 00 00 00 10 87 02 1c 	sw $2,-30960($28)
  406fc0:	a2 00 00 00 41 00 02 00 	lui $2,65
  406fc8:	43 00 00 00 18 3f 02 02 	addiu $2,$2,16152
  406fd0:	34 00 00 00 f8 86 02 1c 	sw $2,-30984($28)
  406fd8:	02 00 00 00 f0 29 10 00 	jal 40a7c0 <fmt_bg>
  406fe0:	28 00 00 00 f4 86 05 1c 	lw $5,-30988($28)
  406fe8:	28 00 00 00 20 00 03 05 	lw $3,32($5)
  406ff0:	28 00 00 00 28 00 04 05 	lw $4,40($5)
  406ff8:	a2 00 00 00 40 00 02 00 	lui $2,64
  407000:	43 00 00 00 68 6c 02 02 	addiu $2,$2,27752
  407008:	34 00 00 00 18 87 02 1c 	sw $2,-30952($28)
  407010:	a2 00 00 00 40 00 02 00 	lui $2,64
  407018:	43 00 00 00 10 6a 02 02 	addiu $2,$2,27152
  407020:	34 00 00 00 08 87 02 1c 	sw $2,-30968($28)
  407028:	a2 00 00 00 40 00 02 00 	lui $2,64
  407030:	43 00 00 00 50 6d 02 02 	addiu $2,$2,27984
  407038:	34 00 00 00 28 87 02 1c 	sw $2,-30936($28)
  407040:	34 00 00 00 14 87 00 1c 	sw $0,-30956($28)
  407048:	34 00 00 00 1c 87 03 1c 	sw $3,-30948($28)
  407050:	05 00 00 00 16 00 00 04 	beq $4,$0,4070b0 <s_rsfe+0x278>
  407058:	42 00 00 00 00 04 05 00 	addu $4,$0,$5
  407060:	02 00 00 00 d8 2d 10 00 	jal 40b760 <f__nowreading>
  407068:	05 00 00 00 10 00 00 02 	beq $2,$0,4070b0 <s_rsfe+0x278>
  407070:	28 00 00 00 00 00 02 10 	lw $2,0($16)
  407078:	06 00 00 00 08 00 00 02 	bne $2,$0,4070a0 <s_rsfe+0x268>
  407080:	28 00 00 00 50 86 04 1c 	lw $4,-31152($28)
  407088:	a2 00 00 00 00 10 05 00 	lui $5,4096
  407090:	43 00 00 00 30 05 05 05 	addiu $5,$5,1328
  407098:	02 00 00 00 9a 2c 10 00 	jal 40b268 <f__fatal>
  4070a0:	28 00 00 00 50 86 02 1c 	lw $2,-31152($28)
  4070a8:	01 00 00 00 2e 1c 10 00 	j 4070b8 <s_rsfe+0x280>
  4070b0:	42 00 00 00 00 02 00 00 	addu $2,$0,$0
  4070b8:	28 00 00 00 14 00 1f 1d 	lw $31,20($29)
  4070c0:	28 00 00 00 10 00 10 1d 	lw $16,16($29)
  4070c8:	43 00 00 00 18 00 1d 1d 	addiu $29,$29,24
  4070d0:	03 00 00 00 00 00 00 1f 	jr $31
	...

004070e0 <ap_end>:
  4070e0:	43 00 00 00 d8 ff 1d 1d 	addiu $29,$29,-40
  4070e8:	34 00 00 00 20 00 1f 1d 	sw $31,32($29)
  4070f0:	22 00 00 00 00 00 05 04 	lbu $5,0($4)
  4070f8:	43 00 00 00 01 00 04 04 	addiu $4,$4,1
  407100:	20 00 00 00 00 00 02 04 	lb $2,0($4)
  407108:	22 00 00 00 00 00 03 04 	lbu $3,0($4)
  407110:	05 00 00 00 18 00 00 02 	beq $2,$0,407178 <ap_end+0x98>
  407118:	55 00 00 00 18 02 05 00 	sll $2,$5,0x18
  407120:	59 00 00 00 18 05 02 00 	sra $5,$2,0x18
  407128:	55 00 00 00 18 02 03 00 	sll $2,$3,0x18
  407130:	59 00 00 00 18 03 02 00 	sra $3,$2,0x18
  407138:	06 00 00 00 06 00 05 03 	bne $3,$5,407158 <ap_end+0x78>
  407140:	43 00 00 00 01 00 04 04 	addiu $4,$4,1
  407148:	20 00 00 00 00 00 02 04 	lb $2,0($4)
  407150:	06 00 00 00 18 00 03 02 	bne $2,$3,4071b8 <ap_end+0xd8>
  407158:	43 00 00 00 01 00 04 04 	addiu $4,$4,1
  407160:	20 00 00 00 00 00 02 04 	lb $2,0($4)
  407168:	22 00 00 00 00 00 03 04 	lbu $3,0($4)
  407170:	06 00 00 00 ec ff 00 02 	bne $2,$0,407128 <ap_end+0x48>
  407178:	28 00 00 00 e4 86 02 1c 	lw $2,-31004($28)
  407180:	28 00 00 00 00 00 02 02 	lw $2,0($2)
  407188:	06 00 00 00 0e 00 00 02 	bne $2,$0,4071c8 <ap_end+0xe8>
  407190:	43 00 00 00 64 00 04 00 	addiu $4,$0,100
  407198:	a2 00 00 00 00 10 05 00 	lui $5,4096
  4071a0:	43 00 00 00 40 05 05 05 	addiu $5,$5,1344
  4071a8:	02 00 00 00 9a 2c 10 00 	jal 40b268 <f__fatal>
  4071b0:	01 00 00 00 76 1c 10 00 	j 4071d8 <ap_end+0xf8>
  4071b8:	42 00 00 00 00 02 04 00 	addu $2,$0,$4
  4071c0:	01 00 00 00 78 1c 10 00 	j 4071e0 <ap_end+0x100>
  4071c8:	43 00 00 00 64 00 02 00 	addiu $2,$0,100
  4071d0:	34 00 00 00 50 86 02 1c 	sw $2,-31152($28)
  4071d8:	42 00 00 00 00 02 00 00 	addu $2,$0,$0
  4071e0:	28 00 00 00 20 00 1f 1d 	lw $31,32($29)
  4071e8:	43 00 00 00 28 00 1d 1d 	addiu $29,$29,40
  4071f0:	03 00 00 00 00 00 00 1f 	jr $31

004071f8 <op_gen>:
  4071f8:	28 00 00 00 c4 86 02 1c 	lw $2,-31036($28)
  407200:	43 00 00 00 d8 ff 1d 1d 	addiu $29,$29,-40
  407208:	34 00 00 00 14 00 11 1d 	sw $17,20($29)
  407210:	42 00 00 00 00 11 04 00 	addu $17,$0,$4
  407218:	34 00 00 00 18 00 12 1d 	sw $18,24($29)
  407220:	42 00 00 00 00 12 05 00 	addu $18,$0,$5
  407228:	34 00 00 00 1c 00 13 1d 	sw $19,28($29)
  407230:	42 00 00 00 00 13 06 00 	addu $19,$0,$6
  407238:	34 00 00 00 20 00 14 1d 	sw $20,32($29)
  407240:	42 00 00 00 00 14 07 00 	addu $20,$0,$7
  407248:	a2 00 00 00 00 10 03 00 	lui $3,4096
  407250:	43 00 00 00 30 44 03 03 	addiu $3,$3,17456
  407258:	34 00 00 00 24 00 1f 1d 	sw $31,36($29)
  407260:	34 00 00 00 10 00 10 1d 	sw $16,16($29)
  407268:	55 00 00 00 04 04 02 00 	sll $4,$2,0x4
  407270:	42 00 00 00 00 10 03 04 	addu $16,$4,$3
  407278:	5c 00 00 00 2c 01 02 02 	slti $2,$2,300
  407280:	06 00 00 00 0e 00 00 02 	bne $2,$0,4072c0 <op_gen+0xc8>
  407288:	28 00 00 00 48 81 04 1c 	lw $4,-32440($28)
  407290:	a2 00 00 00 00 10 05 00 	lui $5,4096
  407298:	43 00 00 00 4c 05 05 05 	addiu $5,$5,1356
  4072a0:	02 00 00 00 00 3c 10 00 	jal 40f000 <fprintf>
  4072a8:	28 00 00 00 ec 86 04 1c 	lw $4,-30996($28)
  4072b0:	43 00 00 00 01 00 05 00 	addiu $5,$0,1
  4072b8:	02 00 00 00 60 30 10 00 	jal 40c180 <sig_die>
  4072c0:	28 00 00 00 c4 86 02 1c 	lw $2,-31036($28)
  4072c8:	34 00 00 00 00 00 11 10 	sw $17,0($16)
  4072d0:	34 00 00 00 04 00 12 10 	sw $18,4($16)
  4072d8:	34 00 00 00 08 00 13 10 	sw $19,8($16)
  4072e0:	34 00 00 00 0c 00 14 10 	sw $20,12($16)
  4072e8:	43 00 00 00 01 00 03 02 	addiu $3,$2,1
  4072f0:	34 00 00 00 c4 86 03 1c 	sw $3,-31036($28)
  4072f8:	28 00 00 00 24 00 1f 1d 	lw $31,36($29)
  407300:	28 00 00 00 20 00 14 1d 	lw $20,32($29)
  407308:	28 00 00 00 1c 00 13 1d 	lw $19,28($29)
  407310:	28 00 00 00 18 00 12 1d 	lw $18,24($29)
  407318:	28 00 00 00 14 00 11 1d 	lw $17,20($29)
  407320:	28 00 00 00 10 00 10 1d 	lw $16,16($29)
  407328:	43 00 00 00 28 00 1d 1d 	addiu $29,$29,40
  407330:	03 00 00 00 00 00 00 1f 	jr $31

00407338 <gt_num>:
  407338:	42 00 00 00 00 07 00 00 	addu $7,$0,$0
  407340:	42 00 00 00 00 08 00 00 	addu $8,$0,$0
  407348:	22 00 00 00 00 00 03 04 	lbu $3,0($4)
  407350:	43 00 00 00 20 00 09 00 	addiu $9,$0,32
  407358:	55 00 00 00 18 02 03 00 	sll $2,$3,0x18
  407360:	59 00 00 00 18 06 02 00 	sra $6,$2,0x18
  407368:	05 00 00 00 12 00 09 06 	beq $6,$9,4073b8 <gt_num+0x80>
  407370:	43 00 00 00 d0 ff 02 03 	addiu $2,$3,-48
  407378:	5e 00 00 00 0a 00 02 02 	sltiu $2,$2,10
  407380:	05 00 00 00 12 00 00 02 	beq $2,$0,4073d0 <gt_num+0x98>
  407388:	55 00 00 00 02 02 07 00 	sll $2,$7,0x2
  407390:	42 00 00 00 00 02 07 02 	addu $2,$2,$7
  407398:	55 00 00 00 01 02 02 00 	sll $2,$2,0x1
  4073a0:	42 00 00 00 00 02 06 02 	addu $2,$2,$6
  4073a8:	43 00 00 00 d0 ff 07 02 	addiu $7,$2,-48
  4073b0:	43 00 00 00 01 00 08 08 	addiu $8,$8,1
  4073b8:	43 00 00 00 01 00 04 04 	addiu $4,$4,1
  4073c0:	22 00 00 00 00 00 03 04 	lbu $3,0($4)
  4073c8:	01 00 00 00 d6 1c 10 00 	j 407358 <gt_num+0x20>
  4073d0:	06 00 00 00 06 00 00 08 	bne $8,$0,4073f0 <gt_num+0xb8>
  4073d8:	43 00 00 00 01 00 02 00 	addiu $2,$0,1
  4073e0:	34 00 00 00 00 00 02 05 	sw $2,0($5)
  4073e8:	01 00 00 00 fe 1c 10 00 	j 4073f8 <gt_num+0xc0>
  4073f0:	34 00 00 00 00 00 07 05 	sw $7,0($5)
  4073f8:	42 00 00 00 00 02 04 00 	addu $2,$0,$4
  407400:	03 00 00 00 00 00 00 1f 	jr $31

00407408 <f_s>:
  407408:	43 00 00 00 d8 ff 1d 1d 	addiu $29,$29,-40
  407410:	34 00 00 00 10 00 10 1d 	sw $16,16($29)
  407418:	42 00 00 00 00 10 04 00 	addu $16,$0,$4
  407420:	34 00 00 00 20 00 1f 1d 	sw $31,32($29)
  407428:	34 00 00 00 1c 00 13 1d 	sw $19,28($29)
  407430:	34 00 00 00 18 00 12 1d 	sw $18,24($29)
  407438:	34 00 00 00 14 00 11 1d 	sw $17,20($29)
  407440:	20 00 00 00 00 00 03 10 	lb $3,0($16)
  407448:	42 00 00 00 00 12 05 00 	addu $18,$0,$5
  407450:	43 00 00 00 20 00 02 00 	addiu $2,$0,32
  407458:	06 00 00 00 08 00 02 03 	bne $3,$2,407480 <f_s+0x78>
  407460:	43 00 00 00 20 00 03 00 	addiu $3,$0,32
  407468:	43 00 00 00 01 00 10 10 	addiu $16,$16,1
  407470:	20 00 00 00 00 00 02 10 	lb $2,0($16)
  407478:	05 00 00 00 fa ff 03 02 	beq $2,$3,407468 <f_s+0x60>
  407480:	20 00 00 00 00 00 03 10 	lb $3,0($16)
  407488:	43 00 00 00 28 00 02 00 	addiu $2,$0,40
  407490:	43 00 00 00 01 00 10 10 	addiu $16,$16,1
  407498:	06 00 00 00 42 00 02 03 	bne $3,$2,4075a8 <f_s+0x1a0>
  4074a0:	28 00 00 00 b8 86 02 1c 	lw $2,-31048($28)
  4074a8:	43 00 00 00 02 00 03 00 	addiu $3,$0,2
  4074b0:	43 00 00 00 01 00 02 02 	addiu $2,$2,1
  4074b8:	34 00 00 00 b8 86 02 1c 	sw $2,-31048($28)
  4074c0:	06 00 00 00 02 00 03 02 	bne $2,$3,4074d0 <f_s+0xc8>
  4074c8:	34 00 00 00 c0 86 12 1c 	sw $18,-31040($28)
  4074d0:	28 00 00 00 c4 86 02 1c 	lw $2,-31036($28)
  4074d8:	43 00 00 00 01 00 13 00 	addiu $19,$0,1
  4074e0:	a2 00 00 00 00 10 03 00 	lui $3,4096
  4074e8:	43 00 00 00 30 44 03 03 	addiu $3,$3,17456
  4074f0:	55 00 00 00 04 04 02 00 	sll $4,$2,0x4
  4074f8:	42 00 00 00 00 11 03 04 	addu $17,$4,$3
  407500:	5c 00 00 00 2c 01 02 02 	slti $2,$2,300
  407508:	06 00 00 00 0e 00 00 02 	bne $2,$0,407548 <f_s+0x140>
  407510:	28 00 00 00 48 81 04 1c 	lw $4,-32440($28)
  407518:	a2 00 00 00 00 10 05 00 	lui $5,4096
  407520:	43 00 00 00 4c 05 05 05 	addiu $5,$5,1356
  407528:	02 00 00 00 00 3c 10 00 	jal 40f000 <fprintf>
  407530:	28 00 00 00 ec 86 04 1c 	lw $4,-30996($28)
  407538:	43 00 00 00 01 00 05 00 	addiu $5,$0,1
  407540:	02 00 00 00 60 30 10 00 	jal 40c180 <sig_die>
  407548:	28 00 00 00 c4 86 03 1c 	lw $3,-31036($28)
  407550:	34 00 00 00 00 00 13 11 	sw $19,0($17)
  407558:	34 00 00 00 04 00 12 11 	sw $18,4($17)
  407560:	34 00 00 00 08 00 00 11 	sw $0,8($17)
  407568:	34 00 00 00 0c 00 00 11 	sw $0,12($17)
  407570:	43 00 00 00 01 00 02 03 	addiu $2,$3,1
  407578:	34 00 00 00 c4 86 02 1c 	sw $2,-31036($28)
  407580:	09 00 00 00 08 00 00 03 	bltz $3,4075a8 <f_s+0x1a0>
  407588:	42 00 00 00 00 04 10 00 	addu $4,$0,$16
  407590:	02 00 00 00 ac 26 10 00 	jal 409ab0 <f_list>
  407598:	42 00 00 00 00 10 02 00 	addu $16,$0,$2
  4075a0:	06 00 00 00 04 00 00 10 	bne $16,$0,4075b8 <f_s+0x1b0>
  4075a8:	42 00 00 00 00 02 00 00 	addu $2,$0,$0
  4075b0:	01 00 00 00 7e 1d 10 00 	j 4075f8 <f_s+0x1f0>
  4075b8:	20 00 00 00 00 00 03 10 	lb $3,0($16)
  4075c0:	43 00 00 00 20 00 02 00 	addiu $2,$0,32
  4075c8:	06 00 00 00 08 00 02 03 	bne $3,$2,4075f0 <f_s+0x1e8>
  4075d0:	43 00 00 00 20 00 03 00 	addiu $3,$0,32
  4075d8:	43 00 00 00 01 00 10 10 	addiu $16,$16,1
  4075e0:	20 00 00 00 00 00 02 10 	lb $2,0($16)
  4075e8:	05 00 00 00 fa ff 03 02 	beq $2,$3,4075d8 <f_s+0x1d0>
  4075f0:	42 00 00 00 00 02 10 00 	addu $2,$0,$16
  4075f8:	28 00 00 00 20 00 1f 1d 	lw $31,32($29)
  407600:	28 00 00 00 1c 00 13 1d 	lw $19,28($29)
  407608:	28 00 00 00 18 00 12 1d 	lw $18,24($29)
  407610:	28 00 00 00 14 00 11 1d 	lw $17,20($29)
  407618:	28 00 00 00 10 00 10 1d 	lw $16,16($29)
  407620:	43 00 00 00 28 00 1d 1d 	addiu $29,$29,40
  407628:	03 00 00 00 00 00 00 1f 	jr $31

00407630 <ne_d>:
  407630:	43 00 00 00 c8 ff 1d 1d 	addiu $29,$29,-56
  407638:	34 00 00 00 1c 00 11 1d 	sw $17,28($29)
  407640:	42 00 00 00 00 11 04 00 	addu $17,$0,$4
  407648:	34 00 00 00 30 00 1f 1d 	sw $31,48($29)
  407650:	34 00 00 00 2c 00 15 1d 	sw $21,44($29)
  407658:	34 00 00 00 28 00 14 1d 	sw $20,40($29)
  407660:	34 00 00 00 24 00 13 1d 	sw $19,36($29)
  407668:	34 00 00 00 20 00 12 1d 	sw $18,32($29)
  407670:	34 00 00 00 18 00 10 1d 	sw $16,24($29)
  407678:	22 00 00 00 00 00 02 11 	lbu $2,0($17)
  407680:	42 00 00 00 00 15 05 00 	addu $21,$0,$5
  407688:	42 00 00 00 00 0a 00 00 	addu $10,$0,$0
  407690:	43 00 00 00 fe ff 02 02 	addiu $2,$2,-2
  407698:	55 00 00 00 18 02 02 00 	sll $2,$2,0x18
  4076a0:	59 00 00 00 18 03 02 00 	sra $3,$2,0x18
  4076a8:	5e 00 00 00 77 00 02 03 	sltiu $2,$3,119
  4076b0:	05 00 00 00 68 01 00 02 	beq $2,$0,407c58 <ne_d+0x628>
  4076b8:	55 00 00 00 02 02 03 00 	sll $2,$3,0x2
  4076c0:	a2 00 00 00 00 10 01 00 	lui $1,4096
  4076c8:	42 00 00 00 00 01 02 01 	addu $1,$1,$2
  4076d0:	28 00 00 00 88 05 02 01 	lw $2,1416($1)
  4076d8:	03 00 00 00 00 00 00 02 	jr $2
  4076e0:	28 00 00 00 c4 86 02 1c 	lw $2,-31036($28)
  4076e8:	43 00 00 00 10 00 12 00 	addiu $18,$0,16
  4076f0:	a2 00 00 00 00 10 03 00 	lui $3,4096
  4076f8:	43 00 00 00 30 44 03 03 	addiu $3,$3,17456
  407700:	55 00 00 00 04 04 02 00 	sll $4,$2,0x4
  407708:	42 00 00 00 00 10 03 04 	addu $16,$4,$3
  407710:	5c 00 00 00 2c 01 02 02 	slti $2,$2,300
  407718:	06 00 00 00 0e 00 00 02 	bne $2,$0,407758 <ne_d+0x128>
  407720:	28 00 00 00 48 81 04 1c 	lw $4,-32440($28)
  407728:	a2 00 00 00 00 10 05 00 	lui $5,4096
  407730:	43 00 00 00 4c 05 05 05 	addiu $5,$5,1356
  407738:	02 00 00 00 00 3c 10 00 	jal 40f000 <fprintf>
  407740:	28 00 00 00 ec 86 04 1c 	lw $4,-30996($28)
  407748:	43 00 00 00 01 00 05 00 	addiu $5,$0,1
  407750:	02 00 00 00 60 30 10 00 	jal 40c180 <sig_die>
  407758:	28 00 00 00 c4 86 02 1c 	lw $2,-31036($28)
  407760:	34 00 00 00 00 00 12 10 	sw $18,0($16)
  407768:	34 00 00 00 04 00 00 10 	sw $0,4($16)
  407770:	01 00 00 00 a4 20 10 00 	j 408290 <ne_d+0xc60>
  407778:	28 00 00 00 c4 86 02 1c 	lw $2,-31036($28)
  407780:	43 00 00 00 21 00 12 00 	addiu $18,$0,33
  407788:	a2 00 00 00 00 10 03 00 	lui $3,4096
  407790:	43 00 00 00 30 44 03 03 	addiu $3,$3,17456
  407798:	55 00 00 00 04 04 02 00 	sll $4,$2,0x4
  4077a0:	42 00 00 00 00 10 03 04 	addu $16,$4,$3
  4077a8:	5c 00 00 00 2c 01 02 02 	slti $2,$2,300
  4077b0:	06 00 00 00 0e 00 00 02 	bne $2,$0,4077f0 <ne_d+0x1c0>
  4077b8:	28 00 00 00 48 81 04 1c 	lw $4,-32440($28)
  4077c0:	a2 00 00 00 00 10 05 00 	lui $5,4096
  4077c8:	43 00 00 00 4c 05 05 05 	addiu $5,$5,1356
  4077d0:	02 00 00 00 00 3c 10 00 	jal 40f000 <fprintf>
  4077d8:	28 00 00 00 ec 86 04 1c 	lw $4,-30996($28)
  4077e0:	43 00 00 00 01 00 05 00 	addiu $5,$0,1
  4077e8:	02 00 00 00 60 30 10 00 	jal 40c180 <sig_die>
  4077f0:	28 00 00 00 c4 86 02 1c 	lw $2,-31036($28)
  4077f8:	34 00 00 00 00 00 12 10 	sw $18,0($16)
  407800:	34 00 00 00 04 00 00 10 	sw $0,4($16)
  407808:	01 00 00 00 a4 20 10 00 	j 408290 <ne_d+0xc60>
  407810:	43 00 00 00 01 00 11 11 	addiu $17,$17,1
  407818:	20 00 00 00 00 00 03 11 	lb $3,0($17)
  407820:	43 00 00 00 7a 00 02 00 	addiu $2,$0,122
  407828:	05 00 00 00 04 00 02 03 	beq $3,$2,407840 <ne_d+0x210>
  407830:	43 00 00 00 5a 00 02 00 	addiu $2,$0,90
  407838:	06 00 00 00 26 00 02 03 	bne $3,$2,4078d8 <ne_d+0x2a8>
  407840:	28 00 00 00 c4 86 02 1c 	lw $2,-31036($28)
  407848:	43 00 00 00 16 00 12 00 	addiu $18,$0,22
  407850:	a2 00 00 00 00 10 03 00 	lui $3,4096
  407858:	43 00 00 00 30 44 03 03 	addiu $3,$3,17456
  407860:	55 00 00 00 04 04 02 00 	sll $4,$2,0x4
  407868:	42 00 00 00 00 10 03 04 	addu $16,$4,$3
  407870:	5c 00 00 00 2c 01 02 02 	slti $2,$2,300
  407878:	06 00 00 00 0e 00 00 02 	bne $2,$0,4078b8 <ne_d+0x288>
  407880:	28 00 00 00 48 81 04 1c 	lw $4,-32440($28)
  407888:	a2 00 00 00 00 10 05 00 	lui $5,4096
  407890:	43 00 00 00 4c 05 05 05 	addiu $5,$5,1356
  407898:	02 00 00 00 00 3c 10 00 	jal 40f000 <fprintf>
  4078a0:	28 00 00 00 ec 86 04 1c 	lw $4,-30996($28)
  4078a8:	43 00 00 00 01 00 05 00 	addiu $5,$0,1
  4078b0:	02 00 00 00 60 30 10 00 	jal 40c180 <sig_die>
  4078b8:	28 00 00 00 c4 86 02 1c 	lw $2,-31036($28)
  4078c0:	34 00 00 00 00 00 12 10 	sw $18,0($16)
  4078c8:	34 00 00 00 04 00 00 10 	sw $0,4($16)
  4078d0:	01 00 00 00 a4 20 10 00 	j 408290 <ne_d+0xc60>
  4078d8:	28 00 00 00 c4 86 02 1c 	lw $2,-31036($28)
  4078e0:	43 00 00 00 15 00 12 00 	addiu $18,$0,21
  4078e8:	a2 00 00 00 00 10 03 00 	lui $3,4096
  4078f0:	43 00 00 00 30 44 03 03 	addiu $3,$3,17456
  4078f8:	55 00 00 00 04 04 02 00 	sll $4,$2,0x4
  407900:	42 00 00 00 00 10 03 04 	addu $16,$4,$3
  407908:	5c 00 00 00 2c 01 02 02 	slti $2,$2,300
  407910:	06 00 00 00 0e 00 00 02 	bne $2,$0,407950 <ne_d+0x320>
  407918:	28 00 00 00 48 81 04 1c 	lw $4,-32440($28)
  407920:	a2 00 00 00 00 10 05 00 	lui $5,4096
  407928:	43 00 00 00 4c 05 05 05 	addiu $5,$5,1356
  407930:	02 00 00 00 00 3c 10 00 	jal 40f000 <fprintf>
  407938:	28 00 00 00 ec 86 04 1c 	lw $4,-30996($28)
  407940:	43 00 00 00 01 00 05 00 	addiu $5,$0,1
  407948:	02 00 00 00 60 30 10 00 	jal 40c180 <sig_die>
  407950:	28 00 00 00 c4 86 02 1c 	lw $2,-31036($28)
  407958:	34 00 00 00 00 00 12 10 	sw $18,0($16)
  407960:	34 00 00 00 04 00 00 10 	sw $0,4($16)
  407968:	01 00 00 00 a4 20 10 00 	j 408290 <ne_d+0xc60>
  407970:	20 00 00 00 01 00 03 11 	lb $3,1($17)
  407978:	43 00 00 00 73 00 02 00 	addiu $2,$0,115
  407980:	05 00 00 00 04 00 02 03 	beq $3,$2,407998 <ne_d+0x368>
  407988:	43 00 00 00 53 00 02 00 	addiu $2,$0,83
  407990:	06 00 00 00 06 00 02 03 	bne $3,$2,4079b0 <ne_d+0x380>
  407998:	43 00 00 00 13 00 12 00 	addiu $18,$0,19
  4079a0:	43 00 00 00 01 00 11 11 	addiu $17,$17,1
  4079a8:	01 00 00 00 7c 1e 10 00 	j 4079f0 <ne_d+0x3c0>
  4079b0:	43 00 00 00 70 00 02 00 	addiu $2,$0,112
  4079b8:	05 00 00 00 04 00 02 03 	beq $3,$2,4079d0 <ne_d+0x3a0>
  4079c0:	43 00 00 00 50 00 02 00 	addiu $2,$0,80
  4079c8:	06 00 00 00 06 00 02 03 	bne $3,$2,4079e8 <ne_d+0x3b8>
  4079d0:	43 00 00 00 12 00 12 00 	addiu $18,$0,18
  4079d8:	43 00 00 00 01 00 11 11 	addiu $17,$17,1
  4079e0:	01 00 00 00 7c 1e 10 00 	j 4079f0 <ne_d+0x3c0>
  4079e8:	43 00 00 00 11 00 12 00 	addiu $18,$0,17
  4079f0:	28 00 00 00 c4 86 02 1c 	lw $2,-31036($28)
  4079f8:	a2 00 00 00 00 10 03 00 	lui $3,4096
  407a00:	43 00 00 00 30 44 03 03 	addiu $3,$3,17456
  407a08:	55 00 00 00 04 04 02 00 	sll $4,$2,0x4
  407a10:	42 00 00 00 00 10 03 04 	addu $16,$4,$3
  407a18:	5c 00 00 00 2c 01 02 02 	slti $2,$2,300
  407a20:	06 00 00 00 0e 00 00 02 	bne $2,$0,407a60 <ne_d+0x430>
  407a28:	28 00 00 00 48 81 04 1c 	lw $4,-32440($28)
  407a30:	a2 00 00 00 00 10 05 00 	lui $5,4096
  407a38:	43 00 00 00 4c 05 05 05 	addiu $5,$5,1356
  407a40:	02 00 00 00 00 3c 10 00 	jal 40f000 <fprintf>
  407a48:	28 00 00 00 ec 86 04 1c 	lw $4,-30996($28)
  407a50:	43 00 00 00 01 00 05 00 	addiu $5,$0,1
  407a58:	02 00 00 00 60 30 10 00 	jal 40c180 <sig_die>
  407a60:	28 00 00 00 c4 86 02 1c 	lw $2,-31036($28)
  407a68:	34 00 00 00 00 00 12 10 	sw $18,0($16)
  407a70:	34 00 00 00 04 00 00 10 	sw $0,4($16)
  407a78:	01 00 00 00 a4 20 10 00 	j 408290 <ne_d+0xc60>
  407a80:	28 00 00 00 c4 86 02 1c 	lw $2,-31036($28)
  407a88:	43 00 00 00 05 00 12 00 	addiu $18,$0,5
  407a90:	a2 00 00 00 00 10 03 00 	lui $3,4096
  407a98:	43 00 00 00 30 44 03 03 	addiu $3,$3,17456
  407aa0:	55 00 00 00 04 04 02 00 	sll $4,$2,0x4
  407aa8:	42 00 00 00 00 10 03 04 	addu $16,$4,$3
  407ab0:	5c 00 00 00 2c 01 02 02 	slti $2,$2,300
  407ab8:	06 00 00 00 0e 00 00 02 	bne $2,$0,407af8 <ne_d+0x4c8>
  407ac0:	28 00 00 00 48 81 04 1c 	lw $4,-32440($28)
  407ac8:	a2 00 00 00 00 10 05 00 	lui $5,4096
  407ad0:	43 00 00 00 4c 05 05 05 	addiu $5,$5,1356
  407ad8:	02 00 00 00 00 3c 10 00 	jal 40f000 <fprintf>
  407ae0:	28 00 00 00 ec 86 04 1c 	lw $4,-30996($28)
  407ae8:	43 00 00 00 01 00 05 00 	addiu $5,$0,1
  407af0:	02 00 00 00 60 30 10 00 	jal 40c180 <sig_die>
  407af8:	28 00 00 00 c4 86 02 1c 	lw $2,-31036($28)
  407b00:	34 00 00 00 00 00 12 10 	sw $18,0($16)
  407b08:	34 00 00 00 04 00 00 10 	sw $0,4($16)
  407b10:	01 00 00 00 a4 20 10 00 	j 408290 <ne_d+0xc60>
  407b18:	43 00 00 00 01 00 0a 00 	addiu $10,$0,1
  407b20:	43 00 00 00 01 00 11 11 	addiu $17,$17,1
  407b28:	42 00 00 00 00 04 11 00 	addu $4,$0,$17
  407b30:	43 00 00 00 10 00 08 1d 	addiu $8,$29,16
  407b38:	42 00 00 00 00 06 00 00 	addu $6,$0,$0
  407b40:	42 00 00 00 00 07 00 00 	addu $7,$0,$0
  407b48:	22 00 00 00 00 00 03 04 	lbu $3,0($4)
  407b50:	43 00 00 00 20 00 09 00 	addiu $9,$0,32
  407b58:	55 00 00 00 18 02 03 00 	sll $2,$3,0x18
  407b60:	59 00 00 00 18 05 02 00 	sra $5,$2,0x18
  407b68:	05 00 00 00 12 00 09 05 	beq $5,$9,407bb8 <ne_d+0x588>
  407b70:	43 00 00 00 d0 ff 02 03 	addiu $2,$3,-48
  407b78:	5e 00 00 00 0a 00 02 02 	sltiu $2,$2,10
  407b80:	05 00 00 00 12 00 00 02 	beq $2,$0,407bd0 <ne_d+0x5a0>
  407b88:	55 00 00 00 02 02 06 00 	sll $2,$6,0x2
  407b90:	42 00 00 00 00 02 06 02 	addu $2,$2,$6
  407b98:	55 00 00 00 01 02 02 00 	sll $2,$2,0x1
  407ba0:	42 00 00 00 00 02 05 02 	addu $2,$2,$5
  407ba8:	43 00 00 00 d0 ff 06 02 	addiu $6,$2,-48
  407bb0:	43 00 00 00 01 00 07 07 	addiu $7,$7,1
  407bb8:	43 00 00 00 01 00 04 04 	addiu $4,$4,1
  407bc0:	22 00 00 00 00 00 03 04 	lbu $3,0($4)
  407bc8:	01 00 00 00 d6 1e 10 00 	j 407b58 <ne_d+0x528>
  407bd0:	06 00 00 00 06 00 00 07 	bne $7,$0,407bf0 <ne_d+0x5c0>
  407bd8:	43 00 00 00 01 00 02 00 	addiu $2,$0,1
  407be0:	34 00 00 00 00 00 02 08 	sw $2,0($8)
  407be8:	01 00 00 00 fe 1e 10 00 	j 407bf8 <ne_d+0x5c8>
  407bf0:	34 00 00 00 00 00 06 08 	sw $6,0($8)
  407bf8:	42 00 00 00 00 11 04 00 	addu $17,$0,$4
  407c00:	22 00 00 00 00 00 02 11 	lbu $2,0($17)
  407c08:	43 00 00 00 b8 ff 02 02 	addiu $2,$2,-72
  407c10:	55 00 00 00 18 02 02 00 	sll $2,$2,0x18
  407c18:	59 00 00 00 18 03 02 00 	sra $3,$2,0x18
  407c20:	5e 00 00 00 31 00 02 03 	sltiu $2,$3,49
  407c28:	05 00 00 00 0a 00 00 02 	beq $2,$0,407c58 <ne_d+0x628>
  407c30:	55 00 00 00 02 02 03 00 	sll $2,$3,0x2
  407c38:	a2 00 00 00 00 10 01 00 	lui $1,4096
  407c40:	42 00 00 00 00 01 02 01 	addu $1,$1,$2
  407c48:	28 00 00 00 68 07 02 01 	lw $2,1896($1)
  407c50:	03 00 00 00 00 00 00 02 	jr $2
  407c58:	42 00 00 00 00 02 00 00 	addu $2,$0,$0
  407c60:	01 00 00 00 b2 20 10 00 	j 4082c8 <ne_d+0xc98>
  407c68:	05 00 00 00 06 00 00 0a 	beq $10,$0,407c88 <ne_d+0x658>
  407c70:	28 00 00 00 10 00 02 1d 	lw $2,16($29)
  407c78:	45 00 00 00 00 02 02 00 	subu $2,$0,$2
  407c80:	34 00 00 00 10 00 02 1d 	sw $2,16($29)
  407c88:	28 00 00 00 c4 86 02 1c 	lw $2,-31036($28)
  407c90:	43 00 00 00 14 00 13 00 	addiu $19,$0,20
  407c98:	28 00 00 00 10 00 12 1d 	lw $18,16($29)
  407ca0:	a2 00 00 00 00 10 03 00 	lui $3,4096
  407ca8:	43 00 00 00 30 44 03 03 	addiu $3,$3,17456
  407cb0:	55 00 00 00 04 04 02 00 	sll $4,$2,0x4
  407cb8:	42 00 00 00 00 10 03 04 	addu $16,$4,$3
  407cc0:	5c 00 00 00 2c 01 02 02 	slti $2,$2,300
  407cc8:	06 00 00 00 0e 00 00 02 	bne $2,$0,407d08 <ne_d+0x6d8>
  407cd0:	28 00 00 00 48 81 04 1c 	lw $4,-32440($28)
  407cd8:	a2 00 00 00 00 10 05 00 	lui $5,4096
  407ce0:	43 00 00 00 4c 05 05 05 	addiu $5,$5,1356
  407ce8:	02 00 00 00 00 3c 10 00 	jal 40f000 <fprintf>
  407cf0:	28 00 00 00 ec 86 04 1c 	lw $4,-30996($28)
  407cf8:	43 00 00 00 01 00 05 00 	addiu $5,$0,1
  407d00:	02 00 00 00 60 30 10 00 	jal 40c180 <sig_die>
  407d08:	28 00 00 00 c4 86 02 1c 	lw $2,-31036($28)
  407d10:	34 00 00 00 00 00 13 10 	sw $19,0($16)
  407d18:	34 00 00 00 04 00 12 10 	sw $18,4($16)
  407d20:	01 00 00 00 a4 20 10 00 	j 408290 <ne_d+0xc60>
  407d28:	28 00 00 00 c4 86 02 1c 	lw $2,-31036($28)
  407d30:	43 00 00 00 04 00 13 00 	addiu $19,$0,4
  407d38:	28 00 00 00 10 00 12 1d 	lw $18,16($29)
  407d40:	a2 00 00 00 00 10 03 00 	lui $3,4096
  407d48:	43 00 00 00 30 44 03 03 	addiu $3,$3,17456
  407d50:	55 00 00 00 04 04 02 00 	sll $4,$2,0x4
  407d58:	42 00 00 00 00 10 03 04 	addu $16,$4,$3
  407d60:	5c 00 00 00 2c 01 02 02 	slti $2,$2,300
  407d68:	06 00 00 00 0e 00 00 02 	bne $2,$0,407da8 <ne_d+0x778>
  407d70:	28 00 00 00 48 81 04 1c 	lw $4,-32440($28)
  407d78:	a2 00 00 00 00 10 05 00 	lui $5,4096
  407d80:	43 00 00 00 4c 05 05 05 	addiu $5,$5,1356
  407d88:	02 00 00 00 00 3c 10 00 	jal 40f000 <fprintf>
  407d90:	28 00 00 00 ec 86 04 1c 	lw $4,-30996($28)
  407d98:	43 00 00 00 01 00 05 00 	addiu $5,$0,1
  407da0:	02 00 00 00 60 30 10 00 	jal 40c180 <sig_die>
  407da8:	28 00 00 00 c4 86 02 1c 	lw $2,-31036($28)
  407db0:	34 00 00 00 00 00 13 10 	sw $19,0($16)
  407db8:	34 00 00 00 04 00 12 10 	sw $18,4($16)
  407dc0:	01 00 00 00 a4 20 10 00 	j 408290 <ne_d+0xc60>
  407dc8:	28 00 00 00 c4 86 02 1c 	lw $2,-31036($28)
  407dd0:	43 00 00 00 0c 00 14 00 	addiu $20,$0,12
  407dd8:	28 00 00 00 10 00 12 1d 	lw $18,16($29)
  407de0:	a2 00 00 00 00 10 13 00 	lui $19,4096
  407de8:	43 00 00 00 30 44 13 13 	addiu $19,$19,17456
  407df0:	55 00 00 00 04 03 02 00 	sll $3,$2,0x4
  407df8:	42 00 00 00 00 10 13 03 	addu $16,$3,$19
  407e00:	5c 00 00 00 2c 01 02 02 	slti $2,$2,300
  407e08:	06 00 00 00 0e 00 00 02 	bne $2,$0,407e48 <ne_d+0x818>
  407e10:	28 00 00 00 48 81 04 1c 	lw $4,-32440($28)
  407e18:	a2 00 00 00 00 10 05 00 	lui $5,4096
  407e20:	43 00 00 00 4c 05 05 05 	addiu $5,$5,1356
  407e28:	02 00 00 00 00 3c 10 00 	jal 40f000 <fprintf>
  407e30:	28 00 00 00 ec 86 04 1c 	lw $4,-30996($28)
  407e38:	43 00 00 00 01 00 05 00 	addiu $5,$0,1
  407e40:	02 00 00 00 60 30 10 00 	jal 40c180 <sig_die>
  407e48:	28 00 00 00 c4 86 03 1c 	lw $3,-31036($28)
  407e50:	34 00 00 00 00 00 14 10 	sw $20,0($16)
  407e58:	34 00 00 00 04 00 12 10 	sw $18,4($16)
  407e60:	34 00 00 00 08 00 00 10 	sw $0,8($16)
  407e68:	34 00 00 00 0c 00 00 10 	sw $0,12($16)
  407e70:	55 00 00 00 04 02 03 00 	sll $2,$3,0x4
  407e78:	42 00 00 00 00 04 13 02 	addu $4,$2,$19
  407e80:	43 00 00 00 01 00 03 03 	addiu $3,$3,1
  407e88:	43 00 00 00 01 00 02 11 	addiu $2,$17,1
  407e90:	34 00 00 00 c4 86 03 1c 	sw $3,-31036($28)
  407e98:	34 00 00 00 08 00 02 04 	sw $2,8($4)
  407ea0:	28 00 00 00 10 00 02 1d 	lw $2,16($29)
  407ea8:	42 00 00 00 00 11 02 11 	addu $17,$17,$2
  407eb0:	01 00 00 00 ac 20 10 00 	j 4082b0 <ne_d+0xc80>
  407eb8:	28 00 00 00 c4 86 02 1c 	lw $2,-31036($28)
  407ec0:	43 00 00 00 0b 00 13 00 	addiu $19,$0,11
  407ec8:	a2 00 00 00 00 10 12 00 	lui $18,4096
  407ed0:	43 00 00 00 30 44 12 12 	addiu $18,$18,17456
  407ed8:	55 00 00 00 04 03 02 00 	sll $3,$2,0x4
  407ee0:	42 00 00 00 00 10 12 03 	addu $16,$3,$18
  407ee8:	5c 00 00 00 2c 01 02 02 	slti $2,$2,300
  407ef0:	06 00 00 00 0e 00 00 02 	bne $2,$0,407f30 <ne_d+0x900>
  407ef8:	28 00 00 00 48 81 04 1c 	lw $4,-32440($28)
  407f00:	a2 00 00 00 00 10 05 00 	lui $5,4096
  407f08:	43 00 00 00 4c 05 05 05 	addiu $5,$5,1356
  407f10:	02 00 00 00 00 3c 10 00 	jal 40f000 <fprintf>
  407f18:	28 00 00 00 ec 86 04 1c 	lw $4,-30996($28)
  407f20:	43 00 00 00 01 00 05 00 	addiu $5,$0,1
  407f28:	02 00 00 00 60 30 10 00 	jal 40c180 <sig_die>
  407f30:	28 00 00 00 c4 86 02 1c 	lw $2,-31036($28)
  407f38:	34 00 00 00 00 00 13 10 	sw $19,0($16)
  407f40:	34 00 00 00 04 00 00 10 	sw $0,4($16)
  407f48:	34 00 00 00 08 00 00 10 	sw $0,8($16)
  407f50:	34 00 00 00 0c 00 00 10 	sw $0,12($16)
  407f58:	55 00 00 00 04 03 02 00 	sll $3,$2,0x4
  407f60:	42 00 00 00 00 04 12 03 	addu $4,$3,$18
  407f68:	43 00 00 00 01 00 02 02 	addiu $2,$2,1
  407f70:	34 00 00 00 c4 86 02 1c 	sw $2,-31036($28)
  407f78:	34 00 00 00 08 00 11 04 	sw $17,8($4)
  407f80:	22 00 00 00 00 00 03 11 	lbu $3,0($17)
  407f88:	20 00 00 00 01 00 02 11 	lb $2,1($17)
  407f90:	43 00 00 00 01 00 04 11 	addiu $4,$17,1
  407f98:	05 00 00 00 14 00 00 02 	beq $2,$0,407ff0 <ne_d+0x9c0>
  407fa0:	55 00 00 00 18 02 03 00 	sll $2,$3,0x18
  407fa8:	59 00 00 00 18 05 02 00 	sra $5,$2,0x18
  407fb0:	20 00 00 00 00 00 03 04 	lb $3,0($4)
  407fb8:	06 00 00 00 06 00 05 03 	bne $3,$5,407fd8 <ne_d+0x9a8>
  407fc0:	43 00 00 00 01 00 04 04 	addiu $4,$4,1
  407fc8:	20 00 00 00 00 00 02 04 	lb $2,0($4)
  407fd0:	06 00 00 00 12 00 03 02 	bne $2,$3,408020 <ne_d+0x9f0>
  407fd8:	43 00 00 00 01 00 04 04 	addiu $4,$4,1
  407fe0:	20 00 00 00 00 00 02 04 	lb $2,0($4)
  407fe8:	06 00 00 00 f0 ff 00 02 	bne $2,$0,407fb0 <ne_d+0x980>
  407ff0:	28 00 00 00 e4 86 02 1c 	lw $2,-31004($28)
  407ff8:	28 00 00 00 00 00 02 02 	lw $2,0($2)
  408000:	05 00 00 00 0a 00 00 02 	beq $2,$0,408030 <ne_d+0xa00>
  408008:	43 00 00 00 64 00 02 00 	addiu $2,$0,100
  408010:	34 00 00 00 50 86 02 1c 	sw $2,-31152($28)
  408018:	01 00 00 00 14 20 10 00 	j 408050 <ne_d+0xa20>
  408020:	42 00 00 00 00 02 04 00 	addu $2,$0,$4
  408028:	01 00 00 00 16 20 10 00 	j 408058 <ne_d+0xa28>
  408030:	43 00 00 00 64 00 04 00 	addiu $4,$0,100
  408038:	a2 00 00 00 00 10 05 00 	lui $5,4096
  408040:	43 00 00 00 40 05 05 05 	addiu $5,$5,1344
  408048:	02 00 00 00 9a 2c 10 00 	jal 40b268 <f__fatal>
  408050:	42 00 00 00 00 02 00 00 	addu $2,$0,$0
  408058:	34 00 00 00 00 00 02 15 	sw $2,0($21)
  408060:	5d 00 00 00 00 02 02 00 	sltu $2,$0,$2
  408068:	01 00 00 00 b2 20 10 00 	j 4082c8 <ne_d+0xc98>
  408070:	20 00 00 00 01 00 03 11 	lb $3,1($17)
  408078:	43 00 00 00 6c 00 02 00 	addiu $2,$0,108
  408080:	05 00 00 00 04 00 02 03 	beq $3,$2,408098 <ne_d+0xa68>
  408088:	43 00 00 00 4c 00 02 00 	addiu $2,$0,76
  408090:	06 00 00 00 06 00 02 03 	bne $3,$2,4080b0 <ne_d+0xa80>
  408098:	43 00 00 00 0d 00 12 00 	addiu $18,$0,13
  4080a0:	43 00 00 00 01 00 11 11 	addiu $17,$17,1
  4080a8:	01 00 00 00 3c 20 10 00 	j 4080f0 <ne_d+0xac0>
  4080b0:	43 00 00 00 72 00 02 00 	addiu $2,$0,114
  4080b8:	05 00 00 00 04 00 02 03 	beq $3,$2,4080d0 <ne_d+0xaa0>
  4080c0:	43 00 00 00 52 00 02 00 	addiu $2,$0,82
  4080c8:	06 00 00 00 06 00 02 03 	bne $3,$2,4080e8 <ne_d+0xab8>
  4080d0:	43 00 00 00 0e 00 12 00 	addiu $18,$0,14
  4080d8:	43 00 00 00 01 00 11 11 	addiu $17,$17,1
  4080e0:	01 00 00 00 3c 20 10 00 	j 4080f0 <ne_d+0xac0>
  4080e8:	43 00 00 00 0f 00 12 00 	addiu $18,$0,15
  4080f0:	43 00 00 00 01 00 05 11 	addiu $5,$17,1
  4080f8:	43 00 00 00 10 00 08 1d 	addiu $8,$29,16
  408100:	42 00 00 00 00 06 00 00 	addu $6,$0,$0
  408108:	42 00 00 00 00 07 00 00 	addu $7,$0,$0
  408110:	22 00 00 00 01 00 04 11 	lbu $4,1($17)
  408118:	43 00 00 00 20 00 09 00 	addiu $9,$0,32
  408120:	55 00 00 00 18 02 04 00 	sll $2,$4,0x18
  408128:	59 00 00 00 18 03 02 00 	sra $3,$2,0x18
  408130:	05 00 00 00 12 00 09 03 	beq $3,$9,408180 <ne_d+0xb50>
  408138:	43 00 00 00 d0 ff 02 04 	addiu $2,$4,-48
  408140:	5e 00 00 00 0a 00 02 02 	sltiu $2,$2,10
  408148:	05 00 00 00 12 00 00 02 	beq $2,$0,408198 <ne_d+0xb68>
  408150:	55 00 00 00 02 02 06 00 	sll $2,$6,0x2
  408158:	42 00 00 00 00 02 06 02 	addu $2,$2,$6
  408160:	55 00 00 00 01 02 02 00 	sll $2,$2,0x1
  408168:	42 00 00 00 00 02 03 02 	addu $2,$2,$3
  408170:	43 00 00 00 d0 ff 06 02 	addiu $6,$2,-48
  408178:	43 00 00 00 01 00 07 07 	addiu $7,$7,1
  408180:	43 00 00 00 01 00 05 05 	addiu $5,$5,1
  408188:	22 00 00 00 00 00 04 05 	lbu $4,0($5)
  408190:	01 00 00 00 48 20 10 00 	j 408120 <ne_d+0xaf0>
  408198:	06 00 00 00 06 00 00 07 	bne $7,$0,4081b8 <ne_d+0xb88>
  4081a0:	43 00 00 00 01 00 02 00 	addiu $2,$0,1
  4081a8:	34 00 00 00 00 00 02 08 	sw $2,0($8)
  4081b0:	01 00 00 00 70 20 10 00 	j 4081c0 <ne_d+0xb90>
  4081b8:	34 00 00 00 00 00 06 08 	sw $6,0($8)
  4081c0:	28 00 00 00 c4 86 02 1c 	lw $2,-31036($28)
  4081c8:	43 00 00 00 ff ff 11 05 	addiu $17,$5,-1
  4081d0:	28 00 00 00 10 00 13 1d 	lw $19,16($29)
  4081d8:	01 00 00 00 84 20 10 00 	j 408210 <ne_d+0xbe0>
  4081e0:	28 00 00 00 c4 86 02 1c 	lw $2,-31036($28)
  4081e8:	43 00 00 00 04 00 12 00 	addiu $18,$0,4
  4081f0:	01 00 00 00 82 20 10 00 	j 408208 <ne_d+0xbd8>
  4081f8:	28 00 00 00 c4 86 02 1c 	lw $2,-31036($28)
  408200:	43 00 00 00 14 00 12 00 	addiu $18,$0,20
  408208:	43 00 00 00 01 00 13 00 	addiu $19,$0,1
  408210:	a2 00 00 00 00 10 03 00 	lui $3,4096
  408218:	43 00 00 00 30 44 03 03 	addiu $3,$3,17456
  408220:	55 00 00 00 04 04 02 00 	sll $4,$2,0x4
  408228:	42 00 00 00 00 10 03 04 	addu $16,$4,$3
  408230:	5c 00 00 00 2c 01 02 02 	slti $2,$2,300
  408238:	06 00 00 00 0e 00 00 02 	bne $2,$0,408278 <ne_d+0xc48>
  408240:	28 00 00 00 48 81 04 1c 	lw $4,-32440($28)
  408248:	a2 00 00 00 00 10 05 00 	lui $5,4096
  408250:	43 00 00 00 4c 05 05 05 	addiu $5,$5,1356
  408258:	02 00 00 00 00 3c 10 00 	jal 40f000 <fprintf>
  408260:	28 00 00 00 ec 86 04 1c 	lw $4,-30996($28)
  408268:	43 00 00 00 01 00 05 00 	addiu $5,$0,1
  408270:	02 00 00 00 60 30 10 00 	jal 40c180 <sig_die>
  408278:	28 00 00 00 c4 86 02 1c 	lw $2,-31036($28)
  408280:	34 00 00 00 00 00 12 10 	sw $18,0($16)
  408288:	34 00 00 00 04 00 13 10 	sw $19,4($16)
  408290:	34 00 00 00 08 00 00 10 	sw $0,8($16)
  408298:	34 00 00 00 0c 00 00 10 	sw $0,12($16)
  4082a0:	43 00 00 00 01 00 02 02 	addiu $2,$2,1
  4082a8:	34 00 00 00 c4 86 02 1c 	sw $2,-31036($28)
  4082b0:	43 00 00 00 01 00 11 11 	addiu $17,$17,1
  4082b8:	34 00 00 00 00 00 11 15 	sw $17,0($21)
  4082c0:	43 00 00 00 01 00 02 00 	addiu $2,$0,1
  4082c8:	28 00 00 00 30 00 1f 1d 	lw $31,48($29)
  4082d0:	28 00 00 00 2c 00 15 1d 	lw $21,44($29)
  4082d8:	28 00 00 00 28 00 14 1d 	lw $20,40($29)
  4082e0:	28 00 00 00 24 00 13 1d 	lw $19,36($29)
  4082e8:	28 00 00 00 20 00 12 1d 	lw $18,32($29)
  4082f0:	28 00 00 00 1c 00 11 1d 	lw $17,28($29)
  4082f8:	28 00 00 00 18 00 10 1d 	lw $16,24($29)
  408300:	43 00 00 00 38 00 1d 1d 	addiu $29,$29,56
  408308:	03 00 00 00 00 00 00 1f 	jr $31

00408310 <e_d>:
  408310:	43 00 00 00 b8 ff 1d 1d 	addiu $29,$29,-72
  408318:	34 00 00 00 40 00 1e 1d 	sw $30,64($29)
  408320:	42 00 00 00 00 1e 05 00 	addu $30,$0,$5
  408328:	34 00 00 00 38 00 16 1d 	sw $22,56($29)
  408330:	42 00 00 00 00 16 00 00 	addu $22,$0,$0
  408338:	34 00 00 00 30 00 14 1d 	sw $20,48($29)
  408340:	42 00 00 00 00 14 00 00 	addu $20,$0,$0
  408348:	34 00 00 00 3c 00 17 1d 	sw $23,60($29)
  408350:	42 00 00 00 00 17 04 00 	addu $23,$0,$4
  408358:	42 00 00 00 00 05 17 00 	addu $5,$0,$23
  408360:	43 00 00 00 10 00 08 1d 	addiu $8,$29,16
  408368:	42 00 00 00 00 06 00 00 	addu $6,$0,$0
  408370:	42 00 00 00 00 07 00 00 	addu $7,$0,$0
  408378:	34 00 00 00 44 00 1f 1d 	sw $31,68($29)
  408380:	34 00 00 00 34 00 15 1d 	sw $21,52($29)
  408388:	34 00 00 00 2c 00 13 1d 	sw $19,44($29)
  408390:	34 00 00 00 28 00 12 1d 	sw $18,40($29)
  408398:	34 00 00 00 24 00 11 1d 	sw $17,36($29)
  4083a0:	34 00 00 00 20 00 10 1d 	sw $16,32($29)
  4083a8:	22 00 00 00 00 00 03 17 	lbu $3,0($23)
  4083b0:	43 00 00 00 20 00 09 00 	addiu $9,$0,32
  4083b8:	55 00 00 00 18 02 03 00 	sll $2,$3,0x18
  4083c0:	59 00 00 00 18 04 02 00 	sra $4,$2,0x18
  4083c8:	05 00 00 00 12 00 09 04 	beq $4,$9,408418 <e_d+0x108>
  4083d0:	43 00 00 00 d0 ff 02 03 	addiu $2,$3,-48
  4083d8:	5e 00 00 00 0a 00 02 02 	sltiu $2,$2,10
  4083e0:	05 00 00 00 12 00 00 02 	beq $2,$0,408430 <e_d+0x120>
  4083e8:	55 00 00 00 02 02 06 00 	sll $2,$6,0x2
  4083f0:	42 00 00 00 00 02 06 02 	addu $2,$2,$6
  4083f8:	55 00 00 00 01 02 02 00 	sll $2,$2,0x1
  408400:	42 00 00 00 00 02 04 02 	addu $2,$2,$4
  408408:	43 00 00 00 d0 ff 06 02 	addiu $6,$2,-48
  408410:	43 00 00 00 01 00 07 07 	addiu $7,$7,1
  408418:	43 00 00 00 01 00 05 05 	addiu $5,$5,1
  408420:	22 00 00 00 00 00 03 05 	lbu $3,0($5)
  408428:	01 00 00 00 ee 20 10 00 	j 4083b8 <e_d+0xa8>
  408430:	06 00 00 00 06 00 00 07 	bne $7,$0,408450 <e_d+0x140>
  408438:	43 00 00 00 01 00 02 00 	addiu $2,$0,1
  408440:	34 00 00 00 00 00 02 08 	sw $2,0($8)
  408448:	01 00 00 00 16 21 10 00 	j 408458 <e_d+0x148>
  408450:	34 00 00 00 00 00 06 08 	sw $6,0($8)
  408458:	42 00 00 00 00 10 05 00 	addu $16,$0,$5
  408460:	28 00 00 00 c4 86 02 1c 	lw $2,-31036($28)
  408468:	43 00 00 00 06 00 13 00 	addiu $19,$0,6
  408470:	28 00 00 00 10 00 12 1d 	lw $18,16($29)
  408478:	a2 00 00 00 00 10 03 00 	lui $3,4096
  408480:	43 00 00 00 30 44 03 03 	addiu $3,$3,17456
  408488:	55 00 00 00 04 04 02 00 	sll $4,$2,0x4
  408490:	42 00 00 00 00 11 03 04 	addu $17,$4,$3
  408498:	5c 00 00 00 2c 01 02 02 	slti $2,$2,300
  4084a0:	06 00 00 00 0e 00 00 02 	bne $2,$0,4084e0 <e_d+0x1d0>
  4084a8:	28 00 00 00 48 81 04 1c 	lw $4,-32440($28)
  4084b0:	a2 00 00 00 00 10 05 00 	lui $5,4096
  4084b8:	43 00 00 00 4c 05 05 05 	addiu $5,$5,1356
  4084c0:	02 00 00 00 00 3c 10 00 	jal 40f000 <fprintf>
  4084c8:	28 00 00 00 ec 86 04 1c 	lw $4,-30996($28)
  4084d0:	43 00 00 00 01 00 05 00 	addiu $5,$0,1
  4084d8:	02 00 00 00 60 30 10 00 	jal 40c180 <sig_die>
  4084e0:	28 00 00 00 c4 86 02 1c 	lw $2,-31036($28)
  4084e8:	34 00 00 00 00 00 13 11 	sw $19,0($17)
  4084f0:	34 00 00 00 04 00 12 11 	sw $18,4($17)
  4084f8:	34 00 00 00 08 00 00 11 	sw $0,8($17)
  408500:	34 00 00 00 0c 00 00 11 	sw $0,12($17)
  408508:	43 00 00 00 01 00 02 02 	addiu $2,$2,1
  408510:	34 00 00 00 c4 86 02 1c 	sw $2,-31036($28)
  408518:	22 00 00 00 00 00 02 10 	lbu $2,0($16)
  408520:	43 00 00 00 01 00 10 10 	addiu $16,$16,1
  408528:	43 00 00 00 bf ff 02 02 	addiu $2,$2,-65
  408530:	55 00 00 00 18 02 02 00 	sll $2,$2,0x18
  408538:	59 00 00 00 18 03 02 00 	sra $3,$2,0x18
  408540:	5e 00 00 00 3a 00 02 03 	sltiu $2,$3,58
  408548:	05 00 00 00 1a 04 00 02 	beq $2,$0,4095b8 <e_d+0x12a8>
  408550:	55 00 00 00 02 02 03 00 	sll $2,$3,0x2
  408558:	a2 00 00 00 00 10 01 00 	lui $1,4096
  408560:	42 00 00 00 00 01 02 01 	addu $1,$1,$2
  408568:	28 00 00 00 30 08 02 01 	lw $2,2096($1)
  408570:	03 00 00 00 00 00 00 02 	jr $2
  408578:	43 00 00 00 01 00 14 00 	addiu $20,$0,1
  408580:	43 00 00 00 01 00 16 00 	addiu $22,$0,1
  408588:	42 00 00 00 00 05 10 00 	addu $5,$0,$16
  408590:	43 00 00 00 14 00 09 1d 	addiu $9,$29,20
  408598:	42 00 00 00 00 06 00 00 	addu $6,$0,$0
  4085a0:	42 00 00 00 00 07 00 00 	addu $7,$0,$0
  4085a8:	22 00 00 00 00 00 03 05 	lbu $3,0($5)
  4085b0:	43 00 00 00 20 00 08 00 	addiu $8,$0,32
  4085b8:	55 00 00 00 18 02 03 00 	sll $2,$3,0x18
  4085c0:	59 00 00 00 18 04 02 00 	sra $4,$2,0x18
  4085c8:	05 00 00 00 12 00 08 04 	beq $4,$8,408618 <e_d+0x308>
  4085d0:	43 00 00 00 d0 ff 02 03 	addiu $2,$3,-48
  4085d8:	5e 00 00 00 0a 00 02 02 	sltiu $2,$2,10
  4085e0:	05 00 00 00 12 00 00 02 	beq $2,$0,408630 <e_d+0x320>
  4085e8:	55 00 00 00 02 02 06 00 	sll $2,$6,0x2
  4085f0:	42 00 00 00 00 02 06 02 	addu $2,$2,$6
  4085f8:	55 00 00 00 01 02 02 00 	sll $2,$2,0x1
  408600:	42 00 00 00 00 02 04 02 	addu $2,$2,$4
  408608:	43 00 00 00 d0 ff 06 02 	addiu $6,$2,-48
  408610:	43 00 00 00 01 00 07 07 	addiu $7,$7,1
  408618:	43 00 00 00 01 00 05 05 	addiu $5,$5,1
  408620:	22 00 00 00 00 00 03 05 	lbu $3,0($5)
  408628:	01 00 00 00 6e 21 10 00 	j 4085b8 <e_d+0x2a8>
  408630:	06 00 00 00 06 00 00 07 	bne $7,$0,408650 <e_d+0x340>
  408638:	43 00 00 00 01 00 02 00 	addiu $2,$0,1
  408640:	34 00 00 00 00 00 02 09 	sw $2,0($9)
  408648:	01 00 00 00 96 21 10 00 	j 408658 <e_d+0x348>
  408650:	34 00 00 00 14 00 06 1d 	sw $6,20($29)
  408658:	28 00 00 00 14 00 02 1d 	lw $2,20($29)
  408660:	42 00 00 00 00 10 05 00 	addu $16,$0,$5
  408668:	05 00 00 00 d2 03 00 02 	beq $2,$0,4095b8 <e_d+0x12a8>
  408670:	20 00 00 00 00 00 03 10 	lb $3,0($16)
  408678:	43 00 00 00 2e 00 02 00 	addiu $2,$0,46
  408680:	06 00 00 00 3a 00 02 03 	bne $3,$2,408770 <e_d+0x460>
  408688:	43 00 00 00 01 00 10 10 	addiu $16,$16,1
  408690:	42 00 00 00 00 04 10 00 	addu $4,$0,$16
  408698:	43 00 00 00 18 00 09 1d 	addiu $9,$29,24
  4086a0:	42 00 00 00 00 06 00 00 	addu $6,$0,$0
  4086a8:	42 00 00 00 00 07 00 00 	addu $7,$0,$0
  4086b0:	22 00 00 00 00 00 03 04 	lbu $3,0($4)
  4086b8:	43 00 00 00 20 00 08 00 	addiu $8,$0,32
  4086c0:	55 00 00 00 18 02 03 00 	sll $2,$3,0x18
  4086c8:	59 00 00 00 18 05 02 00 	sra $5,$2,0x18
  4086d0:	05 00 00 00 12 00 08 05 	beq $5,$8,408720 <e_d+0x410>
  4086d8:	43 00 00 00 d0 ff 02 03 	addiu $2,$3,-48
  4086e0:	5e 00 00 00 0a 00 02 02 	sltiu $2,$2,10
  4086e8:	05 00 00 00 12 00 00 02 	beq $2,$0,408738 <e_d+0x428>
  4086f0:	55 00 00 00 02 02 06 00 	sll $2,$6,0x2
  4086f8:	42 00 00 00 00 02 06 02 	addu $2,$2,$6
  408700:	55 00 00 00 01 02 02 00 	sll $2,$2,0x1
  408708:	42 00 00 00 00 02 05 02 	addu $2,$2,$5
  408710:	43 00 00 00 d0 ff 06 02 	addiu $6,$2,-48
  408718:	43 00 00 00 01 00 07 07 	addiu $7,$7,1
  408720:	43 00 00 00 01 00 04 04 	addiu $4,$4,1
  408728:	22 00 00 00 00 00 03 04 	lbu $3,0($4)
  408730:	01 00 00 00 b0 21 10 00 	j 4086c0 <e_d+0x3b0>
  408738:	06 00 00 00 06 00 00 07 	bne $7,$0,408758 <e_d+0x448>
  408740:	43 00 00 00 01 00 02 00 	addiu $2,$0,1
  408748:	34 00 00 00 00 00 02 09 	sw $2,0($9)
  408750:	01 00 00 00 d8 21 10 00 	j 408760 <e_d+0x450>
  408758:	34 00 00 00 18 00 06 1d 	sw $6,24($29)
  408760:	42 00 00 00 00 10 04 00 	addu $16,$0,$4
  408768:	01 00 00 00 de 21 10 00 	j 408778 <e_d+0x468>
  408770:	34 00 00 00 18 00 00 1d 	sw $0,24($29)
  408778:	20 00 00 00 00 00 03 10 	lb $3,0($16)
  408780:	43 00 00 00 45 00 02 00 	addiu $2,$0,69
  408788:	05 00 00 00 36 00 02 03 	beq $3,$2,408868 <e_d+0x558>
  408790:	43 00 00 00 65 00 02 00 	addiu $2,$0,101
  408798:	05 00 00 00 32 00 02 03 	beq $3,$2,408868 <e_d+0x558>
  4087a0:	43 00 00 00 1b 00 12 00 	addiu $18,$0,27
  4087a8:	43 00 00 00 01 00 02 00 	addiu $2,$0,1
  4087b0:	06 00 00 00 02 00 02 14 	bne $20,$2,4087c0 <e_d+0x4b0>
  4087b8:	43 00 00 00 18 00 12 00 	addiu $18,$0,24
  4087c0:	28 00 00 00 c4 86 02 1c 	lw $2,-31036($28)
  4087c8:	28 00 00 00 14 00 13 1d 	lw $19,20($29)
  4087d0:	28 00 00 00 18 00 14 1d 	lw $20,24($29)
  4087d8:	a2 00 00 00 00 10 03 00 	lui $3,4096
  4087e0:	43 00 00 00 30 44 03 03 	addiu $3,$3,17456
  4087e8:	55 00 00 00 04 04 02 00 	sll $4,$2,0x4
  4087f0:	42 00 00 00 00 11 03 04 	addu $17,$4,$3
  4087f8:	5c 00 00 00 2c 01 02 02 	slti $2,$2,300
  408800:	06 00 00 00 0e 00 00 02 	bne $2,$0,408840 <e_d+0x530>
  408808:	28 00 00 00 48 81 04 1c 	lw $4,-32440($28)
  408810:	a2 00 00 00 00 10 05 00 	lui $5,4096
  408818:	43 00 00 00 4c 05 05 05 	addiu $5,$5,1356
  408820:	02 00 00 00 00 3c 10 00 	jal 40f000 <fprintf>
  408828:	28 00 00 00 ec 86 04 1c 	lw $4,-30996($28)
  408830:	43 00 00 00 01 00 05 00 	addiu $5,$0,1
  408838:	02 00 00 00 60 30 10 00 	jal 40c180 <sig_die>
  408840:	28 00 00 00 c4 86 02 1c 	lw $2,-31036($28)
  408848:	34 00 00 00 00 00 12 11 	sw $18,0($17)
  408850:	34 00 00 00 04 00 13 11 	sw $19,4($17)
  408858:	34 00 00 00 08 00 14 11 	sw $20,8($17)
  408860:	01 00 00 00 68 25 10 00 	j 4095a0 <e_d+0x1290>
  408868:	43 00 00 00 01 00 10 10 	addiu $16,$16,1
  408870:	42 00 00 00 00 04 10 00 	addu $4,$0,$16
  408878:	43 00 00 00 1c 00 09 1d 	addiu $9,$29,28
  408880:	42 00 00 00 00 06 00 00 	addu $6,$0,$0
  408888:	42 00 00 00 00 07 00 00 	addu $7,$0,$0
  408890:	22 00 00 00 00 00 03 04 	lbu $3,0($4)
  408898:	43 00 00 00 20 00 08 00 	addiu $8,$0,32
  4088a0:	55 00 00 00 18 02 03 00 	sll $2,$3,0x18
  4088a8:	59 00 00 00 18 05 02 00 	sra $5,$2,0x18
  4088b0:	05 00 00 00 12 00 08 05 	beq $5,$8,408900 <e_d+0x5f0>
  4088b8:	43 00 00 00 d0 ff 02 03 	addiu $2,$3,-48
  4088c0:	5e 00 00 00 0a 00 02 02 	sltiu $2,$2,10
  4088c8:	05 00 00 00 12 00 00 02 	beq $2,$0,408918 <e_d+0x608>
  4088d0:	55 00 00 00 02 02 06 00 	sll $2,$6,0x2
  4088d8:	42 00 00 00 00 02 06 02 	addu $2,$2,$6
  4088e0:	55 00 00 00 01 02 02 00 	sll $2,$2,0x1
  4088e8:	42 00 00 00 00 02 05 02 	addu $2,$2,$5
  4088f0:	43 00 00 00 d0 ff 06 02 	addiu $6,$2,-48
  4088f8:	43 00 00 00 01 00 07 07 	addiu $7,$7,1
  408900:	43 00 00 00 01 00 04 04 	addiu $4,$4,1
  408908:	22 00 00 00 00 00 03 04 	lbu $3,0($4)
  408910:	01 00 00 00 28 22 10 00 	j 4088a0 <e_d+0x590>
  408918:	06 00 00 00 06 00 00 07 	bne $7,$0,408938 <e_d+0x628>
  408920:	43 00 00 00 01 00 02 00 	addiu $2,$0,1
  408928:	34 00 00 00 00 00 02 09 	sw $2,0($9)
  408930:	01 00 00 00 50 22 10 00 	j 408940 <e_d+0x630>
  408938:	34 00 00 00 1c 00 06 1d 	sw $6,28($29)
  408940:	42 00 00 00 00 10 04 00 	addu $16,$0,$4
  408948:	43 00 00 00 1c 00 12 00 	addiu $18,$0,28
  408950:	43 00 00 00 01 00 02 00 	addiu $2,$0,1
  408958:	06 00 00 00 02 00 02 14 	bne $20,$2,408968 <e_d+0x658>
  408960:	43 00 00 00 19 00 12 00 	addiu $18,$0,25
  408968:	28 00 00 00 14 00 15 1d 	lw $21,20($29)
  408970:	28 00 00 00 c4 86 02 1c 	lw $2,-31036($28)
  408978:	28 00 00 00 18 00 13 1d 	lw $19,24($29)
  408980:	28 00 00 00 1c 00 14 1d 	lw $20,28($29)
  408988:	a2 00 00 00 00 10 03 00 	lui $3,4096
  408990:	43 00 00 00 30 44 03 03 	addiu $3,$3,17456
  408998:	55 00 00 00 04 04 02 00 	sll $4,$2,0x4
  4089a0:	42 00 00 00 00 11 03 04 	addu $17,$4,$3
  4089a8:	5c 00 00 00 2c 01 02 02 	slti $2,$2,300
  4089b0:	06 00 00 00 0e 00 00 02 	bne $2,$0,4089f0 <e_d+0x6e0>
  4089b8:	28 00 00 00 48 81 04 1c 	lw $4,-32440($28)
  4089c0:	a2 00 00 00 00 10 05 00 	lui $5,4096
  4089c8:	43 00 00 00 4c 05 05 05 	addiu $5,$5,1356
  4089d0:	02 00 00 00 00 3c 10 00 	jal 40f000 <fprintf>
  4089d8:	28 00 00 00 ec 86 04 1c 	lw $4,-30996($28)
  4089e0:	43 00 00 00 01 00 05 00 	addiu $5,$0,1
  4089e8:	02 00 00 00 60 30 10 00 	jal 40c180 <sig_die>
  4089f0:	28 00 00 00 c4 86 02 1c 	lw $2,-31036($28)
  4089f8:	34 00 00 00 00 00 12 11 	sw $18,0($17)
  408a00:	34 00 00 00 04 00 15 11 	sw $21,4($17)
  408a08:	34 00 00 00 08 00 13 11 	sw $19,8($17)
  408a10:	34 00 00 00 0c 00 14 11 	sw $20,12($17)
  408a18:	01 00 00 00 6a 25 10 00 	j 4095a8 <e_d+0x1298>
  408a20:	43 00 00 00 20 00 13 00 	addiu $19,$0,32
  408a28:	43 00 00 00 22 00 14 00 	addiu $20,$0,34
  408a30:	01 00 00 00 a0 24 10 00 	j 409280 <e_d+0xf70>
  408a38:	43 00 00 00 23 00 13 00 	addiu $19,$0,35
  408a40:	43 00 00 00 24 00 14 00 	addiu $20,$0,36
  408a48:	01 00 00 00 a0 24 10 00 	j 409280 <e_d+0xf70>
  408a50:	43 00 00 00 01 00 16 00 	addiu $22,$0,1
  408a58:	42 00 00 00 00 05 10 00 	addu $5,$0,$16
  408a60:	43 00 00 00 14 00 09 1d 	addiu $9,$29,20
  408a68:	42 00 00 00 00 06 00 00 	addu $6,$0,$0
  408a70:	42 00 00 00 00 07 00 00 	addu $7,$0,$0
  408a78:	22 00 00 00 00 00 03 05 	lbu $3,0($5)
  408a80:	43 00 00 00 20 00 08 00 	addiu $8,$0,32
  408a88:	55 00 00 00 18 02 03 00 	sll $2,$3,0x18
  408a90:	59 00 00 00 18 04 02 00 	sra $4,$2,0x18
  408a98:	05 00 00 00 12 00 08 04 	beq $4,$8,408ae8 <e_d+0x7d8>
  408aa0:	43 00 00 00 d0 ff 02 03 	addiu $2,$3,-48
  408aa8:	5e 00 00 00 0a 00 02 02 	sltiu $2,$2,10
  408ab0:	05 00 00 00 12 00 00 02 	beq $2,$0,408b00 <e_d+0x7f0>
  408ab8:	55 00 00 00 02 02 06 00 	sll $2,$6,0x2
  408ac0:	42 00 00 00 00 02 06 02 	addu $2,$2,$6
  408ac8:	55 00 00 00 01 02 02 00 	sll $2,$2,0x1
  408ad0:	42 00 00 00 00 02 04 02 	addu $2,$2,$4
  408ad8:	43 00 00 00 d0 ff 06 02 	addiu $6,$2,-48
  408ae0:	43 00 00 00 01 00 07 07 	addiu $7,$7,1
  408ae8:	43 00 00 00 01 00 05 05 	addiu $5,$5,1
  408af0:	22 00 00 00 00 00 03 05 	lbu $3,0($5)
  408af8:	01 00 00 00 a2 22 10 00 	j 408a88 <e_d+0x778>
  408b00:	06 00 00 00 06 00 00 07 	bne $7,$0,408b20 <e_d+0x810>
  408b08:	43 00 00 00 01 00 02 00 	addiu $2,$0,1
  408b10:	34 00 00 00 00 00 02 09 	sw $2,0($9)
  408b18:	01 00 00 00 ca 22 10 00 	j 408b28 <e_d+0x818>
  408b20:	34 00 00 00 14 00 06 1d 	sw $6,20($29)
  408b28:	28 00 00 00 14 00 12 1d 	lw $18,20($29)
  408b30:	42 00 00 00 00 10 05 00 	addu $16,$0,$5
  408b38:	05 00 00 00 9e 02 00 12 	beq $18,$0,4095b8 <e_d+0x12a8>
  408b40:	28 00 00 00 c4 86 02 1c 	lw $2,-31036($28)
  408b48:	43 00 00 00 1d 00 13 00 	addiu $19,$0,29
  408b50:	a2 00 00 00 00 10 03 00 	lui $3,4096
  408b58:	43 00 00 00 30 44 03 03 	addiu $3,$3,17456
  408b60:	55 00 00 00 04 04 02 00 	sll $4,$2,0x4
  408b68:	42 00 00 00 00 11 03 04 	addu $17,$4,$3
  408b70:	5c 00 00 00 2c 01 02 02 	slti $2,$2,300
  408b78:	06 00 00 00 0e 00 00 02 	bne $2,$0,408bb8 <e_d+0x8a8>
  408b80:	28 00 00 00 48 81 04 1c 	lw $4,-32440($28)
  408b88:	a2 00 00 00 00 10 05 00 	lui $5,4096
  408b90:	43 00 00 00 4c 05 05 05 	addiu $5,$5,1356
  408b98:	02 00 00 00 00 3c 10 00 	jal 40f000 <fprintf>
  408ba0:	28 00 00 00 ec 86 04 1c 	lw $4,-30996($28)
  408ba8:	43 00 00 00 01 00 05 00 	addiu $5,$0,1
  408bb0:	02 00 00 00 60 30 10 00 	jal 40c180 <sig_die>
  408bb8:	28 00 00 00 c4 86 02 1c 	lw $2,-31036($28)
  408bc0:	34 00 00 00 00 00 13 11 	sw $19,0($17)
  408bc8:	34 00 00 00 04 00 12 11 	sw $18,4($17)
  408bd0:	34 00 00 00 08 00 00 11 	sw $0,8($17)
  408bd8:	01 00 00 00 68 25 10 00 	j 4095a0 <e_d+0x1290>
  408be0:	20 00 00 00 00 00 03 10 	lb $3,0($16)
  408be8:	43 00 00 00 01 00 16 00 	addiu $22,$0,1
  408bf0:	43 00 00 00 20 00 02 00 	addiu $2,$0,32
  408bf8:	06 00 00 00 08 00 02 03 	bne $3,$2,408c20 <e_d+0x910>
  408c00:	43 00 00 00 20 00 03 00 	addiu $3,$0,32
  408c08:	43 00 00 00 01 00 10 10 	addiu $16,$16,1
  408c10:	20 00 00 00 00 00 02 10 	lb $2,0($16)
  408c18:	05 00 00 00 fa ff 03 02 	beq $2,$3,408c08 <e_d+0x8f8>
  408c20:	22 00 00 00 00 00 03 10 	lbu $3,0($16)
  408c28:	43 00 00 00 d0 ff 02 03 	addiu $2,$3,-48
  408c30:	5e 00 00 00 0a 00 02 02 	sltiu $2,$2,10
  408c38:	05 00 00 00 60 00 00 02 	beq $2,$0,408dc0 <e_d+0xab0>
  408c40:	42 00 00 00 00 05 10 00 	addu $5,$0,$16
  408c48:	43 00 00 00 14 00 09 1d 	addiu $9,$29,20
  408c50:	42 00 00 00 00 06 00 00 	addu $6,$0,$0
  408c58:	42 00 00 00 00 07 00 00 	addu $7,$0,$0
  408c60:	43 00 00 00 20 00 08 00 	addiu $8,$0,32
  408c68:	55 00 00 00 18 02 03 00 	sll $2,$3,0x18
  408c70:	59 00 00 00 18 04 02 00 	sra $4,$2,0x18
  408c78:	05 00 00 00 12 00 08 04 	beq $4,$8,408cc8 <e_d+0x9b8>
  408c80:	43 00 00 00 d0 ff 02 03 	addiu $2,$3,-48
  408c88:	5e 00 00 00 0a 00 02 02 	sltiu $2,$2,10
  408c90:	05 00 00 00 12 00 00 02 	beq $2,$0,408ce0 <e_d+0x9d0>
  408c98:	55 00 00 00 02 02 06 00 	sll $2,$6,0x2
  408ca0:	42 00 00 00 00 02 06 02 	addu $2,$2,$6
  408ca8:	55 00 00 00 01 02 02 00 	sll $2,$2,0x1
  408cb0:	42 00 00 00 00 02 04 02 	addu $2,$2,$4
  408cb8:	43 00 00 00 d0 ff 06 02 	addiu $6,$2,-48
  408cc0:	43 00 00 00 01 00 07 07 	addiu $7,$7,1
  408cc8:	43 00 00 00 01 00 05 05 	addiu $5,$5,1
  408cd0:	22 00 00 00 00 00 03 05 	lbu $3,0($5)
  408cd8:	01 00 00 00 1a 23 10 00 	j 408c68 <e_d+0x958>
  408ce0:	06 00 00 00 06 00 00 07 	bne $7,$0,408d00 <e_d+0x9f0>
  408ce8:	43 00 00 00 01 00 02 00 	addiu $2,$0,1
  408cf0:	34 00 00 00 00 00 02 09 	sw $2,0($9)
  408cf8:	01 00 00 00 42 23 10 00 	j 408d08 <e_d+0x9f8>
  408d00:	34 00 00 00 14 00 06 1d 	sw $6,20($29)
  408d08:	28 00 00 00 14 00 12 1d 	lw $18,20($29)
  408d10:	42 00 00 00 00 10 05 00 	addu $16,$0,$5
  408d18:	05 00 00 00 26 02 00 12 	beq $18,$0,4095b8 <e_d+0x12a8>
  408d20:	28 00 00 00 c4 86 02 1c 	lw $2,-31036($28)
  408d28:	43 00 00 00 1f 00 13 00 	addiu $19,$0,31
  408d30:	a2 00 00 00 00 10 03 00 	lui $3,4096
  408d38:	43 00 00 00 30 44 03 03 	addiu $3,$3,17456
  408d40:	55 00 00 00 04 04 02 00 	sll $4,$2,0x4
  408d48:	42 00 00 00 00 11 03 04 	addu $17,$4,$3
  408d50:	5c 00 00 00 2c 01 02 02 	slti $2,$2,300
  408d58:	06 00 00 00 0e 00 00 02 	bne $2,$0,408d98 <e_d+0xa88>
  408d60:	28 00 00 00 48 81 04 1c 	lw $4,-32440($28)
  408d68:	a2 00 00 00 00 10 05 00 	lui $5,4096
  408d70:	43 00 00 00 4c 05 05 05 	addiu $5,$5,1356
  408d78:	02 00 00 00 00 3c 10 00 	jal 40f000 <fprintf>
  408d80:	28 00 00 00 ec 86 04 1c 	lw $4,-30996($28)
  408d88:	43 00 00 00 01 00 05 00 	addiu $5,$0,1
  408d90:	02 00 00 00 60 30 10 00 	jal 40c180 <sig_die>
  408d98:	28 00 00 00 c4 86 02 1c 	lw $2,-31036($28)
  408da0:	34 00 00 00 00 00 13 11 	sw $19,0($17)
  408da8:	34 00 00 00 04 00 12 11 	sw $18,4($17)
  408db0:	34 00 00 00 08 00 00 11 	sw $0,8($17)
  408db8:	01 00 00 00 68 25 10 00 	j 4095a0 <e_d+0x1290>
  408dc0:	28 00 00 00 c4 86 02 1c 	lw $2,-31036($28)
  408dc8:	43 00 00 00 1e 00 12 00 	addiu $18,$0,30
  408dd0:	a2 00 00 00 00 10 03 00 	lui $3,4096
  408dd8:	43 00 00 00 30 44 03 03 	addiu $3,$3,17456
  408de0:	55 00 00 00 04 04 02 00 	sll $4,$2,0x4
  408de8:	42 00 00 00 00 11 03 04 	addu $17,$4,$3
  408df0:	5c 00 00 00 2c 01 02 02 	slti $2,$2,300
  408df8:	06 00 00 00 0e 00 00 02 	bne $2,$0,408e38 <e_d+0xb28>
  408e00:	28 00 00 00 48 81 04 1c 	lw $4,-32440($28)
  408e08:	a2 00 00 00 00 10 05 00 	lui $5,4096
  408e10:	43 00 00 00 4c 05 05 05 	addiu $5,$5,1356
  408e18:	02 00 00 00 00 3c 10 00 	jal 40f000 <fprintf>
  408e20:	28 00 00 00 ec 86 04 1c 	lw $4,-30996($28)
  408e28:	43 00 00 00 01 00 05 00 	addiu $5,$0,1
  408e30:	02 00 00 00 60 30 10 00 	jal 40c180 <sig_die>
  408e38:	28 00 00 00 c4 86 02 1c 	lw $2,-31036($28)
  408e40:	34 00 00 00 00 00 12 11 	sw $18,0($17)
  408e48:	34 00 00 00 04 00 00 11 	sw $0,4($17)
  408e50:	34 00 00 00 08 00 00 11 	sw $0,8($17)
  408e58:	01 00 00 00 68 25 10 00 	j 4095a0 <e_d+0x1290>
  408e60:	43 00 00 00 01 00 16 00 	addiu $22,$0,1
  408e68:	42 00 00 00 00 05 10 00 	addu $5,$0,$16
  408e70:	43 00 00 00 14 00 09 1d 	addiu $9,$29,20
  408e78:	42 00 00 00 00 06 00 00 	addu $6,$0,$0
  408e80:	42 00 00 00 00 07 00 00 	addu $7,$0,$0
  408e88:	22 00 00 00 00 00 03 05 	lbu $3,0($5)
  408e90:	43 00 00 00 20 00 08 00 	addiu $8,$0,32
  408e98:	55 00 00 00 18 02 03 00 	sll $2,$3,0x18
  408ea0:	59 00 00 00 18 04 02 00 	sra $4,$2,0x18
  408ea8:	05 00 00 00 12 00 08 04 	beq $4,$8,408ef8 <e_d+0xbe8>
  408eb0:	43 00 00 00 d0 ff 02 03 	addiu $2,$3,-48
  408eb8:	5e 00 00 00 0a 00 02 02 	sltiu $2,$2,10
  408ec0:	05 00 00 00 12 00 00 02 	beq $2,$0,408f10 <e_d+0xc00>
  408ec8:	55 00 00 00 02 02 06 00 	sll $2,$6,0x2
  408ed0:	42 00 00 00 00 02 06 02 	addu $2,$2,$6
  408ed8:	55 00 00 00 01 02 02 00 	sll $2,$2,0x1
  408ee0:	42 00 00 00 00 02 04 02 	addu $2,$2,$4
  408ee8:	43 00 00 00 d0 ff 06 02 	addiu $6,$2,-48
  408ef0:	43 00 00 00 01 00 07 07 	addiu $7,$7,1
  408ef8:	43 00 00 00 01 00 05 05 	addiu $5,$5,1
  408f00:	22 00 00 00 00 00 03 05 	lbu $3,0($5)
  408f08:	01 00 00 00 a6 23 10 00 	j 408e98 <e_d+0xb88>
  408f10:	06 00 00 00 06 00 00 07 	bne $7,$0,408f30 <e_d+0xc20>
  408f18:	43 00 00 00 01 00 02 00 	addiu $2,$0,1
  408f20:	34 00 00 00 00 00 02 09 	sw $2,0($9)
  408f28:	01 00 00 00 ce 23 10 00 	j 408f38 <e_d+0xc28>
  408f30:	34 00 00 00 14 00 06 1d 	sw $6,20($29)
  408f38:	28 00 00 00 14 00 02 1d 	lw $2,20($29)
  408f40:	42 00 00 00 00 10 05 00 	addu $16,$0,$5
  408f48:	05 00 00 00 9a 01 00 02 	beq $2,$0,4095b8 <e_d+0x12a8>
  408f50:	20 00 00 00 00 00 03 10 	lb $3,0($16)
  408f58:	43 00 00 00 2e 00 02 00 	addiu $2,$0,46
  408f60:	06 00 00 00 3a 00 02 03 	bne $3,$2,409050 <e_d+0xd40>
  408f68:	43 00 00 00 01 00 10 10 	addiu $16,$16,1
  408f70:	42 00 00 00 00 04 10 00 	addu $4,$0,$16
  408f78:	43 00 00 00 18 00 09 1d 	addiu $9,$29,24
  408f80:	42 00 00 00 00 06 00 00 	addu $6,$0,$0
  408f88:	42 00 00 00 00 07 00 00 	addu $7,$0,$0
  408f90:	22 00 00 00 00 00 03 04 	lbu $3,0($4)
  408f98:	43 00 00 00 20 00 08 00 	addiu $8,$0,32
  408fa0:	55 00 00 00 18 02 03 00 	sll $2,$3,0x18
  408fa8:	59 00 00 00 18 05 02 00 	sra $5,$2,0x18
  408fb0:	05 00 00 00 12 00 08 05 	beq $5,$8,409000 <e_d+0xcf0>
  408fb8:	43 00 00 00 d0 ff 02 03 	addiu $2,$3,-48
  408fc0:	5e 00 00 00 0a 00 02 02 	sltiu $2,$2,10
  408fc8:	05 00 00 00 12 00 00 02 	beq $2,$0,409018 <e_d+0xd08>
  408fd0:	55 00 00 00 02 02 06 00 	sll $2,$6,0x2
  408fd8:	42 00 00 00 00 02 06 02 	addu $2,$2,$6
  408fe0:	55 00 00 00 01 02 02 00 	sll $2,$2,0x1
  408fe8:	42 00 00 00 00 02 05 02 	addu $2,$2,$5
  408ff0:	43 00 00 00 d0 ff 06 02 	addiu $6,$2,-48
  408ff8:	43 00 00 00 01 00 07 07 	addiu $7,$7,1
  409000:	43 00 00 00 01 00 04 04 	addiu $4,$4,1
  409008:	22 00 00 00 00 00 03 04 	lbu $3,0($4)
  409010:	01 00 00 00 e8 23 10 00 	j 408fa0 <e_d+0xc90>
  409018:	06 00 00 00 06 00 00 07 	bne $7,$0,409038 <e_d+0xd28>
  409020:	43 00 00 00 01 00 02 00 	addiu $2,$0,1
  409028:	34 00 00 00 00 00 02 09 	sw $2,0($9)
  409030:	01 00 00 00 10 24 10 00 	j 409040 <e_d+0xd30>
  409038:	34 00 00 00 18 00 06 1d 	sw $6,24($29)
  409040:	42 00 00 00 00 10 04 00 	addu $16,$0,$4
  409048:	01 00 00 00 16 24 10 00 	j 409058 <e_d+0xd48>
  409050:	34 00 00 00 18 00 00 1d 	sw $0,24($29)
  409058:	43 00 00 00 17 00 14 00 	addiu $20,$0,23
  409060:	01 00 00 00 40 25 10 00 	j 409500 <e_d+0x11f0>
  409068:	43 00 00 00 01 00 16 00 	addiu $22,$0,1
  409070:	42 00 00 00 00 05 10 00 	addu $5,$0,$16
  409078:	43 00 00 00 14 00 09 1d 	addiu $9,$29,20
  409080:	42 00 00 00 00 06 00 00 	addu $6,$0,$0
  409088:	42 00 00 00 00 07 00 00 	addu $7,$0,$0
  409090:	22 00 00 00 00 00 03 05 	lbu $3,0($5)
  409098:	43 00 00 00 20 00 08 00 	addiu $8,$0,32
  4090a0:	55 00 00 00 18 02 03 00 	sll $2,$3,0x18
  4090a8:	59 00 00 00 18 04 02 00 	sra $4,$2,0x18
  4090b0:	05 00 00 00 12 00 08 04 	beq $4,$8,409100 <e_d+0xdf0>
  4090b8:	43 00 00 00 d0 ff 02 03 	addiu $2,$3,-48
  4090c0:	5e 00 00 00 0a 00 02 02 	sltiu $2,$2,10
  4090c8:	05 00 00 00 12 00 00 02 	beq $2,$0,409118 <e_d+0xe08>
  4090d0:	55 00 00 00 02 02 06 00 	sll $2,$6,0x2
  4090d8:	42 00 00 00 00 02 06 02 	addu $2,$2,$6
  4090e0:	55 00 00 00 01 02 02 00 	sll $2,$2,0x1
  4090e8:	42 00 00 00 00 02 04 02 	addu $2,$2,$4
  4090f0:	43 00 00 00 d0 ff 06 02 	addiu $6,$2,-48
  4090f8:	43 00 00 00 01 00 07 07 	addiu $7,$7,1
  409100:	43 00 00 00 01 00 05 05 	addiu $5,$5,1
  409108:	22 00 00 00 00 00 03 05 	lbu $3,0($5)
  409110:	01 00 00 00 28 24 10 00 	j 4090a0 <e_d+0xd90>
  409118:	06 00 00 00 06 00 00 07 	bne $7,$0,409138 <e_d+0xe28>
  409120:	43 00 00 00 01 00 02 00 	addiu $2,$0,1
  409128:	34 00 00 00 00 00 02 09 	sw $2,0($9)
  409130:	01 00 00 00 50 24 10 00 	j 409140 <e_d+0xe30>
  409138:	34 00 00 00 14 00 06 1d 	sw $6,20($29)
  409140:	28 00 00 00 14 00 02 1d 	lw $2,20($29)
  409148:	42 00 00 00 00 10 05 00 	addu $16,$0,$5
  409150:	05 00 00 00 18 01 00 02 	beq $2,$0,4095b8 <e_d+0x12a8>
  409158:	20 00 00 00 00 00 03 10 	lb $3,0($16)
  409160:	43 00 00 00 2e 00 02 00 	addiu $2,$0,46
  409168:	06 00 00 00 3a 00 02 03 	bne $3,$2,409258 <e_d+0xf48>
  409170:	43 00 00 00 01 00 10 10 	addiu $16,$16,1
  409178:	42 00 00 00 00 04 10 00 	addu $4,$0,$16
  409180:	43 00 00 00 18 00 09 1d 	addiu $9,$29,24
  409188:	42 00 00 00 00 06 00 00 	addu $6,$0,$0
  409190:	42 00 00 00 00 07 00 00 	addu $7,$0,$0
  409198:	22 00 00 00 00 00 03 04 	lbu $3,0($4)
  4091a0:	43 00 00 00 20 00 08 00 	addiu $8,$0,32
  4091a8:	55 00 00 00 18 02 03 00 	sll $2,$3,0x18
  4091b0:	59 00 00 00 18 05 02 00 	sra $5,$2,0x18
  4091b8:	05 00 00 00 12 00 08 05 	beq $5,$8,409208 <e_d+0xef8>
  4091c0:	43 00 00 00 d0 ff 02 03 	addiu $2,$3,-48
  4091c8:	5e 00 00 00 0a 00 02 02 	sltiu $2,$2,10
  4091d0:	05 00 00 00 12 00 00 02 	beq $2,$0,409220 <e_d+0xf10>
  4091d8:	55 00 00 00 02 02 06 00 	sll $2,$6,0x2
  4091e0:	42 00 00 00 00 02 06 02 	addu $2,$2,$6
  4091e8:	55 00 00 00 01 02 02 00 	sll $2,$2,0x1
  4091f0:	42 00 00 00 00 02 05 02 	addu $2,$2,$5
  4091f8:	43 00 00 00 d0 ff 06 02 	addiu $6,$2,-48
  409200:	43 00 00 00 01 00 07 07 	addiu $7,$7,1
  409208:	43 00 00 00 01 00 04 04 	addiu $4,$4,1
  409210:	22 00 00 00 00 00 03 04 	lbu $3,0($4)
  409218:	01 00 00 00 6a 24 10 00 	j 4091a8 <e_d+0xe98>
  409220:	06 00 00 00 06 00 00 07 	bne $7,$0,409240 <e_d+0xf30>
  409228:	43 00 00 00 01 00 02 00 	addiu $2,$0,1
  409230:	34 00 00 00 00 00 02 09 	sw $2,0($9)
  409238:	01 00 00 00 92 24 10 00 	j 409248 <e_d+0xf38>
  409240:	34 00 00 00 18 00 06 1d 	sw $6,24($29)
  409248:	42 00 00 00 00 10 04 00 	addu $16,$0,$4
  409250:	01 00 00 00 98 24 10 00 	j 409260 <e_d+0xf50>
  409258:	34 00 00 00 18 00 00 1d 	sw $0,24($29)
  409260:	43 00 00 00 1a 00 14 00 	addiu $20,$0,26
  409268:	01 00 00 00 40 25 10 00 	j 409500 <e_d+0x11f0>
  409270:	43 00 00 00 07 00 13 00 	addiu $19,$0,7
  409278:	43 00 00 00 0a 00 14 00 	addiu $20,$0,10
  409280:	43 00 00 00 01 00 16 00 	addiu $22,$0,1
  409288:	42 00 00 00 00 05 10 00 	addu $5,$0,$16
  409290:	43 00 00 00 14 00 09 1d 	addiu $9,$29,20
  409298:	42 00 00 00 00 06 00 00 	addu $6,$0,$0
  4092a0:	42 00 00 00 00 07 00 00 	addu $7,$0,$0
  4092a8:	22 00 00 00 00 00 03 05 	lbu $3,0($5)
  4092b0:	43 00 00 00 20 00 08 00 	addiu $8,$0,32
  4092b8:	55 00 00 00 18 02 03 00 	sll $2,$3,0x18
  4092c0:	59 00 00 00 18 04 02 00 	sra $4,$2,0x18
  4092c8:	05 00 00 00 12 00 08 04 	beq $4,$8,409318 <e_d+0x1008>
  4092d0:	43 00 00 00 d0 ff 02 03 	addiu $2,$3,-48
  4092d8:	5e 00 00 00 0a 00 02 02 	sltiu $2,$2,10
  4092e0:	05 00 00 00 12 00 00 02 	beq $2,$0,409330 <e_d+0x1020>
  4092e8:	55 00 00 00 02 02 06 00 	sll $2,$6,0x2
  4092f0:	42 00 00 00 00 02 06 02 	addu $2,$2,$6
  4092f8:	55 00 00 00 01 02 02 00 	sll $2,$2,0x1
  409300:	42 00 00 00 00 02 04 02 	addu $2,$2,$4
  409308:	43 00 00 00 d0 ff 06 02 	addiu $6,$2,-48
  409310:	43 00 00 00 01 00 07 07 	addiu $7,$7,1
  409318:	43 00 00 00 01 00 05 05 	addiu $5,$5,1
  409320:	22 00 00 00 00 00 03 05 	lbu $3,0($5)
  409328:	01 00 00 00 ae 24 10 00 	j 4092b8 <e_d+0xfa8>
  409330:	06 00 00 00 06 00 00 07 	bne $7,$0,409350 <e_d+0x1040>
  409338:	43 00 00 00 01 00 02 00 	addiu $2,$0,1
  409340:	34 00 00 00 00 00 02 09 	sw $2,0($9)
  409348:	01 00 00 00 d6 24 10 00 	j 409358 <e_d+0x1048>
  409350:	34 00 00 00 14 00 06 1d 	sw $6,20($29)
  409358:	28 00 00 00 14 00 12 1d 	lw $18,20($29)
  409360:	42 00 00 00 00 10 05 00 	addu $16,$0,$5
  409368:	05 00 00 00 92 00 00 12 	beq $18,$0,4095b8 <e_d+0x12a8>
  409370:	20 00 00 00 00 00 03 10 	lb $3,0($16)
  409378:	43 00 00 00 2e 00 02 00 	addiu $2,$0,46
  409380:	05 00 00 00 26 00 02 03 	beq $3,$2,409420 <e_d+0x1110>
  409388:	28 00 00 00 c4 86 02 1c 	lw $2,-31036($28)
  409390:	a2 00 00 00 00 10 03 00 	lui $3,4096
  409398:	43 00 00 00 30 44 03 03 	addiu $3,$3,17456
  4093a0:	55 00 00 00 04 04 02 00 	sll $4,$2,0x4
  4093a8:	42 00 00 00 00 11 03 04 	addu $17,$4,$3
  4093b0:	5c 00 00 00 2c 01 02 02 	slti $2,$2,300
  4093b8:	06 00 00 00 0e 00 00 02 	bne $2,$0,4093f8 <e_d+0x10e8>
  4093c0:	28 00 00 00 48 81 04 1c 	lw $4,-32440($28)
  4093c8:	a2 00 00 00 00 10 05 00 	lui $5,4096
  4093d0:	43 00 00 00 4c 05 05 05 	addiu $5,$5,1356
  4093d8:	02 00 00 00 00 3c 10 00 	jal 40f000 <fprintf>
  4093e0:	28 00 00 00 ec 86 04 1c 	lw $4,-30996($28)
  4093e8:	43 00 00 00 01 00 05 00 	addiu $5,$0,1
  4093f0:	02 00 00 00 60 30 10 00 	jal 40c180 <sig_die>
  4093f8:	28 00 00 00 c4 86 02 1c 	lw $2,-31036($28)
  409400:	34 00 00 00 00 00 13 11 	sw $19,0($17)
  409408:	34 00 00 00 04 00 12 11 	sw $18,4($17)
  409410:	34 00 00 00 08 00 00 11 	sw $0,8($17)
  409418:	01 00 00 00 68 25 10 00 	j 4095a0 <e_d+0x1290>
  409420:	43 00 00 00 01 00 10 10 	addiu $16,$16,1
  409428:	42 00 00 00 00 04 10 00 	addu $4,$0,$16
  409430:	43 00 00 00 18 00 09 1d 	addiu $9,$29,24
  409438:	42 00 00 00 00 06 00 00 	addu $6,$0,$0
  409440:	42 00 00 00 00 07 00 00 	addu $7,$0,$0
  409448:	22 00 00 00 00 00 03 04 	lbu $3,0($4)
  409450:	43 00 00 00 20 00 08 00 	addiu $8,$0,32
  409458:	55 00 00 00 18 02 03 00 	sll $2,$3,0x18
  409460:	59 00 00 00 18 05 02 00 	sra $5,$2,0x18
  409468:	05 00 00 00 12 00 08 05 	beq $5,$8,4094b8 <e_d+0x11a8>
  409470:	43 00 00 00 d0 ff 02 03 	addiu $2,$3,-48
  409478:	5e 00 00 00 0a 00 02 02 	sltiu $2,$2,10
  409480:	05 00 00 00 12 00 00 02 	beq $2,$0,4094d0 <e_d+0x11c0>
  409488:	55 00 00 00 02 02 06 00 	sll $2,$6,0x2
  409490:	42 00 00 00 00 02 06 02 	addu $2,$2,$6
  409498:	55 00 00 00 01 02 02 00 	sll $2,$2,0x1
  4094a0:	42 00 00 00 00 02 05 02 	addu $2,$2,$5
  4094a8:	43 00 00 00 d0 ff 06 02 	addiu $6,$2,-48
  4094b0:	43 00 00 00 01 00 07 07 	addiu $7,$7,1
  4094b8:	43 00 00 00 01 00 04 04 	addiu $4,$4,1
  4094c0:	22 00 00 00 00 00 03 04 	lbu $3,0($4)
  4094c8:	01 00 00 00 16 25 10 00 	j 409458 <e_d+0x1148>
  4094d0:	06 00 00 00 06 00 00 07 	bne $7,$0,4094f0 <e_d+0x11e0>
  4094d8:	43 00 00 00 01 00 02 00 	addiu $2,$0,1
  4094e0:	34 00 00 00 00 00 02 09 	sw $2,0($9)
  4094e8:	01 00 00 00 3e 25 10 00 	j 4094f8 <e_d+0x11e8>
  4094f0:	34 00 00 00 18 00 06 1d 	sw $6,24($29)
  4094f8:	42 00 00 00 00 10 04 00 	addu $16,$0,$4
  409500:	28 00 00 00 c4 86 02 1c 	lw $2,-31036($28)
  409508:	28 00 00 00 14 00 12 1d 	lw $18,20($29)
  409510:	28 00 00 00 18 00 13 1d 	lw $19,24($29)
  409518:	a2 00 00 00 00 10 03 00 	lui $3,4096
  409520:	43 00 00 00 30 44 03 03 	addiu $3,$3,17456
  409528:	55 00 00 00 04 04 02 00 	sll $4,$2,0x4
  409530:	42 00 00 00 00 11 03 04 	addu $17,$4,$3
  409538:	5c 00 00 00 2c 01 02 02 	slti $2,$2,300
  409540:	06 00 00 00 0e 00 00 02 	bne $2,$0,409580 <e_d+0x1270>
  409548:	28 00 00 00 48 81 04 1c 	lw $4,-32440($28)
  409550:	a2 00 00 00 00 10 05 00 	lui $5,4096
  409558:	43 00 00 00 4c 05 05 05 	addiu $5,$5,1356
  409560:	02 00 00 00 00 3c 10 00 	jal 40f000 <fprintf>
  409568:	28 00 00 00 ec 86 04 1c 	lw $4,-30996($28)
  409570:	43 00 00 00 01 00 05 00 	addiu $5,$0,1
  409578:	02 00 00 00 60 30 10 00 	jal 40c180 <sig_die>
  409580:	28 00 00 00 c4 86 02 1c 	lw $2,-31036($28)
  409588:	34 00 00 00 00 00 14 11 	sw $20,0($17)
  409590:	34 00 00 00 04 00 12 11 	sw $18,4($17)
  409598:	34 00 00 00 08 00 13 11 	sw $19,8($17)
  4095a0:	34 00 00 00 0c 00 00 11 	sw $0,12($17)
  4095a8:	43 00 00 00 01 00 02 02 	addiu $2,$2,1
  4095b0:	34 00 00 00 c4 86 02 1c 	sw $2,-31036($28)
  4095b8:	05 00 00 00 06 00 00 16 	beq $22,$0,4095d8 <e_d+0x12c8>
  4095c0:	34 00 00 00 00 00 10 1e 	sw $16,0($30)
  4095c8:	43 00 00 00 01 00 02 00 	addiu $2,$0,1
  4095d0:	01 00 00 00 80 25 10 00 	j 409600 <e_d+0x12f0>
  4095d8:	28 00 00 00 c4 86 03 1c 	lw $3,-31036($28)
  4095e0:	42 00 00 00 00 02 00 00 	addu $2,$0,$0
  4095e8:	43 00 00 00 ff ff 03 03 	addiu $3,$3,-1
  4095f0:	34 00 00 00 c4 86 03 1c 	sw $3,-31036($28)
  4095f8:	34 00 00 00 00 00 17 1e 	sw $23,0($30)
  409600:	28 00 00 00 44 00 1f 1d 	lw $31,68($29)
  409608:	28 00 00 00 40 00 1e 1d 	lw $30,64($29)
  409610:	28 00 00 00 3c 00 17 1d 	lw $23,60($29)
  409618:	28 00 00 00 38 00 16 1d 	lw $22,56($29)
  409620:	28 00 00 00 34 00 15 1d 	lw $21,52($29)
  409628:	28 00 00 00 30 00 14 1d 	lw $20,48($29)
  409630:	28 00 00 00 2c 00 13 1d 	lw $19,44($29)
  409638:	28 00 00 00 28 00 12 1d 	lw $18,40($29)
  409640:	28 00 00 00 24 00 11 1d 	lw $17,36($29)
  409648:	28 00 00 00 20 00 10 1d 	lw $16,32($29)
  409650:	43 00 00 00 48 00 1d 1d 	addiu $29,$29,72
  409658:	03 00 00 00 00 00 00 1f 	jr $31

00409660 <i_tem>:
  409660:	43 00 00 00 d0 ff 1d 1d 	addiu $29,$29,-48
  409668:	34 00 00 00 1c 00 11 1d 	sw $17,28($29)
  409670:	42 00 00 00 00 11 04 00 	addu $17,$0,$4
  409678:	34 00 00 00 28 00 1f 1d 	sw $31,40($29)
  409680:	34 00 00 00 24 00 13 1d 	sw $19,36($29)
  409688:	34 00 00 00 20 00 12 1d 	sw $18,32($29)
  409690:	34 00 00 00 18 00 10 1d 	sw $16,24($29)
  409698:	20 00 00 00 00 00 03 11 	lb $3,0($17)
  4096a0:	43 00 00 00 29 00 02 00 	addiu $2,$0,41
  4096a8:	06 00 00 00 04 00 02 03 	bne $3,$2,4096c0 <i_tem+0x60>
  4096b0:	42 00 00 00 00 02 11 00 	addu $2,$0,$17
  4096b8:	01 00 00 00 9e 26 10 00 	j 409a78 <i_tem+0x418>
  4096c0:	42 00 00 00 00 04 11 00 	addu $4,$0,$17
  4096c8:	43 00 00 00 10 00 05 1d 	addiu $5,$29,16
  4096d0:	02 00 00 00 8c 1d 10 00 	jal 407630 <ne_d>
  4096d8:	06 00 00 00 08 00 00 02 	bne $2,$0,409700 <i_tem+0xa0>
  4096e0:	42 00 00 00 00 04 11 00 	addu $4,$0,$17
  4096e8:	43 00 00 00 10 00 05 1d 	addiu $5,$29,16
  4096f0:	02 00 00 00 c4 20 10 00 	jal 408310 <e_d>
  4096f8:	05 00 00 00 04 00 00 02 	beq $2,$0,409710 <i_tem+0xb0>
  409700:	28 00 00 00 10 00 02 1d 	lw $2,16($29)
  409708:	01 00 00 00 9e 26 10 00 	j 409a78 <i_tem+0x418>
