
/export/capc5/SPEC_TRACE/SimpleScalar/bin/apsi.ss:     file format ss-coff-little

Disassembly of section .text:

00400140 <__start>:
  400140:	28 00 00 00 00 00 10 1d 	lw $16,0($29)
  400148:	a2 00 00 00 93 10 1c 00 	lui $28,4243
  400150:	43 00 00 00 d0 58 1c 1c 	addiu $28,$28,22736
  400158:	43 00 00 00 04 00 11 1d 	addiu $17,$29,4
  400160:	43 00 00 00 04 00 03 11 	addiu $3,$17,4
  400168:	55 00 00 00 02 02 10 00 	sll $2,$16,0x2
  400170:	42 00 00 00 00 03 02 03 	addu $3,$3,$2
  400178:	42 00 00 00 00 12 03 00 	addu $18,$0,$3
  400180:	34 00 00 00 54 94 12 1c 	sw $18,-27564($28)
  400188:	43 00 00 00 e8 ff 1d 1d 	addiu $29,$29,-24
  400190:	42 00 00 00 00 04 10 00 	addu $4,$0,$16
  400198:	42 00 00 00 00 05 11 00 	addu $5,$0,$17
  4001a0:	42 00 00 00 00 06 12 00 	addu $6,$0,$18
  4001a8:	02 00 00 00 1c 31 11 00 	jal 44c470 <__libc_init>
  4001b0:	34 00 00 00 50 94 00 1c 	sw $0,-27568($28)
  4001b8:	42 00 00 00 00 04 10 00 	addu $4,$0,$16
  4001c0:	42 00 00 00 00 05 11 00 	addu $5,$0,$17
  4001c8:	42 00 00 00 00 06 12 00 	addu $6,$0,$18
  4001d0:	02 00 00 00 28 31 11 00 	jal 44c4a0 <main>
  4001d8:	42 00 00 00 00 04 02 00 	addu $4,$0,$2
  4001e0:	02 00 00 00 00 32 11 00 	jal 44c800 <exit>
	...

004001f0 <MAIN__>:
  4001f0:	43 00 00 00 28 fe 1d 1d 	addiu $29,$29,-472
  4001f8:	43 00 00 00 80 00 04 1d 	addiu $4,$29,128
  400200:	43 00 00 00 01 00 02 00 	addiu $2,$0,1
  400208:	34 00 00 00 84 00 02 1d 	sw $2,132($29)
  400210:	43 00 00 00 03 00 02 00 	addiu $2,$0,3
  400218:	34 00 00 00 8c 00 02 1d 	sw $2,140($29)
  400220:	43 00 00 00 78 80 02 1c 	addiu $2,$28,-32648
  400228:	34 00 00 00 b4 01 11 1d 	sw $17,436($29)
  400230:	43 00 00 00 7c 80 11 1c 	addiu $17,$28,-32644
  400238:	34 00 00 00 d4 01 1f 1d 	sw $31,468($29)
  400240:	34 00 00 00 d0 01 1e 1d 	sw $30,464($29)
  400248:	34 00 00 00 cc 01 17 1d 	sw $23,460($29)
  400250:	34 00 00 00 c8 01 16 1d 	sw $22,456($29)
  400258:	34 00 00 00 c4 01 15 1d 	sw $21,452($29)
  400260:	34 00 00 00 c0 01 14 1d 	sw $20,448($29)
  400268:	34 00 00 00 bc 01 13 1d 	sw $19,444($29)
  400270:	34 00 00 00 b8 01 12 1d 	sw $18,440($29)
  400278:	34 00 00 00 b0 01 10 1d 	sw $16,432($29)
  400280:	34 00 00 00 80 00 00 1d 	sw $0,128($29)
  400288:	34 00 00 00 88 00 02 1d 	sw $2,136($29)
  400290:	34 00 00 00 9c 00 00 1d 	sw $0,156($29)
  400298:	34 00 00 00 90 00 11 1d 	sw $17,144($29)
  4002a0:	34 00 00 00 94 00 00 1d 	sw $0,148($29)
  4002a8:	34 00 00 00 98 00 00 1d 	sw $0,152($29)
  4002b0:	34 00 00 00 a0 00 00 1d 	sw $0,160($29)
  4002b8:	02 00 00 00 90 32 11 00 	jal 44ca40 <f_open>
  4002c0:	a2 00 00 00 93 10 04 00 	lui $4,4243
  4002c8:	43 00 00 00 58 ad 04 04 	addiu $4,$4,-21160
  4002d0:	02 00 00 00 c0 35 11 00 	jal 44d700 <s_wsfe>
  4002d8:	02 00 00 00 06 37 11 00 	jal 44dc18 <e_wsfe>
  4002e0:	43 00 00 00 80 00 04 1d 	addiu $4,$29,128
  4002e8:	43 00 00 00 4e 00 12 00 	addiu $18,$0,78
  4002f0:	43 00 00 00 06 00 02 00 	addiu $2,$0,6
  4002f8:	43 00 00 00 04 00 10 00 	addiu $16,$0,4
  400300:	34 00 00 00 84 00 02 1d 	sw $2,132($29)
  400308:	43 00 00 00 84 80 02 1c 	addiu $2,$28,-32636
  400310:	34 00 00 00 1c 01 00 1d 	sw $0,284($29)
  400318:	30 00 00 00 f0 00 12 1d 	sb $18,240($29)
  400320:	34 00 00 00 24 01 00 1d 	sw $0,292($29)
  400328:	34 00 00 00 80 00 00 1d 	sw $0,128($29)
  400330:	34 00 00 00 8c 00 10 1d 	sw $16,140($29)
  400338:	34 00 00 00 88 00 02 1d 	sw $2,136($29)
  400340:	34 00 00 00 9c 00 00 1d 	sw $0,156($29)
  400348:	34 00 00 00 90 00 11 1d 	sw $17,144($29)
  400350:	34 00 00 00 94 00 00 1d 	sw $0,148($29)
  400358:	34 00 00 00 98 00 00 1d 	sw $0,152($29)
  400360:	34 00 00 00 a0 00 00 1d 	sw $0,160($29)
  400368:	02 00 00 00 90 32 11 00 	jal 44ca40 <f_open>
  400370:	43 00 00 00 80 00 04 1d 	addiu $4,$29,128
  400378:	43 00 00 00 08 00 02 00 	addiu $2,$0,8
  400380:	34 00 00 00 84 00 02 1d 	sw $2,132($29)
  400388:	43 00 00 00 8c 80 02 1c 	addiu $2,$28,-32628
  400390:	34 00 00 00 80 00 00 1d 	sw $0,128($29)
  400398:	34 00 00 00 8c 00 10 1d 	sw $16,140($29)
  4003a0:	34 00 00 00 88 00 02 1d 	sw $2,136($29)
  4003a8:	34 00 00 00 9c 00 00 1d 	sw $0,156($29)
  4003b0:	34 00 00 00 90 00 11 1d 	sw $17,144($29)
  4003b8:	34 00 00 00 94 00 00 1d 	sw $0,148($29)
  4003c0:	34 00 00 00 98 00 00 1d 	sw $0,152($29)
  4003c8:	34 00 00 00 a0 00 00 1d 	sw $0,160($29)
  4003d0:	02 00 00 00 90 32 11 00 	jal 44ca40 <f_open>
  4003d8:	43 00 00 00 80 00 04 1d 	addiu $4,$29,128
  4003e0:	43 00 00 00 0b 00 02 00 	addiu $2,$0,11
  4003e8:	43 00 00 00 05 00 10 00 	addiu $16,$0,5
  4003f0:	34 00 00 00 84 00 02 1d 	sw $2,132($29)
  4003f8:	43 00 00 00 94 80 02 1c 	addiu $2,$28,-32620
  400400:	34 00 00 00 80 00 00 1d 	sw $0,128($29)
  400408:	34 00 00 00 8c 00 10 1d 	sw $16,140($29)
  400410:	34 00 00 00 88 00 02 1d 	sw $2,136($29)
  400418:	34 00 00 00 9c 00 00 1d 	sw $0,156($29)
  400420:	34 00 00 00 90 00 11 1d 	sw $17,144($29)
  400428:	34 00 00 00 94 00 00 1d 	sw $0,148($29)
  400430:	34 00 00 00 98 00 00 1d 	sw $0,152($29)
  400438:	34 00 00 00 a0 00 00 1d 	sw $0,160($29)
  400440:	02 00 00 00 90 32 11 00 	jal 44ca40 <f_open>
  400448:	a2 00 00 00 93 10 04 00 	lui $4,4243
  400450:	43 00 00 00 6c ad 04 04 	addiu $4,$4,-21140
  400458:	02 00 00 00 c0 35 11 00 	jal 44d700 <s_wsfe>
  400460:	02 00 00 00 06 37 11 00 	jal 44dc18 <e_wsfe>
  400468:	a2 00 00 00 93 10 04 00 	lui $4,4243
  400470:	43 00 00 00 80 ad 04 04 	addiu $4,$4,-21120
  400478:	02 00 00 00 c0 35 11 00 	jal 44d700 <s_wsfe>
  400480:	02 00 00 00 06 37 11 00 	jal 44dc18 <e_wsfe>
  400488:	28 00 00 00 1c 01 02 1d 	lw $2,284($29)
  400490:	05 00 00 00 74 03 00 02 	beq $2,$0,401268 <MAIN__+0x1078>
  400498:	a2 00 00 00 93 10 04 00 	lui $4,4243
  4004a0:	43 00 00 00 94 ad 04 04 	addiu $4,$4,-21100
  4004a8:	02 00 00 00 c0 35 11 00 	jal 44d700 <s_wsfe>
  4004b0:	43 00 00 00 00 80 04 1c 	addiu $4,$28,-32768
  4004b8:	a2 00 00 00 00 10 05 00 	lui $5,4096
  4004c0:	43 00 00 00 00 00 05 05 	addiu $5,$5,0
  4004c8:	43 00 00 00 2f 00 06 00 	addiu $6,$0,47
  4004d0:	02 00 00 00 14 43 11 00 	jal 450c50 <do_fio>
  4004d8:	02 00 00 00 06 37 11 00 	jal 44dc18 <e_wsfe>
  4004e0:	a2 00 00 00 93 10 04 00 	lui $4,4243
  4004e8:	43 00 00 00 a8 ad 04 04 	addiu $4,$4,-21080
  4004f0:	02 00 00 00 fe 45 11 00 	jal 4517f8 <s_rsfe>
  4004f8:	43 00 00 00 00 80 04 1c 	addiu $4,$28,-32768
  400500:	43 00 00 00 f0 00 05 1d 	addiu $5,$29,240
  400508:	43 00 00 00 01 00 06 00 	addiu $6,$0,1
  400510:	02 00 00 00 14 43 11 00 	jal 450c50 <do_fio>
  400518:	02 00 00 00 70 36 11 00 	jal 44d9c0 <e_rsfe>
  400520:	22 00 00 00 f0 00 03 1d 	lbu $3,240($29)
  400528:	43 00 00 00 20 00 02 00 	addiu $2,$0,32
  400530:	06 00 00 00 02 00 02 03 	bne $3,$2,400540 <MAIN__+0x350>
  400538:	30 00 00 00 f0 00 12 1d 	sb $18,240($29)
  400540:	22 00 00 00 f0 00 03 1d 	lbu $3,240($29)
  400548:	43 00 00 00 4f 00 02 00 	addiu $2,$0,79
  400550:	05 00 00 00 04 00 02 03 	beq $3,$2,400568 <MAIN__+0x378>
  400558:	43 00 00 00 6f 00 02 00 	addiu $2,$0,111
  400560:	06 00 00 00 40 03 02 03 	bne $3,$2,401268 <MAIN__+0x1078>
  400568:	43 00 00 00 80 00 04 1d 	addiu $4,$29,128
  400570:	43 00 00 00 0a 00 12 00 	addiu $18,$0,10
  400578:	43 00 00 00 9c 80 02 1c 	addiu $2,$28,-32612
  400580:	34 00 00 00 88 00 02 1d 	sw $2,136($29)
  400588:	43 00 00 00 a4 80 02 1c 	addiu $2,$28,-32604
  400590:	34 00 00 00 80 00 00 1d 	sw $0,128($29)
  400598:	34 00 00 00 84 00 12 1d 	sw $18,132($29)
  4005a0:	34 00 00 00 8c 00 10 1d 	sw $16,140($29)
  4005a8:	34 00 00 00 9c 00 00 1d 	sw $0,156($29)
  4005b0:	34 00 00 00 90 00 02 1d 	sw $2,144($29)
  4005b8:	34 00 00 00 94 00 00 1d 	sw $0,148($29)
  4005c0:	34 00 00 00 98 00 00 1d 	sw $0,152($29)
  4005c8:	34 00 00 00 a0 00 00 1d 	sw $0,160($29)
  4005d0:	02 00 00 00 90 32 11 00 	jal 44ca40 <f_open>
  4005d8:	a2 00 00 00 93 10 04 00 	lui $4,4243
  4005e0:	43 00 00 00 bc ad 04 04 	addiu $4,$4,-21060
  4005e8:	02 00 00 00 fe 45 11 00 	jal 4517f8 <s_rsfe>
  4005f0:	43 00 00 00 00 80 04 1c 	addiu $4,$28,-32768
  4005f8:	43 00 00 00 f4 00 05 1d 	addiu $5,$29,244
  400600:	43 00 00 00 04 00 06 00 	addiu $6,$0,4
  400608:	02 00 00 00 14 43 11 00 	jal 450c50 <do_fio>
  400610:	43 00 00 00 00 80 04 1c 	addiu $4,$28,-32768
  400618:	43 00 00 00 f8 00 05 1d 	addiu $5,$29,248
  400620:	43 00 00 00 04 00 06 00 	addiu $6,$0,4
  400628:	02 00 00 00 14 43 11 00 	jal 450c50 <do_fio>
  400630:	43 00 00 00 00 80 04 1c 	addiu $4,$28,-32768
  400638:	43 00 00 00 fc 00 05 1d 	addiu $5,$29,252
  400640:	43 00 00 00 04 00 06 00 	addiu $6,$0,4
  400648:	02 00 00 00 14 43 11 00 	jal 450c50 <do_fio>
  400650:	43 00 00 00 00 80 04 1c 	addiu $4,$28,-32768
  400658:	43 00 00 00 00 01 05 1d 	addiu $5,$29,256
  400660:	43 00 00 00 04 00 06 00 	addiu $6,$0,4
  400668:	02 00 00 00 14 43 11 00 	jal 450c50 <do_fio>
  400670:	43 00 00 00 00 80 04 1c 	addiu $4,$28,-32768
  400678:	43 00 00 00 04 01 05 1d 	addiu $5,$29,260
  400680:	43 00 00 00 04 00 06 00 	addiu $6,$0,4
  400688:	02 00 00 00 14 43 11 00 	jal 450c50 <do_fio>
  400690:	43 00 00 00 00 80 04 1c 	addiu $4,$28,-32768
  400698:	43 00 00 00 08 01 05 1d 	addiu $5,$29,264
  4006a0:	43 00 00 00 04 00 06 00 	addiu $6,$0,4
  4006a8:	02 00 00 00 14 43 11 00 	jal 450c50 <do_fio>
  4006b0:	43 00 00 00 00 80 04 1c 	addiu $4,$28,-32768
  4006b8:	43 00 00 00 0c 01 05 1d 	addiu $5,$29,268
  4006c0:	43 00 00 00 04 00 06 00 	addiu $6,$0,4
  4006c8:	02 00 00 00 14 43 11 00 	jal 450c50 <do_fio>
  4006d0:	43 00 00 00 00 80 04 1c 	addiu $4,$28,-32768
  4006d8:	43 00 00 00 10 01 05 1d 	addiu $5,$29,272
  4006e0:	43 00 00 00 04 00 06 00 	addiu $6,$0,4
  4006e8:	02 00 00 00 14 43 11 00 	jal 450c50 <do_fio>
  4006f0:	43 00 00 00 00 80 04 1c 	addiu $4,$28,-32768
  4006f8:	43 00 00 00 14 01 05 1d 	addiu $5,$29,276
  400700:	43 00 00 00 04 00 06 00 	addiu $6,$0,4
  400708:	02 00 00 00 14 43 11 00 	jal 450c50 <do_fio>
  400710:	43 00 00 00 00 80 04 1c 	addiu $4,$28,-32768
  400718:	43 00 00 00 18 01 05 1d 	addiu $5,$29,280
  400720:	43 00 00 00 04 00 06 00 	addiu $6,$0,4
  400728:	02 00 00 00 14 43 11 00 	jal 450c50 <do_fio>
  400730:	43 00 00 00 00 80 04 1c 	addiu $4,$28,-32768
  400738:	43 00 00 00 1c 01 05 1d 	addiu $5,$29,284
  400740:	43 00 00 00 04 00 06 00 	addiu $6,$0,4
  400748:	02 00 00 00 14 43 11 00 	jal 450c50 <do_fio>
  400750:	43 00 00 00 00 80 04 1c 	addiu $4,$28,-32768
  400758:	43 00 00 00 20 01 05 1d 	addiu $5,$29,288
  400760:	43 00 00 00 04 00 06 00 	addiu $6,$0,4
  400768:	02 00 00 00 14 43 11 00 	jal 450c50 <do_fio>
  400770:	43 00 00 00 00 80 04 1c 	addiu $4,$28,-32768
  400778:	43 00 00 00 24 01 05 1d 	addiu $5,$29,292
  400780:	43 00 00 00 04 00 06 00 	addiu $6,$0,4
  400788:	02 00 00 00 14 43 11 00 	jal 450c50 <do_fio>
  400790:	43 00 00 00 00 80 04 1c 	addiu $4,$28,-32768
  400798:	43 00 00 00 28 01 05 1d 	addiu $5,$29,296
  4007a0:	43 00 00 00 04 00 06 00 	addiu $6,$0,4
  4007a8:	02 00 00 00 14 43 11 00 	jal 450c50 <do_fio>
  4007b0:	43 00 00 00 00 80 04 1c 	addiu $4,$28,-32768
  4007b8:	43 00 00 00 2c 01 05 1d 	addiu $5,$29,300
  4007c0:	43 00 00 00 04 00 06 00 	addiu $6,$0,4
  4007c8:	02 00 00 00 14 43 11 00 	jal 450c50 <do_fio>
  4007d0:	43 00 00 00 00 80 04 1c 	addiu $4,$28,-32768
  4007d8:	43 00 00 00 30 01 05 1d 	addiu $5,$29,304
  4007e0:	43 00 00 00 04 00 06 00 	addiu $6,$0,4
  4007e8:	02 00 00 00 14 43 11 00 	jal 450c50 <do_fio>
  4007f0:	43 00 00 00 00 80 04 1c 	addiu $4,$28,-32768
  4007f8:	43 00 00 00 34 01 05 1d 	addiu $5,$29,308
  400800:	43 00 00 00 04 00 06 00 	addiu $6,$0,4
  400808:	02 00 00 00 14 43 11 00 	jal 450c50 <do_fio>
  400810:	43 00 00 00 00 80 04 1c 	addiu $4,$28,-32768
  400818:	a2 00 00 00 93 10 10 00 	lui $16,4243
  400820:	43 00 00 00 d0 f7 10 10 	addiu $16,$16,-2096
  400828:	42 00 00 00 00 05 10 00 	addu $5,$0,$16
  400830:	43 00 00 00 04 00 06 00 	addiu $6,$0,4
  400838:	02 00 00 00 14 43 11 00 	jal 450c50 <do_fio>
  400840:	43 00 00 00 00 80 04 1c 	addiu $4,$28,-32768
  400848:	43 00 00 00 04 00 05 10 	addiu $5,$16,4
  400850:	43 00 00 00 04 00 06 00 	addiu $6,$0,4
  400858:	02 00 00 00 14 43 11 00 	jal 450c50 <do_fio>
  400860:	43 00 00 00 00 80 04 1c 	addiu $4,$28,-32768
  400868:	43 00 00 00 f0 ff 05 10 	addiu $5,$16,-16
  400870:	43 00 00 00 04 00 06 00 	addiu $6,$0,4
  400878:	02 00 00 00 14 43 11 00 	jal 450c50 <do_fio>
  400880:	43 00 00 00 00 80 04 1c 	addiu $4,$28,-32768
  400888:	43 00 00 00 f4 ff 05 10 	addiu $5,$16,-12
  400890:	43 00 00 00 04 00 06 00 	addiu $6,$0,4
  400898:	02 00 00 00 14 43 11 00 	jal 450c50 <do_fio>
  4008a0:	43 00 00 00 00 80 04 1c 	addiu $4,$28,-32768
  4008a8:	43 00 00 00 f8 ff 05 10 	addiu $5,$16,-8
  4008b0:	43 00 00 00 04 00 06 00 	addiu $6,$0,4
  4008b8:	02 00 00 00 14 43 11 00 	jal 450c50 <do_fio>
  4008c0:	43 00 00 00 00 80 04 1c 	addiu $4,$28,-32768
  4008c8:	43 00 00 00 fc ff 05 10 	addiu $5,$16,-4
  4008d0:	43 00 00 00 04 00 06 00 	addiu $6,$0,4
  4008d8:	02 00 00 00 14 43 11 00 	jal 450c50 <do_fio>
  4008e0:	43 00 00 00 00 80 04 1c 	addiu $4,$28,-32768
  4008e8:	43 00 00 00 08 00 05 10 	addiu $5,$16,8
  4008f0:	43 00 00 00 04 00 06 00 	addiu $6,$0,4
  4008f8:	02 00 00 00 14 43 11 00 	jal 450c50 <do_fio>
  400900:	43 00 00 00 00 80 04 1c 	addiu $4,$28,-32768
  400908:	43 00 00 00 0c 00 05 10 	addiu $5,$16,12
  400910:	43 00 00 00 04 00 06 00 	addiu $6,$0,4
  400918:	02 00 00 00 14 43 11 00 	jal 450c50 <do_fio>
  400920:	43 00 00 00 00 80 04 1c 	addiu $4,$28,-32768
  400928:	43 00 00 00 10 00 05 10 	addiu $5,$16,16
  400930:	43 00 00 00 04 00 06 00 	addiu $6,$0,4
  400938:	02 00 00 00 14 43 11 00 	jal 450c50 <do_fio>
  400940:	43 00 00 00 00 80 04 1c 	addiu $4,$28,-32768
  400948:	43 00 00 00 14 00 05 10 	addiu $5,$16,20
  400950:	43 00 00 00 04 00 06 00 	addiu $6,$0,4
  400958:	02 00 00 00 14 43 11 00 	jal 450c50 <do_fio>
  400960:	43 00 00 00 00 80 04 1c 	addiu $4,$28,-32768
  400968:	43 00 00 00 18 00 05 10 	addiu $5,$16,24
  400970:	43 00 00 00 04 00 06 00 	addiu $6,$0,4
  400978:	02 00 00 00 14 43 11 00 	jal 450c50 <do_fio>
  400980:	43 00 00 00 00 80 04 1c 	addiu $4,$28,-32768
  400988:	43 00 00 00 1c 00 05 10 	addiu $5,$16,28
  400990:	43 00 00 00 04 00 06 00 	addiu $6,$0,4
  400998:	02 00 00 00 14 43 11 00 	jal 450c50 <do_fio>
  4009a0:	43 00 00 00 00 80 04 1c 	addiu $4,$28,-32768
  4009a8:	43 00 00 00 20 00 05 10 	addiu $5,$16,32
  4009b0:	43 00 00 00 04 00 06 00 	addiu $6,$0,4
  4009b8:	02 00 00 00 14 43 11 00 	jal 450c50 <do_fio>
  4009c0:	43 00 00 00 00 80 04 1c 	addiu $4,$28,-32768
  4009c8:	43 00 00 00 24 00 05 10 	addiu $5,$16,36
  4009d0:	43 00 00 00 04 00 06 00 	addiu $6,$0,4
  4009d8:	02 00 00 00 14 43 11 00 	jal 450c50 <do_fio>
  4009e0:	43 00 00 00 00 80 04 1c 	addiu $4,$28,-32768
  4009e8:	43 00 00 00 28 00 05 10 	addiu $5,$16,40
  4009f0:	43 00 00 00 04 00 06 00 	addiu $6,$0,4
  4009f8:	02 00 00 00 14 43 11 00 	jal 450c50 <do_fio>
  400a00:	43 00 00 00 00 80 04 1c 	addiu $4,$28,-32768
  400a08:	43 00 00 00 2c 00 05 10 	addiu $5,$16,44
  400a10:	43 00 00 00 04 00 06 00 	addiu $6,$0,4
  400a18:	02 00 00 00 14 43 11 00 	jal 450c50 <do_fio>
  400a20:	43 00 00 00 00 80 04 1c 	addiu $4,$28,-32768
  400a28:	43 00 00 00 30 00 05 10 	addiu $5,$16,48
  400a30:	43 00 00 00 04 00 06 00 	addiu $6,$0,4
  400a38:	02 00 00 00 14 43 11 00 	jal 450c50 <do_fio>
  400a40:	43 00 00 00 00 80 04 1c 	addiu $4,$28,-32768
  400a48:	43 00 00 00 34 00 05 10 	addiu $5,$16,52
  400a50:	43 00 00 00 04 00 06 00 	addiu $6,$0,4
  400a58:	02 00 00 00 14 43 11 00 	jal 450c50 <do_fio>
  400a60:	43 00 00 00 00 80 04 1c 	addiu $4,$28,-32768
  400a68:	43 00 00 00 38 00 05 10 	addiu $5,$16,56
  400a70:	43 00 00 00 04 00 06 00 	addiu $6,$0,4
  400a78:	02 00 00 00 14 43 11 00 	jal 450c50 <do_fio>
  400a80:	43 00 00 00 00 80 04 1c 	addiu $4,$28,-32768
  400a88:	43 00 00 00 3c 00 05 10 	addiu $5,$16,60
  400a90:	43 00 00 00 04 00 06 00 	addiu $6,$0,4
  400a98:	02 00 00 00 14 43 11 00 	jal 450c50 <do_fio>
  400aa0:	43 00 00 00 00 80 04 1c 	addiu $4,$28,-32768
  400aa8:	43 00 00 00 40 00 05 10 	addiu $5,$16,64
  400ab0:	43 00 00 00 04 00 06 00 	addiu $6,$0,4
  400ab8:	02 00 00 00 14 43 11 00 	jal 450c50 <do_fio>
  400ac0:	43 00 00 00 00 80 04 1c 	addiu $4,$28,-32768
  400ac8:	43 00 00 00 44 00 05 10 	addiu $5,$16,68
  400ad0:	43 00 00 00 04 00 06 00 	addiu $6,$0,4
  400ad8:	02 00 00 00 14 43 11 00 	jal 450c50 <do_fio>
  400ae0:	43 00 00 00 00 80 04 1c 	addiu $4,$28,-32768
  400ae8:	43 00 00 00 48 00 05 10 	addiu $5,$16,72
  400af0:	43 00 00 00 04 00 06 00 	addiu $6,$0,4
  400af8:	02 00 00 00 14 43 11 00 	jal 450c50 <do_fio>
  400b00:	43 00 00 00 00 80 04 1c 	addiu $4,$28,-32768
  400b08:	43 00 00 00 4c 00 05 10 	addiu $5,$16,76
  400b10:	43 00 00 00 04 00 06 00 	addiu $6,$0,4
  400b18:	02 00 00 00 14 43 11 00 	jal 450c50 <do_fio>
  400b20:	43 00 00 00 00 80 04 1c 	addiu $4,$28,-32768
  400b28:	43 00 00 00 50 00 05 10 	addiu $5,$16,80
  400b30:	43 00 00 00 04 00 06 00 	addiu $6,$0,4
  400b38:	02 00 00 00 14 43 11 00 	jal 450c50 <do_fio>
  400b40:	43 00 00 00 00 80 04 1c 	addiu $4,$28,-32768
  400b48:	43 00 00 00 54 00 05 10 	addiu $5,$16,84
  400b50:	43 00 00 00 04 00 06 00 	addiu $6,$0,4
  400b58:	02 00 00 00 14 43 11 00 	jal 450c50 <do_fio>
  400b60:	43 00 00 00 00 80 04 1c 	addiu $4,$28,-32768
  400b68:	43 00 00 00 58 00 05 10 	addiu $5,$16,88
  400b70:	43 00 00 00 04 00 06 00 	addiu $6,$0,4
  400b78:	02 00 00 00 14 43 11 00 	jal 450c50 <do_fio>
  400b80:	43 00 00 00 00 80 04 1c 	addiu $4,$28,-32768
  400b88:	43 00 00 00 5c 00 05 10 	addiu $5,$16,92
  400b90:	43 00 00 00 04 00 06 00 	addiu $6,$0,4
  400b98:	02 00 00 00 14 43 11 00 	jal 450c50 <do_fio>
  400ba0:	43 00 00 00 00 80 04 1c 	addiu $4,$28,-32768
  400ba8:	43 00 00 00 60 00 05 10 	addiu $5,$16,96
  400bb0:	43 00 00 00 04 00 06 00 	addiu $6,$0,4
  400bb8:	02 00 00 00 14 43 11 00 	jal 450c50 <do_fio>
  400bc0:	43 00 00 00 00 80 04 1c 	addiu $4,$28,-32768
  400bc8:	43 00 00 00 64 00 05 10 	addiu $5,$16,100
  400bd0:	43 00 00 00 04 00 06 00 	addiu $6,$0,4
  400bd8:	02 00 00 00 14 43 11 00 	jal 450c50 <do_fio>
  400be0:	43 00 00 00 00 80 04 1c 	addiu $4,$28,-32768
  400be8:	43 00 00 00 68 00 05 10 	addiu $5,$16,104
  400bf0:	43 00 00 00 04 00 06 00 	addiu $6,$0,4
  400bf8:	02 00 00 00 14 43 11 00 	jal 450c50 <do_fio>
  400c00:	43 00 00 00 00 80 04 1c 	addiu $4,$28,-32768
  400c08:	43 00 00 00 6c 00 05 10 	addiu $5,$16,108
  400c10:	43 00 00 00 04 00 06 00 	addiu $6,$0,4
  400c18:	02 00 00 00 14 43 11 00 	jal 450c50 <do_fio>
  400c20:	43 00 00 00 00 80 04 1c 	addiu $4,$28,-32768
  400c28:	43 00 00 00 70 00 05 10 	addiu $5,$16,112
  400c30:	43 00 00 00 04 00 06 00 	addiu $6,$0,4
  400c38:	02 00 00 00 14 43 11 00 	jal 450c50 <do_fio>
  400c40:	43 00 00 00 00 80 04 1c 	addiu $4,$28,-32768
  400c48:	43 00 00 00 74 00 05 10 	addiu $5,$16,116
  400c50:	43 00 00 00 04 00 06 00 	addiu $6,$0,4
  400c58:	02 00 00 00 14 43 11 00 	jal 450c50 <do_fio>
  400c60:	43 00 00 00 00 80 04 1c 	addiu $4,$28,-32768
  400c68:	43 00 00 00 78 00 05 10 	addiu $5,$16,120
  400c70:	43 00 00 00 04 00 06 00 	addiu $6,$0,4
  400c78:	02 00 00 00 14 43 11 00 	jal 450c50 <do_fio>
  400c80:	43 00 00 00 00 80 04 1c 	addiu $4,$28,-32768
  400c88:	43 00 00 00 7c 00 05 10 	addiu $5,$16,124
  400c90:	43 00 00 00 04 00 06 00 	addiu $6,$0,4
  400c98:	02 00 00 00 14 43 11 00 	jal 450c50 <do_fio>
  400ca0:	43 00 00 00 00 80 04 1c 	addiu $4,$28,-32768
  400ca8:	43 00 00 00 80 00 05 10 	addiu $5,$16,128
  400cb0:	43 00 00 00 04 00 06 00 	addiu $6,$0,4
  400cb8:	02 00 00 00 14 43 11 00 	jal 450c50 <do_fio>
  400cc0:	43 00 00 00 00 80 04 1c 	addiu $4,$28,-32768
  400cc8:	43 00 00 00 84 00 05 10 	addiu $5,$16,132
  400cd0:	43 00 00 00 04 00 06 00 	addiu $6,$0,4
  400cd8:	02 00 00 00 14 43 11 00 	jal 450c50 <do_fio>
  400ce0:	43 00 00 00 00 80 04 1c 	addiu $4,$28,-32768
  400ce8:	a2 00 00 00 93 10 10 00 	lui $16,4243
  400cf0:	43 00 00 00 60 f8 10 10 	addiu $16,$16,-1952
  400cf8:	42 00 00 00 00 05 10 00 	addu $5,$0,$16
  400d00:	43 00 00 00 04 00 06 00 	addiu $6,$0,4
  400d08:	02 00 00 00 14 43 11 00 	jal 450c50 <do_fio>
  400d10:	43 00 00 00 00 80 04 1c 	addiu $4,$28,-32768
  400d18:	43 00 00 00 04 00 05 10 	addiu $5,$16,4
  400d20:	43 00 00 00 04 00 06 00 	addiu $6,$0,4
  400d28:	02 00 00 00 14 43 11 00 	jal 450c50 <do_fio>
  400d30:	43 00 00 00 00 80 04 1c 	addiu $4,$28,-32768
  400d38:	43 00 00 00 08 00 05 10 	addiu $5,$16,8
  400d40:	43 00 00 00 04 00 06 00 	addiu $6,$0,4
  400d48:	02 00 00 00 14 43 11 00 	jal 450c50 <do_fio>
  400d50:	43 00 00 00 00 80 04 1c 	addiu $4,$28,-32768
  400d58:	43 00 00 00 0c 00 05 10 	addiu $5,$16,12
  400d60:	43 00 00 00 04 00 06 00 	addiu $6,$0,4
  400d68:	02 00 00 00 14 43 11 00 	jal 450c50 <do_fio>
  400d70:	43 00 00 00 00 80 04 1c 	addiu $4,$28,-32768
  400d78:	43 00 00 00 10 00 05 10 	addiu $5,$16,16
  400d80:	43 00 00 00 04 00 06 00 	addiu $6,$0,4
  400d88:	02 00 00 00 14 43 11 00 	jal 450c50 <do_fio>
  400d90:	02 00 00 00 70 36 11 00 	jal 44d9c0 <e_rsfe>
  400d98:	a2 00 00 00 93 10 04 00 	lui $4,4243
  400da0:	43 00 00 00 d0 ad 04 04 	addiu $4,$4,-21040
  400da8:	02 00 00 00 fe 45 11 00 	jal 4517f8 <s_rsfe>
  400db0:	43 00 00 00 00 80 04 1c 	addiu $4,$28,-32768
  400db8:	43 00 00 00 38 01 05 1d 	addiu $5,$29,312
  400dc0:	43 00 00 00 08 00 06 00 	addiu $6,$0,8
  400dc8:	02 00 00 00 14 43 11 00 	jal 450c50 <do_fio>
  400dd0:	43 00 00 00 00 80 04 1c 	addiu $4,$28,-32768
  400dd8:	43 00 00 00 40 01 05 1d 	addiu $5,$29,320
  400de0:	43 00 00 00 08 00 06 00 	addiu $6,$0,8
  400de8:	02 00 00 00 14 43 11 00 	jal 450c50 <do_fio>
  400df0:	43 00 00 00 00 80 04 1c 	addiu $4,$28,-32768
  400df8:	43 00 00 00 48 01 05 1d 	addiu $5,$29,328
  400e00:	43 00 00 00 08 00 06 00 	addiu $6,$0,8
  400e08:	02 00 00 00 14 43 11 00 	jal 450c50 <do_fio>
  400e10:	43 00 00 00 00 80 04 1c 	addiu $4,$28,-32768
  400e18:	43 00 00 00 50 01 05 1d 	addiu $5,$29,336
  400e20:	43 00 00 00 08 00 06 00 	addiu $6,$0,8
  400e28:	02 00 00 00 14 43 11 00 	jal 450c50 <do_fio>
  400e30:	43 00 00 00 00 80 04 1c 	addiu $4,$28,-32768
  400e38:	43 00 00 00 58 01 05 1d 	addiu $5,$29,344
  400e40:	43 00 00 00 08 00 06 00 	addiu $6,$0,8
  400e48:	02 00 00 00 14 43 11 00 	jal 450c50 <do_fio>
  400e50:	43 00 00 00 00 80 04 1c 	addiu $4,$28,-32768
  400e58:	43 00 00 00 60 01 05 1d 	addiu $5,$29,352
  400e60:	43 00 00 00 08 00 06 00 	addiu $6,$0,8
  400e68:	02 00 00 00 14 43 11 00 	jal 450c50 <do_fio>
  400e70:	43 00 00 00 00 80 04 1c 	addiu $4,$28,-32768
  400e78:	43 00 00 00 68 01 05 1d 	addiu $5,$29,360
  400e80:	43 00 00 00 08 00 06 00 	addiu $6,$0,8
  400e88:	02 00 00 00 14 43 11 00 	jal 450c50 <do_fio>
  400e90:	43 00 00 00 00 80 04 1c 	addiu $4,$28,-32768
  400e98:	43 00 00 00 70 01 05 1d 	addiu $5,$29,368
  400ea0:	43 00 00 00 08 00 06 00 	addiu $6,$0,8
  400ea8:	02 00 00 00 14 43 11 00 	jal 450c50 <do_fio>
  400eb0:	43 00 00 00 00 80 04 1c 	addiu $4,$28,-32768
  400eb8:	43 00 00 00 78 01 05 1d 	addiu $5,$29,376
  400ec0:	43 00 00 00 08 00 06 00 	addiu $6,$0,8
  400ec8:	02 00 00 00 14 43 11 00 	jal 450c50 <do_fio>
  400ed0:	43 00 00 00 00 80 04 1c 	addiu $4,$28,-32768
  400ed8:	43 00 00 00 80 01 05 1d 	addiu $5,$29,384
  400ee0:	43 00 00 00 08 00 06 00 	addiu $6,$0,8
  400ee8:	02 00 00 00 14 43 11 00 	jal 450c50 <do_fio>
  400ef0:	43 00 00 00 00 80 04 1c 	addiu $4,$28,-32768
  400ef8:	43 00 00 00 88 01 05 1d 	addiu $5,$29,392
  400f00:	43 00 00 00 08 00 06 00 	addiu $6,$0,8
  400f08:	02 00 00 00 14 43 11 00 	jal 450c50 <do_fio>
  400f10:	43 00 00 00 00 80 04 1c 	addiu $4,$28,-32768
  400f18:	a2 00 00 00 93 10 11 00 	lui $17,4243
  400f20:	43 00 00 00 80 f9 11 11 	addiu $17,$17,-1664
  400f28:	42 00 00 00 00 05 11 00 	addu $5,$0,$17
  400f30:	43 00 00 00 08 00 06 00 	addiu $6,$0,8
  400f38:	02 00 00 00 14 43 11 00 	jal 450c50 <do_fio>
  400f40:	43 00 00 00 00 80 04 1c 	addiu $4,$28,-32768
  400f48:	43 00 00 00 08 00 05 11 	addiu $5,$17,8
  400f50:	43 00 00 00 08 00 06 00 	addiu $6,$0,8
  400f58:	02 00 00 00 14 43 11 00 	jal 450c50 <do_fio>
  400f60:	43 00 00 00 00 80 04 1c 	addiu $4,$28,-32768
  400f68:	43 00 00 00 18 00 05 11 	addiu $5,$17,24
  400f70:	43 00 00 00 08 00 06 00 	addiu $6,$0,8
  400f78:	02 00 00 00 14 43 11 00 	jal 450c50 <do_fio>
  400f80:	43 00 00 00 00 80 04 1c 	addiu $4,$28,-32768
  400f88:	43 00 00 00 20 00 05 11 	addiu $5,$17,32
  400f90:	43 00 00 00 08 00 06 00 	addiu $6,$0,8
  400f98:	02 00 00 00 14 43 11 00 	jal 450c50 <do_fio>
  400fa0:	43 00 00 00 00 80 04 1c 	addiu $4,$28,-32768
  400fa8:	43 00 00 00 28 00 05 11 	addiu $5,$17,40
  400fb0:	43 00 00 00 08 00 06 00 	addiu $6,$0,8
  400fb8:	02 00 00 00 14 43 11 00 	jal 450c50 <do_fio>
  400fc0:	43 00 00 00 00 80 04 1c 	addiu $4,$28,-32768
  400fc8:	43 00 00 00 30 00 05 11 	addiu $5,$17,48
  400fd0:	43 00 00 00 08 00 06 00 	addiu $6,$0,8
  400fd8:	02 00 00 00 14 43 11 00 	jal 450c50 <do_fio>
  400fe0:	43 00 00 00 00 80 04 1c 	addiu $4,$28,-32768
  400fe8:	43 00 00 00 38 00 05 11 	addiu $5,$17,56
  400ff0:	43 00 00 00 08 00 06 00 	addiu $6,$0,8
  400ff8:	02 00 00 00 14 43 11 00 	jal 450c50 <do_fio>
  401000:	43 00 00 00 00 80 04 1c 	addiu $4,$28,-32768
  401008:	43 00 00 00 40 00 05 11 	addiu $5,$17,64
  401010:	43 00 00 00 08 00 06 00 	addiu $6,$0,8
  401018:	02 00 00 00 14 43 11 00 	jal 450c50 <do_fio>
  401020:	43 00 00 00 00 80 04 1c 	addiu $4,$28,-32768
  401028:	43 00 00 00 48 00 05 11 	addiu $5,$17,72
  401030:	43 00 00 00 08 00 06 00 	addiu $6,$0,8
  401038:	02 00 00 00 14 43 11 00 	jal 450c50 <do_fio>
  401040:	43 00 00 00 00 80 04 1c 	addiu $4,$28,-32768
  401048:	43 00 00 00 50 00 05 11 	addiu $5,$17,80
  401050:	43 00 00 00 08 00 06 00 	addiu $6,$0,8
  401058:	02 00 00 00 14 43 11 00 	jal 450c50 <do_fio>
  401060:	43 00 00 00 00 80 04 1c 	addiu $4,$28,-32768
  401068:	a2 00 00 00 93 10 10 00 	lui $16,4243
  401070:	43 00 00 00 90 f8 10 10 	addiu $16,$16,-1904
  401078:	42 00 00 00 00 05 10 00 	addu $5,$0,$16
  401080:	43 00 00 00 08 00 06 00 	addiu $6,$0,8
  401088:	02 00 00 00 14 43 11 00 	jal 450c50 <do_fio>
  401090:	43 00 00 00 00 80 04 1c 	addiu $4,$28,-32768
  401098:	43 00 00 00 08 00 05 10 	addiu $5,$16,8
  4010a0:	43 00 00 00 08 00 06 00 	addiu $6,$0,8
  4010a8:	02 00 00 00 14 43 11 00 	jal 450c50 <do_fio>
  4010b0:	43 00 00 00 00 80 04 1c 	addiu $4,$28,-32768
  4010b8:	43 00 00 00 10 00 05 10 	addiu $5,$16,16
  4010c0:	43 00 00 00 08 00 06 00 	addiu $6,$0,8
  4010c8:	02 00 00 00 14 43 11 00 	jal 450c50 <do_fio>
  4010d0:	43 00 00 00 00 80 04 1c 	addiu $4,$28,-32768
  4010d8:	43 00 00 00 18 00 05 10 	addiu $5,$16,24
  4010e0:	43 00 00 00 08 00 06 00 	addiu $6,$0,8
  4010e8:	02 00 00 00 14 43 11 00 	jal 450c50 <do_fio>
  4010f0:	43 00 00 00 00 80 04 1c 	addiu $4,$28,-32768
  4010f8:	43 00 00 00 20 00 05 10 	addiu $5,$16,32
  401100:	43 00 00 00 08 00 06 00 	addiu $6,$0,8
  401108:	02 00 00 00 14 43 11 00 	jal 450c50 <do_fio>
  401110:	43 00 00 00 00 80 04 1c 	addiu $4,$28,-32768
  401118:	43 00 00 00 58 00 05 11 	addiu $5,$17,88
  401120:	43 00 00 00 08 00 06 00 	addiu $6,$0,8
  401128:	02 00 00 00 14 43 11 00 	jal 450c50 <do_fio>
  401130:	43 00 00 00 00 80 04 1c 	addiu $4,$28,-32768
  401138:	43 00 00 00 60 00 05 11 	addiu $5,$17,96
  401140:	43 00 00 00 08 00 06 00 	addiu $6,$0,8
  401148:	02 00 00 00 14 43 11 00 	jal 450c50 <do_fio>
  401150:	43 00 00 00 00 80 04 1c 	addiu $4,$28,-32768
  401158:	43 00 00 00 90 01 05 1d 	addiu $5,$29,400
  401160:	43 00 00 00 08 00 06 00 	addiu $6,$0,8
  401168:	02 00 00 00 14 43 11 00 	jal 450c50 <do_fio>
  401170:	43 00 00 00 00 80 04 1c 	addiu $4,$28,-32768
  401178:	43 00 00 00 98 01 05 1d 	addiu $5,$29,408
  401180:	43 00 00 00 08 00 06 00 	addiu $6,$0,8
  401188:	02 00 00 00 14 43 11 00 	jal 450c50 <do_fio>
  401190:	43 00 00 00 00 80 04 1c 	addiu $4,$28,-32768
  401198:	43 00 00 00 28 00 05 10 	addiu $5,$16,40
  4011a0:	43 00 00 00 08 00 06 00 	addiu $6,$0,8
  4011a8:	02 00 00 00 14 43 11 00 	jal 450c50 <do_fio>
  4011b0:	43 00 00 00 00 80 04 1c 	addiu $4,$28,-32768
  4011b8:	43 00 00 00 30 00 05 10 	addiu $5,$16,48
  4011c0:	43 00 00 00 08 00 06 00 	addiu $6,$0,8
  4011c8:	02 00 00 00 14 43 11 00 	jal 450c50 <do_fio>
  4011d0:	43 00 00 00 00 80 04 1c 	addiu $4,$28,-32768
  4011d8:	43 00 00 00 38 00 05 10 	addiu $5,$16,56
  4011e0:	43 00 00 00 08 00 06 00 	addiu $6,$0,8
  4011e8:	02 00 00 00 14 43 11 00 	jal 450c50 <do_fio>
  4011f0:	43 00 00 00 00 80 04 1c 	addiu $4,$28,-32768
  4011f8:	43 00 00 00 40 00 05 10 	addiu $5,$16,64
  401200:	43 00 00 00 08 00 06 00 	addiu $6,$0,8
  401208:	02 00 00 00 14 43 11 00 	jal 450c50 <do_fio>
  401210:	43 00 00 00 00 80 04 1c 	addiu $4,$28,-32768
  401218:	43 00 00 00 48 00 05 10 	addiu $5,$16,72
  401220:	43 00 00 00 08 00 06 00 	addiu $6,$0,8
  401228:	02 00 00 00 14 43 11 00 	jal 450c50 <do_fio>
  401230:	02 00 00 00 70 36 11 00 	jal 44d9c0 <e_rsfe>
  401238:	43 00 00 00 a8 00 04 1d 	addiu $4,$29,168
  401240:	34 00 00 00 a8 00 00 1d 	sw $0,168($29)
  401248:	34 00 00 00 ac 00 12 1d 	sw $18,172($29)
  401250:	34 00 00 00 b0 00 00 1d 	sw $0,176($29)
  401258:	02 00 00 00 a8 46 11 00 	jal 451aa0 <f_clos>
  401260:	01 00 00 00 56 14 10 00 	j 405158 <MAIN__+0x4f68>
  401268:	22 00 00 00 f0 00 03 1d 	lbu $3,240($29)
  401270:	43 00 00 00 4e 00 02 00 	addiu $2,$0,78
  401278:	05 00 00 00 04 00 02 03 	beq $3,$2,401290 <MAIN__+0x10a0>
  401280:	43 00 00 00 6e 00 02 00 	addiu $2,$0,110
  401288:	06 00 00 00 20 05 02 03 	bne $3,$2,402710 <MAIN__+0x2520>
  401290:	43 00 00 00 80 00 04 1d 	addiu $4,$29,128
  401298:	43 00 00 00 09 00 02 00 	addiu $2,$0,9
  4012a0:	34 00 00 00 84 00 02 1d 	sw $2,132($29)
  4012a8:	43 00 00 00 07 00 02 00 	addiu $2,$0,7
  4012b0:	34 00 00 00 8c 00 02 1d 	sw $2,140($29)
  4012b8:	43 00 00 00 a8 80 02 1c 	addiu $2,$28,-32600
  4012c0:	34 00 00 00 88 00 02 1d 	sw $2,136($29)
  4012c8:	43 00 00 00 a4 80 02 1c 	addiu $2,$28,-32604
  4012d0:	34 00 00 00 80 00 00 1d 	sw $0,128($29)
  4012d8:	34 00 00 00 9c 00 00 1d 	sw $0,156($29)
  4012e0:	34 00 00 00 90 00 02 1d 	sw $2,144($29)
  4012e8:	34 00 00 00 94 00 00 1d 	sw $0,148($29)
  4012f0:	34 00 00 00 98 00 00 1d 	sw $0,152($29)
  4012f8:	34 00 00 00 a0 00 00 1d 	sw $0,160($29)
  401300:	02 00 00 00 90 32 11 00 	jal 44ca40 <f_open>
  401308:	a2 00 00 00 93 10 04 00 	lui $4,4243
  401310:	43 00 00 00 e4 ad 04 04 	addiu $4,$4,-21020
  401318:	02 00 00 00 fe 45 11 00 	jal 4517f8 <s_rsfe>
  401320:	43 00 00 00 00 80 04 1c 	addiu $4,$28,-32768
  401328:	43 00 00 00 b8 00 10 1d 	addiu $16,$29,184
  401330:	42 00 00 00 00 05 10 00 	addu $5,$0,$16
  401338:	43 00 00 00 31 00 06 00 	addiu $6,$0,49
  401340:	02 00 00 00 14 43 11 00 	jal 450c50 <do_fio>
  401348:	02 00 00 00 70 36 11 00 	jal 44d9c0 <e_rsfe>
  401350:	a2 00 00 00 93 10 04 00 	lui $4,4243
  401358:	43 00 00 00 f8 ad 04 04 	addiu $4,$4,-21000
  401360:	02 00 00 00 c0 35 11 00 	jal 44d700 <s_wsfe>
  401368:	43 00 00 00 00 80 04 1c 	addiu $4,$28,-32768
  401370:	42 00 00 00 00 05 10 00 	addu $5,$0,$16
  401378:	43 00 00 00 31 00 06 00 	addiu $6,$0,49
  401380:	02 00 00 00 14 43 11 00 	jal 450c50 <do_fio>
  401388:	02 00 00 00 06 37 11 00 	jal 44dc18 <e_wsfe>
  401390:	a2 00 00 00 93 10 04 00 	lui $4,4243
  401398:	43 00 00 00 e4 ad 04 04 	addiu $4,$4,-21020
  4013a0:	02 00 00 00 fe 45 11 00 	jal 4517f8 <s_rsfe>
  4013a8:	43 00 00 00 00 80 04 1c 	addiu $4,$28,-32768
  4013b0:	42 00 00 00 00 05 10 00 	addu $5,$0,$16
  4013b8:	43 00 00 00 31 00 06 00 	addiu $6,$0,49
  4013c0:	02 00 00 00 14 43 11 00 	jal 450c50 <do_fio>
  4013c8:	02 00 00 00 70 36 11 00 	jal 44d9c0 <e_rsfe>
  4013d0:	a2 00 00 00 93 10 04 00 	lui $4,4243
  4013d8:	43 00 00 00 f8 ad 04 04 	addiu $4,$4,-21000
  4013e0:	02 00 00 00 c0 35 11 00 	jal 44d700 <s_wsfe>
  4013e8:	43 00 00 00 00 80 04 1c 	addiu $4,$28,-32768
  4013f0:	42 00 00 00 00 05 10 00 	addu $5,$0,$16
  4013f8:	43 00 00 00 31 00 06 00 	addiu $6,$0,49
  401400:	02 00 00 00 14 43 11 00 	jal 450c50 <do_fio>
  401408:	02 00 00 00 06 37 11 00 	jal 44dc18 <e_wsfe>
  401410:	a2 00 00 00 93 10 04 00 	lui $4,4243
  401418:	43 00 00 00 e4 ad 04 04 	addiu $4,$4,-21020
  401420:	02 00 00 00 fe 45 11 00 	jal 4517f8 <s_rsfe>
  401428:	43 00 00 00 00 80 04 1c 	addiu $4,$28,-32768
  401430:	42 00 00 00 00 05 10 00 	addu $5,$0,$16
  401438:	43 00 00 00 31 00 06 00 	addiu $6,$0,49
  401440:	02 00 00 00 14 43 11 00 	jal 450c50 <do_fio>
  401448:	02 00 00 00 70 36 11 00 	jal 44d9c0 <e_rsfe>
  401450:	a2 00 00 00 93 10 04 00 	lui $4,4243
  401458:	43 00 00 00 f8 ad 04 04 	addiu $4,$4,-21000
  401460:	02 00 00 00 c0 35 11 00 	jal 44d700 <s_wsfe>
  401468:	43 00 00 00 00 80 04 1c 	addiu $4,$28,-32768
  401470:	42 00 00 00 00 05 10 00 	addu $5,$0,$16
  401478:	43 00 00 00 31 00 06 00 	addiu $6,$0,49
  401480:	02 00 00 00 14 43 11 00 	jal 450c50 <do_fio>
  401488:	02 00 00 00 06 37 11 00 	jal 44dc18 <e_wsfe>
  401490:	43 00 00 00 04 00 11 00 	addiu $17,$0,4
  401498:	a2 00 00 00 93 10 04 00 	lui $4,4243
  4014a0:	43 00 00 00 e4 ad 04 04 	addiu $4,$4,-21020
  4014a8:	02 00 00 00 fe 45 11 00 	jal 4517f8 <s_rsfe>
  4014b0:	43 00 00 00 00 80 04 1c 	addiu $4,$28,-32768
  4014b8:	42 00 00 00 00 05 10 00 	addu $5,$0,$16
  4014c0:	43 00 00 00 31 00 06 00 	addiu $6,$0,49
  4014c8:	02 00 00 00 14 43 11 00 	jal 450c50 <do_fio>
  4014d0:	02 00 00 00 70 36 11 00 	jal 44d9c0 <e_rsfe>
  4014d8:	a2 00 00 00 93 10 04 00 	lui $4,4243
  4014e0:	43 00 00 00 f8 ad 04 04 	addiu $4,$4,-21000
  4014e8:	02 00 00 00 c0 35 11 00 	jal 44d700 <s_wsfe>
  4014f0:	43 00 00 00 00 80 04 1c 	addiu $4,$28,-32768
  4014f8:	42 00 00 00 00 05 10 00 	addu $5,$0,$16
  401500:	43 00 00 00 31 00 06 00 	addiu $6,$0,49
  401508:	02 00 00 00 14 43 11 00 	jal 450c50 <do_fio>
  401510:	02 00 00 00 06 37 11 00 	jal 44dc18 <e_wsfe>
  401518:	a2 00 00 00 93 10 04 00 	lui $4,4243
  401520:	43 00 00 00 e4 ad 04 04 	addiu $4,$4,-21020
  401528:	02 00 00 00 fe 45 11 00 	jal 4517f8 <s_rsfe>
  401530:	43 00 00 00 00 80 04 1c 	addiu $4,$28,-32768
  401538:	42 00 00 00 00 05 10 00 	addu $5,$0,$16
  401540:	43 00 00 00 31 00 06 00 	addiu $6,$0,49
  401548:	02 00 00 00 14 43 11 00 	jal 450c50 <do_fio>
  401550:	02 00 00 00 70 36 11 00 	jal 44d9c0 <e_rsfe>
  401558:	a2 00 00 00 93 10 04 00 	lui $4,4243
  401560:	43 00 00 00 f8 ad 04 04 	addiu $4,$4,-21000
  401568:	02 00 00 00 c0 35 11 00 	jal 44d700 <s_wsfe>
  401570:	43 00 00 00 00 80 04 1c 	addiu $4,$28,-32768
  401578:	42 00 00 00 00 05 10 00 	addu $5,$0,$16
  401580:	43 00 00 00 31 00 06 00 	addiu $6,$0,49
  401588:	02 00 00 00 14 43 11 00 	jal 450c50 <do_fio>
  401590:	02 00 00 00 06 37 11 00 	jal 44dc18 <e_wsfe>
  401598:	a2 00 00 00 93 10 04 00 	lui $4,4243
  4015a0:	43 00 00 00 e4 ad 04 04 	addiu $4,$4,-21020
  4015a8:	02 00 00 00 fe 45 11 00 	jal 4517f8 <s_rsfe>
  4015b0:	43 00 00 00 00 80 04 1c 	addiu $4,$28,-32768
  4015b8:	42 00 00 00 00 05 10 00 	addu $5,$0,$16
  4015c0:	43 00 00 00 31 00 06 00 	addiu $6,$0,49
  4015c8:	02 00 00 00 14 43 11 00 	jal 450c50 <do_fio>
  4015d0:	02 00 00 00 70 36 11 00 	jal 44d9c0 <e_rsfe>
  4015d8:	a2 00 00 00 93 10 04 00 	lui $4,4243
  4015e0:	43 00 00 00 f8 ad 04 04 	addiu $4,$4,-21000
  4015e8:	02 00 00 00 c0 35 11 00 	jal 44d700 <s_wsfe>
  4015f0:	43 00 00 00 00 80 04 1c 	addiu $4,$28,-32768
  4015f8:	42 00 00 00 00 05 10 00 	addu $5,$0,$16
  401600:	43 00 00 00 31 00 06 00 	addiu $6,$0,49
  401608:	02 00 00 00 14 43 11 00 	jal 450c50 <do_fio>
  401610:	02 00 00 00 06 37 11 00 	jal 44dc18 <e_wsfe>
  401618:	a2 00 00 00 93 10 04 00 	lui $4,4243
  401620:	43 00 00 00 e4 ad 04 04 	addiu $4,$4,-21020
  401628:	02 00 00 00 fe 45 11 00 	jal 4517f8 <s_rsfe>
  401630:	43 00 00 00 00 80 04 1c 	addiu $4,$28,-32768
  401638:	42 00 00 00 00 05 10 00 	addu $5,$0,$16
  401640:	43 00 00 00 31 00 06 00 	addiu $6,$0,49
  401648:	02 00 00 00 14 43 11 00 	jal 450c50 <do_fio>
  401650:	02 00 00 00 70 36 11 00 	jal 44d9c0 <e_rsfe>
  401658:	a2 00 00 00 93 10 04 00 	lui $4,4243
  401660:	43 00 00 00 f8 ad 04 04 	addiu $4,$4,-21000
  401668:	02 00 00 00 c0 35 11 00 	jal 44d700 <s_wsfe>
  401670:	43 00 00 00 00 80 04 1c 	addiu $4,$28,-32768
  401678:	42 00 00 00 00 05 10 00 	addu $5,$0,$16
  401680:	43 00 00 00 31 00 06 00 	addiu $6,$0,49
  401688:	02 00 00 00 14 43 11 00 	jal 450c50 <do_fio>
  401690:	02 00 00 00 06 37 11 00 	jal 44dc18 <e_wsfe>
  401698:	43 00 00 00 04 00 11 11 	addiu $17,$17,4
  4016a0:	5c 00 00 00 08 00 02 11 	slti $2,$17,8
  4016a8:	06 00 00 00 7a ff 00 02 	bne $2,$0,401498 <MAIN__+0x12a8>
  4016b0:	a2 00 00 00 93 10 04 00 	lui $4,4243
  4016b8:	43 00 00 00 0c ae 04 04 	addiu $4,$4,-20980
  4016c0:	02 00 00 00 fe 45 11 00 	jal 4517f8 <s_rsfe>
  4016c8:	43 00 00 00 00 80 04 1c 	addiu $4,$28,-32768
  4016d0:	43 00 00 00 f4 00 05 1d 	addiu $5,$29,244
  4016d8:	43 00 00 00 04 00 06 00 	addiu $6,$0,4
  4016e0:	02 00 00 00 14 43 11 00 	jal 450c50 <do_fio>
  4016e8:	43 00 00 00 00 80 04 1c 	addiu $4,$28,-32768
  4016f0:	43 00 00 00 f8 00 05 1d 	addiu $5,$29,248
  4016f8:	43 00 00 00 04 00 06 00 	addiu $6,$0,4
  401700:	02 00 00 00 14 43 11 00 	jal 450c50 <do_fio>
  401708:	43 00 00 00 00 80 04 1c 	addiu $4,$28,-32768
  401710:	43 00 00 00 fc 00 05 1d 	addiu $5,$29,252
  401718:	43 00 00 00 04 00 06 00 	addiu $6,$0,4
  401720:	02 00 00 00 14 43 11 00 	jal 450c50 <do_fio>
  401728:	43 00 00 00 00 80 04 1c 	addiu $4,$28,-32768
  401730:	43 00 00 00 04 01 05 1d 	addiu $5,$29,260
  401738:	43 00 00 00 04 00 06 00 	addiu $6,$0,4
  401740:	02 00 00 00 14 43 11 00 	jal 450c50 <do_fio>
  401748:	43 00 00 00 00 80 04 1c 	addiu $4,$28,-32768
  401750:	43 00 00 00 08 01 05 1d 	addiu $5,$29,264
  401758:	43 00 00 00 04 00 06 00 	addiu $6,$0,4
  401760:	02 00 00 00 14 43 11 00 	jal 450c50 <do_fio>
  401768:	43 00 00 00 00 80 04 1c 	addiu $4,$28,-32768
  401770:	43 00 00 00 00 01 05 1d 	addiu $5,$29,256
  401778:	43 00 00 00 04 00 06 00 	addiu $6,$0,4
  401780:	02 00 00 00 14 43 11 00 	jal 450c50 <do_fio>
  401788:	43 00 00 00 00 80 04 1c 	addiu $4,$28,-32768
  401790:	43 00 00 00 0c 01 05 1d 	addiu $5,$29,268
  401798:	43 00 00 00 04 00 06 00 	addiu $6,$0,4
  4017a0:	02 00 00 00 14 43 11 00 	jal 450c50 <do_fio>
  4017a8:	43 00 00 00 00 80 04 1c 	addiu $4,$28,-32768
  4017b0:	43 00 00 00 10 01 05 1d 	addiu $5,$29,272
  4017b8:	43 00 00 00 04 00 06 00 	addiu $6,$0,4
  4017c0:	02 00 00 00 14 43 11 00 	jal 450c50 <do_fio>
  4017c8:	43 00 00 00 00 80 04 1c 	addiu $4,$28,-32768
  4017d0:	43 00 00 00 14 01 05 1d 	addiu $5,$29,276
  4017d8:	43 00 00 00 04 00 06 00 	addiu $6,$0,4
  4017e0:	02 00 00 00 14 43 11 00 	jal 450c50 <do_fio>
  4017e8:	43 00 00 00 00 80 04 1c 	addiu $4,$28,-32768
  4017f0:	43 00 00 00 18 01 05 1d 	addiu $5,$29,280
  4017f8:	43 00 00 00 04 00 06 00 	addiu $6,$0,4
  401800:	02 00 00 00 14 43 11 00 	jal 450c50 <do_fio>
  401808:	43 00 00 00 00 80 04 1c 	addiu $4,$28,-32768
  401810:	43 00 00 00 1c 01 05 1d 	addiu $5,$29,284
  401818:	43 00 00 00 04 00 06 00 	addiu $6,$0,4
  401820:	02 00 00 00 14 43 11 00 	jal 450c50 <do_fio>
  401828:	43 00 00 00 00 80 04 1c 	addiu $4,$28,-32768
  401830:	43 00 00 00 20 01 05 1d 	addiu $5,$29,288
  401838:	43 00 00 00 04 00 06 00 	addiu $6,$0,4
  401840:	02 00 00 00 14 43 11 00 	jal 450c50 <do_fio>
  401848:	43 00 00 00 00 80 04 1c 	addiu $4,$28,-32768
  401850:	43 00 00 00 24 01 05 1d 	addiu $5,$29,292
  401858:	43 00 00 00 04 00 06 00 	addiu $6,$0,4
  401860:	02 00 00 00 14 43 11 00 	jal 450c50 <do_fio>
  401868:	43 00 00 00 00 80 04 1c 	addiu $4,$28,-32768
  401870:	43 00 00 00 28 01 05 1d 	addiu $5,$29,296
  401878:	43 00 00 00 04 00 06 00 	addiu $6,$0,4
  401880:	02 00 00 00 14 43 11 00 	jal 450c50 <do_fio>
  401888:	43 00 00 00 00 80 04 1c 	addiu $4,$28,-32768
  401890:	43 00 00 00 2c 01 05 1d 	addiu $5,$29,300
  401898:	43 00 00 00 04 00 06 00 	addiu $6,$0,4
  4018a0:	02 00 00 00 14 43 11 00 	jal 450c50 <do_fio>
  4018a8:	43 00 00 00 00 80 04 1c 	addiu $4,$28,-32768
  4018b0:	43 00 00 00 30 01 05 1d 	addiu $5,$29,304
  4018b8:	43 00 00 00 04 00 06 00 	addiu $6,$0,4
  4018c0:	02 00 00 00 14 43 11 00 	jal 450c50 <do_fio>
  4018c8:	43 00 00 00 00 80 04 1c 	addiu $4,$28,-32768
  4018d0:	43 00 00 00 34 01 05 1d 	addiu $5,$29,308
  4018d8:	43 00 00 00 04 00 06 00 	addiu $6,$0,4
  4018e0:	02 00 00 00 14 43 11 00 	jal 450c50 <do_fio>
  4018e8:	43 00 00 00 00 80 04 1c 	addiu $4,$28,-32768
  4018f0:	a2 00 00 00 93 10 10 00 	lui $16,4243
  4018f8:	43 00 00 00 d0 f7 10 10 	addiu $16,$16,-2096
  401900:	42 00 00 00 00 05 10 00 	addu $5,$0,$16
  401908:	43 00 00 00 04 00 06 00 	addiu $6,$0,4
  401910:	02 00 00 00 14 43 11 00 	jal 450c50 <do_fio>
  401918:	43 00 00 00 00 80 04 1c 	addiu $4,$28,-32768
  401920:	43 00 00 00 04 00 05 10 	addiu $5,$16,4
  401928:	43 00 00 00 04 00 06 00 	addiu $6,$0,4
  401930:	02 00 00 00 14 43 11 00 	jal 450c50 <do_fio>
  401938:	43 00 00 00 00 80 04 1c 	addiu $4,$28,-32768
  401940:	43 00 00 00 f0 ff 05 10 	addiu $5,$16,-16
  401948:	43 00 00 00 04 00 06 00 	addiu $6,$0,4
  401950:	02 00 00 00 14 43 11 00 	jal 450c50 <do_fio>
  401958:	43 00 00 00 00 80 04 1c 	addiu $4,$28,-32768
  401960:	43 00 00 00 f4 ff 05 10 	addiu $5,$16,-12
  401968:	43 00 00 00 04 00 06 00 	addiu $6,$0,4
  401970:	02 00 00 00 14 43 11 00 	jal 450c50 <do_fio>
  401978:	43 00 00 00 00 80 04 1c 	addiu $4,$28,-32768
  401980:	43 00 00 00 f8 ff 05 10 	addiu $5,$16,-8
  401988:	43 00 00 00 04 00 06 00 	addiu $6,$0,4
  401990:	02 00 00 00 14 43 11 00 	jal 450c50 <do_fio>
  401998:	43 00 00 00 00 80 04 1c 	addiu $4,$28,-32768
  4019a0:	43 00 00 00 fc ff 05 10 	addiu $5,$16,-4
  4019a8:	43 00 00 00 04 00 06 00 	addiu $6,$0,4
  4019b0:	02 00 00 00 14 43 11 00 	jal 450c50 <do_fio>
  4019b8:	43 00 00 00 00 80 04 1c 	addiu $4,$28,-32768
  4019c0:	43 00 00 00 08 00 05 10 	addiu $5,$16,8
  4019c8:	43 00 00 00 04 00 06 00 	addiu $6,$0,4
  4019d0:	02 00 00 00 14 43 11 00 	jal 450c50 <do_fio>
  4019d8:	43 00 00 00 00 80 04 1c 	addiu $4,$28,-32768
  4019e0:	43 00 00 00 0c 00 05 10 	addiu $5,$16,12
  4019e8:	43 00 00 00 04 00 06 00 	addiu $6,$0,4
  4019f0:	02 00 00 00 14 43 11 00 	jal 450c50 <do_fio>
  4019f8:	43 00 00 00 00 80 04 1c 	addiu $4,$28,-32768
  401a00:	43 00 00 00 10 00 05 10 	addiu $5,$16,16
  401a08:	43 00 00 00 04 00 06 00 	addiu $6,$0,4
  401a10:	02 00 00 00 14 43 11 00 	jal 450c50 <do_fio>
  401a18:	43 00 00 00 00 80 04 1c 	addiu $4,$28,-32768
  401a20:	43 00 00 00 14 00 05 10 	addiu $5,$16,20
  401a28:	43 00 00 00 04 00 06 00 	addiu $6,$0,4
  401a30:	02 00 00 00 14 43 11 00 	jal 450c50 <do_fio>
  401a38:	43 00 00 00 00 80 04 1c 	addiu $4,$28,-32768
  401a40:	43 00 00 00 18 00 05 10 	addiu $5,$16,24
  401a48:	43 00 00 00 04 00 06 00 	addiu $6,$0,4
  401a50:	02 00 00 00 14 43 11 00 	jal 450c50 <do_fio>
  401a58:	43 00 00 00 00 80 04 1c 	addiu $4,$28,-32768
  401a60:	43 00 00 00 1c 00 05 10 	addiu $5,$16,28
  401a68:	43 00 00 00 04 00 06 00 	addiu $6,$0,4
  401a70:	02 00 00 00 14 43 11 00 	jal 450c50 <do_fio>
  401a78:	43 00 00 00 00 80 04 1c 	addiu $4,$28,-32768
  401a80:	43 00 00 00 20 00 05 10 	addiu $5,$16,32
  401a88:	43 00 00 00 04 00 06 00 	addiu $6,$0,4
  401a90:	02 00 00 00 14 43 11 00 	jal 450c50 <do_fio>
  401a98:	43 00 00 00 00 80 04 1c 	addiu $4,$28,-32768
  401aa0:	43 00 00 00 24 00 05 10 	addiu $5,$16,36
  401aa8:	43 00 00 00 04 00 06 00 	addiu $6,$0,4
  401ab0:	02 00 00 00 14 43 11 00 	jal 450c50 <do_fio>
  401ab8:	43 00 00 00 00 80 04 1c 	addiu $4,$28,-32768
  401ac0:	43 00 00 00 28 00 05 10 	addiu $5,$16,40
  401ac8:	43 00 00 00 04 00 06 00 	addiu $6,$0,4
  401ad0:	02 00 00 00 14 43 11 00 	jal 450c50 <do_fio>
  401ad8:	43 00 00 00 00 80 04 1c 	addiu $4,$28,-32768
  401ae0:	43 00 00 00 2c 00 05 10 	addiu $5,$16,44
  401ae8:	43 00 00 00 04 00 06 00 	addiu $6,$0,4
  401af0:	02 00 00 00 14 43 11 00 	jal 450c50 <do_fio>
  401af8:	43 00 00 00 00 80 04 1c 	addiu $4,$28,-32768
  401b00:	43 00 00 00 30 00 05 10 	addiu $5,$16,48
  401b08:	43 00 00 00 04 00 06 00 	addiu $6,$0,4
  401b10:	02 00 00 00 14 43 11 00 	jal 450c50 <do_fio>
  401b18:	43 00 00 00 00 80 04 1c 	addiu $4,$28,-32768
  401b20:	43 00 00 00 34 00 05 10 	addiu $5,$16,52
  401b28:	43 00 00 00 04 00 06 00 	addiu $6,$0,4
  401b30:	02 00 00 00 14 43 11 00 	jal 450c50 <do_fio>
  401b38:	43 00 00 00 00 80 04 1c 	addiu $4,$28,-32768
  401b40:	43 00 00 00 38 00 05 10 	addiu $5,$16,56
  401b48:	43 00 00 00 04 00 06 00 	addiu $6,$0,4
  401b50:	02 00 00 00 14 43 11 00 	jal 450c50 <do_fio>
  401b58:	43 00 00 00 00 80 04 1c 	addiu $4,$28,-32768
  401b60:	43 00 00 00 3c 00 05 10 	addiu $5,$16,60
  401b68:	43 00 00 00 04 00 06 00 	addiu $6,$0,4
  401b70:	02 00 00 00 14 43 11 00 	jal 450c50 <do_fio>
  401b78:	43 00 00 00 00 80 04 1c 	addiu $4,$28,-32768
  401b80:	43 00 00 00 40 00 05 10 	addiu $5,$16,64
  401b88:	43 00 00 00 04 00 06 00 	addiu $6,$0,4
  401b90:	02 00 00 00 14 43 11 00 	jal 450c50 <do_fio>
  401b98:	43 00 00 00 00 80 04 1c 	addiu $4,$28,-32768
  401ba0:	43 00 00 00 44 00 05 10 	addiu $5,$16,68
  401ba8:	43 00 00 00 04 00 06 00 	addiu $6,$0,4
  401bb0:	02 00 00 00 14 43 11 00 	jal 450c50 <do_fio>
  401bb8:	43 00 00 00 00 80 04 1c 	addiu $4,$28,-32768
  401bc0:	43 00 00 00 48 00 05 10 	addiu $5,$16,72
  401bc8:	43 00 00 00 04 00 06 00 	addiu $6,$0,4
  401bd0:	02 00 00 00 14 43 11 00 	jal 450c50 <do_fio>
  401bd8:	43 00 00 00 00 80 04 1c 	addiu $4,$28,-32768
  401be0:	43 00 00 00 4c 00 05 10 	addiu $5,$16,76
  401be8:	43 00 00 00 04 00 06 00 	addiu $6,$0,4
  401bf0:	02 00 00 00 14 43 11 00 	jal 450c50 <do_fio>
  401bf8:	43 00 00 00 00 80 04 1c 	addiu $4,$28,-32768
  401c00:	43 00 00 00 50 00 05 10 	addiu $5,$16,80
  401c08:	43 00 00 00 04 00 06 00 	addiu $6,$0,4
  401c10:	02 00 00 00 14 43 11 00 	jal 450c50 <do_fio>
  401c18:	43 00 00 00 00 80 04 1c 	addiu $4,$28,-32768
  401c20:	43 00 00 00 54 00 05 10 	addiu $5,$16,84
  401c28:	43 00 00 00 04 00 06 00 	addiu $6,$0,4
  401c30:	02 00 00 00 14 43 11 00 	jal 450c50 <do_fio>
  401c38:	43 00 00 00 00 80 04 1c 	addiu $4,$28,-32768
  401c40:	43 00 00 00 58 00 05 10 	addiu $5,$16,88
  401c48:	43 00 00 00 04 00 06 00 	addiu $6,$0,4
  401c50:	02 00 00 00 14 43 11 00 	jal 450c50 <do_fio>
  401c58:	43 00 00 00 00 80 04 1c 	addiu $4,$28,-32768
  401c60:	43 00 00 00 5c 00 05 10 	addiu $5,$16,92
  401c68:	43 00 00 00 04 00 06 00 	addiu $6,$0,4
  401c70:	02 00 00 00 14 43 11 00 	jal 450c50 <do_fio>
  401c78:	43 00 00 00 00 80 04 1c 	addiu $4,$28,-32768
  401c80:	43 00 00 00 60 00 05 10 	addiu $5,$16,96
  401c88:	43 00 00 00 04 00 06 00 	addiu $6,$0,4
  401c90:	02 00 00 00 14 43 11 00 	jal 450c50 <do_fio>
  401c98:	43 00 00 00 00 80 04 1c 	addiu $4,$28,-32768
  401ca0:	43 00 00 00 64 00 05 10 	addiu $5,$16,100
  401ca8:	43 00 00 00 04 00 06 00 	addiu $6,$0,4
  401cb0:	02 00 00 00 14 43 11 00 	jal 450c50 <do_fio>
  401cb8:	43 00 00 00 00 80 04 1c 	addiu $4,$28,-32768
  401cc0:	43 00 00 00 68 00 05 10 	addiu $5,$16,104
  401cc8:	43 00 00 00 04 00 06 00 	addiu $6,$0,4
  401cd0:	02 00 00 00 14 43 11 00 	jal 450c50 <do_fio>
  401cd8:	43 00 00 00 00 80 04 1c 	addiu $4,$28,-32768
  401ce0:	43 00 00 00 6c 00 05 10 	addiu $5,$16,108
  401ce8:	43 00 00 00 04 00 06 00 	addiu $6,$0,4
  401cf0:	02 00 00 00 14 43 11 00 	jal 450c50 <do_fio>
  401cf8:	43 00 00 00 00 80 04 1c 	addiu $4,$28,-32768
  401d00:	43 00 00 00 70 00 05 10 	addiu $5,$16,112
  401d08:	43 00 00 00 04 00 06 00 	addiu $6,$0,4
  401d10:	02 00 00 00 14 43 11 00 	jal 450c50 <do_fio>
  401d18:	43 00 00 00 00 80 04 1c 	addiu $4,$28,-32768
  401d20:	43 00 00 00 74 00 05 10 	addiu $5,$16,116
  401d28:	43 00 00 00 04 00 06 00 	addiu $6,$0,4
  401d30:	02 00 00 00 14 43 11 00 	jal 450c50 <do_fio>
  401d38:	43 00 00 00 00 80 04 1c 	addiu $4,$28,-32768
  401d40:	43 00 00 00 78 00 05 10 	addiu $5,$16,120
  401d48:	43 00 00 00 04 00 06 00 	addiu $6,$0,4
  401d50:	02 00 00 00 14 43 11 00 	jal 450c50 <do_fio>
  401d58:	43 00 00 00 00 80 04 1c 	addiu $4,$28,-32768
  401d60:	43 00 00 00 7c 00 05 10 	addiu $5,$16,124
  401d68:	43 00 00 00 04 00 06 00 	addiu $6,$0,4
  401d70:	02 00 00 00 14 43 11 00 	jal 450c50 <do_fio>
  401d78:	43 00 00 00 00 80 04 1c 	addiu $4,$28,-32768
  401d80:	43 00 00 00 80 00 05 10 	addiu $5,$16,128
  401d88:	43 00 00 00 04 00 06 00 	addiu $6,$0,4
  401d90:	02 00 00 00 14 43 11 00 	jal 450c50 <do_fio>
  401d98:	43 00 00 00 00 80 04 1c 	addiu $4,$28,-32768
  401da0:	43 00 00 00 84 00 05 10 	addiu $5,$16,132
  401da8:	43 00 00 00 04 00 06 00 	addiu $6,$0,4
  401db0:	02 00 00 00 14 43 11 00 	jal 450c50 <do_fio>
  401db8:	43 00 00 00 00 80 04 1c 	addiu $4,$28,-32768
  401dc0:	a2 00 00 00 93 10 10 00 	lui $16,4243
  401dc8:	43 00 00 00 60 f8 10 10 	addiu $16,$16,-1952
  401dd0:	42 00 00 00 00 05 10 00 	addu $5,$0,$16
  401dd8:	43 00 00 00 04 00 06 00 	addiu $6,$0,4
  401de0:	02 00 00 00 14 43 11 00 	jal 450c50 <do_fio>
  401de8:	43 00 00 00 00 80 04 1c 	addiu $4,$28,-32768
  401df0:	43 00 00 00 04 00 05 10 	addiu $5,$16,4
  401df8:	43 00 00 00 04 00 06 00 	addiu $6,$0,4
  401e00:	02 00 00 00 14 43 11 00 	jal 450c50 <do_fio>
  401e08:	43 00 00 00 00 80 04 1c 	addiu $4,$28,-32768
  401e10:	43 00 00 00 08 00 05 10 	addiu $5,$16,8
  401e18:	43 00 00 00 04 00 06 00 	addiu $6,$0,4
  401e20:	02 00 00 00 14 43 11 00 	jal 450c50 <do_fio>
  401e28:	43 00 00 00 00 80 04 1c 	addiu $4,$28,-32768
  401e30:	43 00 00 00 0c 00 05 10 	addiu $5,$16,12
  401e38:	43 00 00 00 04 00 06 00 	addiu $6,$0,4
  401e40:	02 00 00 00 14 43 11 00 	jal 450c50 <do_fio>
  401e48:	43 00 00 00 00 80 04 1c 	addiu $4,$28,-32768
  401e50:	43 00 00 00 10 00 05 10 	addiu $5,$16,16
  401e58:	43 00 00 00 04 00 06 00 	addiu $6,$0,4
  401e60:	02 00 00 00 14 43 11 00 	jal 450c50 <do_fio>
  401e68:	43 00 00 00 00 80 04 1c 	addiu $4,$28,-32768
  401e70:	43 00 00 00 14 00 05 10 	addiu $5,$16,20
  401e78:	43 00 00 00 04 00 06 00 	addiu $6,$0,4
  401e80:	02 00 00 00 14 43 11 00 	jal 450c50 <do_fio>
  401e88:	43 00 00 00 00 80 04 1c 	addiu $4,$28,-32768
  401e90:	43 00 00 00 18 00 05 10 	addiu $5,$16,24
  401e98:	43 00 00 00 04 00 06 00 	addiu $6,$0,4
  401ea0:	02 00 00 00 14 43 11 00 	jal 450c50 <do_fio>
  401ea8:	43 00 00 00 00 80 04 1c 	addiu $4,$28,-32768
  401eb0:	43 00 00 00 1c 00 05 10 	addiu $5,$16,28
  401eb8:	43 00 00 00 04 00 06 00 	addiu $6,$0,4
  401ec0:	02 00 00 00 14 43 11 00 	jal 450c50 <do_fio>
  401ec8:	43 00 00 00 00 80 04 1c 	addiu $4,$28,-32768
  401ed0:	43 00 00 00 20 00 05 10 	addiu $5,$16,32
  401ed8:	43 00 00 00 04 00 06 00 	addiu $6,$0,4
  401ee0:	02 00 00 00 14 43 11 00 	jal 450c50 <do_fio>
  401ee8:	43 00 00 00 00 80 04 1c 	addiu $4,$28,-32768
  401ef0:	43 00 00 00 24 00 05 10 	addiu $5,$16,36
  401ef8:	43 00 00 00 04 00 06 00 	addiu $6,$0,4
  401f00:	02 00 00 00 14 43 11 00 	jal 450c50 <do_fio>
  401f08:	43 00 00 00 00 80 04 1c 	addiu $4,$28,-32768
  401f10:	43 00 00 00 28 00 05 10 	addiu $5,$16,40
  401f18:	43 00 00 00 04 00 06 00 	addiu $6,$0,4
  401f20:	02 00 00 00 14 43 11 00 	jal 450c50 <do_fio>
  401f28:	02 00 00 00 70 36 11 00 	jal 44d9c0 <e_rsfe>
  401f30:	a2 00 00 00 93 10 04 00 	lui $4,4243
  401f38:	43 00 00 00 20 ae 04 04 	addiu $4,$4,-20960
  401f40:	02 00 00 00 fe 45 11 00 	jal 4517f8 <s_rsfe>
  401f48:	43 00 00 00 00 80 04 1c 	addiu $4,$28,-32768
  401f50:	43 00 00 00 b8 00 10 1d 	addiu $16,$29,184
  401f58:	42 00 00 00 00 05 10 00 	addu $5,$0,$16
  401f60:	43 00 00 00 31 00 06 00 	addiu $6,$0,49
  401f68:	02 00 00 00 14 43 11 00 	jal 450c50 <do_fio>
  401f70:	02 00 00 00 70 36 11 00 	jal 44d9c0 <e_rsfe>
  401f78:	a2 00 00 00 93 10 04 00 	lui $4,4243
  401f80:	43 00 00 00 34 ae 04 04 	addiu $4,$4,-20940
  401f88:	02 00 00 00 c0 35 11 00 	jal 44d700 <s_wsfe>
  401f90:	43 00 00 00 00 80 04 1c 	addiu $4,$28,-32768
  401f98:	42 00 00 00 00 05 10 00 	addu $5,$0,$16
  401fa0:	43 00 00 00 31 00 06 00 	addiu $6,$0,49
  401fa8:	02 00 00 00 14 43 11 00 	jal 450c50 <do_fio>
  401fb0:	02 00 00 00 06 37 11 00 	jal 44dc18 <e_wsfe>
  401fb8:	43 00 00 00 02 00 11 00 	addiu $17,$0,2
  401fc0:	5c 00 00 00 06 00 02 11 	slti $2,$17,6
  401fc8:	05 00 00 00 86 00 00 02 	beq $2,$0,4021e8 <MAIN__+0x1ff8>
  401fd0:	a2 00 00 00 93 10 04 00 	lui $4,4243
  401fd8:	43 00 00 00 20 ae 04 04 	addiu $4,$4,-20960
  401fe0:	02 00 00 00 fe 45 11 00 	jal 4517f8 <s_rsfe>
  401fe8:	43 00 00 00 00 80 04 1c 	addiu $4,$28,-32768
  401ff0:	42 00 00 00 00 05 10 00 	addu $5,$0,$16
  401ff8:	43 00 00 00 31 00 06 00 	addiu $6,$0,49
  402000:	02 00 00 00 14 43 11 00 	jal 450c50 <do_fio>
  402008:	02 00 00 00 70 36 11 00 	jal 44d9c0 <e_rsfe>
  402010:	a2 00 00 00 93 10 04 00 	lui $4,4243
  402018:	43 00 00 00 34 ae 04 04 	addiu $4,$4,-20940
  402020:	02 00 00 00 c0 35 11 00 	jal 44d700 <s_wsfe>
  402028:	43 00 00 00 00 80 04 1c 	addiu $4,$28,-32768
  402030:	42 00 00 00 00 05 10 00 	addu $5,$0,$16
  402038:	43 00 00 00 31 00 06 00 	addiu $6,$0,49
  402040:	02 00 00 00 14 43 11 00 	jal 450c50 <do_fio>
  402048:	02 00 00 00 06 37 11 00 	jal 44dc18 <e_wsfe>
  402050:	a2 00 00 00 93 10 04 00 	lui $4,4243
  402058:	43 00 00 00 20 ae 04 04 	addiu $4,$4,-20960
  402060:	02 00 00 00 fe 45 11 00 	jal 4517f8 <s_rsfe>
  402068:	43 00 00 00 00 80 04 1c 	addiu $4,$28,-32768
  402070:	42 00 00 00 00 05 10 00 	addu $5,$0,$16
  402078:	43 00 00 00 31 00 06 00 	addiu $6,$0,49
  402080:	02 00 00 00 14 43 11 00 	jal 450c50 <do_fio>
  402088:	02 00 00 00 70 36 11 00 	jal 44d9c0 <e_rsfe>
  402090:	a2 00 00 00 93 10 04 00 	lui $4,4243
  402098:	43 00 00 00 34 ae 04 04 	addiu $4,$4,-20940
  4020a0:	02 00 00 00 c0 35 11 00 	jal 44d700 <s_wsfe>
  4020a8:	43 00 00 00 00 80 04 1c 	addiu $4,$28,-32768
  4020b0:	42 00 00 00 00 05 10 00 	addu $5,$0,$16
  4020b8:	43 00 00 00 31 00 06 00 	addiu $6,$0,49
  4020c0:	02 00 00 00 14 43 11 00 	jal 450c50 <do_fio>
  4020c8:	02 00 00 00 06 37 11 00 	jal 44dc18 <e_wsfe>
  4020d0:	a2 00 00 00 93 10 04 00 	lui $4,4243
  4020d8:	43 00 00 00 20 ae 04 04 	addiu $4,$4,-20960
  4020e0:	02 00 00 00 fe 45 11 00 	jal 4517f8 <s_rsfe>
  4020e8:	43 00 00 00 00 80 04 1c 	addiu $4,$28,-32768
  4020f0:	42 00 00 00 00 05 10 00 	addu $5,$0,$16
  4020f8:	43 00 00 00 31 00 06 00 	addiu $6,$0,49
  402100:	02 00 00 00 14 43 11 00 	jal 450c50 <do_fio>
  402108:	02 00 00 00 70 36 11 00 	jal 44d9c0 <e_rsfe>
  402110:	a2 00 00 00 93 10 04 00 	lui $4,4243
  402118:	43 00 00 00 34 ae 04 04 	addiu $4,$4,-20940
  402120:	02 00 00 00 c0 35 11 00 	jal 44d700 <s_wsfe>
  402128:	43 00 00 00 00 80 04 1c 	addiu $4,$28,-32768
  402130:	42 00 00 00 00 05 10 00 	addu $5,$0,$16
  402138:	43 00 00 00 31 00 06 00 	addiu $6,$0,49
  402140:	02 00 00 00 14 43 11 00 	jal 450c50 <do_fio>
  402148:	02 00 00 00 06 37 11 00 	jal 44dc18 <e_wsfe>
  402150:	a2 00 00 00 93 10 04 00 	lui $4,4243
  402158:	43 00 00 00 20 ae 04 04 	addiu $4,$4,-20960
  402160:	02 00 00 00 fe 45 11 00 	jal 4517f8 <s_rsfe>
  402168:	43 00 00 00 00 80 04 1c 	addiu $4,$28,-32768
  402170:	42 00 00 00 00 05 10 00 	addu $5,$0,$16
  402178:	43 00 00 00 31 00 06 00 	addiu $6,$0,49
  402180:	02 00 00 00 14 43 11 00 	jal 450c50 <do_fio>
  402188:	02 00 00 00 70 36 11 00 	jal 44d9c0 <e_rsfe>
  402190:	a2 00 00 00 93 10 04 00 	lui $4,4243
  402198:	43 00 00 00 34 ae 04 04 	addiu $4,$4,-20940
  4021a0:	02 00 00 00 c0 35 11 00 	jal 44d700 <s_wsfe>
  4021a8:	43 00 00 00 00 80 04 1c 	addiu $4,$28,-32768
  4021b0:	42 00 00 00 00 05 10 00 	addu $5,$0,$16
  4021b8:	43 00 00 00 31 00 06 00 	addiu $6,$0,49
  4021c0:	02 00 00 00 14 43 11 00 	jal 450c50 <do_fio>
  4021c8:	02 00 00 00 06 37 11 00 	jal 44dc18 <e_wsfe>
  4021d0:	43 00 00 00 04 00 11 11 	addiu $17,$17,4
  4021d8:	5c 00 00 00 06 00 02 11 	slti $2,$17,6
  4021e0:	06 00 00 00 7a ff 00 02 	bne $2,$0,401fd0 <MAIN__+0x1de0>
  4021e8:	a2 00 00 00 93 10 04 00 	lui $4,4243
  4021f0:	43 00 00 00 48 ae 04 04 	addiu $4,$4,-20920
  4021f8:	02 00 00 00 fe 45 11 00 	jal 4517f8 <s_rsfe>
  402200:	43 00 00 00 00 80 04 1c 	addiu $4,$28,-32768
  402208:	43 00 00 00 38 01 05 1d 	addiu $5,$29,312
  402210:	43 00 00 00 08 00 06 00 	addiu $6,$0,8
  402218:	02 00 00 00 14 43 11 00 	jal 450c50 <do_fio>
  402220:	43 00 00 00 00 80 04 1c 	addiu $4,$28,-32768
  402228:	43 00 00 00 40 01 05 1d 	addiu $5,$29,320
  402230:	43 00 00 00 08 00 06 00 	addiu $6,$0,8
  402238:	02 00 00 00 14 43 11 00 	jal 450c50 <do_fio>
  402240:	43 00 00 00 00 80 04 1c 	addiu $4,$28,-32768
  402248:	43 00 00 00 48 01 05 1d 	addiu $5,$29,328
  402250:	43 00 00 00 08 00 06 00 	addiu $6,$0,8
  402258:	02 00 00 00 14 43 11 00 	jal 450c50 <do_fio>
  402260:	43 00 00 00 00 80 04 1c 	addiu $4,$28,-32768
  402268:	43 00 00 00 50 01 05 1d 	addiu $5,$29,336
  402270:	43 00 00 00 08 00 06 00 	addiu $6,$0,8
  402278:	02 00 00 00 14 43 11 00 	jal 450c50 <do_fio>
  402280:	43 00 00 00 00 80 04 1c 	addiu $4,$28,-32768
  402288:	43 00 00 00 58 01 05 1d 	addiu $5,$29,344
  402290:	43 00 00 00 08 00 06 00 	addiu $6,$0,8
  402298:	02 00 00 00 14 43 11 00 	jal 450c50 <do_fio>
  4022a0:	43 00 00 00 00 80 04 1c 	addiu $4,$28,-32768
  4022a8:	43 00 00 00 60 01 05 1d 	addiu $5,$29,352
  4022b0:	43 00 00 00 08 00 06 00 	addiu $6,$0,8
  4022b8:	02 00 00 00 14 43 11 00 	jal 450c50 <do_fio>
  4022c0:	43 00 00 00 00 80 04 1c 	addiu $4,$28,-32768
  4022c8:	43 00 00 00 68 01 05 1d 	addiu $5,$29,360
  4022d0:	43 00 00 00 08 00 06 00 	addiu $6,$0,8
  4022d8:	02 00 00 00 14 43 11 00 	jal 450c50 <do_fio>
  4022e0:	43 00 00 00 00 80 04 1c 	addiu $4,$28,-32768
  4022e8:	43 00 00 00 70 01 05 1d 	addiu $5,$29,368
  4022f0:	43 00 00 00 08 00 06 00 	addiu $6,$0,8
  4022f8:	02 00 00 00 14 43 11 00 	jal 450c50 <do_fio>
  402300:	43 00 00 00 00 80 04 1c 	addiu $4,$28,-32768
  402308:	43 00 00 00 78 01 05 1d 	addiu $5,$29,376
  402310:	43 00 00 00 08 00 06 00 	addiu $6,$0,8
  402318:	02 00 00 00 14 43 11 00 	jal 450c50 <do_fio>
  402320:	43 00 00 00 00 80 04 1c 	addiu $4,$28,-32768
  402328:	43 00 00 00 80 01 05 1d 	addiu $5,$29,384
  402330:	43 00 00 00 08 00 06 00 	addiu $6,$0,8
  402338:	02 00 00 00 14 43 11 00 	jal 450c50 <do_fio>
  402340:	43 00 00 00 00 80 04 1c 	addiu $4,$28,-32768
  402348:	43 00 00 00 88 01 05 1d 	addiu $5,$29,392
  402350:	43 00 00 00 08 00 06 00 	addiu $6,$0,8
  402358:	02 00 00 00 14 43 11 00 	jal 450c50 <do_fio>
  402360:	43 00 00 00 00 80 04 1c 	addiu $4,$28,-32768
  402368:	a2 00 00 00 93 10 11 00 	lui $17,4243
  402370:	43 00 00 00 80 f9 11 11 	addiu $17,$17,-1664
  402378:	42 00 00 00 00 05 11 00 	addu $5,$0,$17
  402380:	43 00 00 00 08 00 06 00 	addiu $6,$0,8
  402388:	02 00 00 00 14 43 11 00 	jal 450c50 <do_fio>
  402390:	43 00 00 00 00 80 04 1c 	addiu $4,$28,-32768
  402398:	43 00 00 00 08 00 05 11 	addiu $5,$17,8
  4023a0:	43 00 00 00 08 00 06 00 	addiu $6,$0,8
  4023a8:	02 00 00 00 14 43 11 00 	jal 450c50 <do_fio>
  4023b0:	43 00 00 00 00 80 04 1c 	addiu $4,$28,-32768
  4023b8:	43 00 00 00 18 00 05 11 	addiu $5,$17,24
  4023c0:	43 00 00 00 08 00 06 00 	addiu $6,$0,8
  4023c8:	02 00 00 00 14 43 11 00 	jal 450c50 <do_fio>
  4023d0:	43 00 00 00 00 80 04 1c 	addiu $4,$28,-32768
  4023d8:	43 00 00 00 20 00 05 11 	addiu $5,$17,32
  4023e0:	43 00 00 00 08 00 06 00 	addiu $6,$0,8
  4023e8:	02 00 00 00 14 43 11 00 	jal 450c50 <do_fio>
  4023f0:	43 00 00 00 00 80 04 1c 	addiu $4,$28,-32768
  4023f8:	43 00 00 00 28 00 05 11 	addiu $5,$17,40
  402400:	43 00 00 00 08 00 06 00 	addiu $6,$0,8
  402408:	02 00 00 00 14 43 11 00 	jal 450c50 <do_fio>
  402410:	43 00 00 00 00 80 04 1c 	addiu $4,$28,-32768
  402418:	43 00 00 00 30 00 05 11 	addiu $5,$17,48
  402420:	43 00 00 00 08 00 06 00 	addiu $6,$0,8
  402428:	02 00 00 00 14 43 11 00 	jal 450c50 <do_fio>
  402430:	43 00 00 00 00 80 04 1c 	addiu $4,$28,-32768
  402438:	43 00 00 00 38 00 05 11 	addiu $5,$17,56
  402440:	43 00 00 00 08 00 06 00 	addiu $6,$0,8
  402448:	02 00 00 00 14 43 11 00 	jal 450c50 <do_fio>
  402450:	43 00 00 00 00 80 04 1c 	addiu $4,$28,-32768
  402458:	43 00 00 00 40 00 05 11 	addiu $5,$17,64
  402460:	43 00 00 00 08 00 06 00 	addiu $6,$0,8
  402468:	02 00 00 00 14 43 11 00 	jal 450c50 <do_fio>
  402470:	43 00 00 00 00 80 04 1c 	addiu $4,$28,-32768
  402478:	43 00 00 00 48 00 05 11 	addiu $5,$17,72
  402480:	43 00 00 00 08 00 06 00 	addiu $6,$0,8
  402488:	02 00 00 00 14 43 11 00 	jal 450c50 <do_fio>
  402490:	43 00 00 00 00 80 04 1c 	addiu $4,$28,-32768
  402498:	43 00 00 00 50 00 05 11 	addiu $5,$17,80
  4024a0:	43 00 00 00 08 00 06 00 	addiu $6,$0,8
  4024a8:	02 00 00 00 14 43 11 00 	jal 450c50 <do_fio>
  4024b0:	43 00 00 00 00 80 04 1c 	addiu $4,$28,-32768
  4024b8:	a2 00 00 00 93 10 10 00 	lui $16,4243
  4024c0:	43 00 00 00 90 f8 10 10 	addiu $16,$16,-1904
  4024c8:	42 00 00 00 00 05 10 00 	addu $5,$0,$16
  4024d0:	43 00 00 00 08 00 06 00 	addiu $6,$0,8
  4024d8:	02 00 00 00 14 43 11 00 	jal 450c50 <do_fio>
  4024e0:	43 00 00 00 00 80 04 1c 	addiu $4,$28,-32768
  4024e8:	43 00 00 00 08 00 05 10 	addiu $5,$16,8
  4024f0:	43 00 00 00 08 00 06 00 	addiu $6,$0,8
  4024f8:	02 00 00 00 14 43 11 00 	jal 450c50 <do_fio>
  402500:	43 00 00 00 00 80 04 1c 	addiu $4,$28,-32768
  402508:	43 00 00 00 10 00 05 10 	addiu $5,$16,16
  402510:	43 00 00 00 08 00 06 00 	addiu $6,$0,8
  402518:	02 00 00 00 14 43 11 00 	jal 450c50 <do_fio>
  402520:	43 00 00 00 00 80 04 1c 	addiu $4,$28,-32768
  402528:	43 00 00 00 18 00 05 10 	addiu $5,$16,24
  402530:	43 00 00 00 08 00 06 00 	addiu $6,$0,8
  402538:	02 00 00 00 14 43 11 00 	jal 450c50 <do_fio>
  402540:	43 00 00 00 00 80 04 1c 	addiu $4,$28,-32768
  402548:	43 00 00 00 20 00 05 10 	addiu $5,$16,32
  402550:	43 00 00 00 08 00 06 00 	addiu $6,$0,8
  402558:	02 00 00 00 14 43 11 00 	jal 450c50 <do_fio>
  402560:	43 00 00 00 00 80 04 1c 	addiu $4,$28,-32768
  402568:	43 00 00 00 58 00 05 11 	addiu $5,$17,88
  402570:	43 00 00 00 08 00 06 00 	addiu $6,$0,8
  402578:	02 00 00 00 14 43 11 00 	jal 450c50 <do_fio>
  402580:	43 00 00 00 00 80 04 1c 	addiu $4,$28,-32768
  402588:	43 00 00 00 60 00 05 11 	addiu $5,$17,96
  402590:	43 00 00 00 08 00 06 00 	addiu $6,$0,8
  402598:	02 00 00 00 14 43 11 00 	jal 450c50 <do_fio>
  4025a0:	43 00 00 00 00 80 04 1c 	addiu $4,$28,-32768
  4025a8:	43 00 00 00 90 01 05 1d 	addiu $5,$29,400
  4025b0:	43 00 00 00 08 00 06 00 	addiu $6,$0,8
  4025b8:	02 00 00 00 14 43 11 00 	jal 450c50 <do_fio>
  4025c0:	43 00 00 00 00 80 04 1c 	addiu $4,$28,-32768
  4025c8:	43 00 00 00 98 01 05 1d 	addiu $5,$29,408
  4025d0:	43 00 00 00 08 00 06 00 	addiu $6,$0,8
  4025d8:	02 00 00 00 14 43 11 00 	jal 450c50 <do_fio>
  4025e0:	43 00 00 00 00 80 04 1c 	addiu $4,$28,-32768
  4025e8:	43 00 00 00 28 00 05 10 	addiu $5,$16,40
  4025f0:	43 00 00 00 08 00 06 00 	addiu $6,$0,8
  4025f8:	02 00 00 00 14 43 11 00 	jal 450c50 <do_fio>
  402600:	43 00 00 00 00 80 04 1c 	addiu $4,$28,-32768
  402608:	43 00 00 00 30 00 05 10 	addiu $5,$16,48
  402610:	43 00 00 00 08 00 06 00 	addiu $6,$0,8
  402618:	02 00 00 00 14 43 11 00 	jal 450c50 <do_fio>
  402620:	43 00 00 00 00 80 04 1c 	addiu $4,$28,-32768
  402628:	43 00 00 00 38 00 05 10 	addiu $5,$16,56
  402630:	43 00 00 00 08 00 06 00 	addiu $6,$0,8
  402638:	02 00 00 00 14 43 11 00 	jal 450c50 <do_fio>
  402640:	43 00 00 00 00 80 04 1c 	addiu $4,$28,-32768
  402648:	43 00 00 00 40 00 05 10 	addiu $5,$16,64
  402650:	43 00 00 00 08 00 06 00 	addiu $6,$0,8
  402658:	02 00 00 00 14 43 11 00 	jal 450c50 <do_fio>
  402660:	43 00 00 00 00 80 04 1c 	addiu $4,$28,-32768
  402668:	43 00 00 00 48 00 05 10 	addiu $5,$16,72
  402670:	43 00 00 00 08 00 06 00 	addiu $6,$0,8
  402678:	02 00 00 00 14 43 11 00 	jal 450c50 <do_fio>
  402680:	43 00 00 00 00 80 04 1c 	addiu $4,$28,-32768
  402688:	43 00 00 00 50 00 05 10 	addiu $5,$16,80
  402690:	43 00 00 00 08 00 06 00 	addiu $6,$0,8
  402698:	02 00 00 00 14 43 11 00 	jal 450c50 <do_fio>
  4026a0:	43 00 00 00 00 80 04 1c 	addiu $4,$28,-32768
  4026a8:	43 00 00 00 58 00 05 10 	addiu $5,$16,88
  4026b0:	43 00 00 00 08 00 06 00 	addiu $6,$0,8
  4026b8:	02 00 00 00 14 43 11 00 	jal 450c50 <do_fio>
  4026c0:	43 00 00 00 00 80 04 1c 	addiu $4,$28,-32768
  4026c8:	43 00 00 00 60 00 05 10 	addiu $5,$16,96
  4026d0:	43 00 00 00 08 00 06 00 	addiu $6,$0,8
  4026d8:	02 00 00 00 14 43 11 00 	jal 450c50 <do_fio>
  4026e0:	43 00 00 00 00 80 04 1c 	addiu $4,$28,-32768
  4026e8:	43 00 00 00 68 00 05 10 	addiu $5,$16,104
  4026f0:	43 00 00 00 08 00 06 00 	addiu $6,$0,8
  4026f8:	02 00 00 00 14 43 11 00 	jal 450c50 <do_fio>
  402700:	02 00 00 00 70 36 11 00 	jal 44d9c0 <e_rsfe>
  402708:	01 00 00 00 56 14 10 00 	j 405158 <MAIN__+0x4f68>
  402710:	a2 00 00 00 93 10 04 00 	lui $4,4243
  402718:	43 00 00 00 5c ae 04 04 	addiu $4,$4,-20900
  402720:	02 00 00 00 c0 35 11 00 	jal 44d700 <s_wsfe>
  402728:	43 00 00 00 00 80 04 1c 	addiu $4,$28,-32768
  402730:	a2 00 00 00 00 10 05 00 	lui $5,4096
  402738:	43 00 00 00 30 00 05 05 	addiu $5,$5,48
  402740:	43 00 00 00 29 00 06 00 	addiu $6,$0,41
  402748:	02 00 00 00 14 43 11 00 	jal 450c50 <do_fio>
  402750:	02 00 00 00 06 37 11 00 	jal 44dc18 <e_wsfe>
  402758:	a2 00 00 00 93 10 04 00 	lui $4,4243
  402760:	43 00 00 00 70 ae 04 04 	addiu $4,$4,-20880
  402768:	02 00 00 00 16 51 11 00 	jal 454458 <s_rsle>
  402770:	43 00 00 00 04 80 04 1c 	addiu $4,$28,-32764
  402778:	43 00 00 00 00 80 05 1c 	addiu $5,$28,-32768
  402780:	43 00 00 00 f4 00 06 1d 	addiu $6,$29,244
  402788:	43 00 00 00 04 00 07 00 	addiu $7,$0,4
  402790:	02 00 00 00 e8 51 11 00 	jal 4547a0 <do_lio>
  402798:	43 00 00 00 04 80 04 1c 	addiu $4,$28,-32764
  4027a0:	43 00 00 00 00 80 05 1c 	addiu $5,$28,-32768
  4027a8:	43 00 00 00 f8 00 06 1d 	addiu $6,$29,248
  4027b0:	43 00 00 00 04 00 07 00 	addiu $7,$0,4
  4027b8:	02 00 00 00 e8 51 11 00 	jal 4547a0 <do_lio>
  4027c0:	43 00 00 00 04 80 04 1c 	addiu $4,$28,-32764
  4027c8:	43 00 00 00 00 80 05 1c 	addiu $5,$28,-32768
  4027d0:	43 00 00 00 fc 00 06 1d 	addiu $6,$29,252
  4027d8:	43 00 00 00 04 00 07 00 	addiu $7,$0,4
  4027e0:	02 00 00 00 e8 51 11 00 	jal 4547a0 <do_lio>
  4027e8:	02 00 00 00 1c 48 11 00 	jal 452070 <e_rsle>
  4027f0:	28 00 00 00 f8 00 11 1d 	lw $17,248($29)
  4027f8:	a2 00 00 00 93 10 10 00 	lui $16,4243
  402800:	43 00 00 00 70 f8 10 10 	addiu $16,$16,-1936
  402808:	43 00 00 00 01 00 02 00 	addiu $2,$0,1
  402810:	34 00 00 00 00 00 02 10 	sw $2,0($16)
  402818:	06 00 00 00 30 00 02 11 	bne $17,$2,4028e0 <MAIN__+0x26f0>
  402820:	a2 00 00 00 93 10 04 00 	lui $4,4243
  402828:	43 00 00 00 84 ae 04 04 	addiu $4,$4,-20860
  402830:	34 00 00 00 00 00 00 10 	sw $0,0($16)
  402838:	02 00 00 00 c0 35 11 00 	jal 44d700 <s_wsfe>
  402840:	43 00 00 00 00 80 04 1c 	addiu $4,$28,-32768
  402848:	a2 00 00 00 00 10 05 00 	lui $5,4096
  402850:	43 00 00 00 5c 00 05 05 	addiu $5,$5,92
  402858:	43 00 00 00 23 00 06 00 	addiu $6,$0,35
  402860:	02 00 00 00 14 43 11 00 	jal 450c50 <do_fio>
  402868:	02 00 00 00 06 37 11 00 	jal 44dc18 <e_wsfe>
  402870:	a2 00 00 00 93 10 04 00 	lui $4,4243
  402878:	43 00 00 00 98 ae 04 04 	addiu $4,$4,-20840
  402880:	02 00 00 00 fe 45 11 00 	jal 4517f8 <s_rsfe>
  402888:	43 00 00 00 00 80 04 1c 	addiu $4,$28,-32768
  402890:	43 00 00 00 f0 00 05 1d 	addiu $5,$29,240
  402898:	43 00 00 00 01 00 06 00 	addiu $6,$0,1
  4028a0:	02 00 00 00 14 43 11 00 	jal 450c50 <do_fio>
  4028a8:	02 00 00 00 70 36 11 00 	jal 44d9c0 <e_rsfe>
  4028b0:	22 00 00 00 f0 00 03 1d 	lbu $3,240($29)
  4028b8:	43 00 00 00 59 00 02 00 	addiu $2,$0,89
  4028c0:	05 00 00 00 04 00 02 03 	beq $3,$2,4028d8 <MAIN__+0x26e8>
  4028c8:	43 00 00 00 79 00 02 00 	addiu $2,$0,121
  4028d0:	06 00 00 00 02 00 02 03 	bne $3,$2,4028e0 <MAIN__+0x26f0>
  4028d8:	34 00 00 00 00 00 11 10 	sw $17,0($16)
  4028e0:	a2 00 00 00 93 10 04 00 	lui $4,4243
  4028e8:	43 00 00 00 ac ae 04 04 	addiu $4,$4,-20820
  4028f0:	02 00 00 00 c0 35 11 00 	jal 44d700 <s_wsfe>
  4028f8:	43 00 00 00 00 80 04 1c 	addiu $4,$28,-32768
  402900:	a2 00 00 00 00 10 05 00 	lui $5,4096
  402908:	43 00 00 00 80 00 05 05 	addiu $5,$5,128
  402910:	43 00 00 00 1d 00 06 00 	addiu $6,$0,29
  402918:	02 00 00 00 14 43 11 00 	jal 450c50 <do_fio>
  402920:	02 00 00 00 06 37 11 00 	jal 44dc18 <e_wsfe>
  402928:	a2 00 00 00 93 10 04 00 	lui $4,4243
  402930:	43 00 00 00 c0 ae 04 04 	addiu $4,$4,-20800
  402938:	02 00 00 00 16 51 11 00 	jal 454458 <s_rsle>
  402940:	43 00 00 00 08 80 04 1c 	addiu $4,$28,-32760
  402948:	43 00 00 00 00 80 05 1c 	addiu $5,$28,-32768
  402950:	43 00 00 00 38 01 06 1d 	addiu $6,$29,312
  402958:	43 00 00 00 08 00 07 00 	addiu $7,$0,8
  402960:	02 00 00 00 e8 51 11 00 	jal 4547a0 <do_lio>
  402968:	02 00 00 00 1c 48 11 00 	jal 452070 <e_rsle>
  402970:	a2 00 00 00 93 10 04 00 	lui $4,4243
  402978:	43 00 00 00 d4 ae 04 04 	addiu $4,$4,-20780
  402980:	43 00 00 00 01 00 02 00 	addiu $2,$0,1
  402988:	34 00 00 00 08 01 02 1d 	sw $2,264($29)
  402990:	02 00 00 00 c0 35 11 00 	jal 44d700 <s_wsfe>
  402998:	43 00 00 00 00 80 04 1c 	addiu $4,$28,-32768
  4029a0:	a2 00 00 00 00 10 05 00 	lui $5,4096
  4029a8:	43 00 00 00 a0 00 05 05 	addiu $5,$5,160
  4029b0:	43 00 00 00 29 00 06 00 	addiu $6,$0,41
  4029b8:	02 00 00 00 14 43 11 00 	jal 450c50 <do_fio>
  4029c0:	02 00 00 00 06 37 11 00 	jal 44dc18 <e_wsfe>
  4029c8:	a2 00 00 00 93 10 04 00 	lui $4,4243
  4029d0:	43 00 00 00 e8 ae 04 04 	addiu $4,$4,-20760
  4029d8:	02 00 00 00 16 51 11 00 	jal 454458 <s_rsle>
  4029e0:	43 00 00 00 04 80 04 1c 	addiu $4,$28,-32764
  4029e8:	43 00 00 00 00 80 05 1c 	addiu $5,$28,-32768
  4029f0:	43 00 00 00 04 01 06 1d 	addiu $6,$29,260
  4029f8:	43 00 00 00 04 00 07 00 	addiu $7,$0,4
  402a00:	02 00 00 00 e8 51 11 00 	jal 4547a0 <do_lio>
  402a08:	02 00 00 00 1c 48 11 00 	jal 452070 <e_rsle>
  402a10:	a2 00 00 00 93 10 04 00 	lui $4,4243
  402a18:	43 00 00 00 fc ae 04 04 	addiu $4,$4,-20740
  402a20:	02 00 00 00 c0 35 11 00 	jal 44d700 <s_wsfe>
  402a28:	43 00 00 00 00 80 04 1c 	addiu $4,$28,-32768
  402a30:	a2 00 00 00 00 10 05 00 	lui $5,4096
  402a38:	43 00 00 00 cc 00 05 05 	addiu $5,$5,204
  402a40:	43 00 00 00 27 00 06 00 	addiu $6,$0,39
  402a48:	02 00 00 00 14 43 11 00 	jal 450c50 <do_fio>
  402a50:	02 00 00 00 06 37 11 00 	jal 44dc18 <e_wsfe>
  402a58:	a2 00 00 00 93 10 04 00 	lui $4,4243
  402a60:	43 00 00 00 10 af 04 04 	addiu $4,$4,-20720
  402a68:	02 00 00 00 fe 45 11 00 	jal 4517f8 <s_rsfe>
  402a70:	43 00 00 00 00 80 04 1c 	addiu $4,$28,-32768
  402a78:	43 00 00 00 f0 00 05 1d 	addiu $5,$29,240
  402a80:	43 00 00 00 01 00 06 00 	addiu $6,$0,1
  402a88:	02 00 00 00 14 43 11 00 	jal 450c50 <do_fio>
  402a90:	02 00 00 00 70 36 11 00 	jal 44d9c0 <e_rsfe>
  402a98:	22 00 00 00 f0 00 03 1d 	lbu $3,240($29)
  402aa0:	43 00 00 00 4e 00 02 00 	addiu $2,$0,78
  402aa8:	05 00 00 00 04 00 02 03 	beq $3,$2,402ac0 <MAIN__+0x28d0>
  402ab0:	43 00 00 00 6e 00 02 00 	addiu $2,$0,110
  402ab8:	06 00 00 00 02 00 02 03 	bne $3,$2,402ac8 <MAIN__+0x28d8>
  402ac0:	34 00 00 00 08 01 00 1d 	sw $0,264($29)
  402ac8:	a2 00 00 00 93 10 04 00 	lui $4,4243
  402ad0:	43 00 00 00 24 af 04 04 	addiu $4,$4,-20700
  402ad8:	02 00 00 00 c0 35 11 00 	jal 44d700 <s_wsfe>
  402ae0:	43 00 00 00 00 80 04 1c 	addiu $4,$28,-32768
  402ae8:	a2 00 00 00 00 10 05 00 	lui $5,4096
  402af0:	43 00 00 00 f4 00 05 05 	addiu $5,$5,244
  402af8:	43 00 00 00 29 00 06 00 	addiu $6,$0,41
  402b00:	02 00 00 00 14 43 11 00 	jal 450c50 <do_fio>
  402b08:	02 00 00 00 06 37 11 00 	jal 44dc18 <e_wsfe>
  402b10:	a2 00 00 00 93 10 04 00 	lui $4,4243
  402b18:	43 00 00 00 38 af 04 04 	addiu $4,$4,-20680
  402b20:	02 00 00 00 16 51 11 00 	jal 454458 <s_rsle>
  402b28:	43 00 00 00 08 80 04 1c 	addiu $4,$28,-32760
  402b30:	43 00 00 00 00 80 05 1c 	addiu $5,$28,-32768
  402b38:	43 00 00 00 98 01 06 1d 	addiu $6,$29,408
  402b40:	43 00 00 00 08 00 07 00 	addiu $7,$0,8
  402b48:	02 00 00 00 e8 51 11 00 	jal 4547a0 <do_lio>
  402b50:	02 00 00 00 1c 48 11 00 	jal 452070 <e_rsle>
  402b58:	a2 00 00 00 93 10 04 00 	lui $4,4243
  402b60:	43 00 00 00 4c af 04 04 	addiu $4,$4,-20660
  402b68:	02 00 00 00 c0 35 11 00 	jal 44d700 <s_wsfe>
  402b70:	43 00 00 00 00 80 04 1c 	addiu $4,$28,-32768
  402b78:	a2 00 00 00 00 10 05 00 	lui $5,4096
  402b80:	43 00 00 00 20 01 05 05 	addiu $5,$5,288
  402b88:	43 00 00 00 20 00 06 00 	addiu $6,$0,32
  402b90:	02 00 00 00 14 43 11 00 	jal 450c50 <do_fio>
  402b98:	02 00 00 00 06 37 11 00 	jal 44dc18 <e_wsfe>
  402ba0:	a2 00 00 00 93 10 04 00 	lui $4,4243
  402ba8:	43 00 00 00 60 af 04 04 	addiu $4,$4,-20640
  402bb0:	02 00 00 00 16 51 11 00 	jal 454458 <s_rsle>
  402bb8:	43 00 00 00 04 80 04 1c 	addiu $4,$28,-32764
  402bc0:	43 00 00 00 00 80 05 1c 	addiu $5,$28,-32768
  402bc8:	43 00 00 00 00 01 06 1d 	addiu $6,$29,256
  402bd0:	43 00 00 00 04 00 07 00 	addiu $7,$0,4
  402bd8:	02 00 00 00 e8 51 11 00 	jal 4547a0 <do_lio>
  402be0:	02 00 00 00 1c 48 11 00 	jal 452070 <e_rsle>
  402be8:	a2 00 00 00 93 10 04 00 	lui $4,4243
  402bf0:	43 00 00 00 74 af 04 04 	addiu $4,$4,-20620
  402bf8:	02 00 00 00 c0 35 11 00 	jal 44d700 <s_wsfe>
  402c00:	43 00 00 00 00 80 04 1c 	addiu $4,$28,-32768
  402c08:	a2 00 00 00 00 10 05 00 	lui $5,4096
  402c10:	43 00 00 00 44 01 05 05 	addiu $5,$5,324
  402c18:	43 00 00 00 2e 00 06 00 	addiu $6,$0,46
  402c20:	02 00 00 00 14 43 11 00 	jal 450c50 <do_fio>
  402c28:	02 00 00 00 06 37 11 00 	jal 44dc18 <e_wsfe>
  402c30:	a2 00 00 00 93 10 04 00 	lui $4,4243
  402c38:	43 00 00 00 88 af 04 04 	addiu $4,$4,-20600
  402c40:	02 00 00 00 16 51 11 00 	jal 454458 <s_rsle>
  402c48:	43 00 00 00 04 80 04 1c 	addiu $4,$28,-32764
  402c50:	43 00 00 00 00 80 05 1c 	addiu $5,$28,-32768
  402c58:	43 00 00 00 0c 01 06 1d 	addiu $6,$29,268
  402c60:	43 00 00 00 04 00 07 00 	addiu $7,$0,4
  402c68:	02 00 00 00 e8 51 11 00 	jal 4547a0 <do_lio>
  402c70:	02 00 00 00 1c 48 11 00 	jal 452070 <e_rsle>
  402c78:	a2 00 00 00 93 10 04 00 	lui $4,4243
  402c80:	43 00 00 00 9c af 04 04 	addiu $4,$4,-20580
  402c88:	02 00 00 00 c0 35 11 00 	jal 44d700 <s_wsfe>
  402c90:	43 00 00 00 00 80 04 1c 	addiu $4,$28,-32768
  402c98:	a2 00 00 00 00 10 05 00 	lui $5,4096
  402ca0:	43 00 00 00 74 01 05 05 	addiu $5,$5,372
  402ca8:	43 00 00 00 19 00 06 00 	addiu $6,$0,25
  402cb0:	02 00 00 00 14 43 11 00 	jal 450c50 <do_fio>
  402cb8:	02 00 00 00 06 37 11 00 	jal 44dc18 <e_wsfe>
  402cc0:	a2 00 00 00 93 10 04 00 	lui $4,4243
  402cc8:	43 00 00 00 b0 af 04 04 	addiu $4,$4,-20560
  402cd0:	02 00 00 00 16 51 11 00 	jal 454458 <s_rsle>
  402cd8:	43 00 00 00 08 80 04 1c 	addiu $4,$28,-32760
  402ce0:	43 00 00 00 00 80 05 1c 	addiu $5,$28,-32768
  402ce8:	43 00 00 00 40 01 06 1d 	addiu $6,$29,320
  402cf0:	43 00 00 00 08 00 07 00 	addiu $7,$0,8
  402cf8:	02 00 00 00 e8 51 11 00 	jal 4547a0 <do_lio>
  402d00:	02 00 00 00 1c 48 11 00 	jal 452070 <e_rsle>
  402d08:	a2 00 00 00 93 10 04 00 	lui $4,4243
  402d10:	43 00 00 00 c4 af 04 04 	addiu $4,$4,-20540
  402d18:	02 00 00 00 c0 35 11 00 	jal 44d700 <s_wsfe>
  402d20:	43 00 00 00 00 80 04 1c 	addiu $4,$28,-32768
  402d28:	a2 00 00 00 00 10 05 00 	lui $5,4096
  402d30:	43 00 00 00 90 01 05 05 	addiu $5,$5,400
  402d38:	43 00 00 00 1d 00 06 00 	addiu $6,$0,29
  402d40:	02 00 00 00 14 43 11 00 	jal 450c50 <do_fio>
  402d48:	02 00 00 00 06 37 11 00 	jal 44dc18 <e_wsfe>
  402d50:	a2 00 00 00 93 10 04 00 	lui $4,4243
  402d58:	43 00 00 00 d8 af 04 04 	addiu $4,$4,-20520
  402d60:	02 00 00 00 16 51 11 00 	jal 454458 <s_rsle>
  402d68:	43 00 00 00 08 80 04 1c 	addiu $4,$28,-32760
  402d70:	43 00 00 00 00 80 05 1c 	addiu $5,$28,-32768
  402d78:	43 00 00 00 48 01 06 1d 	addiu $6,$29,328
  402d80:	43 00 00 00 08 00 07 00 	addiu $7,$0,8
  402d88:	02 00 00 00 e8 51 11 00 	jal 4547a0 <do_lio>
  402d90:	02 00 00 00 1c 48 11 00 	jal 452070 <e_rsle>
  402d98:	a2 00 00 00 93 10 04 00 	lui $4,4243
  402da0:	43 00 00 00 ec af 04 04 	addiu $4,$4,-20500
  402da8:	02 00 00 00 c0 35 11 00 	jal 44d700 <s_wsfe>
  402db0:	43 00 00 00 00 80 04 1c 	addiu $4,$28,-32768
  402db8:	a2 00 00 00 00 10 05 00 	lui $5,4096
  402dc0:	43 00 00 00 b0 01 05 05 	addiu $5,$5,432
  402dc8:	43 00 00 00 1a 00 06 00 	addiu $6,$0,26
  402dd0:	02 00 00 00 14 43 11 00 	jal 450c50 <do_fio>
  402dd8:	02 00 00 00 06 37 11 00 	jal 44dc18 <e_wsfe>
  402de0:	a2 00 00 00 93 10 04 00 	lui $4,4243
  402de8:	43 00 00 00 00 b0 04 04 	addiu $4,$4,-20480
  402df0:	02 00 00 00 16 51 11 00 	jal 454458 <s_rsle>
  402df8:	43 00 00 00 08 80 04 1c 	addiu $4,$28,-32760
  402e00:	43 00 00 00 00 80 05 1c 	addiu $5,$28,-32768
  402e08:	43 00 00 00 50 01 06 1d 	addiu $6,$29,336
  402e10:	43 00 00 00 08 00 07 00 	addiu $7,$0,8
  402e18:	02 00 00 00 e8 51 11 00 	jal 4547a0 <do_lio>
  402e20:	02 00 00 00 1c 48 11 00 	jal 452070 <e_rsle>
  402e28:	a2 00 00 00 93 10 04 00 	lui $4,4243
  402e30:	43 00 00 00 14 b0 04 04 	addiu $4,$4,-20460
  402e38:	02 00 00 00 c0 35 11 00 	jal 44d700 <s_wsfe>
  402e40:	43 00 00 00 00 80 04 1c 	addiu $4,$28,-32768
  402e48:	a2 00 00 00 00 10 05 00 	lui $5,4096
  402e50:	43 00 00 00 cc 01 05 05 	addiu $5,$5,460
  402e58:	43 00 00 00 20 00 06 00 	addiu $6,$0,32
  402e60:	02 00 00 00 14 43 11 00 	jal 450c50 <do_fio>
  402e68:	02 00 00 00 06 37 11 00 	jal 44dc18 <e_wsfe>
  402e70:	a2 00 00 00 93 10 04 00 	lui $4,4243
  402e78:	43 00 00 00 28 b0 04 04 	addiu $4,$4,-20440
  402e80:	02 00 00 00 16 51 11 00 	jal 454458 <s_rsle>
  402e88:	43 00 00 00 08 80 04 1c 	addiu $4,$28,-32760
  402e90:	43 00 00 00 00 80 05 1c 	addiu $5,$28,-32768
  402e98:	43 00 00 00 58 01 06 1d 	addiu $6,$29,344
  402ea0:	43 00 00 00 08 00 07 00 	addiu $7,$0,8
  402ea8:	02 00 00 00 e8 51 11 00 	jal 4547a0 <do_lio>
  402eb0:	02 00 00 00 1c 48 11 00 	jal 452070 <e_rsle>
  402eb8:	a2 00 00 00 93 10 04 00 	lui $4,4243
  402ec0:	43 00 00 00 3c b0 04 04 	addiu $4,$4,-20420
  402ec8:	02 00 00 00 c0 35 11 00 	jal 44d700 <s_wsfe>
  402ed0:	43 00 00 00 00 80 04 1c 	addiu $4,$28,-32768
  402ed8:	a2 00 00 00 00 10 05 00 	lui $5,4096
  402ee0:	43 00 00 00 f0 01 05 05 	addiu $5,$5,496
  402ee8:	43 00 00 00 28 00 06 00 	addiu $6,$0,40
  402ef0:	02 00 00 00 14 43 11 00 	jal 450c50 <do_fio>
  402ef8:	02 00 00 00 06 37 11 00 	jal 44dc18 <e_wsfe>
  402f00:	a2 00 00 00 93 10 04 00 	lui $4,4243
  402f08:	43 00 00 00 50 b0 04 04 	addiu $4,$4,-20400
  402f10:	02 00 00 00 16 51 11 00 	jal 454458 <s_rsle>
  402f18:	43 00 00 00 08 80 04 1c 	addiu $4,$28,-32760
  402f20:	43 00 00 00 00 80 05 1c 	addiu $5,$28,-32768
  402f28:	a2 00 00 00 93 10 10 00 	lui $16,4243
  402f30:	43 00 00 00 90 f8 10 10 	addiu $16,$16,-1904
  402f38:	42 00 00 00 00 06 10 00 	addu $6,$0,$16
  402f40:	43 00 00 00 08 00 07 00 	addiu $7,$0,8
  402f48:	02 00 00 00 e8 51 11 00 	jal 4547a0 <do_lio>
  402f50:	43 00 00 00 08 80 04 1c 	addiu $4,$28,-32760
  402f58:	43 00 00 00 00 80 05 1c 	addiu $5,$28,-32768
  402f60:	43 00 00 00 08 00 06 10 	addiu $6,$16,8
  402f68:	43 00 00 00 08 00 07 00 	addiu $7,$0,8
  402f70:	02 00 00 00 e8 51 11 00 	jal 4547a0 <do_lio>
  402f78:	02 00 00 00 1c 48 11 00 	jal 452070 <e_rsle>
  402f80:	a2 00 00 00 93 10 04 00 	lui $4,4243
  402f88:	43 00 00 00 64 b0 04 04 	addiu $4,$4,-20380
  402f90:	02 00 00 00 c0 35 11 00 	jal 44d700 <s_wsfe>
  402f98:	43 00 00 00 00 80 04 1c 	addiu $4,$28,-32768
  402fa0:	a2 00 00 00 00 10 05 00 	lui $5,4096
  402fa8:	43 00 00 00 1c 02 05 05 	addiu $5,$5,540
  402fb0:	43 00 00 00 2d 00 06 00 	addiu $6,$0,45
  402fb8:	02 00 00 00 14 43 11 00 	jal 450c50 <do_fio>
  402fc0:	02 00 00 00 06 37 11 00 	jal 44dc18 <e_wsfe>
  402fc8:	a2 00 00 00 93 10 04 00 	lui $4,4243
  402fd0:	43 00 00 00 78 b0 04 04 	addiu $4,$4,-20360
  402fd8:	02 00 00 00 16 51 11 00 	jal 454458 <s_rsle>
  402fe0:	43 00 00 00 08 80 04 1c 	addiu $4,$28,-32760
  402fe8:	43 00 00 00 00 80 05 1c 	addiu $5,$28,-32768
  402ff0:	43 00 00 00 28 00 06 10 	addiu $6,$16,40
  402ff8:	43 00 00 00 08 00 07 00 	addiu $7,$0,8
  403000:	02 00 00 00 e8 51 11 00 	jal 4547a0 <do_lio>
  403008:	43 00 00 00 08 80 04 1c 	addiu $4,$28,-32760
  403010:	43 00 00 00 00 80 05 1c 	addiu $5,$28,-32768
  403018:	43 00 00 00 38 00 06 10 	addiu $6,$16,56
  403020:	43 00 00 00 08 00 07 00 	addiu $7,$0,8
  403028:	02 00 00 00 e8 51 11 00 	jal 4547a0 <do_lio>
  403030:	43 00 00 00 08 80 04 1c 	addiu $4,$28,-32760
  403038:	43 00 00 00 00 80 05 1c 	addiu $5,$28,-32768
  403040:	43 00 00 00 48 00 06 10 	addiu $6,$16,72
  403048:	43 00 00 00 08 00 07 00 	addiu $7,$0,8
  403050:	02 00 00 00 e8 51 11 00 	jal 4547a0 <do_lio>
  403058:	02 00 00 00 1c 48 11 00 	jal 452070 <e_rsle>
  403060:	28 00 00 00 f8 00 02 1d 	lw $2,248($29)
  403068:	2b 00 00 00 c0 80 00 1c 	l.d $f0,-32576($28)
  403070:	5c 00 00 00 02 00 02 02 	slti $2,$2,2
  403078:	37 00 00 00 90 01 00 1d 	s.d $f0,400($29)
  403080:	06 00 00 00 34 01 00 02 	bne $2,$0,403558 <MAIN__+0x3368>
  403088:	a2 00 00 00 93 10 04 00 	lui $4,4243
  403090:	43 00 00 00 8c b0 04 04 	addiu $4,$4,-20340
  403098:	02 00 00 00 c0 35 11 00 	jal 44d700 <s_wsfe>
  4030a0:	43 00 00 00 00 80 04 1c 	addiu $4,$28,-32768
  4030a8:	a2 00 00 00 00 10 05 00 	lui $5,4096
  4030b0:	43 00 00 00 4c 02 05 05 	addiu $5,$5,588
  4030b8:	43 00 00 00 1d 00 06 00 	addiu $6,$0,29
  4030c0:	02 00 00 00 14 43 11 00 	jal 450c50 <do_fio>
  4030c8:	02 00 00 00 06 37 11 00 	jal 44dc18 <e_wsfe>
  4030d0:	a2 00 00 00 93 10 04 00 	lui $4,4243
  4030d8:	43 00 00 00 a0 b0 04 04 	addiu $4,$4,-20320
  4030e0:	02 00 00 00 16 51 11 00 	jal 454458 <s_rsle>
  4030e8:	43 00 00 00 08 80 04 1c 	addiu $4,$28,-32760
  4030f0:	43 00 00 00 00 80 05 1c 	addiu $5,$28,-32768
  4030f8:	43 00 00 00 60 01 06 1d 	addiu $6,$29,352
  403100:	43 00 00 00 08 00 07 00 	addiu $7,$0,8
  403108:	02 00 00 00 e8 51 11 00 	jal 4547a0 <do_lio>
  403110:	02 00 00 00 1c 48 11 00 	jal 452070 <e_rsle>
  403118:	a2 00 00 00 93 10 04 00 	lui $4,4243
  403120:	43 00 00 00 b4 b0 04 04 	addiu $4,$4,-20300
  403128:	02 00 00 00 c0 35 11 00 	jal 44d700 <s_wsfe>
  403130:	43 00 00 00 00 80 04 1c 	addiu $4,$28,-32768
  403138:	a2 00 00 00 00 10 05 00 	lui $5,4096
  403140:	43 00 00 00 6c 02 05 05 	addiu $5,$5,620
  403148:	43 00 00 00 1a 00 06 00 	addiu $6,$0,26
  403150:	02 00 00 00 14 43 11 00 	jal 450c50 <do_fio>
  403158:	02 00 00 00 06 37 11 00 	jal 44dc18 <e_wsfe>
  403160:	a2 00 00 00 93 10 04 00 	lui $4,4243
  403168:	43 00 00 00 c8 b0 04 04 	addiu $4,$4,-20280
  403170:	02 00 00 00 16 51 11 00 	jal 454458 <s_rsle>
  403178:	43 00 00 00 08 80 04 1c 	addiu $4,$28,-32760
  403180:	43 00 00 00 00 80 05 1c 	addiu $5,$28,-32768
  403188:	43 00 00 00 68 01 06 1d 	addiu $6,$29,360
  403190:	43 00 00 00 08 00 07 00 	addiu $7,$0,8
  403198:	02 00 00 00 e8 51 11 00 	jal 4547a0 <do_lio>
  4031a0:	02 00 00 00 1c 48 11 00 	jal 452070 <e_rsle>
  4031a8:	a2 00 00 00 93 10 04 00 	lui $4,4243
  4031b0:	43 00 00 00 dc b0 04 04 	addiu $4,$4,-20260
  4031b8:	02 00 00 00 c0 35 11 00 	jal 44d700 <s_wsfe>
  4031c0:	43 00 00 00 00 80 04 1c 	addiu $4,$28,-32768
  4031c8:	a2 00 00 00 00 10 05 00 	lui $5,4096
  4031d0:	43 00 00 00 88 02 05 05 	addiu $5,$5,648
  4031d8:	43 00 00 00 1c 00 06 00 	addiu $6,$0,28
  4031e0:	02 00 00 00 14 43 11 00 	jal 450c50 <do_fio>
  4031e8:	02 00 00 00 06 37 11 00 	jal 44dc18 <e_wsfe>
  4031f0:	a2 00 00 00 93 10 04 00 	lui $4,4243
  4031f8:	43 00 00 00 f0 b0 04 04 	addiu $4,$4,-20240
  403200:	02 00 00 00 16 51 11 00 	jal 454458 <s_rsle>
  403208:	43 00 00 00 08 80 04 1c 	addiu $4,$28,-32760
  403210:	43 00 00 00 00 80 05 1c 	addiu $5,$28,-32768
  403218:	43 00 00 00 90 01 06 1d 	addiu $6,$29,400
  403220:	43 00 00 00 08 00 07 00 	addiu $7,$0,8
  403228:	02 00 00 00 e8 51 11 00 	jal 4547a0 <do_lio>
  403230:	02 00 00 00 1c 48 11 00 	jal 452070 <e_rsle>
  403238:	a2 00 00 00 93 10 04 00 	lui $4,4243
  403240:	43 00 00 00 04 b1 04 04 	addiu $4,$4,-20220
  403248:	02 00 00 00 c0 35 11 00 	jal 44d700 <s_wsfe>
  403250:	43 00 00 00 00 80 04 1c 	addiu $4,$28,-32768
  403258:	a2 00 00 00 00 10 05 00 	lui $5,4096
  403260:	43 00 00 00 a8 02 05 05 	addiu $5,$5,680
  403268:	43 00 00 00 20 00 06 00 	addiu $6,$0,32
  403270:	02 00 00 00 14 43 11 00 	jal 450c50 <do_fio>
  403278:	02 00 00 00 06 37 11 00 	jal 44dc18 <e_wsfe>
  403280:	a2 00 00 00 93 10 04 00 	lui $4,4243
  403288:	43 00 00 00 18 b1 04 04 	addiu $4,$4,-20200
  403290:	02 00 00 00 16 51 11 00 	jal 454458 <s_rsle>
  403298:	43 00 00 00 08 80 04 1c 	addiu $4,$28,-32760
  4032a0:	43 00 00 00 00 80 05 1c 	addiu $5,$28,-32768
  4032a8:	43 00 00 00 70 01 06 1d 	addiu $6,$29,368
  4032b0:	43 00 00 00 08 00 07 00 	addiu $7,$0,8
  4032b8:	02 00 00 00 e8 51 11 00 	jal 4547a0 <do_lio>
  4032c0:	02 00 00 00 1c 48 11 00 	jal 452070 <e_rsle>
  4032c8:	a2 00 00 00 93 10 04 00 	lui $4,4243
  4032d0:	43 00 00 00 2c b1 04 04 	addiu $4,$4,-20180
  4032d8:	02 00 00 00 c0 35 11 00 	jal 44d700 <s_wsfe>
  4032e0:	43 00 00 00 00 80 04 1c 	addiu $4,$28,-32768
  4032e8:	a2 00 00 00 00 10 05 00 	lui $5,4096
  4032f0:	43 00 00 00 cc 02 05 05 	addiu $5,$5,716
  4032f8:	43 00 00 00 28 00 06 00 	addiu $6,$0,40
  403300:	02 00 00 00 14 43 11 00 	jal 450c50 <do_fio>
  403308:	02 00 00 00 06 37 11 00 	jal 44dc18 <e_wsfe>
  403310:	a2 00 00 00 93 10 04 00 	lui $4,4243
  403318:	43 00 00 00 40 b1 04 04 	addiu $4,$4,-20160
  403320:	02 00 00 00 16 51 11 00 	jal 454458 <s_rsle>
  403328:	43 00 00 00 08 80 04 1c 	addiu $4,$28,-32760
  403330:	43 00 00 00 00 80 05 1c 	addiu $5,$28,-32768
  403338:	43 00 00 00 10 00 06 10 	addiu $6,$16,16
  403340:	43 00 00 00 08 00 07 00 	addiu $7,$0,8
  403348:	02 00 00 00 e8 51 11 00 	jal 4547a0 <do_lio>
  403350:	43 00 00 00 08 80 04 1c 	addiu $4,$28,-32760
  403358:	43 00 00 00 00 80 05 1c 	addiu $5,$28,-32768
  403360:	43 00 00 00 18 00 06 10 	addiu $6,$16,24
  403368:	43 00 00 00 08 00 07 00 	addiu $7,$0,8
  403370:	02 00 00 00 e8 51 11 00 	jal 4547a0 <do_lio>
  403378:	02 00 00 00 1c 48 11 00 	jal 452070 <e_rsle>
  403380:	a2 00 00 00 93 10 04 00 	lui $4,4243
  403388:	43 00 00 00 54 b1 04 04 	addiu $4,$4,-20140
  403390:	02 00 00 00 c0 35 11 00 	jal 44d700 <s_wsfe>
  403398:	43 00 00 00 00 80 04 1c 	addiu $4,$28,-32768
  4033a0:	a2 00 00 00 00 10 05 00 	lui $5,4096
  4033a8:	43 00 00 00 f8 02 05 05 	addiu $5,$5,760
  4033b0:	43 00 00 00 28 00 06 00 	addiu $6,$0,40
  4033b8:	02 00 00 00 14 43 11 00 	jal 450c50 <do_fio>
  4033c0:	02 00 00 00 06 37 11 00 	jal 44dc18 <e_wsfe>
  4033c8:	a2 00 00 00 93 10 04 00 	lui $4,4243
  4033d0:	43 00 00 00 68 b1 04 04 	addiu $4,$4,-20120
  4033d8:	02 00 00 00 16 51 11 00 	jal 454458 <s_rsle>
  4033e0:	43 00 00 00 08 80 04 1c 	addiu $4,$28,-32760
  4033e8:	43 00 00 00 00 80 05 1c 	addiu $5,$28,-32768
  4033f0:	43 00 00 00 30 00 06 10 	addiu $6,$16,48
  4033f8:	43 00 00 00 08 00 07 00 	addiu $7,$0,8
  403400:	02 00 00 00 e8 51 11 00 	jal 4547a0 <do_lio>
  403408:	43 00 00 00 08 80 04 1c 	addiu $4,$28,-32760
  403410:	43 00 00 00 00 80 05 1c 	addiu $5,$28,-32768
  403418:	43 00 00 00 40 00 06 10 	addiu $6,$16,64
  403420:	43 00 00 00 08 00 07 00 	addiu $7,$0,8
  403428:	02 00 00 00 e8 51 11 00 	jal 4547a0 <do_lio>
  403430:	02 00 00 00 1c 48 11 00 	jal 452070 <e_rsle>
  403438:	a2 00 00 00 93 10 04 00 	lui $4,4243
  403440:	43 00 00 00 7c b1 04 04 	addiu $4,$4,-20100
  403448:	02 00 00 00 c0 35 11 00 	jal 44d700 <s_wsfe>
  403450:	43 00 00 00 00 80 04 1c 	addiu $4,$28,-32768
  403458:	a2 00 00 00 00 10 05 00 	lui $5,4096
  403460:	43 00 00 00 24 03 05 05 	addiu $5,$5,804
  403468:	43 00 00 00 28 00 06 00 	addiu $6,$0,40
  403470:	02 00 00 00 14 43 11 00 	jal 450c50 <do_fio>
  403478:	02 00 00 00 06 37 11 00 	jal 44dc18 <e_wsfe>
  403480:	a2 00 00 00 93 10 04 00 	lui $4,4243
  403488:	43 00 00 00 90 b1 04 04 	addiu $4,$4,-20080
  403490:	02 00 00 00 16 51 11 00 	jal 454458 <s_rsle>
  403498:	43 00 00 00 04 80 04 1c 	addiu $4,$28,-32764
  4034a0:	43 00 00 00 00 80 05 1c 	addiu $5,$28,-32768
  4034a8:	a2 00 00 00 93 10 10 00 	lui $16,4243
  4034b0:	43 00 00 00 60 f8 10 10 	addiu $16,$16,-1952
  4034b8:	42 00 00 00 00 06 10 00 	addu $6,$0,$16
  4034c0:	43 00 00 00 04 00 07 00 	addiu $7,$0,4
  4034c8:	02 00 00 00 e8 51 11 00 	jal 4547a0 <do_lio>
  4034d0:	43 00 00 00 04 80 04 1c 	addiu $4,$28,-32764
  4034d8:	43 00 00 00 00 80 05 1c 	addiu $5,$28,-32768
  4034e0:	43 00 00 00 04 00 06 10 	addiu $6,$16,4
  4034e8:	43 00 00 00 04 00 07 00 	addiu $7,$0,4
  4034f0:	02 00 00 00 e8 51 11 00 	jal 4547a0 <do_lio>
  4034f8:	43 00 00 00 04 80 04 1c 	addiu $4,$28,-32764
  403500:	43 00 00 00 00 80 05 1c 	addiu $5,$28,-32768
  403508:	43 00 00 00 08 00 06 10 	addiu $6,$16,8
  403510:	43 00 00 00 04 00 07 00 	addiu $7,$0,4
  403518:	02 00 00 00 e8 51 11 00 	jal 4547a0 <do_lio>
  403520:	43 00 00 00 04 80 04 1c 	addiu $4,$28,-32764
  403528:	43 00 00 00 00 80 05 1c 	addiu $5,$28,-32768
  403530:	43 00 00 00 0c 00 06 10 	addiu $6,$16,12
  403538:	43 00 00 00 04 00 07 00 	addiu $7,$0,4
  403540:	02 00 00 00 e8 51 11 00 	jal 4547a0 <do_lio>
  403548:	02 00 00 00 1c 48 11 00 	jal 452070 <e_rsle>
  403550:	01 00 00 00 68 0d 10 00 	j 4035a0 <MAIN__+0x33b0>
  403558:	2b 00 00 00 c8 80 02 1c 	l.d $f2,-32568($28)
  403560:	2b 00 00 00 d0 80 00 1c 	l.d $f0,-32560($28)
  403568:	38 00 00 00 60 01 00 1d 	dsz 352($29)
  403570:	38 00 00 00 70 01 00 1d 	dsz 368($29)
  403578:	a2 00 00 00 93 10 01 00 	lui $1,4243
  403580:	37 00 00 00 a0 f8 02 01 	s.d $f2,-1888($1)
  403588:	a2 00 00 00 93 10 01 00 	lui $1,4243
  403590:	37 00 00 00 a8 f8 00 01 	s.d $f0,-1880($1)
  403598:	37 00 00 00 68 01 00 1d 	s.d $f0,360($29)
  4035a0:	a2 00 00 00 93 10 04 00 	lui $4,4243
  4035a8:	43 00 00 00 a4 b1 04 04 	addiu $4,$4,-20060
  4035b0:	02 00 00 00 c0 35 11 00 	jal 44d700 <s_wsfe>
  4035b8:	43 00 00 00 00 80 04 1c 	addiu $4,$28,-32768
  4035c0:	a2 00 00 00 00 10 05 00 	lui $5,4096
  4035c8:	43 00 00 00 50 03 05 05 	addiu $5,$5,848
  4035d0:	43 00 00 00 1d 00 06 00 	addiu $6,$0,29
  4035d8:	02 00 00 00 14 43 11 00 	jal 450c50 <do_fio>
  4035e0:	02 00 00 00 06 37 11 00 	jal 44dc18 <e_wsfe>
  4035e8:	a2 00 00 00 93 10 04 00 	lui $4,4243
  4035f0:	43 00 00 00 b8 b1 04 04 	addiu $4,$4,-20040
  4035f8:	02 00 00 00 16 51 11 00 	jal 454458 <s_rsle>
  403600:	43 00 00 00 08 80 04 1c 	addiu $4,$28,-32760
  403608:	43 00 00 00 00 80 05 1c 	addiu $5,$28,-32768
  403610:	43 00 00 00 78 01 06 1d 	addiu $6,$29,376
  403618:	43 00 00 00 08 00 07 00 	addiu $7,$0,8
  403620:	02 00 00 00 e8 51 11 00 	jal 4547a0 <do_lio>
  403628:	02 00 00 00 1c 48 11 00 	jal 452070 <e_rsle>
  403630:	a2 00 00 00 93 10 04 00 	lui $4,4243
  403638:	43 00 00 00 cc b1 04 04 	addiu $4,$4,-20020
  403640:	02 00 00 00 c0 35 11 00 	jal 44d700 <s_wsfe>
  403648:	43 00 00 00 00 80 04 1c 	addiu $4,$28,-32768
  403650:	a2 00 00 00 00 10 05 00 	lui $5,4096
  403658:	43 00 00 00 70 03 05 05 	addiu $5,$5,880
  403660:	43 00 00 00 1a 00 06 00 	addiu $6,$0,26
  403668:	02 00 00 00 14 43 11 00 	jal 450c50 <do_fio>
  403670:	02 00 00 00 06 37 11 00 	jal 44dc18 <e_wsfe>
  403678:	a2 00 00 00 93 10 04 00 	lui $4,4243
  403680:	43 00 00 00 e0 b1 04 04 	addiu $4,$4,-20000
  403688:	02 00 00 00 16 51 11 00 	jal 454458 <s_rsle>
  403690:	43 00 00 00 08 80 04 1c 	addiu $4,$28,-32760
  403698:	43 00 00 00 00 80 05 1c 	addiu $5,$28,-32768
  4036a0:	43 00 00 00 80 01 06 1d 	addiu $6,$29,384
  4036a8:	43 00 00 00 08 00 07 00 	addiu $7,$0,8
  4036b0:	02 00 00 00 e8 51 11 00 	jal 4547a0 <do_lio>
  4036b8:	02 00 00 00 1c 48 11 00 	jal 452070 <e_rsle>
  4036c0:	a2 00 00 00 93 10 04 00 	lui $4,4243
  4036c8:	43 00 00 00 f4 b1 04 04 	addiu $4,$4,-19980
  4036d0:	02 00 00 00 c0 35 11 00 	jal 44d700 <s_wsfe>
  4036d8:	43 00 00 00 00 80 04 1c 	addiu $4,$28,-32768
  4036e0:	a2 00 00 00 00 10 05 00 	lui $5,4096
  4036e8:	43 00 00 00 8c 03 05 05 	addiu $5,$5,908
  4036f0:	43 00 00 00 28 00 06 00 	addiu $6,$0,40
  4036f8:	02 00 00 00 14 43 11 00 	jal 450c50 <do_fio>
  403700:	02 00 00 00 06 37 11 00 	jal 44dc18 <e_wsfe>
  403708:	a2 00 00 00 93 10 04 00 	lui $4,4243
  403710:	43 00 00 00 08 b2 04 04 	addiu $4,$4,-19960
  403718:	02 00 00 00 16 51 11 00 	jal 454458 <s_rsle>
  403720:	43 00 00 00 08 80 04 1c 	addiu $4,$28,-32760
  403728:	43 00 00 00 00 80 05 1c 	addiu $5,$28,-32768
  403730:	43 00 00 00 88 01 06 1d 	addiu $6,$29,392
  403738:	43 00 00 00 08 00 07 00 	addiu $7,$0,8
  403740:	02 00 00 00 e8 51 11 00 	jal 4547a0 <do_lio>
  403748:	02 00 00 00 1c 48 11 00 	jal 452070 <e_rsle>
  403750:	a2 00 00 00 93 10 04 00 	lui $4,4243
  403758:	43 00 00 00 1c b2 04 04 	addiu $4,$4,-19940
  403760:	02 00 00 00 c0 35 11 00 	jal 44d700 <s_wsfe>
  403768:	43 00 00 00 00 80 04 1c 	addiu $4,$28,-32768
  403770:	a2 00 00 00 00 10 05 00 	lui $5,4096
  403778:	43 00 00 00 b8 03 05 05 	addiu $5,$5,952
  403780:	43 00 00 00 1c 00 06 00 	addiu $6,$0,28
  403788:	02 00 00 00 14 43 11 00 	jal 450c50 <do_fio>
  403790:	02 00 00 00 06 37 11 00 	jal 44dc18 <e_wsfe>
  403798:	a2 00 00 00 93 10 04 00 	lui $4,4243
  4037a0:	43 00 00 00 30 b2 04 04 	addiu $4,$4,-19920
  4037a8:	02 00 00 00 fe 45 11 00 	jal 4517f8 <s_rsfe>
  4037b0:	43 00 00 00 00 80 04 1c 	addiu $4,$28,-32768
  4037b8:	43 00 00 00 f0 00 05 1d 	addiu $5,$29,240
  4037c0:	43 00 00 00 01 00 06 00 	addiu $6,$0,1
  4037c8:	02 00 00 00 14 43 11 00 	jal 450c50 <do_fio>
  4037d0:	02 00 00 00 70 36 11 00 	jal 44d9c0 <e_rsfe>
  4037d8:	22 00 00 00 f0 00 03 1d 	lbu $3,240($29)
  4037e0:	43 00 00 00 59 00 02 00 	addiu $2,$0,89
  4037e8:	05 00 00 00 04 00 02 03 	beq $3,$2,403800 <MAIN__+0x3610>
  4037f0:	43 00 00 00 79 00 02 00 	addiu $2,$0,121
  4037f8:	06 00 00 00 04 00 02 03 	bne $3,$2,403810 <MAIN__+0x3620>
  403800:	43 00 00 00 01 00 02 00 	addiu $2,$0,1
  403808:	34 00 00 00 24 01 02 1d 	sw $2,292($29)
  403810:	a2 00 00 00 93 10 04 00 	lui $4,4243
  403818:	43 00 00 00 44 b2 04 04 	addiu $4,$4,-19900
  403820:	02 00 00 00 c0 35 11 00 	jal 44d700 <s_wsfe>
  403828:	43 00 00 00 00 80 04 1c 	addiu $4,$28,-32768
  403830:	a2 00 00 00 00 10 05 00 	lui $5,4096
  403838:	43 00 00 00 d8 03 05 05 	addiu $5,$5,984
  403840:	43 00 00 00 2b 00 06 00 	addiu $6,$0,43
  403848:	02 00 00 00 14 43 11 00 	jal 450c50 <do_fio>
  403850:	02 00 00 00 06 37 11 00 	jal 44dc18 <e_wsfe>
  403858:	a2 00 00 00 93 10 04 00 	lui $4,4243
  403860:	43 00 00 00 58 b2 04 04 	addiu $4,$4,-19880
  403868:	02 00 00 00 16 51 11 00 	jal 454458 <s_rsle>
  403870:	43 00 00 00 04 80 04 1c 	addiu $4,$28,-32764
  403878:	43 00 00 00 00 80 05 1c 	addiu $5,$28,-32768
  403880:	43 00 00 00 20 01 06 1d 	addiu $6,$29,288
  403888:	43 00 00 00 04 00 07 00 	addiu $7,$0,4
  403890:	02 00 00 00 e8 51 11 00 	jal 4547a0 <do_lio>
  403898:	02 00 00 00 1c 48 11 00 	jal 452070 <e_rsle>
  4038a0:	2b 00 00 00 d8 80 00 1c 	l.d $f0,-32552($28)
  4038a8:	28 00 00 00 20 01 02 1d 	lw $2,288($29)
  4038b0:	a2 00 00 00 93 10 10 00 	lui $16,4243
  4038b8:	43 00 00 00 d0 f9 10 10 	addiu $16,$16,-1584
  4038c0:	37 00 00 00 00 00 00 10 	s.d $f0,0($16)
  4038c8:	06 00 00 00 24 00 00 02 	bne $2,$0,403960 <MAIN__+0x3770>
  4038d0:	a2 00 00 00 93 10 04 00 	lui $4,4243
  4038d8:	43 00 00 00 6c b2 04 04 	addiu $4,$4,-19860
  4038e0:	02 00 00 00 c0 35 11 00 	jal 44d700 <s_wsfe>
  4038e8:	43 00 00 00 00 80 04 1c 	addiu $4,$28,-32768
  4038f0:	a2 00 00 00 00 10 05 00 	lui $5,4096
  4038f8:	43 00 00 00 04 04 05 05 	addiu $5,$5,1028
  403900:	43 00 00 00 1c 00 06 00 	addiu $6,$0,28
  403908:	02 00 00 00 14 43 11 00 	jal 450c50 <do_fio>
  403910:	02 00 00 00 06 37 11 00 	jal 44dc18 <e_wsfe>
  403918:	a2 00 00 00 93 10 04 00 	lui $4,4243
  403920:	43 00 00 00 80 b2 04 04 	addiu $4,$4,-19840
  403928:	02 00 00 00 16 51 11 00 	jal 454458 <s_rsle>
  403930:	43 00 00 00 08 80 04 1c 	addiu $4,$28,-32760
  403938:	43 00 00 00 00 80 05 1c 	addiu $5,$28,-32768
  403940:	42 00 00 00 00 06 10 00 	addu $6,$0,$16
  403948:	43 00 00 00 08 00 07 00 	addiu $7,$0,8
  403950:	02 00 00 00 e8 51 11 00 	jal 4547a0 <do_lio>
  403958:	02 00 00 00 1c 48 11 00 	jal 452070 <e_rsle>
  403960:	a2 00 00 00 93 10 04 00 	lui $4,4243
  403968:	43 00 00 00 94 b2 04 04 	addiu $4,$4,-19820
  403970:	02 00 00 00 c0 35 11 00 	jal 44d700 <s_wsfe>
  403978:	43 00 00 00 00 80 04 1c 	addiu $4,$28,-32768
  403980:	a2 00 00 00 00 10 05 00 	lui $5,4096
  403988:	43 00 00 00 24 04 05 05 	addiu $5,$5,1060
  403990:	43 00 00 00 23 00 06 00 	addiu $6,$0,35
  403998:	02 00 00 00 14 43 11 00 	jal 450c50 <do_fio>
  4039a0:	02 00 00 00 06 37 11 00 	jal 44dc18 <e_wsfe>
  4039a8:	a2 00 00 00 93 10 04 00 	lui $4,4243
  4039b0:	43 00 00 00 a8 b2 04 04 	addiu $4,$4,-19800
  4039b8:	02 00 00 00 16 51 11 00 	jal 454458 <s_rsle>
  4039c0:	43 00 00 00 04 80 04 1c 	addiu $4,$28,-32764
  4039c8:	43 00 00 00 00 80 05 1c 	addiu $5,$28,-32768
  4039d0:	43 00 00 00 14 01 06 1d 	addiu $6,$29,276
  4039d8:	43 00 00 00 04 00 07 00 	addiu $7,$0,4
  4039e0:	02 00 00 00 e8 51 11 00 	jal 4547a0 <do_lio>
  4039e8:	02 00 00 00 1c 48 11 00 	jal 452070 <e_rsle>
  4039f0:	a2 00 00 00 93 10 04 00 	lui $4,4243
  4039f8:	43 00 00 00 bc b2 04 04 	addiu $4,$4,-19780
  403a00:	02 00 00 00 c0 35 11 00 	jal 44d700 <s_wsfe>
  403a08:	43 00 00 00 00 80 04 1c 	addiu $4,$28,-32768
  403a10:	a2 00 00 00 00 10 05 00 	lui $5,4096
  403a18:	43 00 00 00 48 04 05 05 	addiu $5,$5,1096
  403a20:	43 00 00 00 27 00 06 00 	addiu $6,$0,39
  403a28:	02 00 00 00 14 43 11 00 	jal 450c50 <do_fio>
  403a30:	02 00 00 00 06 37 11 00 	jal 44dc18 <e_wsfe>
  403a38:	a2 00 00 00 93 10 04 00 	lui $4,4243
  403a40:	43 00 00 00 d0 b2 04 04 	addiu $4,$4,-19760
  403a48:	02 00 00 00 16 51 11 00 	jal 454458 <s_rsle>
  403a50:	43 00 00 00 04 80 04 1c 	addiu $4,$28,-32764
  403a58:	43 00 00 00 00 80 05 1c 	addiu $5,$28,-32768
  403a60:	43 00 00 00 18 01 06 1d 	addiu $6,$29,280
  403a68:	43 00 00 00 04 00 07 00 	addiu $7,$0,4
  403a70:	02 00 00 00 e8 51 11 00 	jal 4547a0 <do_lio>
  403a78:	02 00 00 00 1c 48 11 00 	jal 452070 <e_rsle>
  403a80:	a2 00 00 00 93 10 04 00 	lui $4,4243
  403a88:	43 00 00 00 e4 b2 04 04 	addiu $4,$4,-19740
  403a90:	02 00 00 00 c0 35 11 00 	jal 44d700 <s_wsfe>
  403a98:	43 00 00 00 00 80 04 1c 	addiu $4,$28,-32768
  403aa0:	a2 00 00 00 00 10 05 00 	lui $5,4096
  403aa8:	43 00 00 00 70 04 05 05 	addiu $5,$5,1136
  403ab0:	43 00 00 00 23 00 06 00 	addiu $6,$0,35
  403ab8:	02 00 00 00 14 43 11 00 	jal 450c50 <do_fio>
  403ac0:	02 00 00 00 06 37 11 00 	jal 44dc18 <e_wsfe>
  403ac8:	a2 00 00 00 93 10 04 00 	lui $4,4243
  403ad0:	43 00 00 00 f8 b2 04 04 	addiu $4,$4,-19720
  403ad8:	02 00 00 00 fe 45 11 00 	jal 4517f8 <s_rsfe>
  403ae0:	43 00 00 00 00 80 04 1c 	addiu $4,$28,-32768
  403ae8:	43 00 00 00 f0 00 05 1d 	addiu $5,$29,240
  403af0:	43 00 00 00 01 00 06 00 	addiu $6,$0,1
  403af8:	02 00 00 00 14 43 11 00 	jal 450c50 <do_fio>
  403b00:	02 00 00 00 70 36 11 00 	jal 44d9c0 <e_rsfe>
  403b08:	22 00 00 00 f0 00 03 1d 	lbu $3,240($29)
  403b10:	43 00 00 00 4e 00 02 00 	addiu $2,$0,78
  403b18:	05 00 00 00 04 00 02 03 	beq $3,$2,403b30 <MAIN__+0x3940>
  403b20:	43 00 00 00 6e 00 02 00 	addiu $2,$0,110
  403b28:	06 00 00 00 34 00 02 03 	bne $3,$2,403c00 <MAIN__+0x3a10>
  403b30:	43 00 00 00 01 00 02 00 	addiu $2,$0,1
  403b38:	34 00 00 00 10 01 02 1d 	sw $2,272($29)
  403b40:	a2 00 00 00 93 10 04 00 	lui $4,4243
  403b48:	43 00 00 00 0c b3 04 04 	addiu $4,$4,-19700
  403b50:	02 00 00 00 c0 35 11 00 	jal 44d700 <s_wsfe>
  403b58:	43 00 00 00 00 80 04 1c 	addiu $4,$28,-32768
  403b60:	a2 00 00 00 00 10 05 00 	lui $5,4096
  403b68:	43 00 00 00 94 04 05 05 	addiu $5,$5,1172
  403b70:	43 00 00 00 21 00 06 00 	addiu $6,$0,33
  403b78:	02 00 00 00 14 43 11 00 	jal 450c50 <do_fio>
  403b80:	02 00 00 00 06 37 11 00 	jal 44dc18 <e_wsfe>
  403b88:	a2 00 00 00 93 10 04 00 	lui $4,4243
  403b90:	43 00 00 00 20 b3 04 04 	addiu $4,$4,-19680
  403b98:	02 00 00 00 16 51 11 00 	jal 454458 <s_rsle>
  403ba0:	43 00 00 00 08 80 04 1c 	addiu $4,$28,-32760
  403ba8:	43 00 00 00 00 80 05 1c 	addiu $5,$28,-32768
  403bb0:	43 00 00 00 b0 ff 06 10 	addiu $6,$16,-80
  403bb8:	43 00 00 00 08 00 07 00 	addiu $7,$0,8
  403bc0:	02 00 00 00 e8 51 11 00 	jal 4547a0 <do_lio>
  403bc8:	43 00 00 00 08 80 04 1c 	addiu $4,$28,-32760
  403bd0:	43 00 00 00 00 80 05 1c 	addiu $5,$28,-32768
  403bd8:	43 00 00 00 b8 ff 06 10 	addiu $6,$16,-72
  403be0:	43 00 00 00 08 00 07 00 	addiu $7,$0,8
  403be8:	02 00 00 00 e8 51 11 00 	jal 4547a0 <do_lio>
  403bf0:	02 00 00 00 1c 48 11 00 	jal 452070 <e_rsle>
  403bf8:	01 00 00 00 02 0f 10 00 	j 403c08 <MAIN__+0x3a18>
  403c00:	34 00 00 00 10 01 00 1d 	sw $0,272($29)
  403c08:	a2 00 00 00 93 10 04 00 	lui $4,4243
  403c10:	43 00 00 00 34 b3 04 04 	addiu $4,$4,-19660
  403c18:	02 00 00 00 c0 35 11 00 	jal 44d700 <s_wsfe>
  403c20:	43 00 00 00 00 80 04 1c 	addiu $4,$28,-32768
  403c28:	a2 00 00 00 00 10 05 00 	lui $5,4096
  403c30:	43 00 00 00 b8 04 05 05 	addiu $5,$5,1208
  403c38:	43 00 00 00 29 00 06 00 	addiu $6,$0,41
  403c40:	02 00 00 00 14 43 11 00 	jal 450c50 <do_fio>
  403c48:	02 00 00 00 06 37 11 00 	jal 44dc18 <e_wsfe>
  403c50:	a2 00 00 00 93 10 04 00 	lui $4,4243
  403c58:	43 00 00 00 48 b3 04 04 	addiu $4,$4,-19640
  403c60:	02 00 00 00 16 51 11 00 	jal 454458 <s_rsle>
  403c68:	43 00 00 00 08 80 04 1c 	addiu $4,$28,-32760
  403c70:	43 00 00 00 00 80 05 1c 	addiu $5,$28,-32768
  403c78:	a2 00 00 00 93 10 11 00 	lui $17,4243
  403c80:	43 00 00 00 98 f9 11 11 	addiu $17,$17,-1640
  403c88:	42 00 00 00 00 06 11 00 	addu $6,$0,$17
  403c90:	43 00 00 00 08 00 07 00 	addiu $7,$0,8
  403c98:	02 00 00 00 e8 51 11 00 	jal 4547a0 <do_lio>
  403ca0:	02 00 00 00 1c 48 11 00 	jal 452070 <e_rsle>
  403ca8:	a2 00 00 00 93 10 04 00 	lui $4,4243
  403cb0:	43 00 00 00 5c b3 04 04 	addiu $4,$4,-19620
  403cb8:	02 00 00 00 c0 35 11 00 	jal 44d700 <s_wsfe>
  403cc0:	43 00 00 00 00 80 04 1c 	addiu $4,$28,-32768
  403cc8:	a2 00 00 00 00 10 05 00 	lui $5,4096
  403cd0:	43 00 00 00 e4 04 05 05 	addiu $5,$5,1252
  403cd8:	43 00 00 00 1e 00 06 00 	addiu $6,$0,30
  403ce0:	02 00 00 00 14 43 11 00 	jal 450c50 <do_fio>
  403ce8:	02 00 00 00 06 37 11 00 	jal 44dc18 <e_wsfe>
  403cf0:	a2 00 00 00 93 10 04 00 	lui $4,4243
  403cf8:	43 00 00 00 70 b3 04 04 	addiu $4,$4,-19600
  403d00:	02 00 00 00 16 51 11 00 	jal 454458 <s_rsle>
  403d08:	43 00 00 00 08 80 04 1c 	addiu $4,$28,-32760
  403d10:	43 00 00 00 00 80 05 1c 	addiu $5,$28,-32768
  403d18:	a2 00 00 00 93 10 10 00 	lui $16,4243
  403d20:	43 00 00 00 e8 f8 10 10 	addiu $16,$16,-1816
  403d28:	42 00 00 00 00 06 10 00 	addu $6,$0,$16
  403d30:	43 00 00 00 08 00 07 00 	addiu $7,$0,8
  403d38:	02 00 00 00 e8 51 11 00 	jal 4547a0 <do_lio>
  403d40:	02 00 00 00 1c 48 11 00 	jal 452070 <e_rsle>
  403d48:	a2 00 00 00 93 10 04 00 	lui $4,4243
  403d50:	43 00 00 00 84 b3 04 04 	addiu $4,$4,-19580
  403d58:	02 00 00 00 c0 35 11 00 	jal 44d700 <s_wsfe>
  403d60:	43 00 00 00 00 80 04 1c 	addiu $4,$28,-32768
  403d68:	a2 00 00 00 00 10 05 00 	lui $5,4096
  403d70:	43 00 00 00 04 05 05 05 	addiu $5,$5,1284
  403d78:	43 00 00 00 2b 00 06 00 	addiu $6,$0,43
  403d80:	02 00 00 00 14 43 11 00 	jal 450c50 <do_fio>
  403d88:	02 00 00 00 06 37 11 00 	jal 44dc18 <e_wsfe>
  403d90:	a2 00 00 00 93 10 04 00 	lui $4,4243
  403d98:	43 00 00 00 98 b3 04 04 	addiu $4,$4,-19560
  403da0:	02 00 00 00 16 51 11 00 	jal 454458 <s_rsle>
  403da8:	43 00 00 00 08 80 04 1c 	addiu $4,$28,-32760
  403db0:	43 00 00 00 00 80 05 1c 	addiu $5,$28,-32768
  403db8:	43 00 00 00 f8 ff 06 10 	addiu $6,$16,-8
  403dc0:	43 00 00 00 08 00 07 00 	addiu $7,$0,8
  403dc8:	02 00 00 00 e8 51 11 00 	jal 4547a0 <do_lio>
  403dd0:	02 00 00 00 1c 48 11 00 	jal 452070 <e_rsle>
  403dd8:	a2 00 00 00 93 10 04 00 	lui $4,4243
  403de0:	43 00 00 00 ac b3 04 04 	addiu $4,$4,-19540
  403de8:	02 00 00 00 c0 35 11 00 	jal 44d700 <s_wsfe>
  403df0:	43 00 00 00 00 80 04 1c 	addiu $4,$28,-32768
  403df8:	a2 00 00 00 00 10 05 00 	lui $5,4096
  403e00:	43 00 00 00 30 05 05 05 	addiu $5,$5,1328
  403e08:	43 00 00 00 17 00 06 00 	addiu $6,$0,23
  403e10:	02 00 00 00 14 43 11 00 	jal 450c50 <do_fio>
  403e18:	02 00 00 00 06 37 11 00 	jal 44dc18 <e_wsfe>
  403e20:	a2 00 00 00 93 10 04 00 	lui $4,4243
  403e28:	43 00 00 00 c0 b3 04 04 	addiu $4,$4,-19520
  403e30:	02 00 00 00 16 51 11 00 	jal 454458 <s_rsle>
  403e38:	43 00 00 00 08 80 04 1c 	addiu $4,$28,-32760
  403e40:	43 00 00 00 00 80 05 1c 	addiu $5,$28,-32768
  403e48:	43 00 00 00 08 00 06 11 	addiu $6,$17,8
  403e50:	43 00 00 00 08 00 07 00 	addiu $7,$0,8
  403e58:	02 00 00 00 e8 51 11 00 	jal 4547a0 <do_lio>
  403e60:	43 00 00 00 08 80 04 1c 	addiu $4,$28,-32760
  403e68:	43 00 00 00 00 80 05 1c 	addiu $5,$28,-32768
  403e70:	43 00 00 00 10 00 06 11 	addiu $6,$17,16
  403e78:	43 00 00 00 08 00 07 00 	addiu $7,$0,8
  403e80:	02 00 00 00 e8 51 11 00 	jal 4547a0 <do_lio>
  403e88:	02 00 00 00 1c 48 11 00 	jal 452070 <e_rsle>
  403e90:	a2 00 00 00 93 10 04 00 	lui $4,4243
  403e98:	43 00 00 00 d4 b3 04 04 	addiu $4,$4,-19500
  403ea0:	02 00 00 00 c0 35 11 00 	jal 44d700 <s_wsfe>
  403ea8:	43 00 00 00 00 80 04 1c 	addiu $4,$28,-32768
  403eb0:	a2 00 00 00 00 10 05 00 	lui $5,4096
  403eb8:	43 00 00 00 48 05 05 05 	addiu $5,$5,1352
  403ec0:	43 00 00 00 2a 00 06 00 	addiu $6,$0,42
  403ec8:	02 00 00 00 14 43 11 00 	jal 450c50 <do_fio>
  403ed0:	02 00 00 00 06 37 11 00 	jal 44dc18 <e_wsfe>
  403ed8:	a2 00 00 00 93 10 04 00 	lui $4,4243
  403ee0:	43 00 00 00 e8 b3 04 04 	addiu $4,$4,-19480
  403ee8:	02 00 00 00 16 51 11 00 	jal 454458 <s_rsle>
  403ef0:	43 00 00 00 08 80 04 1c 	addiu $4,$28,-32760
  403ef8:	43 00 00 00 00 80 05 1c 	addiu $5,$28,-32768
  403f00:	43 00 00 00 c8 ff 06 10 	addiu $6,$16,-56
  403f08:	43 00 00 00 08 00 07 00 	addiu $7,$0,8
  403f10:	02 00 00 00 e8 51 11 00 	jal 4547a0 <do_lio>
  403f18:	02 00 00 00 1c 48 11 00 	jal 452070 <e_rsle>
  403f20:	a2 00 00 00 93 10 04 00 	lui $4,4243
  403f28:	43 00 00 00 fc b3 04 04 	addiu $4,$4,-19460
  403f30:	02 00 00 00 c0 35 11 00 	jal 44d700 <s_wsfe>
  403f38:	43 00 00 00 00 80 04 1c 	addiu $4,$28,-32768
  403f40:	a2 00 00 00 00 10 05 00 	lui $5,4096
  403f48:	43 00 00 00 74 05 05 05 	addiu $5,$5,1396
  403f50:	43 00 00 00 29 00 06 00 	addiu $6,$0,41
  403f58:	02 00 00 00 14 43 11 00 	jal 450c50 <do_fio>
  403f60:	02 00 00 00 06 37 11 00 	jal 44dc18 <e_wsfe>
  403f68:	a2 00 00 00 93 10 04 00 	lui $4,4243
  403f70:	43 00 00 00 10 b4 04 04 	addiu $4,$4,-19440
  403f78:	02 00 00 00 16 51 11 00 	jal 454458 <s_rsle>
  403f80:	43 00 00 00 08 80 04 1c 	addiu $4,$28,-32760
  403f88:	43 00 00 00 00 80 05 1c 	addiu $5,$28,-32768
  403f90:	43 00 00 00 10 00 06 10 	addiu $6,$16,16
  403f98:	43 00 00 00 08 00 07 00 	addiu $7,$0,8
  403fa0:	02 00 00 00 e8 51 11 00 	jal 4547a0 <do_lio>
  403fa8:	43 00 00 00 08 80 04 1c 	addiu $4,$28,-32760
  403fb0:	43 00 00 00 00 80 05 1c 	addiu $5,$28,-32768
  403fb8:	43 00 00 00 08 00 06 10 	addiu $6,$16,8
  403fc0:	43 00 00 00 08 00 07 00 	addiu $7,$0,8
  403fc8:	02 00 00 00 e8 51 11 00 	jal 4547a0 <do_lio>
  403fd0:	02 00 00 00 1c 48 11 00 	jal 452070 <e_rsle>
  403fd8:	a2 00 00 00 93 10 04 00 	lui $4,4243
  403fe0:	43 00 00 00 24 b4 04 04 	addiu $4,$4,-19420
  403fe8:	02 00 00 00 c0 35 11 00 	jal 44d700 <s_wsfe>
  403ff0:	43 00 00 00 00 80 04 1c 	addiu $4,$28,-32768
  403ff8:	a2 00 00 00 00 10 05 00 	lui $5,4096
  404000:	43 00 00 00 a0 05 05 05 	addiu $5,$5,1440
  404008:	43 00 00 00 2b 00 06 00 	addiu $6,$0,43
  404010:	02 00 00 00 14 43 11 00 	jal 450c50 <do_fio>
  404018:	02 00 00 00 06 37 11 00 	jal 44dc18 <e_wsfe>
  404020:	a2 00 00 00 93 10 04 00 	lui $4,4243
  404028:	43 00 00 00 38 b4 04 04 	addiu $4,$4,-19400
  404030:	02 00 00 00 16 51 11 00 	jal 454458 <s_rsle>
  404038:	43 00 00 00 08 80 04 1c 	addiu $4,$28,-32760
  404040:	43 00 00 00 00 80 05 1c 	addiu $5,$28,-32768
  404048:	43 00 00 00 28 00 06 11 	addiu $6,$17,40
  404050:	43 00 00 00 08 00 07 00 	addiu $7,$0,8
  404058:	02 00 00 00 e8 51 11 00 	jal 4547a0 <do_lio>
  404060:	43 00 00 00 08 80 04 1c 	addiu $4,$28,-32760
  404068:	43 00 00 00 00 80 05 1c 	addiu $5,$28,-32768
  404070:	43 00 00 00 30 00 06 11 	addiu $6,$17,48
  404078:	43 00 00 00 08 00 07 00 	addiu $7,$0,8
  404080:	02 00 00 00 e8 51 11 00 	jal 4547a0 <do_lio>
  404088:	02 00 00 00 1c 48 11 00 	jal 452070 <e_rsle>
  404090:	a2 00 00 00 93 10 04 00 	lui $4,4243
  404098:	43 00 00 00 4c b4 04 04 	addiu $4,$4,-19380
  4040a0:	02 00 00 00 c0 35 11 00 	jal 44d700 <s_wsfe>
  4040a8:	43 00 00 00 00 80 04 1c 	addiu $4,$28,-32768
  4040b0:	a2 00 00 00 00 10 05 00 	lui $5,4096
  4040b8:	43 00 00 00 cc 05 05 05 	addiu $5,$5,1484
  4040c0:	43 00 00 00 0d 00 06 00 	addiu $6,$0,13
  4040c8:	02 00 00 00 14 43 11 00 	jal 450c50 <do_fio>
  4040d0:	02 00 00 00 06 37 11 00 	jal 44dc18 <e_wsfe>
  4040d8:	a2 00 00 00 93 10 04 00 	lui $4,4243
  4040e0:	43 00 00 00 60 b4 04 04 	addiu $4,$4,-19360
  4040e8:	02 00 00 00 16 51 11 00 	jal 454458 <s_rsle>
  4040f0:	43 00 00 00 08 80 04 1c 	addiu $4,$28,-32760
  4040f8:	43 00 00 00 00 80 05 1c 	addiu $5,$28,-32768
  404100:	43 00 00 00 18 00 06 11 	addiu $6,$17,24
  404108:	43 00 00 00 08 00 07 00 	addiu $7,$0,8
  404110:	02 00 00 00 e8 51 11 00 	jal 4547a0 <do_lio>
  404118:	43 00 00 00 08 80 04 1c 	addiu $4,$28,-32760
  404120:	43 00 00 00 00 80 05 1c 	addiu $5,$28,-32768
  404128:	43 00 00 00 20 00 06 11 	addiu $6,$17,32
  404130:	43 00 00 00 08 00 07 00 	addiu $7,$0,8
  404138:	02 00 00 00 e8 51 11 00 	jal 4547a0 <do_lio>
  404140:	02 00 00 00 1c 48 11 00 	jal 452070 <e_rsle>
  404148:	a2 00 00 00 93 10 04 00 	lui $4,4243
  404150:	43 00 00 00 74 b4 04 04 	addiu $4,$4,-19340
  404158:	02 00 00 00 c0 35 11 00 	jal 44d700 <s_wsfe>
  404160:	43 00 00 00 00 80 04 1c 	addiu $4,$28,-32768
  404168:	a2 00 00 00 00 10 05 00 	lui $5,4096
  404170:	43 00 00 00 dc 05 05 05 	addiu $5,$5,1500
  404178:	43 00 00 00 26 00 06 00 	addiu $6,$0,38
  404180:	02 00 00 00 14 43 11 00 	jal 450c50 <do_fio>
  404188:	02 00 00 00 06 37 11 00 	jal 44dc18 <e_wsfe>
  404190:	a2 00 00 00 93 10 04 00 	lui $4,4243
  404198:	43 00 00 00 88 b4 04 04 	addiu $4,$4,-19320
  4041a0:	02 00 00 00 16 51 11 00 	jal 454458 <s_rsle>
  4041a8:	43 00 00 00 04 80 04 1c 	addiu $4,$28,-32764
  4041b0:	43 00 00 00 00 80 05 1c 	addiu $5,$28,-32768
  4041b8:	a2 00 00 00 93 10 10 00 	lui $16,4243
  4041c0:	43 00 00 00 74 f8 10 10 	addiu $16,$16,-1932
  4041c8:	42 00 00 00 00 06 10 00 	addu $6,$0,$16
  4041d0:	43 00 00 00 04 00 07 00 	addiu $7,$0,4
  4041d8:	02 00 00 00 e8 51 11 00 	jal 4547a0 <do_lio>
  4041e0:	02 00 00 00 1c 48 11 00 	jal 452070 <e_rsle>
  4041e8:	a2 00 00 00 93 10 04 00 	lui $4,4243
  4041f0:	43 00 00 00 9c b4 04 04 	addiu $4,$4,-19300
  4041f8:	02 00 00 00 c0 35 11 00 	jal 44d700 <s_wsfe>
  404200:	43 00 00 00 00 80 04 1c 	addiu $4,$28,-32768
  404208:	a2 00 00 00 00 10 05 00 	lui $5,4096
  404210:	43 00 00 00 04 06 05 05 	addiu $5,$5,1540
  404218:	43 00 00 00 2a 00 06 00 	addiu $6,$0,42
  404220:	02 00 00 00 14 43 11 00 	jal 450c50 <do_fio>
  404228:	02 00 00 00 06 37 11 00 	jal 44dc18 <e_wsfe>
  404230:	a2 00 00 00 93 10 04 00 	lui $4,4243
  404238:	43 00 00 00 b0 b4 04 04 	addiu $4,$4,-19280
  404240:	02 00 00 00 16 51 11 00 	jal 454458 <s_rsle>
  404248:	43 00 00 00 04 80 04 1c 	addiu $4,$28,-32764
  404250:	43 00 00 00 00 80 05 1c 	addiu $5,$28,-32768
  404258:	43 00 00 00 04 00 06 10 	addiu $6,$16,4
  404260:	43 00 00 00 04 00 07 00 	addiu $7,$0,4
  404268:	02 00 00 00 e8 51 11 00 	jal 4547a0 <do_lio>
  404270:	43 00 00 00 04 80 04 1c 	addiu $4,$28,-32764
  404278:	43 00 00 00 00 80 05 1c 	addiu $5,$28,-32768
  404280:	43 00 00 00 08 00 06 10 	addiu $6,$16,8
  404288:	43 00 00 00 04 00 07 00 	addiu $7,$0,4
  404290:	02 00 00 00 e8 51 11 00 	jal 4547a0 <do_lio>
  404298:	02 00 00 00 1c 48 11 00 	jal 452070 <e_rsle>
  4042a0:	a2 00 00 00 93 10 04 00 	lui $4,4243
  4042a8:	43 00 00 00 c4 b4 04 04 	addiu $4,$4,-19260
  4042b0:	02 00 00 00 c0 35 11 00 	jal 44d700 <s_wsfe>
  4042b8:	43 00 00 00 00 80 04 1c 	addiu $4,$28,-32768
  4042c0:	a2 00 00 00 00 10 05 00 	lui $5,4096
  4042c8:	43 00 00 00 30 06 05 05 	addiu $5,$5,1584
  4042d0:	43 00 00 00 2b 00 06 00 	addiu $6,$0,43
  4042d8:	02 00 00 00 14 43 11 00 	jal 450c50 <do_fio>
  4042e0:	02 00 00 00 06 37 11 00 	jal 44dc18 <e_wsfe>
  4042e8:	a2 00 00 00 93 10 04 00 	lui $4,4243
  4042f0:	43 00 00 00 d8 b4 04 04 	addiu $4,$4,-19240
  4042f8:	02 00 00 00 16 51 11 00 	jal 454458 <s_rsle>
  404300:	43 00 00 00 04 80 04 1c 	addiu $4,$28,-32764
  404308:	43 00 00 00 00 80 05 1c 	addiu $5,$28,-32768
  404310:	43 00 00 00 0c 00 06 10 	addiu $6,$16,12
  404318:	43 00 00 00 04 00 07 00 	addiu $7,$0,4
  404320:	02 00 00 00 e8 51 11 00 	jal 4547a0 <do_lio>
  404328:	43 00 00 00 04 80 04 1c 	addiu $4,$28,-32764
  404330:	43 00 00 00 00 80 05 1c 	addiu $5,$28,-32768
  404338:	43 00 00 00 10 00 06 10 	addiu $6,$16,16
  404340:	43 00 00 00 04 00 07 00 	addiu $7,$0,4
  404348:	02 00 00 00 e8 51 11 00 	jal 4547a0 <do_lio>
  404350:	02 00 00 00 1c 48 11 00 	jal 452070 <e_rsle>
  404358:	a2 00 00 00 93 10 04 00 	lui $4,4243
  404360:	43 00 00 00 ec b4 04 04 	addiu $4,$4,-19220
  404368:	02 00 00 00 c0 35 11 00 	jal 44d700 <s_wsfe>
  404370:	43 00 00 00 00 80 04 1c 	addiu $4,$28,-32768
  404378:	a2 00 00 00 00 10 05 00 	lui $5,4096
  404380:	43 00 00 00 5c 06 05 05 	addiu $5,$5,1628
  404388:	43 00 00 00 1c 00 06 00 	addiu $6,$0,28
  404390:	02 00 00 00 14 43 11 00 	jal 450c50 <do_fio>
  404398:	02 00 00 00 06 37 11 00 	jal 44dc18 <e_wsfe>
  4043a0:	a2 00 00 00 93 10 04 00 	lui $4,4243
  4043a8:	43 00 00 00 00 b5 04 04 	addiu $4,$4,-19200
  4043b0:	02 00 00 00 16 51 11 00 	jal 454458 <s_rsle>
  4043b8:	43 00 00 00 04 80 04 1c 	addiu $4,$28,-32764
  4043c0:	43 00 00 00 00 80 05 1c 	addiu $5,$28,-32768
  4043c8:	43 00 00 00 14 00 06 10 	addiu $6,$16,20
  4043d0:	43 00 00 00 04 00 07 00 	addiu $7,$0,4
  4043d8:	02 00 00 00 e8 51 11 00 	jal 4547a0 <do_lio>
  4043e0:	02 00 00 00 1c 48 11 00 	jal 452070 <e_rsle>
  4043e8:	a2 00 00 00 93 10 04 00 	lui $4,4243
  4043f0:	43 00 00 00 14 b5 04 04 	addiu $4,$4,-19180
  4043f8:	02 00 00 00 c0 35 11 00 	jal 44d700 <s_wsfe>
  404400:	43 00 00 00 00 80 04 1c 	addiu $4,$28,-32768
  404408:	a2 00 00 00 00 10 05 00 	lui $5,4096
  404410:	43 00 00 00 7c 06 05 05 	addiu $5,$5,1660
  404418:	43 00 00 00 30 00 06 00 	addiu $6,$0,48
  404420:	02 00 00 00 14 43 11 00 	jal 450c50 <do_fio>
  404428:	02 00 00 00 06 37 11 00 	jal 44dc18 <e_wsfe>
  404430:	a2 00 00 00 93 10 04 00 	lui $4,4243
  404438:	43 00 00 00 28 b5 04 04 	addiu $4,$4,-19160
  404440:	02 00 00 00 16 51 11 00 	jal 454458 <s_rsle>
  404448:	43 00 00 00 08 80 04 1c 	addiu $4,$28,-32760
  404450:	43 00 00 00 00 80 05 1c 	addiu $5,$28,-32768
  404458:	43 00 00 00 40 00 06 11 	addiu $6,$17,64
  404460:	43 00 00 00 08 00 07 00 	addiu $7,$0,8
  404468:	02 00 00 00 e8 51 11 00 	jal 4547a0 <do_lio>
  404470:	43 00 00 00 08 80 04 1c 	addiu $4,$28,-32760
  404478:	43 00 00 00 00 80 05 1c 	addiu $5,$28,-32768
  404480:	43 00 00 00 48 00 06 11 	addiu $6,$17,72
  404488:	43 00 00 00 08 00 07 00 	addiu $7,$0,8
  404490:	02 00 00 00 e8 51 11 00 	jal 4547a0 <do_lio>
  404498:	02 00 00 00 1c 48 11 00 	jal 452070 <e_rsle>
  4044a0:	43 00 00 00 01 00 11 00 	addiu $17,$0,1
  4044a8:	a2 00 00 00 93 10 16 00 	lui $22,4243
  4044b0:	43 00 00 00 cc f7 16 16 	addiu $22,$22,-2100
  4044b8:	43 00 00 00 e8 ff 13 16 	addiu $19,$22,-24
  4044c0:	43 00 00 00 a0 01 08 1d 	addiu $8,$29,416
  4044c8:	42 00 00 00 00 1e 00 00 	addu $30,$0,$0
  4044d0:	43 00 00 00 04 00 12 16 	addiu $18,$22,4
  4044d8:	42 00 00 00 00 17 00 00 	addu $23,$0,$0
  4044e0:	34 00 00 00 a8 01 08 1d 	sw $8,424($29)
  4044e8:	34 00 00 00 1c 01 00 1d 	sw $0,284($29)
  4044f0:	34 00 00 00 20 01 00 1d 	sw $0,288($29)
  4044f8:	a2 00 00 00 93 10 04 00 	lui $4,4243
  404500:	43 00 00 00 3c b5 04 04 	addiu $4,$4,-19140
  404508:	02 00 00 00 c0 35 11 00 	jal 44d700 <s_wsfe>
  404510:	43 00 00 00 00 80 04 1c 	addiu $4,$28,-32768
  404518:	a2 00 00 00 00 10 05 00 	lui $5,4096
  404520:	43 00 00 00 b0 06 05 05 	addiu $5,$5,1712
  404528:	43 00 00 00 0d 00 06 00 	addiu $6,$0,13
  404530:	02 00 00 00 14 43 11 00 	jal 450c50 <do_fio>
  404538:	43 00 00 00 00 80 04 1c 	addiu $4,$28,-32768
  404540:	a2 00 00 00 93 10 08 00 	lui $8,4243
  404548:	43 00 00 00 b0 a9 08 08 	addiu $8,$8,-22096
  404550:	42 00 00 00 00 10 08 17 	addu $16,$23,$8
  404558:	42 00 00 00 00 05 10 00 	addu $5,$0,$16
  404560:	43 00 00 00 0e 00 06 00 	addiu $6,$0,14
  404568:	02 00 00 00 14 43 11 00 	jal 450c50 <do_fio>
  404570:	43 00 00 00 00 80 04 1c 	addiu $4,$28,-32768
  404578:	a2 00 00 00 00 10 05 00 	lui $5,4096
  404580:	43 00 00 00 c0 06 05 05 	addiu $5,$5,1728
  404588:	43 00 00 00 0a 00 06 00 	addiu $6,$0,10
  404590:	02 00 00 00 14 43 11 00 	jal 450c50 <do_fio>
  404598:	02 00 00 00 06 37 11 00 	jal 44dc18 <e_wsfe>
  4045a0:	a2 00 00 00 93 10 04 00 	lui $4,4243
  4045a8:	43 00 00 00 50 b5 04 04 	addiu $4,$4,-19120
  4045b0:	02 00 00 00 fe 45 11 00 	jal 4517f8 <s_rsfe>
  4045b8:	43 00 00 00 00 80 04 1c 	addiu $4,$28,-32768
  4045c0:	43 00 00 00 f0 00 05 1d 	addiu $5,$29,240
  4045c8:	43 00 00 00 01 00 06 00 	addiu $6,$0,1
  4045d0:	02 00 00 00 14 43 11 00 	jal 450c50 <do_fio>
  4045d8:	02 00 00 00 70 36 11 00 	jal 44d9c0 <e_rsfe>
  4045e0:	22 00 00 00 f0 00 03 1d 	lbu $3,240($29)
  4045e8:	43 00 00 00 4e 00 02 00 	addiu $2,$0,78
  4045f0:	05 00 00 00 04 00 02 03 	beq $3,$2,404608 <MAIN__+0x4418>
  4045f8:	43 00 00 00 6e 00 02 00 	addiu $2,$0,110
  404600:	06 00 00 00 04 00 02 03 	bne $3,$2,404618 <MAIN__+0x4428>
  404608:	34 00 00 00 00 00 00 12 	sw $0,0($18)
  404610:	01 00 00 00 98 13 10 00 	j 404e60 <MAIN__+0x4c70>
  404618:	a2 00 00 00 93 10 04 00 	lui $4,4243
  404620:	43 00 00 00 64 b5 04 04 	addiu $4,$4,-19100
  404628:	02 00 00 00 c0 35 11 00 	jal 44d700 <s_wsfe>
  404630:	43 00 00 00 00 80 04 1c 	addiu $4,$28,-32768
  404638:	a2 00 00 00 00 10 05 00 	lui $5,4096
  404640:	43 00 00 00 cc 06 05 05 	addiu $5,$5,1740
  404648:	43 00 00 00 17 00 06 00 	addiu $6,$0,23
  404650:	02 00 00 00 14 43 11 00 	jal 450c50 <do_fio>
  404658:	43 00 00 00 00 80 04 1c 	addiu $4,$28,-32768
  404660:	42 00 00 00 00 05 10 00 	addu $5,$0,$16
  404668:	43 00 00 00 0e 00 06 00 	addiu $6,$0,14
  404670:	02 00 00 00 14 43 11 00 	jal 450c50 <do_fio>
  404678:	02 00 00 00 06 37 11 00 	jal 44dc18 <e_wsfe>
  404680:	a2 00 00 00 93 10 04 00 	lui $4,4243
  404688:	43 00 00 00 78 b5 04 04 	addiu $4,$4,-19080
  404690:	02 00 00 00 16 51 11 00 	jal 454458 <s_rsle>
  404698:	43 00 00 00 04 80 04 1c 	addiu $4,$28,-32764
  4046a0:	43 00 00 00 00 80 05 1c 	addiu $5,$28,-32768
  4046a8:	42 00 00 00 00 06 12 00 	addu $6,$0,$18
  4046b0:	43 00 00 00 04 00 07 00 	addiu $7,$0,4
  4046b8:	02 00 00 00 e8 51 11 00 	jal 4547a0 <do_lio>
  4046c0:	02 00 00 00 1c 48 11 00 	jal 452070 <e_rsle>
  4046c8:	28 00 00 00 00 00 15 12 	lw $21,0($18)
  4046d0:	43 00 00 00 01 00 02 00 	addiu $2,$0,1
  4046d8:	34 00 00 00 a0 01 02 1d 	sw $2,416($29)
  4046e0:	07 00 00 00 de 01 00 15 	blez $21,404e60 <MAIN__+0x4c70>
  4046e8:	42 00 00 00 00 14 1e 00 	addu $20,$0,$30
  4046f0:	a2 00 00 00 93 10 04 00 	lui $4,4243
  4046f8:	43 00 00 00 8c b5 04 04 	addiu $4,$4,-19060
  404700:	02 00 00 00 c0 35 11 00 	jal 44d700 <s_wsfe>
  404708:	43 00 00 00 00 80 04 1c 	addiu $4,$28,-32768
  404710:	a2 00 00 00 00 10 05 00 	lui $5,4096
  404718:	43 00 00 00 e4 06 05 05 	addiu $5,$5,1764
  404720:	43 00 00 00 08 00 06 00 	addiu $6,$0,8
  404728:	02 00 00 00 14 43 11 00 	jal 450c50 <do_fio>
  404730:	43 00 00 00 00 80 04 1c 	addiu $4,$28,-32768
  404738:	55 00 00 00 03 10 14 00 	sll $16,$20,0x3
  404740:	45 00 00 00 00 10 14 10 	subu $16,$16,$20
  404748:	55 00 00 00 01 10 10 00 	sll $16,$16,0x1
  404750:	a2 00 00 00 93 10 08 00 	lui $8,4243
  404758:	43 00 00 00 b0 a9 08 08 	addiu $8,$8,-22096
  404760:	42 00 00 00 00 10 08 10 	addu $16,$16,$8
  404768:	42 00 00 00 00 05 10 00 	addu $5,$0,$16
  404770:	43 00 00 00 0e 00 06 00 	addiu $6,$0,14
  404778:	02 00 00 00 14 43 11 00 	jal 450c50 <do_fio>
  404780:	43 00 00 00 00 80 04 1c 	addiu $4,$28,-32768
  404788:	a2 00 00 00 00 10 05 00 	lui $5,4096
  404790:	43 00 00 00 f0 06 05 05 	addiu $5,$5,1776
  404798:	43 00 00 00 14 00 06 00 	addiu $6,$0,20
  4047a0:	02 00 00 00 14 43 11 00 	jal 450c50 <do_fio>
  4047a8:	02 00 00 00 06 37 11 00 	jal 44dc18 <e_wsfe>
  4047b0:	a2 00 00 00 93 10 04 00 	lui $4,4243
  4047b8:	43 00 00 00 a0 b5 04 04 	addiu $4,$4,-19040
  4047c0:	02 00 00 00 16 51 11 00 	jal 454458 <s_rsle>
  4047c8:	43 00 00 00 04 80 04 1c 	addiu $4,$28,-32764
  4047d0:	28 00 00 00 a0 01 06 1d 	lw $6,416($29)
  4047d8:	43 00 00 00 00 80 05 1c 	addiu $5,$28,-32768
  4047e0:	43 00 00 00 04 00 07 00 	addiu $7,$0,4
  4047e8:	55 00 00 00 01 06 06 00 	sll $6,$6,0x1
  4047f0:	42 00 00 00 00 06 06 11 	addu $6,$17,$6
  4047f8:	55 00 00 00 02 06 06 00 	sll $6,$6,0x2
  404800:	42 00 00 00 00 06 13 06 	addu $6,$6,$19
  404808:	02 00 00 00 e8 51 11 00 	jal 4547a0 <do_lio>
  404810:	02 00 00 00 1c 48 11 00 	jal 452070 <e_rsle>
  404818:	a2 00 00 00 93 10 04 00 	lui $4,4243
  404820:	43 00 00 00 b4 b5 04 04 	addiu $4,$4,-19020
  404828:	02 00 00 00 c0 35 11 00 	jal 44d700 <s_wsfe>
  404830:	43 00 00 00 00 80 04 1c 	addiu $4,$28,-32768
  404838:	42 00 00 00 00 05 10 00 	addu $5,$0,$16
  404840:	43 00 00 00 0e 00 06 00 	addiu $6,$0,14
  404848:	02 00 00 00 14 43 11 00 	jal 450c50 <do_fio>
  404850:	28 00 00 00 a8 01 05 1d 	lw $5,424($29)
  404858:	43 00 00 00 00 80 04 1c 	addiu $4,$28,-32768
  404860:	43 00 00 00 04 00 06 00 	addiu $6,$0,4
  404868:	02 00 00 00 14 43 11 00 	jal 450c50 <do_fio>
  404870:	43 00 00 00 00 80 04 1c 	addiu $4,$28,-32768
  404878:	a2 00 00 00 00 10 05 00 	lui $5,4096
  404880:	43 00 00 00 08 07 05 05 	addiu $5,$5,1800
  404888:	43 00 00 00 1b 00 06 00 	addiu $6,$0,27
  404890:	02 00 00 00 14 43 11 00 	jal 450c50 <do_fio>
  404898:	02 00 00 00 06 37 11 00 	jal 44dc18 <e_wsfe>
  4048a0:	a2 00 00 00 93 10 04 00 	lui $4,4243
  4048a8:	43 00 00 00 c8 b5 04 04 	addiu $4,$4,-19000
  4048b0:	02 00 00 00 16 51 11 00 	jal 454458 <s_rsle>
  4048b8:	43 00 00 00 04 80 04 1c 	addiu $4,$28,-32764
  4048c0:	28 00 00 00 a0 01 06 1d 	lw $6,416($29)
  4048c8:	43 00 00 00 00 80 05 1c 	addiu $5,$28,-32768
  4048d0:	43 00 00 00 04 00 07 00 	addiu $7,$0,4
  4048d8:	55 00 00 00 01 06 06 00 	sll $6,$6,0x1
  4048e0:	42 00 00 00 00 06 06 11 	addu $6,$17,$6
  4048e8:	55 00 00 00 02 06 06 00 	sll $6,$6,0x2
  4048f0:	42 00 00 00 00 06 16 06 	addu $6,$6,$22
  4048f8:	02 00 00 00 e8 51 11 00 	jal 4547a0 <do_lio>
  404900:	43 00 00 00 04 80 04 1c 	addiu $4,$28,-32764
  404908:	28 00 00 00 a0 01 06 1d 	lw $6,416($29)
  404910:	43 00 00 00 00 80 05 1c 	addiu $5,$28,-32768
  404918:	43 00 00 00 04 00 07 00 	addiu $7,$0,4
  404920:	a2 00 00 00 93 10 08 00 	lui $8,4243
  404928:	43 00 00 00 dc f7 08 08 	addiu $8,$8,-2084
  404930:	55 00 00 00 01 06 06 00 	sll $6,$6,0x1
  404938:	42 00 00 00 00 06 06 11 	addu $6,$17,$6
  404940:	55 00 00 00 02 06 06 00 	sll $6,$6,0x2
  404948:	42 00 00 00 00 06 08 06 	addu $6,$6,$8
  404950:	02 00 00 00 e8 51 11 00 	jal 4547a0 <do_lio>
  404958:	43 00 00 00 04 80 04 1c 	addiu $4,$28,-32764
  404960:	28 00 00 00 a0 01 06 1d 	lw $6,416($29)
  404968:	43 00 00 00 00 80 05 1c 	addiu $5,$28,-32768
  404970:	43 00 00 00 04 00 07 00 	addiu $7,$0,4
  404978:	a2 00 00 00 93 10 08 00 	lui $8,4243
  404980:	43 00 00 00 ec f7 08 08 	addiu $8,$8,-2068
  404988:	55 00 00 00 01 06 06 00 	sll $6,$6,0x1
  404990:	42 00 00 00 00 06 06 11 	addu $6,$17,$6
  404998:	55 00 00 00 02 06 06 00 	sll $6,$6,0x2
  4049a0:	42 00 00 00 00 06 08 06 	addu $6,$6,$8
  4049a8:	02 00 00 00 e8 51 11 00 	jal 4547a0 <do_lio>
  4049b0:	43 00 00 00 04 80 04 1c 	addiu $4,$28,-32764
  4049b8:	28 00 00 00 a0 01 06 1d 	lw $6,416($29)
  4049c0:	43 00 00 00 00 80 05 1c 	addiu $5,$28,-32768
  4049c8:	43 00 00 00 04 00 07 00 	addiu $7,$0,4
  4049d0:	a2 00 00 00 93 10 08 00 	lui $8,4243
  4049d8:	43 00 00 00 fc f7 08 08 	addiu $8,$8,-2052
  4049e0:	55 00 00 00 01 06 06 00 	sll $6,$6,0x1
  4049e8:	42 00 00 00 00 06 06 11 	addu $6,$17,$6
  4049f0:	55 00 00 00 02 06 06 00 	sll $6,$6,0x2
  4049f8:	42 00 00 00 00 06 08 06 	addu $6,$6,$8
  404a00:	02 00 00 00 e8 51 11 00 	jal 4547a0 <do_lio>
  404a08:	02 00 00 00 1c 48 11 00 	jal 452070 <e_rsle>
  404a10:	a2 00 00 00 93 10 04 00 	lui $4,4243
  404a18:	43 00 00 00 dc b5 04 04 	addiu $4,$4,-18980
  404a20:	02 00 00 00 c0 35 11 00 	jal 44d700 <s_wsfe>
  404a28:	43 00 00 00 00 80 04 1c 	addiu $4,$28,-32768
  404a30:	43 00 00 00 b0 80 05 1c 	addiu $5,$28,-32592
  404a38:	43 00 00 00 02 00 06 00 	addiu $6,$0,2
  404a40:	02 00 00 00 14 43 11 00 	jal 450c50 <do_fio>
  404a48:	28 00 00 00 a8 01 05 1d 	lw $5,424($29)
  404a50:	43 00 00 00 00 80 04 1c 	addiu $4,$28,-32768
  404a58:	43 00 00 00 04 00 06 00 	addiu $6,$0,4
  404a60:	02 00 00 00 14 43 11 00 	jal 450c50 <do_fio>
  404a68:	43 00 00 00 00 80 04 1c 	addiu $4,$28,-32768
  404a70:	43 00 00 00 b4 80 05 1c 	addiu $5,$28,-32588
  404a78:	43 00 00 00 05 00 06 00 	addiu $6,$0,5
  404a80:	02 00 00 00 14 43 11 00 	jal 450c50 <do_fio>
  404a88:	28 00 00 00 a0 01 05 1d 	lw $5,416($29)
  404a90:	43 00 00 00 00 80 04 1c 	addiu $4,$28,-32768
  404a98:	43 00 00 00 04 00 06 00 	addiu $6,$0,4
  404aa0:	a2 00 00 00 93 10 08 00 	lui $8,4243
  404aa8:	43 00 00 00 fc f7 08 08 	addiu $8,$8,-2052
  404ab0:	55 00 00 00 01 05 05 00 	sll $5,$5,0x1
  404ab8:	42 00 00 00 00 05 05 11 	addu $5,$17,$5
  404ac0:	55 00 00 00 02 05 05 00 	sll $5,$5,0x2
  404ac8:	42 00 00 00 00 05 08 05 	addu $5,$5,$8
  404ad0:	02 00 00 00 14 43 11 00 	jal 450c50 <do_fio>
  404ad8:	43 00 00 00 00 80 04 1c 	addiu $4,$28,-32768
  404ae0:	a2 00 00 00 00 10 05 00 	lui $5,4096
  404ae8:	43 00 00 00 24 07 05 05 	addiu $5,$5,1828
  404af0:	43 00 00 00 0f 00 06 00 	addiu $6,$0,15
  404af8:	02 00 00 00 14 43 11 00 	jal 450c50 <do_fio>
  404b00:	28 00 00 00 a0 01 05 1d 	lw $5,416($29)
  404b08:	43 00 00 00 00 80 04 1c 	addiu $4,$28,-32768
  404b10:	43 00 00 00 04 00 06 00 	addiu $6,$0,4
  404b18:	55 00 00 00 01 05 05 00 	sll $5,$5,0x1
  404b20:	42 00 00 00 00 05 05 11 	addu $5,$17,$5
  404b28:	55 00 00 00 02 05 05 00 	sll $5,$5,0x2
  404b30:	42 00 00 00 00 05 16 05 	addu $5,$5,$22
  404b38:	02 00 00 00 14 43 11 00 	jal 450c50 <do_fio>
  404b40:	28 00 00 00 a0 01 05 1d 	lw $5,416($29)
  404b48:	43 00 00 00 00 80 04 1c 	addiu $4,$28,-32768
  404b50:	43 00 00 00 04 00 06 00 	addiu $6,$0,4
  404b58:	a2 00 00 00 93 10 08 00 	lui $8,4243
  404b60:	43 00 00 00 dc f7 08 08 	addiu $8,$8,-2084
  404b68:	55 00 00 00 01 05 05 00 	sll $5,$5,0x1
  404b70:	42 00 00 00 00 05 05 11 	addu $5,$17,$5
  404b78:	55 00 00 00 02 05 05 00 	sll $5,$5,0x2
  404b80:	42 00 00 00 00 05 08 05 	addu $5,$5,$8
  404b88:	02 00 00 00 14 43 11 00 	jal 450c50 <do_fio>
  404b90:	28 00 00 00 a0 01 05 1d 	lw $5,416($29)
  404b98:	43 00 00 00 00 80 04 1c 	addiu $4,$28,-32768
  404ba0:	43 00 00 00 04 00 06 00 	addiu $6,$0,4
  404ba8:	a2 00 00 00 93 10 08 00 	lui $8,4243
  404bb0:	43 00 00 00 ec f7 08 08 	addiu $8,$8,-2068
  404bb8:	55 00 00 00 01 05 05 00 	sll $5,$5,0x1
  404bc0:	42 00 00 00 00 05 05 11 	addu $5,$17,$5
  404bc8:	55 00 00 00 02 05 05 00 	sll $5,$5,0x2
  404bd0:	42 00 00 00 00 05 08 05 	addu $5,$5,$8
  404bd8:	02 00 00 00 14 43 11 00 	jal 450c50 <do_fio>
  404be0:	02 00 00 00 06 37 11 00 	jal 44dc18 <e_wsfe>
  404be8:	28 00 00 00 a0 01 02 1d 	lw $2,416($29)
  404bf0:	55 00 00 00 01 02 02 00 	sll $2,$2,0x1
  404bf8:	42 00 00 00 00 02 02 11 	addu $2,$17,$2
  404c00:	55 00 00 00 02 02 02 00 	sll $2,$2,0x2
  404c08:	42 00 00 00 00 02 13 02 	addu $2,$2,$19
  404c10:	28 00 00 00 00 00 02 02 	lw $2,0($2)
  404c18:	07 00 00 00 86 00 00 02 	blez $2,404e38 <MAIN__+0x4c48>
  404c20:	a2 00 00 00 93 10 04 00 	lui $4,4243
  404c28:	43 00 00 00 f0 b5 04 04 	addiu $4,$4,-18960
  404c30:	02 00 00 00 c0 35 11 00 	jal 44d700 <s_wsfe>
  404c38:	43 00 00 00 00 80 04 1c 	addiu $4,$28,-32768
  404c40:	a2 00 00 00 00 10 05 00 	lui $5,4096
  404c48:	43 00 00 00 34 07 05 05 	addiu $5,$5,1844
  404c50:	43 00 00 00 23 00 06 00 	addiu $6,$0,35
  404c58:	02 00 00 00 14 43 11 00 	jal 450c50 <do_fio>
  404c60:	02 00 00 00 06 37 11 00 	jal 44dc18 <e_wsfe>
  404c68:	a2 00 00 00 93 10 04 00 	lui $4,4243
  404c70:	43 00 00 00 04 b6 04 04 	addiu $4,$4,-18940
  404c78:	02 00 00 00 16 51 11 00 	jal 454458 <s_rsle>
  404c80:	43 00 00 00 04 80 04 1c 	addiu $4,$28,-32764
  404c88:	28 00 00 00 a0 01 06 1d 	lw $6,416($29)
  404c90:	43 00 00 00 00 80 05 1c 	addiu $5,$28,-32768
  404c98:	43 00 00 00 04 00 07 00 	addiu $7,$0,4
  404ca0:	43 00 00 00 58 00 02 13 	addiu $2,$19,88
  404ca8:	55 00 00 00 01 06 06 00 	sll $6,$6,0x1
  404cb0:	42 00 00 00 00 06 06 11 	addu $6,$17,$6
  404cb8:	55 00 00 00 02 06 06 00 	sll $6,$6,0x2
  404cc0:	42 00 00 00 00 06 02 06 	addu $6,$6,$2
  404cc8:	02 00 00 00 e8 51 11 00 	jal 4547a0 <do_lio>
  404cd0:	43 00 00 00 04 80 04 1c 	addiu $4,$28,-32764
  404cd8:	28 00 00 00 a0 01 06 1d 	lw $6,416($29)
  404ce0:	43 00 00 00 00 80 05 1c 	addiu $5,$28,-32768
  404ce8:	43 00 00 00 04 00 07 00 	addiu $7,$0,4
  404cf0:	43 00 00 00 68 00 02 13 	addiu $2,$19,104
  404cf8:	55 00 00 00 01 06 06 00 	sll $6,$6,0x1
  404d00:	42 00 00 00 00 06 06 11 	addu $6,$17,$6
  404d08:	55 00 00 00 02 06 06 00 	sll $6,$6,0x2
  404d10:	42 00 00 00 00 06 02 06 	addu $6,$6,$2
  404d18:	02 00 00 00 e8 51 11 00 	jal 4547a0 <do_lio>
  404d20:	43 00 00 00 04 80 04 1c 	addiu $4,$28,-32764
  404d28:	28 00 00 00 a0 01 06 1d 	lw $6,416($29)
  404d30:	43 00 00 00 00 80 05 1c 	addiu $5,$28,-32768
  404d38:	43 00 00 00 04 00 07 00 	addiu $7,$0,4
  404d40:	43 00 00 00 78 00 02 13 	addiu $2,$19,120
  404d48:	55 00 00 00 01 06 06 00 	sll $6,$6,0x1
  404d50:	42 00 00 00 00 06 06 11 	addu $6,$17,$6
  404d58:	55 00 00 00 02 06 06 00 	sll $6,$6,0x2
  404d60:	42 00 00 00 00 06 02 06 	addu $6,$6,$2
  404d68:	02 00 00 00 e8 51 11 00 	jal 4547a0 <do_lio>
  404d70:	02 00 00 00 1c 48 11 00 	jal 452070 <e_rsle>
  404d78:	a2 00 00 00 93 10 04 00 	lui $4,4243
  404d80:	43 00 00 00 18 b6 04 04 	addiu $4,$4,-18920
  404d88:	02 00 00 00 c0 35 11 00 	jal 44d700 <s_wsfe>
  404d90:	43 00 00 00 00 80 04 1c 	addiu $4,$28,-32768
  404d98:	a2 00 00 00 00 10 05 00 	lui $5,4096
  404da0:	43 00 00 00 58 07 05 05 	addiu $5,$5,1880
  404da8:	43 00 00 00 1e 00 06 00 	addiu $6,$0,30
  404db0:	02 00 00 00 14 43 11 00 	jal 450c50 <do_fio>
  404db8:	02 00 00 00 06 37 11 00 	jal 44dc18 <e_wsfe>
  404dc0:	a2 00 00 00 93 10 04 00 	lui $4,4243
  404dc8:	43 00 00 00 2c b6 04 04 	addiu $4,$4,-18900
  404dd0:	02 00 00 00 16 51 11 00 	jal 454458 <s_rsle>
  404dd8:	43 00 00 00 04 80 04 1c 	addiu $4,$28,-32764
  404de0:	28 00 00 00 a0 01 06 1d 	lw $6,416($29)
  404de8:	43 00 00 00 00 80 05 1c 	addiu $5,$28,-32768
  404df0:	43 00 00 00 04 00 07 00 	addiu $7,$0,4
  404df8:	a2 00 00 00 93 10 08 00 	lui $8,4243
  404e00:	43 00 00 00 3c f8 08 08 	addiu $8,$8,-1988
  404e08:	55 00 00 00 01 06 06 00 	sll $6,$6,0x1
  404e10:	42 00 00 00 00 06 06 11 	addu $6,$17,$6
  404e18:	55 00 00 00 02 06 06 00 	sll $6,$6,0x2
  404e20:	42 00 00 00 00 06 08 06 	addu $6,$6,$8
  404e28:	02 00 00 00 e8 51 11 00 	jal 4547a0 <do_lio>
  404e30:	02 00 00 00 1c 48 11 00 	jal 452070 <e_rsle>
  404e38:	28 00 00 00 a0 01 02 1d 	lw $2,416($29)
  404e40:	43 00 00 00 01 00 02 02 	addiu $2,$2,1
  404e48:	34 00 00 00 a0 01 02 1d 	sw $2,416($29)
  404e50:	5b 00 00 00 00 02 02 15 	slt $2,$21,$2
  404e58:	05 00 00 00 24 fe 00 02 	beq $2,$0,4046f0 <MAIN__+0x4500>
  404e60:	43 00 00 00 01 00 1e 1e 	addiu $30,$30,1
  404e68:	43 00 00 00 04 00 12 12 	addiu $18,$18,4
  404e70:	43 00 00 00 0e 00 17 17 	addiu $23,$23,14
  404e78:	43 00 00 00 01 00 11 11 	addiu $17,$17,1
  404e80:	5c 00 00 00 03 00 02 11 	slti $2,$17,3
  404e88:	06 00 00 00 9a fd 00 02 	bne $2,$0,4044f8 <MAIN__+0x4308>
  404e90:	a2 00 00 00 93 10 04 00 	lui $4,4243
  404e98:	43 00 00 00 40 b6 04 04 	addiu $4,$4,-18880
  404ea0:	43 00 00 00 02 00 02 00 	addiu $2,$0,2
  404ea8:	34 00 00 00 2c 01 02 1d 	sw $2,300($29)
  404eb0:	34 00 00 00 34 01 02 1d 	sw $2,308($29)
  404eb8:	02 00 00 00 c0 35 11 00 	jal 44d700 <s_wsfe>
  404ec0:	43 00 00 00 00 80 04 1c 	addiu $4,$28,-32768
  404ec8:	a2 00 00 00 00 10 05 00 	lui $5,4096
  404ed0:	43 00 00 00 78 07 05 05 	addiu $5,$5,1912
  404ed8:	43 00 00 00 34 00 06 00 	addiu $6,$0,52
  404ee0:	02 00 00 00 14 43 11 00 	jal 450c50 <do_fio>
  404ee8:	02 00 00 00 06 37 11 00 	jal 44dc18 <e_wsfe>
  404ef0:	a2 00 00 00 93 10 04 00 	lui $4,4243
  404ef8:	43 00 00 00 54 b6 04 04 	addiu $4,$4,-18860
  404f00:	34 00 00 00 28 01 00 1d 	sw $0,296($29)
  404f08:	02 00 00 00 fe 45 11 00 	jal 4517f8 <s_rsfe>
  404f10:	43 00 00 00 00 80 04 1c 	addiu $4,$28,-32768
  404f18:	43 00 00 00 f0 00 05 1d 	addiu $5,$29,240
  404f20:	43 00 00 00 01 00 06 00 	addiu $6,$0,1
  404f28:	02 00 00 00 14 43 11 00 	jal 450c50 <do_fio>
  404f30:	02 00 00 00 70 36 11 00 	jal 44d9c0 <e_rsfe>
  404f38:	22 00 00 00 f0 00 03 1d 	lbu $3,240($29)
  404f40:	43 00 00 00 01 00 10 00 	addiu $16,$0,1
  404f48:	43 00 00 00 59 00 02 00 	addiu $2,$0,89
  404f50:	05 00 00 00 04 00 02 03 	beq $3,$2,404f68 <MAIN__+0x4d78>
  404f58:	43 00 00 00 79 00 02 00 	addiu $2,$0,121
  404f60:	06 00 00 00 26 00 02 03 	bne $3,$2,405000 <MAIN__+0x4e10>
  404f68:	34 00 00 00 28 01 10 1d 	sw $16,296($29)
  404f70:	a2 00 00 00 93 10 04 00 	lui $4,4243
  404f78:	43 00 00 00 68 b6 04 04 	addiu $4,$4,-18840
  404f80:	02 00 00 00 c0 35 11 00 	jal 44d700 <s_wsfe>
  404f88:	43 00 00 00 00 80 04 1c 	addiu $4,$28,-32768
  404f90:	a2 00 00 00 00 10 05 00 	lui $5,4096
  404f98:	43 00 00 00 b0 07 05 05 	addiu $5,$5,1968
  404fa0:	43 00 00 00 27 00 06 00 	addiu $6,$0,39
  404fa8:	02 00 00 00 14 43 11 00 	jal 450c50 <do_fio>
  404fb0:	02 00 00 00 06 37 11 00 	jal 44dc18 <e_wsfe>
  404fb8:	a2 00 00 00 93 10 04 00 	lui $4,4243
  404fc0:	43 00 00 00 7c b6 04 04 	addiu $4,$4,-18820
  404fc8:	02 00 00 00 16 51 11 00 	jal 454458 <s_rsle>
  404fd0:	43 00 00 00 04 80 04 1c 	addiu $4,$28,-32764
  404fd8:	43 00 00 00 00 80 05 1c 	addiu $5,$28,-32768
  404fe0:	43 00 00 00 2c 01 06 1d 	addiu $6,$29,300
  404fe8:	43 00 00 00 04 00 07 00 	addiu $7,$0,4
  404ff0:	02 00 00 00 e8 51 11 00 	jal 4547a0 <do_lio>
  404ff8:	02 00 00 00 1c 48 11 00 	jal 452070 <e_rsle>
  405000:	a2 00 00 00 93 10 04 00 	lui $4,4243
  405008:	43 00 00 00 90 b6 04 04 	addiu $4,$4,-18800
  405010:	02 00 00 00 c0 35 11 00 	jal 44d700 <s_wsfe>
  405018:	43 00 00 00 00 80 04 1c 	addiu $4,$28,-32768
  405020:	a2 00 00 00 00 10 05 00 	lui $5,4096
  405028:	43 00 00 00 d8 07 05 05 	addiu $5,$5,2008
  405030:	43 00 00 00 33 00 06 00 	addiu $6,$0,51
  405038:	02 00 00 00 14 43 11 00 	jal 450c50 <do_fio>
  405040:	02 00 00 00 06 37 11 00 	jal 44dc18 <e_wsfe>
  405048:	a2 00 00 00 93 10 04 00 	lui $4,4243
  405050:	43 00 00 00 a4 b6 04 04 	addiu $4,$4,-18780
  405058:	34 00 00 00 30 01 00 1d 	sw $0,304($29)
  405060:	02 00 00 00 fe 45 11 00 	jal 4517f8 <s_rsfe>
  405068:	43 00 00 00 00 80 04 1c 	addiu $4,$28,-32768
  405070:	43 00 00 00 f0 00 05 1d 	addiu $5,$29,240
  405078:	43 00 00 00 01 00 06 00 	addiu $6,$0,1
  405080:	02 00 00 00 14 43 11 00 	jal 450c50 <do_fio>
  405088:	02 00 00 00 70 36 11 00 	jal 44d9c0 <e_rsfe>
  405090:	22 00 00 00 f0 00 03 1d 	lbu $3,240($29)
  405098:	43 00 00 00 59 00 02 00 	addiu $2,$0,89
  4050a0:	05 00 00 00 04 00 02 03 	beq $3,$2,4050b8 <MAIN__+0x4ec8>
  4050a8:	43 00 00 00 79 00 02 00 	addiu $2,$0,121
  4050b0:	06 00 00 00 28 00 02 03 	bne $3,$2,405158 <MAIN__+0x4f68>
  4050b8:	43 00 00 00 01 00 02 00 	addiu $2,$0,1
  4050c0:	34 00 00 00 30 01 02 1d 	sw $2,304($29)
  4050c8:	a2 00 00 00 93 10 04 00 	lui $4,4243
  4050d0:	43 00 00 00 b8 b6 04 04 	addiu $4,$4,-18760
  4050d8:	02 00 00 00 c0 35 11 00 	jal 44d700 <s_wsfe>
  4050e0:	43 00 00 00 00 80 04 1c 	addiu $4,$28,-32768
  4050e8:	a2 00 00 00 00 10 05 00 	lui $5,4096
  4050f0:	43 00 00 00 0c 08 05 05 	addiu $5,$5,2060
  4050f8:	43 00 00 00 27 00 06 00 	addiu $6,$0,39
  405100:	02 00 00 00 14 43 11 00 	jal 450c50 <do_fio>
  405108:	02 00 00 00 06 37 11 00 	jal 44dc18 <e_wsfe>
  405110:	a2 00 00 00 93 10 04 00 	lui $4,4243
  405118:	43 00 00 00 cc b6 04 04 	addiu $4,$4,-18740
  405120:	02 00 00 00 16 51 11 00 	jal 454458 <s_rsle>
  405128:	43 00 00 00 04 80 04 1c 	addiu $4,$28,-32764
  405130:	43 00 00 00 00 80 05 1c 	addiu $5,$28,-32768
  405138:	43 00 00 00 34 01 06 1d 	addiu $6,$29,308
  405140:	43 00 00 00 04 00 07 00 	addiu $7,$0,4
  405148:	02 00 00 00 e8 51 11 00 	jal 4547a0 <do_lio>
  405150:	02 00 00 00 1c 48 11 00 	jal 452070 <e_rsle>
  405158:	43 00 00 00 f4 00 12 1d 	addiu $18,$29,244
  405160:	42 00 00 00 00 04 12 00 	addu $4,$0,$18
  405168:	43 00 00 00 f8 00 11 1d 	addiu $17,$29,248
  405170:	42 00 00 00 00 05 11 00 	addu $5,$0,$17
  405178:	43 00 00 00 04 01 13 1d 	addiu $19,$29,260
  405180:	42 00 00 00 00 06 13 00 	addu $6,$0,$19
  405188:	43 00 00 00 38 01 17 1d 	addiu $23,$29,312
  405190:	42 00 00 00 00 07 17 00 	addu $7,$0,$23
  405198:	43 00 00 00 00 01 10 1d 	addiu $16,$29,256
  4051a0:	43 00 00 00 14 01 1e 1d 	addiu $30,$29,276
  4051a8:	a2 00 00 00 93 10 02 00 	lui $2,4243
  4051b0:	43 00 00 00 d8 f9 02 02 	addiu $2,$2,-1576
  4051b8:	34 00 00 00 18 00 02 1d 	sw $2,24($29)
  4051c0:	43 00 00 00 08 00 02 02 	addiu $2,$2,8
  4051c8:	43 00 00 00 50 01 15 1d 	addiu $21,$29,336
  4051d0:	43 00 00 00 68 01 14 1d 	addiu $20,$29,360
  4051d8:	43 00 00 00 40 01 16 1d 	addiu $22,$29,320
  4051e0:	34 00 00 00 10 00 10 1d 	sw $16,16($29)
  4051e8:	34 00 00 00 14 00 1e 1d 	sw $30,20($29)
  4051f0:	34 00 00 00 1c 00 02 1d 	sw $2,28($29)
  4051f8:	34 00 00 00 20 00 15 1d 	sw $21,32($29)
  405200:	34 00 00 00 24 00 14 1d 	sw $20,36($29)
  405208:	34 00 00 00 28 00 16 1d 	sw $22,40($29)
  405210:	02 00 00 00 48 a9 10 00 	jal 42a520 <stab_>
  405218:	42 00 00 00 00 04 12 00 	addu $4,$0,$18
  405220:	42 00 00 00 00 05 11 00 	addu $5,$0,$17
  405228:	43 00 00 00 fc 00 06 1d 	addiu $6,$29,252
  405230:	42 00 00 00 00 07 10 00 	addu $7,$0,$16
  405238:	43 00 00 00 1c 01 02 1d 	addiu $2,$29,284
  405240:	34 00 00 00 14 00 02 1d 	sw $2,20($29)
  405248:	43 00 00 00 20 01 02 1d 	addiu $2,$29,288
  405250:	34 00 00 00 18 00 02 1d 	sw $2,24($29)
  405258:	43 00 00 00 24 01 02 1d 	addiu $2,$29,292
  405260:	34 00 00 00 1c 00 02 1d 	sw $2,28($29)
  405268:	43 00 00 00 08 01 02 1d 	addiu $2,$29,264
  405270:	34 00 00 00 20 00 02 1d 	sw $2,32($29)
  405278:	43 00 00 00 48 01 02 1d 	addiu $2,$29,328
  405280:	34 00 00 00 24 00 02 1d 	sw $2,36($29)
  405288:	43 00 00 00 60 01 02 1d 	addiu $2,$29,352
  405290:	34 00 00 00 28 00 02 1d 	sw $2,40($29)
  405298:	43 00 00 00 78 01 02 1d 	addiu $2,$29,376
  4052a0:	34 00 00 00 2c 00 02 1d 	sw $2,44($29)
  4052a8:	43 00 00 00 80 01 02 1d 	addiu $2,$29,384
  4052b0:	34 00 00 00 3c 00 02 1d 	sw $2,60($29)
  4052b8:	43 00 00 00 90 01 02 1d 	addiu $2,$29,400
  4052c0:	34 00 00 00 44 00 02 1d 	sw $2,68($29)
  4052c8:	43 00 00 00 98 01 02 1d 	addiu $2,$29,408
  4052d0:	34 00 00 00 48 00 02 1d 	sw $2,72($29)
  4052d8:	43 00 00 00 58 01 02 1d 	addiu $2,$29,344
  4052e0:	34 00 00 00 4c 00 02 1d 	sw $2,76($29)
  4052e8:	43 00 00 00 70 01 02 1d 	addiu $2,$29,368
  4052f0:	34 00 00 00 50 00 02 1d 	sw $2,80($29)
  4052f8:	43 00 00 00 88 01 02 1d 	addiu $2,$29,392
  405300:	34 00 00 00 54 00 02 1d 	sw $2,84($29)
  405308:	a2 00 00 00 00 10 02 00 	lui $2,4096
  405310:	43 00 00 00 b0 2d 02 02 	addiu $2,$2,11696
  405318:	34 00 00 00 58 00 02 1d 	sw $2,88($29)
  405320:	43 00 00 00 18 01 02 1d 	addiu $2,$29,280
  405328:	34 00 00 00 60 00 02 1d 	sw $2,96($29)
  405330:	43 00 00 00 10 01 02 1d 	addiu $2,$29,272
  405338:	34 00 00 00 64 00 02 1d 	sw $2,100($29)
  405340:	43 00 00 00 0c 01 02 1d 	addiu $2,$29,268
  405348:	34 00 00 00 68 00 02 1d 	sw $2,104($29)
  405350:	43 00 00 00 28 01 02 1d 	addiu $2,$29,296
  405358:	34 00 00 00 6c 00 02 1d 	sw $2,108($29)
  405360:	43 00 00 00 30 01 02 1d 	addiu $2,$29,304
  405368:	34 00 00 00 70 00 02 1d 	sw $2,112($29)
  405370:	43 00 00 00 2c 01 02 1d 	addiu $2,$29,300
  405378:	34 00 00 00 74 00 02 1d 	sw $2,116($29)
  405380:	43 00 00 00 34 01 02 1d 	addiu $2,$29,308
  405388:	34 00 00 00 10 00 13 1d 	sw $19,16($29)
  405390:	34 00 00 00 30 00 17 1d 	sw $23,48($29)
  405398:	34 00 00 00 34 00 15 1d 	sw $21,52($29)
  4053a0:	34 00 00 00 38 00 14 1d 	sw $20,56($29)
  4053a8:	34 00 00 00 40 00 16 1d 	sw $22,64($29)
  4053b0:	34 00 00 00 5c 00 1e 1d 	sw $30,92($29)
  4053b8:	34 00 00 00 78 00 02 1d 	sw $2,120($29)
  4053c0:	02 00 00 00 5e 15 10 00 	jal 405578 <pset_>
  4053c8:	02 00 00 00 2c 9f 10 00 	jal 427cb0 <stats_>
  4053d0:	43 00 00 00 bc 80 04 1c 	addiu $4,$28,-32580
  4053d8:	42 00 00 00 00 05 00 00 	addu $5,$0,$0
  4053e0:	02 00 00 00 00 52 11 00 	jal 454800 <s_stop>
  4053e8:	43 00 00 00 a8 00 10 1d 	addiu $16,$29,168
  4053f0:	42 00 00 00 00 04 10 00 	addu $4,$0,$16
  4053f8:	43 00 00 00 01 00 02 00 	addiu $2,$0,1
  405400:	34 00 00 00 a8 00 00 1d 	sw $0,168($29)
  405408:	34 00 00 00 ac 00 02 1d 	sw $2,172($29)
  405410:	34 00 00 00 b0 00 00 1d 	sw $0,176($29)
  405418:	02 00 00 00 a8 46 11 00 	jal 451aa0 <f_clos>
  405420:	42 00 00 00 00 04 10 00 	addu $4,$0,$16
  405428:	43 00 00 00 06 00 02 00 	addiu $2,$0,6
  405430:	34 00 00 00 a8 00 00 1d 	sw $0,168($29)
  405438:	34 00 00 00 ac 00 02 1d 	sw $2,172($29)
  405440:	34 00 00 00 b0 00 00 1d 	sw $0,176($29)
  405448:	02 00 00 00 a8 46 11 00 	jal 451aa0 <f_clos>
  405450:	42 00 00 00 00 04 10 00 	addu $4,$0,$16
  405458:	43 00 00 00 08 00 02 00 	addiu $2,$0,8
  405460:	34 00 00 00 a8 00 00 1d 	sw $0,168($29)
  405468:	34 00 00 00 ac 00 02 1d 	sw $2,172($29)
  405470:	34 00 00 00 b0 00 00 1d 	sw $0,176($29)
  405478:	02 00 00 00 a8 46 11 00 	jal 451aa0 <f_clos>
  405480:	42 00 00 00 00 04 10 00 	addu $4,$0,$16
  405488:	43 00 00 00 09 00 02 00 	addiu $2,$0,9
  405490:	34 00 00 00 a8 00 00 1d 	sw $0,168($29)
  405498:	34 00 00 00 ac 00 02 1d 	sw $2,172($29)
  4054a0:	34 00 00 00 b0 00 00 1d 	sw $0,176($29)
  4054a8:	02 00 00 00 a8 46 11 00 	jal 451aa0 <f_clos>
  4054b0:	42 00 00 00 00 04 10 00 	addu $4,$0,$16
  4054b8:	43 00 00 00 0a 00 02 00 	addiu $2,$0,10
  4054c0:	34 00 00 00 a8 00 00 1d 	sw $0,168($29)
  4054c8:	34 00 00 00 ac 00 02 1d 	sw $2,172($29)
  4054d0:	34 00 00 00 b0 00 00 1d 	sw $0,176($29)
  4054d8:	02 00 00 00 a8 46 11 00 	jal 451aa0 <f_clos>
  4054e0:	42 00 00 00 00 04 10 00 	addu $4,$0,$16
  4054e8:	43 00 00 00 0b 00 02 00 	addiu $2,$0,11
  4054f0:	34 00 00 00 a8 00 00 1d 	sw $0,168($29)
  4054f8:	34 00 00 00 ac 00 02 1d 	sw $2,172($29)
  405500:	34 00 00 00 b0 00 00 1d 	sw $0,176($29)
  405508:	02 00 00 00 a8 46 11 00 	jal 451aa0 <f_clos>
  405510:	42 00 00 00 00 02 00 00 	addu $2,$0,$0
  405518:	28 00 00 00 d4 01 1f 1d 	lw $31,468($29)
  405520:	28 00 00 00 d0 01 1e 1d 	lw $30,464($29)
  405528:	28 00 00 00 cc 01 17 1d 	lw $23,460($29)
  405530:	28 00 00 00 c8 01 16 1d 	lw $22,456($29)
  405538:	28 00 00 00 c4 01 15 1d 	lw $21,452($29)
  405540:	28 00 00 00 c0 01 14 1d 	lw $20,448($29)
  405548:	28 00 00 00 bc 01 13 1d 	lw $19,444($29)
  405550:	28 00 00 00 b8 01 12 1d 	lw $18,440($29)
  405558:	28 00 00 00 b4 01 11 1d 	lw $17,436($29)
  405560:	28 00 00 00 b0 01 10 1d 	lw $16,432($29)
  405568:	43 00 00 00 d8 01 1d 1d 	addiu $29,$29,472
  405570:	03 00 00 00 00 00 00 1f 	jr $31

00405578 <pset_>:
  405578:	43 00 00 00 60 fc 1d 1d 	addiu $29,$29,-928
  405580:	34 00 00 00 9c 03 1f 1d 	sw $31,924($29)
  405588:	34 00 00 00 98 03 1e 1d 	sw $30,920($29)
  405590:	34 00 00 00 94 03 17 1d 	sw $23,916($29)
  405598:	34 00 00 00 90 03 16 1d 	sw $22,912($29)
  4055a0:	34 00 00 00 8c 03 15 1d 	sw $21,908($29)
  4055a8:	34 00 00 00 88 03 14 1d 	sw $20,904($29)
  4055b0:	34 00 00 00 84 03 13 1d 	sw $19,900($29)
  4055b8:	34 00 00 00 80 03 12 1d 	sw $18,896($29)
  4055c0:	34 00 00 00 7c 03 11 1d 	sw $17,892($29)
  4055c8:	34 00 00 00 78 03 10 1d 	sw $16,888($29)
  4055d0:	34 00 00 00 70 01 04 1d 	sw $4,368($29)
  4055d8:	34 00 00 00 78 01 05 1d 	sw $5,376($29)
  4055e0:	34 00 00 00 80 01 06 1d 	sw $6,384($29)
  4055e8:	34 00 00 00 88 01 07 1d 	sw $7,392($29)
  4055f0:	28 00 00 00 00 00 03 04 	lw $3,0($4)
  4055f8:	28 00 00 00 00 00 02 05 	lw $2,0($5)
  405600:	46 00 00 00 00 00 02 03 	mult $3,$2
  405608:	28 00 00 00 00 00 04 06 	lw $4,0($6)
  405610:	4c 00 00 00 00 03 00 00 	mflo $3
  405618:	46 00 00 00 00 00 04 03 	mult $3,$4
  405620:	4c 00 00 00 00 02 00 00 	mflo $2
  405628:	28 00 00 00 f8 03 1e 1d 	lw $30,1016($29)
  405630:	55 00 00 00 01 05 02 00 	sll $5,$2,0x1
  405638:	42 00 00 00 00 06 02 05 	addu $6,$5,$2
  405640:	42 00 00 00 00 07 02 06 	addu $7,$6,$2
  405648:	42 00 00 00 00 08 02 07 	addu $8,$7,$2
  405650:	42 00 00 00 00 09 02 08 	addu $9,$8,$2
  405658:	42 00 00 00 00 0a 02 09 	addu $10,$9,$2
  405660:	42 00 00 00 00 0b 02 0a 	addu $11,$10,$2
  405668:	42 00 00 00 00 0c 02 0b 	addu $12,$11,$2
  405670:	42 00 00 00 00 0d 02 0c 	addu $13,$12,$2
  405678:	42 00 00 00 00 0e 02 0d 	addu $14,$13,$2
  405680:	42 00 00 00 00 0f 02 0e 	addu $15,$14,$2
  405688:	42 00 00 00 00 10 02 0f 	addu $16,$15,$2
  405690:	42 00 00 00 00 11 02 10 	addu $17,$16,$2
  405698:	42 00 00 00 00 12 03 11 	addu $18,$17,$3
  4056a0:	42 00 00 00 00 13 03 12 	addu $19,$18,$3
  4056a8:	42 00 00 00 00 14 03 13 	addu $20,$19,$3
  4056b0:	42 00 00 00 00 15 03 14 	addu $21,$20,$3
  4056b8:	42 00 00 00 00 16 03 15 	addu $22,$21,$3
  4056c0:	42 00 00 00 00 17 03 16 	addu $23,$22,$3
  4056c8:	42 00 00 00 00 18 03 17 	addu $24,$23,$3
  4056d0:	34 00 00 00 70 03 0f 1d 	sw $15,880($29)
  4056d8:	42 00 00 00 00 0f 03 18 	addu $15,$24,$3
  4056e0:	34 00 00 00 f0 02 0f 1d 	sw $15,752($29)
  4056e8:	42 00 00 00 00 0f 03 0f 	addu $15,$15,$3
  4056f0:	34 00 00 00 f8 02 0f 1d 	sw $15,760($29)
  4056f8:	42 00 00 00 00 0f 03 0f 	addu $15,$15,$3
  405700:	34 00 00 00 00 03 0f 1d 	sw $15,768($29)
  405708:	42 00 00 00 00 0f 03 0f 	addu $15,$15,$3
  405710:	42 00 00 00 00 03 03 0f 	addu $3,$15,$3
  405718:	34 00 00 00 08 03 0f 1d 	sw $15,776($29)
  405720:	42 00 00 00 00 0f 04 03 	addu $15,$3,$4
  405728:	34 00 00 00 10 03 0f 1d 	sw $15,784($29)
  405730:	42 00 00 00 00 0f 04 0f 	addu $15,$15,$4
  405738:	34 00 00 00 18 03 0f 1d 	sw $15,792($29)
  405740:	42 00 00 00 00 0f 04 0f 	addu $15,$15,$4
  405748:	34 00 00 00 20 03 0f 1d 	sw $15,800($29)
  405750:	42 00 00 00 00 0f 04 0f 	addu $15,$15,$4
  405758:	34 00 00 00 28 03 0f 1d 	sw $15,808($29)
  405760:	42 00 00 00 00 0f 04 0f 	addu $15,$15,$4
  405768:	34 00 00 00 30 03 0f 1d 	sw $15,816($29)
  405770:	42 00 00 00 00 0f 04 0f 	addu $15,$15,$4
  405778:	34 00 00 00 38 03 0f 1d 	sw $15,824($29)
  405780:	42 00 00 00 00 0f 04 0f 	addu $15,$15,$4
  405788:	34 00 00 00 40 03 0f 1d 	sw $15,832($29)
  405790:	42 00 00 00 00 0f 04 0f 	addu $15,$15,$4
  405798:	34 00 00 00 48 03 0f 1d 	sw $15,840($29)
  4057a0:	42 00 00 00 00 0f 02 0f 	addu $15,$15,$2
  4057a8:	34 00 00 00 50 03 0f 1d 	sw $15,848($29)
  4057b0:	42 00 00 00 00 0f 02 0f 	addu $15,$15,$2
  4057b8:	34 00 00 00 58 03 0f 1d 	sw $15,856($29)
  4057c0:	42 00 00 00 00 0f 04 0f 	addu $15,$15,$4
  4057c8:	34 00 00 00 60 03 0f 1d 	sw $15,864($29)
  4057d0:	42 00 00 00 00 0f 04 0f 	addu $15,$15,$4
  4057d8:	42 00 00 00 00 04 04 0f 	addu $4,$15,$4
  4057e0:	34 00 00 00 68 03 0f 1d 	sw $15,872($29)
  4057e8:	28 00 00 00 70 01 0f 1d 	lw $15,368($29)
  4057f0:	43 00 00 00 01 00 02 02 	addiu $2,$2,1
  4057f8:	43 00 00 00 01 00 05 05 	addiu $5,$5,1
  405800:	43 00 00 00 01 00 06 06 	addiu $6,$6,1
  405808:	43 00 00 00 01 00 07 07 	addiu $7,$7,1
  405810:	43 00 00 00 01 00 08 08 	addiu $8,$8,1
  405818:	43 00 00 00 01 00 09 09 	addiu $9,$9,1
  405820:	43 00 00 00 01 00 0a 0a 	addiu $10,$10,1
  405828:	43 00 00 00 01 00 0b 0b 	addiu $11,$11,1
  405830:	43 00 00 00 01 00 0c 0c 	addiu $12,$12,1
  405838:	43 00 00 00 01 00 0d 0d 	addiu $13,$13,1
  405840:	34 00 00 00 68 01 04 1d 	sw $4,360($29)
  405848:	28 00 00 00 00 00 19 0f 	lw $25,0($15)
  405850:	43 00 00 00 01 00 0e 0e 	addiu $14,$14,1
  405858:	43 00 00 00 01 00 10 10 	addiu $16,$16,1
  405860:	28 00 00 00 70 03 0f 1d 	lw $15,880($29)
  405868:	43 00 00 00 01 00 11 11 	addiu $17,$17,1
  405870:	43 00 00 00 01 00 12 12 	addiu $18,$18,1
  405878:	43 00 00 00 01 00 0f 0f 	addiu $15,$15,1
  405880:	34 00 00 00 58 02 0f 1d 	sw $15,600($29)
  405888:	28 00 00 00 f0 02 0f 1d 	lw $15,752($29)
  405890:	43 00 00 00 01 00 13 13 	addiu $19,$19,1
  405898:	43 00 00 00 01 00 14 14 	addiu $20,$20,1
  4058a0:	43 00 00 00 01 00 0f 0f 	addiu $15,$15,1
  4058a8:	34 00 00 00 a0 02 0f 1d 	sw $15,672($29)
  4058b0:	28 00 00 00 f8 02 0f 1d 	lw $15,760($29)
  4058b8:	43 00 00 00 01 00 15 15 	addiu $21,$21,1
  4058c0:	43 00 00 00 01 00 16 16 	addiu $22,$22,1
  4058c8:	43 00 00 00 01 00 0f 0f 	addiu $15,$15,1
  4058d0:	34 00 00 00 98 02 0f 1d 	sw $15,664($29)
  4058d8:	28 00 00 00 00 03 0f 1d 	lw $15,768($29)
  4058e0:	43 00 00 00 01 00 17 17 	addiu $23,$23,1
  4058e8:	43 00 00 00 01 00 18 18 	addiu $24,$24,1
  4058f0:	34 00 00 00 b0 02 02 1d 	sw $2,688($29)
  4058f8:	34 00 00 00 10 02 05 1d 	sw $5,528($29)
  405900:	34 00 00 00 d0 02 06 1d 	sw $6,720($29)
  405908:	34 00 00 00 f0 01 07 1d 	sw $7,496($29)
  405910:	34 00 00 00 d8 02 08 1d 	sw $8,728($29)
  405918:	34 00 00 00 f8 01 09 1d 	sw $9,504($29)
  405920:	34 00 00 00 e0 02 0a 1d 	sw $10,736($29)
  405928:	34 00 00 00 00 02 0b 1d 	sw $11,512($29)
  405930:	34 00 00 00 c0 01 0c 1d 	sw $12,448($29)
  405938:	34 00 00 00 e8 02 0d 1d 	sw $13,744($29)
  405940:	34 00 00 00 90 01 0e 1d 	sw $14,400($29)
  405948:	34 00 00 00 40 02 10 1d 	sw $16,576($29)
  405950:	34 00 00 00 38 02 11 1d 	sw $17,568($29)
  405958:	34 00 00 00 b8 02 12 1d 	sw $18,696($29)
  405960:	34 00 00 00 c0 02 13 1d 	sw $19,704($29)
  405968:	34 00 00 00 98 01 14 1d 	sw $20,408($29)
  405970:	34 00 00 00 60 02 15 1d 	sw $21,608($29)
  405978:	34 00 00 00 c8 02 16 1d 	sw $22,712($29)
  405980:	34 00 00 00 68 02 17 1d 	sw $23,616($29)
  405988:	34 00 00 00 48 02 18 1d 	sw $24,584($29)
  405990:	43 00 00 00 01 00 0f 0f 	addiu $15,$15,1
  405998:	34 00 00 00 50 02 0f 1d 	sw $15,592($29)
  4059a0:	28 00 00 00 08 03 0f 1d 	lw $15,776($29)
  4059a8:	43 00 00 00 01 00 0f 0f 	addiu $15,$15,1
  4059b0:	34 00 00 00 08 02 0f 1d 	sw $15,520($29)
  4059b8:	28 00 00 00 10 03 0f 1d 	lw $15,784($29)
  4059c0:	43 00 00 00 01 00 0f 0f 	addiu $15,$15,1
  4059c8:	34 00 00 00 70 02 0f 1d 	sw $15,624($29)
  4059d0:	28 00 00 00 18 03 0f 1d 	lw $15,792($29)
  4059d8:	43 00 00 00 01 00 0f 0f 	addiu $15,$15,1
  4059e0:	34 00 00 00 e0 01 0f 1d 	sw $15,480($29)
  4059e8:	28 00 00 00 20 03 0f 1d 	lw $15,800($29)
  4059f0:	43 00 00 00 01 00 0f 0f 	addiu $15,$15,1
  4059f8:	34 00 00 00 e8 01 0f 1d 	sw $15,488($29)
  405a00:	28 00 00 00 28 03 0f 1d 	lw $15,808($29)
  405a08:	43 00 00 00 01 00 0f 0f 	addiu $15,$15,1
  405a10:	34 00 00 00 c8 01 0f 1d 	sw $15,456($29)
  405a18:	28 00 00 00 30 03 0f 1d 	lw $15,816($29)
  405a20:	43 00 00 00 01 00 0f 0f 	addiu $15,$15,1
  405a28:	34 00 00 00 d0 01 0f 1d 	sw $15,464($29)
  405a30:	28 00 00 00 38 03 0f 1d 	lw $15,824($29)
  405a38:	43 00 00 00 01 00 0f 0f 	addiu $15,$15,1
  405a40:	34 00 00 00 d8 01 0f 1d 	sw $15,472($29)
  405a48:	28 00 00 00 40 03 0f 1d 	lw $15,832($29)
  405a50:	43 00 00 00 01 00 0f 0f 	addiu $15,$15,1
  405a58:	34 00 00 00 b8 01 0f 1d 	sw $15,440($29)
  405a60:	28 00 00 00 48 03 0f 1d 	lw $15,840($29)
  405a68:	43 00 00 00 01 00 0f 0f 	addiu $15,$15,1
  405a70:	34 00 00 00 28 02 0f 1d 	sw $15,552($29)
  405a78:	28 00 00 00 50 03 0f 1d 	lw $15,848($29)
  405a80:	43 00 00 00 01 00 0f 0f 	addiu $15,$15,1
  405a88:	34 00 00 00 30 02 0f 1d 	sw $15,560($29)
  405a90:	28 00 00 00 58 03 0f 1d 	lw $15,856($29)
  405a98:	43 00 00 00 01 00 03 03 	addiu $3,$3,1
  405aa0:	34 00 00 00 18 02 03 1d 	sw $3,536($29)
  405aa8:	43 00 00 00 01 00 0f 0f 	addiu $15,$15,1
  405ab0:	34 00 00 00 a0 01 0f 1d 	sw $15,416($29)
  405ab8:	28 00 00 00 60 03 0f 1d 	lw $15,864($29)
  405ac0:	43 00 00 00 01 00 0f 0f 	addiu $15,$15,1
  405ac8:	34 00 00 00 a8 01 0f 1d 	sw $15,424($29)
  405ad0:	28 00 00 00 78 01 0f 1d 	lw $15,376($29)
  405ad8:	28 00 00 00 00 00 03 0f 	lw $3,0($15)
  405ae0:	28 00 00 00 68 03 0f 1d 	lw $15,872($29)
  405ae8:	43 00 00 00 f8 ff 1e 1e 	addiu $30,$30,-8
  405af0:	5b 00 00 00 00 02 03 19 	slt $2,$25,$3
  405af8:	43 00 00 00 01 00 0f 0f 	addiu $15,$15,1
  405b00:	34 00 00 00 b0 01 0f 1d 	sw $15,432($29)
  405b08:	43 00 00 00 01 00 0f 04 	addiu $15,$4,1
  405b10:	34 00 00 00 78 02 0f 1d 	sw $15,632($29)
  405b18:	05 00 00 00 02 00 00 02 	beq $2,$0,405b28 <pset_+0x5b0>
  405b20:	42 00 00 00 00 19 03 00 	addu $25,$0,$3
  405b28:	28 00 00 00 80 01 0f 1d 	lw $15,384($29)
  405b30:	28 00 00 00 00 00 03 0f 	lw $3,0($15)
  405b38:	42 00 00 00 00 0e 19 00 	addu $14,$0,$25
  405b40:	5b 00 00 00 00 02 03 0e 	slt $2,$14,$3
  405b48:	05 00 00 00 02 00 00 02 	beq $2,$0,405b58 <pset_+0x5e0>
  405b50:	42 00 00 00 00 0e 03 00 	addu $14,$0,$3
  405b58:	28 00 00 00 70 01 0f 1d 	lw $15,368($29)
  405b60:	42 00 00 00 00 0e 0e 04 	addu $14,$4,$14
  405b68:	34 00 00 00 68 01 0e 1d 	sw $14,360($29)
  405b70:	28 00 00 00 00 00 19 0f 	lw $25,0($15)
  405b78:	28 00 00 00 78 01 0f 1d 	lw $15,376($29)
  405b80:	28 00 00 00 00 00 03 0f 	lw $3,0($15)
  405b88:	43 00 00 00 01 00 0f 0e 	addiu $15,$14,1
  405b90:	5b 00 00 00 00 02 03 19 	slt $2,$25,$3
  405b98:	34 00 00 00 a8 02 0f 1d 	sw $15,680($29)
  405ba0:	05 00 00 00 02 00 00 02 	beq $2,$0,405bb0 <pset_+0x638>
  405ba8:	42 00 00 00 00 19 03 00 	addu $25,$0,$3
  405bb0:	28 00 00 00 80 01 0f 1d 	lw $15,384($29)
  405bb8:	28 00 00 00 00 00 04 0f 	lw $4,0($15)
  405bc0:	42 00 00 00 00 03 19 00 	addu $3,$0,$25
  405bc8:	5b 00 00 00 00 02 04 03 	slt $2,$3,$4
  405bd0:	05 00 00 00 02 00 00 02 	beq $2,$0,405be0 <pset_+0x668>
  405bd8:	42 00 00 00 00 03 04 00 	addu $3,$0,$4
  405be0:	28 00 00 00 70 01 0f 1d 	lw $15,368($29)
  405be8:	42 00 00 00 00 0e 03 0e 	addu $14,$14,$3
  405bf0:	34 00 00 00 68 01 0e 1d 	sw $14,360($29)
  405bf8:	28 00 00 00 00 00 0a 0f 	lw $10,0($15)
  405c00:	55 00 00 00 01 0a 0a 00 	sll $10,$10,0x1
  405c08:	28 00 00 00 78 01 0f 1d 	lw $15,376($29)
  405c10:	42 00 00 00 00 0a 0a 0e 	addu $10,$14,$10
  405c18:	43 00 00 00 0f 00 0b 0a 	addiu $11,$10,15
  405c20:	34 00 00 00 68 01 0b 1d 	sw $11,360($29)
  405c28:	28 00 00 00 00 00 02 0f 	lw $2,0($15)
  405c30:	2a 00 00 00 e0 80 04 1c 	l.s $f4,-32544($28)
  405c38:	55 00 00 00 01 02 02 00 	sll $2,$2,0x1
  405c40:	28 00 00 00 70 01 0f 1d 	lw $15,368($29)
  405c48:	42 00 00 00 00 0b 02 0b 	addu $11,$11,$2
  405c50:	43 00 00 00 0f 00 02 0b 	addiu $2,$11,15
  405c58:	34 00 00 00 68 01 02 1d 	sw $2,360($29)
  405c60:	2a 00 00 00 00 00 02 0f 	l.s $f2,0($15)
  405c68:	81 00 00 00 00 02 00 02 	cvt.s.w $f2,$f2
  405c70:	74 00 00 00 00 02 04 02 	mul.s $f2,$f2,$f4
  405c78:	a5 00 00 00 00 00 02 00 	mtc1 $2,$f0
  405c80:	81 00 00 00 00 00 00 00 	cvt.s.w $f0,$f0
  405c88:	70 00 00 00 00 00 02 00 	add.s $f0,$f0,$f2
  405c90:	84 00 00 00 00 02 00 00 	cvt.w.s $f2,$f0
  405c98:	a3 00 00 00 00 00 0d 02 	mfc1 $13,$f2
  405ca0:	34 00 00 00 68 01 0d 1d 	sw $13,360($29)
  405ca8:	28 00 00 00 00 00 08 0f 	lw $8,0($15)
  405cb0:	42 00 00 00 00 08 08 0d 	addu $8,$13,$8
  405cb8:	34 00 00 00 68 01 08 1d 	sw $8,360($29)
  405cc0:	2a 00 00 00 00 00 02 0f 	l.s $f2,0($15)
  405cc8:	81 00 00 00 00 02 00 02 	cvt.s.w $f2,$f2
  405cd0:	74 00 00 00 00 02 04 02 	mul.s $f2,$f2,$f4
  405cd8:	a5 00 00 00 00 00 08 00 	mtc1 $8,$f0
  405ce0:	81 00 00 00 00 00 00 00 	cvt.s.w $f0,$f0
  405ce8:	70 00 00 00 00 00 02 00 	add.s $f0,$f0,$f2
  405cf0:	28 00 00 00 78 01 0f 1d 	lw $15,376($29)
  405cf8:	84 00 00 00 00 02 00 00 	cvt.w.s $f2,$f0
  405d00:	a3 00 00 00 00 00 0c 02 	mfc1 $12,$f2
  405d08:	34 00 00 00 68 01 0c 1d 	sw $12,360($29)
  405d10:	2a 00 00 00 00 00 02 0f 	l.s $f2,0($15)
  405d18:	81 00 00 00 00 02 00 02 	cvt.s.w $f2,$f2
  405d20:	74 00 00 00 00 02 04 02 	mul.s $f2,$f2,$f4
  405d28:	a5 00 00 00 00 00 0c 00 	mtc1 $12,$f0
  405d30:	81 00 00 00 00 00 00 00 	cvt.s.w $f0,$f0
  405d38:	70 00 00 00 00 00 02 00 	add.s $f0,$f0,$f2
  405d40:	84 00 00 00 00 02 00 00 	cvt.w.s $f2,$f0
  405d48:	a3 00 00 00 00 00 09 02 	mfc1 $9,$f2
  405d50:	34 00 00 00 68 01 09 1d 	sw $9,360($29)
  405d58:	28 00 00 00 00 00 06 0f 	lw $6,0($15)
  405d60:	42 00 00 00 00 06 06 09 	addu $6,$9,$6
  405d68:	34 00 00 00 68 01 06 1d 	sw $6,360($29)
  405d70:	2a 00 00 00 00 00 02 0f 	l.s $f2,0($15)
  405d78:	81 00 00 00 00 02 00 02 	cvt.s.w $f2,$f2
  405d80:	74 00 00 00 00 02 04 02 	mul.s $f2,$f2,$f4
  405d88:	43 00 00 00 50 01 04 1d 	addiu $4,$29,336
  405d90:	a5 00 00 00 00 00 06 00 	mtc1 $6,$f0
  405d98:	81 00 00 00 00 00 00 00 	cvt.s.w $f0,$f0
  405da0:	70 00 00 00 00 00 02 00 	add.s $f0,$f0,$f2
  405da8:	43 00 00 00 01 00 11 0e 	addiu $17,$14,1
  405db0:	28 00 00 00 70 01 0f 1d 	lw $15,368($29)
  405db8:	43 00 00 00 10 00 12 0a 	addiu $18,$10,16
  405dc0:	84 00 00 00 00 02 00 00 	cvt.w.s $f2,$f0
  405dc8:	a3 00 00 00 00 00 07 02 	mfc1 $7,$f2
  405dd0:	34 00 00 00 68 01 07 1d 	sw $7,360($29)
  405dd8:	28 00 00 00 00 00 05 0f 	lw $5,0($15)
  405de0:	43 00 00 00 10 00 13 0b 	addiu $19,$11,16
  405de8:	43 00 00 00 01 00 14 0d 	addiu $20,$13,1
  405df0:	28 00 00 00 78 01 0f 1d 	lw $15,376($29)
  405df8:	43 00 00 00 01 00 15 08 	addiu $21,$8,1
  405e00:	42 00 00 00 00 05 05 07 	addu $5,$7,$5
  405e08:	34 00 00 00 68 01 05 1d 	sw $5,360($29)
  405e10:	28 00 00 00 00 00 03 0f 	lw $3,0($15)
  405e18:	43 00 00 00 01 00 16 0c 	addiu $22,$12,1
  405e20:	43 00 00 00 01 00 17 09 	addiu $23,$9,1
  405e28:	28 00 00 00 80 01 0f 1d 	lw $15,384($29)
  405e30:	43 00 00 00 01 00 06 06 	addiu $6,$6,1
  405e38:	42 00 00 00 00 03 03 05 	addu $3,$5,$3
  405e40:	34 00 00 00 68 01 03 1d 	sw $3,360($29)
  405e48:	28 00 00 00 00 00 02 0f 	lw $2,0($15)
  405e50:	43 00 00 00 01 00 07 07 	addiu $7,$7,1
  405e58:	43 00 00 00 01 00 05 05 	addiu $5,$5,1
  405e60:	42 00 00 00 00 02 02 03 	addu $2,$3,$2
  405e68:	34 00 00 00 68 01 02 1d 	sw $2,360($29)
  405e70:	43 00 00 00 06 00 02 00 	addiu $2,$0,6
  405e78:	34 00 00 00 54 01 02 1d 	sw $2,340($29)
  405e80:	a2 00 00 00 00 10 02 00 	lui $2,4096
  405e88:	43 00 00 00 34 08 02 02 	addiu $2,$2,2100
  405e90:	43 00 00 00 01 00 03 03 	addiu $3,$3,1
  405e98:	34 00 00 00 50 01 00 1d 	sw $0,336($29)
  405ea0:	34 00 00 00 5c 01 02 1d 	sw $2,348($29)
  405ea8:	34 00 00 00 20 02 06 1d 	sw $6,544($29)
  405eb0:	34 00 00 00 80 02 07 1d 	sw $7,640($29)
  405eb8:	34 00 00 00 88 02 05 1d 	sw $5,648($29)
  405ec0:	34 00 00 00 90 02 03 1d 	sw $3,656($29)
  405ec8:	02 00 00 00 c0 35 11 00 	jal 44d700 <s_wsfe>
  405ed0:	43 00 00 00 00 80 04 1c 	addiu $4,$28,-32768
  405ed8:	a2 00 00 00 00 10 05 00 	lui $5,4096
  405ee0:	43 00 00 00 40 08 05 05 	addiu $5,$5,2112
  405ee8:	43 00 00 00 10 00 06 00 	addiu $6,$0,16
  405ef0:	02 00 00 00 14 43 11 00 	jal 450c50 <do_fio>
  405ef8:	43 00 00 00 00 80 04 1c 	addiu $4,$28,-32768
  405f00:	43 00 00 00 68 01 10 1d 	addiu $16,$29,360
  405f08:	42 00 00 00 00 05 10 00 	addu $5,$0,$16
  405f10:	43 00 00 00 04 00 06 00 	addiu $6,$0,4
  405f18:	02 00 00 00 14 43 11 00 	jal 450c50 <do_fio>
  405f20:	43 00 00 00 00 80 04 1c 	addiu $4,$28,-32768
  405f28:	a2 00 00 00 00 10 05 00 	lui $5,4096
  405f30:	43 00 00 00 54 08 05 05 	addiu $5,$5,2132
  405f38:	43 00 00 00 0c 00 06 00 	addiu $6,$0,12
  405f40:	02 00 00 00 14 43 11 00 	jal 450c50 <do_fio>
  405f48:	02 00 00 00 06 37 11 00 	jal 44dc18 <e_wsfe>
  405f50:	28 00 00 00 b4 03 0f 1d 	lw $15,948($29)
  405f58:	28 00 00 00 00 00 02 0f 	lw $2,0($15)
  405f60:	43 00 00 00 01 00 0f 00 	addiu $15,$0,1
  405f68:	06 00 00 00 06 00 0f 02 	bne $2,$15,405f88 <pset_+0xa10>
  405f70:	43 00 00 00 bc 80 04 1c 	addiu $4,$28,-32580
  405f78:	42 00 00 00 00 05 00 00 	addu $5,$0,$0
  405f80:	02 00 00 00 54 52 11 00 	jal 454950 <s_paus>
  405f88:	28 00 00 00 b0 03 0f 1d 	lw $15,944($29)
  405f90:	28 00 00 00 70 01 04 1d 	lw $4,368($29)
  405f98:	28 00 00 00 78 01 05 1d 	lw $5,376($29)
  405fa0:	28 00 00 00 80 01 06 1d 	lw $6,384($29)
  405fa8:	34 00 00 00 10 00 0f 1d 	sw $15,16($29)
  405fb0:	28 00 00 00 b4 03 0f 1d 	lw $15,948($29)
  405fb8:	34 00 00 00 14 00 0f 1d 	sw $15,20($29)
  405fc0:	28 00 00 00 b8 03 0f 1d 	lw $15,952($29)
  405fc8:	34 00 00 00 18 00 0f 1d 	sw $15,24($29)
  405fd0:	28 00 00 00 bc 03 0f 1d 	lw $15,956($29)
  405fd8:	34 00 00 00 1c 00 0f 1d 	sw $15,28($29)
  405fe0:	28 00 00 00 c0 03 0f 1d 	lw $15,960($29)
  405fe8:	34 00 00 00 20 00 0f 1d 	sw $15,32($29)
  405ff0:	28 00 00 00 c4 03 0f 1d 	lw $15,964($29)
  405ff8:	34 00 00 00 24 00 0f 1d 	sw $15,36($29)
  406000:	28 00 00 00 c8 03 0f 1d 	lw $15,968($29)
  406008:	34 00 00 00 28 00 0f 1d 	sw $15,40($29)
  406010:	28 00 00 00 cc 03 0f 1d 	lw $15,972($29)
  406018:	34 00 00 00 2c 00 0f 1d 	sw $15,44($29)
  406020:	28 00 00 00 d0 03 0f 1d 	lw $15,976($29)
  406028:	34 00 00 00 30 00 0f 1d 	sw $15,48($29)
  406030:	28 00 00 00 d4 03 0f 1d 	lw $15,980($29)
  406038:	34 00 00 00 34 00 0f 1d 	sw $15,52($29)
  406040:	28 00 00 00 d8 03 0f 1d 	lw $15,984($29)
  406048:	34 00 00 00 38 00 0f 1d 	sw $15,56($29)
  406050:	28 00 00 00 dc 03 0f 1d 	lw $15,988($29)
  406058:	34 00 00 00 3c 00 0f 1d 	sw $15,60($29)
  406060:	28 00 00 00 e0 03 0f 1d 	lw $15,992($29)
  406068:	34 00 00 00 40 00 0f 1d 	sw $15,64($29)
  406070:	28 00 00 00 e4 03 0f 1d 	lw $15,996($29)
  406078:	34 00 00 00 44 00 0f 1d 	sw $15,68($29)
  406080:	28 00 00 00 e8 03 0f 1d 	lw $15,1000($29)
  406088:	34 00 00 00 48 00 0f 1d 	sw $15,72($29)
  406090:	28 00 00 00 ec 03 0f 1d 	lw $15,1004($29)
  406098:	34 00 00 00 4c 00 0f 1d 	sw $15,76($29)
  4060a0:	28 00 00 00 f0 03 0f 1d 	lw $15,1008($29)
  4060a8:	34 00 00 00 50 00 0f 1d 	sw $15,80($29)
  4060b0:	28 00 00 00 f4 03 0f 1d 	lw $15,1012($29)
  4060b8:	34 00 00 00 54 00 0f 1d 	sw $15,84($29)
  4060c0:	28 00 00 00 fc 03 0f 1d 	lw $15,1020($29)
  4060c8:	34 00 00 00 58 00 0f 1d 	sw $15,88($29)
  4060d0:	28 00 00 00 00 04 0f 1d 	lw $15,1024($29)
  4060d8:	34 00 00 00 5c 00 0f 1d 	sw $15,92($29)
  4060e0:	28 00 00 00 04 04 0f 1d 	lw $15,1028($29)
  4060e8:	34 00 00 00 60 00 0f 1d 	sw $15,96($29)
  4060f0:	28 00 00 00 08 04 0f 1d 	lw $15,1032($29)
  4060f8:	34 00 00 00 64 00 0f 1d 	sw $15,100($29)
  406100:	28 00 00 00 0c 04 0f 1d 	lw $15,1036($29)
  406108:	34 00 00 00 68 00 0f 1d 	sw $15,104($29)
  406110:	28 00 00 00 10 04 0f 1d 	lw $15,1040($29)
  406118:	34 00 00 00 6c 00 0f 1d 	sw $15,108($29)
  406120:	28 00 00 00 14 04 0f 1d 	lw $15,1044($29)
  406128:	34 00 00 00 70 00 0f 1d 	sw $15,112($29)
  406130:	28 00 00 00 18 04 0f 1d 	lw $15,1048($29)
  406138:	34 00 00 00 74 00 0f 1d 	sw $15,116($29)
  406140:	28 00 00 00 b0 02 0f 1d 	lw $15,688($29)
  406148:	43 00 00 00 08 00 02 1e 	addiu $2,$30,8
  406150:	34 00 00 00 7c 00 02 1d 	sw $2,124($29)
  406158:	55 00 00 00 03 02 0f 00 	sll $2,$15,0x3
  406160:	28 00 00 00 10 02 0f 1d 	lw $15,528($29)
  406168:	42 00 00 00 00 02 02 1e 	addu $2,$30,$2
  406170:	34 00 00 00 80 00 02 1d 	sw $2,128($29)
  406178:	55 00 00 00 03 02 0f 00 	sll $2,$15,0x3
  406180:	28 00 00 00 d0 02 0f 1d 	lw $15,720($29)
  406188:	42 00 00 00 00 02 02 1e 	addu $2,$30,$2
  406190:	34 00 00 00 84 00 02 1d 	sw $2,132($29)
  406198:	55 00 00 00 03 02 0f 00 	sll $2,$15,0x3
  4061a0:	28 00 00 00 f0 01 0f 1d 	lw $15,496($29)
  4061a8:	42 00 00 00 00 02 02 1e 	addu $2,$30,$2
  4061b0:	34 00 00 00 88 00 02 1d 	sw $2,136($29)
  4061b8:	55 00 00 00 03 02 0f 00 	sll $2,$15,0x3
  4061c0:	28 00 00 00 d8 02 0f 1d 	lw $15,728($29)
  4061c8:	42 00 00 00 00 02 02 1e 	addu $2,$30,$2
  4061d0:	34 00 00 00 8c 00 02 1d 	sw $2,140($29)
  4061d8:	55 00 00 00 03 02 0f 00 	sll $2,$15,0x3
  4061e0:	28 00 00 00 f8 01 0f 1d 	lw $15,504($29)
  4061e8:	42 00 00 00 00 02 02 1e 	addu $2,$30,$2
  4061f0:	34 00 00 00 90 00 02 1d 	sw $2,144($29)
  4061f8:	55 00 00 00 03 02 0f 00 	sll $2,$15,0x3
  406200:	28 00 00 00 e0 02 0f 1d 	lw $15,736($29)
  406208:	34 00 00 00 78 00 10 1d 	sw $16,120($29)
  406210:	42 00 00 00 00 02 02 1e 	addu $2,$30,$2
  406218:	34 00 00 00 94 00 02 1d 	sw $2,148($29)
  406220:	55 00 00 00 03 02 0f 00 	sll $2,$15,0x3
  406228:	42 00 00 00 00 02 02 1e 	addu $2,$30,$2
  406230:	34 00 00 00 98 00 02 1d 	sw $2,152($29)
  406238:	28 00 00 00 00 02 0f 1d 	lw $15,512($29)
  406240:	55 00 00 00 03 02 0f 00 	sll $2,$15,0x3
  406248:	28 00 00 00 c0 01 0f 1d 	lw $15,448($29)
  406250:	42 00 00 00 00 02 02 1e 	addu $2,$30,$2
  406258:	34 00 00 00 9c 00 02 1d 	sw $2,156($29)
  406260:	55 00 00 00 03 02 0f 00 	sll $2,$15,0x3
  406268:	28 00 00 00 e8 02 0f 1d 	lw $15,744($29)
  406270:	42 00 00 00 00 02 02 1e 	addu $2,$30,$2
  406278:	34 00 00 00 a0 00 02 1d 	sw $2,160($29)
  406280:	55 00 00 00 03 02 0f 00 	sll $2,$15,0x3
  406288:	28 00 00 00 90 01 0f 1d 	lw $15,400($29)
  406290:	42 00 00 00 00 02 02 1e 	addu $2,$30,$2
  406298:	34 00 00 00 a4 00 02 1d 	sw $2,164($29)
  4062a0:	55 00 00 00 03 02 0f 00 	sll $2,$15,0x3
  4062a8:	28 00 00 00 58 02 0f 1d 	lw $15,600($29)
  4062b0:	42 00 00 00 00 02 02 1e 	addu $2,$30,$2
  4062b8:	34 00 00 00 a8 00 02 1d 	sw $2,168($29)
  4062c0:	55 00 00 00 03 02 0f 00 	sll $2,$15,0x3
  4062c8:	28 00 00 00 40 02 0f 1d 	lw $15,576($29)
  4062d0:	42 00 00 00 00 02 02 1e 	addu $2,$30,$2
  4062d8:	34 00 00 00 ac 00 02 1d 	sw $2,172($29)
  4062e0:	55 00 00 00 03 02 0f 00 	sll $2,$15,0x3
  4062e8:	28 00 00 00 38 02 0f 1d 	lw $15,568($29)
  4062f0:	42 00 00 00 00 02 02 1e 	addu $2,$30,$2
  4062f8:	34 00 00 00 b0 00 02 1d 	sw $2,176($29)
  406300:	55 00 00 00 03 02 0f 00 	sll $2,$15,0x3
  406308:	28 00 00 00 b8 02 0f 1d 	lw $15,696($29)
  406310:	42 00 00 00 00 02 02 1e 	addu $2,$30,$2
  406318:	34 00 00 00 b4 00 02 1d 	sw $2,180($29)
  406320:	55 00 00 00 03 02 0f 00 	sll $2,$15,0x3
  406328:	28 00 00 00 c0 02 0f 1d 	lw $15,704($29)
  406330:	42 00 00 00 00 02 02 1e 	addu $2,$30,$2
  406338:	34 00 00 00 b8 00 02 1d 	sw $2,184($29)
  406340:	55 00 00 00 03 02 0f 00 	sll $2,$15,0x3
  406348:	28 00 00 00 98 01 0f 1d 	lw $15,408($29)
  406350:	42 00 00 00 00 02 02 1e 	addu $2,$30,$2
  406358:	34 00 00 00 bc 00 02 1d 	sw $2,188($29)
  406360:	55 00 00 00 03 02 0f 00 	sll $2,$15,0x3
  406368:	28 00 00 00 60 02 0f 1d 	lw $15,608($29)
  406370:	42 00 00 00 00 02 02 1e 	addu $2,$30,$2
  406378:	34 00 00 00 c0 00 02 1d 	sw $2,192($29)
  406380:	55 00 00 00 03 02 0f 00 	sll $2,$15,0x3
  406388:	28 00 00 00 c8 02 0f 1d 	lw $15,712($29)
  406390:	42 00 00 00 00 02 02 1e 	addu $2,$30,$2
  406398:	34 00 00 00 c4 00 02 1d 	sw $2,196($29)
  4063a0:	55 00 00 00 03 02 0f 00 	sll $2,$15,0x3
  4063a8:	42 00 00 00 00 02 02 1e 	addu $2,$30,$2
  4063b0:	34 00 00 00 c8 00 02 1d 	sw $2,200($29)
  4063b8:	28 00 00 00 68 02 0f 1d 	lw $15,616($29)
  4063c0:	55 00 00 00 03 02 0f 00 	sll $2,$15,0x3
  4063c8:	28 00 00 00 48 02 0f 1d 	lw $15,584($29)
  4063d0:	42 00 00 00 00 02 02 1e 	addu $2,$30,$2
  4063d8:	34 00 00 00 cc 00 02 1d 	sw $2,204($29)
  4063e0:	55 00 00 00 03 02 0f 00 	sll $2,$15,0x3
  4063e8:	28 00 00 00 a0 02 0f 1d 	lw $15,672($29)
  4063f0:	42 00 00 00 00 02 02 1e 	addu $2,$30,$2
  4063f8:	34 00 00 00 d0 00 02 1d 	sw $2,208($29)
  406400:	55 00 00 00 03 02 0f 00 	sll $2,$15,0x3
  406408:	28 00 00 00 98 02 0f 1d 	lw $15,664($29)
  406410:	42 00 00 00 00 02 02 1e 	addu $2,$30,$2
  406418:	34 00 00 00 d4 00 02 1d 	sw $2,212($29)
  406420:	55 00 00 00 03 02 0f 00 	sll $2,$15,0x3
  406428:	28 00 00 00 50 02 0f 1d 	lw $15,592($29)
  406430:	42 00 00 00 00 02 02 1e 	addu $2,$30,$2
  406438:	34 00 00 00 d8 00 02 1d 	sw $2,216($29)
  406440:	55 00 00 00 03 02 0f 00 	sll $2,$15,0x3
  406448:	28 00 00 00 08 02 0f 1d 	lw $15,520($29)
  406450:	42 00 00 00 00 02 02 1e 	addu $2,$30,$2
  406458:	34 00 00 00 dc 00 02 1d 	sw $2,220($29)
  406460:	55 00 00 00 03 02 0f 00 	sll $2,$15,0x3
  406468:	28 00 00 00 18 02 0f 1d 	lw $15,536($29)
  406470:	42 00 00 00 00 02 02 1e 	addu $2,$30,$2
  406478:	34 00 00 00 e0 00 02 1d 	sw $2,224($29)
  406480:	55 00 00 00 03 02 0f 00 	sll $2,$15,0x3
  406488:	28 00 00 00 70 02 0f 1d 	lw $15,624($29)
  406490:	42 00 00 00 00 02 02 1e 	addu $2,$30,$2
  406498:	34 00 00 00 e4 00 02 1d 	sw $2,228($29)
  4064a0:	55 00 00 00 03 02 0f 00 	sll $2,$15,0x3
  4064a8:	28 00 00 00 e0 01 0f 1d 	lw $15,480($29)
  4064b0:	42 00 00 00 00 02 02 1e 	addu $2,$30,$2
  4064b8:	34 00 00 00 e8 00 02 1d 	sw $2,232($29)
  4064c0:	55 00 00 00 03 02 0f 00 	sll $2,$15,0x3
  4064c8:	28 00 00 00 e8 01 0f 1d 	lw $15,488($29)
  4064d0:	42 00 00 00 00 02 02 1e 	addu $2,$30,$2
  4064d8:	34 00 00 00 ec 00 02 1d 	sw $2,236($29)
  4064e0:	55 00 00 00 03 02 0f 00 	sll $2,$15,0x3
  4064e8:	28 00 00 00 c8 01 0f 1d 	lw $15,456($29)
  4064f0:	42 00 00 00 00 02 02 1e 	addu $2,$30,$2
  4064f8:	34 00 00 00 f0 00 02 1d 	sw $2,240($29)
  406500:	55 00 00 00 03 02 0f 00 	sll $2,$15,0x3
  406508:	28 00 00 00 d0 01 0f 1d 	lw $15,464($29)
  406510:	42 00 00 00 00 02 02 1e 	addu $2,$30,$2
  406518:	34 00 00 00 f4 00 02 1d 	sw $2,244($29)
  406520:	55 00 00 00 03 02 0f 00 	sll $2,$15,0x3
  406528:	42 00 00 00 00 02 02 1e 	addu $2,$30,$2
  406530:	34 00 00 00 f8 00 02 1d 	sw $2,248($29)
  406538:	28 00 00 00 d8 01 0f 1d 	lw $15,472($29)
  406540:	55 00 00 00 03 02 0f 00 	sll $2,$15,0x3
  406548:	28 00 00 00 b8 01 0f 1d 	lw $15,440($29)
  406550:	42 00 00 00 00 02 02 1e 	addu $2,$30,$2
  406558:	34 00 00 00 fc 00 02 1d 	sw $2,252($29)
  406560:	55 00 00 00 03 02 0f 00 	sll $2,$15,0x3
  406568:	28 00 00 00 28 02 0f 1d 	lw $15,552($29)
  406570:	42 00 00 00 00 02 02 1e 	addu $2,$30,$2
  406578:	34 00 00 00 00 01 02 1d 	sw $2,256($29)
  406580:	55 00 00 00 03 02 0f 00 	sll $2,$15,0x3
  406588:	28 00 00 00 30 02 0f 1d 	lw $15,560($29)
  406590:	42 00 00 00 00 02 02 1e 	addu $2,$30,$2
  406598:	34 00 00 00 04 01 02 1d 	sw $2,260($29)
  4065a0:	55 00 00 00 03 02 0f 00 	sll $2,$15,0x3
  4065a8:	28 00 00 00 a0 01 0f 1d 	lw $15,416($29)
  4065b0:	42 00 00 00 00 02 02 1e 	addu $2,$30,$2
  4065b8:	34 00 00 00 08 01 02 1d 	sw $2,264($29)
  4065c0:	55 00 00 00 03 02 0f 00 	sll $2,$15,0x3
  4065c8:	28 00 00 00 a8 01 0f 1d 	lw $15,424($29)
  4065d0:	42 00 00 00 00 02 02 1e 	addu $2,$30,$2
  4065d8:	34 00 00 00 0c 01 02 1d 	sw $2,268($29)
  4065e0:	55 00 00 00 03 02 0f 00 	sll $2,$15,0x3
  4065e8:	28 00 00 00 b0 01 0f 1d 	lw $15,432($29)
  4065f0:	42 00 00 00 00 02 02 1e 	addu $2,$30,$2
  4065f8:	34 00 00 00 10 01 02 1d 	sw $2,272($29)
  406600:	55 00 00 00 03 02 0f 00 	sll $2,$15,0x3
  406608:	28 00 00 00 78 02 0f 1d 	lw $15,632($29)
  406610:	42 00 00 00 00 02 02 1e 	addu $2,$30,$2
  406618:	34 00 00 00 14 01 02 1d 	sw $2,276($29)
  406620:	55 00 00 00 03 02 0f 00 	sll $2,$15,0x3
  406628:	28 00 00 00 a8 02 0f 1d 	lw $15,680($29)
  406630:	42 00 00 00 00 02 02 1e 	addu $2,$30,$2
  406638:	34 00 00 00 18 01 02 1d 	sw $2,280($29)
  406640:	55 00 00 00 03 02 0f 00 	sll $2,$15,0x3
  406648:	42 00 00 00 00 02 02 1e 	addu $2,$30,$2
  406650:	34 00 00 00 1c 01 02 1d 	sw $2,284($29)
  406658:	55 00 00 00 03 02 11 00 	sll $2,$17,0x3
  406660:	42 00 00 00 00 02 02 1e 	addu $2,$30,$2
  406668:	34 00 00 00 20 01 02 1d 	sw $2,288($29)
  406670:	55 00 00 00 03 02 12 00 	sll $2,$18,0x3
  406678:	42 00 00 00 00 02 02 1e 	addu $2,$30,$2
  406680:	34 00 00 00 24 01 02 1d 	sw $2,292($29)
  406688:	55 00 00 00 03 02 13 00 	sll $2,$19,0x3
  406690:	42 00 00 00 00 02 02 1e 	addu $2,$30,$2
  406698:	34 00 00 00 28 01 02 1d 	sw $2,296($29)
  4066a0:	55 00 00 00 03 02 14 00 	sll $2,$20,0x3
  4066a8:	42 00 00 00 00 02 02 1e 	addu $2,$30,$2
  4066b0:	34 00 00 00 2c 01 02 1d 	sw $2,300($29)
  4066b8:	55 00 00 00 03 02 15 00 	sll $2,$21,0x3
  4066c0:	42 00 00 00 00 02 02 1e 	addu $2,$30,$2
  4066c8:	34 00 00 00 30 01 02 1d 	sw $2,304($29)
  4066d0:	55 00 00 00 03 02 16 00 	sll $2,$22,0x3
  4066d8:	42 00 00 00 00 02 02 1e 	addu $2,$30,$2
  4066e0:	34 00 00 00 34 01 02 1d 	sw $2,308($29)
  4066e8:	55 00 00 00 03 02 17 00 	sll $2,$23,0x3
  4066f0:	42 00 00 00 00 02 02 1e 	addu $2,$30,$2
  4066f8:	34 00 00 00 38 01 02 1d 	sw $2,312($29)
  406700:	28 00 00 00 20 02 0f 1d 	lw $15,544($29)
  406708:	28 00 00 00 88 01 07 1d 	lw $7,392($29)
  406710:	55 00 00 00 03 02 0f 00 	sll $2,$15,0x3
  406718:	28 00 00 00 80 02 0f 1d 	lw $15,640($29)
  406720:	42 00 00 00 00 02 02 1e 	addu $2,$30,$2
  406728:	34 00 00 00 3c 01 02 1d 	sw $2,316($29)
  406730:	55 00 00 00 03 02 0f 00 	sll $2,$15,0x3
  406738:	28 00 00 00 88 02 0f 1d 	lw $15,648($29)
  406740:	42 00 00 00 00 02 02 1e 	addu $2,$30,$2
  406748:	34 00 00 00 40 01 02 1d 	sw $2,320($29)
  406750:	55 00 00 00 03 02 0f 00 	sll $2,$15,0x3
  406758:	28 00 00 00 90 02 0f 1d 	lw $15,656($29)
  406760:	42 00 00 00 00 02 02 1e 	addu $2,$30,$2
  406768:	34 00 00 00 44 01 02 1d 	sw $2,324($29)
  406770:	55 00 00 00 03 02 0f 00 	sll $2,$15,0x3
  406778:	42 00 00 00 00 02 02 1e 	addu $2,$30,$2
  406780:	34 00 00 00 48 01 02 1d 	sw $2,328($29)
  406788:	02 00 00 00 fe 19 10 00 	jal 4067f8 <run_>
  406790:	42 00 00 00 00 02 00 00 	addu $2,$0,$0
  406798:	28 00 00 00 9c 03 1f 1d 	lw $31,924($29)
  4067a0:	28 00 00 00 98 03 1e 1d 	lw $30,920($29)
  4067a8:	28 00 00 00 94 03 17 1d 	lw $23,916($29)
  4067b0:	28 00 00 00 90 03 16 1d 	lw $22,912($29)
  4067b8:	28 00 00 00 8c 03 15 1d 	lw $21,908($29)
  4067c0:	28 00 00 00 88 03 14 1d 	lw $20,904($29)
  4067c8:	28 00 00 00 84 03 13 1d 	lw $19,900($29)
  4067d0:	28 00 00 00 80 03 12 1d 	lw $18,896($29)
  4067d8:	28 00 00 00 7c 03 11 1d 	lw $17,892($29)
  4067e0:	28 00 00 00 78 03 10 1d 	lw $16,888($29)
  4067e8:	43 00 00 00 a0 03 1d 1d 	addiu $29,$29,928
  4067f0:	03 00 00 00 00 00 00 1f 	jr $31

004067f8 <run_>:
  4067f8:	43 00 00 00 d8 fb 1d 1d 	addiu $29,$29,-1064
  406800:	28 00 00 00 70 05 08 1d 	lw $8,1392($29)
  406808:	43 00 00 00 f8 ff 08 08 	addiu $8,$8,-8
  406810:	34 00 00 00 70 05 08 1d 	sw $8,1392($29)
  406818:	28 00 00 00 6c 05 08 1d 	lw $8,1388($29)
  406820:	43 00 00 00 f8 ff 08 08 	addiu $8,$8,-8
  406828:	34 00 00 00 6c 05 08 1d 	sw $8,1388($29)
  406830:	28 00 00 00 68 05 08 1d 	lw $8,1384($29)
  406838:	43 00 00 00 f8 ff 08 08 	addiu $8,$8,-8
  406840:	34 00 00 00 68 05 08 1d 	sw $8,1384($29)
  406848:	28 00 00 00 64 05 08 1d 	lw $8,1380($29)
  406850:	43 00 00 00 f8 ff 08 08 	addiu $8,$8,-8
  406858:	34 00 00 00 64 05 08 1d 	sw $8,1380($29)
  406860:	28 00 00 00 60 05 08 1d 	lw $8,1376($29)
  406868:	43 00 00 00 f8 ff 08 08 	addiu $8,$8,-8
  406870:	34 00 00 00 60 05 08 1d 	sw $8,1376($29)
  406878:	28 00 00 00 5c 05 08 1d 	lw $8,1372($29)
  406880:	43 00 00 00 f8 ff 08 08 	addiu $8,$8,-8
  406888:	34 00 00 00 5c 05 08 1d 	sw $8,1372($29)
  406890:	28 00 00 00 58 05 08 1d 	lw $8,1368($29)
  406898:	43 00 00 00 f8 ff 08 08 	addiu $8,$8,-8
  4068a0:	34 00 00 00 58 05 08 1d 	sw $8,1368($29)
  4068a8:	28 00 00 00 54 05 08 1d 	lw $8,1364($29)
  4068b0:	43 00 00 00 f8 ff 08 08 	addiu $8,$8,-8
  4068b8:	34 00 00 00 54 05 08 1d 	sw $8,1364($29)
  4068c0:	28 00 00 00 50 05 08 1d 	lw $8,1360($29)
  4068c8:	43 00 00 00 f8 ff 08 08 	addiu $8,$8,-8
  4068d0:	34 00 00 00 50 05 08 1d 	sw $8,1360($29)
  4068d8:	28 00 00 00 4c 05 08 1d 	lw $8,1356($29)
  4068e0:	34 00 00 00 14 04 1f 1d 	sw $31,1044($29)
  4068e8:	34 00 00 00 10 04 1e 1d 	sw $30,1040($29)
  4068f0:	34 00 00 00 0c 04 17 1d 	sw $23,1036($29)
  4068f8:	34 00 00 00 08 04 16 1d 	sw $22,1032($29)
  406900:	34 00 00 00 04 04 15 1d 	sw $21,1028($29)
  406908:	34 00 00 00 00 04 14 1d 	sw $20,1024($29)
  406910:	34 00 00 00 fc 03 13 1d 	sw $19,1020($29)
  406918:	34 00 00 00 f8 03 12 1d 	sw $18,1016($29)
  406920:	34 00 00 00 f4 03 11 1d 	sw $17,1012($29)
  406928:	34 00 00 00 f0 03 10 1d 	sw $16,1008($29)
  406930:	37 00 00 00 20 04 16 1d 	s.d $f22,1056($29)
  406938:	37 00 00 00 18 04 14 1d 	s.d $f20,1048($29)
  406940:	34 00 00 00 a8 01 04 1d 	sw $4,424($29)
  406948:	34 00 00 00 b0 01 06 1d 	sw $6,432($29)
  406950:	34 00 00 00 b8 01 07 1d 	sw $7,440($29)
  406958:	43 00 00 00 f8 ff 08 08 	addiu $8,$8,-8
  406960:	34 00 00 00 4c 05 08 1d 	sw $8,1356($29)
  406968:	28 00 00 00 48 05 08 1d 	lw $8,1352($29)
  406970:	43 00 00 00 f8 ff 08 08 	addiu $8,$8,-8
  406978:	34 00 00 00 48 05 08 1d 	sw $8,1352($29)
  406980:	28 00 00 00 44 05 08 1d 	lw $8,1348($29)
  406988:	42 00 00 00 00 1e 05 00 	addu $30,$0,$5
  406990:	43 00 00 00 f8 ff 08 08 	addiu $8,$8,-8
  406998:	34 00 00 00 44 05 08 1d 	sw $8,1348($29)
  4069a0:	28 00 00 00 00 00 02 04 	lw $2,0($4)
  4069a8:	28 00 00 00 38 04 12 1d 	lw $18,1080($29)
  4069b0:	28 00 00 00 40 05 08 1d 	lw $8,1344($29)
  4069b8:	57 00 00 00 1f 03 02 00 	srl $3,$2,0x1f
  4069c0:	42 00 00 00 00 02 03 02 	addu $2,$2,$3
  4069c8:	59 00 00 00 01 02 02 00 	sra $2,$2,0x1
  4069d0:	34 00 00 00 18 01 02 1d 	sw $2,280($29)
  4069d8:	28 00 00 00 00 00 02 1e 	lw $2,0($30)
  4069e0:	43 00 00 00 f8 ff 08 08 	addiu $8,$8,-8
  4069e8:	34 00 00 00 40 05 08 1d 	sw $8,1344($29)
  4069f0:	28 00 00 00 3c 05 08 1d 	lw $8,1340($29)
  4069f8:	57 00 00 00 1f 03 02 00 	srl $3,$2,0x1f
  406a00:	43 00 00 00 f8 ff 08 08 	addiu $8,$8,-8
  406a08:	34 00 00 00 3c 05 08 1d 	sw $8,1340($29)
  406a10:	28 00 00 00 a8 01 08 1d 	lw $8,424($29)
  406a18:	42 00 00 00 00 02 03 02 	addu $2,$2,$3
  406a20:	59 00 00 00 01 02 02 00 	sra $2,$2,0x1
  406a28:	34 00 00 00 28 01 02 1d 	sw $2,296($29)
  406a30:	28 00 00 00 00 00 03 08 	lw $3,0($8)
  406a38:	28 00 00 00 38 05 08 1d 	lw $8,1336($29)
  406a40:	28 00 00 00 00 00 02 1e 	lw $2,0($30)
  406a48:	43 00 00 00 f8 ff 08 08 	addiu $8,$8,-8
  406a50:	34 00 00 00 38 05 08 1d 	sw $8,1336($29)
  406a58:	28 00 00 00 34 05 08 1d 	lw $8,1332($29)
  406a60:	43 00 00 00 f8 ff 08 08 	addiu $8,$8,-8
  406a68:	34 00 00 00 34 05 08 1d 	sw $8,1332($29)
  406a70:	28 00 00 00 30 05 08 1d 	lw $8,1328($29)
  406a78:	43 00 00 00 f8 ff 08 08 	addiu $8,$8,-8
  406a80:	34 00 00 00 30 05 08 1d 	sw $8,1328($29)
  406a88:	28 00 00 00 2c 05 08 1d 	lw $8,1324($29)
  406a90:	43 00 00 00 f8 ff 08 08 	addiu $8,$8,-8
  406a98:	34 00 00 00 2c 05 08 1d 	sw $8,1324($29)
  406aa0:	28 00 00 00 28 05 08 1d 	lw $8,1320($29)
  406aa8:	43 00 00 00 f8 ff 08 08 	addiu $8,$8,-8
  406ab0:	34 00 00 00 28 05 08 1d 	sw $8,1320($29)
  406ab8:	28 00 00 00 24 05 08 1d 	lw $8,1316($29)
  406ac0:	43 00 00 00 f8 ff 08 08 	addiu $8,$8,-8
  406ac8:	34 00 00 00 24 05 08 1d 	sw $8,1316($29)
  406ad0:	28 00 00 00 20 05 08 1d 	lw $8,1312($29)
  406ad8:	43 00 00 00 f8 ff 08 08 	addiu $8,$8,-8
  406ae0:	34 00 00 00 20 05 08 1d 	sw $8,1312($29)
  406ae8:	28 00 00 00 1c 05 08 1d 	lw $8,1308($29)
  406af0:	43 00 00 00 f8 ff 08 08 	addiu $8,$8,-8
  406af8:	34 00 00 00 1c 05 08 1d 	sw $8,1308($29)
  406b00:	28 00 00 00 18 05 08 1d 	lw $8,1304($29)
  406b08:	43 00 00 00 f8 ff 08 08 	addiu $8,$8,-8
  406b10:	34 00 00 00 18 05 08 1d 	sw $8,1304($29)
  406b18:	28 00 00 00 14 05 08 1d 	lw $8,1300($29)
  406b20:	43 00 00 00 f8 ff 08 08 	addiu $8,$8,-8
  406b28:	34 00 00 00 14 05 08 1d 	sw $8,1300($29)
  406b30:	28 00 00 00 10 05 08 1d 	lw $8,1296($29)
  406b38:	43 00 00 00 f8 ff 08 08 	addiu $8,$8,-8
  406b40:	34 00 00 00 10 05 08 1d 	sw $8,1296($29)
  406b48:	28 00 00 00 0c 05 08 1d 	lw $8,1292($29)
  406b50:	43 00 00 00 f8 ff 08 08 	addiu $8,$8,-8
  406b58:	34 00 00 00 0c 05 08 1d 	sw $8,1292($29)
  406b60:	28 00 00 00 08 05 08 1d 	lw $8,1288($29)
  406b68:	43 00 00 00 f8 ff 08 08 	addiu $8,$8,-8
  406b70:	34 00 00 00 08 05 08 1d 	sw $8,1288($29)
  406b78:	28 00 00 00 04 05 08 1d 	lw $8,1284($29)
  406b80:	43 00 00 00 f8 ff 08 08 	addiu $8,$8,-8
  406b88:	34 00 00 00 04 05 08 1d 	sw $8,1284($29)
  406b90:	28 00 00 00 00 05 08 1d 	lw $8,1280($29)
  406b98:	46 00 00 00 00 00 02 03 	mult $3,$2
  406ba0:	43 00 00 00 f8 ff 08 08 	addiu $8,$8,-8
  406ba8:	34 00 00 00 00 05 08 1d 	sw $8,1280($29)
  406bb0:	28 00 00 00 fc 04 08 1d 	lw $8,1276($29)
  406bb8:	43 00 00 00 f8 ff 08 08 	addiu $8,$8,-8
  406bc0:	34 00 00 00 fc 04 08 1d 	sw $8,1276($29)
  406bc8:	28 00 00 00 f8 04 08 1d 	lw $8,1272($29)
  406bd0:	43 00 00 00 f8 ff 08 08 	addiu $8,$8,-8
  406bd8:	34 00 00 00 f8 04 08 1d 	sw $8,1272($29)
  406be0:	28 00 00 00 f4 04 08 1d 	lw $8,1268($29)
  406be8:	43 00 00 00 f8 ff 08 08 	addiu $8,$8,-8
  406bf0:	34 00 00 00 f4 04 08 1d 	sw $8,1268($29)
  406bf8:	4c 00 00 00 00 08 00 00 	mflo $8
  406c00:	34 00 00 00 e0 01 08 1d 	sw $8,480($29)
  406c08:	28 00 00 00 b0 01 08 1d 	lw $8,432($29)
  406c10:	28 00 00 00 00 00 02 08 	lw $2,0($8)
  406c18:	28 00 00 00 f0 04 08 1d 	lw $8,1264($29)
  406c20:	43 00 00 00 f8 ff 08 08 	addiu $8,$8,-8
  406c28:	34 00 00 00 f0 04 08 1d 	sw $8,1264($29)
  406c30:	28 00 00 00 ec 04 08 1d 	lw $8,1260($29)
  406c38:	43 00 00 00 f8 ff 08 08 	addiu $8,$8,-8
  406c40:	34 00 00 00 ec 04 08 1d 	sw $8,1260($29)
  406c48:	28 00 00 00 e0 01 08 1d 	lw $8,480($29)
  406c50:	46 00 00 00 00 00 02 08 	mult $8,$2
  406c58:	28 00 00 00 e8 04 08 1d 	lw $8,1256($29)
  406c60:	43 00 00 00 f8 ff 08 08 	addiu $8,$8,-8
  406c68:	34 00 00 00 e8 04 08 1d 	sw $8,1256($29)
  406c70:	28 00 00 00 e4 04 08 1d 	lw $8,1252($29)
  406c78:	43 00 00 00 f8 ff 08 08 	addiu $8,$8,-8
  406c80:	34 00 00 00 e4 04 08 1d 	sw $8,1252($29)
  406c88:	28 00 00 00 e0 04 08 1d 	lw $8,1248($29)
  406c90:	43 00 00 00 f8 ff 08 08 	addiu $8,$8,-8
  406c98:	34 00 00 00 e0 04 08 1d 	sw $8,1248($29)
  406ca0:	28 00 00 00 dc 04 08 1d 	lw $8,1244($29)
  406ca8:	43 00 00 00 f8 ff 08 08 	addiu $8,$8,-8
  406cb0:	34 00 00 00 dc 04 08 1d 	sw $8,1244($29)
  406cb8:	28 00 00 00 d8 04 08 1d 	lw $8,1240($29)
  406cc0:	43 00 00 00 f8 ff 08 08 	addiu $8,$8,-8
  406cc8:	34 00 00 00 d8 04 08 1d 	sw $8,1240($29)
  406cd0:	28 00 00 00 d4 04 08 1d 	lw $8,1236($29)
  406cd8:	43 00 00 00 f8 ff 08 08 	addiu $8,$8,-8
  406ce0:	34 00 00 00 d4 04 08 1d 	sw $8,1236($29)
  406ce8:	28 00 00 00 d0 04 08 1d 	lw $8,1232($29)
  406cf0:	43 00 00 00 f8 ff 08 08 	addiu $8,$8,-8
  406cf8:	34 00 00 00 d0 04 08 1d 	sw $8,1232($29)
  406d00:	28 00 00 00 cc 04 08 1d 	lw $8,1228($29)
  406d08:	43 00 00 00 f8 ff 08 08 	addiu $8,$8,-8
  406d10:	34 00 00 00 cc 04 08 1d 	sw $8,1228($29)
  406d18:	28 00 00 00 c8 04 08 1d 	lw $8,1224($29)
  406d20:	43 00 00 00 f8 ff 08 08 	addiu $8,$8,-8
  406d28:	34 00 00 00 c8 04 08 1d 	sw $8,1224($29)
  406d30:	28 00 00 00 c4 04 08 1d 	lw $8,1220($29)
  406d38:	43 00 00 00 f8 ff 08 08 	addiu $8,$8,-8
  406d40:	34 00 00 00 c4 04 08 1d 	sw $8,1220($29)
  406d48:	28 00 00 00 c0 04 08 1d 	lw $8,1216($29)
  406d50:	43 00 00 00 f8 ff 08 08 	addiu $8,$8,-8
  406d58:	34 00 00 00 c0 04 08 1d 	sw $8,1216($29)
  406d60:	28 00 00 00 bc 04 08 1d 	lw $8,1212($29)
  406d68:	43 00 00 00 f8 ff 08 08 	addiu $8,$8,-8
  406d70:	34 00 00 00 bc 04 08 1d 	sw $8,1212($29)
  406d78:	28 00 00 00 b8 04 08 1d 	lw $8,1208($29)
  406d80:	43 00 00 00 f8 ff 08 08 	addiu $8,$8,-8
  406d88:	34 00 00 00 b8 04 08 1d 	sw $8,1208($29)
  406d90:	28 00 00 00 b4 04 08 1d 	lw $8,1204($29)
  406d98:	43 00 00 00 f8 ff 08 08 	addiu $8,$8,-8
  406da0:	34 00 00 00 b4 04 08 1d 	sw $8,1204($29)
  406da8:	28 00 00 00 b0 04 08 1d 	lw $8,1200($29)
  406db0:	43 00 00 00 f8 ff 08 08 	addiu $8,$8,-8
  406db8:	34 00 00 00 b0 04 08 1d 	sw $8,1200($29)
  406dc0:	28 00 00 00 ac 04 08 1d 	lw $8,1196($29)
  406dc8:	43 00 00 00 f8 ff 08 08 	addiu $8,$8,-8
  406dd0:	34 00 00 00 ac 04 08 1d 	sw $8,1196($29)
  406dd8:	28 00 00 00 a8 04 08 1d 	lw $8,1192($29)
  406de0:	43 00 00 00 f8 ff 08 08 	addiu $8,$8,-8
  406de8:	34 00 00 00 a8 04 08 1d 	sw $8,1192($29)
  406df0:	28 00 00 00 a4 04 08 1d 	lw $8,1188($29)
  406df8:	4c 00 00 00 00 02 00 00 	mflo $2
  406e00:	43 00 00 00 f8 ff 08 08 	addiu $8,$8,-8
  406e08:	34 00 00 00 a4 04 08 1d 	sw $8,1188($29)
  406e10:	28 00 00 00 a8 01 08 1d 	lw $8,424($29)
  406e18:	34 00 00 00 90 01 02 1d 	sw $2,400($29)
  406e20:	28 00 00 00 00 00 17 08 	lw $23,0($8)
  406e28:	28 00 00 00 e0 01 08 1d 	lw $8,480($29)
  406e30:	28 00 00 00 00 00 03 1e 	lw $3,0($30)
  406e38:	43 00 00 00 01 00 02 00 	addiu $2,$0,1
  406e40:	45 00 00 00 00 02 08 02 	subu $2,$2,$8
  406e48:	34 00 00 00 e8 01 02 1d 	sw $2,488($29)
  406e50:	5b 00 00 00 00 02 03 17 	slt $2,$23,$3
  406e58:	05 00 00 00 02 00 00 02 	beq $2,$0,406e68 <run_+0x670>
  406e60:	42 00 00 00 00 17 03 00 	addu $23,$0,$3
  406e68:	28 00 00 00 b0 01 08 1d 	lw $8,432($29)
  406e70:	28 00 00 00 00 00 04 08 	lw $4,0($8)
  406e78:	42 00 00 00 00 05 17 00 	addu $5,$0,$23
  406e80:	5b 00 00 00 00 02 04 05 	slt $2,$5,$4
  406e88:	05 00 00 00 02 00 00 02 	beq $2,$0,406e98 <run_+0x6a0>
  406e90:	42 00 00 00 00 05 04 00 	addu $5,$0,$4
  406e98:	28 00 00 00 a8 01 08 1d 	lw $8,424($29)
  406ea0:	43 00 00 00 ff ff 04 04 	addiu $4,$4,-1
  406ea8:	34 00 00 00 88 01 04 1d 	sw $4,392($29)
  406eb0:	28 00 00 00 00 00 02 1e 	lw $2,0($30)
  406eb8:	28 00 00 00 00 00 03 08 	lw $3,0($8)
  406ec0:	46 00 00 00 00 00 02 03 	mult $3,$2
  406ec8:	4c 00 00 00 00 02 00 00 	mflo $2
  406ed0:	46 00 00 00 00 00 04 02 	mult $2,$4
  406ed8:	2b 00 00 00 e8 80 0c 1c 	l.d $f12,-32536($28)
  406ee0:	43 00 00 00 01 00 08 05 	addiu $8,$5,1
  406ee8:	34 00 00 00 c0 01 08 1d 	sw $8,448($29)
  406ef0:	4c 00 00 00 00 03 00 00 	mflo $3
  406ef8:	42 00 00 00 00 02 05 08 	addu $2,$8,$5
  406f00:	43 00 00 00 01 00 02 02 	addiu $2,$2,1
  406f08:	34 00 00 00 c8 01 02 1d 	sw $2,456($29)
  406f10:	42 00 00 00 00 02 05 02 	addu $2,$2,$5
  406f18:	43 00 00 00 01 00 02 02 	addiu $2,$2,1
  406f20:	34 00 00 00 d0 01 02 1d 	sw $2,464($29)
  406f28:	42 00 00 00 00 02 05 02 	addu $2,$2,$5
  406f30:	43 00 00 00 01 00 02 02 	addiu $2,$2,1
  406f38:	34 00 00 00 d8 01 02 1d 	sw $2,472($29)
  406f40:	34 00 00 00 90 01 03 1d 	sw $3,400($29)
  406f48:	02 00 00 00 24 53 11 00 	jal 454c90 <atan>
  406f50:	2b 00 00 00 f0 80 02 1c 	l.d $f2,-32528($28)
  406f58:	75 00 00 00 00 00 02 00 	mul.d $f0,$f0,$f2
  406f60:	28 00 00 00 6c 04 08 1d 	lw $8,1132($29)
  406f68:	37 00 00 00 20 01 00 1d 	s.d $f0,288($29)
  406f70:	2b 00 00 00 00 00 02 08 	l.d $f2,0($8)
  406f78:	75 00 00 00 00 00 02 00 	mul.d $f0,$f0,$f2
  406f80:	2b 00 00 00 00 81 16 1c 	l.d $f22,-32512($28)
  406f88:	77 00 00 00 00 0c 16 00 	div.d $f12,$f0,$f22
  406f90:	2b 00 00 00 f8 80 14 1c 	l.d $f20,-32520($28)
  406f98:	71 00 00 00 00 14 14 14 	add.d $f20,$f20,$f20
  406fa0:	02 00 00 00 34 53 11 00 	jal 454cd0 <sin>
  406fa8:	75 00 00 00 00 00 14 00 	mul.d $f0,$f0,$f20
  406fb0:	28 00 00 00 6c 04 08 1d 	lw $8,1132($29)
  406fb8:	2b 00 00 00 20 01 0c 1d 	l.d $f12,288($29)
  406fc0:	37 00 00 00 10 01 00 1d 	s.d $f0,272($29)
  406fc8:	2b 00 00 00 00 00 00 08 	l.d $f0,0($8)
  406fd0:	75 00 00 00 00 0c 00 0c 	mul.d $f12,$f12,$f0
  406fd8:	77 00 00 00 00 0c 16 0c 	div.d $f12,$f12,$f22
  406fe0:	02 00 00 00 30 54 11 00 	jal 4550c0 <cos>
  406fe8:	75 00 00 00 00 00 14 00 	mul.d $f0,$f0,$f20
  406ff0:	2b 00 00 00 20 81 02 1c 	l.d $f2,-32480($28)
  406ff8:	28 00 00 00 90 04 08 1d 	lw $8,1168($29)
  407000:	37 00 00 00 98 01 02 1d 	s.d $f2,408($29)
  407008:	37 00 00 00 a0 01 00 1d 	s.d $f0,416($29)
  407010:	28 00 00 00 00 00 02 08 	lw $2,0($8)
  407018:	43 00 00 00 01 00 08 00 	addiu $8,$0,1
  407020:	05 00 00 00 b4 03 08 02 	beq $2,$8,407ef8 <run_+0x1700>
  407028:	a2 00 00 00 93 10 02 00 	lui $2,4243
  407030:	43 00 00 00 00 f9 02 02 	addiu $2,$2,-1792
  407038:	38 00 00 00 00 00 00 02 	dsz 0($2)
  407040:	2b 00 00 00 00 00 00 02 	l.d $f0,0($2)
  407048:	28 00 00 00 58 04 08 1d 	lw $8,1112($29)
  407050:	a2 00 00 00 93 10 01 00 	lui $1,4243
  407058:	38 00 00 00 08 f9 00 01 	dsz -1784($1)
  407060:	a2 00 00 00 93 10 01 00 	lui $1,4243
  407068:	38 00 00 00 10 f9 00 01 	dsz -1776($1)
  407070:	a2 00 00 00 93 10 01 00 	lui $1,4243
  407078:	38 00 00 00 18 f9 00 01 	dsz -1768($1)
  407080:	a2 00 00 00 93 10 01 00 	lui $1,4243
  407088:	38 00 00 00 20 f9 00 01 	dsz -1760($1)
  407090:	a2 00 00 00 93 10 01 00 	lui $1,4243
  407098:	38 00 00 00 28 f9 00 01 	dsz -1752($1)
  4070a0:	a2 00 00 00 93 10 01 00 	lui $1,4243
  4070a8:	38 00 00 00 30 f9 00 01 	dsz -1744($1)
  4070b0:	a2 00 00 00 93 10 01 00 	lui $1,4243
  4070b8:	38 00 00 00 38 f9 00 01 	dsz -1736($1)
  4070c0:	a2 00 00 00 93 10 01 00 	lui $1,4243
  4070c8:	38 00 00 00 40 f9 00 01 	dsz -1728($1)
  4070d0:	a2 00 00 00 93 10 01 00 	lui $1,4243
  4070d8:	38 00 00 00 48 f9 00 01 	dsz -1720($1)
  4070e0:	a2 00 00 00 93 10 01 00 	lui $1,4243
  4070e8:	38 00 00 00 50 f9 00 01 	dsz -1712($1)
  4070f0:	a2 00 00 00 93 10 01 00 	lui $1,4243
  4070f8:	38 00 00 00 58 f9 00 01 	dsz -1704($1)
  407100:	a2 00 00 00 93 10 01 00 	lui $1,4243
  407108:	38 00 00 00 60 f9 00 01 	dsz -1696($1)
  407110:	a2 00 00 00 93 10 01 00 	lui $1,4243
  407118:	38 00 00 00 68 f9 00 01 	dsz -1688($1)
  407120:	a2 00 00 00 93 10 01 00 	lui $1,4243
  407128:	38 00 00 00 70 f9 00 01 	dsz -1680($1)
  407130:	a2 00 00 00 93 10 01 00 	lui $1,4243
  407138:	38 00 00 00 78 f9 00 01 	dsz -1672($1)
  407140:	34 00 00 00 40 01 00 1d 	sw $0,320($29)
  407148:	37 00 00 00 00 01 00 1d 	s.d $f0,256($29)
  407150:	37 00 00 00 78 01 00 1d 	s.d $f0,376($29)
  407158:	37 00 00 00 80 01 00 1d 	s.d $f0,384($29)
  407160:	37 00 00 00 48 01 00 1d 	s.d $f0,328($29)
  407168:	37 00 00 00 50 01 00 1d 	s.d $f0,336($29)
  407170:	37 00 00 00 58 01 00 1d 	s.d $f0,344($29)
  407178:	37 00 00 00 60 01 00 1d 	s.d $f0,352($29)
  407180:	37 00 00 00 68 01 00 1d 	s.d $f0,360($29)
  407188:	37 00 00 00 70 01 00 1d 	s.d $f0,368($29)
  407190:	37 00 00 00 38 01 00 1d 	s.d $f0,312($29)
  407198:	2b 00 00 00 00 00 00 08 	l.d $f0,0($8)
  4071a0:	37 00 00 00 30 01 00 1d 	s.d $f0,304($29)
  4071a8:	28 00 00 00 00 00 02 1e 	lw $2,0($30)
  4071b0:	5c 00 00 00 02 00 02 02 	slti $2,$2,2
  4071b8:	06 00 00 00 06 00 00 02 	bne $2,$0,4071d8 <run_+0x9e0>
  4071c0:	43 00 00 00 01 00 08 00 	addiu $8,$0,1
  4071c8:	a2 00 00 00 93 10 01 00 	lui $1,4243
  4071d0:	34 00 00 00 70 f8 08 01 	sw $8,-1936($1)
  4071d8:	28 00 00 00 50 04 08 1d 	lw $8,1104($29)
  4071e0:	34 00 00 00 10 00 08 1d 	sw $8,16($29)
  4071e8:	28 00 00 00 54 04 08 1d 	lw $8,1108($29)
  4071f0:	34 00 00 00 14 00 08 1d 	sw $8,20($29)
  4071f8:	28 00 00 00 5c 04 08 1d 	lw $8,1116($29)
  407200:	34 00 00 00 18 00 08 1d 	sw $8,24($29)
  407208:	28 00 00 00 60 04 08 1d 	lw $8,1120($29)
  407210:	34 00 00 00 1c 00 08 1d 	sw $8,28($29)
  407218:	28 00 00 00 64 04 08 1d 	lw $8,1124($29)
  407220:	34 00 00 00 20 00 08 1d 	sw $8,32($29)
  407228:	28 00 00 00 a4 04 08 1d 	lw $8,1188($29)
  407230:	28 00 00 00 a8 01 04 1d 	lw $4,424($29)
  407238:	42 00 00 00 00 05 1e 00 	addu $5,$0,$30
  407240:	43 00 00 00 08 00 08 08 	addiu $8,$8,8
  407248:	34 00 00 00 f0 01 08 1d 	sw $8,496($29)
  407250:	34 00 00 00 24 00 08 1d 	sw $8,36($29)
  407258:	28 00 00 00 d0 04 08 1d 	lw $8,1232($29)
  407260:	28 00 00 00 b0 01 06 1d 	lw $6,432($29)
  407268:	28 00 00 00 4c 04 07 1d 	lw $7,1100($29)
  407270:	43 00 00 00 08 00 02 08 	addiu $2,$8,8
  407278:	43 00 00 00 00 01 08 1d 	addiu $8,$29,256
  407280:	34 00 00 00 28 00 02 1d 	sw $2,40($29)
  407288:	34 00 00 00 e8 03 08 1d 	sw $8,1000($29)
  407290:	34 00 00 00 2c 00 08 1d 	sw $8,44($29)
  407298:	02 00 00 00 5c a0 10 00 	jal 428170 <setall_>
  4072a0:	28 00 00 00 70 05 08 1d 	lw $8,1392($29)
  4072a8:	43 00 00 00 08 00 04 08 	addiu $4,$8,8
  4072b0:	28 00 00 00 10 05 08 1d 	lw $8,1296($29)
  4072b8:	43 00 00 00 08 00 11 08 	addiu $17,$8,8
  4072c0:	28 00 00 00 0c 05 08 1d 	lw $8,1292($29)
  4072c8:	28 00 00 00 b0 01 07 1d 	lw $7,432($29)
  4072d0:	43 00 00 00 08 00 08 08 	addiu $8,$8,8
  4072d8:	34 00 00 00 f8 01 08 1d 	sw $8,504($29)
  4072e0:	28 00 00 00 64 04 08 1d 	lw $8,1124($29)
  4072e8:	28 00 00 00 f8 01 06 1d 	lw $6,504($29)
  4072f0:	34 00 00 00 10 00 08 1d 	sw $8,16($29)
  4072f8:	28 00 00 00 88 04 08 1d 	lw $8,1160($29)
  407300:	43 00 00 00 08 01 10 1d 	addiu $16,$29,264
  407308:	34 00 00 00 14 00 10 1d 	sw $16,20($29)
  407310:	42 00 00 00 00 05 11 00 	addu $5,$0,$17
  407318:	34 00 00 00 18 00 08 1d 	sw $8,24($29)
  407320:	02 00 00 00 6a 85 10 00 	jal 4215a8 <strech_>
  407328:	28 00 00 00 f8 01 08 1d 	lw $8,504($29)
  407330:	34 00 00 00 10 00 08 1d 	sw $8,16($29)
  407338:	28 00 00 00 7c 04 08 1d 	lw $8,1148($29)
  407340:	34 00 00 00 18 00 08 1d 	sw $8,24($29)
  407348:	28 00 00 00 28 05 08 1d 	lw $8,1320($29)
  407350:	43 00 00 00 08 00 08 08 	addiu $8,$8,8
  407358:	34 00 00 00 00 02 08 1d 	sw $8,512($29)
  407360:	34 00 00 00 1c 00 08 1d 	sw $8,28($29)
  407368:	28 00 00 00 14 05 08 1d 	lw $8,1300($29)
  407370:	43 00 00 00 08 00 08 08 	addiu $8,$8,8
  407378:	34 00 00 00 08 02 08 1d 	sw $8,520($29)
  407380:	34 00 00 00 20 00 08 1d 	sw $8,32($29)
  407388:	28 00 00 00 18 05 08 1d 	lw $8,1304($29)
  407390:	43 00 00 00 08 00 08 08 	addiu $8,$8,8
  407398:	34 00 00 00 10 02 08 1d 	sw $8,528($29)
  4073a0:	34 00 00 00 24 00 08 1d 	sw $8,36($29)
  4073a8:	28 00 00 00 1c 05 08 1d 	lw $8,1308($29)
  4073b0:	43 00 00 00 08 00 02 08 	addiu $2,$8,8
  4073b8:	28 00 00 00 20 05 08 1d 	lw $8,1312($29)
  4073c0:	34 00 00 00 28 00 02 1d 	sw $2,40($29)
  4073c8:	43 00 00 00 08 00 02 08 	addiu $2,$8,8
  4073d0:	28 00 00 00 24 05 08 1d 	lw $8,1316($29)
  4073d8:	28 00 00 00 a8 01 04 1d 	lw $4,424($29)
  4073e0:	43 00 00 00 08 00 08 08 	addiu $8,$8,8
  4073e8:	34 00 00 00 18 02 08 1d 	sw $8,536($29)
  4073f0:	34 00 00 00 30 00 08 1d 	sw $8,48($29)
  4073f8:	28 00 00 00 2c 05 08 1d 	lw $8,1324($29)
  407400:	28 00 00 00 b0 01 06 1d 	lw $6,432($29)
  407408:	43 00 00 00 08 00 08 08 	addiu $8,$8,8
  407410:	34 00 00 00 20 02 08 1d 	sw $8,544($29)
  407418:	34 00 00 00 34 00 08 1d 	sw $8,52($29)
  407420:	28 00 00 00 88 04 08 1d 	lw $8,1160($29)
  407428:	34 00 00 00 38 00 08 1d 	sw $8,56($29)
  407430:	28 00 00 00 40 04 08 1d 	lw $8,1088($29)
  407438:	34 00 00 00 3c 00 08 1d 	sw $8,60($29)
  407440:	28 00 00 00 44 04 08 1d 	lw $8,1092($29)
  407448:	42 00 00 00 00 05 1e 00 	addu $5,$0,$30
  407450:	42 00 00 00 00 07 11 00 	addu $7,$0,$17
  407458:	34 00 00 00 14 00 10 1d 	sw $16,20($29)
  407460:	34 00 00 00 2c 00 02 1d 	sw $2,44($29)
  407468:	34 00 00 00 40 00 08 1d 	sw $8,64($29)
  407470:	43 00 00 00 10 01 08 1d 	addiu $8,$29,272
  407478:	34 00 00 00 28 02 08 1d 	sw $8,552($29)
  407480:	34 00 00 00 44 00 08 1d 	sw $8,68($29)
  407488:	02 00 00 00 f4 aa 10 00 	jal 42abd0 <uvset_>
  407490:	43 00 00 00 18 01 08 1d 	addiu $8,$29,280
  407498:	34 00 00 00 30 02 08 1d 	sw $8,560($29)
  4074a0:	28 00 00 00 68 04 08 1d 	lw $8,1128($29)
  4074a8:	34 00 00 00 14 00 08 1d 	sw $8,20($29)
  4074b0:	28 00 00 00 74 04 08 1d 	lw $8,1140($29)
  4074b8:	34 00 00 00 18 00 08 1d 	sw $8,24($29)
  4074c0:	28 00 00 00 50 05 08 1d 	lw $8,1360($29)
  4074c8:	28 00 00 00 a8 01 04 1d 	lw $4,424($29)
  4074d0:	43 00 00 00 08 00 08 08 	addiu $8,$8,8
  4074d8:	34 00 00 00 38 02 08 1d 	sw $8,568($29)
  4074e0:	34 00 00 00 1c 00 08 1d 	sw $8,28($29)
  4074e8:	28 00 00 00 54 05 08 1d 	lw $8,1364($29)
  4074f0:	28 00 00 00 30 02 05 1d 	lw $5,560($29)
  4074f8:	43 00 00 00 08 00 08 08 	addiu $8,$8,8
  407500:	34 00 00 00 40 02 08 1d 	sw $8,576($29)
  407508:	34 00 00 00 20 00 08 1d 	sw $8,32($29)
  407510:	28 00 00 00 58 05 08 1d 	lw $8,1368($29)
  407518:	28 00 00 00 4c 04 06 1d 	lw $6,1100($29)
  407520:	28 00 00 00 5c 04 07 1d 	lw $7,1116($29)
  407528:	43 00 00 00 08 00 13 08 	addiu $19,$8,8
  407530:	28 00 00 00 48 05 08 1d 	lw $8,1352($29)
  407538:	43 00 00 00 20 01 10 1d 	addiu $16,$29,288
  407540:	34 00 00 00 10 00 10 1d 	sw $16,16($29)
  407548:	34 00 00 00 2c 00 12 1d 	sw $18,44($29)
  407550:	34 00 00 00 24 00 13 1d 	sw $19,36($29)
  407558:	43 00 00 00 08 00 08 08 	addiu $8,$8,8
  407560:	34 00 00 00 48 02 08 1d 	sw $8,584($29)
  407568:	34 00 00 00 28 00 08 1d 	sw $8,40($29)
  407570:	02 00 00 00 22 4d 10 00 	jal 413488 <hordfc_>
  407578:	28 00 00 00 00 00 02 1e 	lw $2,0($30)
  407580:	5c 00 00 00 02 00 02 02 	slti $2,$2,2
  407588:	06 00 00 00 2e 00 00 02 	bne $2,$0,407648 <run_+0xe50>
  407590:	28 00 00 00 68 04 08 1d 	lw $8,1128($29)
  407598:	34 00 00 00 14 00 08 1d 	sw $8,20($29)
  4075a0:	28 00 00 00 78 04 08 1d 	lw $8,1144($29)
  4075a8:	34 00 00 00 18 00 08 1d 	sw $8,24($29)
  4075b0:	28 00 00 00 5c 05 08 1d 	lw $8,1372($29)
  4075b8:	28 00 00 00 50 04 06 1d 	lw $6,1104($29)
  4075c0:	28 00 00 00 60 04 07 1d 	lw $7,1120($29)
  4075c8:	43 00 00 00 08 00 02 08 	addiu $2,$8,8
  4075d0:	28 00 00 00 60 05 08 1d 	lw $8,1376($29)
  4075d8:	34 00 00 00 1c 00 02 1d 	sw $2,28($29)
  4075e0:	43 00 00 00 08 00 02 08 	addiu $2,$8,8
  4075e8:	28 00 00 00 64 05 08 1d 	lw $8,1380($29)
  4075f0:	34 00 00 00 20 00 02 1d 	sw $2,32($29)
  4075f8:	43 00 00 00 08 00 02 08 	addiu $2,$8,8
  407600:	28 00 00 00 4c 05 08 1d 	lw $8,1356($29)
  407608:	42 00 00 00 00 04 1e 00 	addu $4,$0,$30
  407610:	43 00 00 00 28 01 05 1d 	addiu $5,$29,296
  407618:	34 00 00 00 10 00 10 1d 	sw $16,16($29)
  407620:	34 00 00 00 2c 00 12 1d 	sw $18,44($29)
  407628:	34 00 00 00 24 00 02 1d 	sw $2,36($29)
  407630:	43 00 00 00 08 00 02 08 	addiu $2,$8,8
  407638:	34 00 00 00 28 00 02 1d 	sw $2,40($29)
  407640:	02 00 00 00 22 4d 10 00 	jal 413488 <hordfc_>
  407648:	28 00 00 00 5c 04 08 1d 	lw $8,1116($29)
  407650:	34 00 00 00 10 00 08 1d 	sw $8,16($29)
  407658:	28 00 00 00 60 04 08 1d 	lw $8,1120($29)
  407660:	34 00 00 00 14 00 08 1d 	sw $8,20($29)
  407668:	28 00 00 00 dc 04 08 1d 	lw $8,1244($29)
  407670:	43 00 00 00 08 00 15 08 	addiu $21,$8,8
  407678:	28 00 00 00 e0 04 08 1d 	lw $8,1248($29)
  407680:	43 00 00 00 08 00 02 08 	addiu $2,$8,8
  407688:	28 00 00 00 e4 04 08 1d 	lw $8,1252($29)
  407690:	34 00 00 00 1c 00 02 1d 	sw $2,28($29)
  407698:	43 00 00 00 08 00 02 08 	addiu $2,$8,8
  4076a0:	28 00 00 00 e8 04 08 1d 	lw $8,1256($29)
  4076a8:	43 00 00 00 08 00 16 08 	addiu $22,$8,8
  4076b0:	28 00 00 00 40 05 08 1d 	lw $8,1344($29)
  4076b8:	43 00 00 00 08 00 12 08 	addiu $18,$8,8
  4076c0:	28 00 00 00 44 05 08 1d 	lw $8,1348($29)
  4076c8:	28 00 00 00 a8 01 04 1d 	lw $4,424($29)
  4076d0:	28 00 00 00 4c 04 06 1d 	lw $6,1100($29)
  4076d8:	43 00 00 00 08 00 11 08 	addiu $17,$8,8
  4076e0:	28 00 00 00 30 02 08 1d 	lw $8,560($29)
  4076e8:	34 00 00 00 30 00 08 1d 	sw $8,48($29)
  4076f0:	28 00 00 00 38 02 08 1d 	lw $8,568($29)
  4076f8:	34 00 00 00 34 00 08 1d 	sw $8,52($29)
  407700:	28 00 00 00 68 05 08 1d 	lw $8,1384($29)
  407708:	34 00 00 00 20 00 02 1d 	sw $2,32($29)
  407710:	43 00 00 00 08 00 02 08 	addiu $2,$8,8
  407718:	28 00 00 00 48 02 08 1d 	lw $8,584($29)
  407720:	34 00 00 00 40 00 08 1d 	sw $8,64($29)
  407728:	28 00 00 00 5c 05 08 1d 	lw $8,1372($29)
  407730:	28 00 00 00 50 04 07 1d 	lw $7,1104($29)
  407738:	43 00 00 00 08 00 08 08 	addiu $8,$8,8
  407740:	34 00 00 00 50 02 08 1d 	sw $8,592($29)
  407748:	34 00 00 00 48 00 08 1d 	sw $8,72($29)
  407750:	28 00 00 00 64 05 08 1d 	lw $8,1380($29)
  407758:	34 00 00 00 38 00 13 1d 	sw $19,56($29)
  407760:	43 00 00 00 28 01 13 1d 	addiu $19,$29,296
  407768:	34 00 00 00 44 00 13 1d 	sw $19,68($29)
  407770:	34 00 00 00 18 00 15 1d 	sw $21,24($29)
  407778:	34 00 00 00 24 00 16 1d 	sw $22,36($29)
  407780:	34 00 00 00 28 00 12 1d 	sw $18,40($29)
  407788:	34 00 00 00 2c 00 11 1d 	sw $17,44($29)
  407790:	34 00 00 00 3c 00 02 1d 	sw $2,60($29)
  407798:	43 00 00 00 08 00 02 08 	addiu $2,$8,8
  4077a0:	34 00 00 00 4c 00 02 1d 	sw $2,76($29)
  4077a8:	28 00 00 00 6c 05 08 1d 	lw $8,1388($29)
  4077b0:	43 00 00 00 08 00 02 08 	addiu $2,$8,8
  4077b8:	28 00 00 00 4c 05 08 1d 	lw $8,1356($29)
  4077c0:	42 00 00 00 00 05 1e 00 	addu $5,$0,$30
  4077c8:	34 00 00 00 50 00 02 1d 	sw $2,80($29)
  4077d0:	43 00 00 00 08 00 17 08 	addiu $23,$8,8
  4077d8:	34 00 00 00 54 00 17 1d 	sw $23,84($29)
  4077e0:	02 00 00 00 d0 b3 10 00 	jal 42cf40 <topo_>
  4077e8:	28 00 00 00 a8 01 04 1d 	lw $4,424($29)
  4077f0:	42 00 00 00 00 05 1e 00 	addu $5,$0,$30
  4077f8:	28 00 00 00 ec 04 08 1d 	lw $8,1260($29)
  407800:	42 00 00 00 00 06 15 00 	addu $6,$0,$21
  407808:	a2 00 00 00 93 10 10 00 	lui $16,4243
  407810:	43 00 00 00 e8 f8 10 10 	addiu $16,$16,-1816
  407818:	34 00 00 00 10 00 10 1d 	sw $16,16($29)
  407820:	43 00 00 00 08 00 14 08 	addiu $20,$8,8
  407828:	42 00 00 00 00 07 14 00 	addu $7,$0,$20
  407830:	02 00 00 00 3a 15 11 00 	jal 4454e8 <initbl_>
  407838:	28 00 00 00 10 02 08 1d 	lw $8,528($29)
  407840:	34 00 00 00 10 00 08 1d 	sw $8,16($29)
  407848:	28 00 00 00 ac 04 08 1d 	lw $8,1196($29)
  407850:	43 00 00 00 08 00 08 08 	addiu $8,$8,8
  407858:	34 00 00 00 58 02 08 1d 	sw $8,600($29)
  407860:	34 00 00 00 14 00 08 1d 	sw $8,20($29)
  407868:	28 00 00 00 b4 04 08 1d 	lw $8,1204($29)
  407870:	42 00 00 00 00 05 11 00 	addu $5,$0,$17
  407878:	43 00 00 00 08 00 11 08 	addiu $17,$8,8
  407880:	28 00 00 00 bc 04 08 1d 	lw $8,1212($29)
  407888:	42 00 00 00 00 04 12 00 	addu $4,$0,$18
  407890:	43 00 00 00 08 00 12 08 	addiu $18,$8,8
  407898:	28 00 00 00 c4 04 08 1d 	lw $8,1220($29)
  4078a0:	43 00 00 00 08 00 08 08 	addiu $8,$8,8
  4078a8:	34 00 00 00 60 02 08 1d 	sw $8,608($29)
  4078b0:	34 00 00 00 20 00 08 1d 	sw $8,32($29)
  4078b8:	28 00 00 00 f8 01 08 1d 	lw $8,504($29)
  4078c0:	34 00 00 00 24 00 08 1d 	sw $8,36($29)
  4078c8:	28 00 00 00 d4 04 08 1d 	lw $8,1236($29)
  4078d0:	28 00 00 00 18 02 06 1d 	lw $6,536($29)
  4078d8:	43 00 00 00 08 00 08 08 	addiu $8,$8,8
  4078e0:	34 00 00 00 68 02 08 1d 	sw $8,616($29)
  4078e8:	34 00 00 00 28 00 08 1d 	sw $8,40($29)
  4078f0:	28 00 00 00 d8 04 08 1d 	lw $8,1240($29)
  4078f8:	28 00 00 00 08 02 07 1d 	lw $7,520($29)
  407900:	43 00 00 00 08 00 08 08 	addiu $8,$8,8
  407908:	34 00 00 00 70 02 08 1d 	sw $8,624($29)
  407910:	34 00 00 00 2c 00 08 1d 	sw $8,44($29)
  407918:	28 00 00 00 7c 04 08 1d 	lw $8,1148($29)
  407920:	34 00 00 00 30 00 08 1d 	sw $8,48($29)
  407928:	28 00 00 00 a8 01 08 1d 	lw $8,424($29)
  407930:	34 00 00 00 3c 00 08 1d 	sw $8,60($29)
  407938:	28 00 00 00 30 02 08 1d 	lw $8,560($29)
  407940:	34 00 00 00 34 00 16 1d 	sw $22,52($29)
  407948:	34 00 00 00 38 00 15 1d 	sw $21,56($29)
  407950:	34 00 00 00 44 00 1e 1d 	sw $30,68($29)
  407958:	34 00 00 00 18 00 11 1d 	sw $17,24($29)
  407960:	34 00 00 00 1c 00 12 1d 	sw $18,28($29)
  407968:	34 00 00 00 40 00 08 1d 	sw $8,64($29)
  407970:	34 00 00 00 48 00 13 1d 	sw $19,72($29)
  407978:	28 00 00 00 b0 01 08 1d 	lw $8,432($29)
  407980:	34 00 00 00 4c 00 08 1d 	sw $8,76($29)
  407988:	28 00 00 00 f0 04 08 1d 	lw $8,1264($29)
  407990:	43 00 00 00 08 00 02 08 	addiu $2,$8,8
  407998:	28 00 00 00 f4 04 08 1d 	lw $8,1268($29)
  4079a0:	43 00 00 00 08 00 08 08 	addiu $8,$8,8
  4079a8:	34 00 00 00 78 02 08 1d 	sw $8,632($29)
  4079b0:	34 00 00 00 58 00 08 1d 	sw $8,88($29)
  4079b8:	28 00 00 00 f8 04 08 1d 	lw $8,1272($29)
  4079c0:	43 00 00 00 08 00 08 08 	addiu $8,$8,8
  4079c8:	34 00 00 00 80 02 08 1d 	sw $8,640($29)
  4079d0:	34 00 00 00 5c 00 08 1d 	sw $8,92($29)
  4079d8:	28 00 00 00 fc 04 08 1d 	lw $8,1276($29)
  4079e0:	43 00 00 00 08 00 08 08 	addiu $8,$8,8
  4079e8:	34 00 00 00 88 02 08 1d 	sw $8,648($29)
  4079f0:	34 00 00 00 60 00 08 1d 	sw $8,96($29)
  4079f8:	28 00 00 00 00 05 08 1d 	lw $8,1280($29)
  407a00:	43 00 00 00 08 00 08 08 	addiu $8,$8,8
  407a08:	34 00 00 00 90 02 08 1d 	sw $8,656($29)
  407a10:	34 00 00 00 64 00 08 1d 	sw $8,100($29)
  407a18:	28 00 00 00 04 05 08 1d 	lw $8,1284($29)
  407a20:	43 00 00 00 08 00 13 08 	addiu $19,$8,8
  407a28:	28 00 00 00 28 02 08 1d 	lw $8,552($29)
  407a30:	34 00 00 00 70 00 08 1d 	sw $8,112($29)
  407a38:	28 00 00 00 48 04 08 1d 	lw $8,1096($29)
  407a40:	34 00 00 00 74 00 08 1d 	sw $8,116($29)
  407a48:	28 00 00 00 68 04 08 1d 	lw $8,1128($29)
  407a50:	34 00 00 00 7c 00 08 1d 	sw $8,124($29)
  407a58:	28 00 00 00 48 02 08 1d 	lw $8,584($29)
  407a60:	34 00 00 00 80 00 08 1d 	sw $8,128($29)
  407a68:	28 00 00 00 38 02 08 1d 	lw $8,568($29)
  407a70:	34 00 00 00 50 00 14 1d 	sw $20,80($29)
  407a78:	34 00 00 00 84 00 17 1d 	sw $23,132($29)
  407a80:	34 00 00 00 54 00 02 1d 	sw $2,84($29)
  407a88:	43 00 00 00 0c 80 02 1c 	addiu $2,$28,-32756
  407a90:	34 00 00 00 6c 00 02 1d 	sw $2,108($29)
  407a98:	43 00 00 00 10 80 02 1c 	addiu $2,$28,-32752
  407aa0:	34 00 00 00 78 00 02 1d 	sw $2,120($29)
  407aa8:	34 00 00 00 68 00 13 1d 	sw $19,104($29)
  407ab0:	34 00 00 00 88 00 08 1d 	sw $8,136($29)
  407ab8:	28 00 00 00 50 02 08 1d 	lw $8,592($29)
  407ac0:	34 00 00 00 8c 00 08 1d 	sw $8,140($29)
  407ac8:	28 00 00 00 40 02 08 1d 	lw $8,576($29)
  407ad0:	34 00 00 00 90 00 08 1d 	sw $8,144($29)
  407ad8:	28 00 00 00 60 05 08 1d 	lw $8,1376($29)
  407ae0:	43 00 00 00 08 00 02 08 	addiu $2,$8,8
  407ae8:	28 00 00 00 20 02 08 1d 	lw $8,544($29)
  407af0:	34 00 00 00 94 00 02 1d 	sw $2,148($29)
  407af8:	34 00 00 00 98 00 08 1d 	sw $8,152($29)
  407b00:	28 00 00 00 30 05 08 1d 	lw $8,1328($29)
  407b08:	43 00 00 00 08 00 02 08 	addiu $2,$8,8
  407b10:	28 00 00 00 70 04 08 1d 	lw $8,1136($29)
  407b18:	43 00 00 00 f8 ff 10 10 	addiu $16,$16,-8
  407b20:	34 00 00 00 a0 00 10 1d 	sw $16,160($29)
  407b28:	34 00 00 00 9c 00 02 1d 	sw $2,156($29)
  407b30:	34 00 00 00 a4 00 08 1d 	sw $8,164($29)
  407b38:	02 00 00 00 1e 05 11 00 	jal 441478 <dkzmh_>
  407b40:	28 00 00 00 4c 04 08 1d 	lw $8,1100($29)
  407b48:	28 00 00 00 a8 01 04 1d 	lw $4,424($29)
  407b50:	28 00 00 00 b0 01 06 1d 	lw $6,432($29)
  407b58:	28 00 00 00 b8 01 07 1d 	lw $7,440($29)
  407b60:	34 00 00 00 10 00 08 1d 	sw $8,16($29)
  407b68:	28 00 00 00 50 04 08 1d 	lw $8,1104($29)
  407b70:	34 00 00 00 14 00 08 1d 	sw $8,20($29)
  407b78:	28 00 00 00 54 04 08 1d 	lw $8,1108($29)
  407b80:	34 00 00 00 18 00 08 1d 	sw $8,24($29)
  407b88:	28 00 00 00 58 04 08 1d 	lw $8,1112($29)
  407b90:	34 00 00 00 1c 00 08 1d 	sw $8,28($29)
  407b98:	28 00 00 00 74 04 08 1d 	lw $8,1140($29)
  407ba0:	34 00 00 00 20 00 08 1d 	sw $8,32($29)
  407ba8:	28 00 00 00 78 04 08 1d 	lw $8,1144($29)
  407bb0:	34 00 00 00 24 00 08 1d 	sw $8,36($29)
  407bb8:	28 00 00 00 7c 04 08 1d 	lw $8,1148($29)
  407bc0:	34 00 00 00 28 00 08 1d 	sw $8,40($29)
  407bc8:	28 00 00 00 5c 04 08 1d 	lw $8,1116($29)
  407bd0:	34 00 00 00 2c 00 08 1d 	sw $8,44($29)
  407bd8:	28 00 00 00 60 04 08 1d 	lw $8,1120($29)
  407be0:	34 00 00 00 30 00 08 1d 	sw $8,48($29)
  407be8:	28 00 00 00 64 04 08 1d 	lw $8,1124($29)
  407bf0:	34 00 00 00 34 00 08 1d 	sw $8,52($29)
  407bf8:	28 00 00 00 68 04 08 1d 	lw $8,1128($29)
  407c00:	34 00 00 00 38 00 08 1d 	sw $8,56($29)
  407c08:	28 00 00 00 f0 01 08 1d 	lw $8,496($29)
  407c10:	34 00 00 00 48 00 08 1d 	sw $8,72($29)
  407c18:	28 00 00 00 08 02 08 1d 	lw $8,520($29)
  407c20:	43 00 00 00 30 01 02 1d 	addiu $2,$29,304
  407c28:	34 00 00 00 3c 00 02 1d 	sw $2,60($29)
  407c30:	43 00 00 00 38 01 02 1d 	addiu $2,$29,312
  407c38:	34 00 00 00 40 00 02 1d 	sw $2,64($29)
  407c40:	43 00 00 00 00 80 02 1c 	addiu $2,$28,-32768
  407c48:	34 00 00 00 44 00 02 1d 	sw $2,68($29)
  407c50:	34 00 00 00 4c 00 08 1d 	sw $8,76($29)
  407c58:	34 00 00 00 50 00 11 1d 	sw $17,80($29)
  407c60:	28 00 00 00 10 02 08 1d 	lw $8,528($29)
  407c68:	34 00 00 00 54 00 08 1d 	sw $8,84($29)
  407c70:	28 00 00 00 18 02 08 1d 	lw $8,536($29)
  407c78:	34 00 00 00 5c 00 08 1d 	sw $8,92($29)
  407c80:	28 00 00 00 58 02 08 1d 	lw $8,600($29)
  407c88:	34 00 00 00 60 00 08 1d 	sw $8,96($29)
  407c90:	28 00 00 00 60 02 08 1d 	lw $8,608($29)
  407c98:	34 00 00 00 64 00 08 1d 	sw $8,100($29)
  407ca0:	28 00 00 00 c8 04 08 1d 	lw $8,1224($29)
  407ca8:	43 00 00 00 08 00 02 08 	addiu $2,$8,8
  407cb0:	28 00 00 00 00 02 08 1d 	lw $8,512($29)
  407cb8:	34 00 00 00 6c 00 08 1d 	sw $8,108($29)
  407cc0:	28 00 00 00 68 02 08 1d 	lw $8,616($29)
  407cc8:	34 00 00 00 70 00 08 1d 	sw $8,112($29)
  407cd0:	28 00 00 00 70 02 08 1d 	lw $8,624($29)
  407cd8:	34 00 00 00 74 00 08 1d 	sw $8,116($29)
  407ce0:	28 00 00 00 08 05 08 1d 	lw $8,1288($29)
  407ce8:	34 00 00 00 68 00 02 1d 	sw $2,104($29)
  407cf0:	43 00 00 00 08 00 02 08 	addiu $2,$8,8
  407cf8:	28 00 00 00 90 04 08 1d 	lw $8,1168($29)
  407d00:	34 00 00 00 7c 00 08 1d 	sw $8,124($29)
  407d08:	28 00 00 00 94 04 08 1d 	lw $8,1172($29)
  407d10:	34 00 00 00 80 00 08 1d 	sw $8,128($29)
  407d18:	28 00 00 00 98 04 08 1d 	lw $8,1176($29)
  407d20:	34 00 00 00 84 00 08 1d 	sw $8,132($29)
  407d28:	28 00 00 00 9c 04 08 1d 	lw $8,1180($29)
  407d30:	34 00 00 00 58 00 12 1d 	sw $18,88($29)
  407d38:	34 00 00 00 78 00 02 1d 	sw $2,120($29)
  407d40:	34 00 00 00 88 00 08 1d 	sw $8,136($29)
  407d48:	28 00 00 00 3c 04 08 1d 	lw $8,1084($29)
  407d50:	43 00 00 00 40 01 02 1d 	addiu $2,$29,320
  407d58:	34 00 00 00 8c 00 02 1d 	sw $2,140($29)
  407d60:	43 00 00 00 44 01 02 1d 	addiu $2,$29,324
  407d68:	34 00 00 00 90 00 02 1d 	sw $2,144($29)
  407d70:	34 00 00 00 94 00 08 1d 	sw $8,148($29)
  407d78:	28 00 00 00 40 04 08 1d 	lw $8,1088($29)
  407d80:	34 00 00 00 98 00 08 1d 	sw $8,152($29)
  407d88:	28 00 00 00 44 04 08 1d 	lw $8,1092($29)
  407d90:	34 00 00 00 9c 00 08 1d 	sw $8,156($29)
  407d98:	28 00 00 00 48 04 08 1d 	lw $8,1096($29)
  407da0:	34 00 00 00 a0 00 08 1d 	sw $8,160($29)
  407da8:	28 00 00 00 80 04 08 1d 	lw $8,1152($29)
  407db0:	34 00 00 00 a4 00 08 1d 	sw $8,164($29)
  407db8:	28 00 00 00 84 04 08 1d 	lw $8,1156($29)
  407dc0:	34 00 00 00 a8 00 08 1d 	sw $8,168($29)
  407dc8:	28 00 00 00 88 04 08 1d 	lw $8,1160($29)
  407dd0:	34 00 00 00 ac 00 08 1d 	sw $8,172($29)
  407dd8:	28 00 00 00 8c 04 08 1d 	lw $8,1164($29)
  407de0:	34 00 00 00 b0 00 08 1d 	sw $8,176($29)
  407de8:	28 00 00 00 78 02 08 1d 	lw $8,632($29)
  407df0:	34 00 00 00 c0 00 08 1d 	sw $8,192($29)
  407df8:	28 00 00 00 80 02 08 1d 	lw $8,640($29)
  407e00:	34 00 00 00 c4 00 08 1d 	sw $8,196($29)
  407e08:	28 00 00 00 88 02 08 1d 	lw $8,648($29)
  407e10:	34 00 00 00 c8 00 08 1d 	sw $8,200($29)
  407e18:	28 00 00 00 90 02 08 1d 	lw $8,656($29)
  407e20:	34 00 00 00 b4 00 16 1d 	sw $22,180($29)
  407e28:	34 00 00 00 b8 00 15 1d 	sw $21,184($29)
  407e30:	34 00 00 00 bc 00 14 1d 	sw $20,188($29)
  407e38:	34 00 00 00 cc 00 08 1d 	sw $8,204($29)
  407e40:	34 00 00 00 d0 00 13 1d 	sw $19,208($29)
  407e48:	28 00 00 00 6c 04 08 1d 	lw $8,1132($29)
  407e50:	34 00 00 00 d4 00 08 1d 	sw $8,212($29)
  407e58:	28 00 00 00 e8 03 08 1d 	lw $8,1000($29)
  407e60:	42 00 00 00 00 05 1e 00 	addu $5,$0,$30
  407e68:	43 00 00 00 48 01 02 1d 	addiu $2,$29,328
  407e70:	34 00 00 00 dc 00 02 1d 	sw $2,220($29)
  407e78:	43 00 00 00 50 01 02 1d 	addiu $2,$29,336
  407e80:	34 00 00 00 e0 00 02 1d 	sw $2,224($29)
  407e88:	43 00 00 00 58 01 02 1d 	addiu $2,$29,344
  407e90:	34 00 00 00 e4 00 02 1d 	sw $2,228($29)
  407e98:	43 00 00 00 60 01 02 1d 	addiu $2,$29,352
  407ea0:	34 00 00 00 e8 00 02 1d 	sw $2,232($29)
  407ea8:	43 00 00 00 68 01 02 1d 	addiu $2,$29,360
  407eb0:	34 00 00 00 ec 00 02 1d 	sw $2,236($29)
  407eb8:	43 00 00 00 70 01 02 1d 	addiu $2,$29,368
  407ec0:	34 00 00 00 f0 00 02 1d 	sw $2,240($29)
  407ec8:	43 00 00 00 78 01 02 1d 	addiu $2,$29,376
  407ed0:	34 00 00 00 f4 00 02 1d 	sw $2,244($29)
  407ed8:	43 00 00 00 80 01 02 1d 	addiu $2,$29,384
  407ee0:	34 00 00 00 f8 00 02 1d 	sw $2,248($29)
  407ee8:	34 00 00 00 d8 00 08 1d 	sw $8,216($29)
  407ef0:	02 00 00 00 a6 93 10 00 	jal 424e98 <printr_>
  407ef8:	28 00 00 00 40 01 02 1d 	lw $2,320($29)
  407f00:	28 00 00 00 8c 04 08 1d 	lw $8,1164($29)
  407f08:	43 00 00 00 01 00 02 02 	addiu $2,$2,1
  407f10:	34 00 00 00 40 01 02 1d 	sw $2,320($29)
  407f18:	34 00 00 00 8c 01 02 1d 	sw $2,396($29)
  407f20:	28 00 00 00 00 00 03 08 	lw $3,0($8)
  407f28:	48 00 00 00 00 00 03 02 	div $0,$2,$3
  407f30:	06 00 00 00 02 00 00 03 	bne $3,$0,407f40 <run_+0x1748>
  407f38:	a1 00 00 00 07 00 00 00 	break 
  407f40:	43 00 00 00 ff ff 01 00 	addiu $1,$0,-1
  407f48:	06 00 00 00 06 00 01 03 	bne $3,$1,407f68 <run_+0x1770>
  407f50:	a2 00 00 00 00 80 01 00 	lui $1,32768
  407f58:	06 00 00 00 02 00 01 02 	bne $2,$1,407f68 <run_+0x1770>
  407f60:	a1 00 00 00 06 00 00 00 	break 
  407f68:	4a 00 00 00 00 03 00 00 	mfhi $3
  407f70:	06 00 00 00 04 00 00 03 	bne $3,$0,407f88 <run_+0x1790>
  407f78:	43 00 00 00 01 00 02 00 	addiu $2,$0,1
  407f80:	34 00 00 00 8c 01 02 1d 	sw $2,396($29)
  407f88:	28 00 00 00 88 01 17 1d 	lw $23,392($29)
  407f90:	28 00 00 00 e8 01 02 1d 	lw $2,488($29)
  407f98:	43 00 00 00 01 00 15 00 	addiu $21,$0,1
  407fa0:	07 00 00 00 32 01 00 17 	blez $23,408470 <run_+0x1c78>
  407fa8:	28 00 00 00 30 05 08 1d 	lw $8,1328($29)
  407fb0:	55 00 00 00 03 02 02 00 	sll $2,$2,0x3
  407fb8:	42 00 00 00 00 13 08 02 	addu $19,$2,$8
  407fc0:	28 00 00 00 2c 05 08 1d 	lw $8,1324($29)
  407fc8:	42 00 00 00 00 12 08 02 	addu $18,$2,$8
  407fd0:	28 00 00 00 a4 04 08 1d 	lw $8,1188($29)
  407fd8:	42 00 00 00 00 11 08 02 	addu $17,$2,$8
  407fe0:	28 00 00 00 40 05 08 1d 	lw $8,1344($29)
  407fe8:	43 00 00 00 08 00 16 08 	addiu $22,$8,8
  407ff0:	28 00 00 00 44 05 08 1d 	lw $8,1348($29)
  407ff8:	43 00 00 00 08 00 14 08 	addiu $20,$8,8
  408000:	28 00 00 00 50 05 08 1d 	lw $8,1360($29)
  408008:	43 00 00 00 08 00 08 08 	addiu $8,$8,8
  408010:	34 00 00 00 98 02 08 1d 	sw $8,664($29)
  408018:	28 00 00 00 54 05 08 1d 	lw $8,1364($29)
  408020:	4f 00 00 00 01 00 03 17 	andi $3,$23,1
  408028:	43 00 00 00 08 00 08 08 	addiu $8,$8,8
  408030:	34 00 00 00 a0 02 08 1d 	sw $8,672($29)
  408038:	28 00 00 00 48 05 08 1d 	lw $8,1352($29)
  408040:	43 00 00 00 01 00 02 17 	addiu $2,$23,1
  408048:	5b 00 00 00 00 02 02 15 	slt $2,$21,$2
  408050:	43 00 00 00 08 00 08 08 	addiu $8,$8,8
  408058:	34 00 00 00 a8 02 08 1d 	sw $8,680($29)
  408060:	05 00 00 00 02 00 00 02 	beq $2,$0,408070 <run_+0x1878>
  408068:	05 00 00 00 58 00 00 03 	beq $3,$0,4081d0 <run_+0x19d8>
  408070:	28 00 00 00 e0 01 08 1d 	lw $8,480($29)
  408078:	28 00 00 00 a8 01 04 1d 	lw $4,424($29)
  408080:	28 00 00 00 48 04 07 1d 	lw $7,1096($29)
  408088:	55 00 00 00 03 02 08 00 	sll $2,$8,0x3
  408090:	28 00 00 00 98 02 08 1d 	lw $8,664($29)
  408098:	34 00 00 00 20 00 08 1d 	sw $8,32($29)
  4080a0:	28 00 00 00 a0 02 08 1d 	lw $8,672($29)
  4080a8:	42 00 00 00 00 05 1e 00 	addu $5,$0,$30
  4080b0:	43 00 00 00 18 01 06 1d 	addiu $6,$29,280
  4080b8:	34 00 00 00 18 00 16 1d 	sw $22,24($29)
  4080c0:	34 00 00 00 1c 00 14 1d 	sw $20,28($29)
  4080c8:	42 00 00 00 00 13 02 13 	addu $19,$19,$2
  4080d0:	34 00 00 00 24 00 08 1d 	sw $8,36($29)
  4080d8:	28 00 00 00 a8 02 08 1d 	lw $8,680($29)
  4080e0:	42 00 00 00 00 12 02 12 	addu $18,$18,$2
  4080e8:	42 00 00 00 00 11 02 11 	addu $17,$17,$2
  4080f0:	34 00 00 00 10 00 11 1d 	sw $17,16($29)
  4080f8:	34 00 00 00 14 00 12 1d 	sw $18,20($29)
  408100:	34 00 00 00 28 00 08 1d 	sw $8,40($29)
  408108:	02 00 00 00 0a 4f 10 00 	jal 413c28 <dctdx_>
  408110:	28 00 00 00 00 00 02 1e 	lw $2,0($30)
  408118:	5c 00 00 00 02 00 02 02 	slti $2,$2,2
  408120:	06 00 00 00 24 00 00 02 	bne $2,$0,4081b8 <run_+0x19c0>
  408128:	28 00 00 00 5c 05 08 1d 	lw $8,1372($29)
  408130:	28 00 00 00 a8 01 04 1d 	lw $4,424($29)
  408138:	28 00 00 00 48 04 07 1d 	lw $7,1096($29)
  408140:	43 00 00 00 08 00 02 08 	addiu $2,$8,8
  408148:	28 00 00 00 60 05 08 1d 	lw $8,1376($29)
  408150:	34 00 00 00 20 00 02 1d 	sw $2,32($29)
  408158:	43 00 00 00 08 00 02 08 	addiu $2,$8,8
  408160:	28 00 00 00 4c 05 08 1d 	lw $8,1356($29)
  408168:	42 00 00 00 00 05 1e 00 	addu $5,$0,$30
  408170:	43 00 00 00 28 01 06 1d 	addiu $6,$29,296
  408178:	34 00 00 00 10 00 11 1d 	sw $17,16($29)
  408180:	34 00 00 00 14 00 13 1d 	sw $19,20($29)
  408188:	34 00 00 00 18 00 16 1d 	sw $22,24($29)
  408190:	34 00 00 00 1c 00 14 1d 	sw $20,28($29)
  408198:	34 00 00 00 24 00 02 1d 	sw $2,36($29)
  4081a0:	43 00 00 00 08 00 02 08 	addiu $2,$8,8
  4081a8:	34 00 00 00 28 00 02 1d 	sw $2,40($29)
  4081b0:	02 00 00 00 f8 54 10 00 	jal 4153e0 <dctdy_>
  4081b8:	43 00 00 00 02 00 15 00 	addiu $21,$0,2
  4081c0:	5c 00 00 00 02 00 02 17 	slti $2,$23,2
  4081c8:	06 00 00 00 a8 00 00 02 	bne $2,$0,408470 <run_+0x1c78>
  4081d0:	28 00 00 00 e0 01 08 1d 	lw $8,480($29)
  4081d8:	28 00 00 00 a8 01 04 1d 	lw $4,424($29)
  4081e0:	28 00 00 00 48 04 07 1d 	lw $7,1096($29)
  4081e8:	55 00 00 00 03 02 08 00 	sll $2,$8,0x3
  4081f0:	28 00 00 00 98 02 08 1d 	lw $8,664($29)
  4081f8:	42 00 00 00 00 05 1e 00 	addu $5,$0,$30
  408200:	43 00 00 00 18 01 06 1d 	addiu $6,$29,280
  408208:	34 00 00 00 18 00 16 1d 	sw $22,24($29)
  408210:	34 00 00 00 1c 00 14 1d 	sw $20,28($29)
  408218:	34 00 00 00 20 00 08 1d 	sw $8,32($29)
  408220:	28 00 00 00 a0 02 08 1d 	lw $8,672($29)
  408228:	42 00 00 00 00 13 02 13 	addu $19,$19,$2
  408230:	42 00 00 00 00 12 02 12 	addu $18,$18,$2
  408238:	34 00 00 00 24 00 08 1d 	sw $8,36($29)
  408240:	28 00 00 00 a8 02 08 1d 	lw $8,680($29)
  408248:	42 00 00 00 00 10 02 00 	addu $16,$0,$2
  408250:	42 00 00 00 00 11 10 11 	addu $17,$17,$16
  408258:	34 00 00 00 10 00 11 1d 	sw $17,16($29)
  408260:	34 00 00 00 14 00 12 1d 	sw $18,20($29)
  408268:	34 00 00 00 28 00 08 1d 	sw $8,40($29)
  408270:	02 00 00 00 0a 4f 10 00 	jal 413c28 <dctdx_>
  408278:	28 00 00 00 00 00 02 1e 	lw $2,0($30)
  408280:	5c 00 00 00 02 00 02 02 	slti $2,$2,2
  408288:	06 00 00 00 24 00 00 02 	bne $2,$0,408320 <run_+0x1b28>
  408290:	28 00 00 00 5c 05 08 1d 	lw $8,1372($29)
  408298:	28 00 00 00 a8 01 04 1d 	lw $4,424($29)
  4082a0:	28 00 00 00 48 04 07 1d 	lw $7,1096($29)
  4082a8:	43 00 00 00 08 00 02 08 	addiu $2,$8,8
  4082b0:	28 00 00 00 60 05 08 1d 	lw $8,1376($29)
  4082b8:	34 00 00 00 20 00 02 1d 	sw $2,32($29)
  4082c0:	43 00 00 00 08 00 02 08 	addiu $2,$8,8
  4082c8:	28 00 00 00 4c 05 08 1d 	lw $8,1356($29)
  4082d0:	42 00 00 00 00 05 1e 00 	addu $5,$0,$30
  4082d8:	43 00 00 00 28 01 06 1d 	addiu $6,$29,296
  4082e0:	34 00 00 00 10 00 11 1d 	sw $17,16($29)
  4082e8:	34 00 00 00 14 00 13 1d 	sw $19,20($29)
  4082f0:	34 00 00 00 18 00 16 1d 	sw $22,24($29)
  4082f8:	34 00 00 00 1c 00 14 1d 	sw $20,28($29)
  408300:	34 00 00 00 24 00 02 1d 	sw $2,36($29)
  408308:	43 00 00 00 08 00 02 08 	addiu $2,$8,8
  408310:	34 00 00 00 28 00 02 1d 	sw $2,40($29)
  408318:	02 00 00 00 f8 54 10 00 	jal 4153e0 <dctdy_>
  408320:	28 00 00 00 98 02 08 1d 	lw $8,664($29)
  408328:	28 00 00 00 a8 01 04 1d 	lw $4,424($29)
  408330:	28 00 00 00 48 04 07 1d 	lw $7,1096($29)
  408338:	34 00 00 00 20 00 08 1d 	sw $8,32($29)
  408340:	28 00 00 00 a0 02 08 1d 	lw $8,672($29)
  408348:	42 00 00 00 00 12 10 12 	addu $18,$18,$16
  408350:	42 00 00 00 00 11 10 11 	addu $17,$17,$16
  408358:	34 00 00 00 24 00 08 1d 	sw $8,36($29)
  408360:	28 00 00 00 a8 02 08 1d 	lw $8,680($29)
  408368:	42 00 00 00 00 05 1e 00 	addu $5,$0,$30
  408370:	43 00 00 00 18 01 06 1d 	addiu $6,$29,280
  408378:	34 00 00 00 10 00 11 1d 	sw $17,16($29)
  408380:	34 00 00 00 14 00 12 1d 	sw $18,20($29)
  408388:	34 00 00 00 18 00 16 1d 	sw $22,24($29)
  408390:	34 00 00 00 1c 00 14 1d 	sw $20,28($29)
  408398:	34 00 00 00 28 00 08 1d 	sw $8,40($29)
  4083a0:	02 00 00 00 0a 4f 10 00 	jal 413c28 <dctdx_>
  4083a8:	28 00 00 00 00 00 02 1e 	lw $2,0($30)
  4083b0:	42 00 00 00 00 13 10 13 	addu $19,$19,$16
  4083b8:	5c 00 00 00 02 00 02 02 	slti $2,$2,2
  4083c0:	06 00 00 00 24 00 00 02 	bne $2,$0,408458 <run_+0x1c60>
  4083c8:	28 00 00 00 5c 05 08 1d 	lw $8,1372($29)
  4083d0:	28 00 00 00 a8 01 04 1d 	lw $4,424($29)
  4083d8:	28 00 00 00 48 04 07 1d 	lw $7,1096($29)
  4083e0:	43 00 00 00 08 00 02 08 	addiu $2,$8,8
  4083e8:	28 00 00 00 60 05 08 1d 	lw $8,1376($29)
  4083f0:	34 00 00 00 20 00 02 1d 	sw $2,32($29)
  4083f8:	43 00 00 00 08 00 02 08 	addiu $2,$8,8
  408400:	28 00 00 00 4c 05 08 1d 	lw $8,1356($29)
  408408:	42 00 00 00 00 05 1e 00 	addu $5,$0,$30
  408410:	43 00 00 00 28 01 06 1d 	addiu $6,$29,296
  408418:	34 00 00 00 10 00 11 1d 	sw $17,16($29)
  408420:	34 00 00 00 14 00 13 1d 	sw $19,20($29)
  408428:	34 00 00 00 18 00 16 1d 	sw $22,24($29)
  408430:	34 00 00 00 1c 00 14 1d 	sw $20,28($29)
  408438:	34 00 00 00 24 00 02 1d 	sw $2,36($29)
  408440:	43 00 00 00 08 00 02 08 	addiu $2,$8,8
  408448:	34 00 00 00 28 00 02 1d 	sw $2,40($29)
  408450:	02 00 00 00 f8 54 10 00 	jal 4153e0 <dctdy_>
  408458:	43 00 00 00 02 00 15 15 	addiu $21,$21,2
  408460:	5b 00 00 00 00 02 15 17 	slt $2,$23,$21
  408468:	05 00 00 00 58 ff 00 02 	beq $2,$0,4081d0 <run_+0x19d8>
  408470:	28 00 00 00 68 04 08 1d 	lw $8,1128($29)
  408478:	34 00 00 00 14 00 08 1d 	sw $8,20($29)
  408480:	28 00 00 00 a4 04 08 1d 	lw $8,1188($29)
  408488:	43 00 00 00 08 00 11 08 	addiu $17,$8,8
  408490:	28 00 00 00 a8 04 08 1d 	lw $8,1192($29)
  408498:	43 00 00 00 90 01 02 1d 	addiu $2,$29,400
  4084a0:	34 00 00 00 10 00 02 1d 	sw $2,16($29)
  4084a8:	43 00 00 00 08 00 02 08 	addiu $2,$8,8
  4084b0:	28 00 00 00 b4 04 08 1d 	lw $8,1204($29)
  4084b8:	34 00 00 00 1c 00 02 1d 	sw $2,28($29)
  4084c0:	43 00 00 00 08 00 02 08 	addiu $2,$8,8
  4084c8:	28 00 00 00 14 05 08 1d 	lw $8,1300($29)
  4084d0:	34 00 00 00 20 00 02 1d 	sw $2,32($29)
  4084d8:	43 00 00 00 08 00 02 08 	addiu $2,$8,8
  4084e0:	28 00 00 00 bc 04 08 1d 	lw $8,1212($29)
  4084e8:	34 00 00 00 24 00 02 1d 	sw $2,36($29)
  4084f0:	43 00 00 00 08 00 02 08 	addiu $2,$8,8
  4084f8:	28 00 00 00 18 05 08 1d 	lw $8,1304($29)
  408500:	34 00 00 00 28 00 02 1d 	sw $2,40($29)
  408508:	43 00 00 00 08 00 02 08 	addiu $2,$8,8
  408510:	28 00 00 00 d0 04 08 1d 	lw $8,1232($29)
  408518:	28 00 00 00 a8 01 04 1d 	lw $4,424($29)
  408520:	43 00 00 00 08 00 10 08 	addiu $16,$8,8
  408528:	28 00 00 00 2c 05 08 1d 	lw $8,1324($29)
  408530:	42 00 00 00 00 05 1e 00 	addu $5,$0,$30
  408538:	34 00 00 00 2c 00 02 1d 	sw $2,44($29)
  408540:	43 00 00 00 08 00 02 08 	addiu $2,$8,8
  408548:	28 00 00 00 30 05 08 1d 	lw $8,1328($29)
  408550:	43 00 00 00 88 01 06 1d 	addiu $6,$29,392
  408558:	43 00 00 00 8c 01 07 1d 	addiu $7,$29,396
  408560:	34 00 00 00 18 00 11 1d 	sw $17,24($29)
  408568:	34 00 00 00 30 00 10 1d 	sw $16,48($29)
  408570:	34 00 00 00 34 00 02 1d 	sw $2,52($29)
  408578:	43 00 00 00 08 00 02 08 	addiu $2,$8,8
  408580:	34 00 00 00 38 00 02 1d 	sw $2,56($29)
  408588:	02 00 00 00 46 2f 10 00 	jal 40bd18 <advc_>
  408590:	28 00 00 00 68 04 08 1d 	lw $8,1128($29)
  408598:	34 00 00 00 10 00 08 1d 	sw $8,16($29)
  4085a0:	28 00 00 00 7c 04 08 1d 	lw $8,1148($29)
  4085a8:	34 00 00 00 14 00 08 1d 	sw $8,20($29)
  4085b0:	28 00 00 00 80 04 08 1d 	lw $8,1152($29)
  4085b8:	34 00 00 00 18 00 08 1d 	sw $8,24($29)
  4085c0:	28 00 00 00 84 04 08 1d 	lw $8,1156($29)
  4085c8:	34 00 00 00 1c 00 08 1d 	sw $8,28($29)
  4085d0:	28 00 00 00 c4 04 08 1d 	lw $8,1220($29)
  4085d8:	43 00 00 00 08 00 02 08 	addiu $2,$8,8
  4085e0:	28 00 00 00 10 05 08 1d 	lw $8,1296($29)
  4085e8:	34 00 00 00 28 00 02 1d 	sw $2,40($29)
  4085f0:	43 00 00 00 08 00 02 08 	addiu $2,$8,8
  4085f8:	28 00 00 00 04 05 08 1d 	lw $8,1284($29)
  408600:	34 00 00 00 2c 00 02 1d 	sw $2,44($29)
  408608:	43 00 00 00 08 00 02 08 	addiu $2,$8,8
  408610:	28 00 00 00 0c 05 08 1d 	lw $8,1292($29)
  408618:	34 00 00 00 30 00 02 1d 	sw $2,48($29)
  408620:	43 00 00 00 08 00 02 08 	addiu $2,$8,8
  408628:	28 00 00 00 40 05 08 1d 	lw $8,1344($29)
  408630:	28 00 00 00 a8 01 04 1d 	lw $4,424($29)
  408638:	43 00 00 00 08 00 14 08 	addiu $20,$8,8
  408640:	28 00 00 00 44 05 08 1d 	lw $8,1348($29)
  408648:	34 00 00 00 24 00 10 1d 	sw $16,36($29)
  408650:	43 00 00 00 08 00 10 08 	addiu $16,$8,8
  408658:	28 00 00 00 28 05 08 1d 	lw $8,1320($29)
  408660:	34 00 00 00 34 00 02 1d 	sw $2,52($29)
  408668:	43 00 00 00 08 00 02 08 	addiu $2,$8,8
  408670:	28 00 00 00 d8 04 08 1d 	lw $8,1240($29)
  408678:	34 00 00 00 40 00 02 1d 	sw $2,64($29)
  408680:	43 00 00 00 08 00 02 08 	addiu $2,$8,8
  408688:	43 00 00 00 01 00 08 00 	addiu $8,$0,1
  408690:	34 00 00 00 44 00 02 1d 	sw $2,68($29)
  408698:	55 00 00 00 03 02 08 00 	sll $2,$8,0x3
  4086a0:	28 00 00 00 2c 05 08 1d 	lw $8,1324($29)
  4086a8:	28 00 00 00 b0 01 06 1d 	lw $6,432($29)
  4086b0:	28 00 00 00 64 04 07 1d 	lw $7,1124($29)
  4086b8:	42 00 00 00 00 02 02 08 	addu $2,$8,$2
  4086c0:	28 00 00 00 c0 01 08 1d 	lw $8,448($29)
  4086c8:	34 00 00 00 48 00 02 1d 	sw $2,72($29)
  4086d0:	55 00 00 00 03 02 08 00 	sll $2,$8,0x3
  4086d8:	28 00 00 00 2c 05 08 1d 	lw $8,1324($29)
  4086e0:	34 00 00 00 20 00 11 1d 	sw $17,32($29)
  4086e8:	34 00 00 00 38 00 14 1d 	sw $20,56($29)
  4086f0:	34 00 00 00 3c 00 10 1d 	sw $16,60($29)
  4086f8:	42 00 00 00 00 02 02 08 	addu $2,$8,$2
  408700:	34 00 00 00 4c 00 02 1d 	sw $2,76($29)
  408708:	28 00 00 00 34 05 08 1d 	lw $8,1332($29)
  408710:	43 00 00 00 30 01 02 1d 	addiu $2,$29,304
  408718:	34 00 00 00 50 00 02 1d 	sw $2,80($29)
  408720:	43 00 00 00 08 00 02 08 	addiu $2,$8,8
  408728:	28 00 00 00 38 05 08 1d 	lw $8,1336($29)
  408730:	34 00 00 00 54 00 02 1d 	sw $2,84($29)
  408738:	43 00 00 00 08 00 02 08 	addiu $2,$8,8
  408740:	28 00 00 00 3c 05 08 1d 	lw $8,1340($29)
  408748:	34 00 00 00 58 00 02 1d 	sw $2,88($29)
  408750:	43 00 00 00 08 00 02 08 	addiu $2,$8,8
  408758:	28 00 00 00 88 04 08 1d 	lw $8,1160($29)
  408760:	34 00 00 00 60 00 08 1d 	sw $8,96($29)
  408768:	28 00 00 00 40 04 08 1d 	lw $8,1088($29)
  408770:	34 00 00 00 64 00 08 1d 	sw $8,100($29)
  408778:	28 00 00 00 44 04 08 1d 	lw $8,1092($29)
  408780:	34 00 00 00 68 00 08 1d 	sw $8,104($29)
  408788:	28 00 00 00 08 05 08 1d 	lw $8,1288($29)
  408790:	42 00 00 00 00 05 1e 00 	addu $5,$0,$30
  408798:	34 00 00 00 5c 00 02 1d 	sw $2,92($29)
  4087a0:	43 00 00 00 08 00 02 08 	addiu $2,$8,8
  4087a8:	34 00 00 00 6c 00 02 1d 	sw $2,108($29)
  4087b0:	43 00 00 00 00 01 02 1d 	addiu $2,$29,256
  4087b8:	34 00 00 00 70 00 02 1d 	sw $2,112($29)
  4087c0:	02 00 00 00 84 31 10 00 	jal 40c610 <dcdtz_>
  4087c8:	28 00 00 00 88 01 17 1d 	lw $23,392($29)
  4087d0:	28 00 00 00 e8 01 02 1d 	lw $2,488($29)
  4087d8:	43 00 00 00 01 00 15 00 	addiu $21,$0,1
  4087e0:	07 00 00 00 2e 01 00 17 	blez $23,408ca0 <run_+0x24a8>
  4087e8:	28 00 00 00 30 05 08 1d 	lw $8,1328($29)
  4087f0:	55 00 00 00 03 02 02 00 	sll $2,$2,0x3
  4087f8:	42 00 00 00 00 13 08 02 	addu $19,$2,$8
  408800:	28 00 00 00 2c 05 08 1d 	lw $8,1324($29)
  408808:	42 00 00 00 00 12 08 02 	addu $18,$2,$8
  408810:	28 00 00 00 ac 04 08 1d 	lw $8,1196($29)
  408818:	42 00 00 00 00 11 08 02 	addu $17,$2,$8
  408820:	28 00 00 00 50 05 08 1d 	lw $8,1360($29)
  408828:	42 00 00 00 00 16 14 00 	addu $22,$0,$20
  408830:	43 00 00 00 08 00 08 08 	addiu $8,$8,8
  408838:	34 00 00 00 b0 02 08 1d 	sw $8,688($29)
  408840:	28 00 00 00 54 05 08 1d 	lw $8,1364($29)
  408848:	42 00 00 00 00 14 10 00 	addu $20,$0,$16
  408850:	4f 00 00 00 01 00 03 17 	andi $3,$23,1
  408858:	43 00 00 00 08 00 08 08 	addiu $8,$8,8
  408860:	34 00 00 00 b8 02 08 1d 	sw $8,696($29)
  408868:	28 00 00 00 48 05 08 1d 	lw $8,1352($29)
  408870:	43 00 00 00 01 00 02 17 	addiu $2,$23,1
  408878:	5b 00 00 00 00 02 02 15 	slt $2,$21,$2
  408880:	43 00 00 00 08 00 08 08 	addiu $8,$8,8
  408888:	34 00 00 00 c0 02 08 1d 	sw $8,704($29)
  408890:	05 00 00 00 02 00 00 02 	beq $2,$0,4088a0 <run_+0x20a8>
  408898:	05 00 00 00 58 00 00 03 	beq $3,$0,408a00 <run_+0x2208>
  4088a0:	28 00 00 00 e0 01 08 1d 	lw $8,480($29)
  4088a8:	28 00 00 00 a8 01 04 1d 	lw $4,424($29)
  4088b0:	28 00 00 00 48 04 07 1d 	lw $7,1096($29)
  4088b8:	55 00 00 00 03 02 08 00 	sll $2,$8,0x3
  4088c0:	28 00 00 00 b0 02 08 1d 	lw $8,688($29)
  4088c8:	34 00 00 00 20 00 08 1d 	sw $8,32($29)
  4088d0:	28 00 00 00 b8 02 08 1d 	lw $8,696($29)
  4088d8:	42 00 00 00 00 05 1e 00 	addu $5,$0,$30
  4088e0:	43 00 00 00 18 01 06 1d 	addiu $6,$29,280
  4088e8:	34 00 00 00 18 00 16 1d 	sw $22,24($29)
  4088f0:	34 00 00 00 1c 00 14 1d 	sw $20,28($29)
  4088f8:	42 00 00 00 00 13 02 13 	addu $19,$19,$2
  408900:	34 00 00 00 24 00 08 1d 	sw $8,36($29)
  408908:	28 00 00 00 c0 02 08 1d 	lw $8,704($29)
  408910:	42 00 00 00 00 12 02 12 	addu $18,$18,$2
  408918:	42 00 00 00 00 11 02 11 	addu $17,$17,$2
  408920:	34 00 00 00 10 00 11 1d 	sw $17,16($29)
  408928:	34 00 00 00 14 00 12 1d 	sw $18,20($29)
  408930:	34 00 00 00 28 00 08 1d 	sw $8,40($29)
  408938:	02 00 00 00 0a 4f 10 00 	jal 413c28 <dctdx_>
  408940:	28 00 00 00 00 00 02 1e 	lw $2,0($30)
  408948:	5c 00 00 00 02 00 02 02 	slti $2,$2,2
  408950:	06 00 00 00 24 00 00 02 	bne $2,$0,4089e8 <run_+0x21f0>
  408958:	28 00 00 00 5c 05 08 1d 	lw $8,1372($29)
  408960:	28 00 00 00 a8 01 04 1d 	lw $4,424($29)
  408968:	28 00 00 00 48 04 07 1d 	lw $7,1096($29)
  408970:	43 00 00 00 08 00 02 08 	addiu $2,$8,8
  408978:	28 00 00 00 60 05 08 1d 	lw $8,1376($29)
  408980:	34 00 00 00 20 00 02 1d 	sw $2,32($29)
  408988:	43 00 00 00 08 00 02 08 	addiu $2,$8,8
  408990:	28 00 00 00 4c 05 08 1d 	lw $8,1356($29)
  408998:	42 00 00 00 00 05 1e 00 	addu $5,$0,$30
  4089a0:	43 00 00 00 28 01 06 1d 	addiu $6,$29,296
  4089a8:	34 00 00 00 10 00 11 1d 	sw $17,16($29)
  4089b0:	34 00 00 00 14 00 13 1d 	sw $19,20($29)
  4089b8:	34 00 00 00 18 00 16 1d 	sw $22,24($29)
  4089c0:	34 00 00 00 1c 00 14 1d 	sw $20,28($29)
  4089c8:	34 00 00 00 24 00 02 1d 	sw $2,36($29)
  4089d0:	43 00 00 00 08 00 02 08 	addiu $2,$8,8
  4089d8:	34 00 00 00 28 00 02 1d 	sw $2,40($29)
  4089e0:	02 00 00 00 f8 54 10 00 	jal 4153e0 <dctdy_>
  4089e8:	43 00 00 00 02 00 15 00 	addiu $21,$0,2
  4089f0:	5c 00 00 00 02 00 02 17 	slti $2,$23,2
  4089f8:	06 00 00 00 a8 00 00 02 	bne $2,$0,408ca0 <run_+0x24a8>
  408a00:	28 00 00 00 e0 01 08 1d 	lw $8,480($29)
  408a08:	28 00 00 00 a8 01 04 1d 	lw $4,424($29)
  408a10:	28 00 00 00 48 04 07 1d 	lw $7,1096($29)
  408a18:	55 00 00 00 03 02 08 00 	sll $2,$8,0x3
  408a20:	28 00 00 00 b0 02 08 1d 	lw $8,688($29)
  408a28:	42 00 00 00 00 05 1e 00 	addu $5,$0,$30
  408a30:	43 00 00 00 18 01 06 1d 	addiu $6,$29,280
  408a38:	34 00 00 00 18 00 16 1d 	sw $22,24($29)
  408a40:	34 00 00 00 1c 00 14 1d 	sw $20,28($29)
  408a48:	34 00 00 00 20 00 08 1d 	sw $8,32($29)
  408a50:	28 00 00 00 b8 02 08 1d 	lw $8,696($29)
  408a58:	42 00 00 00 00 13 02 13 	addu $19,$19,$2
  408a60:	42 00 00 00 00 12 02 12 	addu $18,$18,$2
  408a68:	34 00 00 00 24 00 08 1d 	sw $8,36($29)
  408a70:	28 00 00 00 c0 02 08 1d 	lw $8,704($29)
  408a78:	42 00 00 00 00 10 02 00 	addu $16,$0,$2
  408a80:	42 00 00 00 00 11 10 11 	addu $17,$17,$16
  408a88:	34 00 00 00 10 00 11 1d 	sw $17,16($29)
  408a90:	34 00 00 00 14 00 12 1d 	sw $18,20($29)
  408a98:	34 00 00 00 28 00 08 1d 	sw $8,40($29)
  408aa0:	02 00 00 00 0a 4f 10 00 	jal 413c28 <dctdx_>
  408aa8:	28 00 00 00 00 00 02 1e 	lw $2,0($30)
  408ab0:	5c 00 00 00 02 00 02 02 	slti $2,$2,2
  408ab8:	06 00 00 00 24 00 00 02 	bne $2,$0,408b50 <run_+0x2358>
  408ac0:	28 00 00 00 5c 05 08 1d 	lw $8,1372($29)
  408ac8:	28 00 00 00 a8 01 04 1d 	lw $4,424($29)
  408ad0:	28 00 00 00 48 04 07 1d 	lw $7,1096($29)
  408ad8:	43 00 00 00 08 00 02 08 	addiu $2,$8,8
  408ae0:	28 00 00 00 60 05 08 1d 	lw $8,1376($29)
  408ae8:	34 00 00 00 20 00 02 1d 	sw $2,32($29)
  408af0:	43 00 00 00 08 00 02 08 	addiu $2,$8,8
  408af8:	28 00 00 00 4c 05 08 1d 	lw $8,1356($29)
  408b00:	42 00 00 00 00 05 1e 00 	addu $5,$0,$30
  408b08:	43 00 00 00 28 01 06 1d 	addiu $6,$29,296
  408b10:	34 00 00 00 10 00 11 1d 	sw $17,16($29)
  408b18:	34 00 00 00 14 00 13 1d 	sw $19,20($29)
  408b20:	34 00 00 00 18 00 16 1d 	sw $22,24($29)
  408b28:	34 00 00 00 1c 00 14 1d 	sw $20,28($29)
  408b30:	34 00 00 00 24 00 02 1d 	sw $2,36($29)
  408b38:	43 00 00 00 08 00 02 08 	addiu $2,$8,8
  408b40:	34 00 00 00 28 00 02 1d 	sw $2,40($29)
  408b48:	02 00 00 00 f8 54 10 00 	jal 4153e0 <dctdy_>
  408b50:	28 00 00 00 b0 02 08 1d 	lw $8,688($29)
  408b58:	28 00 00 00 a8 01 04 1d 	lw $4,424($29)
  408b60:	28 00 00 00 48 04 07 1d 	lw $7,1096($29)
  408b68:	34 00 00 00 20 00 08 1d 	sw $8,32($29)
  408b70:	28 00 00 00 b8 02 08 1d 	lw $8,696($29)
  408b78:	42 00 00 00 00 12 10 12 	addu $18,$18,$16
  408b80:	42 00 00 00 00 11 10 11 	addu $17,$17,$16
  408b88:	34 00 00 00 24 00 08 1d 	sw $8,36($29)
  408b90:	28 00 00 00 c0 02 08 1d 	lw $8,704($29)
  408b98:	42 00 00 00 00 05 1e 00 	addu $5,$0,$30
  408ba0:	43 00 00 00 18 01 06 1d 	addiu $6,$29,280
  408ba8:	34 00 00 00 10 00 11 1d 	sw $17,16($29)
  408bb0:	34 00 00 00 14 00 12 1d 	sw $18,20($29)
  408bb8:	34 00 00 00 18 00 16 1d 	sw $22,24($29)
  408bc0:	34 00 00 00 1c 00 14 1d 	sw $20,28($29)
  408bc8:	34 00 00 00 28 00 08 1d 	sw $8,40($29)
  408bd0:	02 00 00 00 0a 4f 10 00 	jal 413c28 <dctdx_>
  408bd8:	28 00 00 00 00 00 02 1e 	lw $2,0($30)
  408be0:	42 00 00 00 00 13 10 13 	addu $19,$19,$16
  408be8:	5c 00 00 00 02 00 02 02 	slti $2,$2,2
  408bf0:	06 00 00 00 24 00 00 02 	bne $2,$0,408c88 <run_+0x2490>
  408bf8:	28 00 00 00 5c 05 08 1d 	lw $8,1372($29)
  408c00:	28 00 00 00 a8 01 04 1d 	lw $4,424($29)
  408c08:	28 00 00 00 48 04 07 1d 	lw $7,1096($29)
  408c10:	43 00 00 00 08 00 02 08 	addiu $2,$8,8
  408c18:	28 00 00 00 60 05 08 1d 	lw $8,1376($29)
  408c20:	34 00 00 00 20 00 02 1d 	sw $2,32($29)
  408c28:	43 00 00 00 08 00 02 08 	addiu $2,$8,8
  408c30:	28 00 00 00 4c 05 08 1d 	lw $8,1356($29)
  408c38:	42 00 00 00 00 05 1e 00 	addu $5,$0,$30
  408c40:	43 00 00 00 28 01 06 1d 	addiu $6,$29,296
  408c48:	34 00 00 00 10 00 11 1d 	sw $17,16($29)
  408c50:	34 00 00 00 14 00 13 1d 	sw $19,20($29)
  408c58:	34 00 00 00 18 00 16 1d 	sw $22,24($29)
  408c60:	34 00 00 00 1c 00 14 1d 	sw $20,28($29)
  408c68:	34 00 00 00 24 00 02 1d 	sw $2,36($29)
  408c70:	43 00 00 00 08 00 02 08 	addiu $2,$8,8
  408c78:	34 00 00 00 28 00 02 1d 	sw $2,40($29)
  408c80:	02 00 00 00 f8 54 10 00 	jal 4153e0 <dctdy_>
  408c88:	43 00 00 00 02 00 15 15 	addiu $21,$21,2
  408c90:	5b 00 00 00 00 02 15 17 	slt $2,$23,$21
  408c98:	05 00 00 00 58 ff 00 02 	beq $2,$0,408a00 <run_+0x2208>
  408ca0:	28 00 00 00 68 04 08 1d 	lw $8,1128($29)
  408ca8:	34 00 00 00 14 00 08 1d 	sw $8,20($29)
  408cb0:	28 00 00 00 ac 04 08 1d 	lw $8,1196($29)
  408cb8:	28 00 00 00 a8 01 04 1d 	lw $4,424($29)
  408cc0:	43 00 00 00 08 00 10 08 	addiu $16,$8,8
  408cc8:	28 00 00 00 b0 04 08 1d 	lw $8,1200($29)
  408cd0:	43 00 00 00 90 01 02 1d 	addiu $2,$29,400
  408cd8:	34 00 00 00 10 00 02 1d 	sw $2,16($29)
  408ce0:	43 00 00 00 08 00 02 08 	addiu $2,$8,8
  408ce8:	28 00 00 00 b4 04 08 1d 	lw $8,1204($29)
  408cf0:	34 00 00 00 1c 00 02 1d 	sw $2,28($29)
  408cf8:	43 00 00 00 08 00 02 08 	addiu $2,$8,8
  408d00:	28 00 00 00 14 05 08 1d 	lw $8,1300($29)
  408d08:	34 00 00 00 20 00 02 1d 	sw $2,32($29)
  408d10:	43 00 00 00 08 00 02 08 	addiu $2,$8,8
  408d18:	28 00 00 00 bc 04 08 1d 	lw $8,1212($29)
  408d20:	34 00 00 00 24 00 02 1d 	sw $2,36($29)
  408d28:	43 00 00 00 08 00 02 08 	addiu $2,$8,8
  408d30:	28 00 00 00 18 05 08 1d 	lw $8,1304($29)
  408d38:	34 00 00 00 28 00 02 1d 	sw $2,40($29)
  408d40:	43 00 00 00 08 00 02 08 	addiu $2,$8,8
  408d48:	28 00 00 00 2c 05 08 1d 	lw $8,1324($29)
  408d50:	42 00 00 00 00 05 1e 00 	addu $5,$0,$30
  408d58:	43 00 00 00 88 01 06 1d 	addiu $6,$29,392
  408d60:	34 00 00 00 2c 00 02 1d 	sw $2,44($29)
  408d68:	43 00 00 00 08 00 02 08 	addiu $2,$8,8
  408d70:	28 00 00 00 30 05 08 1d 	lw $8,1328($29)
  408d78:	43 00 00 00 8c 01 14 1d 	addiu $20,$29,396
  408d80:	42 00 00 00 00 07 14 00 	addu $7,$0,$20
  408d88:	34 00 00 00 18 00 10 1d 	sw $16,24($29)
  408d90:	34 00 00 00 30 00 02 1d 	sw $2,48($29)
  408d98:	43 00 00 00 08 00 02 08 	addiu $2,$8,8
  408da0:	34 00 00 00 34 00 02 1d 	sw $2,52($29)
  408da8:	02 00 00 00 42 35 10 00 	jal 40d508 <advt_>
  408db0:	28 00 00 00 68 04 08 1d 	lw $8,1128($29)
  408db8:	34 00 00 00 10 00 08 1d 	sw $8,16($29)
  408dc0:	28 00 00 00 7c 04 08 1d 	lw $8,1148($29)
  408dc8:	34 00 00 00 14 00 08 1d 	sw $8,20($29)
  408dd0:	28 00 00 00 80 04 08 1d 	lw $8,1152($29)
  408dd8:	34 00 00 00 18 00 08 1d 	sw $8,24($29)
  408de0:	28 00 00 00 84 04 08 1d 	lw $8,1156($29)
  408de8:	34 00 00 00 1c 00 08 1d 	sw $8,28($29)
  408df0:	28 00 00 00 24 05 08 1d 	lw $8,1316($29)
  408df8:	43 00 00 00 08 00 13 08 	addiu $19,$8,8
  408e00:	28 00 00 00 c4 04 08 1d 	lw $8,1220($29)
  408e08:	43 00 00 00 08 00 02 08 	addiu $2,$8,8
  408e10:	28 00 00 00 10 05 08 1d 	lw $8,1296($29)
  408e18:	43 00 00 00 08 00 12 08 	addiu $18,$8,8
  408e20:	28 00 00 00 0c 05 08 1d 	lw $8,1292($29)
  408e28:	43 00 00 00 08 00 11 08 	addiu $17,$8,8
  408e30:	28 00 00 00 40 05 08 1d 	lw $8,1344($29)
  408e38:	43 00 00 00 08 00 16 08 	addiu $22,$8,8
  408e40:	28 00 00 00 44 05 08 1d 	lw $8,1348($29)
  408e48:	28 00 00 00 a8 01 04 1d 	lw $4,424($29)
  408e50:	43 00 00 00 08 00 08 08 	addiu $8,$8,8
  408e58:	34 00 00 00 c8 02 08 1d 	sw $8,712($29)
  408e60:	34 00 00 00 38 00 08 1d 	sw $8,56($29)
  408e68:	28 00 00 00 28 05 08 1d 	lw $8,1320($29)
  408e70:	34 00 00 00 28 00 02 1d 	sw $2,40($29)
  408e78:	43 00 00 00 08 00 02 08 	addiu $2,$8,8
  408e80:	28 00 00 00 d8 04 08 1d 	lw $8,1240($29)
  408e88:	34 00 00 00 3c 00 02 1d 	sw $2,60($29)
  408e90:	43 00 00 00 08 00 02 08 	addiu $2,$8,8
  408e98:	43 00 00 00 01 00 08 00 	addiu $8,$0,1
  408ea0:	34 00 00 00 40 00 02 1d 	sw $2,64($29)
  408ea8:	55 00 00 00 03 02 08 00 	sll $2,$8,0x3
  408eb0:	28 00 00 00 2c 05 08 1d 	lw $8,1324($29)
  408eb8:	28 00 00 00 b0 01 06 1d 	lw $6,432($29)
  408ec0:	28 00 00 00 64 04 07 1d 	lw $7,1124($29)
  408ec8:	42 00 00 00 00 02 02 08 	addu $2,$8,$2
  408ed0:	28 00 00 00 c0 01 08 1d 	lw $8,448($29)
  408ed8:	34 00 00 00 44 00 02 1d 	sw $2,68($29)
  408ee0:	55 00 00 00 03 02 08 00 	sll $2,$8,0x3
  408ee8:	28 00 00 00 2c 05 08 1d 	lw $8,1324($29)
  408ef0:	34 00 00 00 24 00 10 1d 	sw $16,36($29)
  408ef8:	34 00 00 00 20 00 13 1d 	sw $19,32($29)
  408f00:	34 00 00 00 2c 00 12 1d 	sw $18,44($29)
  408f08:	34 00 00 00 30 00 11 1d 	sw $17,48($29)
  408f10:	34 00 00 00 34 00 16 1d 	sw $22,52($29)
  408f18:	42 00 00 00 00 02 02 08 	addu $2,$8,$2
  408f20:	34 00 00 00 48 00 02 1d 	sw $2,72($29)
  408f28:	28 00 00 00 c8 01 08 1d 	lw $8,456($29)
  408f30:	55 00 00 00 03 02 08 00 	sll $2,$8,0x3
  408f38:	28 00 00 00 2c 05 08 1d 	lw $8,1324($29)
  408f40:	42 00 00 00 00 02 02 08 	addu $2,$8,$2
  408f48:	28 00 00 00 d0 01 08 1d 	lw $8,464($29)
  408f50:	34 00 00 00 4c 00 02 1d 	sw $2,76($29)
  408f58:	55 00 00 00 03 02 08 00 	sll $2,$8,0x3
  408f60:	28 00 00 00 2c 05 08 1d 	lw $8,1324($29)
  408f68:	42 00 00 00 00 02 02 08 	addu $2,$8,$2
  408f70:	28 00 00 00 34 05 08 1d 	lw $8,1332($29)
  408f78:	34 00 00 00 50 00 02 1d 	sw $2,80($29)
  408f80:	43 00 00 00 30 01 02 1d 	addiu $2,$29,304
  408f88:	34 00 00 00 54 00 02 1d 	sw $2,84($29)
  408f90:	43 00 00 00 08 00 02 08 	addiu $2,$8,8
  408f98:	28 00 00 00 38 05 08 1d 	lw $8,1336($29)
  408fa0:	34 00 00 00 58 00 02 1d 	sw $2,88($29)
  408fa8:	43 00 00 00 08 00 02 08 	addiu $2,$8,8
  408fb0:	28 00 00 00 3c 05 08 1d 	lw $8,1340($29)
  408fb8:	34 00 00 00 5c 00 02 1d 	sw $2,92($29)
  408fc0:	43 00 00 00 08 00 02 08 	addiu $2,$8,8
  408fc8:	28 00 00 00 88 04 08 1d 	lw $8,1160($29)
  408fd0:	34 00 00 00 64 00 08 1d 	sw $8,100($29)
  408fd8:	28 00 00 00 40 04 08 1d 	lw $8,1088($29)
  408fe0:	34 00 00 00 68 00 08 1d 	sw $8,104($29)
  408fe8:	28 00 00 00 44 04 08 1d 	lw $8,1092($29)
  408ff0:	34 00 00 00 6c 00 08 1d 	sw $8,108($29)
  408ff8:	28 00 00 00 dc 04 08 1d 	lw $8,1244($29)
  409000:	42 00 00 00 00 05 1e 00 	addu $5,$0,$30
  409008:	34 00 00 00 7c 00 14 1d 	sw $20,124($29)
  409010:	34 00 00 00 60 00 02 1d 	sw $2,96($29)
  409018:	43 00 00 00 08 00 02 08 	addiu $2,$8,8
  409020:	34 00 00 00 70 00 02 1d 	sw $2,112($29)
  409028:	43 00 00 00 98 01 02 1d 	addiu $2,$29,408
  409030:	34 00 00 00 74 00 02 1d 	sw $2,116($29)
  409038:	43 00 00 00 78 01 02 1d 	addiu $2,$29,376
  409040:	34 00 00 00 78 00 02 1d 	sw $2,120($29)
  409048:	02 00 00 00 32 37 10 00 	jal 40dcc8 <dtdtz_>
  409050:	28 00 00 00 c8 04 08 1d 	lw $8,1224($29)
  409058:	43 00 00 00 08 00 07 08 	addiu $7,$8,8
  409060:	28 00 00 00 cc 04 08 1d 	lw $8,1228($29)
  409068:	28 00 00 00 a8 01 04 1d 	lw $4,424($29)
  409070:	28 00 00 00 b0 01 06 1d 	lw $6,432($29)
  409078:	43 00 00 00 08 00 02 08 	addiu $2,$8,8
  409080:	28 00 00 00 44 04 08 1d 	lw $8,1092($29)
  409088:	42 00 00 00 00 05 1e 00 	addu $5,$0,$30
  409090:	34 00 00 00 14 00 13 1d 	sw $19,20($29)
  409098:	34 00 00 00 18 00 10 1d 	sw $16,24($29)
  4090a0:	34 00 00 00 1c 00 11 1d 	sw $17,28($29)
  4090a8:	34 00 00 00 20 00 12 1d 	sw $18,32($29)
  4090b0:	34 00 00 00 10 00 02 1d 	sw $2,16($29)
  4090b8:	43 00 00 00 80 01 02 1d 	addiu $2,$29,384
  4090c0:	34 00 00 00 28 00 02 1d 	sw $2,40($29)
  4090c8:	34 00 00 00 24 00 08 1d 	sw $8,36($29)
  4090d0:	02 00 00 00 08 3b 10 00 	jal 40ec20 <hyd_>
  4090d8:	28 00 00 00 88 01 17 1d 	lw $23,392($29)
  4090e0:	28 00 00 00 e8 01 02 1d 	lw $2,488($29)
  4090e8:	43 00 00 00 01 00 15 00 	addiu $21,$0,1
  4090f0:	07 00 00 00 2c 01 00 17 	blez $23,4095a8 <run_+0x2db0>
  4090f8:	28 00 00 00 30 05 08 1d 	lw $8,1328($29)
  409100:	55 00 00 00 03 02 02 00 	sll $2,$2,0x3
  409108:	42 00 00 00 00 13 08 02 	addu $19,$2,$8
  409110:	28 00 00 00 2c 05 08 1d 	lw $8,1324($29)
  409118:	42 00 00 00 00 12 08 02 	addu $18,$2,$8
  409120:	28 00 00 00 b4 04 08 1d 	lw $8,1204($29)
  409128:	42 00 00 00 00 11 08 02 	addu $17,$2,$8
  409130:	28 00 00 00 50 05 08 1d 	lw $8,1360($29)
  409138:	43 00 00 00 08 00 08 08 	addiu $8,$8,8
  409140:	34 00 00 00 d0 02 08 1d 	sw $8,720($29)
  409148:	28 00 00 00 58 05 08 1d 	lw $8,1368($29)
  409150:	28 00 00 00 c8 02 14 1d 	lw $20,712($29)
  409158:	4f 00 00 00 01 00 03 17 	andi $3,$23,1
  409160:	43 00 00 00 08 00 08 08 	addiu $8,$8,8
  409168:	34 00 00 00 d8 02 08 1d 	sw $8,728($29)
  409170:	28 00 00 00 48 05 08 1d 	lw $8,1352($29)
  409178:	43 00 00 00 01 00 02 17 	addiu $2,$23,1
  409180:	5b 00 00 00 00 02 02 15 	slt $2,$21,$2
  409188:	43 00 00 00 08 00 08 08 	addiu $8,$8,8
  409190:	34 00 00 00 e0 02 08 1d 	sw $8,736($29)
  409198:	05 00 00 00 02 00 00 02 	beq $2,$0,4091a8 <run_+0x29b0>
  4091a0:	05 00 00 00 58 00 00 03 	beq $3,$0,409308 <run_+0x2b10>
  4091a8:	28 00 00 00 e0 01 08 1d 	lw $8,480($29)
  4091b0:	28 00 00 00 a8 01 04 1d 	lw $4,424($29)
  4091b8:	28 00 00 00 48 04 07 1d 	lw $7,1096($29)
  4091c0:	55 00 00 00 03 02 08 00 	sll $2,$8,0x3
  4091c8:	28 00 00 00 d0 02 08 1d 	lw $8,720($29)
  4091d0:	34 00 00 00 20 00 08 1d 	sw $8,32($29)
  4091d8:	28 00 00 00 d8 02 08 1d 	lw $8,728($29)
  4091e0:	42 00 00 00 00 05 1e 00 	addu $5,$0,$30
  4091e8:	43 00 00 00 18 01 06 1d 	addiu $6,$29,280
  4091f0:	34 00 00 00 18 00 16 1d 	sw $22,24($29)
  4091f8:	34 00 00 00 1c 00 14 1d 	sw $20,28($29)
  409200:	42 00 00 00 00 13 02 13 	addu $19,$19,$2
  409208:	34 00 00 00 24 00 08 1d 	sw $8,36($29)
  409210:	28 00 00 00 e0 02 08 1d 	lw $8,736($29)
  409218:	42 00 00 00 00 12 02 12 	addu $18,$18,$2
  409220:	42 00 00 00 00 11 02 11 	addu $17,$17,$2
  409228:	34 00 00 00 10 00 11 1d 	sw $17,16($29)
  409230:	34 00 00 00 14 00 12 1d 	sw $18,20($29)
  409238:	34 00 00 00 28 00 08 1d 	sw $8,40($29)
  409240:	02 00 00 00 0a 4f 10 00 	jal 413c28 <dctdx_>
  409248:	28 00 00 00 00 00 02 1e 	lw $2,0($30)
  409250:	5c 00 00 00 02 00 02 02 	slti $2,$2,2
  409258:	06 00 00 00 24 00 00 02 	bne $2,$0,4092f0 <run_+0x2af8>
  409260:	28 00 00 00 5c 05 08 1d 	lw $8,1372($29)
  409268:	28 00 00 00 a8 01 04 1d 	lw $4,424($29)
  409270:	28 00 00 00 48 04 07 1d 	lw $7,1096($29)
  409278:	43 00 00 00 08 00 02 08 	addiu $2,$8,8
  409280:	28 00 00 00 64 05 08 1d 	lw $8,1380($29)
  409288:	34 00 00 00 20 00 02 1d 	sw $2,32($29)
  409290:	43 00 00 00 08 00 02 08 	addiu $2,$8,8
  409298:	28 00 00 00 4c 05 08 1d 	lw $8,1356($29)
  4092a0:	42 00 00 00 00 05 1e 00 	addu $5,$0,$30
  4092a8:	43 00 00 00 28 01 06 1d 	addiu $6,$29,296
  4092b0:	34 00 00 00 10 00 11 1d 	sw $17,16($29)
  4092b8:	34 00 00 00 14 00 13 1d 	sw $19,20($29)
  4092c0:	34 00 00 00 18 00 16 1d 	sw $22,24($29)
  4092c8:	34 00 00 00 1c 00 14 1d 	sw $20,28($29)
  4092d0:	34 00 00 00 24 00 02 1d 	sw $2,36($29)
  4092d8:	43 00 00 00 08 00 02 08 	addiu $2,$8,8
  4092e0:	34 00 00 00 28 00 02 1d 	sw $2,40($29)
  4092e8:	02 00 00 00 f8 54 10 00 	jal 4153e0 <dctdy_>
  4092f0:	43 00 00 00 02 00 15 00 	addiu $21,$0,2
  4092f8:	5c 00 00 00 02 00 02 17 	slti $2,$23,2
  409300:	06 00 00 00 a8 00 00 02 	bne $2,$0,4095a8 <run_+0x2db0>
  409308:	28 00 00 00 e0 01 08 1d 	lw $8,480($29)
  409310:	28 00 00 00 a8 01 04 1d 	lw $4,424($29)
  409318:	28 00 00 00 48 04 07 1d 	lw $7,1096($29)
  409320:	55 00 00 00 03 02 08 00 	sll $2,$8,0x3
  409328:	28 00 00 00 d0 02 08 1d 	lw $8,720($29)
  409330:	42 00 00 00 00 05 1e 00 	addu $5,$0,$30
  409338:	43 00 00 00 18 01 06 1d 	addiu $6,$29,280
  409340:	34 00 00 00 18 00 16 1d 	sw $22,24($29)
  409348:	34 00 00 00 1c 00 14 1d 	sw $20,28($29)
  409350:	34 00 00 00 20 00 08 1d 	sw $8,32($29)
  409358:	28 00 00 00 d8 02 08 1d 	lw $8,728($29)
  409360:	42 00 00 00 00 13 02 13 	addu $19,$19,$2
  409368:	42 00 00 00 00 12 02 12 	addu $18,$18,$2
  409370:	34 00 00 00 24 00 08 1d 	sw $8,36($29)
  409378:	28 00 00 00 e0 02 08 1d 	lw $8,736($29)
  409380:	42 00 00 00 00 10 02 00 	addu $16,$0,$2
  409388:	42 00 00 00 00 11 10 11 	addu $17,$17,$16
  409390:	34 00 00 00 10 00 11 1d 	sw $17,16($29)
  409398:	34 00 00 00 14 00 12 1d 	sw $18,20($29)
  4093a0:	34 00 00 00 28 00 08 1d 	sw $8,40($29)
  4093a8:	02 00 00 00 0a 4f 10 00 	jal 413c28 <dctdx_>
  4093b0:	28 00 00 00 00 00 02 1e 	lw $2,0($30)
  4093b8:	5c 00 00 00 02 00 02 02 	slti $2,$2,2
  4093c0:	06 00 00 00 24 00 00 02 	bne $2,$0,409458 <run_+0x2c60>
  4093c8:	28 00 00 00 5c 05 08 1d 	lw $8,1372($29)
  4093d0:	28 00 00 00 a8 01 04 1d 	lw $4,424($29)
  4093d8:	28 00 00 00 48 04 07 1d 	lw $7,1096($29)
  4093e0:	43 00 00 00 08 00 02 08 	addiu $2,$8,8
  4093e8:	28 00 00 00 64 05 08 1d 	lw $8,1380($29)
  4093f0:	34 00 00 00 20 00 02 1d 	sw $2,32($29)
  4093f8:	43 00 00 00 08 00 02 08 	addiu $2,$8,8
  409400:	28 00 00 00 4c 05 08 1d 	lw $8,1356($29)
  409408:	42 00 00 00 00 05 1e 00 	addu $5,$0,$30
  409410:	43 00 00 00 28 01 06 1d 	addiu $6,$29,296
  409418:	34 00 00 00 10 00 11 1d 	sw $17,16($29)
  409420:	34 00 00 00 14 00 13 1d 	sw $19,20($29)
  409428:	34 00 00 00 18 00 16 1d 	sw $22,24($29)
  409430:	34 00 00 00 1c 00 14 1d 	sw $20,28($29)
  409438:	34 00 00 00 24 00 02 1d 	sw $2,36($29)
  409440:	43 00 00 00 08 00 02 08 	addiu $2,$8,8
  409448:	34 00 00 00 28 00 02 1d 	sw $2,40($29)
  409450:	02 00 00 00 f8 54 10 00 	jal 4153e0 <dctdy_>
  409458:	28 00 00 00 d0 02 08 1d 	lw $8,720($29)
  409460:	28 00 00 00 a8 01 04 1d 	lw $4,424($29)
  409468:	28 00 00 00 48 04 07 1d 	lw $7,1096($29)
  409470:	34 00 00 00 20 00 08 1d 	sw $8,32($29)
  409478:	28 00 00 00 d8 02 08 1d 	lw $8,728($29)
  409480:	42 00 00 00 00 12 10 12 	addu $18,$18,$16
  409488:	42 00 00 00 00 11 10 11 	addu $17,$17,$16
  409490:	34 00 00 00 24 00 08 1d 	sw $8,36($29)
  409498:	28 00 00 00 e0 02 08 1d 	lw $8,736($29)
  4094a0:	42 00 00 00 00 05 1e 00 	addu $5,$0,$30
  4094a8:	43 00 00 00 18 01 06 1d 	addiu $6,$29,280
  4094b0:	34 00 00 00 10 00 11 1d 	sw $17,16($29)
  4094b8:	34 00 00 00 14 00 12 1d 	sw $18,20($29)
  4094c0:	34 00 00 00 18 00 16 1d 	sw $22,24($29)
  4094c8:	34 00 00 00 1c 00 14 1d 	sw $20,28($29)
  4094d0:	34 00 00 00 28 00 08 1d 	sw $8,40($29)
  4094d8:	02 00 00 00 0a 4f 10 00 	jal 413c28 <dctdx_>
  4094e0:	28 00 00 00 00 00 02 1e 	lw $2,0($30)
  4094e8:	42 00 00 00 00 13 10 13 	addu $19,$19,$16
  4094f0:	5c 00 00 00 02 00 02 02 	slti $2,$2,2
  4094f8:	06 00 00 00 24 00 00 02 	bne $2,$0,409590 <run_+0x2d98>
  409500:	28 00 00 00 5c 05 08 1d 	lw $8,1372($29)
  409508:	28 00 00 00 a8 01 04 1d 	lw $4,424($29)
  409510:	28 00 00 00 48 04 07 1d 	lw $7,1096($29)
  409518:	43 00 00 00 08 00 02 08 	addiu $2,$8,8
  409520:	28 00 00 00 64 05 08 1d 	lw $8,1380($29)
  409528:	34 00 00 00 20 00 02 1d 	sw $2,32($29)
  409530:	43 00 00 00 08 00 02 08 	addiu $2,$8,8
  409538:	28 00 00 00 4c 05 08 1d 	lw $8,1356($29)
  409540:	42 00 00 00 00 05 1e 00 	addu $5,$0,$30
  409548:	43 00 00 00 28 01 06 1d 	addiu $6,$29,296
  409550:	34 00 00 00 10 00 11 1d 	sw $17,16($29)
  409558:	34 00 00 00 14 00 13 1d 	sw $19,20($29)
  409560:	34 00 00 00 18 00 16 1d 	sw $22,24($29)
  409568:	34 00 00 00 1c 00 14 1d 	sw $20,28($29)
  409570:	34 00 00 00 24 00 02 1d 	sw $2,36($29)
  409578:	43 00 00 00 08 00 02 08 	addiu $2,$8,8
  409580:	34 00 00 00 28 00 02 1d 	sw $2,40($29)
  409588:	02 00 00 00 f8 54 10 00 	jal 4153e0 <dctdy_>
  409590:	43 00 00 00 02 00 15 15 	addiu $21,$21,2
  409598:	5b 00 00 00 00 02 15 17 	slt $2,$23,$21
  4095a0:	05 00 00 00 58 ff 00 02 	beq $2,$0,409308 <run_+0x2b10>
  4095a8:	28 00 00 00 68 04 08 1d 	lw $8,1128($29)
  4095b0:	28 00 00 00 a8 01 04 1d 	lw $4,424($29)
  4095b8:	34 00 00 00 14 00 08 1d 	sw $8,20($29)
  4095c0:	28 00 00 00 b0 04 08 1d 	lw $8,1200($29)
  4095c8:	43 00 00 00 90 01 02 1d 	addiu $2,$29,400
  4095d0:	34 00 00 00 10 00 02 1d 	sw $2,16($29)
  4095d8:	43 00 00 00 08 00 02 08 	addiu $2,$8,8
  4095e0:	28 00 00 00 b4 04 08 1d 	lw $8,1204($29)
  4095e8:	34 00 00 00 18 00 02 1d 	sw $2,24($29)
  4095f0:	43 00 00 00 08 00 02 08 	addiu $2,$8,8
  4095f8:	28 00 00 00 b8 04 08 1d 	lw $8,1208($29)
  409600:	34 00 00 00 1c 00 02 1d 	sw $2,28($29)
  409608:	43 00 00 00 08 00 02 08 	addiu $2,$8,8
  409610:	28 00 00 00 14 05 08 1d 	lw $8,1300($29)
  409618:	34 00 00 00 20 00 02 1d 	sw $2,32($29)
  409620:	43 00 00 00 08 00 02 08 	addiu $2,$8,8
  409628:	28 00 00 00 bc 04 08 1d 	lw $8,1212($29)
  409630:	34 00 00 00 24 00 02 1d 	sw $2,36($29)
  409638:	43 00 00 00 08 00 02 08 	addiu $2,$8,8
  409640:	28 00 00 00 18 05 08 1d 	lw $8,1304($29)
  409648:	34 00 00 00 28 00 02 1d 	sw $2,40($29)
  409650:	43 00 00 00 08 00 02 08 	addiu $2,$8,8
  409658:	28 00 00 00 c4 04 08 1d 	lw $8,1220($29)
  409660:	34 00 00 00 2c 00 02 1d 	sw $2,44($29)
  409668:	43 00 00 00 08 00 02 08 	addiu $2,$8,8
  409670:	28 00 00 00 20 05 08 1d 	lw $8,1312($29)
  409678:	34 00 00 00 30 00 02 1d 	sw $2,48($29)
  409680:	43 00 00 00 08 00 02 08 	addiu $2,$8,8
  409688:	28 00 00 00 24 05 08 1d 	lw $8,1316($29)
  409690:	34 00 00 00 34 00 02 1d 	sw $2,52($29)
  409698:	43 00 00 00 08 00 02 08 	addiu $2,$8,8
  4096a0:	28 00 00 00 2c 05 08 1d 	lw $8,1324($29)
  4096a8:	42 00 00 00 00 05 1e 00 	addu $5,$0,$30
  4096b0:	34 00 00 00 38 00 02 1d 	sw $2,56($29)
  4096b8:	43 00 00 00 10 01 02 1d 	addiu $2,$29,272
  4096c0:	34 00 00 00 3c 00 02 1d 	sw $2,60($29)
  4096c8:	43 00 00 00 a0 01 02 1d 	addiu $2,$29,416
  4096d0:	34 00 00 00 40 00 02 1d 	sw $2,64($29)
  4096d8:	43 00 00 00 08 00 02 08 	addiu $2,$8,8
  4096e0:	28 00 00 00 30 05 08 1d 	lw $8,1328($29)
  4096e8:	43 00 00 00 88 01 06 1d 	addiu $6,$29,392
  4096f0:	43 00 00 00 8c 01 07 1d 	addiu $7,$29,396
  4096f8:	34 00 00 00 44 00 02 1d 	sw $2,68($29)
  409700:	43 00 00 00 08 00 02 08 	addiu $2,$8,8
  409708:	34 00 00 00 48 00 02 1d 	sw $2,72($29)
  409710:	02 00 00 00 2c 3c 10 00 	jal 40f0b0 <advu_>
  409718:	28 00 00 00 88 01 17 1d 	lw $23,392($29)
  409720:	28 00 00 00 e8 01 02 1d 	lw $2,488($29)
  409728:	43 00 00 00 01 00 15 00 	addiu $21,$0,1
  409730:	07 00 00 00 cc 00 00 17 	blez $23,409a68 <run_+0x3270>
  409738:	28 00 00 00 2c 05 08 1d 	lw $8,1324($29)
  409740:	55 00 00 00 03 02 02 00 	sll $2,$2,0x3
  409748:	42 00 00 00 00 13 08 02 	addu $19,$2,$8
  409750:	28 00 00 00 cc 04 08 1d 	lw $8,1228($29)
  409758:	42 00 00 00 00 12 08 02 	addu $18,$2,$8
  409760:	28 00 00 00 c8 04 08 1d 	lw $8,1224($29)
  409768:	42 00 00 00 00 11 08 02 	addu $17,$2,$8
  409770:	28 00 00 00 40 05 08 1d 	lw $8,1344($29)
  409778:	43 00 00 00 08 00 08 08 	addiu $8,$8,8
  409780:	34 00 00 00 e8 02 08 1d 	sw $8,744($29)
  409788:	28 00 00 00 44 05 08 1d 	lw $8,1348($29)
  409790:	43 00 00 00 08 00 08 08 	addiu $8,$8,8
  409798:	34 00 00 00 f0 02 08 1d 	sw $8,752($29)
  4097a0:	28 00 00 00 50 05 08 1d 	lw $8,1360($29)
  4097a8:	43 00 00 00 08 00 08 08 	addiu $8,$8,8
  4097b0:	34 00 00 00 f8 02 08 1d 	sw $8,760($29)
  4097b8:	28 00 00 00 54 05 08 1d 	lw $8,1364($29)
  4097c0:	43 00 00 00 08 00 08 08 	addiu $8,$8,8
  4097c8:	34 00 00 00 00 03 08 1d 	sw $8,768($29)
  4097d0:	28 00 00 00 68 05 08 1d 	lw $8,1384($29)
  4097d8:	4f 00 00 00 01 00 03 17 	andi $3,$23,1
  4097e0:	43 00 00 00 08 00 16 08 	addiu $22,$8,8
  4097e8:	28 00 00 00 48 05 08 1d 	lw $8,1352($29)
  4097f0:	43 00 00 00 01 00 02 17 	addiu $2,$23,1
  4097f8:	5b 00 00 00 00 02 02 15 	slt $2,$21,$2
  409800:	43 00 00 00 08 00 14 08 	addiu $20,$8,8
  409808:	05 00 00 00 02 00 00 02 	beq $2,$0,409818 <run_+0x3020>
  409810:	05 00 00 00 34 00 00 03 	beq $3,$0,4098e8 <run_+0x30f0>
  409818:	28 00 00 00 e0 01 08 1d 	lw $8,480($29)
  409820:	28 00 00 00 a8 01 04 1d 	lw $4,424($29)
  409828:	28 00 00 00 48 04 07 1d 	lw $7,1096($29)
  409830:	55 00 00 00 03 02 08 00 	sll $2,$8,0x3
  409838:	28 00 00 00 e8 02 08 1d 	lw $8,744($29)
  409840:	34 00 00 00 1c 00 08 1d 	sw $8,28($29)
  409848:	28 00 00 00 f0 02 08 1d 	lw $8,752($29)
  409850:	34 00 00 00 20 00 08 1d 	sw $8,32($29)
  409858:	28 00 00 00 f8 02 08 1d 	lw $8,760($29)
  409860:	42 00 00 00 00 05 1e 00 	addu $5,$0,$30
  409868:	43 00 00 00 18 01 06 1d 	addiu $6,$29,280
  409870:	34 00 00 00 2c 00 16 1d 	sw $22,44($29)
  409878:	34 00 00 00 30 00 14 1d 	sw $20,48($29)
  409880:	42 00 00 00 00 13 02 13 	addu $19,$19,$2
  409888:	34 00 00 00 24 00 08 1d 	sw $8,36($29)
  409890:	28 00 00 00 00 03 08 1d 	lw $8,768($29)
