
/export/capc5/SPEC_TRACE/SimpleScalar/bin/hydro2d.ss:     file format ss-coff-little

Disassembly of section .text:

00400140 <__start>:
  400140:	28 00 00 00 00 00 10 1d 	lw $16,0($29)
  400148:	a2 00 00 00 01 10 1c 00 	lui $28,4097
  400150:	43 00 00 00 b0 c0 1c 1c 	addiu $28,$28,-16208
  400158:	43 00 00 00 04 00 11 1d 	addiu $17,$29,4
  400160:	43 00 00 00 04 00 03 11 	addiu $3,$17,4
  400168:	55 00 00 00 02 02 10 00 	sll $2,$16,0x2
  400170:	42 00 00 00 00 03 02 03 	addu $3,$3,$2
  400178:	42 00 00 00 00 12 03 00 	addu $18,$0,$3
  400180:	34 00 00 00 e4 88 12 1c 	sw $18,-30492($28)
  400188:	43 00 00 00 e8 ff 1d 1d 	addiu $29,$29,-24
  400190:	42 00 00 00 00 04 10 00 	addu $4,$0,$16
  400198:	42 00 00 00 00 05 11 00 	addu $5,$0,$17
  4001a0:	42 00 00 00 00 06 12 00 	addu $6,$0,$18
  4001a8:	02 00 00 00 90 54 10 00 	jal 415240 <__libc_init>
  4001b0:	34 00 00 00 e0 88 00 1c 	sw $0,-30496($28)
  4001b8:	42 00 00 00 00 04 10 00 	addu $4,$0,$16
  4001c0:	42 00 00 00 00 05 11 00 	addu $5,$0,$17
  4001c8:	42 00 00 00 00 06 12 00 	addu $6,$0,$18
  4001d0:	02 00 00 00 9c 54 10 00 	jal 415270 <main>
  4001d8:	42 00 00 00 00 04 02 00 	addu $4,$0,$2
  4001e0:	02 00 00 00 74 55 10 00 	jal 4155d0 <exit>
	...

004001f0 <MAIN__>:
  4001f0:	43 00 00 00 b8 ff 1d 1d 	addiu $29,$29,-72
  4001f8:	43 00 00 00 0a 00 02 00 	addiu $2,$0,10
  400200:	34 00 00 00 14 00 02 1d 	sw $2,20($29)
  400208:	43 00 00 00 09 00 02 00 	addiu $2,$0,9
  400210:	34 00 00 00 1c 00 02 1d 	sw $2,28($29)
  400218:	a2 00 00 00 00 10 02 00 	lui $2,4096
  400220:	43 00 00 00 00 00 02 02 	addiu $2,$2,0
  400228:	43 00 00 00 10 00 04 1d 	addiu $4,$29,16
  400230:	34 00 00 00 40 00 1f 1d 	sw $31,64($29)
  400238:	34 00 00 00 3c 00 11 1d 	sw $17,60($29)
  400240:	34 00 00 00 38 00 10 1d 	sw $16,56($29)
  400248:	34 00 00 00 10 00 00 1d 	sw $0,16($29)
  400250:	34 00 00 00 18 00 02 1d 	sw $2,24($29)
  400258:	34 00 00 00 2c 00 00 1d 	sw $0,44($29)
  400260:	34 00 00 00 20 00 00 1d 	sw $0,32($29)
  400268:	34 00 00 00 24 00 00 1d 	sw $0,36($29)
  400270:	34 00 00 00 28 00 00 1d 	sw $0,40($29)
  400278:	34 00 00 00 30 00 00 1d 	sw $0,48($29)
  400280:	02 00 00 00 04 56 10 00 	jal 415810 <f_open>
  400288:	02 00 00 00 94 51 10 00 	jal 414650 <inpdta_>
  400290:	a2 00 00 00 3f 10 10 00 	lui $16,4159
  400298:	43 00 00 00 fc 7a 10 10 	addiu $16,$16,31484
  4002a0:	28 00 00 00 f4 ff 02 10 	lw $2,-12($16)
  4002a8:	34 00 00 00 00 00 02 10 	sw $2,0($16)
  4002b0:	02 00 00 00 dc 00 10 00 	jal 400370 <prepar_>
  4002b8:	02 00 00 00 de 01 10 00 	jal 400778 <inival_>
  4002c0:	28 00 00 00 f4 ff 11 10 	lw $17,-12($16)
  4002c8:	43 00 00 00 01 00 02 00 	addiu $2,$0,1
  4002d0:	34 00 00 00 f8 ff 02 10 	sw $2,-8($16)
  4002d8:	43 00 00 00 f4 ff 10 10 	addiu $16,$16,-12
  4002e0:	07 00 00 00 14 00 00 11 	blez $17,400338 <MAIN__+0x148>
  4002e8:	43 00 00 00 04 00 10 10 	addiu $16,$16,4
  4002f0:	02 00 00 00 10 0f 10 00 	jal 403c40 <tistep_>
  4002f8:	02 00 00 00 d8 15 10 00 	jal 405760 <advnce_>
  400300:	02 00 00 00 f0 3d 10 00 	jal 40f7c0 <check_>
  400308:	02 00 00 00 cc 46 10 00 	jal 411b30 <output_>
  400310:	28 00 00 00 00 00 02 10 	lw $2,0($16)
  400318:	43 00 00 00 01 00 02 02 	addiu $2,$2,1
  400320:	34 00 00 00 00 00 02 10 	sw $2,0($16)
  400328:	5b 00 00 00 00 02 02 11 	slt $2,$17,$2
  400330:	05 00 00 00 ee ff 00 02 	beq $2,$0,4002f0 <MAIN__+0x100>
  400338:	02 00 00 00 48 4a 10 00 	jal 412920 <term_>
  400340:	42 00 00 00 00 02 00 00 	addu $2,$0,$0
  400348:	28 00 00 00 40 00 1f 1d 	lw $31,64($29)
  400350:	28 00 00 00 3c 00 11 1d 	lw $17,60($29)
  400358:	28 00 00 00 38 00 10 1d 	lw $16,56($29)
  400360:	43 00 00 00 48 00 1d 1d 	addiu $29,$29,72
  400368:	03 00 00 00 00 00 00 1f 	jr $31

00400370 <prepar_>:
  400370:	22 00 00 00 f0 88 02 1c 	lbu $2,-30480($28)
  400378:	a2 00 00 00 00 10 05 00 	lui $5,4096
  400380:	22 00 00 00 a1 49 05 05 	lbu $5,18849($5)
  400388:	a2 00 00 00 00 10 06 00 	lui $6,4096
  400390:	22 00 00 00 a2 49 06 06 	lbu $6,18850($6)
  400398:	a2 00 00 00 00 10 07 00 	lui $7,4096
  4003a0:	22 00 00 00 a3 49 07 07 	lbu $7,18851($7)
  4003a8:	43 00 00 00 e0 ff 1d 1d 	addiu $29,$29,-32
  4003b0:	43 00 00 00 43 00 04 00 	addiu $4,$0,67
  4003b8:	34 00 00 00 1c 00 1f 1d 	sw $31,28($29)
  4003c0:	34 00 00 00 18 00 10 1d 	sw $16,24($29)
  4003c8:	4f 00 00 00 ff 00 03 02 	andi $3,$2,255
  4003d0:	30 00 00 00 10 00 02 1d 	sb $2,16($29)
  4003d8:	30 00 00 00 11 00 05 1d 	sb $5,17($29)
  4003e0:	30 00 00 00 12 00 06 1d 	sb $6,18($29)
  4003e8:	30 00 00 00 13 00 07 1d 	sb $7,19($29)
  4003f0:	05 00 00 00 04 00 04 03 	beq $3,$4,400408 <prepar_+0x98>
  4003f8:	43 00 00 00 4f 00 02 00 	addiu $2,$0,79
  400400:	06 00 00 00 18 00 02 03 	bne $3,$2,400468 <prepar_+0xf8>
  400408:	4f 00 00 00 ff 00 03 05 	andi $3,$5,255
  400410:	05 00 00 00 04 00 04 03 	beq $3,$4,400428 <prepar_+0xb8>
  400418:	43 00 00 00 4f 00 02 00 	addiu $2,$0,79
  400420:	06 00 00 00 10 00 02 03 	bne $3,$2,400468 <prepar_+0xf8>
  400428:	4f 00 00 00 ff 00 03 06 	andi $3,$6,255
  400430:	05 00 00 00 04 00 04 03 	beq $3,$4,400448 <prepar_+0xd8>
  400438:	43 00 00 00 4f 00 02 00 	addiu $2,$0,79
  400440:	06 00 00 00 08 00 02 03 	bne $3,$2,400468 <prepar_+0xf8>
  400448:	4f 00 00 00 ff 00 03 07 	andi $3,$7,255
  400450:	05 00 00 00 36 00 04 03 	beq $3,$4,400530 <prepar_+0x1c0>
  400458:	43 00 00 00 4f 00 02 00 	addiu $2,$0,79
  400460:	05 00 00 00 32 00 02 03 	beq $3,$2,400530 <prepar_+0x1c0>
  400468:	a2 00 00 00 00 10 04 00 	lui $4,4096
  400470:	43 00 00 00 d0 27 04 04 	addiu $4,$4,10192
  400478:	02 00 00 00 34 59 10 00 	jal 4164d0 <s_wsfe>
  400480:	43 00 00 00 04 80 04 1c 	addiu $4,$28,-32764
  400488:	43 00 00 00 f0 88 05 1c 	addiu $5,$28,-30480
  400490:	43 00 00 00 01 00 06 00 	addiu $6,$0,1
  400498:	02 00 00 00 d0 65 10 00 	jal 419740 <do_fio>
  4004a0:	43 00 00 00 04 80 04 1c 	addiu $4,$28,-32764
  4004a8:	a2 00 00 00 00 10 10 00 	lui $16,4096
  4004b0:	43 00 00 00 a1 49 10 10 	addiu $16,$16,18849
  4004b8:	42 00 00 00 00 05 10 00 	addu $5,$0,$16
  4004c0:	43 00 00 00 01 00 06 00 	addiu $6,$0,1
  4004c8:	02 00 00 00 d0 65 10 00 	jal 419740 <do_fio>
  4004d0:	43 00 00 00 04 80 04 1c 	addiu $4,$28,-32764
  4004d8:	43 00 00 00 01 00 05 10 	addiu $5,$16,1
  4004e0:	43 00 00 00 01 00 06 00 	addiu $6,$0,1
  4004e8:	02 00 00 00 d0 65 10 00 	jal 419740 <do_fio>
  4004f0:	43 00 00 00 04 80 04 1c 	addiu $4,$28,-32764
  4004f8:	43 00 00 00 02 00 05 10 	addiu $5,$16,2
  400500:	43 00 00 00 01 00 06 00 	addiu $6,$0,1
  400508:	02 00 00 00 d0 65 10 00 	jal 419740 <do_fio>
  400510:	02 00 00 00 46 68 10 00 	jal 41a118 <e_wsfe>
  400518:	43 00 00 00 34 80 04 1c 	addiu $4,$28,-32716
  400520:	42 00 00 00 00 05 00 00 	addu $5,$0,$0
  400528:	02 00 00 00 68 68 10 00 	jal 41a1a0 <s_stop>
  400530:	a2 00 00 00 3f 10 03 00 	lui $3,4159
  400538:	43 00 00 00 00 7b 03 03 	addiu $3,$3,31488
  400540:	28 00 00 00 00 00 02 03 	lw $2,0($3)
  400548:	08 00 00 00 04 00 00 02 	bgtz $2,400560 <prepar_+0x1f0>
  400550:	43 00 00 00 01 00 02 00 	addiu $2,$0,1
  400558:	34 00 00 00 00 00 02 03 	sw $2,0($3)
  400560:	28 00 00 00 00 00 02 03 	lw $2,0($3)
  400568:	5c 00 00 00 93 01 02 02 	slti $2,$2,403
  400570:	06 00 00 00 04 00 00 02 	bne $2,$0,400588 <prepar_+0x218>
  400578:	43 00 00 00 92 01 02 00 	addiu $2,$0,402
  400580:	34 00 00 00 00 00 02 03 	sw $2,0($3)
  400588:	a2 00 00 00 3f 10 02 00 	lui $2,4159
  400590:	28 00 00 00 04 7b 02 02 	lw $2,31492($2)
  400598:	08 00 00 00 06 00 00 02 	bgtz $2,4005b8 <prepar_+0x248>
  4005a0:	43 00 00 00 01 00 02 00 	addiu $2,$0,1
  4005a8:	a2 00 00 00 3f 10 01 00 	lui $1,4159
  4005b0:	34 00 00 00 04 7b 02 01 	sw $2,31492($1)
  4005b8:	a2 00 00 00 3f 10 02 00 	lui $2,4159
  4005c0:	28 00 00 00 04 7b 02 02 	lw $2,31492($2)
  4005c8:	5c 00 00 00 a1 00 02 02 	slti $2,$2,161
  4005d0:	06 00 00 00 06 00 00 02 	bne $2,$0,4005f0 <prepar_+0x280>
  4005d8:	43 00 00 00 a0 00 02 00 	addiu $2,$0,160
  4005e0:	a2 00 00 00 3f 10 01 00 	lui $1,4159
  4005e8:	34 00 00 00 04 7b 02 01 	sw $2,31492($1)
  4005f0:	a2 00 00 00 00 10 03 00 	lui $3,4096
  4005f8:	43 00 00 00 58 54 03 03 	addiu $3,$3,21592
  400600:	28 00 00 00 00 00 02 03 	lw $2,0($3)
  400608:	0a 00 00 00 02 00 00 02 	bgez $2,400618 <prepar_+0x2a8>
  400610:	34 00 00 00 00 00 00 03 	sw $0,0($3)
  400618:	28 00 00 00 00 00 02 03 	lw $2,0($3)
  400620:	5c 00 00 00 02 00 02 02 	slti $2,$2,2
  400628:	06 00 00 00 04 00 00 02 	bne $2,$0,400640 <prepar_+0x2d0>
  400630:	43 00 00 00 01 00 02 00 	addiu $2,$0,1
  400638:	34 00 00 00 00 00 02 03 	sw $2,0($3)
  400640:	a2 00 00 00 00 10 02 00 	lui $2,4096
  400648:	28 00 00 00 5c 54 02 02 	lw $2,21596($2)
  400650:	0a 00 00 00 04 00 00 02 	bgez $2,400668 <prepar_+0x2f8>
  400658:	a2 00 00 00 00 10 01 00 	lui $1,4096
  400660:	34 00 00 00 5c 54 00 01 	sw $0,21596($1)
  400668:	a2 00 00 00 00 10 02 00 	lui $2,4096
  400670:	28 00 00 00 5c 54 02 02 	lw $2,21596($2)
  400678:	5c 00 00 00 e9 03 02 02 	slti $2,$2,1001
  400680:	06 00 00 00 06 00 00 02 	bne $2,$0,4006a0 <prepar_+0x330>
  400688:	43 00 00 00 e8 03 02 00 	addiu $2,$0,1000
  400690:	a2 00 00 00 00 10 01 00 	lui $1,4096
  400698:	34 00 00 00 5c 54 02 01 	sw $2,21596($1)
  4006a0:	a2 00 00 00 5f 10 03 00 	lui $3,4191
  4006a8:	43 00 00 00 98 29 03 03 	addiu $3,$3,10648
  4006b0:	28 00 00 00 00 00 02 03 	lw $2,0($3)
  4006b8:	0a 00 00 00 02 00 00 02 	bgez $2,4006c8 <prepar_+0x358>
  4006c0:	34 00 00 00 00 00 00 03 	sw $0,0($3)
  4006c8:	28 00 00 00 00 00 02 03 	lw $2,0($3)
  4006d0:	5c 00 00 00 02 00 02 02 	slti $2,$2,2
  4006d8:	06 00 00 00 04 00 00 02 	bne $2,$0,4006f0 <prepar_+0x380>
  4006e0:	43 00 00 00 01 00 02 00 	addiu $2,$0,1
  4006e8:	34 00 00 00 00 00 02 03 	sw $2,0($3)
  4006f0:	a2 00 00 00 5f 10 02 00 	lui $2,4191
  4006f8:	28 00 00 00 9c 29 02 02 	lw $2,10652($2)
  400700:	0a 00 00 00 04 00 00 02 	bgez $2,400718 <prepar_+0x3a8>
  400708:	a2 00 00 00 5f 10 01 00 	lui $1,4191
  400710:	34 00 00 00 9c 29 00 01 	sw $0,10652($1)
  400718:	a2 00 00 00 5f 10 02 00 	lui $2,4191
  400720:	28 00 00 00 9c 29 02 02 	lw $2,10652($2)
  400728:	5c 00 00 00 02 00 02 02 	slti $2,$2,2
  400730:	06 00 00 00 06 00 00 02 	bne $2,$0,400750 <prepar_+0x3e0>
  400738:	43 00 00 00 01 00 02 00 	addiu $2,$0,1
  400740:	a2 00 00 00 5f 10 01 00 	lui $1,4191
  400748:	34 00 00 00 9c 29 02 01 	sw $2,10652($1)
  400750:	42 00 00 00 00 02 00 00 	addu $2,$0,$0
  400758:	28 00 00 00 1c 00 1f 1d 	lw $31,28($29)
  400760:	28 00 00 00 18 00 10 1d 	lw $16,24($29)
  400768:	43 00 00 00 20 00 1d 1d 	addiu $29,$29,32
  400770:	03 00 00 00 00 00 00 1f 	jr $31

00400778 <inival_>:
  400778:	43 00 00 00 e8 ff 1d 1d 	addiu $29,$29,-24
  400780:	34 00 00 00 10 00 1f 1d 	sw $31,16($29)
  400788:	a2 00 00 00 5f 10 01 00 	lui $1,4191
  400790:	34 00 00 00 08 2a 00 01 	sw $0,10760($1)
  400798:	a2 00 00 00 5f 10 01 00 	lui $1,4191
  4007a0:	38 00 00 00 a0 29 00 01 	dsz 10656($1)
  4007a8:	a2 00 00 00 5f 10 01 00 	lui $1,4191
  4007b0:	38 00 00 00 a8 29 00 01 	dsz 10664($1)
  4007b8:	02 00 00 00 12 02 10 00 	jal 400848 <inimod_>
  4007c0:	02 00 00 00 e2 08 10 00 	jal 402388 <gridco_>
  4007c8:	a2 00 00 00 20 10 01 00 	lui $1,4128
  4007d0:	2b 00 00 00 f8 1e 00 01 	l.d $f0,7928($1)
  4007d8:	a2 00 00 00 28 10 01 00 	lui $1,4136
  4007e0:	2b 00 00 00 e0 df 02 01 	l.d $f2,-8224($1)
  4007e8:	43 00 00 00 38 80 04 1c 	addiu $4,$28,-32712
  4007f0:	43 00 00 00 01 00 05 00 	addiu $5,$0,1
  4007f8:	a2 00 00 00 5f 10 01 00 	lui $1,4191
  400800:	37 00 00 00 70 29 00 01 	s.d $f0,10608($1)
  400808:	a2 00 00 00 5f 10 01 00 	lui $1,4191
  400810:	37 00 00 00 78 29 02 01 	s.d $f2,10616($1)
  400818:	02 00 00 00 9e 16 10 00 	jal 405a78 <adlen_>
  400820:	02 00 00 00 f0 3d 10 00 	jal 40f7c0 <check_>
  400828:	42 00 00 00 00 02 00 00 	addu $2,$0,$0
  400830:	28 00 00 00 10 00 1f 1d 	lw $31,16($29)
  400838:	43 00 00 00 18 00 1d 1d 	addiu $29,$29,24
  400840:	03 00 00 00 00 00 00 1f 	jr $31

00400848 <inimod_>:
  400848:	43 00 00 00 98 ff 1d 1d 	addiu $29,$29,-104
  400850:	43 00 00 00 10 00 04 1d 	addiu $4,$29,16
  400858:	43 00 00 00 0b 00 02 00 	addiu $2,$0,11
  400860:	34 00 00 00 14 00 02 1d 	sw $2,20($29)
  400868:	43 00 00 00 0d 00 02 00 	addiu $2,$0,13
  400870:	34 00 00 00 1c 00 02 1d 	sw $2,28($29)
  400878:	a2 00 00 00 00 10 02 00 	lui $2,4096
  400880:	43 00 00 00 0c 00 02 02 	addiu $2,$2,12
  400888:	34 00 00 00 18 00 02 1d 	sw $2,24($29)
  400890:	43 00 00 00 3c 80 02 1c 	addiu $2,$28,-32708
  400898:	34 00 00 00 50 00 1f 1d 	sw $31,80($29)
  4008a0:	34 00 00 00 4c 00 15 1d 	sw $21,76($29)
  4008a8:	34 00 00 00 48 00 14 1d 	sw $20,72($29)
  4008b0:	34 00 00 00 44 00 13 1d 	sw $19,68($29)
  4008b8:	34 00 00 00 40 00 12 1d 	sw $18,64($29)
  4008c0:	34 00 00 00 3c 00 11 1d 	sw $17,60($29)
  4008c8:	34 00 00 00 38 00 10 1d 	sw $16,56($29)
  4008d0:	37 00 00 00 60 00 16 1d 	s.d $f22,96($29)
  4008d8:	37 00 00 00 58 00 14 1d 	s.d $f20,88($29)
  4008e0:	34 00 00 00 10 00 00 1d 	sw $0,16($29)
  4008e8:	34 00 00 00 2c 00 00 1d 	sw $0,44($29)
  4008f0:	34 00 00 00 20 00 02 1d 	sw $2,32($29)
  4008f8:	34 00 00 00 24 00 00 1d 	sw $0,36($29)
  400900:	34 00 00 00 28 00 00 1d 	sw $0,40($29)
  400908:	34 00 00 00 30 00 00 1d 	sw $0,48($29)
  400910:	02 00 00 00 04 56 10 00 	jal 415810 <f_open>
  400918:	43 00 00 00 10 80 04 1c 	addiu $4,$28,-32752
  400920:	43 00 00 00 01 00 12 00 	addiu $18,$0,1
  400928:	2b 00 00 00 40 80 08 1c 	l.d $f8,-32704($28)
  400930:	2b 00 00 00 48 80 02 1c 	l.d $f2,-32696($28)
  400938:	2b 00 00 00 50 80 04 1c 	l.d $f4,-32688($28)
  400940:	2b 00 00 00 80 80 06 1c 	l.d $f6,-32640($28)
  400948:	2b 00 00 00 60 80 00 1c 	l.d $f0,-32672($28)
  400950:	2b 00 00 00 88 80 14 1c 	l.d $f20,-32632($28)
  400958:	a2 00 00 00 20 10 14 00 	lui $20,4128
  400960:	43 00 00 00 d8 05 14 14 	addiu $20,$20,1496
  400968:	43 00 00 00 92 01 13 00 	addiu $19,$0,402
  400970:	a2 00 00 00 5f 10 01 00 	lui $1,4191
  400978:	38 00 00 00 e0 29 00 01 	dsz 10720($1)
  400980:	73 00 00 00 00 16 00 08 	sub.d $f22,$f8,$f0
  400988:	a2 00 00 00 5f 10 01 00 	lui $1,4191
  400990:	37 00 00 00 b0 29 08 01 	s.d $f8,10672($1)
  400998:	a2 00 00 00 5f 10 01 00 	lui $1,4191
  4009a0:	37 00 00 00 c8 29 02 01 	s.d $f2,10696($1)
  4009a8:	a2 00 00 00 5f 10 01 00 	lui $1,4191
  4009b0:	37 00 00 00 d0 29 04 01 	s.d $f4,10704($1)
  4009b8:	a2 00 00 00 5f 10 01 00 	lui $1,4191
  4009c0:	37 00 00 00 d8 29 06 01 	s.d $f6,10712($1)
  4009c8:	a2 00 00 00 5f 10 01 00 	lui $1,4191
  4009d0:	37 00 00 00 e8 29 00 01 	s.d $f0,10728($1)
  4009d8:	a2 00 00 00 5f 10 01 00 	lui $1,4191
  4009e0:	37 00 00 00 f0 29 00 01 	s.d $f0,10736($1)
  4009e8:	a2 00 00 00 5f 10 01 00 	lui $1,4191
  4009f0:	37 00 00 00 f8 29 00 01 	s.d $f0,10744($1)
  4009f8:	a2 00 00 00 5f 10 01 00 	lui $1,4191
  400a00:	37 00 00 00 00 2a 00 01 	s.d $f0,10752($1)
  400a08:	02 00 00 00 bc 68 10 00 	jal 41a2f0 <i_dnnt>
  400a10:	43 00 00 00 18 80 04 1c 	addiu $4,$28,-32744
  400a18:	42 00 00 00 00 15 02 00 	addu $21,$0,$2
  400a20:	02 00 00 00 bc 68 10 00 	jal 41a2f0 <i_dnnt>
  400a28:	43 00 00 00 01 00 10 00 	addiu $16,$0,1
  400a30:	42 00 00 00 00 11 13 00 	addu $17,$0,$19
  400a38:	a2 00 00 00 00 10 04 00 	lui $4,4096
  400a40:	43 00 00 00 1c 28 04 04 	addiu $4,$4,10268
  400a48:	02 00 00 00 f6 69 10 00 	jal 41a7d8 <s_rsfe>
  400a50:	06 00 00 00 02 02 00 02 	bne $2,$0,401260 <inimod_+0xa18>
  400a58:	43 00 00 00 04 80 04 1c 	addiu $4,$28,-32764
  400a60:	42 00 00 00 00 05 11 10 	addu $5,$16,$17
  400a68:	55 00 00 00 03 05 05 00 	sll $5,$5,0x3
  400a70:	42 00 00 00 00 05 14 05 	addu $5,$5,$20
  400a78:	43 00 00 00 08 00 06 00 	addiu $6,$0,8
  400a80:	02 00 00 00 d0 65 10 00 	jal 419740 <do_fio>
  400a88:	06 00 00 00 f4 01 00 02 	bne $2,$0,401260 <inimod_+0xa18>
  400a90:	02 00 00 00 b0 67 10 00 	jal 419ec0 <e_rsfe>
  400a98:	06 00 00 00 f0 01 00 02 	bne $2,$0,401260 <inimod_+0xa18>
  400aa0:	43 00 00 00 01 00 10 10 	addiu $16,$16,1
  400aa8:	5c 00 00 00 93 01 02 10 	slti $2,$16,403
  400ab0:	06 00 00 00 e0 ff 00 02 	bne $2,$0,400a38 <inimod_+0x1f0>
  400ab8:	43 00 00 00 92 01 13 13 	addiu $19,$19,402
  400ac0:	43 00 00 00 01 00 12 12 	addiu $18,$18,1
  400ac8:	5c 00 00 00 a1 00 02 12 	slti $2,$18,161
  400ad0:	06 00 00 00 d4 ff 00 02 	bne $2,$0,400a28 <inimod_+0x1e0>
  400ad8:	43 00 00 00 01 00 12 00 	addiu $18,$0,1
  400ae0:	42 00 00 00 00 07 15 00 	addu $7,$0,$21
  400ae8:	5c 00 00 00 01 00 0e 07 	slti $14,$7,1
  400af0:	a2 00 00 00 28 10 0c 00 	lui $12,4136
  400af8:	43 00 00 00 d8 df 0c 0c 	addiu $12,$12,-8232
  400b00:	a2 00 00 00 30 10 0b 00 	lui $11,4144
  400b08:	43 00 00 00 d8 b9 0b 0b 	addiu $11,$11,-17960
  400b10:	a2 00 00 00 38 10 0a 00 	lui $10,4152
  400b18:	43 00 00 00 d8 93 0a 0a 	addiu $10,$10,-27688
  400b20:	43 00 00 00 92 01 0d 00 	addiu $13,$0,402
  400b28:	43 00 00 00 01 00 10 00 	addiu $16,$0,1
  400b30:	06 00 00 00 9a 00 00 0e 	bne $14,$0,400da0 <inimod_+0x558>
  400b38:	42 00 00 00 00 08 0d 00 	addu $8,$0,$13
  400b40:	43 00 00 00 01 00 02 07 	addiu $2,$7,1
  400b48:	4f 00 00 00 03 00 03 07 	andi $3,$7,3
  400b50:	5b 00 00 00 00 02 02 10 	slt $2,$16,$2
  400b58:	05 00 00 00 2e 00 00 02 	beq $2,$0,400c18 <inimod_+0x3d0>
  400b60:	05 00 00 00 42 00 00 03 	beq $3,$0,400c70 <inimod_+0x428>
  400b68:	5c 00 00 00 02 00 02 03 	slti $2,$3,2
  400b70:	06 00 00 00 28 00 00 02 	bne $2,$0,400c18 <inimod_+0x3d0>
  400b78:	5c 00 00 00 03 00 02 03 	slti $2,$3,3
  400b80:	06 00 00 00 12 00 00 02 	bne $2,$0,400bd0 <inimod_+0x388>
  400b88:	43 00 00 00 02 00 10 00 	addiu $16,$0,2
  400b90:	43 00 00 00 01 00 02 0d 	addiu $2,$13,1
  400b98:	55 00 00 00 03 02 02 00 	sll $2,$2,0x3
  400ba0:	42 00 00 00 00 03 0c 02 	addu $3,$2,$12
  400ba8:	37 00 00 00 00 00 14 03 	s.d $f20,0($3)
  400bb0:	42 00 00 00 00 03 0b 02 	addu $3,$2,$11
  400bb8:	42 00 00 00 00 02 0a 02 	addu $2,$2,$10
  400bc0:	38 00 00 00 00 00 00 03 	dsz 0($3)
  400bc8:	38 00 00 00 00 00 00 02 	dsz 0($2)
  400bd0:	42 00 00 00 00 02 10 0d 	addu $2,$13,$16
  400bd8:	43 00 00 00 01 00 10 10 	addiu $16,$16,1
  400be0:	55 00 00 00 03 02 02 00 	sll $2,$2,0x3
  400be8:	42 00 00 00 00 03 0c 02 	addu $3,$2,$12
  400bf0:	37 00 00 00 00 00 14 03 	s.d $f20,0($3)
  400bf8:	42 00 00 00 00 03 0b 02 	addu $3,$2,$11
  400c00:	42 00 00 00 00 02 0a 02 	addu $2,$2,$10
  400c08:	38 00 00 00 00 00 00 03 	dsz 0($3)
  400c10:	38 00 00 00 00 00 00 02 	dsz 0($2)
  400c18:	42 00 00 00 00 02 10 08 	addu $2,$8,$16
  400c20:	43 00 00 00 01 00 10 10 	addiu $16,$16,1
  400c28:	5b 00 00 00 00 09 10 07 	slt $9,$7,$16
  400c30:	55 00 00 00 03 02 02 00 	sll $2,$2,0x3
  400c38:	42 00 00 00 00 03 0c 02 	addu $3,$2,$12
  400c40:	37 00 00 00 00 00 14 03 	s.d $f20,0($3)
  400c48:	42 00 00 00 00 03 0b 02 	addu $3,$2,$11
  400c50:	42 00 00 00 00 02 0a 02 	addu $2,$2,$10
  400c58:	38 00 00 00 00 00 00 03 	dsz 0($3)
  400c60:	38 00 00 00 00 00 00 02 	dsz 0($2)
  400c68:	06 00 00 00 4c 00 00 09 	bne $9,$0,400da0 <inimod_+0x558>
  400c70:	42 00 00 00 00 03 10 08 	addu $3,$8,$16
  400c78:	43 00 00 00 01 00 04 10 	addiu $4,$16,1
  400c80:	43 00 00 00 02 00 05 10 	addiu $5,$16,2
  400c88:	43 00 00 00 03 00 06 10 	addiu $6,$16,3
  400c90:	43 00 00 00 04 00 10 10 	addiu $16,$16,4
  400c98:	5b 00 00 00 00 09 10 07 	slt $9,$7,$16
  400ca0:	55 00 00 00 03 03 03 00 	sll $3,$3,0x3
  400ca8:	42 00 00 00 00 02 0c 03 	addu $2,$3,$12
  400cb0:	37 00 00 00 00 00 14 02 	s.d $f20,0($2)
  400cb8:	42 00 00 00 00 02 0b 03 	addu $2,$3,$11
  400cc0:	42 00 00 00 00 03 0a 03 	addu $3,$3,$10
  400cc8:	42 00 00 00 00 04 04 08 	addu $4,$8,$4
  400cd0:	55 00 00 00 03 04 04 00 	sll $4,$4,0x3
  400cd8:	38 00 00 00 00 00 00 02 	dsz 0($2)
  400ce0:	42 00 00 00 00 02 0c 04 	addu $2,$4,$12
  400ce8:	38 00 00 00 00 00 00 03 	dsz 0($3)
  400cf0:	37 00 00 00 00 00 14 02 	s.d $f20,0($2)
  400cf8:	42 00 00 00 00 02 0b 04 	addu $2,$4,$11
  400d00:	42 00 00 00 00 04 0a 04 	addu $4,$4,$10
  400d08:	42 00 00 00 00 05 05 08 	addu $5,$8,$5
  400d10:	55 00 00 00 03 05 05 00 	sll $5,$5,0x3
  400d18:	38 00 00 00 00 00 00 02 	dsz 0($2)
  400d20:	42 00 00 00 00 02 0c 05 	addu $2,$5,$12
  400d28:	38 00 00 00 00 00 00 04 	dsz 0($4)
  400d30:	37 00 00 00 00 00 14 02 	s.d $f20,0($2)
  400d38:	42 00 00 00 00 02 0b 05 	addu $2,$5,$11
  400d40:	42 00 00 00 00 05 0a 05 	addu $5,$5,$10
  400d48:	42 00 00 00 00 06 06 08 	addu $6,$8,$6
  400d50:	55 00 00 00 03 06 06 00 	sll $6,$6,0x3
  400d58:	38 00 00 00 00 00 00 02 	dsz 0($2)
  400d60:	42 00 00 00 00 02 0c 06 	addu $2,$6,$12
  400d68:	38 00 00 00 00 00 00 05 	dsz 0($5)
  400d70:	37 00 00 00 00 00 14 02 	s.d $f20,0($2)
  400d78:	42 00 00 00 00 02 0b 06 	addu $2,$6,$11
  400d80:	42 00 00 00 00 06 0a 06 	addu $6,$6,$10
  400d88:	38 00 00 00 00 00 00 02 	dsz 0($2)
  400d90:	38 00 00 00 00 00 00 06 	dsz 0($6)
  400d98:	05 00 00 00 b4 ff 00 09 	beq $9,$0,400c70 <inimod_+0x428>
  400da0:	43 00 00 00 92 01 0d 0d 	addiu $13,$13,402
  400da8:	43 00 00 00 01 00 12 12 	addiu $18,$18,1
  400db0:	5c 00 00 00 a1 00 02 12 	slti $2,$18,161
  400db8:	06 00 00 00 5a ff 00 02 	bne $2,$0,400b28 <inimod_+0x2e0>
  400dc0:	43 00 00 00 01 00 12 00 	addiu $18,$0,1
  400dc8:	a2 00 00 00 28 10 0b 00 	lui $11,4136
  400dd0:	43 00 00 00 d8 df 0b 0b 	addiu $11,$11,-8232
  400dd8:	a2 00 00 00 30 10 0a 00 	lui $10,4144
  400de0:	43 00 00 00 d8 b9 0a 0a 	addiu $10,$10,-17960
  400de8:	a2 00 00 00 38 10 09 00 	lui $9,4152
  400df0:	43 00 00 00 d8 93 09 09 	addiu $9,$9,-27688
  400df8:	43 00 00 00 92 01 0c 00 	addiu $12,$0,402
  400e00:	43 00 00 00 01 00 10 15 	addiu $16,$21,1
  400e08:	5c 00 00 00 93 01 02 10 	slti $2,$16,403
  400e10:	05 00 00 00 98 00 00 02 	beq $2,$0,401078 <inimod_+0x830>
  400e18:	42 00 00 00 00 07 0c 00 	addu $7,$0,$12
  400e20:	43 00 00 00 93 01 02 00 	addiu $2,$0,403
  400e28:	45 00 00 00 00 02 10 02 	subu $2,$2,$16
  400e30:	4f 00 00 00 03 00 03 02 	andi $3,$2,3
  400e38:	05 00 00 00 42 00 00 03 	beq $3,$0,400f48 <inimod_+0x700>
  400e40:	5c 00 00 00 02 00 02 03 	slti $2,$3,2
  400e48:	06 00 00 00 28 00 00 02 	bne $2,$0,400ef0 <inimod_+0x6a8>
  400e50:	5c 00 00 00 03 00 02 03 	slti $2,$3,3
  400e58:	06 00 00 00 12 00 00 02 	bne $2,$0,400ea8 <inimod_+0x660>
  400e60:	42 00 00 00 00 02 10 0c 	addu $2,$12,$16
  400e68:	43 00 00 00 01 00 10 10 	addiu $16,$16,1
  400e70:	55 00 00 00 03 02 02 00 	sll $2,$2,0x3
  400e78:	42 00 00 00 00 03 0b 02 	addu $3,$2,$11
  400e80:	37 00 00 00 00 00 14 03 	s.d $f20,0($3)
  400e88:	42 00 00 00 00 03 0a 02 	addu $3,$2,$10
  400e90:	42 00 00 00 00 02 09 02 	addu $2,$2,$9
  400e98:	38 00 00 00 00 00 00 03 	dsz 0($3)
  400ea0:	38 00 00 00 00 00 00 02 	dsz 0($2)
  400ea8:	42 00 00 00 00 02 10 0c 	addu $2,$12,$16
  400eb0:	43 00 00 00 01 00 10 10 	addiu $16,$16,1
  400eb8:	55 00 00 00 03 02 02 00 	sll $2,$2,0x3
  400ec0:	42 00 00 00 00 03 0b 02 	addu $3,$2,$11
  400ec8:	37 00 00 00 00 00 14 03 	s.d $f20,0($3)
  400ed0:	42 00 00 00 00 03 0a 02 	addu $3,$2,$10
  400ed8:	42 00 00 00 00 02 09 02 	addu $2,$2,$9
  400ee0:	38 00 00 00 00 00 00 03 	dsz 0($3)
  400ee8:	38 00 00 00 00 00 00 02 	dsz 0($2)
  400ef0:	42 00 00 00 00 02 10 07 	addu $2,$7,$16
  400ef8:	43 00 00 00 01 00 10 10 	addiu $16,$16,1
  400f00:	5c 00 00 00 93 01 08 10 	slti $8,$16,403
  400f08:	55 00 00 00 03 02 02 00 	sll $2,$2,0x3
  400f10:	42 00 00 00 00 03 0b 02 	addu $3,$2,$11
  400f18:	37 00 00 00 00 00 14 03 	s.d $f20,0($3)
  400f20:	42 00 00 00 00 03 0a 02 	addu $3,$2,$10
  400f28:	42 00 00 00 00 02 09 02 	addu $2,$2,$9
  400f30:	38 00 00 00 00 00 00 03 	dsz 0($3)
  400f38:	38 00 00 00 00 00 00 02 	dsz 0($2)
  400f40:	05 00 00 00 4c 00 00 08 	beq $8,$0,401078 <inimod_+0x830>
  400f48:	42 00 00 00 00 03 10 07 	addu $3,$7,$16
  400f50:	43 00 00 00 01 00 04 10 	addiu $4,$16,1
  400f58:	43 00 00 00 02 00 05 10 	addiu $5,$16,2
  400f60:	43 00 00 00 03 00 06 10 	addiu $6,$16,3
  400f68:	43 00 00 00 04 00 10 10 	addiu $16,$16,4
  400f70:	5c 00 00 00 93 01 08 10 	slti $8,$16,403
  400f78:	55 00 00 00 03 03 03 00 	sll $3,$3,0x3
  400f80:	42 00 00 00 00 02 0b 03 	addu $2,$3,$11
  400f88:	37 00 00 00 00 00 14 02 	s.d $f20,0($2)
  400f90:	42 00 00 00 00 02 0a 03 	addu $2,$3,$10
  400f98:	42 00 00 00 00 03 09 03 	addu $3,$3,$9
  400fa0:	42 00 00 00 00 04 04 07 	addu $4,$7,$4
  400fa8:	55 00 00 00 03 04 04 00 	sll $4,$4,0x3
  400fb0:	38 00 00 00 00 00 00 02 	dsz 0($2)
  400fb8:	42 00 00 00 00 02 0b 04 	addu $2,$4,$11
  400fc0:	38 00 00 00 00 00 00 03 	dsz 0($3)
  400fc8:	37 00 00 00 00 00 14 02 	s.d $f20,0($2)
  400fd0:	42 00 00 00 00 02 0a 04 	addu $2,$4,$10
  400fd8:	42 00 00 00 00 04 09 04 	addu $4,$4,$9
  400fe0:	42 00 00 00 00 05 05 07 	addu $5,$7,$5
  400fe8:	55 00 00 00 03 05 05 00 	sll $5,$5,0x3
  400ff0:	38 00 00 00 00 00 00 02 	dsz 0($2)
  400ff8:	42 00 00 00 00 02 0b 05 	addu $2,$5,$11
  401000:	38 00 00 00 00 00 00 04 	dsz 0($4)
  401008:	37 00 00 00 00 00 14 02 	s.d $f20,0($2)
  401010:	42 00 00 00 00 02 0a 05 	addu $2,$5,$10
  401018:	42 00 00 00 00 05 09 05 	addu $5,$5,$9
  401020:	42 00 00 00 00 06 06 07 	addu $6,$7,$6
  401028:	55 00 00 00 03 06 06 00 	sll $6,$6,0x3
  401030:	38 00 00 00 00 00 00 02 	dsz 0($2)
  401038:	42 00 00 00 00 02 0b 06 	addu $2,$6,$11
  401040:	38 00 00 00 00 00 00 05 	dsz 0($5)
  401048:	37 00 00 00 00 00 14 02 	s.d $f20,0($2)
  401050:	42 00 00 00 00 02 0a 06 	addu $2,$6,$10
  401058:	42 00 00 00 00 06 09 06 	addu $6,$6,$9
  401060:	38 00 00 00 00 00 00 02 	dsz 0($2)
  401068:	38 00 00 00 00 00 00 06 	dsz 0($6)
  401070:	06 00 00 00 b4 ff 00 08 	bne $8,$0,400f48 <inimod_+0x700>
  401078:	43 00 00 00 92 01 0c 0c 	addiu $12,$12,402
  401080:	43 00 00 00 01 00 12 12 	addiu $18,$18,1
  401088:	5c 00 00 00 a1 00 02 12 	slti $2,$18,161
  401090:	06 00 00 00 5a ff 00 02 	bne $2,$0,400e00 <inimod_+0x5b8>
  401098:	2b 00 00 00 68 80 00 1c 	l.d $f0,-32664($28)
  4010a0:	77 00 00 00 00 00 16 00 	div.d $f0,$f0,$f22
  4010a8:	2b 00 00 00 70 80 02 1c 	l.d $f2,-32656($28)
  4010b0:	71 00 00 00 00 14 02 00 	add.d $f20,$f0,$f2
  4010b8:	2b 00 00 00 78 80 16 1c 	l.d $f22,-32648($28)
  4010c0:	43 00 00 00 20 80 04 1c 	addiu $4,$28,-32736
  4010c8:	43 00 00 00 01 00 12 00 	addiu $18,$0,1
  4010d0:	02 00 00 00 bc 68 10 00 	jal 41a2f0 <i_dnnt>
  4010d8:	42 00 00 00 00 07 02 00 	addu $7,$0,$2
  4010e0:	07 00 00 00 6c 00 00 07 	blez $7,401298 <inimod_+0xa50>
  4010e8:	43 00 00 00 92 01 06 00 	addiu $6,$0,402
  4010f0:	a2 00 00 00 28 10 09 00 	lui $9,4136
  4010f8:	43 00 00 00 d8 df 09 09 	addiu $9,$9,-8232
  401100:	a2 00 00 00 30 10 08 00 	lui $8,4144
  401108:	43 00 00 00 d8 b9 08 08 	addiu $8,$8,-17960
  401110:	43 00 00 00 01 00 02 07 	addiu $2,$7,1
  401118:	4f 00 00 00 01 00 03 07 	andi $3,$7,1
  401120:	5b 00 00 00 00 02 02 12 	slt $2,$18,$2
  401128:	05 00 00 00 02 00 00 02 	beq $2,$0,401138 <inimod_+0x8f0>
  401130:	05 00 00 00 10 00 00 03 	beq $3,$0,401178 <inimod_+0x930>
  401138:	37 00 00 00 98 0c 14 09 	s.d $f20,3224($9)
  401140:	37 00 00 00 98 0c 16 08 	s.d $f22,3224($8)
  401148:	37 00 00 00 a0 0c 14 09 	s.d $f20,3232($9)
  401150:	37 00 00 00 a0 0c 16 08 	s.d $f22,3232($8)
  401158:	43 00 00 00 24 03 06 00 	addiu $6,$0,804
  401160:	43 00 00 00 02 00 12 00 	addiu $18,$0,2
  401168:	5c 00 00 00 02 00 02 07 	slti $2,$7,2
  401170:	06 00 00 00 48 00 00 02 	bne $2,$0,401298 <inimod_+0xa50>
  401178:	43 00 00 00 01 00 02 06 	addiu $2,$6,1
  401180:	55 00 00 00 03 02 02 00 	sll $2,$2,0x3
  401188:	42 00 00 00 00 04 09 02 	addu $4,$2,$9
  401190:	42 00 00 00 00 05 08 02 	addu $5,$2,$8
  401198:	43 00 00 00 02 00 02 06 	addiu $2,$6,2
  4011a0:	55 00 00 00 03 02 02 00 	sll $2,$2,0x3
  4011a8:	42 00 00 00 00 03 09 02 	addu $3,$2,$9
  4011b0:	42 00 00 00 00 02 08 02 	addu $2,$2,$8
  4011b8:	37 00 00 00 00 00 14 04 	s.d $f20,0($4)
  4011c0:	37 00 00 00 00 00 16 05 	s.d $f22,0($5)
  4011c8:	37 00 00 00 00 00 14 03 	s.d $f20,0($3)
  4011d0:	37 00 00 00 00 00 16 02 	s.d $f22,0($2)
  4011d8:	43 00 00 00 93 01 02 06 	addiu $2,$6,403
  4011e0:	55 00 00 00 03 02 02 00 	sll $2,$2,0x3
  4011e8:	42 00 00 00 00 04 09 02 	addu $4,$2,$9
  4011f0:	42 00 00 00 00 05 08 02 	addu $5,$2,$8
  4011f8:	43 00 00 00 94 01 02 06 	addiu $2,$6,404
  401200:	55 00 00 00 03 02 02 00 	sll $2,$2,0x3
  401208:	42 00 00 00 00 03 09 02 	addu $3,$2,$9
  401210:	42 00 00 00 00 02 08 02 	addu $2,$2,$8
  401218:	37 00 00 00 00 00 14 04 	s.d $f20,0($4)
  401220:	37 00 00 00 00 00 16 05 	s.d $f22,0($5)
  401228:	37 00 00 00 00 00 14 03 	s.d $f20,0($3)
  401230:	37 00 00 00 00 00 16 02 	s.d $f22,0($2)
  401238:	43 00 00 00 24 03 06 06 	addiu $6,$6,804
  401240:	43 00 00 00 02 00 12 12 	addiu $18,$18,2
  401248:	5b 00 00 00 00 02 12 07 	slt $2,$7,$18
  401250:	05 00 00 00 c8 ff 00 02 	beq $2,$0,401178 <inimod_+0x930>
  401258:	01 00 00 00 a6 04 10 00 	j 401298 <inimod_+0xa50>
  401260:	a2 00 00 00 00 10 04 00 	lui $4,4096
  401268:	43 00 00 00 30 28 04 04 	addiu $4,$4,10288
  401270:	02 00 00 00 34 59 10 00 	jal 4164d0 <s_wsfe>
  401278:	02 00 00 00 46 68 10 00 	jal 41a118 <e_wsfe>
  401280:	43 00 00 00 34 80 04 1c 	addiu $4,$28,-32716
  401288:	42 00 00 00 00 05 00 00 	addu $5,$0,$0
  401290:	02 00 00 00 68 68 10 00 	jal 41a1a0 <s_stop>
  401298:	42 00 00 00 00 02 00 00 	addu $2,$0,$0
  4012a0:	28 00 00 00 50 00 1f 1d 	lw $31,80($29)
  4012a8:	28 00 00 00 4c 00 15 1d 	lw $21,76($29)
  4012b0:	28 00 00 00 48 00 14 1d 	lw $20,72($29)
  4012b8:	28 00 00 00 44 00 13 1d 	lw $19,68($29)
  4012c0:	28 00 00 00 40 00 12 1d 	lw $18,64($29)
  4012c8:	28 00 00 00 3c 00 11 1d 	lw $17,60($29)
  4012d0:	28 00 00 00 38 00 10 1d 	lw $16,56($29)
  4012d8:	2b 00 00 00 60 00 16 1d 	l.d $f22,96($29)
  4012e0:	2b 00 00 00 58 00 14 1d 	l.d $f20,88($29)
  4012e8:	43 00 00 00 68 00 1d 1d 	addiu $29,$29,104
  4012f0:	03 00 00 00 00 00 00 1f 	jr $31

004012f8 <bbh_>:
  4012f8:	a2 00 00 00 5f 10 01 00 	lui $1,4191
  401300:	2b 00 00 00 b0 29 02 01 	l.d $f2,10672($1)
  401308:	2b 00 00 00 98 80 00 1c 	l.d $f0,-32616($28)
  401310:	73 00 00 00 00 02 00 02 	sub.d $f2,$f2,$f0
  401318:	2b 00 00 00 a0 80 00 1c 	l.d $f0,-32608($28)
  401320:	77 00 00 00 00 00 02 00 	div.d $f0,$f0,$f2
  401328:	43 00 00 00 d0 ff 1d 1d 	addiu $29,$29,-48
  401330:	37 00 00 00 28 00 16 1d 	s.d $f22,40($29)
  401338:	2b 00 00 00 b0 80 16 1c 	l.d $f22,-32592($28)
  401340:	2b 00 00 00 a8 80 02 1c 	l.d $f2,-32600($28)
  401348:	43 00 00 00 20 80 04 1c 	addiu $4,$28,-32736
  401350:	34 00 00 00 1c 00 1f 1d 	sw $31,28($29)
  401358:	37 00 00 00 20 00 14 1d 	s.d $f20,32($29)
  401360:	71 00 00 00 00 14 02 00 	add.d $f20,$f0,$f2
  401368:	34 00 00 00 18 00 12 1d 	sw $18,24($29)
  401370:	34 00 00 00 14 00 11 1d 	sw $17,20($29)
  401378:	34 00 00 00 10 00 10 1d 	sw $16,16($29)
  401380:	02 00 00 00 bc 68 10 00 	jal 41a2f0 <i_dnnt>
  401388:	42 00 00 00 00 18 02 00 	addu $24,$0,$2
  401390:	43 00 00 00 01 00 0b 00 	addiu $11,$0,1
  401398:	42 00 00 00 00 10 18 00 	addu $16,$0,$24
  4013a0:	07 00 00 00 8e 00 00 18 	blez $24,4015e0 <bbh_+0x2e8>
  4013a8:	43 00 00 00 92 01 0a 00 	addiu $10,$0,402
  4013b0:	a2 00 00 00 20 10 0f 00 	lui $15,4128
  4013b8:	43 00 00 00 d8 05 0f 0f 	addiu $15,$15,1496
  4013c0:	2b 00 00 00 b8 80 00 1c 	l.d $f0,-32584($28)
  4013c8:	a2 00 00 00 28 10 0e 00 	lui $14,4136
  4013d0:	43 00 00 00 d8 df 0e 0e 	addiu $14,$14,-8232
  4013d8:	a2 00 00 00 30 10 0d 00 	lui $13,4144
  4013e0:	43 00 00 00 d8 b9 0d 0d 	addiu $13,$13,-17960
  4013e8:	a2 00 00 00 38 10 0c 00 	lui $12,4152
  4013f0:	43 00 00 00 d8 93 0c 0c 	addiu $12,$12,-27688
  4013f8:	43 00 00 00 01 00 02 18 	addiu $2,$24,1
  401400:	4f 00 00 00 01 00 03 18 	andi $3,$24,1
  401408:	5b 00 00 00 00 02 02 0b 	slt $2,$11,$2
  401410:	05 00 00 00 02 00 00 02 	beq $2,$0,401420 <bbh_+0x128>
  401418:	05 00 00 00 18 00 00 03 	beq $3,$0,401480 <bbh_+0x188>
  401420:	37 00 00 00 98 0c 00 0f 	s.d $f0,3224($15)
  401428:	37 00 00 00 98 0c 14 0e 	s.d $f20,3224($14)
  401430:	37 00 00 00 98 0c 16 0d 	s.d $f22,3224($13)
  401438:	38 00 00 00 98 0c 00 0c 	dsz 3224($12)
  401440:	37 00 00 00 a0 0c 00 0f 	s.d $f0,3232($15)
  401448:	37 00 00 00 a0 0c 14 0e 	s.d $f20,3232($14)
  401450:	37 00 00 00 a0 0c 16 0d 	s.d $f22,3232($13)
  401458:	38 00 00 00 a0 0c 00 0c 	dsz 3232($12)
  401460:	43 00 00 00 24 03 0a 00 	addiu $10,$0,804
  401468:	43 00 00 00 02 00 0b 00 	addiu $11,$0,2
  401470:	5c 00 00 00 02 00 02 18 	slti $2,$24,2
  401478:	06 00 00 00 58 00 00 02 	bne $2,$0,4015e0 <bbh_+0x2e8>
  401480:	43 00 00 00 01 00 02 0a 	addiu $2,$10,1
  401488:	55 00 00 00 03 02 02 00 	sll $2,$2,0x3
  401490:	42 00 00 00 00 06 0f 02 	addu $6,$2,$15
  401498:	42 00 00 00 00 07 0e 02 	addu $7,$2,$14
  4014a0:	42 00 00 00 00 08 0d 02 	addu $8,$2,$13
  4014a8:	42 00 00 00 00 09 0c 02 	addu $9,$2,$12
  4014b0:	43 00 00 00 02 00 02 0a 	addiu $2,$10,2
  4014b8:	55 00 00 00 03 02 02 00 	sll $2,$2,0x3
  4014c0:	42 00 00 00 00 03 0f 02 	addu $3,$2,$15
  4014c8:	42 00 00 00 00 04 0e 02 	addu $4,$2,$14
  4014d0:	42 00 00 00 00 05 0d 02 	addu $5,$2,$13
  4014d8:	42 00 00 00 00 02 0c 02 	addu $2,$2,$12
  4014e0:	37 00 00 00 00 00 00 06 	s.d $f0,0($6)
  4014e8:	37 00 00 00 00 00 14 07 	s.d $f20,0($7)
  4014f0:	37 00 00 00 00 00 16 08 	s.d $f22,0($8)
  4014f8:	38 00 00 00 00 00 00 09 	dsz 0($9)
  401500:	37 00 00 00 00 00 00 03 	s.d $f0,0($3)
  401508:	37 00 00 00 00 00 14 04 	s.d $f20,0($4)
  401510:	37 00 00 00 00 00 16 05 	s.d $f22,0($5)
  401518:	38 00 00 00 00 00 00 02 	dsz 0($2)
  401520:	43 00 00 00 93 01 02 0a 	addiu $2,$10,403
  401528:	55 00 00 00 03 02 02 00 	sll $2,$2,0x3
  401530:	42 00 00 00 00 06 0f 02 	addu $6,$2,$15
  401538:	42 00 00 00 00 07 0e 02 	addu $7,$2,$14
  401540:	42 00 00 00 00 08 0d 02 	addu $8,$2,$13
  401548:	42 00 00 00 00 09 0c 02 	addu $9,$2,$12
  401550:	43 00 00 00 94 01 02 0a 	addiu $2,$10,404
  401558:	55 00 00 00 03 02 02 00 	sll $2,$2,0x3
  401560:	42 00 00 00 00 03 0f 02 	addu $3,$2,$15
  401568:	42 00 00 00 00 04 0e 02 	addu $4,$2,$14
  401570:	42 00 00 00 00 05 0d 02 	addu $5,$2,$13
  401578:	42 00 00 00 00 02 0c 02 	addu $2,$2,$12
  401580:	37 00 00 00 00 00 00 06 	s.d $f0,0($6)
  401588:	37 00 00 00 00 00 14 07 	s.d $f20,0($7)
  401590:	37 00 00 00 00 00 16 08 	s.d $f22,0($8)
  401598:	38 00 00 00 00 00 00 09 	dsz 0($9)
  4015a0:	37 00 00 00 00 00 00 03 	s.d $f0,0($3)
  4015a8:	37 00 00 00 00 00 14 04 	s.d $f20,0($4)
  4015b0:	37 00 00 00 00 00 16 05 	s.d $f22,0($5)
  4015b8:	38 00 00 00 00 00 00 02 	dsz 0($2)
  4015c0:	43 00 00 00 24 03 0a 0a 	addiu $10,$10,804
  4015c8:	43 00 00 00 02 00 0b 0b 	addiu $11,$11,2
  4015d0:	5b 00 00 00 00 02 0b 18 	slt $2,$24,$11
  4015d8:	05 00 00 00 a8 ff 00 02 	beq $2,$0,401480 <bbh_+0x188>
  4015e0:	a2 00 00 00 5f 10 18 00 	lui $24,4191
  4015e8:	28 00 00 00 8c 29 18 18 	lw $24,10636($24)
  4015f0:	43 00 00 00 01 00 0b 10 	addiu $11,$16,1
  4015f8:	5b 00 00 00 00 02 0b 18 	slt $2,$24,$11
  401600:	06 00 00 00 94 00 00 02 	bne $2,$0,401858 <bbh_+0x560>
  401608:	a2 00 00 00 38 10 03 00 	lui $3,4152
  401610:	43 00 00 00 e8 93 03 03 	addiu $3,$3,-27672
  401618:	55 00 00 00 01 02 0b 00 	sll $2,$11,0x1
  401620:	42 00 00 00 00 02 0b 02 	addu $2,$2,$11
  401628:	55 00 00 00 03 02 02 00 	sll $2,$2,0x3
  401630:	42 00 00 00 00 02 0b 02 	addu $2,$2,$11
  401638:	55 00 00 00 03 02 02 00 	sll $2,$2,0x3
  401640:	42 00 00 00 00 02 0b 02 	addu $2,$2,$11
  401648:	55 00 00 00 04 02 02 00 	sll $2,$2,0x4
  401650:	42 00 00 00 00 19 03 02 	addu $25,$2,$3
  401658:	a2 00 00 00 38 10 03 00 	lui $3,4152
  401660:	43 00 00 00 f0 93 03 03 	addiu $3,$3,-27664
  401668:	42 00 00 00 00 08 03 02 	addu $8,$2,$3
  401670:	a2 00 00 00 30 10 03 00 	lui $3,4144
  401678:	43 00 00 00 e8 b9 03 03 	addiu $3,$3,-17944
  401680:	42 00 00 00 00 0f 03 02 	addu $15,$2,$3
  401688:	a2 00 00 00 30 10 03 00 	lui $3,4144
  401690:	43 00 00 00 f0 b9 03 03 	addiu $3,$3,-17936
  401698:	42 00 00 00 00 07 03 02 	addu $7,$2,$3
  4016a0:	a2 00 00 00 28 10 03 00 	lui $3,4136
  4016a8:	43 00 00 00 e8 df 03 03 	addiu $3,$3,-8216
  4016b0:	42 00 00 00 00 0e 03 02 	addu $14,$2,$3
  4016b8:	a2 00 00 00 28 10 03 00 	lui $3,4136
  4016c0:	43 00 00 00 f0 df 03 03 	addiu $3,$3,-8208
  4016c8:	42 00 00 00 00 06 03 02 	addu $6,$2,$3
  4016d0:	a2 00 00 00 20 10 04 00 	lui $4,4128
  4016d8:	43 00 00 00 e0 05 04 04 	addiu $4,$4,1504
  4016e0:	43 00 00 00 08 00 03 04 	addiu $3,$4,8
  4016e8:	42 00 00 00 00 0d 03 02 	addu $13,$2,$3
  4016f0:	43 00 00 00 10 00 03 04 	addiu $3,$4,16
  4016f8:	42 00 00 00 00 05 03 02 	addu $5,$2,$3
  401700:	a2 00 00 00 38 10 03 00 	lui $3,4152
  401708:	43 00 00 00 e0 93 03 03 	addiu $3,$3,-27680
  401710:	42 00 00 00 00 0c 03 02 	addu $12,$2,$3
  401718:	a2 00 00 00 30 10 03 00 	lui $3,4144
  401720:	43 00 00 00 e0 b9 03 03 	addiu $3,$3,-17952
  401728:	42 00 00 00 00 0a 03 02 	addu $10,$2,$3
  401730:	a2 00 00 00 28 10 03 00 	lui $3,4136
  401738:	43 00 00 00 e0 df 03 03 	addiu $3,$3,-8224
  401740:	42 00 00 00 00 09 03 02 	addu $9,$2,$3
  401748:	42 00 00 00 00 03 04 02 	addu $3,$2,$4
  401750:	2b 00 00 00 00 00 00 05 	l.d $f0,0($5)
  401758:	37 00 00 00 00 00 00 03 	s.d $f0,0($3)
  401760:	2b 00 00 00 00 00 00 06 	l.d $f0,0($6)
  401768:	37 00 00 00 00 00 00 09 	s.d $f0,0($9)
  401770:	2b 00 00 00 00 00 00 07 	l.d $f0,0($7)
  401778:	7d 00 00 00 00 00 00 00 	neg.d $f0,$f0
  401780:	43 00 00 00 01 00 0b 0b 	addiu $11,$11,1
  401788:	37 00 00 00 00 00 00 0a 	s.d $f0,0($10)
  401790:	2b 00 00 00 00 00 00 08 	l.d $f0,0($8)
  401798:	5b 00 00 00 00 02 0b 18 	slt $2,$24,$11
  4017a0:	43 00 00 00 90 0c 03 03 	addiu $3,$3,3216
  4017a8:	37 00 00 00 00 00 00 0c 	s.d $f0,0($12)
  4017b0:	2b 00 00 00 00 00 00 05 	l.d $f0,0($5)
  4017b8:	43 00 00 00 90 0c 09 09 	addiu $9,$9,3216
  4017c0:	43 00 00 00 90 0c 0a 0a 	addiu $10,$10,3216
  4017c8:	37 00 00 00 00 00 00 0d 	s.d $f0,0($13)
  4017d0:	2b 00 00 00 00 00 00 06 	l.d $f0,0($6)
  4017d8:	43 00 00 00 90 0c 0c 0c 	addiu $12,$12,3216
  4017e0:	43 00 00 00 90 0c 0d 0d 	addiu $13,$13,3216
  4017e8:	37 00 00 00 00 00 00 0e 	s.d $f0,0($14)
  4017f0:	2b 00 00 00 00 00 00 07 	l.d $f0,0($7)
  4017f8:	43 00 00 00 90 0c 05 05 	addiu $5,$5,3216
  401800:	43 00 00 00 90 0c 0e 0e 	addiu $14,$14,3216
  401808:	7d 00 00 00 00 00 00 00 	neg.d $f0,$f0
  401810:	43 00 00 00 90 0c 06 06 	addiu $6,$6,3216
  401818:	37 00 00 00 00 00 00 0f 	s.d $f0,0($15)
  401820:	2b 00 00 00 00 00 00 08 	l.d $f0,0($8)
  401828:	43 00 00 00 90 0c 07 07 	addiu $7,$7,3216
  401830:	43 00 00 00 90 0c 0f 0f 	addiu $15,$15,3216
  401838:	37 00 00 00 00 00 00 19 	s.d $f0,0($25)
  401840:	43 00 00 00 90 0c 19 19 	addiu $25,$25,3216
  401848:	43 00 00 00 90 0c 08 08 	addiu $8,$8,3216
  401850:	05 00 00 00 be ff 00 02 	beq $2,$0,401750 <bbh_+0x458>
  401858:	a2 00 00 00 5f 10 18 00 	lui $24,4191
  401860:	28 00 00 00 80 29 18 18 	lw $24,10624($24)
  401868:	43 00 00 00 01 00 0b 00 	addiu $11,$0,1
  401870:	07 00 00 00 a0 00 00 18 	blez $24,401af8 <bbh_+0x800>
  401878:	a2 00 00 00 38 10 12 00 	lui $18,4152
  401880:	43 00 00 00 68 a0 12 12 	addiu $18,$18,-24472
  401888:	43 00 00 00 08 00 09 12 	addiu $9,$18,8
  401890:	a2 00 00 00 38 10 0a 00 	lui $10,4152
  401898:	43 00 00 00 f8 ac 0a 0a 	addiu $10,$10,-21256
  4018a0:	43 00 00 00 08 00 08 0a 	addiu $8,$10,8
  4018a8:	a2 00 00 00 30 10 11 00 	lui $17,4144
  4018b0:	43 00 00 00 68 c6 11 11 	addiu $17,$17,-14744
  4018b8:	43 00 00 00 08 00 07 11 	addiu $7,$17,8
  4018c0:	a2 00 00 00 30 10 19 00 	lui $25,4144
  4018c8:	43 00 00 00 f8 d2 19 19 	addiu $25,$25,-11528
  4018d0:	43 00 00 00 08 00 06 19 	addiu $6,$25,8
  4018d8:	a2 00 00 00 28 10 10 00 	lui $16,4136
  4018e0:	43 00 00 00 68 ec 10 10 	addiu $16,$16,-5016
  4018e8:	43 00 00 00 08 00 05 10 	addiu $5,$16,8
  4018f0:	a2 00 00 00 28 10 0f 00 	lui $15,4136
  4018f8:	43 00 00 00 f8 f8 0f 0f 	addiu $15,$15,-1800
  401900:	43 00 00 00 08 00 0d 0f 	addiu $13,$15,8
  401908:	a2 00 00 00 20 10 04 00 	lui $4,4128
  401910:	43 00 00 00 68 12 04 04 	addiu $4,$4,4712
  401918:	43 00 00 00 08 00 0c 04 	addiu $12,$4,8
  401920:	43 00 00 00 98 0c 0e 04 	addiu $14,$4,3224
  401928:	2b 00 00 00 c0 80 08 1c 	l.d $f8,-32576($28)
  401930:	43 00 00 00 01 00 02 18 	addiu $2,$24,1
  401938:	4f 00 00 00 01 00 03 18 	andi $3,$24,1
  401940:	5b 00 00 00 00 02 02 0b 	slt $2,$11,$2
  401948:	05 00 00 00 02 00 00 02 	beq $2,$0,401958 <bbh_+0x660>
  401950:	05 00 00 00 28 00 00 03 	beq $3,$0,4019f8 <bbh_+0x700>
  401958:	2b 00 00 00 08 00 00 0a 	l.d $f0,8($10)
  401960:	77 00 00 00 00 00 08 00 	div.d $f0,$f0,$f8
  401968:	43 00 00 00 08 00 09 09 	addiu $9,$9,8
  401970:	43 00 00 00 08 00 08 08 	addiu $8,$8,8
  401978:	43 00 00 00 08 00 07 07 	addiu $7,$7,8
  401980:	43 00 00 00 08 00 06 06 	addiu $6,$6,8
  401988:	43 00 00 00 08 00 05 05 	addiu $5,$5,8
  401990:	43 00 00 00 08 00 0d 0d 	addiu $13,$13,8
  401998:	43 00 00 00 08 00 0c 0c 	addiu $12,$12,8
  4019a0:	43 00 00 00 a0 0c 0e 04 	addiu $14,$4,3232
  4019a8:	2b 00 00 00 98 0c 02 04 	l.d $f2,3224($4)
  4019b0:	2b 00 00 00 08 00 04 0f 	l.d $f4,8($15)
  4019b8:	2b 00 00 00 08 00 06 19 	l.d $f6,8($25)
  4019c0:	43 00 00 00 02 00 0b 00 	addiu $11,$0,2
  4019c8:	5c 00 00 00 02 00 0a 18 	slti $10,$24,2
  4019d0:	37 00 00 00 08 00 02 04 	s.d $f2,8($4)
  4019d8:	37 00 00 00 08 00 04 10 	s.d $f4,8($16)
  4019e0:	37 00 00 00 08 00 06 11 	s.d $f6,8($17)
  4019e8:	37 00 00 00 08 00 00 12 	s.d $f0,8($18)
  4019f0:	06 00 00 00 40 00 00 0a 	bne $10,$0,401af8 <bbh_+0x800>
  4019f8:	42 00 00 00 00 04 0d 00 	addu $4,$0,$13
  401a00:	42 00 00 00 00 03 0c 00 	addu $3,$0,$12
  401a08:	42 00 00 00 00 02 0e 00 	addu $2,$0,$14
  401a10:	2b 00 00 00 00 00 00 02 	l.d $f0,0($2)
  401a18:	37 00 00 00 00 00 00 03 	s.d $f0,0($3)
  401a20:	2b 00 00 00 00 00 00 04 	l.d $f0,0($4)
  401a28:	37 00 00 00 00 00 00 05 	s.d $f0,0($5)
  401a30:	2b 00 00 00 00 00 00 06 	l.d $f0,0($6)
  401a38:	37 00 00 00 00 00 00 07 	s.d $f0,0($7)
  401a40:	2b 00 00 00 00 00 00 08 	l.d $f0,0($8)
  401a48:	77 00 00 00 00 00 08 00 	div.d $f0,$f0,$f8
  401a50:	37 00 00 00 00 00 00 09 	s.d $f0,0($9)
  401a58:	2b 00 00 00 08 00 00 02 	l.d $f0,8($2)
  401a60:	37 00 00 00 08 00 00 03 	s.d $f0,8($3)
  401a68:	2b 00 00 00 08 00 00 04 	l.d $f0,8($4)
  401a70:	37 00 00 00 08 00 00 05 	s.d $f0,8($5)
  401a78:	2b 00 00 00 08 00 00 06 	l.d $f0,8($6)
  401a80:	37 00 00 00 08 00 00 07 	s.d $f0,8($7)
  401a88:	2b 00 00 00 08 00 00 08 	l.d $f0,8($8)
  401a90:	77 00 00 00 00 00 08 00 	div.d $f0,$f0,$f8
  401a98:	43 00 00 00 02 00 0b 0b 	addiu $11,$11,2
  401aa0:	5b 00 00 00 00 0a 0b 18 	slt $10,$24,$11
  401aa8:	43 00 00 00 10 00 03 03 	addiu $3,$3,16
  401ab0:	43 00 00 00 10 00 02 02 	addiu $2,$2,16
  401ab8:	43 00 00 00 10 00 05 05 	addiu $5,$5,16
  401ac0:	43 00 00 00 10 00 04 04 	addiu $4,$4,16
  401ac8:	43 00 00 00 10 00 07 07 	addiu $7,$7,16
  401ad0:	43 00 00 00 10 00 06 06 	addiu $6,$6,16
  401ad8:	43 00 00 00 10 00 08 08 	addiu $8,$8,16
  401ae0:	37 00 00 00 08 00 00 09 	s.d $f0,8($9)
  401ae8:	43 00 00 00 10 00 09 09 	addiu $9,$9,16
  401af0:	05 00 00 00 c6 ff 00 0a 	beq $10,$0,401a10 <bbh_+0x718>
  401af8:	42 00 00 00 00 02 00 00 	addu $2,$0,$0
  401b00:	28 00 00 00 1c 00 1f 1d 	lw $31,28($29)
  401b08:	28 00 00 00 18 00 12 1d 	lw $18,24($29)
  401b10:	28 00 00 00 14 00 11 1d 	lw $17,20($29)
  401b18:	28 00 00 00 10 00 10 1d 	lw $16,16($29)
  401b20:	2b 00 00 00 28 00 16 1d 	l.d $f22,40($29)
  401b28:	2b 00 00 00 20 00 14 1d 	l.d $f20,32($29)
  401b30:	43 00 00 00 30 00 1d 1d 	addiu $29,$29,48
  401b38:	03 00 00 00 00 00 00 1f 	jr $31

00401b40 <bbf_>:
  401b40:	a2 00 00 00 5f 10 01 00 	lui $1,4191
  401b48:	2b 00 00 00 b0 29 02 01 	l.d $f2,10672($1)
  401b50:	2b 00 00 00 c8 80 00 1c 	l.d $f0,-32568($28)
  401b58:	73 00 00 00 00 02 00 02 	sub.d $f2,$f2,$f0
  401b60:	2b 00 00 00 d0 80 00 1c 	l.d $f0,-32560($28)
  401b68:	77 00 00 00 00 00 02 00 	div.d $f0,$f0,$f2
  401b70:	43 00 00 00 d0 ff 1d 1d 	addiu $29,$29,-48
  401b78:	37 00 00 00 28 00 16 1d 	s.d $f22,40($29)
  401b80:	2b 00 00 00 e0 80 16 1c 	l.d $f22,-32544($28)
  401b88:	2b 00 00 00 d8 80 02 1c 	l.d $f2,-32552($28)
  401b90:	43 00 00 00 20 80 04 1c 	addiu $4,$28,-32736
  401b98:	34 00 00 00 1c 00 1f 1d 	sw $31,28($29)
  401ba0:	37 00 00 00 20 00 14 1d 	s.d $f20,32($29)
  401ba8:	71 00 00 00 00 14 02 00 	add.d $f20,$f0,$f2
  401bb0:	34 00 00 00 18 00 12 1d 	sw $18,24($29)
  401bb8:	34 00 00 00 14 00 11 1d 	sw $17,20($29)
  401bc0:	34 00 00 00 10 00 10 1d 	sw $16,16($29)
  401bc8:	02 00 00 00 bc 68 10 00 	jal 41a2f0 <i_dnnt>
  401bd0:	42 00 00 00 00 18 02 00 	addu $24,$0,$2
  401bd8:	43 00 00 00 01 00 0b 00 	addiu $11,$0,1
  401be0:	42 00 00 00 00 10 18 00 	addu $16,$0,$24
  401be8:	07 00 00 00 8e 00 00 18 	blez $24,401e28 <bbf_+0x2e8>
  401bf0:	43 00 00 00 92 01 0a 00 	addiu $10,$0,402
  401bf8:	a2 00 00 00 67 10 0f 00 	lui $15,4199
  401c00:	43 00 00 00 98 4f 0f 0f 	addiu $15,$15,20376
  401c08:	2b 00 00 00 e8 80 00 1c 	l.d $f0,-32536($28)
  401c10:	a2 00 00 00 6f 10 0e 00 	lui $14,4207
  401c18:	43 00 00 00 98 29 0e 0e 	addiu $14,$14,10648
  401c20:	a2 00 00 00 77 10 0d 00 	lui $13,4215
  401c28:	43 00 00 00 98 03 0d 0d 	addiu $13,$13,920
  401c30:	a2 00 00 00 7f 10 0c 00 	lui $12,4223
  401c38:	43 00 00 00 98 dd 0c 0c 	addiu $12,$12,-8808
  401c40:	43 00 00 00 01 00 02 18 	addiu $2,$24,1
  401c48:	4f 00 00 00 01 00 03 18 	andi $3,$24,1
  401c50:	5b 00 00 00 00 02 02 0b 	slt $2,$11,$2
  401c58:	05 00 00 00 02 00 00 02 	beq $2,$0,401c68 <bbf_+0x128>
  401c60:	05 00 00 00 18 00 00 03 	beq $3,$0,401cc8 <bbf_+0x188>
  401c68:	37 00 00 00 98 0c 00 0f 	s.d $f0,3224($15)
  401c70:	37 00 00 00 98 0c 14 0e 	s.d $f20,3224($14)
  401c78:	37 00 00 00 98 0c 16 0d 	s.d $f22,3224($13)
  401c80:	38 00 00 00 98 0c 00 0c 	dsz 3224($12)
  401c88:	37 00 00 00 a0 0c 00 0f 	s.d $f0,3232($15)
  401c90:	37 00 00 00 a0 0c 14 0e 	s.d $f20,3232($14)
  401c98:	37 00 00 00 a0 0c 16 0d 	s.d $f22,3232($13)
  401ca0:	38 00 00 00 a0 0c 00 0c 	dsz 3232($12)
  401ca8:	43 00 00 00 24 03 0a 00 	addiu $10,$0,804
  401cb0:	43 00 00 00 02 00 0b 00 	addiu $11,$0,2
  401cb8:	5c 00 00 00 02 00 02 18 	slti $2,$24,2
  401cc0:	06 00 00 00 58 00 00 02 	bne $2,$0,401e28 <bbf_+0x2e8>
  401cc8:	43 00 00 00 01 00 02 0a 	addiu $2,$10,1
  401cd0:	55 00 00 00 03 02 02 00 	sll $2,$2,0x3
  401cd8:	42 00 00 00 00 06 0f 02 	addu $6,$2,$15
  401ce0:	42 00 00 00 00 07 0e 02 	addu $7,$2,$14
  401ce8:	42 00 00 00 00 08 0d 02 	addu $8,$2,$13
  401cf0:	42 00 00 00 00 09 0c 02 	addu $9,$2,$12
  401cf8:	43 00 00 00 02 00 02 0a 	addiu $2,$10,2
  401d00:	55 00 00 00 03 02 02 00 	sll $2,$2,0x3
  401d08:	42 00 00 00 00 03 0f 02 	addu $3,$2,$15
  401d10:	42 00 00 00 00 04 0e 02 	addu $4,$2,$14
  401d18:	42 00 00 00 00 05 0d 02 	addu $5,$2,$13
  401d20:	42 00 00 00 00 02 0c 02 	addu $2,$2,$12
  401d28:	37 00 00 00 00 00 00 06 	s.d $f0,0($6)
  401d30:	37 00 00 00 00 00 14 07 	s.d $f20,0($7)
  401d38:	37 00 00 00 00 00 16 08 	s.d $f22,0($8)
  401d40:	38 00 00 00 00 00 00 09 	dsz 0($9)
  401d48:	37 00 00 00 00 00 00 03 	s.d $f0,0($3)
  401d50:	37 00 00 00 00 00 14 04 	s.d $f20,0($4)
  401d58:	37 00 00 00 00 00 16 05 	s.d $f22,0($5)
  401d60:	38 00 00 00 00 00 00 02 	dsz 0($2)
  401d68:	43 00 00 00 93 01 02 0a 	addiu $2,$10,403
  401d70:	55 00 00 00 03 02 02 00 	sll $2,$2,0x3
  401d78:	42 00 00 00 00 06 0f 02 	addu $6,$2,$15
  401d80:	42 00 00 00 00 07 0e 02 	addu $7,$2,$14
  401d88:	42 00 00 00 00 08 0d 02 	addu $8,$2,$13
  401d90:	42 00 00 00 00 09 0c 02 	addu $9,$2,$12
  401d98:	43 00 00 00 94 01 02 0a 	addiu $2,$10,404
  401da0:	55 00 00 00 03 02 02 00 	sll $2,$2,0x3
  401da8:	42 00 00 00 00 03 0f 02 	addu $3,$2,$15
  401db0:	42 00 00 00 00 04 0e 02 	addu $4,$2,$14
  401db8:	42 00 00 00 00 05 0d 02 	addu $5,$2,$13
  401dc0:	42 00 00 00 00 02 0c 02 	addu $2,$2,$12
  401dc8:	37 00 00 00 00 00 00 06 	s.d $f0,0($6)
  401dd0:	37 00 00 00 00 00 14 07 	s.d $f20,0($7)
  401dd8:	37 00 00 00 00 00 16 08 	s.d $f22,0($8)
  401de0:	38 00 00 00 00 00 00 09 	dsz 0($9)
  401de8:	37 00 00 00 00 00 00 03 	s.d $f0,0($3)
  401df0:	37 00 00 00 00 00 14 04 	s.d $f20,0($4)
  401df8:	37 00 00 00 00 00 16 05 	s.d $f22,0($5)
  401e00:	38 00 00 00 00 00 00 02 	dsz 0($2)
  401e08:	43 00 00 00 24 03 0a 0a 	addiu $10,$10,804
  401e10:	43 00 00 00 02 00 0b 0b 	addiu $11,$11,2
  401e18:	5b 00 00 00 00 02 0b 18 	slt $2,$24,$11
  401e20:	05 00 00 00 a8 ff 00 02 	beq $2,$0,401cc8 <bbf_+0x188>
  401e28:	a2 00 00 00 5f 10 18 00 	lui $24,4191
  401e30:	28 00 00 00 8c 29 18 18 	lw $24,10636($24)
  401e38:	43 00 00 00 01 00 0b 10 	addiu $11,$16,1
  401e40:	5b 00 00 00 00 02 0b 18 	slt $2,$24,$11
  401e48:	06 00 00 00 94 00 00 02 	bne $2,$0,4020a0 <bbf_+0x560>
  401e50:	a2 00 00 00 7f 10 03 00 	lui $3,4223
  401e58:	43 00 00 00 a8 dd 03 03 	addiu $3,$3,-8792
  401e60:	55 00 00 00 01 02 0b 00 	sll $2,$11,0x1
  401e68:	42 00 00 00 00 02 0b 02 	addu $2,$2,$11
  401e70:	55 00 00 00 03 02 02 00 	sll $2,$2,0x3
  401e78:	42 00 00 00 00 02 0b 02 	addu $2,$2,$11
  401e80:	55 00 00 00 03 02 02 00 	sll $2,$2,0x3
  401e88:	42 00 00 00 00 02 0b 02 	addu $2,$2,$11
  401e90:	55 00 00 00 04 02 02 00 	sll $2,$2,0x4
  401e98:	42 00 00 00 00 19 03 02 	addu $25,$2,$3
  401ea0:	a2 00 00 00 7f 10 03 00 	lui $3,4223
  401ea8:	43 00 00 00 b0 dd 03 03 	addiu $3,$3,-8784
  401eb0:	42 00 00 00 00 08 03 02 	addu $8,$2,$3
  401eb8:	a2 00 00 00 77 10 03 00 	lui $3,4215
  401ec0:	43 00 00 00 a8 03 03 03 	addiu $3,$3,936
  401ec8:	42 00 00 00 00 0f 03 02 	addu $15,$2,$3
  401ed0:	a2 00 00 00 77 10 03 00 	lui $3,4215
  401ed8:	43 00 00 00 b0 03 03 03 	addiu $3,$3,944
  401ee0:	42 00 00 00 00 07 03 02 	addu $7,$2,$3
  401ee8:	a2 00 00 00 6f 10 03 00 	lui $3,4207
  401ef0:	43 00 00 00 a8 29 03 03 	addiu $3,$3,10664
  401ef8:	42 00 00 00 00 0e 03 02 	addu $14,$2,$3
  401f00:	a2 00 00 00 6f 10 03 00 	lui $3,4207
  401f08:	43 00 00 00 b0 29 03 03 	addiu $3,$3,10672
  401f10:	42 00 00 00 00 06 03 02 	addu $6,$2,$3
  401f18:	a2 00 00 00 67 10 04 00 	lui $4,4199
  401f20:	43 00 00 00 a0 4f 04 04 	addiu $4,$4,20384
  401f28:	43 00 00 00 08 00 03 04 	addiu $3,$4,8
  401f30:	42 00 00 00 00 0d 03 02 	addu $13,$2,$3
  401f38:	43 00 00 00 10 00 03 04 	addiu $3,$4,16
  401f40:	42 00 00 00 00 05 03 02 	addu $5,$2,$3
  401f48:	a2 00 00 00 7f 10 03 00 	lui $3,4223
  401f50:	43 00 00 00 a0 dd 03 03 	addiu $3,$3,-8800
  401f58:	42 00 00 00 00 0c 03 02 	addu $12,$2,$3
  401f60:	a2 00 00 00 77 10 03 00 	lui $3,4215
  401f68:	43 00 00 00 a0 03 03 03 	addiu $3,$3,928
  401f70:	42 00 00 00 00 0a 03 02 	addu $10,$2,$3
  401f78:	a2 00 00 00 6f 10 03 00 	lui $3,4207
  401f80:	43 00 00 00 a0 29 03 03 	addiu $3,$3,10656
  401f88:	42 00 00 00 00 09 03 02 	addu $9,$2,$3
  401f90:	42 00 00 00 00 03 04 02 	addu $3,$2,$4
  401f98:	2b 00 00 00 00 00 00 05 	l.d $f0,0($5)
  401fa0:	37 00 00 00 00 00 00 03 	s.d $f0,0($3)
  401fa8:	2b 00 00 00 00 00 00 06 	l.d $f0,0($6)
  401fb0:	37 00 00 00 00 00 00 09 	s.d $f0,0($9)
  401fb8:	2b 00 00 00 00 00 00 07 	l.d $f0,0($7)
  401fc0:	7d 00 00 00 00 00 00 00 	neg.d $f0,$f0
  401fc8:	43 00 00 00 01 00 0b 0b 	addiu $11,$11,1
  401fd0:	37 00 00 00 00 00 00 0a 	s.d $f0,0($10)
  401fd8:	2b 00 00 00 00 00 00 08 	l.d $f0,0($8)
  401fe0:	5b 00 00 00 00 02 0b 18 	slt $2,$24,$11
  401fe8:	43 00 00 00 90 0c 03 03 	addiu $3,$3,3216
  401ff0:	37 00 00 00 00 00 00 0c 	s.d $f0,0($12)
  401ff8:	2b 00 00 00 00 00 00 05 	l.d $f0,0($5)
  402000:	43 00 00 00 90 0c 09 09 	addiu $9,$9,3216
  402008:	43 00 00 00 90 0c 0a 0a 	addiu $10,$10,3216
  402010:	37 00 00 00 00 00 00 0d 	s.d $f0,0($13)
  402018:	2b 00 00 00 00 00 00 06 	l.d $f0,0($6)
  402020:	43 00 00 00 90 0c 0c 0c 	addiu $12,$12,3216
  402028:	43 00 00 00 90 0c 0d 0d 	addiu $13,$13,3216
  402030:	37 00 00 00 00 00 00 0e 	s.d $f0,0($14)
  402038:	2b 00 00 00 00 00 00 07 	l.d $f0,0($7)
  402040:	43 00 00 00 90 0c 05 05 	addiu $5,$5,3216
  402048:	43 00 00 00 90 0c 0e 0e 	addiu $14,$14,3216
  402050:	7d 00 00 00 00 00 00 00 	neg.d $f0,$f0
  402058:	43 00 00 00 90 0c 06 06 	addiu $6,$6,3216
  402060:	37 00 00 00 00 00 00 0f 	s.d $f0,0($15)
  402068:	2b 00 00 00 00 00 00 08 	l.d $f0,0($8)
  402070:	43 00 00 00 90 0c 07 07 	addiu $7,$7,3216
  402078:	43 00 00 00 90 0c 0f 0f 	addiu $15,$15,3216
  402080:	37 00 00 00 00 00 00 19 	s.d $f0,0($25)
  402088:	43 00 00 00 90 0c 19 19 	addiu $25,$25,3216
  402090:	43 00 00 00 90 0c 08 08 	addiu $8,$8,3216
  402098:	05 00 00 00 be ff 00 02 	beq $2,$0,401f98 <bbf_+0x458>
  4020a0:	a2 00 00 00 5f 10 18 00 	lui $24,4191
  4020a8:	28 00 00 00 80 29 18 18 	lw $24,10624($24)
  4020b0:	43 00 00 00 01 00 0b 00 	addiu $11,$0,1
  4020b8:	07 00 00 00 a0 00 00 18 	blez $24,402340 <bbf_+0x800>
  4020c0:	a2 00 00 00 7f 10 12 00 	lui $18,4223
  4020c8:	43 00 00 00 28 ea 12 12 	addiu $18,$18,-5592
  4020d0:	43 00 00 00 08 00 09 12 	addiu $9,$18,8
  4020d8:	a2 00 00 00 7f 10 0a 00 	lui $10,4223
  4020e0:	43 00 00 00 b8 f6 0a 0a 	addiu $10,$10,-2376
  4020e8:	43 00 00 00 08 00 08 0a 	addiu $8,$10,8
  4020f0:	a2 00 00 00 77 10 11 00 	lui $17,4215
  4020f8:	43 00 00 00 28 10 11 11 	addiu $17,$17,4136
  402100:	43 00 00 00 08 00 07 11 	addiu $7,$17,8
  402108:	a2 00 00 00 77 10 19 00 	lui $25,4215
  402110:	43 00 00 00 b8 1c 19 19 	addiu $25,$25,7352
  402118:	43 00 00 00 08 00 06 19 	addiu $6,$25,8
  402120:	a2 00 00 00 6f 10 10 00 	lui $16,4207
  402128:	43 00 00 00 28 36 10 10 	addiu $16,$16,13864
  402130:	43 00 00 00 08 00 05 10 	addiu $5,$16,8
  402138:	a2 00 00 00 6f 10 0f 00 	lui $15,4207
  402140:	43 00 00 00 b8 42 0f 0f 	addiu $15,$15,17080
  402148:	43 00 00 00 08 00 0d 0f 	addiu $13,$15,8
  402150:	a2 00 00 00 67 10 04 00 	lui $4,4199
  402158:	43 00 00 00 28 5c 04 04 	addiu $4,$4,23592
  402160:	43 00 00 00 08 00 0c 04 	addiu $12,$4,8
  402168:	43 00 00 00 98 0c 0e 04 	addiu $14,$4,3224
  402170:	2b 00 00 00 f0 80 08 1c 	l.d $f8,-32528($28)
  402178:	43 00 00 00 01 00 02 18 	addiu $2,$24,1
  402180:	4f 00 00 00 01 00 03 18 	andi $3,$24,1
  402188:	5b 00 00 00 00 02 02 0b 	slt $2,$11,$2
  402190:	05 00 00 00 02 00 00 02 	beq $2,$0,4021a0 <bbf_+0x660>
  402198:	05 00 00 00 28 00 00 03 	beq $3,$0,402240 <bbf_+0x700>
  4021a0:	2b 00 00 00 08 00 00 0a 	l.d $f0,8($10)
  4021a8:	77 00 00 00 00 00 08 00 	div.d $f0,$f0,$f8
  4021b0:	43 00 00 00 08 00 09 09 	addiu $9,$9,8
  4021b8:	43 00 00 00 08 00 08 08 	addiu $8,$8,8
  4021c0:	43 00 00 00 08 00 07 07 	addiu $7,$7,8
  4021c8:	43 00 00 00 08 00 06 06 	addiu $6,$6,8
  4021d0:	43 00 00 00 08 00 05 05 	addiu $5,$5,8
  4021d8:	43 00 00 00 08 00 0d 0d 	addiu $13,$13,8
  4021e0:	43 00 00 00 08 00 0c 0c 	addiu $12,$12,8
  4021e8:	43 00 00 00 a0 0c 0e 04 	addiu $14,$4,3232
  4021f0:	2b 00 00 00 98 0c 02 04 	l.d $f2,3224($4)
  4021f8:	2b 00 00 00 08 00 04 0f 	l.d $f4,8($15)
  402200:	2b 00 00 00 08 00 06 19 	l.d $f6,8($25)
  402208:	43 00 00 00 02 00 0b 00 	addiu $11,$0,2
  402210:	5c 00 00 00 02 00 0a 18 	slti $10,$24,2
  402218:	37 00 00 00 08 00 02 04 	s.d $f2,8($4)
  402220:	37 00 00 00 08 00 04 10 	s.d $f4,8($16)
  402228:	37 00 00 00 08 00 06 11 	s.d $f6,8($17)
  402230:	37 00 00 00 08 00 00 12 	s.d $f0,8($18)
  402238:	06 00 00 00 40 00 00 0a 	bne $10,$0,402340 <bbf_+0x800>
  402240:	42 00 00 00 00 04 0d 00 	addu $4,$0,$13
  402248:	42 00 00 00 00 03 0c 00 	addu $3,$0,$12
  402250:	42 00 00 00 00 02 0e 00 	addu $2,$0,$14
  402258:	2b 00 00 00 00 00 00 02 	l.d $f0,0($2)
  402260:	37 00 00 00 00 00 00 03 	s.d $f0,0($3)
  402268:	2b 00 00 00 00 00 00 04 	l.d $f0,0($4)
  402270:	37 00 00 00 00 00 00 05 	s.d $f0,0($5)
  402278:	2b 00 00 00 00 00 00 06 	l.d $f0,0($6)
  402280:	37 00 00 00 00 00 00 07 	s.d $f0,0($7)
  402288:	2b 00 00 00 00 00 00 08 	l.d $f0,0($8)
  402290:	77 00 00 00 00 00 08 00 	div.d $f0,$f0,$f8
  402298:	37 00 00 00 00 00 00 09 	s.d $f0,0($9)
  4022a0:	2b 00 00 00 08 00 00 02 	l.d $f0,8($2)
  4022a8:	37 00 00 00 08 00 00 03 	s.d $f0,8($3)
  4022b0:	2b 00 00 00 08 00 00 04 	l.d $f0,8($4)
  4022b8:	37 00 00 00 08 00 00 05 	s.d $f0,8($5)
  4022c0:	2b 00 00 00 08 00 00 06 	l.d $f0,8($6)
  4022c8:	37 00 00 00 08 00 00 07 	s.d $f0,8($7)
  4022d0:	2b 00 00 00 08 00 00 08 	l.d $f0,8($8)
  4022d8:	77 00 00 00 00 00 08 00 	div.d $f0,$f0,$f8
  4022e0:	43 00 00 00 02 00 0b 0b 	addiu $11,$11,2
  4022e8:	5b 00 00 00 00 0a 0b 18 	slt $10,$24,$11
  4022f0:	43 00 00 00 10 00 03 03 	addiu $3,$3,16
  4022f8:	43 00 00 00 10 00 02 02 	addiu $2,$2,16
  402300:	43 00 00 00 10 00 05 05 	addiu $5,$5,16
  402308:	43 00 00 00 10 00 04 04 	addiu $4,$4,16
  402310:	43 00 00 00 10 00 07 07 	addiu $7,$7,16
  402318:	43 00 00 00 10 00 06 06 	addiu $6,$6,16
  402320:	43 00 00 00 10 00 08 08 	addiu $8,$8,16
  402328:	37 00 00 00 08 00 00 09 	s.d $f0,8($9)
  402330:	43 00 00 00 10 00 09 09 	addiu $9,$9,16
  402338:	05 00 00 00 c6 ff 00 0a 	beq $10,$0,402258 <bbf_+0x718>
  402340:	42 00 00 00 00 02 00 00 	addu $2,$0,$0
  402348:	28 00 00 00 1c 00 1f 1d 	lw $31,28($29)
  402350:	28 00 00 00 18 00 12 1d 	lw $18,24($29)
  402358:	28 00 00 00 14 00 11 1d 	lw $17,20($29)
  402360:	28 00 00 00 10 00 10 1d 	lw $16,16($29)
  402368:	2b 00 00 00 28 00 16 1d 	l.d $f22,40($29)
  402370:	2b 00 00 00 20 00 14 1d 	l.d $f20,32($29)
  402378:	43 00 00 00 30 00 1d 1d 	addiu $29,$29,48
  402380:	03 00 00 00 00 00 00 1f 	jr $31

00402388 <gridco_>:
  402388:	43 00 00 00 b8 ff 1d 1d 	addiu $29,$29,-72
  402390:	a2 00 00 00 5f 10 06 00 	lui $6,4191
  402398:	43 00 00 00 f8 29 06 06 	addiu $6,$6,10744
  4023a0:	34 00 00 00 34 00 1f 1d 	sw $31,52($29)
  4023a8:	34 00 00 00 30 00 16 1d 	sw $22,48($29)
  4023b0:	34 00 00 00 2c 00 15 1d 	sw $21,44($29)
  4023b8:	34 00 00 00 28 00 14 1d 	sw $20,40($29)
  4023c0:	34 00 00 00 24 00 13 1d 	sw $19,36($29)
  4023c8:	34 00 00 00 20 00 12 1d 	sw $18,32($29)
  4023d0:	34 00 00 00 1c 00 11 1d 	sw $17,28($29)
  4023d8:	34 00 00 00 18 00 10 1d 	sw $16,24($29)
  4023e0:	37 00 00 00 40 00 16 1d 	s.d $f22,64($29)
  4023e8:	37 00 00 00 38 00 14 1d 	s.d $f20,56($29)
  4023f0:	2b 00 00 00 00 00 04 06 	l.d $f4,0($6)
  4023f8:	2b 00 00 00 f8 80 00 1c 	l.d $f0,-32520($28)
  402400:	75 00 00 00 00 04 00 04 	mul.d $f4,$f4,$f0
  402408:	2b 00 00 00 00 81 02 1c 	l.d $f2,-32512($28)
  402410:	a2 00 00 00 5f 10 01 00 	lui $1,4191
  402418:	2b 00 00 00 00 2a 00 01 	l.d $f0,10752($1)
  402420:	75 00 00 00 00 00 02 00 	mul.d $f0,$f0,$f2
  402428:	85 00 00 00 00 02 00 04 	cvt.w.d $f2,$f4
  402430:	a3 00 00 00 00 00 13 02 	mfc1 $19,$f2
  402438:	85 00 00 00 00 02 00 00 	cvt.w.d $f2,$f0
  402440:	a3 00 00 00 00 00 14 02 	mfc1 $20,$f2
  402448:	08 00 00 00 02 00 00 13 	bgtz $19,402458 <gridco_+0xd0>
  402450:	43 00 00 00 01 00 13 00 	addiu $19,$0,1
  402458:	08 00 00 00 02 00 00 14 	bgtz $20,402468 <gridco_+0xe0>
  402460:	43 00 00 00 01 00 14 00 	addiu $20,$0,1
  402468:	5c 00 00 00 93 01 02 13 	slti $2,$19,403
  402470:	06 00 00 00 02 00 00 02 	bne $2,$0,402480 <gridco_+0xf8>
  402478:	43 00 00 00 92 01 13 00 	addiu $19,$0,402
  402480:	5c 00 00 00 a1 00 02 14 	slti $2,$20,161
  402488:	06 00 00 00 02 00 00 02 	bne $2,$0,402498 <gridco_+0x110>
  402490:	43 00 00 00 a0 00 14 00 	addiu $20,$0,160
  402498:	a2 00 00 00 5f 10 01 00 	lui $1,4191
  4024a0:	2b 00 00 00 e8 29 00 01 	l.d $f0,10728($1)
  4024a8:	a5 00 00 00 00 00 00 02 	mtc1 $0,$f2
  4024b0:	a5 00 00 00 00 00 00 03 	mtc1 $0,$f3
  4024b8:	95 00 00 00 00 00 02 00 	c.le.d $f0,$f2
  4024c0:	0b 00 00 00 06 00 00 00 	bc1f 4024e0 <gridco_+0x158>
  4024c8:	2b 00 00 00 08 81 00 1c 	l.d $f0,-32504($28)
  4024d0:	a2 00 00 00 5f 10 01 00 	lui $1,4191
  4024d8:	37 00 00 00 e8 29 00 01 	s.d $f0,10728($1)
  4024e0:	a2 00 00 00 5f 10 01 00 	lui $1,4191
  4024e8:	2b 00 00 00 f0 29 00 01 	l.d $f0,10736($1)
  4024f0:	95 00 00 00 00 00 02 00 	c.le.d $f0,$f2
  4024f8:	0b 00 00 00 06 00 00 00 	bc1f 402518 <gridco_+0x190>
  402500:	2b 00 00 00 08 81 00 1c 	l.d $f0,-32504($28)
  402508:	a2 00 00 00 5f 10 01 00 	lui $1,4191
  402510:	37 00 00 00 f0 29 00 01 	s.d $f0,10736($1)
  402518:	34 00 00 00 10 00 13 1d 	sw $19,16($29)
  402520:	43 00 00 00 01 00 10 00 	addiu $16,$0,1
  402528:	07 00 00 00 a8 00 00 13 	blez $19,4027d0 <gridco_+0x448>
  402530:	a2 00 00 00 5f 10 08 00 	lui $8,4191
  402538:	43 00 00 00 08 2a 08 08 	addiu $8,$8,10760
  402540:	43 00 00 00 08 00 04 08 	addiu $4,$8,8
  402548:	43 00 00 00 d0 ff 05 06 	addiu $5,$6,-48
  402550:	2b 00 00 00 10 81 04 1c 	l.d $f4,-32496($28)
  402558:	42 00 00 00 00 07 13 00 	addu $7,$0,$19
  402560:	43 00 00 00 01 00 02 13 	addiu $2,$19,1
  402568:	4f 00 00 00 03 00 03 13 	andi $3,$19,3
  402570:	5b 00 00 00 00 02 02 10 	slt $2,$16,$2
  402578:	05 00 00 00 2c 00 00 02 	beq $2,$0,402630 <gridco_+0x2a8>
  402580:	05 00 00 00 42 00 00 03 	beq $3,$0,402690 <gridco_+0x308>
  402588:	5c 00 00 00 02 00 02 03 	slti $2,$3,2
  402590:	06 00 00 00 26 00 00 02 	bne $2,$0,402630 <gridco_+0x2a8>
  402598:	5c 00 00 00 03 00 02 03 	slti $2,$3,3
  4025a0:	06 00 00 00 0e 00 00 02 	bne $2,$0,4025e0 <gridco_+0x258>
  4025a8:	2b 00 00 00 d0 ff 00 06 	l.d $f0,-48($6)
  4025b0:	75 00 00 00 00 00 04 00 	mul.d $f0,$f0,$f4
  4025b8:	2b 00 00 00 e0 ff 02 06 	l.d $f2,-32($6)
  4025c0:	71 00 00 00 00 00 02 00 	add.d $f0,$f0,$f2
  4025c8:	43 00 00 00 08 00 04 04 	addiu $4,$4,8
  4025d0:	43 00 00 00 02 00 10 00 	addiu $16,$0,2
  4025d8:	37 00 00 00 08 00 00 08 	s.d $f0,8($8)
  4025e0:	a5 00 00 00 00 00 10 00 	mtc1 $16,$f0
  4025e8:	83 00 00 00 00 00 00 00 	cvt.d.w $f0,$f0
  4025f0:	73 00 00 00 00 00 04 00 	sub.d $f0,$f0,$f4
  4025f8:	2b 00 00 00 d0 ff 02 06 	l.d $f2,-48($6)
  402600:	75 00 00 00 00 02 00 02 	mul.d $f2,$f2,$f0
  402608:	2b 00 00 00 e0 ff 00 06 	l.d $f0,-32($6)
  402610:	71 00 00 00 00 02 00 02 	add.d $f2,$f2,$f0
  402618:	43 00 00 00 01 00 10 10 	addiu $16,$16,1
  402620:	37 00 00 00 00 00 02 04 	s.d $f2,0($4)
  402628:	43 00 00 00 08 00 04 04 	addiu $4,$4,8
  402630:	a5 00 00 00 00 00 10 00 	mtc1 $16,$f0
  402638:	83 00 00 00 00 00 00 00 	cvt.d.w $f0,$f0
  402640:	73 00 00 00 00 00 04 00 	sub.d $f0,$f0,$f4
  402648:	2b 00 00 00 00 00 02 05 	l.d $f2,0($5)
  402650:	75 00 00 00 00 02 00 02 	mul.d $f2,$f2,$f0
  402658:	2b 00 00 00 10 00 00 05 	l.d $f0,16($5)
  402660:	71 00 00 00 00 02 00 02 	add.d $f2,$f2,$f0
  402668:	43 00 00 00 01 00 10 10 	addiu $16,$16,1
  402670:	5b 00 00 00 00 02 10 07 	slt $2,$7,$16
  402678:	37 00 00 00 00 00 02 04 	s.d $f2,0($4)
  402680:	43 00 00 00 08 00 04 04 	addiu $4,$4,8
  402688:	06 00 00 00 50 00 00 02 	bne $2,$0,4027d0 <gridco_+0x448>
  402690:	42 00 00 00 00 03 04 00 	addu $3,$0,$4
  402698:	a5 00 00 00 00 00 10 02 	mtc1 $16,$f2
  4026a0:	83 00 00 00 00 02 00 02 	cvt.d.w $f2,$f2
  4026a8:	73 00 00 00 00 02 04 02 	sub.d $f2,$f2,$f4
  4026b0:	2b 00 00 00 00 00 00 05 	l.d $f0,0($5)
  4026b8:	75 00 00 00 00 00 02 00 	mul.d $f0,$f0,$f2
  4026c0:	2b 00 00 00 10 00 02 05 	l.d $f2,16($5)
  4026c8:	71 00 00 00 00 00 02 00 	add.d $f0,$f0,$f2
  4026d0:	43 00 00 00 01 00 02 10 	addiu $2,$16,1
  4026d8:	a5 00 00 00 00 00 02 02 	mtc1 $2,$f2
  4026e0:	83 00 00 00 00 02 00 02 	cvt.d.w $f2,$f2
  4026e8:	73 00 00 00 00 02 04 02 	sub.d $f2,$f2,$f4
  4026f0:	37 00 00 00 00 00 00 03 	s.d $f0,0($3)
  4026f8:	2b 00 00 00 00 00 00 05 	l.d $f0,0($5)
  402700:	75 00 00 00 00 00 02 00 	mul.d $f0,$f0,$f2
  402708:	2b 00 00 00 10 00 02 05 	l.d $f2,16($5)
  402710:	71 00 00 00 00 00 02 00 	add.d $f0,$f0,$f2
  402718:	43 00 00 00 02 00 02 10 	addiu $2,$16,2
  402720:	a5 00 00 00 00 00 02 02 	mtc1 $2,$f2
  402728:	83 00 00 00 00 02 00 02 	cvt.d.w $f2,$f2
  402730:	73 00 00 00 00 02 04 02 	sub.d $f2,$f2,$f4
  402738:	37 00 00 00 08 00 00 03 	s.d $f0,8($3)
  402740:	2b 00 00 00 00 00 00 05 	l.d $f0,0($5)
  402748:	75 00 00 00 00 00 02 00 	mul.d $f0,$f0,$f2
  402750:	2b 00 00 00 10 00 02 05 	l.d $f2,16($5)
  402758:	71 00 00 00 00 00 02 00 	add.d $f0,$f0,$f2
  402760:	43 00 00 00 03 00 02 10 	addiu $2,$16,3
  402768:	37 00 00 00 10 00 00 03 	s.d $f0,16($3)
  402770:	a5 00 00 00 00 00 02 00 	mtc1 $2,$f0
  402778:	83 00 00 00 00 00 00 00 	cvt.d.w $f0,$f0
  402780:	73 00 00 00 00 00 04 00 	sub.d $f0,$f0,$f4
  402788:	2b 00 00 00 00 00 02 05 	l.d $f2,0($5)
  402790:	75 00 00 00 00 02 00 02 	mul.d $f2,$f2,$f0
  402798:	2b 00 00 00 10 00 00 05 	l.d $f0,16($5)
  4027a0:	71 00 00 00 00 02 00 02 	add.d $f2,$f2,$f0
  4027a8:	43 00 00 00 04 00 10 10 	addiu $16,$16,4
  4027b0:	5b 00 00 00 00 02 10 07 	slt $2,$7,$16
  4027b8:	37 00 00 00 18 00 02 03 	s.d $f2,24($3)
  4027c0:	43 00 00 00 20 00 03 03 	addiu $3,$3,32
  4027c8:	05 00 00 00 b2 ff 00 02 	beq $2,$0,402698 <gridco_+0x310>
  4027d0:	a2 00 00 00 5f 10 16 00 	lui $22,4191
  4027d8:	43 00 00 00 c8 29 16 16 	addiu $22,$22,10696
  4027e0:	2b 00 00 00 00 00 00 16 	l.d $f0,0($22)
  4027e8:	2b 00 00 00 10 81 02 1c 	l.d $f2,-32496($28)
  4027f0:	75 00 00 00 00 14 02 00 	mul.d $f20,$f0,$f2
  4027f8:	43 00 00 00 01 00 10 13 	addiu $16,$19,1
  402800:	5c 00 00 00 93 01 02 10 	slti $2,$16,403
  402808:	05 00 00 00 06 01 00 02 	beq $2,$0,402c28 <gridco_+0x8a0>
  402810:	a2 00 00 00 5f 10 02 00 	lui $2,4191
  402818:	43 00 00 00 08 2a 02 02 	addiu $2,$2,10760
  402820:	55 00 00 00 03 03 10 00 	sll $3,$16,0x3
  402828:	42 00 00 00 00 12 02 03 	addu $18,$3,$2
  402830:	43 00 00 00 f8 ff 02 02 	addiu $2,$2,-8
  402838:	42 00 00 00 00 11 02 03 	addu $17,$3,$2
  402840:	43 00 00 00 20 00 15 16 	addiu $21,$22,32
  402848:	7b 00 00 00 00 16 00 02 	mov.d $f22,$f2
  402850:	43 00 00 00 93 01 02 00 	addiu $2,$0,403
  402858:	45 00 00 00 00 02 10 02 	subu $2,$2,$16
  402860:	4f 00 00 00 03 00 03 02 	andi $3,$2,3
  402868:	05 00 00 00 6e 00 00 03 	beq $3,$0,402a28 <gridco_+0x6a0>
  402870:	5c 00 00 00 02 00 02 03 	slti $2,$3,2
  402878:	06 00 00 00 44 00 00 02 	bne $2,$0,402990 <gridco_+0x608>
  402880:	5c 00 00 00 03 00 02 03 	slti $2,$3,3
  402888:	06 00 00 00 20 00 00 02 	bne $2,$0,402910 <gridco_+0x588>
  402890:	42 00 00 00 00 04 15 00 	addu $4,$0,$21
  402898:	43 00 00 00 10 00 05 1d 	addiu $5,$29,16
  4028a0:	45 00 00 00 00 02 13 10 	subu $2,$16,$19
  4028a8:	34 00 00 00 10 00 02 1d 	sw $2,16($29)
  4028b0:	02 00 00 00 a0 6a 10 00 	jal 41aa80 <pow_di>
  4028b8:	2b 00 00 00 00 00 02 16 	l.d $f2,0($22)
  4028c0:	75 00 00 00 00 02 16 02 	mul.d $f2,$f2,$f22
  4028c8:	75 00 00 00 00 02 00 02 	mul.d $f2,$f2,$f0
  4028d0:	2b 00 00 00 00 00 00 11 	l.d $f0,0($17)
  4028d8:	71 00 00 00 00 00 14 00 	add.d $f0,$f0,$f20
  4028e0:	71 00 00 00 00 00 02 00 	add.d $f0,$f0,$f2
  4028e8:	43 00 00 00 01 00 10 10 	addiu $16,$16,1
  4028f0:	43 00 00 00 08 00 11 11 	addiu $17,$17,8
  4028f8:	7b 00 00 00 00 14 00 02 	mov.d $f20,$f2
  402900:	37 00 00 00 00 00 00 12 	s.d $f0,0($18)
  402908:	43 00 00 00 08 00 12 12 	addiu $18,$18,8
  402910:	42 00 00 00 00 04 15 00 	addu $4,$0,$21
  402918:	43 00 00 00 10 00 05 1d 	addiu $5,$29,16
  402920:	45 00 00 00 00 02 13 10 	subu $2,$16,$19
  402928:	34 00 00 00 10 00 02 1d 	sw $2,16($29)
  402930:	02 00 00 00 a0 6a 10 00 	jal 41aa80 <pow_di>
  402938:	2b 00 00 00 00 00 02 16 	l.d $f2,0($22)
  402940:	75 00 00 00 00 02 16 02 	mul.d $f2,$f2,$f22
  402948:	75 00 00 00 00 02 00 02 	mul.d $f2,$f2,$f0
  402950:	2b 00 00 00 00 00 00 11 	l.d $f0,0($17)
  402958:	71 00 00 00 00 00 14 00 	add.d $f0,$f0,$f20
  402960:	71 00 00 00 00 00 02 00 	add.d $f0,$f0,$f2
  402968:	43 00 00 00 01 00 10 10 	addiu $16,$16,1
  402970:	43 00 00 00 08 00 11 11 	addiu $17,$17,8
  402978:	7b 00 00 00 00 14 00 02 	mov.d $f20,$f2
  402980:	37 00 00 00 00 00 00 12 	s.d $f0,0($18)
  402988:	43 00 00 00 08 00 12 12 	addiu $18,$18,8
  402990:	42 00 00 00 00 04 15 00 	addu $4,$0,$21
  402998:	43 00 00 00 10 00 05 1d 	addiu $5,$29,16
  4029a0:	45 00 00 00 00 02 13 10 	subu $2,$16,$19
  4029a8:	34 00 00 00 10 00 02 1d 	sw $2,16($29)
  4029b0:	02 00 00 00 a0 6a 10 00 	jal 41aa80 <pow_di>
  4029b8:	a2 00 00 00 5f 10 01 00 	lui $1,4191
  4029c0:	2b 00 00 00 c8 29 02 01 	l.d $f2,10696($1)
  4029c8:	75 00 00 00 00 02 16 02 	mul.d $f2,$f2,$f22
  4029d0:	75 00 00 00 00 02 00 02 	mul.d $f2,$f2,$f0
  4029d8:	2b 00 00 00 00 00 00 11 	l.d $f0,0($17)
  4029e0:	71 00 00 00 00 00 14 00 	add.d $f0,$f0,$f20
  4029e8:	43 00 00 00 01 00 10 10 	addiu $16,$16,1
  4029f0:	71 00 00 00 00 00 02 00 	add.d $f0,$f0,$f2
  4029f8:	5c 00 00 00 93 01 02 10 	slti $2,$16,403
  402a00:	43 00 00 00 08 00 11 11 	addiu $17,$17,8
  402a08:	7b 00 00 00 00 14 00 02 	mov.d $f20,$f2
  402a10:	37 00 00 00 00 00 00 12 	s.d $f0,0($18)
  402a18:	43 00 00 00 08 00 12 12 	addiu $18,$18,8
  402a20:	05 00 00 00 80 00 00 02 	beq $2,$0,402c28 <gridco_+0x8a0>
  402a28:	42 00 00 00 00 04 15 00 	addu $4,$0,$21
  402a30:	43 00 00 00 10 00 05 1d 	addiu $5,$29,16
  402a38:	45 00 00 00 00 02 13 10 	subu $2,$16,$19
  402a40:	34 00 00 00 10 00 02 1d 	sw $2,16($29)
  402a48:	02 00 00 00 a0 6a 10 00 	jal 41aa80 <pow_di>
  402a50:	a2 00 00 00 5f 10 01 00 	lui $1,4191
  402a58:	2b 00 00 00 c8 29 02 01 	l.d $f2,10696($1)
  402a60:	75 00 00 00 00 02 16 02 	mul.d $f2,$f2,$f22
  402a68:	75 00 00 00 00 02 00 02 	mul.d $f2,$f2,$f0
  402a70:	2b 00 00 00 00 00 00 11 	l.d $f0,0($17)
  402a78:	71 00 00 00 00 00 14 00 	add.d $f0,$f0,$f20
  402a80:	42 00 00 00 00 04 15 00 	addu $4,$0,$21
  402a88:	43 00 00 00 10 00 05 1d 	addiu $5,$29,16
  402a90:	43 00 00 00 01 00 02 10 	addiu $2,$16,1
  402a98:	71 00 00 00 00 00 02 00 	add.d $f0,$f0,$f2
  402aa0:	45 00 00 00 00 02 13 02 	subu $2,$2,$19
  402aa8:	34 00 00 00 10 00 02 1d 	sw $2,16($29)
  402ab0:	7b 00 00 00 00 14 00 02 	mov.d $f20,$f2
  402ab8:	37 00 00 00 00 00 00 12 	s.d $f0,0($18)
  402ac0:	02 00 00 00 a0 6a 10 00 	jal 41aa80 <pow_di>
  402ac8:	a2 00 00 00 5f 10 01 00 	lui $1,4191
  402ad0:	2b 00 00 00 c8 29 02 01 	l.d $f2,10696($1)
  402ad8:	75 00 00 00 00 02 16 02 	mul.d $f2,$f2,$f22
  402ae0:	75 00 00 00 00 02 00 02 	mul.d $f2,$f2,$f0
  402ae8:	2b 00 00 00 08 00 00 11 	l.d $f0,8($17)
  402af0:	71 00 00 00 00 00 14 00 	add.d $f0,$f0,$f20
  402af8:	42 00 00 00 00 04 15 00 	addu $4,$0,$21
  402b00:	43 00 00 00 10 00 05 1d 	addiu $5,$29,16
  402b08:	43 00 00 00 02 00 02 10 	addiu $2,$16,2
  402b10:	71 00 00 00 00 00 02 00 	add.d $f0,$f0,$f2
  402b18:	45 00 00 00 00 02 13 02 	subu $2,$2,$19
  402b20:	34 00 00 00 10 00 02 1d 	sw $2,16($29)
  402b28:	7b 00 00 00 00 14 00 02 	mov.d $f20,$f2
  402b30:	37 00 00 00 08 00 00 12 	s.d $f0,8($18)
  402b38:	02 00 00 00 a0 6a 10 00 	jal 41aa80 <pow_di>
  402b40:	a2 00 00 00 5f 10 01 00 	lui $1,4191
  402b48:	2b 00 00 00 c8 29 02 01 	l.d $f2,10696($1)
  402b50:	75 00 00 00 00 02 16 02 	mul.d $f2,$f2,$f22
  402b58:	75 00 00 00 00 02 00 02 	mul.d $f2,$f2,$f0
  402b60:	2b 00 00 00 10 00 00 11 	l.d $f0,16($17)
  402b68:	71 00 00 00 00 00 14 00 	add.d $f0,$f0,$f20
  402b70:	42 00 00 00 00 04 15 00 	addu $4,$0,$21
  402b78:	43 00 00 00 10 00 05 1d 	addiu $5,$29,16
  402b80:	43 00 00 00 03 00 02 10 	addiu $2,$16,3
  402b88:	71 00 00 00 00 00 02 00 	add.d $f0,$f0,$f2
  402b90:	45 00 00 00 00 02 13 02 	subu $2,$2,$19
  402b98:	34 00 00 00 10 00 02 1d 	sw $2,16($29)
  402ba0:	7b 00 00 00 00 14 00 02 	mov.d $f20,$f2
  402ba8:	37 00 00 00 10 00 00 12 	s.d $f0,16($18)
  402bb0:	02 00 00 00 a0 6a 10 00 	jal 41aa80 <pow_di>
  402bb8:	a2 00 00 00 5f 10 01 00 	lui $1,4191
  402bc0:	2b 00 00 00 c8 29 02 01 	l.d $f2,10696($1)
  402bc8:	75 00 00 00 00 02 16 02 	mul.d $f2,$f2,$f22
  402bd0:	75 00 00 00 00 02 00 02 	mul.d $f2,$f2,$f0
  402bd8:	2b 00 00 00 18 00 00 11 	l.d $f0,24($17)
  402be0:	71 00 00 00 00 00 14 00 	add.d $f0,$f0,$f20
  402be8:	43 00 00 00 04 00 10 10 	addiu $16,$16,4
  402bf0:	71 00 00 00 00 00 02 00 	add.d $f0,$f0,$f2
  402bf8:	5c 00 00 00 93 01 02 10 	slti $2,$16,403
  402c00:	43 00 00 00 20 00 11 11 	addiu $17,$17,32
  402c08:	7b 00 00 00 00 14 00 02 	mov.d $f20,$f2
  402c10:	37 00 00 00 18 00 00 12 	s.d $f0,24($18)
  402c18:	43 00 00 00 20 00 12 12 	addiu $18,$18,32
  402c20:	06 00 00 00 80 ff 00 02 	bne $2,$0,402a28 <gridco_+0x6a0>
  402c28:	43 00 00 00 01 00 10 00 	addiu $16,$0,1
  402c30:	a2 00 00 00 5f 10 02 00 	lui $2,4191
  402c38:	43 00 00 00 a0 36 02 02 	addiu $2,$2,13984
  402c40:	43 00 00 00 08 00 05 02 	addiu $5,$2,8
  402c48:	a2 00 00 00 5f 10 01 00 	lui $1,4191
  402c50:	2b 00 00 00 d8 29 00 01 	l.d $f0,10712($1)
  402c58:	42 00 00 00 00 03 02 00 	addu $3,$0,$2
  402c60:	43 00 00 00 70 f3 04 03 	addiu $4,$3,-3216
  402c68:	37 00 00 00 00 00 00 03 	s.d $f0,0($3)
  402c70:	2b 00 00 00 00 00 00 04 	l.d $f0,0($4)
  402c78:	71 00 00 00 00 00 00 00 	add.d $f0,$f0,$f0
  402c80:	2b 00 00 00 00 00 02 03 	l.d $f2,0($3)
  402c88:	73 00 00 00 00 00 02 00 	sub.d $f0,$f0,$f2
  402c90:	37 00 00 00 00 00 00 05 	s.d $f0,0($5)
  402c98:	2b 00 00 00 08 00 00 04 	l.d $f0,8($4)
  402ca0:	71 00 00 00 00 00 00 00 	add.d $f0,$f0,$f0
  402ca8:	2b 00 00 00 08 00 02 03 	l.d $f2,8($3)
  402cb0:	73 00 00 00 00 00 02 00 	sub.d $f0,$f0,$f2
  402cb8:	37 00 00 00 08 00 00 05 	s.d $f0,8($5)
  402cc0:	2b 00 00 00 10 00 00 04 	l.d $f0,16($4)
  402cc8:	71 00 00 00 00 00 00 00 	add.d $f0,$f0,$f0
  402cd0:	2b 00 00 00 10 00 02 03 	l.d $f2,16($3)
  402cd8:	73 00 00 00 00 00 02 00 	sub.d $f0,$f0,$f2
  402ce0:	37 00 00 00 10 00 00 05 	s.d $f0,16($5)
  402ce8:	2b 00 00 00 18 00 00 04 	l.d $f0,24($4)
  402cf0:	71 00 00 00 00 00 00 00 	add.d $f0,$f0,$f0
  402cf8:	2b 00 00 00 18 00 02 03 	l.d $f2,24($3)
  402d00:	73 00 00 00 00 00 02 00 	sub.d $f0,$f0,$f2
  402d08:	37 00 00 00 18 00 00 05 	s.d $f0,24($5)
  402d10:	2b 00 00 00 20 00 00 04 	l.d $f0,32($4)
  402d18:	71 00 00 00 00 00 00 00 	add.d $f0,$f0,$f0
  402d20:	2b 00 00 00 20 00 02 03 	l.d $f2,32($3)
  402d28:	73 00 00 00 00 00 02 00 	sub.d $f0,$f0,$f2
  402d30:	37 00 00 00 20 00 00 05 	s.d $f0,32($5)
  402d38:	2b 00 00 00 28 00 02 04 	l.d $f2,40($4)
  402d40:	71 00 00 00 00 02 02 02 	add.d $f2,$f2,$f2
  402d48:	2b 00 00 00 28 00 00 03 	l.d $f0,40($3)
  402d50:	43 00 00 00 06 00 10 10 	addiu $16,$16,6
  402d58:	73 00 00 00 00 02 00 02 	sub.d $f2,$f2,$f0
  402d60:	5c 00 00 00 93 01 02 10 	slti $2,$16,403
  402d68:	43 00 00 00 30 00 03 03 	addiu $3,$3,48
  402d70:	43 00 00 00 30 00 04 04 	addiu $4,$4,48
  402d78:	37 00 00 00 28 00 02 05 	s.d $f2,40($5)
  402d80:	43 00 00 00 30 00 05 05 	addiu $5,$5,48
  402d88:	06 00 00 00 b8 ff 00 02 	bne $2,$0,402c70 <gridco_+0x8e8>
  402d90:	43 00 00 00 01 00 10 00 	addiu $16,$0,1
  402d98:	a2 00 00 00 5f 10 02 00 	lui $2,4191
  402da0:	43 00 00 00 30 43 02 02 	addiu $2,$2,17200
  402da8:	43 00 00 00 08 00 05 02 	addiu $5,$2,8
  402db0:	43 00 00 00 70 f3 04 02 	addiu $4,$2,-3216
  402db8:	43 00 00 00 78 f3 03 02 	addiu $3,$2,-3208
  402dc0:	2b 00 00 00 00 00 00 03 	l.d $f0,0($3)
  402dc8:	2b 00 00 00 00 00 02 04 	l.d $f2,0($4)
  402dd0:	73 00 00 00 00 00 02 00 	sub.d $f0,$f0,$f2
  402dd8:	37 00 00 00 00 00 00 05 	s.d $f0,0($5)
  402de0:	2b 00 00 00 08 00 00 03 	l.d $f0,8($3)
  402de8:	2b 00 00 00 08 00 02 04 	l.d $f2,8($4)
  402df0:	73 00 00 00 00 00 02 00 	sub.d $f0,$f0,$f2
  402df8:	37 00 00 00 08 00 00 05 	s.d $f0,8($5)
  402e00:	2b 00 00 00 10 00 00 03 	l.d $f0,16($3)
  402e08:	2b 00 00 00 10 00 02 04 	l.d $f2,16($4)
  402e10:	73 00 00 00 00 00 02 00 	sub.d $f0,$f0,$f2
  402e18:	37 00 00 00 10 00 00 05 	s.d $f0,16($5)
  402e20:	2b 00 00 00 18 00 00 03 	l.d $f0,24($3)
  402e28:	2b 00 00 00 18 00 02 04 	l.d $f2,24($4)
  402e30:	73 00 00 00 00 00 02 00 	sub.d $f0,$f0,$f2
  402e38:	37 00 00 00 18 00 00 05 	s.d $f0,24($5)
  402e40:	2b 00 00 00 20 00 00 03 	l.d $f0,32($3)
  402e48:	2b 00 00 00 20 00 02 04 	l.d $f2,32($4)
  402e50:	73 00 00 00 00 00 02 00 	sub.d $f0,$f0,$f2
  402e58:	37 00 00 00 20 00 00 05 	s.d $f0,32($5)
  402e60:	2b 00 00 00 28 00 02 03 	l.d $f2,40($3)
  402e68:	2b 00 00 00 28 00 00 04 	l.d $f0,40($4)
  402e70:	43 00 00 00 06 00 10 10 	addiu $16,$16,6
  402e78:	73 00 00 00 00 02 00 02 	sub.d $f2,$f2,$f0
  402e80:	5c 00 00 00 93 01 02 10 	slti $2,$16,403
  402e88:	43 00 00 00 30 00 04 04 	addiu $4,$4,48
  402e90:	43 00 00 00 30 00 03 03 	addiu $3,$3,48
  402e98:	37 00 00 00 28 00 02 05 	s.d $f2,40($5)
  402ea0:	43 00 00 00 30 00 05 05 	addiu $5,$5,48
  402ea8:	06 00 00 00 c4 ff 00 02 	bne $2,$0,402dc0 <gridco_+0xa38>
  402eb0:	a2 00 00 00 5f 10 03 00 	lui $3,4191
  402eb8:	43 00 00 00 c8 4f 03 03 	addiu $3,$3,20424
  402ec0:	2b 00 00 00 50 da 04 03 	l.d $f4,-9648($3)
  402ec8:	2b 00 00 00 48 da 00 03 	l.d $f0,-9656($3)
  402ed0:	73 00 00 00 00 04 00 04 	sub.d $f4,$f4,$f0
  402ed8:	2b 00 00 00 e0 e6 02 03 	l.d $f2,-6432($3)
  402ee0:	73 00 00 00 00 02 00 02 	sub.d $f2,$f2,$f0
  402ee8:	77 00 00 00 00 02 04 02 	div.d $f2,$f2,$f4
  402ef0:	43 00 00 00 02 00 10 00 	addiu $16,$0,2
  402ef8:	43 00 00 00 a0 0c 0a 03 	addiu $10,$3,3232
  402f00:	43 00 00 00 58 da 02 03 	addiu $2,$3,-9640
  402f08:	42 00 00 00 00 07 02 00 	addu $7,$0,$2
  402f10:	43 00 00 00 50 da 02 03 	addiu $2,$3,-9648
  402f18:	42 00 00 00 00 05 02 00 	addu $5,$0,$2
  402f20:	43 00 00 00 e8 e6 09 03 	addiu $9,$3,-6424
  402f28:	43 00 00 00 10 00 08 03 	addiu $8,$3,16
  402f30:	42 00 00 00 00 06 05 00 	addu $6,$0,$5
  402f38:	42 00 00 00 00 04 07 00 	addu $4,$0,$7
  402f40:	37 00 00 00 08 00 04 03 	s.d $f4,8($3)
  402f48:	37 00 00 00 98 0c 02 03 	s.d $f2,3224($3)
  402f50:	2b 00 00 00 00 00 00 04 	l.d $f0,0($4)
  402f58:	2b 00 00 00 00 00 02 06 	l.d $f2,0($6)
  402f60:	73 00 00 00 00 00 02 00 	sub.d $f0,$f0,$f2
  402f68:	37 00 00 00 00 00 00 08 	s.d $f0,0($8)
  402f70:	2b 00 00 00 00 00 02 09 	l.d $f2,0($9)
  402f78:	2b 00 00 00 00 00 04 05 	l.d $f4,0($5)
  402f80:	73 00 00 00 00 02 04 02 	sub.d $f2,$f2,$f4
  402f88:	2b 00 00 00 00 00 00 07 	l.d $f0,0($7)
  402f90:	73 00 00 00 00 00 04 00 	sub.d $f0,$f0,$f4
  402f98:	77 00 00 00 00 02 00 02 	div.d $f2,$f2,$f0
  402fa0:	37 00 00 00 00 00 02 0a 	s.d $f2,0($10)
  402fa8:	2b 00 00 00 08 00 00 04 	l.d $f0,8($4)
  402fb0:	2b 00 00 00 08 00 02 06 	l.d $f2,8($6)
  402fb8:	73 00 00 00 00 00 02 00 	sub.d $f0,$f0,$f2
  402fc0:	37 00 00 00 08 00 00 08 	s.d $f0,8($8)
  402fc8:	2b 00 00 00 08 00 04 09 	l.d $f4,8($9)
  402fd0:	2b 00 00 00 08 00 02 05 	l.d $f2,8($5)
  402fd8:	73 00 00 00 00 04 02 04 	sub.d $f4,$f4,$f2
  402fe0:	2b 00 00 00 08 00 00 07 	l.d $f0,8($7)
  402fe8:	73 00 00 00 00 00 02 00 	sub.d $f0,$f0,$f2
  402ff0:	77 00 00 00 00 04 00 04 	div.d $f4,$f4,$f0
  402ff8:	43 00 00 00 02 00 10 10 	addiu $16,$16,2
  403000:	5c 00 00 00 92 01 02 10 	slti $2,$16,402
  403008:	43 00 00 00 10 00 04 04 	addiu $4,$4,16
  403010:	43 00 00 00 10 00 06 06 	addiu $6,$6,16
  403018:	43 00 00 00 10 00 08 08 	addiu $8,$8,16
  403020:	43 00 00 00 10 00 07 07 	addiu $7,$7,16
  403028:	43 00 00 00 10 00 05 05 	addiu $5,$5,16
  403030:	43 00 00 00 10 00 09 09 	addiu $9,$9,16
  403038:	37 00 00 00 08 00 04 0a 	s.d $f4,8($10)
  403040:	43 00 00 00 10 00 0a 0a 	addiu $10,$10,16
  403048:	06 00 00 00 c0 ff 00 02 	bne $2,$0,402f50 <gridco_+0xbc8>
  403050:	a2 00 00 00 5f 10 01 00 	lui $1,4191
  403058:	2b 00 00 00 d0 4f 00 01 	l.d $f0,20432($1)
  403060:	a2 00 00 00 5f 10 01 00 	lui $1,4191
  403068:	2b 00 00 00 50 5c 02 01 	l.d $f2,23632($1)
  403070:	43 00 00 00 01 00 10 00 	addiu $16,$0,1
  403078:	a2 00 00 00 5f 10 06 00 	lui $6,4191
  403080:	43 00 00 00 c8 4f 06 06 	addiu $6,$6,20424
  403088:	34 00 00 00 10 00 14 1d 	sw $20,16($29)
  403090:	37 00 00 00 00 00 00 06 	s.d $f0,0($6)
  403098:	a2 00 00 00 5f 10 01 00 	lui $1,4191
  4030a0:	37 00 00 00 58 5c 02 01 	s.d $f2,23640($1)
  4030a8:	07 00 00 00 a8 00 00 14 	blez $20,403350 <gridco_+0xfc8>
  4030b0:	43 00 00 00 20 19 04 06 	addiu $4,$6,6432
  4030b8:	a2 00 00 00 5f 10 05 00 	lui $5,4191
  4030c0:	43 00 00 00 d0 29 05 05 	addiu $5,$5,10704
  4030c8:	2b 00 00 00 10 81 04 1c 	l.d $f4,-32496($28)
  4030d0:	42 00 00 00 00 07 14 00 	addu $7,$0,$20
  4030d8:	43 00 00 00 01 00 02 14 	addiu $2,$20,1
  4030e0:	4f 00 00 00 03 00 03 14 	andi $3,$20,3
  4030e8:	5b 00 00 00 00 02 02 10 	slt $2,$16,$2
  4030f0:	05 00 00 00 2e 00 00 02 	beq $2,$0,4031b0 <gridco_+0xe28>
  4030f8:	05 00 00 00 44 00 00 03 	beq $3,$0,403210 <gridco_+0xe88>
  403100:	5c 00 00 00 02 00 02 03 	slti $2,$3,2
  403108:	06 00 00 00 28 00 00 02 	bne $2,$0,4031b0 <gridco_+0xe28>
  403110:	5c 00 00 00 03 00 02 03 	slti $2,$3,3
  403118:	06 00 00 00 10 00 00 02 	bne $2,$0,403160 <gridco_+0xdd8>
  403120:	2b 00 00 00 00 00 00 05 	l.d $f0,0($5)
  403128:	75 00 00 00 00 00 04 00 	mul.d $f0,$f0,$f4
  403130:	a2 00 00 00 5f 10 01 00 	lui $1,4191
  403138:	2b 00 00 00 e0 29 02 01 	l.d $f2,10720($1)
  403140:	71 00 00 00 00 00 02 00 	add.d $f0,$f0,$f2
  403148:	43 00 00 00 28 19 04 06 	addiu $4,$6,6440
  403150:	43 00 00 00 02 00 10 00 	addiu $16,$0,2
  403158:	37 00 00 00 20 19 00 06 	s.d $f0,6432($6)
  403160:	a5 00 00 00 00 00 10 00 	mtc1 $16,$f0
  403168:	83 00 00 00 00 00 00 00 	cvt.d.w $f0,$f0
  403170:	73 00 00 00 00 00 04 00 	sub.d $f0,$f0,$f4
  403178:	2b 00 00 00 00 00 02 05 	l.d $f2,0($5)
  403180:	75 00 00 00 00 02 00 02 	mul.d $f2,$f2,$f0
  403188:	2b 00 00 00 10 00 00 05 	l.d $f0,16($5)
  403190:	71 00 00 00 00 02 00 02 	add.d $f2,$f2,$f0
  403198:	43 00 00 00 01 00 10 10 	addiu $16,$16,1
  4031a0:	37 00 00 00 00 00 02 04 	s.d $f2,0($4)
  4031a8:	43 00 00 00 08 00 04 04 	addiu $4,$4,8
  4031b0:	a5 00 00 00 00 00 10 00 	mtc1 $16,$f0
  4031b8:	83 00 00 00 00 00 00 00 	cvt.d.w $f0,$f0
  4031c0:	73 00 00 00 00 00 04 00 	sub.d $f0,$f0,$f4
  4031c8:	2b 00 00 00 00 00 02 05 	l.d $f2,0($5)
  4031d0:	75 00 00 00 00 02 00 02 	mul.d $f2,$f2,$f0
  4031d8:	2b 00 00 00 10 00 00 05 	l.d $f0,16($5)
  4031e0:	71 00 00 00 00 02 00 02 	add.d $f2,$f2,$f0
  4031e8:	43 00 00 00 01 00 10 10 	addiu $16,$16,1
  4031f0:	5b 00 00 00 00 02 10 07 	slt $2,$7,$16
  4031f8:	37 00 00 00 00 00 02 04 	s.d $f2,0($4)
  403200:	43 00 00 00 08 00 04 04 	addiu $4,$4,8
  403208:	06 00 00 00 50 00 00 02 	bne $2,$0,403350 <gridco_+0xfc8>
  403210:	42 00 00 00 00 03 04 00 	addu $3,$0,$4
  403218:	a5 00 00 00 00 00 10 02 	mtc1 $16,$f2
  403220:	83 00 00 00 00 02 00 02 	cvt.d.w $f2,$f2
  403228:	73 00 00 00 00 02 04 02 	sub.d $f2,$f2,$f4
  403230:	2b 00 00 00 00 00 00 05 	l.d $f0,0($5)
  403238:	75 00 00 00 00 00 02 00 	mul.d $f0,$f0,$f2
  403240:	2b 00 00 00 10 00 02 05 	l.d $f2,16($5)
  403248:	71 00 00 00 00 00 02 00 	add.d $f0,$f0,$f2
  403250:	43 00 00 00 01 00 02 10 	addiu $2,$16,1
  403258:	a5 00 00 00 00 00 02 02 	mtc1 $2,$f2
  403260:	83 00 00 00 00 02 00 02 	cvt.d.w $f2,$f2
  403268:	73 00 00 00 00 02 04 02 	sub.d $f2,$f2,$f4
  403270:	37 00 00 00 00 00 00 03 	s.d $f0,0($3)
  403278:	2b 00 00 00 00 00 00 05 	l.d $f0,0($5)
  403280:	75 00 00 00 00 00 02 00 	mul.d $f0,$f0,$f2
  403288:	2b 00 00 00 10 00 02 05 	l.d $f2,16($5)
  403290:	71 00 00 00 00 00 02 00 	add.d $f0,$f0,$f2
  403298:	43 00 00 00 02 00 02 10 	addiu $2,$16,2
  4032a0:	a5 00 00 00 00 00 02 02 	mtc1 $2,$f2
  4032a8:	83 00 00 00 00 02 00 02 	cvt.d.w $f2,$f2
  4032b0:	73 00 00 00 00 02 04 02 	sub.d $f2,$f2,$f4
  4032b8:	37 00 00 00 08 00 00 03 	s.d $f0,8($3)
  4032c0:	2b 00 00 00 00 00 00 05 	l.d $f0,0($5)
  4032c8:	75 00 00 00 00 00 02 00 	mul.d $f0,$f0,$f2
  4032d0:	2b 00 00 00 10 00 02 05 	l.d $f2,16($5)
  4032d8:	71 00 00 00 00 00 02 00 	add.d $f0,$f0,$f2
  4032e0:	43 00 00 00 03 00 02 10 	addiu $2,$16,3
  4032e8:	37 00 00 00 10 00 00 03 	s.d $f0,16($3)
  4032f0:	a5 00 00 00 00 00 02 00 	mtc1 $2,$f0
  4032f8:	83 00 00 00 00 00 00 00 	cvt.d.w $f0,$f0
  403300:	73 00 00 00 00 00 04 00 	sub.d $f0,$f0,$f4
  403308:	2b 00 00 00 00 00 02 05 	l.d $f2,0($5)
  403310:	75 00 00 00 00 02 00 02 	mul.d $f2,$f2,$f0
  403318:	2b 00 00 00 10 00 00 05 	l.d $f0,16($5)
  403320:	71 00 00 00 00 02 00 02 	add.d $f2,$f2,$f0
  403328:	43 00 00 00 04 00 10 10 	addiu $16,$16,4
  403330:	5b 00 00 00 00 02 10 07 	slt $2,$7,$16
  403338:	37 00 00 00 18 00 02 03 	s.d $f2,24($3)
  403340:	43 00 00 00 20 00 03 03 	addiu $3,$3,32
  403348:	05 00 00 00 b2 ff 00 02 	beq $2,$0,403218 <gridco_+0xe90>
  403350:	a2 00 00 00 5f 10 15 00 	lui $21,4191
  403358:	43 00 00 00 d0 29 15 15 	addiu $21,$21,10704
  403360:	2b 00 00 00 00 00 00 15 	l.d $f0,0($21)
  403368:	2b 00 00 00 10 81 02 1c 	l.d $f2,-32496($28)
  403370:	75 00 00 00 00 14 02 00 	mul.d $f20,$f0,$f2
  403378:	43 00 00 00 01 00 10 14 	addiu $16,$20,1
  403380:	5c 00 00 00 a1 00 02 10 	slti $2,$16,161
  403388:	05 00 00 00 06 01 00 02 	beq $2,$0,4037a8 <gridco_+0x1420>
  403390:	a2 00 00 00 5f 10 02 00 	lui $2,4191
  403398:	43 00 00 00 e0 68 02 02 	addiu $2,$2,26848
  4033a0:	55 00 00 00 03 03 10 00 	sll $3,$16,0x3
  4033a8:	42 00 00 00 00 12 02 03 	addu $18,$3,$2
  4033b0:	43 00 00 00 f8 ff 02 02 	addiu $2,$2,-8
  4033b8:	42 00 00 00 00 11 02 03 	addu $17,$3,$2
  4033c0:	43 00 00 00 20 00 13 15 	addiu $19,$21,32
  4033c8:	7b 00 00 00 00 16 00 02 	mov.d $f22,$f2
  4033d0:	43 00 00 00 a1 00 02 00 	addiu $2,$0,161
  4033d8:	45 00 00 00 00 02 10 02 	subu $2,$2,$16
  4033e0:	4f 00 00 00 03 00 03 02 	andi $3,$2,3
  4033e8:	05 00 00 00 6e 00 00 03 	beq $3,$0,4035a8 <gridco_+0x1220>
  4033f0:	5c 00 00 00 02 00 02 03 	slti $2,$3,2
  4033f8:	06 00 00 00 44 00 00 02 	bne $2,$0,403510 <gridco_+0x1188>
  403400:	5c 00 00 00 03 00 02 03 	slti $2,$3,3
  403408:	06 00 00 00 20 00 00 02 	bne $2,$0,403490 <gridco_+0x1108>
  403410:	42 00 00 00 00 04 13 00 	addu $4,$0,$19
  403418:	43 00 00 00 10 00 05 1d 	addiu $5,$29,16
  403420:	45 00 00 00 00 02 14 10 	subu $2,$16,$20
  403428:	34 00 00 00 10 00 02 1d 	sw $2,16($29)
  403430:	02 00 00 00 a0 6a 10 00 	jal 41aa80 <pow_di>
  403438:	2b 00 00 00 00 00 02 15 	l.d $f2,0($21)
  403440:	75 00 00 00 00 02 16 02 	mul.d $f2,$f2,$f22
  403448:	75 00 00 00 00 02 00 02 	mul.d $f2,$f2,$f0
  403450:	2b 00 00 00 00 00 00 11 	l.d $f0,0($17)
  403458:	71 00 00 00 00 00 14 00 	add.d $f0,$f0,$f20
  403460:	71 00 00 00 00 00 02 00 	add.d $f0,$f0,$f2
  403468:	43 00 00 00 01 00 10 10 	addiu $16,$16,1
  403470:	43 00 00 00 08 00 11 11 	addiu $17,$17,8
  403478:	7b 00 00 00 00 14 00 02 	mov.d $f20,$f2
  403480:	37 00 00 00 00 00 00 12 	s.d $f0,0($18)
  403488:	43 00 00 00 08 00 12 12 	addiu $18,$18,8
  403490:	42 00 00 00 00 04 13 00 	addu $4,$0,$19
  403498:	43 00 00 00 10 00 05 1d 	addiu $5,$29,16
  4034a0:	45 00 00 00 00 02 14 10 	subu $2,$16,$20
  4034a8:	34 00 00 00 10 00 02 1d 	sw $2,16($29)
  4034b0:	02 00 00 00 a0 6a 10 00 	jal 41aa80 <pow_di>
  4034b8:	2b 00 00 00 00 00 02 15 	l.d $f2,0($21)
  4034c0:	75 00 00 00 00 02 16 02 	mul.d $f2,$f2,$f22
  4034c8:	75 00 00 00 00 02 00 02 	mul.d $f2,$f2,$f0
  4034d0:	2b 00 00 00 00 00 00 11 	l.d $f0,0($17)
  4034d8:	71 00 00 00 00 00 14 00 	add.d $f0,$f0,$f20
  4034e0:	71 00 00 00 00 00 02 00 	add.d $f0,$f0,$f2
  4034e8:	43 00 00 00 01 00 10 10 	addiu $16,$16,1
  4034f0:	43 00 00 00 08 00 11 11 	addiu $17,$17,8
  4034f8:	7b 00 00 00 00 14 00 02 	mov.d $f20,$f2
  403500:	37 00 00 00 00 00 00 12 	s.d $f0,0($18)
  403508:	43 00 00 00 08 00 12 12 	addiu $18,$18,8
  403510:	42 00 00 00 00 04 13 00 	addu $4,$0,$19
  403518:	43 00 00 00 10 00 05 1d 	addiu $5,$29,16
  403520:	45 00 00 00 00 02 14 10 	subu $2,$16,$20
  403528:	34 00 00 00 10 00 02 1d 	sw $2,16($29)
  403530:	02 00 00 00 a0 6a 10 00 	jal 41aa80 <pow_di>
  403538:	a2 00 00 00 5f 10 01 00 	lui $1,4191
  403540:	2b 00 00 00 d0 29 02 01 	l.d $f2,10704($1)
  403548:	75 00 00 00 00 02 16 02 	mul.d $f2,$f2,$f22
  403550:	75 00 00 00 00 02 00 02 	mul.d $f2,$f2,$f0
  403558:	2b 00 00 00 00 00 00 11 	l.d $f0,0($17)
  403560:	71 00 00 00 00 00 14 00 	add.d $f0,$f0,$f20
  403568:	43 00 00 00 01 00 10 10 	addiu $16,$16,1
  403570:	71 00 00 00 00 00 02 00 	add.d $f0,$f0,$f2
  403578:	5c 00 00 00 a1 00 02 10 	slti $2,$16,161
  403580:	43 00 00 00 08 00 11 11 	addiu $17,$17,8
  403588:	7b 00 00 00 00 14 00 02 	mov.d $f20,$f2
  403590:	37 00 00 00 00 00 00 12 	s.d $f0,0($18)
  403598:	43 00 00 00 08 00 12 12 	addiu $18,$18,8
  4035a0:	05 00 00 00 80 00 00 02 	beq $2,$0,4037a8 <gridco_+0x1420>
  4035a8:	42 00 00 00 00 04 13 00 	addu $4,$0,$19
  4035b0:	43 00 00 00 10 00 05 1d 	addiu $5,$29,16
  4035b8:	45 00 00 00 00 02 14 10 	subu $2,$16,$20
  4035c0:	34 00 00 00 10 00 02 1d 	sw $2,16($29)
  4035c8:	02 00 00 00 a0 6a 10 00 	jal 41aa80 <pow_di>
  4035d0:	a2 00 00 00 5f 10 01 00 	lui $1,4191
  4035d8:	2b 00 00 00 d0 29 02 01 	l.d $f2,10704($1)
  4035e0:	75 00 00 00 00 02 16 02 	mul.d $f2,$f2,$f22
  4035e8:	75 00 00 00 00 02 00 02 	mul.d $f2,$f2,$f0
  4035f0:	2b 00 00 00 00 00 00 11 	l.d $f0,0($17)
  4035f8:	71 00 00 00 00 00 14 00 	add.d $f0,$f0,$f20
  403600:	42 00 00 00 00 04 13 00 	addu $4,$0,$19
  403608:	43 00 00 00 10 00 05 1d 	addiu $5,$29,16
  403610:	43 00 00 00 01 00 02 10 	addiu $2,$16,1
  403618:	71 00 00 00 00 00 02 00 	add.d $f0,$f0,$f2
  403620:	45 00 00 00 00 02 14 02 	subu $2,$2,$20
  403628:	34 00 00 00 10 00 02 1d 	sw $2,16($29)
  403630:	7b 00 00 00 00 14 00 02 	mov.d $f20,$f2
  403638:	37 00 00 00 00 00 00 12 	s.d $f0,0($18)
  403640:	02 00 00 00 a0 6a 10 00 	jal 41aa80 <pow_di>
  403648:	a2 00 00 00 5f 10 01 00 	lui $1,4191
  403650:	2b 00 00 00 d0 29 02 01 	l.d $f2,10704($1)
  403658:	75 00 00 00 00 02 16 02 	mul.d $f2,$f2,$f22
  403660:	75 00 00 00 00 02 00 02 	mul.d $f2,$f2,$f0
  403668:	2b 00 00 00 08 00 00 11 	l.d $f0,8($17)
  403670:	71 00 00 00 00 00 14 00 	add.d $f0,$f0,$f20
  403678:	42 00 00 00 00 04 13 00 	addu $4,$0,$19
  403680:	43 00 00 00 10 00 05 1d 	addiu $5,$29,16
  403688:	43 00 00 00 02 00 02 10 	addiu $2,$16,2
  403690:	71 00 00 00 00 00 02 00 	add.d $f0,$f0,$f2
  403698:	45 00 00 00 00 02 14 02 	subu $2,$2,$20
  4036a0:	34 00 00 00 10 00 02 1d 	sw $2,16($29)
  4036a8:	7b 00 00 00 00 14 00 02 	mov.d $f20,$f2
  4036b0:	37 00 00 00 08 00 00 12 	s.d $f0,8($18)
  4036b8:	02 00 00 00 a0 6a 10 00 	jal 41aa80 <pow_di>
  4036c0:	a2 00 00 00 5f 10 01 00 	lui $1,4191
  4036c8:	2b 00 00 00 d0 29 02 01 	l.d $f2,10704($1)
  4036d0:	75 00 00 00 00 02 16 02 	mul.d $f2,$f2,$f22
  4036d8:	75 00 00 00 00 02 00 02 	mul.d $f2,$f2,$f0
  4036e0:	2b 00 00 00 10 00 00 11 	l.d $f0,16($17)
  4036e8:	71 00 00 00 00 00 14 00 	add.d $f0,$f0,$f20
  4036f0:	42 00 00 00 00 04 13 00 	addu $4,$0,$19
  4036f8:	43 00 00 00 10 00 05 1d 	addiu $5,$29,16
  403700:	43 00 00 00 03 00 02 10 	addiu $2,$16,3
  403708:	71 00 00 00 00 00 02 00 	add.d $f0,$f0,$f2
  403710:	45 00 00 00 00 02 14 02 	subu $2,$2,$20
  403718:	34 00 00 00 10 00 02 1d 	sw $2,16($29)
  403720:	7b 00 00 00 00 14 00 02 	mov.d $f20,$f2
  403728:	37 00 00 00 10 00 00 12 	s.d $f0,16($18)
  403730:	02 00 00 00 a0 6a 10 00 	jal 41aa80 <pow_di>
  403738:	a2 00 00 00 5f 10 01 00 	lui $1,4191
  403740:	2b 00 00 00 d0 29 02 01 	l.d $f2,10704($1)
  403748:	75 00 00 00 00 02 16 02 	mul.d $f2,$f2,$f22
  403750:	75 00 00 00 00 02 00 02 	mul.d $f2,$f2,$f0
  403758:	2b 00 00 00 18 00 00 11 	l.d $f0,24($17)
  403760:	71 00 00 00 00 00 14 00 	add.d $f0,$f0,$f20
  403768:	43 00 00 00 04 00 10 10 	addiu $16,$16,4
  403770:	71 00 00 00 00 00 02 00 	add.d $f0,$f0,$f2
  403778:	5c 00 00 00 a1 00 02 10 	slti $2,$16,161
  403780:	43 00 00 00 20 00 11 11 	addiu $17,$17,32
  403788:	7b 00 00 00 00 14 00 02 	mov.d $f20,$f2
  403790:	37 00 00 00 18 00 00 12 	s.d $f0,24($18)
  403798:	43 00 00 00 20 00 12 12 	addiu $18,$18,32
  4037a0:	06 00 00 00 80 ff 00 02 	bne $2,$0,4035a8 <gridco_+0x1220>
  4037a8:	43 00 00 00 01 00 10 00 	addiu $16,$0,1
  4037b0:	a2 00 00 00 5f 10 02 00 	lui $2,4191
  4037b8:	43 00 00 00 e8 6d 02 02 	addiu $2,$2,28136
  4037c0:	43 00 00 00 08 00 05 02 	addiu $5,$2,8
  4037c8:	a2 00 00 00 5f 10 01 00 	lui $1,4191
  4037d0:	2b 00 00 00 e0 29 00 01 	l.d $f0,10720($1)
  4037d8:	42 00 00 00 00 03 02 00 	addu $3,$0,$2
  4037e0:	43 00 00 00 00 fb 04 03 	addiu $4,$3,-1280
  4037e8:	37 00 00 00 00 00 00 03 	s.d $f0,0($3)
  4037f0:	2b 00 00 00 00 00 00 04 	l.d $f0,0($4)
  4037f8:	71 00 00 00 00 00 00 00 	add.d $f0,$f0,$f0
  403800:	2b 00 00 00 00 00 02 03 	l.d $f2,0($3)
  403808:	73 00 00 00 00 00 02 00 	sub.d $f0,$f0,$f2
  403810:	37 00 00 00 00 00 00 05 	s.d $f0,0($5)
  403818:	2b 00 00 00 08 00 00 04 	l.d $f0,8($4)
  403820:	71 00 00 00 00 00 00 00 	add.d $f0,$f0,$f0
  403828:	2b 00 00 00 08 00 02 03 	l.d $f2,8($3)
  403830:	73 00 00 00 00 00 02 00 	sub.d $f0,$f0,$f2
  403838:	37 00 00 00 08 00 00 05 	s.d $f0,8($5)
  403840:	2b 00 00 00 10 00 00 04 	l.d $f0,16($4)
  403848:	71 00 00 00 00 00 00 00 	add.d $f0,$f0,$f0
  403850:	2b 00 00 00 10 00 02 03 	l.d $f2,16($3)
  403858:	73 00 00 00 00 00 02 00 	sub.d $f0,$f0,$f2
  403860:	37 00 00 00 10 00 00 05 	s.d $f0,16($5)
  403868:	2b 00 00 00 18 00 00 04 	l.d $f0,24($4)
  403870:	71 00 00 00 00 00 00 00 	add.d $f0,$f0,$f0
  403878:	2b 00 00 00 18 00 02 03 	l.d $f2,24($3)
  403880:	73 00 00 00 00 00 02 00 	sub.d $f0,$f0,$f2
  403888:	37 00 00 00 18 00 00 05 	s.d $f0,24($5)
  403890:	2b 00 00 00 20 00 02 04 	l.d $f2,32($4)
  403898:	71 00 00 00 00 02 02 02 	add.d $f2,$f2,$f2
  4038a0:	2b 00 00 00 20 00 00 03 	l.d $f0,32($3)
  4038a8:	43 00 00 00 05 00 10 10 	addiu $16,$16,5
  4038b0:	73 00 00 00 00 02 00 02 	sub.d $f2,$f2,$f0
  4038b8:	5c 00 00 00 a1 00 02 10 	slti $2,$16,161
  4038c0:	43 00 00 00 28 00 03 03 	addiu $3,$3,40
  4038c8:	43 00 00 00 28 00 04 04 	addiu $4,$4,40
  4038d0:	37 00 00 00 20 00 02 05 	s.d $f2,32($5)
  4038d8:	43 00 00 00 28 00 05 05 	addiu $5,$5,40
  4038e0:	06 00 00 00 c2 ff 00 02 	bne $2,$0,4037f0 <gridco_+0x1468>
  4038e8:	43 00 00 00 01 00 10 00 	addiu $16,$0,1
  4038f0:	a2 00 00 00 5f 10 02 00 	lui $2,4191
  4038f8:	43 00 00 00 e8 72 02 02 	addiu $2,$2,29416
  403900:	43 00 00 00 08 00 05 02 	addiu $5,$2,8
  403908:	43 00 00 00 00 fb 04 02 	addiu $4,$2,-1280
  403910:	43 00 00 00 08 fb 03 02 	addiu $3,$2,-1272
  403918:	2b 00 00 00 00 00 00 03 	l.d $f0,0($3)
  403920:	2b 00 00 00 00 00 02 04 	l.d $f2,0($4)
  403928:	73 00 00 00 00 00 02 00 	sub.d $f0,$f0,$f2
  403930:	37 00 00 00 00 00 00 05 	s.d $f0,0($5)
  403938:	2b 00 00 00 08 00 00 03 	l.d $f0,8($3)
  403940:	2b 00 00 00 08 00 02 04 	l.d $f2,8($4)
  403948:	73 00 00 00 00 00 02 00 	sub.d $f0,$f0,$f2
  403950:	37 00 00 00 08 00 00 05 	s.d $f0,8($5)
  403958:	2b 00 00 00 10 00 00 03 	l.d $f0,16($3)
  403960:	2b 00 00 00 10 00 02 04 	l.d $f2,16($4)
  403968:	73 00 00 00 00 00 02 00 	sub.d $f0,$f0,$f2
  403970:	37 00 00 00 10 00 00 05 	s.d $f0,16($5)
  403978:	2b 00 00 00 18 00 00 03 	l.d $f0,24($3)
  403980:	2b 00 00 00 18 00 02 04 	l.d $f2,24($4)
  403988:	73 00 00 00 00 00 02 00 	sub.d $f0,$f0,$f2
  403990:	37 00 00 00 18 00 00 05 	s.d $f0,24($5)
  403998:	2b 00 00 00 20 00 02 03 	l.d $f2,32($3)
  4039a0:	2b 00 00 00 20 00 00 04 	l.d $f0,32($4)
  4039a8:	43 00 00 00 05 00 10 10 	addiu $16,$16,5
  4039b0:	73 00 00 00 00 02 00 02 	sub.d $f2,$f2,$f0
  4039b8:	5c 00 00 00 a1 00 02 10 	slti $2,$16,161
  4039c0:	43 00 00 00 28 00 04 04 	addiu $4,$4,40
  4039c8:	43 00 00 00 28 00 03 03 	addiu $3,$3,40
  4039d0:	37 00 00 00 20 00 02 05 	s.d $f2,32($5)
  4039d8:	43 00 00 00 28 00 05 05 	addiu $5,$5,40
  4039e0:	06 00 00 00 cc ff 00 02 	bne $2,$0,403918 <gridco_+0x1590>
  4039e8:	43 00 00 00 01 00 10 00 	addiu $16,$0,1
  4039f0:	a2 00 00 00 5f 10 02 00 	lui $2,4191
  4039f8:	43 00 00 00 f0 77 02 02 	addiu $2,$2,30704
  403a00:	43 00 00 00 08 05 09 02 	addiu $9,$2,1288
  403a08:	43 00 00 00 00 f1 03 02 	addiu $3,$2,-3840
  403a10:	42 00 00 00 00 06 03 00 	addu $6,$0,$3
  403a18:	43 00 00 00 f8 f0 03 02 	addiu $3,$2,-3848
  403a20:	43 00 00 00 00 f6 08 02 	addiu $8,$2,-2560
  403a28:	43 00 00 00 08 00 07 02 	addiu $7,$2,8
  403a30:	42 00 00 00 00 05 03 00 	addu $5,$0,$3
  403a38:	42 00 00 00 00 04 06 00 	addu $4,$0,$6
  403a40:	2b 00 00 00 00 00 00 04 	l.d $f0,0($4)
  403a48:	2b 00 00 00 00 00 02 05 	l.d $f2,0($5)
  403a50:	73 00 00 00 00 00 02 00 	sub.d $f0,$f0,$f2
  403a58:	37 00 00 00 00 00 00 07 	s.d $f0,0($7)
  403a60:	2b 00 00 00 00 00 02 08 	l.d $f2,0($8)
  403a68:	2b 00 00 00 00 00 04 03 	l.d $f4,0($3)
  403a70:	73 00 00 00 00 02 04 02 	sub.d $f2,$f2,$f4
  403a78:	2b 00 00 00 00 00 00 06 	l.d $f0,0($6)
  403a80:	73 00 00 00 00 00 04 00 	sub.d $f0,$f0,$f4
  403a88:	77 00 00 00 00 02 00 02 	div.d $f2,$f2,$f0
  403a90:	37 00 00 00 00 00 02 09 	s.d $f2,0($9)
  403a98:	2b 00 00 00 08 00 00 04 	l.d $f0,8($4)
  403aa0:	2b 00 00 00 08 00 02 05 	l.d $f2,8($5)
  403aa8:	73 00 00 00 00 00 02 00 	sub.d $f0,$f0,$f2
  403ab0:	37 00 00 00 08 00 00 07 	s.d $f0,8($7)
  403ab8:	2b 00 00 00 08 00 02 08 	l.d $f2,8($8)
  403ac0:	2b 00 00 00 08 00 04 03 	l.d $f4,8($3)
  403ac8:	73 00 00 00 00 02 04 02 	sub.d $f2,$f2,$f4
  403ad0:	2b 00 00 00 08 00 00 06 	l.d $f0,8($6)
  403ad8:	73 00 00 00 00 00 04 00 	sub.d $f0,$f0,$f4
  403ae0:	77 00 00 00 00 02 00 02 	div.d $f2,$f2,$f0
  403ae8:	37 00 00 00 08 00 02 09 	s.d $f2,8($9)
  403af0:	2b 00 00 00 10 00 00 04 	l.d $f0,16($4)
  403af8:	2b 00 00 00 10 00 02 05 	l.d $f2,16($5)
  403b00:	73 00 00 00 00 00 02 00 	sub.d $f0,$f0,$f2
  403b08:	37 00 00 00 10 00 00 07 	s.d $f0,16($7)
  403b10:	2b 00 00 00 10 00 04 08 	l.d $f4,16($8)
  403b18:	2b 00 00 00 10 00 02 03 	l.d $f2,16($3)
  403b20:	73 00 00 00 00 04 02 04 	sub.d $f4,$f4,$f2
  403b28:	2b 00 00 00 10 00 00 06 	l.d $f0,16($6)
  403b30:	73 00 00 00 00 00 02 00 	sub.d $f0,$f0,$f2
  403b38:	77 00 00 00 00 04 00 04 	div.d $f4,$f4,$f0
  403b40:	43 00 00 00 03 00 10 10 	addiu $16,$16,3
  403b48:	5c 00 00 00 a0 00 02 10 	slti $2,$16,160
  403b50:	43 00 00 00 18 00 04 04 	addiu $4,$4,24
  403b58:	43 00 00 00 18 00 05 05 	addiu $5,$5,24
  403b60:	43 00 00 00 18 00 07 07 	addiu $7,$7,24
  403b68:	43 00 00 00 18 00 06 06 	addiu $6,$6,24
  403b70:	43 00 00 00 18 00 03 03 	addiu $3,$3,24
  403b78:	43 00 00 00 18 00 08 08 	addiu $8,$8,24
  403b80:	37 00 00 00 10 00 04 09 	s.d $f4,16($9)
  403b88:	43 00 00 00 18 00 09 09 	addiu $9,$9,24
  403b90:	06 00 00 00 aa ff 00 02 	bne $2,$0,403a40 <gridco_+0x16b8>
  403b98:	a2 00 00 00 5f 10 01 00 	lui $1,4191
  403ba0:	2b 00 00 00 f8 77 00 01 	l.d $f0,30712($1)
  403ba8:	a2 00 00 00 5f 10 01 00 	lui $1,4191
  403bb0:	2b 00 00 00 e8 7c 02 01 	l.d $f2,31976($1)
  403bb8:	42 00 00 00 00 02 00 00 	addu $2,$0,$0
  403bc0:	a2 00 00 00 5f 10 01 00 	lui $1,4191
  403bc8:	37 00 00 00 f0 77 00 01 	s.d $f0,30704($1)
  403bd0:	a2 00 00 00 5f 10 01 00 	lui $1,4191
  403bd8:	37 00 00 00 f0 7c 02 01 	s.d $f2,31984($1)
  403be0:	28 00 00 00 34 00 1f 1d 	lw $31,52($29)
  403be8:	28 00 00 00 30 00 16 1d 	lw $22,48($29)
  403bf0:	28 00 00 00 2c 00 15 1d 	lw $21,44($29)
  403bf8:	28 00 00 00 28 00 14 1d 	lw $20,40($29)
  403c00:	28 00 00 00 24 00 13 1d 	lw $19,36($29)
  403c08:	28 00 00 00 20 00 12 1d 	lw $18,32($29)
  403c10:	28 00 00 00 1c 00 11 1d 	lw $17,28($29)
  403c18:	28 00 00 00 18 00 10 1d 	lw $16,24($29)
  403c20:	2b 00 00 00 40 00 16 1d 	l.d $f22,64($29)
  403c28:	2b 00 00 00 38 00 14 1d 	l.d $f20,56($29)
  403c30:	43 00 00 00 48 00 1d 1d 	addiu $29,$29,72
  403c38:	03 00 00 00 00 00 00 1f 	jr $31

00403c40 <tistep_>:
  403c40:	43 00 00 00 88 ff 1d 1d 	addiu $29,$29,-120
  403c48:	a2 00 00 00 5f 10 02 00 	lui $2,4191
  403c50:	43 00 00 00 8c 29 02 02 	addiu $2,$2,10636
  403c58:	34 00 00 00 44 00 1f 1d 	sw $31,68($29)
  403c60:	34 00 00 00 40 00 1e 1d 	sw $30,64($29)
  403c68:	34 00 00 00 3c 00 17 1d 	sw $23,60($29)
  403c70:	34 00 00 00 38 00 16 1d 	sw $22,56($29)
  403c78:	34 00 00 00 34 00 15 1d 	sw $21,52($29)
  403c80:	34 00 00 00 30 00 14 1d 	sw $20,48($29)
  403c88:	34 00 00 00 2c 00 13 1d 	sw $19,44($29)
  403c90:	34 00 00 00 28 00 12 1d 	sw $18,40($29)
  403c98:	34 00 00 00 24 00 11 1d 	sw $17,36($29)
  403ca0:	34 00 00 00 20 00 10 1d 	sw $16,32($29)
  403ca8:	37 00 00 00 70 00 1e 1d 	s.d $f30,112($29)
  403cb0:	37 00 00 00 68 00 1c 1d 	s.d $f28,104($29)
  403cb8:	37 00 00 00 60 00 1a 1d 	s.d $f26,96($29)
  403cc0:	37 00 00 00 58 00 18 1d 	s.d $f24,88($29)
  403cc8:	37 00 00 00 50 00 16 1d 	s.d $f22,80($29)
  403cd0:	37 00 00 00 48 00 14 1d 	s.d $f20,72($29)
  403cd8:	28 00 00 00 00 00 14 02 	lw $20,0($2)
  403ce0:	43 00 00 00 01 00 13 00 	addiu $19,$0,1
  403ce8:	07 00 00 00 b4 00 00 14 	blez $20,403fc0 <tistep_+0x380>
  403cf0:	43 00 00 00 f8 ff 0c 02 	addiu $12,$2,-8
  403cf8:	a2 00 00 00 00 10 0b 00 	lui $11,4096
  403d00:	43 00 00 00 78 57 0b 0b 	addiu $11,$11,22392
  403d08:	a2 00 00 00 4f 10 08 00 	lui $8,4175
  403d10:	43 00 00 00 80 22 08 08 	addiu $8,$8,8832
  403d18:	43 00 00 00 f0 ff 0a 08 	addiu $10,$8,-16
  403d20:	a2 00 00 00 20 10 09 00 	lui $9,4128
  403d28:	43 00 00 00 d8 05 09 09 	addiu $9,$9,1496
  403d30:	a5 00 00 00 00 00 00 08 	mtc1 $0,$f8
  403d38:	a5 00 00 00 00 00 00 09 	mtc1 $0,$f9
  403d40:	43 00 00 00 92 01 07 00 	addiu $7,$0,402
  403d48:	28 00 00 00 00 00 03 0c 	lw $3,0($12)
  403d50:	43 00 00 00 02 00 11 00 	addiu $17,$0,2
  403d58:	5c 00 00 00 02 00 02 03 	slti $2,$3,2
  403d60:	34 00 00 00 10 00 03 1d 	sw $3,16($29)
  403d68:	06 00 00 00 8c 00 00 02 	bne $2,$0,403fa0 <tistep_+0x360>
  403d70:	42 00 00 00 00 06 07 00 	addu $6,$0,$7
  403d78:	2b 00 00 00 18 81 06 1c 	l.d $f6,-32488($28)
  403d80:	42 00 00 00 00 05 03 00 	addu $5,$0,$3
  403d88:	43 00 00 00 01 00 03 05 	addiu $3,$5,1
  403d90:	43 00 00 00 ff ff 02 05 	addiu $2,$5,-1
  403d98:	4f 00 00 00 01 00 02 02 	andi $2,$2,1
  403da0:	5b 00 00 00 00 03 03 11 	slt $3,$17,$3
  403da8:	05 00 00 00 02 00 00 03 	beq $3,$0,403db8 <tistep_+0x178>
  403db0:	05 00 00 00 2a 00 00 02 	beq $2,$0,403e60 <tistep_+0x220>
  403db8:	43 00 00 00 02 00 03 07 	addiu $3,$7,2
  403dc0:	55 00 00 00 03 03 03 00 	sll $3,$3,0x3
  403dc8:	42 00 00 00 00 02 08 03 	addu $2,$3,$8
  403dd0:	42 00 00 00 00 04 0a 03 	addu $4,$3,$10
  403dd8:	2b 00 00 00 00 00 02 02 	l.d $f2,0($2)
  403de0:	2b 00 00 00 00 00 00 04 	l.d $f0,0($4)
  403de8:	73 00 00 00 00 02 00 02 	sub.d $f2,$f2,$f0
  403df0:	42 00 00 00 00 02 09 03 	addu $2,$3,$9
  403df8:	2b 00 00 00 00 00 04 02 	l.d $f4,0($2)
  403e00:	95 00 00 00 00 00 02 08 	c.le.d $f8,$f2
  403e08:	42 00 00 00 00 03 0b 03 	addu $3,$3,$11
  403e10:	0b 00 00 00 04 00 00 00 	bc1f 403e28 <tistep_+0x1e8>
  403e18:	75 00 00 00 00 00 06 02 	mul.d $f0,$f2,$f6
  403e20:	01 00 00 00 8e 0f 10 00 	j 403e38 <tistep_+0x1f8>
  403e28:	7d 00 00 00 00 00 00 02 	neg.d $f0,$f2
  403e30:	75 00 00 00 00 00 06 00 	mul.d $f0,$f0,$f6
  403e38:	77 00 00 00 00 00 04 00 	div.d $f0,$f0,$f4
  403e40:	37 00 00 00 00 00 00 03 	s.d $f0,0($3)
  403e48:	43 00 00 00 01 00 11 11 	addiu $17,$17,1
  403e50:	5b 00 00 00 00 02 11 05 	slt $2,$5,$17
  403e58:	06 00 00 00 50 00 00 02 	bne $2,$0,403fa0 <tistep_+0x360>
  403e60:	42 00 00 00 00 03 11 06 	addu $3,$6,$17
  403e68:	55 00 00 00 03 03 03 00 	sll $3,$3,0x3
  403e70:	42 00 00 00 00 02 08 03 	addu $2,$3,$8
  403e78:	42 00 00 00 00 04 0a 03 	addu $4,$3,$10
  403e80:	2b 00 00 00 00 00 02 02 	l.d $f2,0($2)
  403e88:	2b 00 00 00 00 00 00 04 	l.d $f0,0($4)
  403e90:	73 00 00 00 00 02 00 02 	sub.d $f2,$f2,$f0
  403e98:	42 00 00 00 00 02 09 03 	addu $2,$3,$9
  403ea0:	2b 00 00 00 00 00 04 02 	l.d $f4,0($2)
  403ea8:	95 00 00 00 00 00 02 08 	c.le.d $f8,$f2
  403eb0:	42 00 00 00 00 03 0b 03 	addu $3,$3,$11
  403eb8:	0b 00 00 00 04 00 00 00 	bc1f 403ed0 <tistep_+0x290>
  403ec0:	75 00 00 00 00 00 06 02 	mul.d $f0,$f2,$f6
  403ec8:	01 00 00 00 b8 0f 10 00 	j 403ee0 <tistep_+0x2a0>
  403ed0:	7d 00 00 00 00 00 00 02 	neg.d $f0,$f2
  403ed8:	75 00 00 00 00 00 06 00 	mul.d $f0,$f0,$f6
  403ee0:	77 00 00 00 00 00 04 00 	div.d $f0,$f0,$f4
  403ee8:	37 00 00 00 00 00 00 03 	s.d $f0,0($3)
  403ef0:	43 00 00 00 01 00 03 11 	addiu $3,$17,1
  403ef8:	42 00 00 00 00 03 03 06 	addu $3,$6,$3
  403f00:	55 00 00 00 03 03 03 00 	sll $3,$3,0x3
  403f08:	42 00 00 00 00 02 08 03 	addu $2,$3,$8
  403f10:	42 00 00 00 00 04 0a 03 	addu $4,$3,$10
  403f18:	2b 00 00 00 00 00 02 02 	l.d $f2,0($2)
  403f20:	2b 00 00 00 00 00 00 04 	l.d $f0,0($4)
  403f28:	73 00 00 00 00 02 00 02 	sub.d $f2,$f2,$f0
  403f30:	42 00 00 00 00 02 09 03 	addu $2,$3,$9
  403f38:	2b 00 00 00 00 00 04 02 	l.d $f4,0($2)
  403f40:	95 00 00 00 00 00 02 08 	c.le.d $f8,$f2
  403f48:	42 00 00 00 00 03 0b 03 	addu $3,$3,$11
  403f50:	0b 00 00 00 04 00 00 00 	bc1f 403f68 <tistep_+0x328>
  403f58:	75 00 00 00 00 00 06 02 	mul.d $f0,$f2,$f6
  403f60:	01 00 00 00 de 0f 10 00 	j 403f78 <tistep_+0x338>
  403f68:	7d 00 00 00 00 00 00 02 	neg.d $f0,$f2
  403f70:	75 00 00 00 00 00 06 00 	mul.d $f0,$f0,$f6
  403f78:	77 00 00 00 00 00 04 00 	div.d $f0,$f0,$f4
  403f80:	37 00 00 00 00 00 00 03 	s.d $f0,0($3)
  403f88:	43 00 00 00 02 00 11 11 	addiu $17,$17,2
  403f90:	5b 00 00 00 00 02 11 05 	slt $2,$5,$17
  403f98:	05 00 00 00 b0 ff 00 02 	beq $2,$0,403e60 <tistep_+0x220>
  403fa0:	43 00 00 00 92 01 07 07 	addiu $7,$7,402
  403fa8:	43 00 00 00 01 00 13 13 	addiu $19,$19,1
  403fb0:	5b 00 00 00 00 02 13 14 	slt $2,$20,$19
  403fb8:	05 00 00 00 62 ff 00 02 	beq $2,$0,403d48 <tistep_+0x108>
  403fc0:	a2 00 00 00 5f 10 05 00 	lui $5,4191
  403fc8:	28 00 00 00 8c 29 05 05 	lw $5,10636($5)
  403fd0:	43 00 00 00 01 00 13 00 	addiu $19,$0,1
  403fd8:	34 00 00 00 10 00 05 1d 	sw $5,16($29)
  403fe0:	07 00 00 00 76 00 00 05 	blez $5,4041c0 <tistep_+0x580>
  403fe8:	a5 00 00 00 00 00 00 06 	mtc1 $0,$f6
  403ff0:	a5 00 00 00 00 00 00 07 	mtc1 $0,$f7
  403ff8:	a2 00 00 00 00 10 02 00 	lui $2,4096
  404000:	43 00 00 00 80 57 02 02 	addiu $2,$2,22400
  404008:	43 00 00 00 f8 ff 0d 02 	addiu $13,$2,-8
  404010:	a2 00 00 00 4f 10 03 00 	lui $3,4175
  404018:	43 00 00 00 88 22 03 03 	addiu $3,$3,8840
  404020:	43 00 00 00 f0 ff 0a 03 	addiu $10,$3,-16
  404028:	a2 00 00 00 20 10 04 00 	lui $4,4128
  404030:	43 00 00 00 e0 05 04 04 	addiu $4,$4,1504
  404038:	43 00 00 00 f8 ff 0c 04 	addiu $12,$4,-8
  404040:	42 00 00 00 00 0b 05 00 	addu $11,$0,$5
  404048:	43 00 00 00 92 01 06 00 	addiu $6,$0,402
  404050:	43 00 00 00 90 0c 05 02 	addiu $5,$2,3216
  404058:	43 00 00 00 90 0c 09 04 	addiu $9,$4,3216
  404060:	43 00 00 00 88 0c 08 03 	addiu $8,$3,3208
  404068:	43 00 00 00 90 0c 07 03 	addiu $7,$3,3216
  404070:	2b 00 00 00 00 00 02 07 	l.d $f2,0($7)
  404078:	2b 00 00 00 00 00 00 08 	l.d $f0,0($8)
  404080:	73 00 00 00 00 02 00 02 	sub.d $f2,$f2,$f0
  404088:	2b 00 00 00 00 00 04 09 	l.d $f4,0($9)
  404090:	95 00 00 00 00 00 02 06 	c.le.d $f6,$f2
  404098:	0b 00 00 00 04 00 00 00 	bc1f 4040b0 <tistep_+0x470>
  4040a0:	77 00 00 00 00 00 04 02 	div.d $f0,$f2,$f4
  4040a8:	01 00 00 00 30 10 10 00 	j 4040c0 <tistep_+0x480>
  4040b0:	7d 00 00 00 00 00 00 02 	neg.d $f0,$f2
  4040b8:	77 00 00 00 00 00 04 00 	div.d $f0,$f0,$f4
  4040c0:	37 00 00 00 00 00 00 05 	s.d $f0,0($5)
  4040c8:	a2 00 00 00 5f 10 03 00 	lui $3,4191
  4040d0:	28 00 00 00 80 29 03 03 	lw $3,10624($3)
  4040d8:	a2 00 00 00 5f 10 02 00 	lui $2,4191
  4040e0:	28 00 00 00 84 29 02 02 	lw $2,10628($2)
  4040e8:	42 00 00 00 00 03 03 06 	addu $3,$6,$3
  4040f0:	55 00 00 00 03 03 03 00 	sll $3,$3,0x3
  4040f8:	42 00 00 00 00 04 0a 03 	addu $4,$3,$10
  404100:	42 00 00 00 00 02 02 06 	addu $2,$6,$2
  404108:	55 00 00 00 03 02 02 00 	sll $2,$2,0x3
  404110:	42 00 00 00 00 02 0a 02 	addu $2,$2,$10
  404118:	2b 00 00 00 00 00 02 04 	l.d $f2,0($4)
  404120:	2b 00 00 00 00 00 00 02 	l.d $f0,0($2)
  404128:	73 00 00 00 00 02 00 02 	sub.d $f2,$f2,$f0
  404130:	42 00 00 00 00 02 0c 03 	addu $2,$3,$12
  404138:	2b 00 00 00 00 00 04 02 	l.d $f4,0($2)
  404140:	95 00 00 00 00 00 02 06 	c.le.d $f6,$f2
  404148:	42 00 00 00 00 03 0d 03 	addu $3,$3,$13
  404150:	0b 00 00 00 04 00 00 00 	bc1f 404168 <tistep_+0x528>
  404158:	77 00 00 00 00 00 04 02 	div.d $f0,$f2,$f4
  404160:	01 00 00 00 5e 10 10 00 	j 404178 <tistep_+0x538>
  404168:	7d 00 00 00 00 00 00 02 	neg.d $f0,$f2
  404170:	77 00 00 00 00 00 04 00 	div.d $f0,$f0,$f4
  404178:	37 00 00 00 00 00 00 03 	s.d $f0,0($3)
  404180:	43 00 00 00 92 01 06 06 	addiu $6,$6,402
  404188:	43 00 00 00 90 0c 05 05 	addiu $5,$5,3216
  404190:	43 00 00 00 90 0c 09 09 	addiu $9,$9,3216
  404198:	43 00 00 00 90 0c 08 08 	addiu $8,$8,3216
  4041a0:	43 00 00 00 90 0c 07 07 	addiu $7,$7,3216
  4041a8:	43 00 00 00 01 00 13 13 	addiu $19,$19,1
  4041b0:	5b 00 00 00 00 02 13 0b 	slt $2,$11,$19
  4041b8:	05 00 00 00 ac ff 00 02 	beq $2,$0,404070 <tistep_+0x430>
  4041c0:	a2 00 00 00 5f 10 03 00 	lui $3,4191
  4041c8:	43 00 00 00 90 29 03 03 	addiu $3,$3,10640
  4041d0:	28 00 00 00 00 00 02 03 	lw $2,0($3)
  4041d8:	43 00 00 00 02 00 13 00 	addiu $19,$0,2
  4041e0:	34 00 00 00 10 00 02 1d 	sw $2,16($29)
  4041e8:	5c 00 00 00 02 00 02 02 	slti $2,$2,2
  4041f0:	06 00 00 00 ae 00 00 02 	bne $2,$0,4044b0 <tistep_+0x870>
  4041f8:	43 00 00 00 f0 ff 0b 03 	addiu $11,$3,-16
  404200:	a2 00 00 00 08 10 0a 00 	lui $10,4104
  404208:	43 00 00 00 78 31 0a 0a 	addiu $10,$10,12664
  404210:	a2 00 00 00 4f 10 07 00 	lui $7,4175
  404218:	43 00 00 00 08 2f 07 07 	addiu $7,$7,12040
  404220:	43 00 00 00 e0 e6 09 07 	addiu $9,$7,-6432
  404228:	a2 00 00 00 20 10 08 00 	lui $8,4128
  404230:	43 00 00 00 d8 05 08 08 	addiu $8,$8,1496
  404238:	a5 00 00 00 00 00 00 08 	mtc1 $0,$f8
  404240:	a5 00 00 00 00 00 00 09 	mtc1 $0,$f9
  404248:	43 00 00 00 24 03 05 00 	addiu $5,$0,804
  404250:	28 00 00 00 00 00 14 0b 	lw $20,0($11)
  404258:	43 00 00 00 01 00 11 00 	addiu $17,$0,1
  404260:	07 00 00 00 88 00 00 14 	blez $20,404488 <tistep_+0x848>
  404268:	42 00 00 00 00 06 05 00 	addu $6,$0,$5
  404270:	2b 00 00 00 18 81 06 1c 	l.d $f6,-32488($28)
  404278:	43 00 00 00 01 00 02 14 	addiu $2,$20,1
  404280:	4f 00 00 00 01 00 03 14 	andi $3,$20,1
  404288:	5b 00 00 00 00 02 02 11 	slt $2,$17,$2
  404290:	05 00 00 00 02 00 00 02 	beq $2,$0,4042a0 <tistep_+0x660>
  404298:	05 00 00 00 2a 00 00 03 	beq $3,$0,404348 <tistep_+0x708>
  4042a0:	43 00 00 00 01 00 03 05 	addiu $3,$5,1
  4042a8:	55 00 00 00 03 03 03 00 	sll $3,$3,0x3
  4042b0:	42 00 00 00 00 02 07 03 	addu $2,$3,$7
  4042b8:	42 00 00 00 00 04 09 03 	addu $4,$3,$9
  4042c0:	2b 00 00 00 00 00 02 02 	l.d $f2,0($2)
  4042c8:	2b 00 00 00 00 00 00 04 	l.d $f0,0($4)
  4042d0:	73 00 00 00 00 02 00 02 	sub.d $f2,$f2,$f0
  4042d8:	42 00 00 00 00 02 08 03 	addu $2,$3,$8
  4042e0:	2b 00 00 00 00 00 04 02 	l.d $f4,0($2)
  4042e8:	95 00 00 00 00 00 02 08 	c.le.d $f8,$f2
  4042f0:	42 00 00 00 00 03 0a 03 	addu $3,$3,$10
  4042f8:	0b 00 00 00 04 00 00 00 	bc1f 404310 <tistep_+0x6d0>
  404300:	75 00 00 00 00 00 06 02 	mul.d $f0,$f2,$f6
  404308:	01 00 00 00 c8 10 10 00 	j 404320 <tistep_+0x6e0>
  404310:	7d 00 00 00 00 00 00 02 	neg.d $f0,$f2
  404318:	75 00 00 00 00 00 06 00 	mul.d $f0,$f0,$f6
  404320:	77 00 00 00 00 00 04 00 	div.d $f0,$f0,$f4
  404328:	37 00 00 00 00 00 00 03 	s.d $f0,0($3)
  404330:	43 00 00 00 01 00 11 11 	addiu $17,$17,1
  404338:	5b 00 00 00 00 02 11 14 	slt $2,$20,$17
  404340:	06 00 00 00 50 00 00 02 	bne $2,$0,404488 <tistep_+0x848>
  404348:	42 00 00 00 00 03 11 06 	addu $3,$6,$17
  404350:	55 00 00 00 03 03 03 00 	sll $3,$3,0x3
  404358:	42 00 00 00 00 02 07 03 	addu $2,$3,$7
  404360:	42 00 00 00 00 04 09 03 	addu $4,$3,$9
  404368:	2b 00 00 00 00 00 02 02 	l.d $f2,0($2)
  404370:	2b 00 00 00 00 00 00 04 	l.d $f0,0($4)
  404378:	73 00 00 00 00 02 00 02 	sub.d $f2,$f2,$f0
  404380:	42 00 00 00 00 02 08 03 	addu $2,$3,$8
  404388:	2b 00 00 00 00 00 04 02 	l.d $f4,0($2)
  404390:	95 00 00 00 00 00 02 08 	c.le.d $f8,$f2
  404398:	42 00 00 00 00 03 0a 03 	addu $3,$3,$10
  4043a0:	0b 00 00 00 04 00 00 00 	bc1f 4043b8 <tistep_+0x778>
  4043a8:	75 00 00 00 00 00 06 02 	mul.d $f0,$f2,$f6
  4043b0:	01 00 00 00 f2 10 10 00 	j 4043c8 <tistep_+0x788>
  4043b8:	7d 00 00 00 00 00 00 02 	neg.d $f0,$f2
  4043c0:	75 00 00 00 00 00 06 00 	mul.d $f0,$f0,$f6
  4043c8:	77 00 00 00 00 00 04 00 	div.d $f0,$f0,$f4
  4043d0:	37 00 00 00 00 00 00 03 	s.d $f0,0($3)
  4043d8:	43 00 00 00 01 00 03 11 	addiu $3,$17,1
  4043e0:	42 00 00 00 00 03 03 06 	addu $3,$6,$3
  4043e8:	55 00 00 00 03 03 03 00 	sll $3,$3,0x3
  4043f0:	42 00 00 00 00 02 07 03 	addu $2,$3,$7
  4043f8:	42 00 00 00 00 04 09 03 	addu $4,$3,$9
  404400:	2b 00 00 00 00 00 02 02 	l.d $f2,0($2)
  404408:	2b 00 00 00 00 00 00 04 	l.d $f0,0($4)
  404410:	73 00 00 00 00 02 00 02 	sub.d $f2,$f2,$f0
  404418:	42 00 00 00 00 02 08 03 	addu $2,$3,$8
  404420:	2b 00 00 00 00 00 04 02 	l.d $f4,0($2)
  404428:	95 00 00 00 00 00 02 08 	c.le.d $f8,$f2
  404430:	42 00 00 00 00 03 0a 03 	addu $3,$3,$10
  404438:	0b 00 00 00 04 00 00 00 	bc1f 404450 <tistep_+0x810>
  404440:	75 00 00 00 00 00 06 02 	mul.d $f0,$f2,$f6
  404448:	01 00 00 00 18 11 10 00 	j 404460 <tistep_+0x820>
  404450:	7d 00 00 00 00 00 00 02 	neg.d $f0,$f2
  404458:	75 00 00 00 00 00 06 00 	mul.d $f0,$f0,$f6
  404460:	77 00 00 00 00 00 04 00 	div.d $f0,$f0,$f4
  404468:	37 00 00 00 00 00 00 03 	s.d $f0,0($3)
  404470:	43 00 00 00 02 00 11 11 	addiu $17,$17,2
  404478:	5b 00 00 00 00 02 11 14 	slt $2,$20,$17
  404480:	05 00 00 00 b0 ff 00 02 	beq $2,$0,404348 <tistep_+0x708>
  404488:	28 00 00 00 10 00 02 1d 	lw $2,16($29)
  404490:	43 00 00 00 92 01 05 05 	addiu $5,$5,402
  404498:	43 00 00 00 01 00 13 13 	addiu $19,$19,1
  4044a0:	5b 00 00 00 00 02 13 02 	slt $2,$2,$19
  4044a8:	05 00 00 00 68 ff 00 02 	beq $2,$0,404250 <tistep_+0x610>
  4044b0:	a2 00 00 00 5f 10 14 00 	lui $20,4191
  4044b8:	28 00 00 00 80 29 14 14 	lw $20,10624($20)
  4044c0:	43 00 00 00 01 00 11 00 	addiu $17,$0,1
  4044c8:	07 00 00 00 8c 00 00 14 	blez $20,404700 <tistep_+0xac0>
  4044d0:	a5 00 00 00 00 00 00 06 	mtc1 $0,$f6
  4044d8:	a5 00 00 00 00 00 00 07 	mtc1 $0,$f7
  4044e0:	a2 00 00 00 08 10 02 00 	lui $2,4104
  4044e8:	43 00 00 00 08 3e 02 02 	addiu $2,$2,15880
  4044f0:	43 00 00 00 70 f3 0c 02 	addiu $12,$2,-3216
  4044f8:	a2 00 00 00 4f 10 03 00 	lui $3,4175
  404500:	43 00 00 00 98 3b 03 03 	addiu $3,$3,15256
  404508:	43 00 00 00 e0 e6 0a 03 	addiu $10,$3,-6432
  404510:	a2 00 00 00 20 10 04 00 	lui $4,4128
  404518:	43 00 00 00 68 12 04 04 	addiu $4,$4,4712
  404520:	43 00 00 00 70 f3 0b 04 	addiu $11,$4,-3216
  404528:	43 00 00 00 08 00 06 02 	addiu $6,$2,8
  404530:	43 00 00 00 08 00 09 04 	addiu $9,$4,8
  404538:	43 00 00 00 78 f3 08 03 	addiu $8,$3,-3208
  404540:	43 00 00 00 08 00 07 03 	addiu $7,$3,8
  404548:	2b 00 00 00 00 00 02 07 	l.d $f2,0($7)
  404550:	2b 00 00 00 00 00 00 08 	l.d $f0,0($8)
  404558:	73 00 00 00 00 02 00 02 	sub.d $f2,$f2,$f0
  404560:	2b 00 00 00 00 00 04 09 	l.d $f4,0($9)
  404568:	95 00 00 00 00 00 02 06 	c.le.d $f6,$f2
  404570:	0b 00 00 00 04 00 00 00 	bc1f 404588 <tistep_+0x948>
  404578:	77 00 00 00 00 00 04 02 	div.d $f0,$f2,$f4
  404580:	01 00 00 00 66 11 10 00 	j 404598 <tistep_+0x958>
  404588:	7d 00 00 00 00 00 00 02 	neg.d $f0,$f2
  404590:	77 00 00 00 00 00 04 00 	div.d $f0,$f0,$f4
  404598:	37 00 00 00 00 00 00 06 	s.d $f0,0($6)
  4045a0:	a2 00 00 00 5f 10 02 00 	lui $2,4191
  4045a8:	28 00 00 00 8c 29 02 02 	lw $2,10636($2)
  4045b0:	a2 00 00 00 5f 10 04 00 	lui $4,4191
  4045b8:	28 00 00 00 90 29 04 04 	lw $4,10640($4)
  4045c0:	55 00 00 00 01 03 02 00 	sll $3,$2,0x1
  4045c8:	42 00 00 00 00 03 02 03 	addu $3,$3,$2
  4045d0:	55 00 00 00 03 03 03 00 	sll $3,$3,0x3
  4045d8:	42 00 00 00 00 03 02 03 	addu $3,$3,$2
  4045e0:	55 00 00 00 03 03 03 00 	sll $3,$3,0x3
  4045e8:	42 00 00 00 00 03 02 03 	addu $3,$3,$2
  4045f0:	55 00 00 00 01 03 03 00 	sll $3,$3,0x1
  4045f8:	42 00 00 00 00 03 11 03 	addu $3,$3,$17
  404600:	55 00 00 00 03 03 03 00 	sll $3,$3,0x3
  404608:	42 00 00 00 00 05 0a 03 	addu $5,$3,$10
  404610:	55 00 00 00 01 02 04 00 	sll $2,$4,0x1
  404618:	42 00 00 00 00 02 04 02 	addu $2,$2,$4
  404620:	55 00 00 00 03 02 02 00 	sll $2,$2,0x3
  404628:	42 00 00 00 00 02 04 02 	addu $2,$2,$4
  404630:	55 00 00 00 03 02 02 00 	sll $2,$2,0x3
  404638:	42 00 00 00 00 02 04 02 	addu $2,$2,$4
  404640:	55 00 00 00 01 02 02 00 	sll $2,$2,0x1
  404648:	42 00 00 00 00 02 11 02 	addu $2,$2,$17
  404650:	55 00 00 00 03 02 02 00 	sll $2,$2,0x3
  404658:	42 00 00 00 00 02 0a 02 	addu $2,$2,$10
  404660:	2b 00 00 00 00 00 02 05 	l.d $f2,0($5)
  404668:	2b 00 00 00 00 00 00 02 	l.d $f0,0($2)
  404670:	73 00 00 00 00 02 00 02 	sub.d $f2,$f2,$f0
  404678:	42 00 00 00 00 02 0b 03 	addu $2,$3,$11
  404680:	2b 00 00 00 00 00 04 02 	l.d $f4,0($2)
  404688:	95 00 00 00 00 00 02 06 	c.le.d $f6,$f2
  404690:	42 00 00 00 00 03 0c 03 	addu $3,$3,$12
  404698:	0b 00 00 00 04 00 00 00 	bc1f 4046b0 <tistep_+0xa70>
  4046a0:	77 00 00 00 00 00 04 02 	div.d $f0,$f2,$f4
  4046a8:	01 00 00 00 b0 11 10 00 	j 4046c0 <tistep_+0xa80>
  4046b0:	7d 00 00 00 00 00 00 02 	neg.d $f0,$f2
  4046b8:	77 00 00 00 00 00 04 00 	div.d $f0,$f0,$f4
  4046c0:	37 00 00 00 00 00 00 03 	s.d $f0,0($3)
  4046c8:	43 00 00 00 08 00 06 06 	addiu $6,$6,8
  4046d0:	43 00 00 00 08 00 09 09 	addiu $9,$9,8
  4046d8:	43 00 00 00 08 00 08 08 	addiu $8,$8,8
  4046e0:	43 00 00 00 08 00 07 07 	addiu $7,$7,8
  4046e8:	43 00 00 00 01 00 11 11 	addiu $17,$17,1
  4046f0:	5b 00 00 00 00 02 11 14 	slt $2,$20,$17
  4046f8:	05 00 00 00 92 ff 00 02 	beq $2,$0,404548 <tistep_+0x908>
  404700:	a2 00 00 00 5f 10 03 00 	lui $3,4191
  404708:	43 00 00 00 c0 29 03 03 	addiu $3,$3,10688
  404710:	2b 00 00 00 00 00 00 03 	l.d $f0,0($3)
  404718:	a2 00 00 00 5f 10 02 00 	lui $2,4191
  404720:	43 00 00 00 8c 29 02 02 	addiu $2,$2,10636
  404728:	71 00 00 00 00 06 00 00 	add.d $f6,$f0,$f0
  404730:	28 00 00 00 00 00 14 02 	lw $20,0($2)
  404738:	43 00 00 00 01 00 13 00 	addiu $19,$0,1
  404740:	07 00 00 00 a4 00 00 14 	blez $20,4049d8 <tistep_+0xd98>
  404748:	43 00 00 00 f8 ff 0c 02 	addiu $12,$2,-8
  404750:	a2 00 00 00 10 10 0b 00 	lui $11,4112
  404758:	43 00 00 00 78 0b 0b 0b 	addiu $11,$11,2936
  404760:	a2 00 00 00 3f 10 08 00 	lui $8,4159
  404768:	43 00 00 00 80 6e 08 08 	addiu $8,$8,28288
  404770:	43 00 00 00 f0 ff 0a 08 	addiu $10,$8,-16
  404778:	42 00 00 00 00 09 03 00 	addu $9,$0,$3
  404780:	a5 00 00 00 00 00 00 08 	mtc1 $0,$f8
  404788:	a5 00 00 00 00 00 00 09 	mtc1 $0,$f9
  404790:	43 00 00 00 92 01 07 00 	addiu $7,$0,402
  404798:	28 00 00 00 00 00 03 0c 	lw $3,0($12)
  4047a0:	43 00 00 00 02 00 11 00 	addiu $17,$0,2
  4047a8:	5c 00 00 00 02 00 02 03 	slti $2,$3,2
  4047b0:	34 00 00 00 10 00 03 1d 	sw $3,16($29)
  4047b8:	06 00 00 00 7e 00 00 02 	bne $2,$0,4049b8 <tistep_+0xd78>
  4047c0:	42 00 00 00 00 06 07 00 	addu $6,$0,$7
  4047c8:	42 00 00 00 00 05 03 00 	addu $5,$0,$3
  4047d0:	43 00 00 00 01 00 03 05 	addiu $3,$5,1
  4047d8:	43 00 00 00 ff ff 02 05 	addiu $2,$5,-1
  4047e0:	4f 00 00 00 01 00 02 02 	andi $2,$2,1
  4047e8:	5b 00 00 00 00 03 03 11 	slt $3,$17,$3
  4047f0:	05 00 00 00 02 00 00 03 	beq $3,$0,404800 <tistep_+0xbc0>
  4047f8:	05 00 00 00 26 00 00 02 	beq $2,$0,404898 <tistep_+0xc58>
  404800:	43 00 00 00 02 00 02 07 	addiu $2,$7,2
  404808:	55 00 00 00 03 02 02 00 	sll $2,$2,0x3
  404810:	42 00 00 00 00 03 08 02 	addu $3,$2,$8
  404818:	42 00 00 00 00 04 0a 02 	addu $4,$2,$10
  404820:	2b 00 00 00 00 00 02 03 	l.d $f2,0($3)
  404828:	2b 00 00 00 00 00 00 04 	l.d $f0,0($4)
  404830:	73 00 00 00 00 02 00 02 	sub.d $f2,$f2,$f0
  404838:	2b 00 00 00 00 00 04 09 	l.d $f4,0($9)
  404840:	95 00 00 00 00 00 02 08 	c.le.d $f8,$f2
  404848:	42 00 00 00 00 02 0b 02 	addu $2,$2,$11
  404850:	0b 00 00 00 04 00 00 00 	bc1f 404868 <tistep_+0xc28>
  404858:	75 00 00 00 00 00 02 04 	mul.d $f0,$f4,$f2
  404860:	01 00 00 00 1e 12 10 00 	j 404878 <tistep_+0xc38>
  404868:	7d 00 00 00 00 00 00 02 	neg.d $f0,$f2
  404870:	75 00 00 00 00 00 00 04 	mul.d $f0,$f4,$f0
  404878:	37 00 00 00 00 00 00 02 	s.d $f0,0($2)
  404880:	43 00 00 00 01 00 11 11 	addiu $17,$17,1
  404888:	5b 00 00 00 00 02 11 05 	slt $2,$5,$17
  404890:	06 00 00 00 48 00 00 02 	bne $2,$0,4049b8 <tistep_+0xd78>
  404898:	42 00 00 00 00 02 11 06 	addu $2,$6,$17
  4048a0:	55 00 00 00 03 02 02 00 	sll $2,$2,0x3
  4048a8:	42 00 00 00 00 03 08 02 	addu $3,$2,$8
  4048b0:	42 00 00 00 00 04 0a 02 	addu $4,$2,$10
  4048b8:	2b 00 00 00 00 00 02 03 	l.d $f2,0($3)
  4048c0:	2b 00 00 00 00 00 00 04 	l.d $f0,0($4)
  4048c8:	73 00 00 00 00 02 00 02 	sub.d $f2,$f2,$f0
  4048d0:	2b 00 00 00 00 00 04 09 	l.d $f4,0($9)
  4048d8:	95 00 00 00 00 00 02 08 	c.le.d $f8,$f2
  4048e0:	42 00 00 00 00 02 0b 02 	addu $2,$2,$11
  4048e8:	0b 00 00 00 04 00 00 00 	bc1f 404900 <tistep_+0xcc0>
  4048f0:	75 00 00 00 00 00 02 04 	mul.d $f0,$f4,$f2
  4048f8:	01 00 00 00 44 12 10 00 	j 404910 <tistep_+0xcd0>
  404900:	7d 00 00 00 00 00 00 02 	neg.d $f0,$f2
  404908:	75 00 00 00 00 00 00 04 	mul.d $f0,$f4,$f0
  404910:	37 00 00 00 00 00 00 02 	s.d $f0,0($2)
  404918:	43 00 00 00 01 00 02 11 	addiu $2,$17,1
  404920:	42 00 00 00 00 02 02 06 	addu $2,$6,$2
  404928:	55 00 00 00 03 02 02 00 	sll $2,$2,0x3
  404930:	42 00 00 00 00 03 08 02 	addu $3,$2,$8
  404938:	42 00 00 00 00 04 0a 02 	addu $4,$2,$10
  404940:	2b 00 00 00 00 00 02 03 	l.d $f2,0($3)
  404948:	2b 00 00 00 00 00 00 04 	l.d $f0,0($4)
  404950:	73 00 00 00 00 02 00 02 	sub.d $f2,$f2,$f0
  404958:	2b 00 00 00 00 00 04 09 	l.d $f4,0($9)
  404960:	95 00 00 00 00 00 02 08 	c.le.d $f8,$f2
  404968:	42 00 00 00 00 02 0b 02 	addu $2,$2,$11
  404970:	0b 00 00 00 04 00 00 00 	bc1f 404988 <tistep_+0xd48>
  404978:	75 00 00 00 00 00 02 04 	mul.d $f0,$f4,$f2
  404980:	01 00 00 00 66 12 10 00 	j 404998 <tistep_+0xd58>
  404988:	7d 00 00 00 00 00 00 02 	neg.d $f0,$f2
  404990:	75 00 00 00 00 00 00 04 	mul.d $f0,$f4,$f0
  404998:	37 00 00 00 00 00 00 02 	s.d $f0,0($2)
  4049a0:	43 00 00 00 02 00 11 11 	addiu $17,$17,2
  4049a8:	5b 00 00 00 00 02 11 05 	slt $2,$5,$17
  4049b0:	05 00 00 00 b8 ff 00 02 	beq $2,$0,404898 <tistep_+0xc58>
  4049b8:	43 00 00 00 92 01 07 07 	addiu $7,$7,402
  4049c0:	43 00 00 00 01 00 13 13 	addiu $19,$19,1
  4049c8:	5b 00 00 00 00 02 13 14 	slt $2,$20,$19
  4049d0:	05 00 00 00 70 ff 00 02 	beq $2,$0,404798 <tistep_+0xb58>
  4049d8:	a2 00 00 00 5f 10 04 00 	lui $4,4191
  4049e0:	28 00 00 00 8c 29 04 04 	lw $4,10636($4)
  4049e8:	43 00 00 00 01 00 13 00 	addiu $19,$0,1
  4049f0:	34 00 00 00 10 00 04 1d 	sw $4,16($29)
  4049f8:	07 00 00 00 66 00 00 04 	blez $4,404b98 <tistep_+0xf58>
  404a00:	a5 00 00 00 00 00 00 04 	mtc1 $0,$f4
  404a08:	a5 00 00 00 00 00 00 05 	mtc1 $0,$f5
  404a10:	a2 00 00 00 10 10 03 00 	lui $3,4112
  404a18:	43 00 00 00 80 0b 03 03 	addiu $3,$3,2944
  404a20:	43 00 00 00 f8 ff 0b 03 	addiu $11,$3,-8
  404a28:	a2 00 00 00 3f 10 02 00 	lui $2,4159
  404a30:	43 00 00 00 88 6e 02 02 	addiu $2,$2,28296
  404a38:	43 00 00 00 f0 ff 09 02 	addiu $9,$2,-16
  404a40:	42 00 00 00 00 0a 04 00 	addu $10,$0,$4
  404a48:	43 00 00 00 92 01 06 00 	addiu $6,$0,402
  404a50:	43 00 00 00 90 0c 05 03 	addiu $5,$3,3216
  404a58:	43 00 00 00 88 0c 08 02 	addiu $8,$2,3208
  404a60:	43 00 00 00 90 0c 07 02 	addiu $7,$2,3216
  404a68:	2b 00 00 00 00 00 02 07 	l.d $f2,0($7)
  404a70:	2b 00 00 00 00 00 00 08 	l.d $f0,0($8)
  404a78:	73 00 00 00 00 02 00 02 	sub.d $f2,$f2,$f0
  404a80:	95 00 00 00 00 00 02 04 	c.le.d $f4,$f2
  404a88:	0b 00 00 00 04 00 00 00 	bc1f 404aa0 <tistep_+0xe60>
  404a90:	75 00 00 00 00 00 02 06 	mul.d $f0,$f6,$f2
  404a98:	01 00 00 00 ac 12 10 00 	j 404ab0 <tistep_+0xe70>
  404aa0:	7d 00 00 00 00 00 00 02 	neg.d $f0,$f2
  404aa8:	75 00 00 00 00 00 00 06 	mul.d $f0,$f6,$f0
  404ab0:	37 00 00 00 00 00 00 05 	s.d $f0,0($5)
  404ab8:	a2 00 00 00 5f 10 03 00 	lui $3,4191
  404ac0:	28 00 00 00 80 29 03 03 	lw $3,10624($3)
  404ac8:	a2 00 00 00 5f 10 02 00 	lui $2,4191
  404ad0:	28 00 00 00 84 29 02 02 	lw $2,10628($2)
  404ad8:	42 00 00 00 00 03 03 06 	addu $3,$6,$3
  404ae0:	55 00 00 00 03 03 03 00 	sll $3,$3,0x3
  404ae8:	42 00 00 00 00 04 09 03 	addu $4,$3,$9
  404af0:	42 00 00 00 00 02 02 06 	addu $2,$6,$2
  404af8:	55 00 00 00 03 02 02 00 	sll $2,$2,0x3
  404b00:	42 00 00 00 00 02 09 02 	addu $2,$2,$9
  404b08:	2b 00 00 00 00 00 02 04 	l.d $f2,0($4)
  404b10:	2b 00 00 00 00 00 00 02 	l.d $f0,0($2)
  404b18:	73 00 00 00 00 02 00 02 	sub.d $f2,$f2,$f0
  404b20:	95 00 00 00 00 00 02 04 	c.le.d $f4,$f2
  404b28:	42 00 00 00 00 03 0b 03 	addu $3,$3,$11
  404b30:	0b 00 00 00 04 00 00 00 	bc1f 404b48 <tistep_+0xf08>
  404b38:	75 00 00 00 00 00 02 06 	mul.d $f0,$f6,$f2
  404b40:	01 00 00 00 d6 12 10 00 	j 404b58 <tistep_+0xf18>
  404b48:	7d 00 00 00 00 00 00 02 	neg.d $f0,$f2
  404b50:	75 00 00 00 00 00 00 06 	mul.d $f0,$f6,$f0
  404b58:	37 00 00 00 00 00 00 03 	s.d $f0,0($3)
  404b60:	43 00 00 00 92 01 06 06 	addiu $6,$6,402
  404b68:	43 00 00 00 90 0c 05 05 	addiu $5,$5,3216
  404b70:	43 00 00 00 90 0c 08 08 	addiu $8,$8,3216
  404b78:	43 00 00 00 90 0c 07 07 	addiu $7,$7,3216
  404b80:	43 00 00 00 01 00 13 13 	addiu $19,$19,1
  404b88:	5b 00 00 00 00 02 13 0a 	slt $2,$10,$19
  404b90:	05 00 00 00 b4 ff 00 02 	beq $2,$0,404a68 <tistep_+0xe28>
  404b98:	a2 00 00 00 5f 10 03 00 	lui $3,4191
  404ba0:	43 00 00 00 90 29 03 03 	addiu $3,$3,10640
  404ba8:	28 00 00 00 00 00 02 03 	lw $2,0($3)
  404bb0:	43 00 00 00 02 00 13 00 	addiu $19,$0,2
  404bb8:	34 00 00 00 10 00 02 1d 	sw $2,16($29)
  404bc0:	5c 00 00 00 02 00 02 02 	slti $2,$2,2
  404bc8:	06 00 00 00 a0 00 00 02 	bne $2,$0,404e50 <tistep_+0x1210>
  404bd0:	43 00 00 00 f0 ff 0b 03 	addiu $11,$3,-16
  404bd8:	a2 00 00 00 18 10 0a 00 	lui $10,4120
  404be0:	43 00 00 00 78 e5 0a 0a 	addiu $10,$10,-6792
  404be8:	a2 00 00 00 47 10 07 00 	lui $7,4167
  404bf0:	43 00 00 00 08 55 07 07 	addiu $7,$7,21768
  404bf8:	43 00 00 00 e0 e6 09 07 	addiu $9,$7,-6432
  404c00:	a2 00 00 00 5f 10 08 00 	lui $8,4191
  404c08:	43 00 00 00 c0 29 08 08 	addiu $8,$8,10688
  404c10:	a5 00 00 00 00 00 00 08 	mtc1 $0,$f8
  404c18:	a5 00 00 00 00 00 00 09 	mtc1 $0,$f9
  404c20:	43 00 00 00 24 03 06 00 	addiu $6,$0,804
  404c28:	28 00 00 00 00 00 14 0b 	lw $20,0($11)
  404c30:	43 00 00 00 01 00 11 00 	addiu $17,$0,1
  404c38:	07 00 00 00 7a 00 00 14 	blez $20,404e28 <tistep_+0x11e8>
  404c40:	42 00 00 00 00 05 06 00 	addu $5,$0,$6
  404c48:	43 00 00 00 01 00 02 14 	addiu $2,$20,1
  404c50:	4f 00 00 00 01 00 03 14 	andi $3,$20,1
  404c58:	5b 00 00 00 00 02 02 11 	slt $2,$17,$2
  404c60:	05 00 00 00 02 00 00 02 	beq $2,$0,404c70 <tistep_+0x1030>
  404c68:	05 00 00 00 26 00 00 03 	beq $3,$0,404d08 <tistep_+0x10c8>
  404c70:	43 00 00 00 01 00 02 06 	addiu $2,$6,1
  404c78:	55 00 00 00 03 02 02 00 	sll $2,$2,0x3
  404c80:	42 00 00 00 00 03 07 02 	addu $3,$2,$7
  404c88:	42 00 00 00 00 04 09 02 	addu $4,$2,$9
  404c90:	2b 00 00 00 00 00 02 03 	l.d $f2,0($3)
  404c98:	2b 00 00 00 00 00 00 04 	l.d $f0,0($4)
  404ca0:	73 00 00 00 00 02 00 02 	sub.d $f2,$f2,$f0
  404ca8:	2b 00 00 00 00 00 04 08 	l.d $f4,0($8)
  404cb0:	95 00 00 00 00 00 02 08 	c.le.d $f8,$f2
  404cb8:	42 00 00 00 00 02 0a 02 	addu $2,$2,$10
  404cc0:	0b 00 00 00 04 00 00 00 	bc1f 404cd8 <tistep_+0x1098>
  404cc8:	75 00 00 00 00 00 02 04 	mul.d $f0,$f4,$f2
  404cd0:	01 00 00 00 3a 13 10 00 	j 404ce8 <tistep_+0x10a8>
  404cd8:	7d 00 00 00 00 00 00 02 	neg.d $f0,$f2
  404ce0:	75 00 00 00 00 00 00 04 	mul.d $f0,$f4,$f0
  404ce8:	37 00 00 00 00 00 00 02 	s.d $f0,0($2)
  404cf0:	43 00 00 00 01 00 11 11 	addiu $17,$17,1
  404cf8:	5b 00 00 00 00 02 11 14 	slt $2,$20,$17
  404d00:	06 00 00 00 48 00 00 02 	bne $2,$0,404e28 <tistep_+0x11e8>
  404d08:	42 00 00 00 00 02 11 05 	addu $2,$5,$17
  404d10:	55 00 00 00 03 02 02 00 	sll $2,$2,0x3
  404d18:	42 00 00 00 00 03 07 02 	addu $3,$2,$7
  404d20:	42 00 00 00 00 04 09 02 	addu $4,$2,$9
  404d28:	2b 00 00 00 00 00 02 03 	l.d $f2,0($3)
  404d30:	2b 00 00 00 00 00 00 04 	l.d $f0,0($4)
  404d38:	73 00 00 00 00 02 00 02 	sub.d $f2,$f2,$f0
  404d40:	2b 00 00 00 00 00 04 08 	l.d $f4,0($8)
  404d48:	95 00 00 00 00 00 02 08 	c.le.d $f8,$f2
  404d50:	42 00 00 00 00 02 0a 02 	addu $2,$2,$10
  404d58:	0b 00 00 00 04 00 00 00 	bc1f 404d70 <tistep_+0x1130>
  404d60:	75 00 00 00 00 00 02 04 	mul.d $f0,$f4,$f2
  404d68:	01 00 00 00 60 13 10 00 	j 404d80 <tistep_+0x1140>
  404d70:	7d 00 00 00 00 00 00 02 	neg.d $f0,$f2
  404d78:	75 00 00 00 00 00 00 04 	mul.d $f0,$f4,$f0
  404d80:	37 00 00 00 00 00 00 02 	s.d $f0,0($2)
  404d88:	43 00 00 00 01 00 02 11 	addiu $2,$17,1
  404d90:	42 00 00 00 00 02 02 05 	addu $2,$5,$2
  404d98:	55 00 00 00 03 02 02 00 	sll $2,$2,0x3
  404da0:	42 00 00 00 00 03 07 02 	addu $3,$2,$7
  404da8:	42 00 00 00 00 04 09 02 	addu $4,$2,$9
  404db0:	2b 00 00 00 00 00 02 03 	l.d $f2,0($3)
  404db8:	2b 00 00 00 00 00 00 04 	l.d $f0,0($4)
  404dc0:	73 00 00 00 00 02 00 02 	sub.d $f2,$f2,$f0
  404dc8:	2b 00 00 00 00 00 04 08 	l.d $f4,0($8)
  404dd0:	95 00 00 00 00 00 02 08 	c.le.d $f8,$f2
  404dd8:	42 00 00 00 00 02 0a 02 	addu $2,$2,$10
  404de0:	0b 00 00 00 04 00 00 00 	bc1f 404df8 <tistep_+0x11b8>
  404de8:	75 00 00 00 00 00 02 04 	mul.d $f0,$f4,$f2
  404df0:	01 00 00 00 82 13 10 00 	j 404e08 <tistep_+0x11c8>
  404df8:	7d 00 00 00 00 00 00 02 	neg.d $f0,$f2
  404e00:	75 00 00 00 00 00 00 04 	mul.d $f0,$f4,$f0
  404e08:	37 00 00 00 00 00 00 02 	s.d $f0,0($2)
  404e10:	43 00 00 00 02 00 11 11 	addiu $17,$17,2
  404e18:	5b 00 00 00 00 02 11 14 	slt $2,$20,$17
  404e20:	05 00 00 00 b8 ff 00 02 	beq $2,$0,404d08 <tistep_+0x10c8>
  404e28:	28 00 00 00 10 00 02 1d 	lw $2,16($29)
  404e30:	43 00 00 00 92 01 06 06 	addiu $6,$6,402
  404e38:	43 00 00 00 01 00 13 13 	addiu $19,$19,1
  404e40:	5b 00 00 00 00 02 13 02 	slt $2,$2,$19
  404e48:	05 00 00 00 76 ff 00 02 	beq $2,$0,404c28 <tistep_+0xfe8>
  404e50:	a2 00 00 00 5f 10 14 00 	lui $20,4191
  404e58:	28 00 00 00 80 29 14 14 	lw $20,10624($20)
  404e60:	43 00 00 00 01 00 11 00 	addiu $17,$0,1
  404e68:	07 00 00 00 7c 00 00 14 	blez $20,405060 <tistep_+0x1420>
  404e70:	a5 00 00 00 00 00 00 04 	mtc1 $0,$f4
  404e78:	a5 00 00 00 00 00 00 05 	mtc1 $0,$f5
  404e80:	a2 00 00 00 18 10 03 00 	lui $3,4120
  404e88:	43 00 00 00 08 f2 03 03 	addiu $3,$3,-3576
  404e90:	43 00 00 00 70 f3 0a 03 	addiu $10,$3,-3216
  404e98:	a2 00 00 00 47 10 02 00 	lui $2,4167
  404ea0:	43 00 00 00 98 61 02 02 	addiu $2,$2,24984
  404ea8:	43 00 00 00 e0 e6 09 02 	addiu $9,$2,-6432
  404eb0:	43 00 00 00 08 00 06 03 	addiu $6,$3,8
  404eb8:	43 00 00 00 78 f3 08 02 	addiu $8,$2,-3208
  404ec0:	43 00 00 00 08 00 07 02 	addiu $7,$2,8
  404ec8:	2b 00 00 00 00 00 02 07 	l.d $f2,0($7)
  404ed0:	2b 00 00 00 00 00 00 08 	l.d $f0,0($8)
  404ed8:	73 00 00 00 00 02 00 02 	sub.d $f2,$f2,$f0
  404ee0:	95 00 00 00 00 00 02 04 	c.le.d $f4,$f2
  404ee8:	0b 00 00 00 04 00 00 00 	bc1f 404f00 <tistep_+0x12c0>
  404ef0:	75 00 00 00 00 00 02 06 	mul.d $f0,$f6,$f2
  404ef8:	01 00 00 00 c4 13 10 00 	j 404f10 <tistep_+0x12d0>
  404f00:	7d 00 00 00 00 00 00 02 	neg.d $f0,$f2
  404f08:	75 00 00 00 00 00 00 06 	mul.d $f0,$f6,$f0
  404f10:	37 00 00 00 00 00 00 06 	s.d $f0,0($6)
  404f18:	a2 00 00 00 5f 10 02 00 	lui $2,4191
  404f20:	28 00 00 00 8c 29 02 02 	lw $2,10636($2)
  404f28:	a2 00 00 00 5f 10 04 00 	lui $4,4191
  404f30:	28 00 00 00 90 29 04 04 	lw $4,10640($4)
  404f38:	55 00 00 00 01 03 02 00 	sll $3,$2,0x1
  404f40:	42 00 00 00 00 03 02 03 	addu $3,$3,$2
  404f48:	55 00 00 00 03 03 03 00 	sll $3,$3,0x3
  404f50:	42 00 00 00 00 03 02 03 	addu $3,$3,$2
  404f58:	55 00 00 00 03 03 03 00 	sll $3,$3,0x3
  404f60:	42 00 00 00 00 03 02 03 	addu $3,$3,$2
  404f68:	55 00 00 00 01 03 03 00 	sll $3,$3,0x1
  404f70:	42 00 00 00 00 03 11 03 	addu $3,$3,$17
  404f78:	55 00 00 00 03 03 03 00 	sll $3,$3,0x3
  404f80:	42 00 00 00 00 05 09 03 	addu $5,$3,$9
  404f88:	55 00 00 00 01 02 04 00 	sll $2,$4,0x1
  404f90:	42 00 00 00 00 02 04 02 	addu $2,$2,$4
  404f98:	55 00 00 00 03 02 02 00 	sll $2,$2,0x3
  404fa0:	42 00 00 00 00 02 04 02 	addu $2,$2,$4
  404fa8:	55 00 00 00 03 02 02 00 	sll $2,$2,0x3
  404fb0:	42 00 00 00 00 02 04 02 	addu $2,$2,$4
  404fb8:	55 00 00 00 01 02 02 00 	sll $2,$2,0x1
  404fc0:	42 00 00 00 00 02 11 02 	addu $2,$2,$17
  404fc8:	55 00 00 00 03 02 02 00 	sll $2,$2,0x3
  404fd0:	42 00 00 00 00 02 09 02 	addu $2,$2,$9
  404fd8:	2b 00 00 00 00 00 02 05 	l.d $f2,0($5)
  404fe0:	2b 00 00 00 00 00 00 02 	l.d $f0,0($2)
  404fe8:	73 00 00 00 00 02 00 02 	sub.d $f2,$f2,$f0
  404ff0:	95 00 00 00 00 00 02 04 	c.le.d $f4,$f2
  404ff8:	42 00 00 00 00 03 0a 03 	addu $3,$3,$10
  405000:	0b 00 00 00 04 00 00 00 	bc1f 405018 <tistep_+0x13d8>
  405008:	75 00 00 00 00 00 02 06 	mul.d $f0,$f6,$f2
  405010:	01 00 00 00 0a 14 10 00 	j 405028 <tistep_+0x13e8>
  405018:	7d 00 00 00 00 00 00 02 	neg.d $f0,$f2
  405020:	75 00 00 00 00 00 00 06 	mul.d $f0,$f6,$f0
  405028:	37 00 00 00 00 00 00 03 	s.d $f0,0($3)
  405030:	43 00 00 00 08 00 06 06 	addiu $6,$6,8
  405038:	43 00 00 00 08 00 08 08 	addiu $8,$8,8
  405040:	43 00 00 00 08 00 07 07 	addiu $7,$7,8
  405048:	43 00 00 00 01 00 11 11 	addiu $17,$17,1
  405050:	5b 00 00 00 00 02 11 14 	slt $2,$20,$17
  405058:	05 00 00 00 9a ff 00 02 	beq $2,$0,404ec8 <tistep_+0x1288>
  405060:	a2 00 00 00 5f 10 14 00 	lui $20,4191
  405068:	28 00 00 00 8c 29 14 14 	lw $20,10636($20)
  405070:	42 00 00 00 00 16 00 00 	addu $22,$0,$0
  405078:	43 00 00 00 01 00 13 00 	addiu $19,$0,1
  405080:	07 00 00 00 36 01 00 14 	blez $20,405560 <tistep_+0x1920>
  405088:	43 00 00 00 92 01 1e 00 	addiu $30,$0,402
  405090:	a2 00 00 00 5f 10 02 00 	lui $2,4191
  405098:	28 00 00 00 80 29 02 02 	lw $2,10624($2)
  4050a0:	43 00 00 00 01 00 11 00 	addiu $17,$0,1
  4050a8:	34 00 00 00 10 00 02 1d 	sw $2,16($29)
  4050b0:	07 00 00 00 22 01 00 02 	blez $2,405540 <tistep_+0x1900>
  4050b8:	a2 00 00 00 5f 10 04 00 	lui $4,4191
  4050c0:	43 00 00 00 30 43 04 04 	addiu $4,$4,17200
  4050c8:	43 00 00 00 b8 2f 03 04 	addiu $3,$4,12216
  4050d0:	55 00 00 00 03 02 13 00 	sll $2,$19,0x3
  4050d8:	42 00 00 00 00 17 03 02 	addu $23,$2,$3
  4050e0:	43 00 00 00 08 00 15 04 	addiu $21,$4,8
  4050e8:	43 00 00 00 01 00 12 1e 	addiu $18,$30,1
  4050f0:	55 00 00 00 03 10 12 00 	sll $16,$18,0x3
  4050f8:	a2 00 00 00 4f 10 0e 00 	lui $14,4175
  405100:	43 00 00 00 78 22 0e 0e 	addiu $14,$14,8824
  405108:	42 00 00 00 00 02 0e 10 	addu $2,$16,$14
  405110:	a2 00 00 00 5f 10 01 00 	lui $1,4191
  405118:	2b 00 00 00 b0 29 02 01 	l.d $f2,10672($1)
  405120:	2b 00 00 00 00 00 00 02 	l.d $f0,0($2)
  405128:	75 00 00 00 00 02 00 02 	mul.d $f2,$f2,$f0
  405130:	a2 00 00 00 20 10 01 00 	lui $1,4128
  405138:	42 00 00 00 00 01 01 10 	addu $1,$16,$1
  405140:	2b 00 00 00 d8 05 00 01 	l.d $f0,1496($1)
  405148:	77 00 00 00 00 0c 00 02 	div.d $f12,$f2,$f0
  405150:	97 00 00 00 00 04 00 0c 	sqrt.d $f4,$f12
  405158:	91 00 00 00 00 00 04 04 	c.eq.d $f4,$f4
  405160:	0c 00 00 00 04 00 00 00 	bc1t 405178 <tistep_+0x1538>
  405168:	02 00 00 00 c4 6a 10 00 	jal 41ab10 <sqrt>
  405170:	7b 00 00 00 00 04 00 00 	mov.d $f4,$f0
  405178:	a2 00 00 00 3f 10 01 00 	lui $1,4159
  405180:	42 00 00 00 00 01 01 10 	addu $1,$16,$1
  405188:	2b 00 00 00 78 6e 02 01 	l.d $f2,28280($1)
  405190:	a5 00 00 00 00 00 00 00 	mtc1 $0,$f0
  405198:	a5 00 00 00 00 00 00 01 	mtc1 $0,$f1
  4051a0:	a2 00 00 00 10 10 01 00 	lui $1,4112
  4051a8:	42 00 00 00 00 01 01 10 	addu $1,$16,$1
  4051b0:	2b 00 00 00 78 0b 06 01 	l.d $f6,2936($1)
  4051b8:	95 00 00 00 00 00 02 00 	c.le.d $f0,$f2
  4051c0:	7b 00 00 00 00 08 00 04 	mov.d $f8,$f4
  4051c8:	0b 00 00 00 04 00 00 00 	bc1f 4051e0 <tistep_+0x15a0>
  4051d0:	71 00 00 00 00 00 02 08 	add.d $f0,$f8,$f2
  4051d8:	01 00 00 00 7a 14 10 00 	j 4051e8 <tistep_+0x15a8>
  4051e0:	73 00 00 00 00 00 02 08 	sub.d $f0,$f8,$f2
  4051e8:	71 00 00 00 00 18 06 00 	add.d $f24,$f0,$f6
  4051f0:	55 00 00 00 03 02 12 00 	sll $2,$18,0x3
  4051f8:	a2 00 00 00 47 10 0e 00 	lui $14,4167
  405200:	43 00 00 00 78 48 0e 0e 	addiu $14,$14,18552
  405208:	75 00 00 00 00 0c 18 18 	mul.d $f12,$f24,$f24
  405210:	42 00 00 00 00 03 0e 02 	addu $3,$2,$14
  405218:	2b 00 00 00 00 00 02 03 	l.d $f2,0($3)
  405220:	a5 00 00 00 00 00 00 00 	mtc1 $0,$f0
  405228:	a5 00 00 00 00 00 00 01 	mtc1 $0,$f1
  405230:	a2 00 00 00 18 10 01 00 	lui $1,4120
  405238:	42 00 00 00 00 01 01 02 	addu $1,$2,$1
  405240:	2b 00 00 00 78 e5 04 01 	l.d $f4,-6792($1)
  405248:	95 00 00 00 00 00 02 00 	c.le.d $f0,$f2
  405250:	0b 00 00 00 04 00 00 00 	bc1f 405268 <tistep_+0x1628>
  405258:	71 00 00 00 00 00 02 08 	add.d $f0,$f8,$f2
  405260:	01 00 00 00 9c 14 10 00 	j 405270 <tistep_+0x1630>
  405268:	73 00 00 00 00 00 02 08 	sub.d $f0,$f8,$f2
  405270:	71 00 00 00 00 16 04 00 	add.d $f22,$f0,$f4
  405278:	55 00 00 00 03 03 12 00 	sll $3,$18,0x3
  405280:	a2 00 00 00 00 10 0e 00 	lui $14,4096
  405288:	43 00 00 00 78 57 0e 0e 	addiu $14,$14,22392
  405290:	42 00 00 00 00 04 0e 03 	addu $4,$3,$14
  405298:	2b 00 00 00 00 00 00 04 	l.d $f0,0($4)
  4052a0:	2b 00 00 00 20 81 0a 1c 	l.d $f10,-32480($28)
  4052a8:	75 00 00 00 00 00 0a 00 	mul.d $f0,$f0,$f10
  4052b0:	77 00 00 00 00 00 0c 00 	div.d $f0,$f0,$f12
  4052b8:	75 00 00 00 00 1c 16 16 	mul.d $f28,$f22,$f22
  4052c0:	a2 00 00 00 08 10 02 00 	lui $2,4104
  4052c8:	43 00 00 00 78 31 02 02 	addiu $2,$2,12664
  4052d0:	42 00 00 00 00 10 02 03 	addu $16,$3,$2
  4052d8:	37 00 00 00 18 00 00 1d 	s.d $f0,24($29)
  4052e0:	2b 00 00 00 00 00 00 10 	l.d $f0,0($16)
  4052e8:	75 00 00 00 00 00 0a 00 	mul.d $f0,$f0,$f10
  4052f0:	77 00 00 00 00 1e 1c 00 	div.d $f30,$f0,$f28
  4052f8:	2b 00 00 00 18 00 0e 1d 	l.d $f14,24($29)
  405300:	2b 00 00 00 28 81 0a 1c 	l.d $f10,-32472($28)
  405308:	93 00 00 00 00 00 0a 0e 	c.lt.d $f14,$f10
  405310:	0b 00 00 00 04 00 00 00 	bc1f 405328 <tistep_+0x16e8>
  405318:	2b 00 00 00 30 81 0e 1c 	l.d $f14,-32464($28)
  405320:	37 00 00 00 00 00 0e 04 	s.d $f14,0($4)
  405328:	2b 00 00 00 28 81 0a 1c 	l.d $f10,-32472($28)
  405330:	93 00 00 00 00 00 0a 1e 	c.lt.d $f30,$f10
  405338:	0b 00 00 00 04 00 00 00 	bc1f 405350 <tistep_+0x1710>
  405340:	2b 00 00 00 30 81 0e 1c 	l.d $f14,-32464($28)
  405348:	37 00 00 00 00 00 0e 10 	s.d $f14,0($16)
  405350:	2b 00 00 00 00 00 02 15 	l.d $f2,0($21)
  405358:	2b 00 00 00 18 81 0a 1c 	l.d $f10,-32488($28)
  405360:	75 00 00 00 00 02 0a 02 	mul.d $f2,$f2,$f10
  405368:	2b 00 00 00 00 00 00 04 	l.d $f0,0($4)
  405370:	77 00 00 00 00 14 00 02 	div.d $f20,$f2,$f0
  405378:	2b 00 00 00 38 81 0e 1c 	l.d $f14,-32456($28)
  405380:	75 00 00 00 00 00 0e 00 	mul.d $f0,$f0,$f14
  405388:	71 00 00 00 00 0c 00 0c 	add.d $f12,$f12,$f0
  405390:	97 00 00 00 00 04 00 0c 	sqrt.d $f4,$f12
  405398:	91 00 00 00 00 00 04 04 	c.eq.d $f4,$f4
  4053a0:	0c 00 00 00 04 00 00 00 	bc1t 4053b8 <tistep_+0x1778>
  4053a8:	02 00 00 00 c4 6a 10 00 	jal 41ab10 <sqrt>
  4053b0:	7b 00 00 00 00 04 00 00 	mov.d $f4,$f0
  4053b8:	2b 00 00 00 00 00 00 17 	l.d $f0,0($23)
  4053c0:	2b 00 00 00 18 81 0a 1c 	l.d $f10,-32488($28)
  4053c8:	75 00 00 00 00 00 0a 00 	mul.d $f0,$f0,$f10
  4053d0:	2b 00 00 00 00 00 02 10 	l.d $f2,0($16)
  4053d8:	77 00 00 00 00 1a 02 00 	div.d $f26,$f0,$f2
  4053e0:	2b 00 00 00 38 81 0e 1c 	l.d $f14,-32456($28)
  4053e8:	75 00 00 00 00 02 0e 02 	mul.d $f2,$f2,$f14
  4053f0:	73 00 00 00 00 00 18 04 	sub.d $f0,$f4,$f24
  4053f8:	75 00 00 00 00 14 00 14 	mul.d $f20,$f20,$f0
  405400:	71 00 00 00 00 0c 02 1c 	add.d $f12,$f28,$f2
  405408:	97 00 00 00 00 00 00 0c 	sqrt.d $f0,$f12
  405410:	91 00 00 00 00 00 00 00 	c.eq.d $f0,$f0
  405418:	0c 00 00 00 02 00 00 00 	bc1t 405428 <tistep_+0x17e8>
  405420:	02 00 00 00 c4 6a 10 00 	jal 41ab10 <sqrt>
  405428:	73 00 00 00 00 00 16 00 	sub.d $f0,$f0,$f22
  405430:	75 00 00 00 00 04 00 1a 	mul.d $f4,$f26,$f0
  405438:	2b 00 00 00 18 00 0a 1d 	l.d $f10,24($29)
  405440:	2b 00 00 00 28 81 0e 1c 	l.d $f14,-32472($28)
  405448:	93 00 00 00 00 00 0e 0a 	c.lt.d $f10,$f14
  405450:	0b 00 00 00 0a 00 00 00 	bc1f 405480 <tistep_+0x1840>
  405458:	2b 00 00 00 00 00 00 15 	l.d $f0,0($21)
  405460:	77 00 00 00 00 00 18 00 	div.d $f0,$f0,$f24
  405468:	2b 00 00 00 30 81 0e 1c 	l.d $f14,-32464($28)
  405470:	73 00 00 00 00 02 0a 0e 	sub.d $f2,$f14,$f10
  405478:	75 00 00 00 00 14 02 00 	mul.d $f20,$f0,$f2
  405480:	2b 00 00 00 28 81 0a 1c 	l.d $f10,-32472($28)
  405488:	93 00 00 00 00 00 0a 1e 	c.lt.d $f30,$f10
  405490:	0b 00 00 00 0a 00 00 00 	bc1f 4054c0 <tistep_+0x1880>
  405498:	2b 00 00 00 00 00 00 17 	l.d $f0,0($23)
  4054a0:	77 00 00 00 00 00 16 00 	div.d $f0,$f0,$f22
  4054a8:	2b 00 00 00 30 81 0e 1c 	l.d $f14,-32464($28)
  4054b0:	73 00 00 00 00 02 1e 0e 	sub.d $f2,$f14,$f30
  4054b8:	75 00 00 00 00 04 02 00 	mul.d $f4,$f0,$f2
  4054c0:	43 00 00 00 01 00 16 16 	addiu $22,$22,1
  4054c8:	95 00 00 00 00 00 04 14 	c.le.d $f20,$f4
  4054d0:	a2 00 00 00 57 10 03 00 	lui $3,4183
  4054d8:	43 00 00 00 08 09 03 03 	addiu $3,$3,2312
  4054e0:	55 00 00 00 03 02 16 00 	sll $2,$22,0x3
  4054e8:	42 00 00 00 00 02 03 02 	addu $2,$2,$3
  4054f0:	0b 00 00 00 04 00 00 00 	bc1f 405508 <tistep_+0x18c8>
  4054f8:	37 00 00 00 00 00 14 02 	s.d $f20,0($2)
  405500:	01 00 00 00 44 15 10 00 	j 405510 <tistep_+0x18d0>
  405508:	37 00 00 00 00 00 04 02 	s.d $f4,0($2)
  405510:	43 00 00 00 08 00 15 15 	addiu $21,$21,8
  405518:	28 00 00 00 10 00 02 1d 	lw $2,16($29)
  405520:	43 00 00 00 01 00 12 12 	addiu $18,$18,1
  405528:	43 00 00 00 01 00 11 11 	addiu $17,$17,1
  405530:	5b 00 00 00 00 02 11 02 	slt $2,$2,$17
  405538:	05 00 00 00 ec fe 00 02 	beq $2,$0,4050f0 <tistep_+0x14b0>
  405540:	43 00 00 00 92 01 1e 1e 	addiu $30,$30,402
  405548:	43 00 00 00 01 00 13 13 	addiu $19,$19,1
  405550:	5b 00 00 00 00 02 13 14 	slt $2,$20,$19
  405558:	05 00 00 00 cc fe 00 02 	beq $2,$0,405090 <tistep_+0x1450>
  405560:	a2 00 00 00 5f 10 03 00 	lui $3,4191
  405568:	28 00 00 00 80 29 03 03 	lw $3,10624($3)
  405570:	a2 00 00 00 5f 10 02 00 	lui $2,4191
  405578:	28 00 00 00 8c 29 02 02 	lw $2,10636($2)
  405580:	46 00 00 00 00 00 02 03 	mult $3,$2
  405588:	a2 00 00 00 57 10 10 00 	lui $16,4183
  405590:	43 00 00 00 10 09 10 10 	addiu $16,$16,2320
  405598:	43 00 00 00 10 00 04 1d 	addiu $4,$29,16
  4055a0:	4c 00 00 00 00 02 00 00 	mflo $2
  4055a8:	42 00 00 00 00 05 10 00 	addu $5,$0,$16
  4055b0:	43 00 00 00 04 80 06 1c 	addiu $6,$28,-32764
  4055b8:	34 00 00 00 10 00 02 1d 	sw $2,16($29)
  4055c0:	02 00 00 00 f0 4b 10 00 	jal 412fc0 <ismin_>
  4055c8:	55 00 00 00 03 02 02 00 	sll $2,$2,0x3
  4055d0:	42 00 00 00 00 10 02 10 	addu $16,$16,$2
  4055d8:	a2 00 00 00 5f 10 01 00 	lui $1,4191
  4055e0:	2b 00 00 00 b8 29 02 01 	l.d $f2,10680($1)
  4055e8:	2b 00 00 00 f8 ff 00 10 	l.d $f0,-8($16)
  4055f0:	75 00 00 00 00 02 00 02 	mul.d $f2,$f2,$f0
  4055f8:	a2 00 00 00 5f 10 01 00 	lui $1,4191
  405600:	2b 00 00 00 a8 29 00 01 	l.d $f0,10664($1)
  405608:	71 00 00 00 00 00 00 00 	add.d $f0,$f0,$f0
  405610:	93 00 00 00 00 00 00 02 	c.lt.d $f2,$f0
  405618:	a2 00 00 00 5f 10 01 00 	lui $1,4191
  405620:	37 00 00 00 a8 29 00 01 	s.d $f0,10664($1)
  405628:	0b 00 00 00 04 00 00 00 	bc1f 405640 <tistep_+0x1a00>
  405630:	a2 00 00 00 5f 10 01 00 	lui $1,4191
  405638:	37 00 00 00 a8 29 02 01 	s.d $f2,10664($1)
  405640:	a2 00 00 00 5f 10 03 00 	lui $3,4191
  405648:	28 00 00 00 08 2a 03 03 	lw $3,10760($3)
  405650:	06 00 00 00 08 00 00 03 	bne $3,$0,405678 <tistep_+0x1a38>
  405658:	2b 00 00 00 40 81 00 1c 	l.d $f0,-32448($28)
  405660:	75 00 00 00 00 00 00 02 	mul.d $f0,$f2,$f0
  405668:	a2 00 00 00 5f 10 01 00 	lui $1,4191
  405670:	37 00 00 00 a8 29 00 01 	s.d $f0,10664($1)
  405678:	a2 00 00 00 5f 10 01 00 	lui $1,4191
  405680:	2b 00 00 00 a0 29 00 01 	l.d $f0,10656($1)
  405688:	a2 00 00 00 5f 10 01 00 	lui $1,4191
  405690:	2b 00 00 00 a8 29 02 01 	l.d $f2,10664($1)
  405698:	71 00 00 00 00 00 02 00 	add.d $f0,$f0,$f2
  4056a0:	42 00 00 00 00 02 00 00 	addu $2,$0,$0
  4056a8:	43 00 00 00 01 00 03 03 	addiu $3,$3,1
  4056b0:	a2 00 00 00 5f 10 01 00 	lui $1,4191
  4056b8:	34 00 00 00 08 2a 03 01 	sw $3,10760($1)
  4056c0:	a2 00 00 00 5f 10 01 00 	lui $1,4191
  4056c8:	37 00 00 00 a0 29 00 01 	s.d $f0,10656($1)
  4056d0:	28 00 00 00 44 00 1f 1d 	lw $31,68($29)
  4056d8:	28 00 00 00 40 00 1e 1d 	lw $30,64($29)
  4056e0:	28 00 00 00 3c 00 17 1d 	lw $23,60($29)
  4056e8:	28 00 00 00 38 00 16 1d 	lw $22,56($29)
  4056f0:	28 00 00 00 34 00 15 1d 	lw $21,52($29)
  4056f8:	28 00 00 00 30 00 14 1d 	lw $20,48($29)
  405700:	28 00 00 00 2c 00 13 1d 	lw $19,44($29)
  405708:	28 00 00 00 28 00 12 1d 	lw $18,40($29)
  405710:	28 00 00 00 24 00 11 1d 	lw $17,36($29)
  405718:	28 00 00 00 20 00 10 1d 	lw $16,32($29)
  405720:	2b 00 00 00 70 00 1e 1d 	l.d $f30,112($29)
  405728:	2b 00 00 00 68 00 1c 1d 	l.d $f28,104($29)
  405730:	2b 00 00 00 60 00 1a 1d 	l.d $f26,96($29)
  405738:	2b 00 00 00 58 00 18 1d 	l.d $f24,88($29)
  405740:	2b 00 00 00 50 00 16 1d 	l.d $f22,80($29)
  405748:	2b 00 00 00 48 00 14 1d 	l.d $f20,72($29)
  405750:	43 00 00 00 78 00 1d 1d 	addiu $29,$29,120
  405758:	03 00 00 00 00 00 00 1f 	jr $31

00405760 <advnce_>:
  405760:	43 00 00 00 c8 ff 1d 1d 	addiu $29,$29,-56
  405768:	34 00 00 00 18 00 12 1d 	sw $18,24($29)
  405770:	a2 00 00 00 5f 10 12 00 	lui $18,4191
  405778:	43 00 00 00 a8 29 12 12 	addiu $18,$18,10664
  405780:	34 00 00 00 34 00 1f 1d 	sw $31,52($29)
  405788:	34 00 00 00 30 00 1e 1d 	sw $30,48($29)
  405790:	34 00 00 00 2c 00 17 1d 	sw $23,44($29)
  405798:	34 00 00 00 28 00 16 1d 	sw $22,40($29)
  4057a0:	34 00 00 00 24 00 15 1d 	sw $21,36($29)
  4057a8:	34 00 00 00 20 00 14 1d 	sw $20,32($29)
  4057b0:	34 00 00 00 1c 00 13 1d 	sw $19,28($29)
  4057b8:	34 00 00 00 14 00 11 1d 	sw $17,20($29)
  4057c0:	34 00 00 00 10 00 10 1d 	sw $16,16($29)
  4057c8:	2b 00 00 00 00 00 02 12 	l.d $f2,0($18)
  4057d0:	2b 00 00 00 50 81 00 1c 	l.d $f0,-32432($28)
  4057d8:	75 00 00 00 00 02 00 02 	mul.d $f2,$f2,$f0
  4057e0:	43 00 00 00 38 80 04 1c 	addiu $4,$28,-32712
  4057e8:	43 00 00 00 01 00 05 00 	addiu $5,$0,1
  4057f0:	37 00 00 00 00 00 02 12 	s.d $f2,0($18)
  4057f8:	02 00 00 00 9e 16 10 00 	jal 405a78 <adlen_>
  405800:	02 00 00 00 be 04 10 00 	jal 4012f8 <bbh_>
  405808:	02 00 00 00 5e 18 10 00 	jal 406178 <corih_>
  405810:	02 00 00 00 e4 19 10 00 	jal 406790 <stagh2_>
  405818:	02 00 00 00 58 19 10 00 	jal 406560 <stagh1_>
  405820:	02 00 00 00 96 22 10 00 	jal 408a58 <trans1_>
  405828:	02 00 00 00 1e 26 10 00 	jal 409878 <trans2_>
  405830:	a2 00 00 00 67 10 14 00 	lui $20,4199
  405838:	43 00 00 00 30 5c 14 14 	addiu $20,$20,23600
  405840:	42 00 00 00 00 04 14 00 	addu $4,$0,$20
  405848:	42 00 00 00 00 05 14 00 	addu $5,$0,$20
  405850:	a2 00 00 00 20 10 1e 00 	lui $30,4128
  405858:	43 00 00 00 70 12 1e 1e 	addiu $30,$30,4720
  405860:	42 00 00 00 00 06 1e 00 	addu $6,$0,$30
  405868:	02 00 00 00 0e 2f 10 00 	jal 40bc38 <fct_>
  405870:	a2 00 00 00 6f 10 13 00 	lui $19,4207
  405878:	43 00 00 00 30 36 13 13 	addiu $19,$19,13872
  405880:	42 00 00 00 00 04 13 00 	addu $4,$0,$19
  405888:	42 00 00 00 00 05 13 00 	addu $5,$0,$19
  405890:	a2 00 00 00 28 10 17 00 	lui $23,4136
  405898:	43 00 00 00 70 ec 17 17 	addiu $23,$23,-5008
  4058a0:	42 00 00 00 00 06 17 00 	addu $6,$0,$23
  4058a8:	02 00 00 00 0e 2f 10 00 	jal 40bc38 <fct_>
  4058b0:	a2 00 00 00 77 10 11 00 	lui $17,4215
  4058b8:	43 00 00 00 30 10 11 11 	addiu $17,$17,4144
  4058c0:	42 00 00 00 00 04 11 00 	addu $4,$0,$17
  4058c8:	42 00 00 00 00 05 11 00 	addu $5,$0,$17
  4058d0:	a2 00 00 00 30 10 16 00 	lui $22,4144
  4058d8:	43 00 00 00 70 c6 16 16 	addiu $22,$22,-14736
  4058e0:	42 00 00 00 00 06 16 00 	addu $6,$0,$22
  4058e8:	02 00 00 00 0e 2f 10 00 	jal 40bc38 <fct_>
  4058f0:	a2 00 00 00 7f 10 10 00 	lui $16,4223
  4058f8:	43 00 00 00 30 ea 10 10 	addiu $16,$16,-5584
  405900:	42 00 00 00 00 04 10 00 	addu $4,$0,$16
  405908:	42 00 00 00 00 05 10 00 	addu $5,$0,$16
  405910:	a2 00 00 00 38 10 15 00 	lui $21,4152
  405918:	43 00 00 00 70 a0 15 15 	addiu $21,$21,-24464
  405920:	42 00 00 00 00 06 15 00 	addu $6,$0,$21
  405928:	02 00 00 00 0e 2f 10 00 	jal 40bc38 <fct_>
  405930:	2b 00 00 00 00 00 00 12 	l.d $f0,0($18)
  405938:	71 00 00 00 00 00 00 00 	add.d $f0,$f0,$f0
  405940:	43 00 00 00 48 81 04 1c 	addiu $4,$28,-32440
  405948:	43 00 00 00 01 00 05 00 	addiu $5,$0,1
  405950:	37 00 00 00 00 00 00 12 	s.d $f0,0($18)
  405958:	02 00 00 00 9e 16 10 00 	jal 405a78 <adlen_>
  405960:	02 00 00 00 d0 06 10 00 	jal 401b40 <bbf_>
  405968:	02 00 00 00 70 1a 10 00 	jal 4069c0 <corif_>
  405970:	02 00 00 00 4e 1e 10 00 	jal 407938 <stagf2_>
  405978:	02 00 00 00 6a 1b 10 00 	jal 406da8 <stagf1_>
  405980:	02 00 00 00 96 22 10 00 	jal 408a58 <trans1_>
  405988:	02 00 00 00 1e 26 10 00 	jal 409878 <trans2_>
  405990:	42 00 00 00 00 04 1e 00 	addu $4,$0,$30
  405998:	42 00 00 00 00 05 14 00 	addu $5,$0,$20
  4059a0:	42 00 00 00 00 06 04 00 	addu $6,$0,$4
  4059a8:	02 00 00 00 0e 2f 10 00 	jal 40bc38 <fct_>
  4059b0:	42 00 00 00 00 04 17 00 	addu $4,$0,$23
  4059b8:	42 00 00 00 00 05 13 00 	addu $5,$0,$19
  4059c0:	42 00 00 00 00 06 04 00 	addu $6,$0,$4
  4059c8:	02 00 00 00 0e 2f 10 00 	jal 40bc38 <fct_>
  4059d0:	42 00 00 00 00 04 16 00 	addu $4,$0,$22
  4059d8:	42 00 00 00 00 05 11 00 	addu $5,$0,$17
  4059e0:	42 00 00 00 00 06 04 00 	addu $6,$0,$4
  4059e8:	02 00 00 00 0e 2f 10 00 	jal 40bc38 <fct_>
  4059f0:	42 00 00 00 00 04 15 00 	addu $4,$0,$21
  4059f8:	42 00 00 00 00 05 10 00 	addu $5,$0,$16
  405a00:	42 00 00 00 00 06 04 00 	addu $6,$0,$4
  405a08:	02 00 00 00 0e 2f 10 00 	jal 40bc38 <fct_>
  405a10:	42 00 00 00 00 02 00 00 	addu $2,$0,$0
  405a18:	28 00 00 00 34 00 1f 1d 	lw $31,52($29)
  405a20:	28 00 00 00 30 00 1e 1d 	lw $30,48($29)
  405a28:	28 00 00 00 2c 00 17 1d 	lw $23,44($29)
  405a30:	28 00 00 00 28 00 16 1d 	lw $22,40($29)
  405a38:	28 00 00 00 24 00 15 1d 	lw $21,36($29)
  405a40:	28 00 00 00 20 00 14 1d 	lw $20,32($29)
  405a48:	28 00 00 00 1c 00 13 1d 	lw $19,28($29)
  405a50:	28 00 00 00 18 00 12 1d 	lw $18,24($29)
  405a58:	28 00 00 00 14 00 11 1d 	lw $17,20($29)
  405a60:	28 00 00 00 10 00 10 1d 	lw $16,16($29)
  405a68:	43 00 00 00 38 00 1d 1d 	addiu $29,$29,56
  405a70:	03 00 00 00 00 00 00 1f 	jr $31

00405a78 <adlen_>:
  405a78:	43 00 00 00 e8 ff 1d 1d 	addiu $29,$29,-24
  405a80:	34 00 00 00 10 00 1f 1d 	sw $31,16($29)
  405a88:	22 00 00 00 00 00 03 04 	lbu $3,0($4)
  405a90:	43 00 00 00 48 00 02 00 	addiu $2,$0,72
  405a98:	06 00 00 00 5a 01 02 03 	bne $3,$2,406008 <adlen_+0x590>
  405aa0:	a2 00 00 00 5f 10 03 00 	lui $3,4191
  405aa8:	28 00 00 00 98 29 03 03 	lw $3,10648($3)
  405ab0:	43 00 00 00 01 00 02 00 	addiu $2,$0,1
  405ab8:	06 00 00 00 86 00 02 03 	bne $3,$2,405cd8 <adlen_+0x260>
  405ac0:	43 00 00 00 01 00 03 00 	addiu $3,$0,1
  405ac8:	43 00 00 00 92 01 06 00 	addiu $6,$0,402
  405ad0:	a2 00 00 00 20 10 05 00 	lui $5,4128
  405ad8:	43 00 00 00 70 12 05 05 	addiu $5,$5,4720
  405ae0:	a2 00 00 00 00 10 04 00 	lui $4,4096
  405ae8:	43 00 00 00 10 64 04 04 	addiu $4,$4,25616
  405af0:	45 00 00 00 00 02 03 06 	subu $2,$6,$3
  405af8:	55 00 00 00 03 02 02 00 	sll $2,$2,0x3
  405b00:	42 00 00 00 00 02 05 02 	addu $2,$2,$5
  405b08:	2b 00 00 00 00 00 00 02 	l.d $f0,0($2)
  405b10:	43 00 00 00 01 00 02 03 	addiu $2,$3,1
  405b18:	45 00 00 00 00 02 02 06 	subu $2,$6,$2
  405b20:	55 00 00 00 03 02 02 00 	sll $2,$2,0x3
  405b28:	42 00 00 00 00 02 05 02 	addu $2,$2,$5
  405b30:	37 00 00 00 00 00 00 04 	s.d $f0,0($4)
  405b38:	2b 00 00 00 00 00 00 02 	l.d $f0,0($2)
  405b40:	43 00 00 00 02 00 02 03 	addiu $2,$3,2
  405b48:	45 00 00 00 00 02 02 06 	subu $2,$6,$2
  405b50:	55 00 00 00 03 02 02 00 	sll $2,$2,0x3
  405b58:	42 00 00 00 00 02 05 02 	addu $2,$2,$5
  405b60:	37 00 00 00 08 00 00 04 	s.d $f0,8($4)
  405b68:	2b 00 00 00 00 00 00 02 	l.d $f0,0($2)
  405b70:	43 00 00 00 03 00 02 03 	addiu $2,$3,3
  405b78:	45 00 00 00 00 02 02 06 	subu $2,$6,$2
  405b80:	55 00 00 00 03 02 02 00 	sll $2,$2,0x3
  405b88:	42 00 00 00 00 02 05 02 	addu $2,$2,$5
  405b90:	37 00 00 00 10 00 00 04 	s.d $f0,16($4)
  405b98:	2b 00 00 00 00 00 00 02 	l.d $f0,0($2)
  405ba0:	43 00 00 00 04 00 02 03 	addiu $2,$3,4
  405ba8:	45 00 00 00 00 02 02 06 	subu $2,$6,$2
  405bb0:	55 00 00 00 03 02 02 00 	sll $2,$2,0x3
  405bb8:	42 00 00 00 00 02 05 02 	addu $2,$2,$5
  405bc0:	37 00 00 00 18 00 00 04 	s.d $f0,24($4)
  405bc8:	2b 00 00 00 00 00 00 02 	l.d $f0,0($2)
  405bd0:	43 00 00 00 05 00 02 03 	addiu $2,$3,5
  405bd8:	45 00 00 00 00 02 02 06 	subu $2,$6,$2
  405be0:	55 00 00 00 03 02 02 00 	sll $2,$2,0x3
  405be8:	42 00 00 00 00 02 05 02 	addu $2,$2,$5
  405bf0:	37 00 00 00 20 00 00 04 	s.d $f0,32($4)
  405bf8:	2b 00 00 00 00 00 00 02 	l.d $f0,0($2)
  405c00:	43 00 00 00 06 00 03 03 	addiu $3,$3,6
  405c08:	37 00 00 00 28 00 00 04 	s.d $f0,40($4)
  405c10:	43 00 00 00 30 00 04 04 	addiu $4,$4,48
  405c18:	5c 00 00 00 93 01 02 03 	slti $2,$3,403
  405c20:	06 00 00 00 b2 ff 00 02 	bne $2,$0,405af0 <adlen_+0x78>
  405c28:	43 00 00 00 00 80 04 1c 	addiu $4,$28,-32768
  405c30:	a2 00 00 00 00 10 05 00 	lui $5,4096
  405c38:	43 00 00 00 10 64 05 05 	addiu $5,$5,25616
  405c40:	43 00 00 00 04 80 06 1c 	addiu $6,$28,-32764
  405c48:	a2 00 00 00 5f 10 07 00 	lui $7,4191
  405c50:	43 00 00 00 70 29 07 07 	addiu $7,$7,10608
  405c58:	02 00 00 00 54 50 10 00 	jal 414150 <isfne_>
  405c60:	a2 00 00 00 5f 10 01 00 	lui $1,4191
  405c68:	34 00 00 00 80 29 02 01 	sw $2,10624($1)
  405c70:	43 00 00 00 9d 01 03 00 	addiu $3,$0,413
  405c78:	45 00 00 00 00 03 02 03 	subu $3,$3,$2
  405c80:	43 00 00 00 92 01 04 00 	addiu $4,$0,402
  405c88:	5c 00 00 00 92 01 02 03 	slti $2,$3,402
  405c90:	05 00 00 00 02 00 00 02 	beq $2,$0,405ca0 <adlen_+0x228>
  405c98:	42 00 00 00 00 04 03 00 	addu $4,$0,$3
  405ca0:	43 00 00 00 ff ff 02 04 	addiu $2,$4,-1
  405ca8:	a2 00 00 00 5f 10 01 00 	lui $1,4191
  405cb0:	34 00 00 00 84 29 02 01 	sw $2,10628($1)
  405cb8:	43 00 00 00 fe ff 02 04 	addiu $2,$4,-2
  405cc0:	a2 00 00 00 5f 10 01 00 	lui $1,4191
  405cc8:	34 00 00 00 80 29 04 01 	sw $4,10624($1)
  405cd0:	01 00 00 00 44 17 10 00 	j 405d10 <adlen_+0x298>
  405cd8:	43 00 00 00 92 01 02 00 	addiu $2,$0,402
  405ce0:	a2 00 00 00 5f 10 01 00 	lui $1,4191
  405ce8:	34 00 00 00 80 29 02 01 	sw $2,10624($1)
  405cf0:	43 00 00 00 91 01 02 00 	addiu $2,$0,401
  405cf8:	a2 00 00 00 5f 10 01 00 	lui $1,4191
  405d00:	34 00 00 00 84 29 02 01 	sw $2,10628($1)
  405d08:	43 00 00 00 90 01 02 00 	addiu $2,$0,400
  405d10:	a2 00 00 00 5f 10 01 00 	lui $1,4191
  405d18:	34 00 00 00 88 29 02 01 	sw $2,10632($1)
  405d20:	a2 00 00 00 5f 10 03 00 	lui $3,4191
  405d28:	28 00 00 00 9c 29 03 03 	lw $3,10652($3)
  405d30:	43 00 00 00 01 00 02 00 	addiu $2,$0,1
  405d38:	06 00 00 00 9e 00 02 03 	bne $3,$2,405fb8 <adlen_+0x540>
  405d40:	43 00 00 00 01 00 04 00 	addiu $4,$0,1
  405d48:	43 00 00 00 a1 00 07 00 	addiu $7,$0,161
  405d50:	a2 00 00 00 20 10 06 00 	lui $6,4128
  405d58:	43 00 00 00 e0 05 06 06 	addiu $6,$6,1504
  405d60:	a2 00 00 00 00 10 05 00 	lui $5,4096
  405d68:	43 00 00 00 a0 70 05 05 	addiu $5,$5,28832
  405d70:	45 00 00 00 00 03 04 07 	subu $3,$7,$4
  405d78:	55 00 00 00 01 02 03 00 	sll $2,$3,0x1
  405d80:	42 00 00 00 00 02 03 02 	addu $2,$2,$3
  405d88:	55 00 00 00 03 02 02 00 	sll $2,$2,0x3
  405d90:	42 00 00 00 00 02 03 02 	addu $2,$2,$3
  405d98:	55 00 00 00 03 02 02 00 	sll $2,$2,0x3
  405da0:	42 00 00 00 00 02 03 02 	addu $2,$2,$3
  405da8:	55 00 00 00 04 02 02 00 	sll $2,$2,0x4
  405db0:	42 00 00 00 00 02 06 02 	addu $2,$2,$6
  405db8:	2b 00 00 00 00 00 00 02 	l.d $f0,0($2)
  405dc0:	43 00 00 00 01 00 03 04 	addiu $3,$4,1
  405dc8:	45 00 00 00 00 03 03 07 	subu $3,$7,$3
  405dd0:	55 00 00 00 01 02 03 00 	sll $2,$3,0x1
  405dd8:	42 00 00 00 00 02 03 02 	addu $2,$2,$3
  405de0:	55 00 00 00 03 02 02 00 	sll $2,$2,0x3
  405de8:	42 00 00 00 00 02 03 02 	addu $2,$2,$3
  405df0:	55 00 00 00 03 02 02 00 	sll $2,$2,0x3
  405df8:	42 00 00 00 00 02 03 02 	addu $2,$2,$3
  405e00:	55 00 00 00 04 02 02 00 	sll $2,$2,0x4
  405e08:	42 00 00 00 00 02 06 02 	addu $2,$2,$6
  405e10:	37 00 00 00 00 00 00 05 	s.d $f0,0($5)
  405e18:	2b 00 00 00 00 00 00 02 	l.d $f0,0($2)
  405e20:	43 00 00 00 02 00 03 04 	addiu $3,$4,2
  405e28:	45 00 00 00 00 03 03 07 	subu $3,$7,$3
  405e30:	55 00 00 00 01 02 03 00 	sll $2,$3,0x1
  405e38:	42 00 00 00 00 02 03 02 	addu $2,$2,$3
  405e40:	55 00 00 00 03 02 02 00 	sll $2,$2,0x3
  405e48:	42 00 00 00 00 02 03 02 	addu $2,$2,$3
  405e50:	55 00 00 00 03 02 02 00 	sll $2,$2,0x3
  405e58:	42 00 00 00 00 02 03 02 	addu $2,$2,$3
  405e60:	55 00 00 00 04 02 02 00 	sll $2,$2,0x4
  405e68:	42 00 00 00 00 02 06 02 	addu $2,$2,$6
  405e70:	37 00 00 00 08 00 00 05 	s.d $f0,8($5)
  405e78:	2b 00 00 00 00 00 00 02 	l.d $f0,0($2)
  405e80:	43 00 00 00 03 00 03 04 	addiu $3,$4,3
  405e88:	45 00 00 00 00 03 03 07 	subu $3,$7,$3
  405e90:	55 00 00 00 01 02 03 00 	sll $2,$3,0x1
  405e98:	42 00 00 00 00 02 03 02 	addu $2,$2,$3
  405ea0:	55 00 00 00 03 02 02 00 	sll $2,$2,0x3
  405ea8:	42 00 00 00 00 02 03 02 	addu $2,$2,$3
  405eb0:	55 00 00 00 03 02 02 00 	sll $2,$2,0x3
  405eb8:	42 00 00 00 00 02 03 02 	addu $2,$2,$3
  405ec0:	55 00 00 00 04 02 02 00 	sll $2,$2,0x4
  405ec8:	42 00 00 00 00 02 06 02 	addu $2,$2,$6
  405ed0:	37 00 00 00 10 00 00 05 	s.d $f0,16($5)
  405ed8:	2b 00 00 00 00 00 00 02 	l.d $f0,0($2)
  405ee0:	43 00 00 00 04 00 04 04 	addiu $4,$4,4
  405ee8:	37 00 00 00 18 00 00 05 	s.d $f0,24($5)
  405ef0:	43 00 00 00 20 00 05 05 	addiu $5,$5,32
  405ef8:	5c 00 00 00 a1 00 02 04 	slti $2,$4,161
  405f00:	06 00 00 00 9a ff 00 02 	bne $2,$0,405d70 <adlen_+0x2f8>
  405f08:	43 00 00 00 08 80 04 1c 	addiu $4,$28,-32760
  405f10:	a2 00 00 00 00 10 05 00 	lui $5,4096
  405f18:	43 00 00 00 a0 70 05 05 	addiu $5,$5,28832
  405f20:	43 00 00 00 04 80 06 1c 	addiu $6,$28,-32764
  405f28:	a2 00 00 00 5f 10 07 00 	lui $7,4191
  405f30:	43 00 00 00 78 29 07 07 	addiu $7,$7,10616
  405f38:	02 00 00 00 54 50 10 00 	jal 414150 <isfne_>
  405f40:	a2 00 00 00 5f 10 01 00 	lui $1,4191
  405f48:	34 00 00 00 8c 29 02 01 	sw $2,10636($1)
  405f50:	43 00 00 00 ab 00 03 00 	addiu $3,$0,171
  405f58:	45 00 00 00 00 03 02 03 	subu $3,$3,$2
  405f60:	43 00 00 00 a0 00 04 00 	addiu $4,$0,160
  405f68:	5c 00 00 00 a0 00 02 03 	slti $2,$3,160
  405f70:	05 00 00 00 02 00 00 02 	beq $2,$0,405f80 <adlen_+0x508>
  405f78:	42 00 00 00 00 04 03 00 	addu $4,$0,$3
  405f80:	43 00 00 00 ff ff 02 04 	addiu $2,$4,-1
  405f88:	a2 00 00 00 5f 10 01 00 	lui $1,4191
  405f90:	34 00 00 00 90 29 02 01 	sw $2,10640($1)
  405f98:	43 00 00 00 fe ff 02 04 	addiu $2,$4,-2
  405fa0:	a2 00 00 00 5f 10 01 00 	lui $1,4191
  405fa8:	34 00 00 00 8c 29 04 01 	sw $4,10636($1)
  405fb0:	01 00 00 00 fc 17 10 00 	j 405ff0 <adlen_+0x578>
  405fb8:	43 00 00 00 a0 00 02 00 	addiu $2,$0,160
  405fc0:	a2 00 00 00 5f 10 01 00 	lui $1,4191
  405fc8:	34 00 00 00 8c 29 02 01 	sw $2,10636($1)
  405fd0:	43 00 00 00 9f 00 02 00 	addiu $2,$0,159
  405fd8:	a2 00 00 00 5f 10 01 00 	lui $1,4191
  405fe0:	34 00 00 00 90 29 02 01 	sw $2,10640($1)
  405fe8:	43 00 00 00 9e 00 02 00 	addiu $2,$0,158
  405ff0:	a2 00 00 00 5f 10 01 00 	lui $1,4191
  405ff8:	34 00 00 00 94 29 02 01 	sw $2,10644($1)
  406000:	01 00 00 00 56 18 10 00 	j 406158 <adlen_+0x6e0>
  406008:	a2 00 00 00 5f 10 03 00 	lui $3,4191
  406010:	28 00 00 00 98 29 03 03 	lw $3,10648($3)
  406018:	43 00 00 00 01 00 02 00 	addiu $2,$0,1
  406020:	06 00 00 00 22 00 02 03 	bne $3,$2,4060b0 <adlen_+0x638>
  406028:	a2 00 00 00 5f 10 03 00 	lui $3,4191
  406030:	28 00 00 00 80 29 03 03 	lw $3,10624($3)
  406038:	5c 00 00 00 92 01 02 03 	slti $2,$3,402
  406040:	05 00 00 00 1a 00 00 02 	beq $2,$0,4060b0 <adlen_+0x638>
  406048:	a2 00 00 00 5f 10 02 00 	lui $2,4191
  406050:	28 00 00 00 84 29 02 02 	lw $2,10628($2)
  406058:	a2 00 00 00 5f 10 04 00 	lui $4,4191
  406060:	28 00 00 00 88 29 04 04 	lw $4,10632($4)
  406068:	43 00 00 00 ff ff 03 03 	addiu $3,$3,-1
  406070:	a2 00 00 00 5f 10 01 00 	lui $1,4191
  406078:	34 00 00 00 80 29 03 01 	sw $3,10624($1)
  406080:	43 00 00 00 ff ff 02 02 	addiu $2,$2,-1
  406088:	43 00 00 00 ff ff 04 04 	addiu $4,$4,-1
  406090:	a2 00 00 00 5f 10 01 00 	lui $1,4191
  406098:	34 00 00 00 84 29 02 01 	sw $2,10628($1)
  4060a0:	a2 00 00 00 5f 10 01 00 	lui $1,4191
  4060a8:	34 00 00 00 88 29 04 01 	sw $4,10632($1)
  4060b0:	a2 00 00 00 5f 10 03 00 	lui $3,4191
  4060b8:	28 00 00 00 9c 29 03 03 	lw $3,10652($3)
  4060c0:	43 00 00 00 01 00 02 00 	addiu $2,$0,1
  4060c8:	06 00 00 00 22 00 02 03 	bne $3,$2,406158 <adlen_+0x6e0>
  4060d0:	a2 00 00 00 5f 10 03 00 	lui $3,4191
  4060d8:	28 00 00 00 8c 29 03 03 	lw $3,10636($3)
  4060e0:	5c 00 00 00 a0 00 02 03 	slti $2,$3,160
  4060e8:	05 00 00 00 1a 00 00 02 	beq $2,$0,406158 <adlen_+0x6e0>
  4060f0:	a2 00 00 00 5f 10 02 00 	lui $2,4191
  4060f8:	28 00 00 00 90 29 02 02 	lw $2,10640($2)
  406100:	a2 00 00 00 5f 10 04 00 	lui $4,4191
  406108:	28 00 00 00 94 29 04 04 	lw $4,10644($4)
  406110:	43 00 00 00 ff ff 03 03 	addiu $3,$3,-1
  406118:	a2 00 00 00 5f 10 01 00 	lui $1,4191
  406120:	34 00 00 00 8c 29 03 01 	sw $3,10636($1)
  406128:	43 00 00 00 ff ff 02 02 	addiu $2,$2,-1
  406130:	43 00 00 00 ff ff 04 04 	addiu $4,$4,-1
  406138:	a2 00 00 00 5f 10 01 00 	lui $1,4191
  406140:	34 00 00 00 90 29 02 01 	sw $2,10640($1)
  406148:	a2 00 00 00 5f 10 01 00 	lui $1,4191
  406150:	34 00 00 00 94 29 04 01 	sw $4,10644($1)
  406158:	42 00 00 00 00 02 00 00 	addu $2,$0,$0
  406160:	28 00 00 00 10 00 1f 1d 	lw $31,16($29)
  406168:	43 00 00 00 18 00 1d 1d 	addiu $29,$29,24
  406170:	03 00 00 00 00 00 00 1f 	jr $31

00406178 <corih_>:
  406178:	a2 00 00 00 5f 10 01 00 	lui $1,4191
  406180:	2b 00 00 00 b0 29 02 01 	l.d $f2,10672($1)
  406188:	2b 00 00 00 58 81 00 1c 	l.d $f0,-32424($28)
  406190:	73 00 00 00 00 04 00 02 	sub.d $f4,$f2,$f0
  406198:	a2 00 00 00 5f 10 19 00 	lui $25,4191
  4061a0:	28 00 00 00 8c 29 19 19 	lw $25,10636($25)
  4061a8:	43 00 00 00 01 00 0a 00 	addiu $10,$0,1
  4061b0:	07 00 00 00 e6 00 00 19 	blez $25,406550 <corih_+0x3d8>
  4061b8:	a2 00 00 00 30 10 18 00 	lui $24,4144
  4061c0:	43 00 00 00 d8 b9 18 18 	addiu $24,$24,-17960
  4061c8:	a2 00 00 00 38 10 0f 00 	lui $15,4152
  4061d0:	43 00 00 00 d8 93 0f 0f 	addiu $15,$15,-27688
  4061d8:	a2 00 00 00 28 10 0e 00 	lui $14,4136
  4061e0:	43 00 00 00 d8 df 0e 0e 	addiu $14,$14,-8232
  4061e8:	2b 00 00 00 60 81 06 1c 	l.d $f6,-32416($28)
  4061f0:	a2 00 00 00 20 10 0d 00 	lui $13,4128
  4061f8:	43 00 00 00 d8 05 0d 0d 	addiu $13,$13,1496
  406200:	43 00 00 00 92 01 08 00 	addiu $8,$0,402
  406208:	a2 00 00 00 5f 10 07 00 	lui $7,4191
  406210:	28 00 00 00 80 29 07 07 	lw $7,10624($7)
  406218:	43 00 00 00 01 00 06 00 	addiu $6,$0,1
  406220:	07 00 00 00 c2 00 00 07 	blez $7,406530 <corih_+0x3b8>
  406228:	42 00 00 00 00 09 08 00 	addu $9,$0,$8
  406230:	a2 00 00 00 00 10 0c 00 	lui $12,4096
  406238:	43 00 00 00 50 54 0c 0c 	addiu $12,$12,21584
  406240:	a2 00 00 00 5f 10 0b 00 	lui $11,4191
  406248:	43 00 00 00 98 75 0b 0b 	addiu $11,$11,30104
  406250:	a2 00 00 00 5f 10 02 00 	lui $2,4191
  406258:	43 00 00 00 e0 68 02 02 	addiu $2,$2,26848
  406260:	55 00 00 00 03 03 0a 00 	sll $3,$10,0x3
  406268:	42 00 00 00 00 03 02 03 	addu $3,$3,$2
  406270:	43 00 00 00 01 00 02 07 	addiu $2,$7,1
  406278:	4f 00 00 00 01 00 04 07 	andi $4,$7,1
  406280:	5b 00 00 00 00 02 02 06 	slt $2,$6,$2
  406288:	05 00 00 00 02 00 00 02 	beq $2,$0,406298 <corih_+0x120>
  406290:	05 00 00 00 36 00 00 04 	beq $4,$0,406370 <corih_+0x1f8>
  406298:	43 00 00 00 01 00 02 08 	addiu $2,$8,1
  4062a0:	55 00 00 00 03 05 02 00 	sll $5,$2,0x3
  4062a8:	42 00 00 00 00 02 18 05 	addu $2,$5,$24
  4062b0:	2b 00 00 00 00 00 02 02 	l.d $f2,0($2)
  4062b8:	75 00 00 00 00 02 02 02 	mul.d $f2,$f2,$f2
  4062c0:	42 00 00 00 00 02 0f 05 	addu $2,$5,$15
  4062c8:	2b 00 00 00 00 00 00 02 	l.d $f0,0($2)
  4062d0:	75 00 00 00 00 00 00 00 	mul.d $f0,$f0,$f0
  4062d8:	71 00 00 00 00 02 00 02 	add.d $f2,$f2,$f0
  4062e0:	75 00 00 00 00 02 06 02 	mul.d $f2,$f2,$f6
  4062e8:	42 00 00 00 00 02 0d 05 	addu $2,$5,$13
  4062f0:	2b 00 00 00 00 00 00 02 	l.d $f0,0($2)
  4062f8:	77 00 00 00 00 02 00 02 	div.d $f2,$f2,$f0
  406300:	42 00 00 00 00 02 0e 05 	addu $2,$5,$14
  406308:	2b 00 00 00 00 00 00 02 	l.d $f0,0($2)
  406310:	73 00 00 00 00 00 02 00 	sub.d $f0,$f0,$f2
  406318:	75 00 00 00 00 02 00 04 	mul.d $f2,$f4,$f0
  406320:	2b 00 00 00 00 00 00 0c 	l.d $f0,0($12)
  406328:	93 00 00 00 00 00 00 02 	c.lt.d $f2,$f0
  406330:	0b 00 00 00 02 00 00 00 	bc1f 406340 <corih_+0x1c8>
  406338:	7b 00 00 00 00 02 00 00 	mov.d $f2,$f0
  406340:	2b 00 00 00 00 00 00 03 	l.d $f0,0($3)
  406348:	7d 00 00 00 00 02 00 02 	neg.d $f2,$f2
  406350:	77 00 00 00 00 02 00 02 	div.d $f2,$f2,$f0
  406358:	43 00 00 00 02 00 06 00 	addiu $6,$0,2
  406360:	5c 00 00 00 02 00 04 07 	slti $4,$7,2
  406368:	01 00 00 00 46 19 10 00 	j 406518 <corih_+0x3a0>
  406370:	42 00 00 00 00 02 06 09 	addu $2,$9,$6
  406378:	55 00 00 00 03 04 02 00 	sll $4,$2,0x3
  406380:	42 00 00 00 00 02 18 04 	addu $2,$4,$24
  406388:	2b 00 00 00 00 00 02 02 	l.d $f2,0($2)
  406390:	75 00 00 00 00 02 02 02 	mul.d $f2,$f2,$f2
  406398:	42 00 00 00 00 02 0f 04 	addu $2,$4,$15
  4063a0:	2b 00 00 00 00 00 00 02 	l.d $f0,0($2)
  4063a8:	75 00 00 00 00 00 00 00 	mul.d $f0,$f0,$f0
  4063b0:	71 00 00 00 00 02 00 02 	add.d $f2,$f2,$f0
  4063b8:	75 00 00 00 00 02 06 02 	mul.d $f2,$f2,$f6
  4063c0:	42 00 00 00 00 02 0d 04 	addu $2,$4,$13
  4063c8:	2b 00 00 00 00 00 00 02 	l.d $f0,0($2)
  4063d0:	77 00 00 00 00 02 00 02 	div.d $f2,$f2,$f0
  4063d8:	42 00 00 00 00 02 0e 04 	addu $2,$4,$14
  4063e0:	2b 00 00 00 00 00 00 02 	l.d $f0,0($2)
  4063e8:	73 00 00 00 00 00 02 00 	sub.d $f0,$f0,$f2
  4063f0:	75 00 00 00 00 00 00 04 	mul.d $f0,$f4,$f0
  4063f8:	2b 00 00 00 00 00 02 0c 	l.d $f2,0($12)
  406400:	93 00 00 00 00 00 02 00 	c.lt.d $f0,$f2
  406408:	0b 00 00 00 02 00 00 00 	bc1f 406418 <corih_+0x2a0>
  406410:	7b 00 00 00 00 00 00 02 	mov.d $f0,$f2
  406418:	2b 00 00 00 00 00 02 03 	l.d $f2,0($3)
  406420:	7d 00 00 00 00 00 00 00 	neg.d $f0,$f0
  406428:	77 00 00 00 00 00 02 00 	div.d $f0,$f0,$f2
  406430:	42 00 00 00 00 02 0b 04 	addu $2,$4,$11
  406438:	37 00 00 00 00 00 00 02 	s.d $f0,0($2)
  406440:	43 00 00 00 01 00 02 06 	addiu $2,$6,1
  406448:	42 00 00 00 00 02 02 09 	addu $2,$9,$2
  406450:	55 00 00 00 03 05 02 00 	sll $5,$2,0x3
  406458:	42 00 00 00 00 02 18 05 	addu $2,$5,$24
  406460:	2b 00 00 00 00 00 02 02 	l.d $f2,0($2)
  406468:	75 00 00 00 00 02 02 02 	mul.d $f2,$f2,$f2
  406470:	42 00 00 00 00 02 0f 05 	addu $2,$5,$15
  406478:	2b 00 00 00 00 00 00 02 	l.d $f0,0($2)
  406480:	75 00 00 00 00 00 00 00 	mul.d $f0,$f0,$f0
  406488:	71 00 00 00 00 02 00 02 	add.d $f2,$f2,$f0
  406490:	75 00 00 00 00 02 06 02 	mul.d $f2,$f2,$f6
  406498:	42 00 00 00 00 02 0d 05 	addu $2,$5,$13
  4064a0:	2b 00 00 00 00 00 00 02 	l.d $f0,0($2)
  4064a8:	77 00 00 00 00 02 00 02 	div.d $f2,$f2,$f0
  4064b0:	42 00 00 00 00 02 0e 05 	addu $2,$5,$14
  4064b8:	2b 00 00 00 00 00 00 02 	l.d $f0,0($2)
  4064c0:	73 00 00 00 00 00 02 00 	sub.d $f0,$f0,$f2
  4064c8:	75 00 00 00 00 02 00 04 	mul.d $f2,$f4,$f0
  4064d0:	2b 00 00 00 00 00 00 0c 	l.d $f0,0($12)
  4064d8:	93 00 00 00 00 00 00 02 	c.lt.d $f2,$f0
  4064e0:	0b 00 00 00 02 00 00 00 	bc1f 4064f0 <corih_+0x378>
  4064e8:	7b 00 00 00 00 02 00 00 	mov.d $f2,$f0
  4064f0:	2b 00 00 00 00 00 00 03 	l.d $f0,0($3)
  4064f8:	7d 00 00 00 00 02 00 02 	neg.d $f2,$f2
  406500:	77 00 00 00 00 02 00 02 	div.d $f2,$f2,$f0
  406508:	43 00 00 00 02 00 06 06 	addiu $6,$6,2
  406510:	5b 00 00 00 00 04 06 07 	slt $4,$7,$6
  406518:	42 00 00 00 00 02 0b 05 	addu $2,$5,$11
  406520:	37 00 00 00 00 00 02 02 	s.d $f2,0($2)
  406528:	05 00 00 00 90 ff 00 04 	beq $4,$0,406370 <corih_+0x1f8>
  406530:	43 00 00 00 92 01 08 08 	addiu $8,$8,402
  406538:	43 00 00 00 01 00 0a 0a 	addiu $10,$10,1
  406540:	5b 00 00 00 00 02 0a 19 	slt $2,$25,$10
  406548:	05 00 00 00 2e ff 00 02 	beq $2,$0,406208 <corih_+0x90>
  406550:	42 00 00 00 00 02 00 00 	addu $2,$0,$0
  406558:	03 00 00 00 00 00 00 1f 	jr $31

00406560 <stagh1_>:
  406560:	43 00 00 00 c8 ff 1d 1d 	addiu $29,$29,-56
  406568:	34 00 00 00 20 00 14 1d 	sw $20,32($29)
  406570:	a2 00 00 00 67 10 14 00 	lui $20,4199
  406578:	43 00 00 00 30 5c 14 14 	addiu $20,$20,23600
  406580:	42 00 00 00 00 04 14 00 	addu $4,$0,$20
  406588:	34 00 00 00 10 00 10 1d 	sw $16,16($29)
  406590:	a2 00 00 00 20 10 10 00 	lui $16,4128
  406598:	43 00 00 00 70 12 10 10 	addiu $16,$16,4720
  4065a0:	42 00 00 00 00 05 10 00 	addu $5,$0,$16
  4065a8:	34 00 00 00 30 00 1f 1d 	sw $31,48($29)
  4065b0:	34 00 00 00 2c 00 17 1d 	sw $23,44($29)
  4065b8:	34 00 00 00 28 00 16 1d 	sw $22,40($29)
  4065c0:	34 00 00 00 24 00 15 1d 	sw $21,36($29)
  4065c8:	34 00 00 00 1c 00 13 1d 	sw $19,28($29)
  4065d0:	34 00 00 00 18 00 12 1d 	sw $18,24($29)
  4065d8:	34 00 00 00 14 00 11 1d 	sw $17,20($29)
  4065e0:	02 00 00 00 da 1e 10 00 	jal 407b68 <s1_>
  4065e8:	a2 00 00 00 6f 10 15 00 	lui $21,4207
  4065f0:	43 00 00 00 30 3b 15 15 	addiu $21,$21,15152
  4065f8:	42 00 00 00 00 04 15 00 	addu $4,$0,$21
  406600:	a2 00 00 00 28 10 11 00 	lui $17,4136
  406608:	43 00 00 00 70 ec 11 11 	addiu $17,$17,-5008
  406610:	42 00 00 00 00 05 11 00 	addu $5,$0,$17
  406618:	02 00 00 00 da 1e 10 00 	jal 407b68 <s1_>
  406620:	a2 00 00 00 77 10 16 00 	lui $22,4215
  406628:	43 00 00 00 30 1a 16 16 	addiu $22,$22,6704
  406630:	42 00 00 00 00 04 16 00 	addu $4,$0,$22
  406638:	a2 00 00 00 30 10 12 00 	lui $18,4144
  406640:	43 00 00 00 70 c6 12 12 	addiu $18,$18,-14736
  406648:	42 00 00 00 00 05 12 00 	addu $5,$0,$18
  406650:	02 00 00 00 da 1e 10 00 	jal 407b68 <s1_>
  406658:	a2 00 00 00 7f 10 17 00 	lui $23,4223
  406660:	43 00 00 00 30 f9 17 17 	addiu $23,$23,-1744
  406668:	42 00 00 00 00 04 17 00 	addu $4,$0,$23
  406670:	a2 00 00 00 38 10 13 00 	lui $19,4152
  406678:	43 00 00 00 70 a0 13 13 	addiu $19,$19,-24464
  406680:	42 00 00 00 00 05 13 00 	addu $5,$0,$19
  406688:	02 00 00 00 da 1e 10 00 	jal 407b68 <s1_>
  406690:	42 00 00 00 00 04 14 00 	addu $4,$0,$20
  406698:	42 00 00 00 00 05 10 00 	addu $5,$0,$16
  4066a0:	43 00 00 00 68 81 06 1c 	addiu $6,$28,-32408
  4066a8:	43 00 00 00 02 00 07 00 	addiu $7,$0,2
  4066b0:	02 00 00 00 74 20 10 00 	jal 4081d0 <b1_>
  4066b8:	42 00 00 00 00 04 15 00 	addu $4,$0,$21
  4066c0:	42 00 00 00 00 05 11 00 	addu $5,$0,$17
  4066c8:	43 00 00 00 6c 81 06 1c 	addiu $6,$28,-32404
  4066d0:	43 00 00 00 02 00 07 00 	addiu $7,$0,2
  4066d8:	02 00 00 00 74 20 10 00 	jal 4081d0 <b1_>
  4066e0:	42 00 00 00 00 04 16 00 	addu $4,$0,$22
  4066e8:	42 00 00 00 00 05 12 00 	addu $5,$0,$18
  4066f0:	43 00 00 00 70 81 06 1c 	addiu $6,$28,-32400
  4066f8:	43 00 00 00 02 00 07 00 	addiu $7,$0,2
  406700:	02 00 00 00 74 20 10 00 	jal 4081d0 <b1_>
  406708:	42 00 00 00 00 04 17 00 	addu $4,$0,$23
  406710:	42 00 00 00 00 05 13 00 	addu $5,$0,$19
  406718:	43 00 00 00 74 81 06 1c 	addiu $6,$28,-32396
  406720:	43 00 00 00 02 00 07 00 	addiu $7,$0,2
  406728:	02 00 00 00 74 20 10 00 	jal 4081d0 <b1_>
  406730:	42 00 00 00 00 02 00 00 	addu $2,$0,$0
  406738:	28 00 00 00 30 00 1f 1d 	lw $31,48($29)
  406740:	28 00 00 00 2c 00 17 1d 	lw $23,44($29)
  406748:	28 00 00 00 28 00 16 1d 	lw $22,40($29)
  406750:	28 00 00 00 24 00 15 1d 	lw $21,36($29)
  406758:	28 00 00 00 20 00 14 1d 	lw $20,32($29)
  406760:	28 00 00 00 1c 00 13 1d 	lw $19,28($29)
  406768:	28 00 00 00 18 00 12 1d 	lw $18,24($29)
  406770:	28 00 00 00 14 00 11 1d 	lw $17,20($29)
  406778:	28 00 00 00 10 00 10 1d 	lw $16,16($29)
  406780:	43 00 00 00 38 00 1d 1d 	addiu $29,$29,56
  406788:	03 00 00 00 00 00 00 1f 	jr $31

00406790 <stagh2_>:
  406790:	43 00 00 00 c8 ff 1d 1d 	addiu $29,$29,-56
  406798:	34 00 00 00 20 00 14 1d 	sw $20,32($29)
  4067a0:	a2 00 00 00 00 10 14 00 	lui $20,4096
  4067a8:	43 00 00 00 10 64 14 14 	addiu $20,$20,25616
  4067b0:	42 00 00 00 00 04 14 00 	addu $4,$0,$20
  4067b8:	34 00 00 00 10 00 10 1d 	sw $16,16($29)
  4067c0:	a2 00 00 00 20 10 10 00 	lui $16,4128
  4067c8:	43 00 00 00 70 12 10 10 	addiu $16,$16,4720
  4067d0:	42 00 00 00 00 05 10 00 	addu $5,$0,$16
  4067d8:	34 00 00 00 30 00 1f 1d 	sw $31,48($29)
  4067e0:	34 00 00 00 2c 00 17 1d 	sw $23,44($29)
  4067e8:	34 00 00 00 28 00 16 1d 	sw $22,40($29)
  4067f0:	34 00 00 00 24 00 15 1d 	sw $21,36($29)
  4067f8:	34 00 00 00 1c 00 13 1d 	sw $19,28($29)
  406800:	34 00 00 00 18 00 12 1d 	sw $18,24($29)
  406808:	34 00 00 00 14 00 11 1d 	sw $17,20($29)
  406810:	02 00 00 00 7e 1f 10 00 	jal 407df8 <s2_>
  406818:	a2 00 00 00 08 10 15 00 	lui $21,4104
  406820:	43 00 00 00 a0 4a 15 15 	addiu $21,$21,19104
  406828:	42 00 00 00 00 04 15 00 	addu $4,$0,$21
  406830:	a2 00 00 00 28 10 11 00 	lui $17,4136
  406838:	43 00 00 00 70 ec 11 11 	addiu $17,$17,-5008
  406840:	42 00 00 00 00 05 11 00 	addu $5,$0,$17
  406848:	02 00 00 00 7e 1f 10 00 	jal 407df8 <s2_>
  406850:	a2 00 00 00 10 10 16 00 	lui $22,4112
  406858:	43 00 00 00 30 31 16 16 	addiu $22,$22,12592
  406860:	42 00 00 00 00 04 16 00 	addu $4,$0,$22
  406868:	a2 00 00 00 30 10 12 00 	lui $18,4144
  406870:	43 00 00 00 70 c6 12 12 	addiu $18,$18,-14736
  406878:	42 00 00 00 00 05 12 00 	addu $5,$0,$18
  406880:	02 00 00 00 7e 1f 10 00 	jal 407df8 <s2_>
  406888:	a2 00 00 00 18 10 17 00 	lui $23,4120
  406890:	43 00 00 00 c0 17 17 17 	addiu $23,$23,6080
  406898:	42 00 00 00 00 04 17 00 	addu $4,$0,$23
  4068a0:	a2 00 00 00 38 10 13 00 	lui $19,4152
  4068a8:	43 00 00 00 70 a0 13 13 	addiu $19,$19,-24464
  4068b0:	42 00 00 00 00 05 13 00 	addu $5,$0,$19
  4068b8:	02 00 00 00 7e 1f 10 00 	jal 407df8 <s2_>
  4068c0:	42 00 00 00 00 04 14 00 	addu $4,$0,$20
  4068c8:	42 00 00 00 00 05 10 00 	addu $5,$0,$16
  4068d0:	43 00 00 00 68 81 06 1c 	addiu $6,$28,-32408
  4068d8:	43 00 00 00 02 00 07 00 	addiu $7,$0,2
  4068e0:	02 00 00 00 64 21 10 00 	jal 408590 <b2_>
  4068e8:	42 00 00 00 00 04 15 00 	addu $4,$0,$21
  4068f0:	42 00 00 00 00 05 11 00 	addu $5,$0,$17
  4068f8:	43 00 00 00 6c 81 06 1c 	addiu $6,$28,-32404
  406900:	43 00 00 00 02 00 07 00 	addiu $7,$0,2
  406908:	02 00 00 00 64 21 10 00 	jal 408590 <b2_>
  406910:	42 00 00 00 00 04 16 00 	addu $4,$0,$22
  406918:	42 00 00 00 00 05 12 00 	addu $5,$0,$18
  406920:	43 00 00 00 70 81 06 1c 	addiu $6,$28,-32400
  406928:	43 00 00 00 02 00 07 00 	addiu $7,$0,2
  406930:	02 00 00 00 64 21 10 00 	jal 408590 <b2_>
  406938:	42 00 00 00 00 04 17 00 	addu $4,$0,$23
  406940:	42 00 00 00 00 05 13 00 	addu $5,$0,$19
  406948:	43 00 00 00 74 81 06 1c 	addiu $6,$28,-32396
  406950:	43 00 00 00 02 00 07 00 	addiu $7,$0,2
  406958:	02 00 00 00 64 21 10 00 	jal 408590 <b2_>
  406960:	42 00 00 00 00 02 00 00 	addu $2,$0,$0
  406968:	28 00 00 00 30 00 1f 1d 	lw $31,48($29)
  406970:	28 00 00 00 2c 00 17 1d 	lw $23,44($29)
  406978:	28 00 00 00 28 00 16 1d 	lw $22,40($29)
  406980:	28 00 00 00 24 00 15 1d 	lw $21,36($29)
  406988:	28 00 00 00 20 00 14 1d 	lw $20,32($29)
  406990:	28 00 00 00 1c 00 13 1d 	lw $19,28($29)
  406998:	28 00 00 00 18 00 12 1d 	lw $18,24($29)
  4069a0:	28 00 00 00 14 00 11 1d 	lw $17,20($29)
  4069a8:	28 00 00 00 10 00 10 1d 	lw $16,16($29)
  4069b0:	43 00 00 00 38 00 1d 1d 	addiu $29,$29,56
  4069b8:	03 00 00 00 00 00 00 1f 	jr $31

004069c0 <corif_>:
  4069c0:	a2 00 00 00 5f 10 01 00 	lui $1,4191
  4069c8:	2b 00 00 00 b0 29 02 01 	l.d $f2,10672($1)
  4069d0:	2b 00 00 00 78 81 00 1c 	l.d $f0,-32392($28)
  4069d8:	73 00 00 00 00 04 00 02 	sub.d $f4,$f2,$f0
  4069e0:	a2 00 00 00 5f 10 19 00 	lui $25,4191
  4069e8:	28 00 00 00 8c 29 19 19 	lw $25,10636($25)
  4069f0:	43 00 00 00 01 00 0a 00 	addiu $10,$0,1
  4069f8:	07 00 00 00 e6 00 00 19 	blez $25,406d98 <corif_+0x3d8>
  406a00:	a2 00 00 00 77 10 18 00 	lui $24,4215
  406a08:	43 00 00 00 98 03 18 18 	addiu $24,$24,920
  406a10:	a2 00 00 00 7f 10 0f 00 	lui $15,4223
  406a18:	43 00 00 00 98 dd 0f 0f 	addiu $15,$15,-8808
  406a20:	a2 00 00 00 6f 10 0e 00 	lui $14,4207
  406a28:	43 00 00 00 98 29 0e 0e 	addiu $14,$14,10648
  406a30:	2b 00 00 00 80 81 06 1c 	l.d $f6,-32384($28)
  406a38:	a2 00 00 00 67 10 0d 00 	lui $13,4199
  406a40:	43 00 00 00 98 4f 0d 0d 	addiu $13,$13,20376
  406a48:	43 00 00 00 92 01 08 00 	addiu $8,$0,402
  406a50:	a2 00 00 00 5f 10 07 00 	lui $7,4191
  406a58:	28 00 00 00 80 29 07 07 	lw $7,10624($7)
  406a60:	43 00 00 00 01 00 06 00 	addiu $6,$0,1
  406a68:	07 00 00 00 c2 00 00 07 	blez $7,406d78 <corif_+0x3b8>
  406a70:	42 00 00 00 00 09 08 00 	addu $9,$0,$8
  406a78:	a2 00 00 00 00 10 0c 00 	lui $12,4096
  406a80:	43 00 00 00 50 54 0c 0c 	addiu $12,$12,21584
  406a88:	a2 00 00 00 5f 10 0b 00 	lui $11,4191
  406a90:	43 00 00 00 98 75 0b 0b 	addiu $11,$11,30104
  406a98:	a2 00 00 00 5f 10 02 00 	lui $2,4191
  406aa0:	43 00 00 00 e0 68 02 02 	addiu $2,$2,26848
  406aa8:	55 00 00 00 03 03 0a 00 	sll $3,$10,0x3
  406ab0:	42 00 00 00 00 03 02 03 	addu $3,$3,$2
  406ab8:	43 00 00 00 01 00 02 07 	addiu $2,$7,1
  406ac0:	4f 00 00 00 01 00 04 07 	andi $4,$7,1
  406ac8:	5b 00 00 00 00 02 02 06 	slt $2,$6,$2
  406ad0:	05 00 00 00 02 00 00 02 	beq $2,$0,406ae0 <corif_+0x120>
  406ad8:	05 00 00 00 36 00 00 04 	beq $4,$0,406bb8 <corif_+0x1f8>
  406ae0:	43 00 00 00 01 00 02 08 	addiu $2,$8,1
  406ae8:	55 00 00 00 03 05 02 00 	sll $5,$2,0x3
  406af0:	42 00 00 00 00 02 18 05 	addu $2,$5,$24
  406af8:	2b 00 00 00 00 00 02 02 	l.d $f2,0($2)
  406b00:	75 00 00 00 00 02 02 02 	mul.d $f2,$f2,$f2
  406b08:	42 00 00 00 00 02 0f 05 	addu $2,$5,$15
  406b10:	2b 00 00 00 00 00 00 02 	l.d $f0,0($2)
  406b18:	75 00 00 00 00 00 00 00 	mul.d $f0,$f0,$f0
  406b20:	71 00 00 00 00 02 00 02 	add.d $f2,$f2,$f0
  406b28:	75 00 00 00 00 02 06 02 	mul.d $f2,$f2,$f6
  406b30:	42 00 00 00 00 02 0d 05 	addu $2,$5,$13
  406b38:	2b 00 00 00 00 00 00 02 	l.d $f0,0($2)
  406b40:	77 00 00 00 00 02 00 02 	div.d $f2,$f2,$f0
  406b48:	42 00 00 00 00 02 0e 05 	addu $2,$5,$14
  406b50:	2b 00 00 00 00 00 00 02 	l.d $f0,0($2)
  406b58:	73 00 00 00 00 00 02 00 	sub.d $f0,$f0,$f2
  406b60:	75 00 00 00 00 02 00 04 	mul.d $f2,$f4,$f0
  406b68:	2b 00 00 00 00 00 00 0c 	l.d $f0,0($12)
  406b70:	93 00 00 00 00 00 00 02 	c.lt.d $f2,$f0
  406b78:	0b 00 00 00 02 00 00 00 	bc1f 406b88 <corif_+0x1c8>
  406b80:	7b 00 00 00 00 02 00 00 	mov.d $f2,$f0
  406b88:	2b 00 00 00 00 00 00 03 	l.d $f0,0($3)
  406b90:	7d 00 00 00 00 02 00 02 	neg.d $f2,$f2
  406b98:	77 00 00 00 00 02 00 02 	div.d $f2,$f2,$f0
  406ba0:	43 00 00 00 02 00 06 00 	addiu $6,$0,2
  406ba8:	5c 00 00 00 02 00 04 07 	slti $4,$7,2
  406bb0:	01 00 00 00 58 1b 10 00 	j 406d60 <corif_+0x3a0>
  406bb8:	42 00 00 00 00 02 06 09 	addu $2,$9,$6
  406bc0:	55 00 00 00 03 04 02 00 	sll $4,$2,0x3
  406bc8:	42 00 00 00 00 02 18 04 	addu $2,$4,$24
  406bd0:	2b 00 00 00 00 00 02 02 	l.d $f2,0($2)
  406bd8:	75 00 00 00 00 02 02 02 	mul.d $f2,$f2,$f2
  406be0:	42 00 00 00 00 02 0f 04 	addu $2,$4,$15
  406be8:	2b 00 00 00 00 00 00 02 	l.d $f0,0($2)
  406bf0:	75 00 00 00 00 00 00 00 	mul.d $f0,$f0,$f0
  406bf8:	71 00 00 00 00 02 00 02 	add.d $f2,$f2,$f0
  406c00:	75 00 00 00 00 02 06 02 	mul.d $f2,$f2,$f6
  406c08:	42 00 00 00 00 02 0d 04 	addu $2,$4,$13
  406c10:	2b 00 00 00 00 00 00 02 	l.d $f0,0($2)
  406c18:	77 00 00 00 00 02 00 02 	div.d $f2,$f2,$f0
  406c20:	42 00 00 00 00 02 0e 04 	addu $2,$4,$14
  406c28:	2b 00 00 00 00 00 00 02 	l.d $f0,0($2)
  406c30:	73 00 00 00 00 00 02 00 	sub.d $f0,$f0,$f2
  406c38:	75 00 00 00 00 00 00 04 	mul.d $f0,$f4,$f0
  406c40:	2b 00 00 00 00 00 02 0c 	l.d $f2,0($12)
  406c48:	93 00 00 00 00 00 02 00 	c.lt.d $f0,$f2
  406c50:	0b 00 00 00 02 00 00 00 	bc1f 406c60 <corif_+0x2a0>
  406c58:	7b 00 00 00 00 00 00 02 	mov.d $f0,$f2
  406c60:	2b 00 00 00 00 00 02 03 	l.d $f2,0($3)
  406c68:	7d 00 00 00 00 00 00 00 	neg.d $f0,$f0
  406c70:	77 00 00 00 00 00 02 00 	div.d $f0,$f0,$f2
  406c78:	42 00 00 00 00 02 0b 04 	addu $2,$4,$11
  406c80:	37 00 00 00 00 00 00 02 	s.d $f0,0($2)
  406c88:	43 00 00 00 01 00 02 06 	addiu $2,$6,1
  406c90:	42 00 00 00 00 02 02 09 	addu $2,$9,$2
  406c98:	55 00 00 00 03 05 02 00 	sll $5,$2,0x3
  406ca0:	42 00 00 00 00 02 18 05 	addu $2,$5,$24
  406ca8:	2b 00 00 00 00 00 02 02 	l.d $f2,0($2)
  406cb0:	75 00 00 00 00 02 02 02 	mul.d $f2,$f2,$f2
  406cb8:	42 00 00 00 00 02 0f 05 	addu $2,$5,$15
  406cc0:	2b 00 00 00 00 00 00 02 	l.d $f0,0($2)
  406cc8:	75 00 00 00 00 00 00 00 	mul.d $f0,$f0,$f0
  406cd0:	71 00 00 00 00 02 00 02 	add.d $f2,$f2,$f0
  406cd8:	75 00 00 00 00 02 06 02 	mul.d $f2,$f2,$f6
  406ce0:	42 00 00 00 00 02 0d 05 	addu $2,$5,$13
  406ce8:	2b 00 00 00 00 00 00 02 	l.d $f0,0($2)
  406cf0:	77 00 00 00 00 02 00 02 	div.d $f2,$f2,$f0
  406cf8:	42 00 00 00 00 02 0e 05 	addu $2,$5,$14
  406d00:	2b 00 00 00 00 00 00 02 	l.d $f0,0($2)
  406d08:	73 00 00 00 00 00 02 00 	sub.d $f0,$f0,$f2
  406d10:	75 00 00 00 00 02 00 04 	mul.d $f2,$f4,$f0
  406d18:	2b 00 00 00 00 00 00 0c 	l.d $f0,0($12)
  406d20:	93 00 00 00 00 00 00 02 	c.lt.d $f2,$f0
  406d28:	0b 00 00 00 02 00 00 00 	bc1f 406d38 <corif_+0x378>
  406d30:	7b 00 00 00 00 02 00 00 	mov.d $f2,$f0
  406d38:	2b 00 00 00 00 00 00 03 	l.d $f0,0($3)
  406d40:	7d 00 00 00 00 02 00 02 	neg.d $f2,$f2
  406d48:	77 00 00 00 00 02 00 02 	div.d $f2,$f2,$f0
  406d50:	43 00 00 00 02 00 06 06 	addiu $6,$6,2
  406d58:	5b 00 00 00 00 04 06 07 	slt $4,$7,$6
  406d60:	42 00 00 00 00 02 0b 05 	addu $2,$5,$11
  406d68:	37 00 00 00 00 00 02 02 	s.d $f2,0($2)
  406d70:	05 00 00 00 90 ff 00 04 	beq $4,$0,406bb8 <corif_+0x1f8>
  406d78:	43 00 00 00 92 01 08 08 	addiu $8,$8,402
  406d80:	43 00 00 00 01 00 0a 0a 	addiu $10,$10,1
  406d88:	5b 00 00 00 00 02 0a 19 	slt $2,$25,$10
  406d90:	05 00 00 00 2e ff 00 02 	beq $2,$0,406a50 <corif_+0x90>
  406d98:	42 00 00 00 00 02 00 00 	addu $2,$0,$0
  406da0:	03 00 00 00 00 00 00 1f 	jr $31

00406da8 <stagf1_>:
  406da8:	43 00 00 00 e0 ff 1d 1d 	addiu $29,$29,-32
  406db0:	34 00 00 00 14 00 11 1d 	sw $17,20($29)
  406db8:	a2 00 00 00 3f 10 11 00 	lui $17,4159
  406dc0:	43 00 00 00 10 7b 11 11 	addiu $17,$17,31504
  406dc8:	42 00 00 00 00 04 11 00 	addu $4,$0,$17
  406dd0:	34 00 00 00 10 00 10 1d 	sw $16,16($29)
  406dd8:	a2 00 00 00 7f 10 10 00 	lui $16,4223
  406de0:	43 00 00 00 30 ea 10 10 	addiu $16,$16,-5584
  406de8:	42 00 00 00 00 05 10 00 	addu $5,$0,$16
  406df0:	34 00 00 00 18 00 1f 1d 	sw $31,24($29)
  406df8:	02 00 00 00 da 1e 10 00 	jal 407b68 <s1_>
  406e00:	42 00 00 00 00 04 11 00 	addu $4,$0,$17
  406e08:	42 00 00 00 00 05 10 00 	addu $5,$0,$16
  406e10:	43 00 00 00 74 81 06 1c 	addiu $6,$28,-32396
  406e18:	43 00 00 00 02 00 07 00 	addiu $7,$0,2
  406e20:	02 00 00 00 74 20 10 00 	jal 4081d0 <b1_>
  406e28:	a2 00 00 00 5f 10 02 00 	lui $2,4191
  406e30:	43 00 00 00 8c 29 02 02 	addiu $2,$2,10636
  406e38:	28 00 00 00 00 00 0a 02 	lw $10,0($2)
  406e40:	43 00 00 00 01 00 0c 00 	addiu $12,$0,1
  406e48:	07 00 00 00 92 00 00 0a 	blez $10,407098 <stagf1_+0x2f0>
  406e50:	43 00 00 00 f4 ff 0d 02 	addiu $13,$2,-12
  406e58:	43 00 00 00 68 02 05 10 	addiu $5,$16,616
  406e60:	43 00 00 00 68 f3 04 11 	addiu $4,$17,-3224
  406e68:	43 00 00 00 93 01 09 00 	addiu $9,$0,403
  406e70:	28 00 00 00 00 00 0b 0d 	lw $11,0($13)
  406e78:	42 00 00 00 00 06 00 00 	addu $6,$0,$0
  406e80:	09 00 00 00 7c 00 00 0b 	bltz $11,407078 <stagf1_+0x2d0>
  406e88:	42 00 00 00 00 08 09 00 	addu $8,$0,$9
  406e90:	43 00 00 00 01 00 02 0b 	addiu $2,$11,1
  406e98:	4f 00 00 00 03 00 03 02 	andi $3,$2,3
  406ea0:	5b 00 00 00 00 02 02 06 	slt $2,$6,$2
  406ea8:	05 00 00 00 24 00 00 02 	beq $2,$0,406f40 <stagf1_+0x198>
  406eb0:	05 00 00 00 34 00 00 03 	beq $3,$0,406f88 <stagf1_+0x1e0>
  406eb8:	5c 00 00 00 02 00 02 03 	slti $2,$3,2
  406ec0:	06 00 00 00 1e 00 00 02 	bne $2,$0,406f40 <stagf1_+0x198>
  406ec8:	5c 00 00 00 03 00 02 03 	slti $2,$3,3
  406ed0:	06 00 00 00 0c 00 00 02 	bne $2,$0,406f08 <stagf1_+0x160>
  406ed8:	55 00 00 00 03 02 09 00 	sll $2,$9,0x3
  406ee0:	42 00 00 00 00 03 04 02 	addu $3,$2,$4
  406ee8:	2b 00 00 00 00 00 00 03 	l.d $f0,0($3)
  406ef0:	43 00 00 00 01 00 06 00 	addiu $6,$0,1
  406ef8:	42 00 00 00 00 02 05 02 	addu $2,$2,$5
  406f00:	37 00 00 00 00 00 00 02 	s.d $f0,0($2)
  406f08:	42 00 00 00 00 02 06 09 	addu $2,$9,$6
  406f10:	55 00 00 00 03 02 02 00 	sll $2,$2,0x3
  406f18:	42 00 00 00 00 03 04 02 	addu $3,$2,$4
  406f20:	2b 00 00 00 00 00 00 03 	l.d $f0,0($3)
  406f28:	43 00 00 00 01 00 06 06 	addiu $6,$6,1
  406f30:	42 00 00 00 00 02 05 02 	addu $2,$2,$5
  406f38:	37 00 00 00 00 00 00 02 	s.d $f0,0($2)
  406f40:	42 00 00 00 00 02 06 08 	addu $2,$8,$6
  406f48:	43 00 00 00 01 00 06 06 	addiu $6,$6,1
  406f50:	55 00 00 00 03 02 02 00 	sll $2,$2,0x3
  406f58:	42 00 00 00 00 03 04 02 	addu $3,$2,$4
  406f60:	2b 00 00 00 00 00 00 03 	l.d $f0,0($3)
  406f68:	5b 00 00 00 00 07 06 0b 	slt $7,$11,$6
  406f70:	42 00 00 00 00 02 05 02 	addu $2,$2,$5
  406f78:	37 00 00 00 00 00 00 02 	s.d $f0,0($2)
  406f80:	06 00 00 00 3c 00 00 07 	bne $7,$0,407078 <stagf1_+0x2d0>
  406f88:	42 00 00 00 00 02 06 08 	addu $2,$8,$6
  406f90:	55 00 00 00 03 02 02 00 	sll $2,$2,0x3
  406f98:	42 00 00 00 00 03 04 02 	addu $3,$2,$4
  406fa0:	2b 00 00 00 00 00 00 03 	l.d $f0,0($3)
  406fa8:	42 00 00 00 00 02 05 02 	addu $2,$2,$5
  406fb0:	37 00 00 00 00 00 00 02 	s.d $f0,0($2)
  406fb8:	43 00 00 00 01 00 02 06 	addiu $2,$6,1
  406fc0:	42 00 00 00 00 02 02 08 	addu $2,$8,$2
  406fc8:	55 00 00 00 03 02 02 00 	sll $2,$2,0x3
  406fd0:	42 00 00 00 00 03 04 02 	addu $3,$2,$4
  406fd8:	2b 00 00 00 00 00 00 03 	l.d $f0,0($3)
  406fe0:	42 00 00 00 00 02 05 02 	addu $2,$2,$5
  406fe8:	37 00 00 00 00 00 00 02 	s.d $f0,0($2)
  406ff0:	43 00 00 00 02 00 02 06 	addiu $2,$6,2
  406ff8:	42 00 00 00 00 02 02 08 	addu $2,$8,$2
  407000:	55 00 00 00 03 02 02 00 	sll $2,$2,0x3
  407008:	42 00 00 00 00 03 04 02 	addu $3,$2,$4
  407010:	2b 00 00 00 00 00 00 03 	l.d $f0,0($3)
  407018:	42 00 00 00 00 02 05 02 	addu $2,$2,$5
  407020:	43 00 00 00 03 00 03 06 	addiu $3,$6,3
  407028:	43 00 00 00 04 00 06 06 	addiu $6,$6,4
  407030:	42 00 00 00 00 03 03 08 	addu $3,$8,$3
  407038:	55 00 00 00 03 03 03 00 	sll $3,$3,0x3
  407040:	37 00 00 00 00 00 00 02 	s.d $f0,0($2)
  407048:	42 00 00 00 00 02 04 03 	addu $2,$3,$4
  407050:	2b 00 00 00 00 00 00 02 	l.d $f0,0($2)
  407058:	5b 00 00 00 00 07 06 0b 	slt $7,$11,$6
  407060:	42 00 00 00 00 03 05 03 	addu $3,$3,$5
  407068:	37 00 00 00 00 00 00 03 	s.d $f0,0($3)
  407070:	05 00 00 00 c4 ff 00 07 	beq $7,$0,406f88 <stagf1_+0x1e0>
  407078:	43 00 00 00 93 01 09 09 	addiu $9,$9,403
  407080:	43 00 00 00 01 00 0c 0c 	addiu $12,$12,1
  407088:	5b 00 00 00 00 02 0c 0a 	slt $2,$10,$12
  407090:	05 00 00 00 76 ff 00 02 	beq $2,$0,406e70 <stagf1_+0xc8>
  407098:	a2 00 00 00 3f 10 11 00 	lui $17,4159
  4070a0:	43 00 00 00 10 7b 11 11 	addiu $17,$17,31504
  4070a8:	42 00 00 00 00 04 11 00 	addu $4,$0,$17
  4070b0:	a2 00 00 00 77 10 10 00 	lui $16,4215
  4070b8:	43 00 00 00 30 10 10 10 	addiu $16,$16,4144
  4070c0:	42 00 00 00 00 05 10 00 	addu $5,$0,$16
  4070c8:	02 00 00 00 da 1e 10 00 	jal 407b68 <s1_>
  4070d0:	42 00 00 00 00 04 11 00 	addu $4,$0,$17
  4070d8:	42 00 00 00 00 05 10 00 	addu $5,$0,$16
  4070e0:	43 00 00 00 70 81 06 1c 	addiu $6,$28,-32400
  4070e8:	43 00 00 00 02 00 07 00 	addiu $7,$0,2
  4070f0:	02 00 00 00 74 20 10 00 	jal 4081d0 <b1_>
  4070f8:	a2 00 00 00 5f 10 02 00 	lui $2,4191
  407100:	43 00 00 00 8c 29 02 02 	addiu $2,$2,10636
  407108:	28 00 00 00 00 00 0b 02 	lw $11,0($2)
  407110:	43 00 00 00 01 00 0c 00 	addiu $12,$0,1
  407118:	07 00 00 00 92 00 00 0b 	blez $11,407368 <stagf1_+0x5c0>
  407120:	43 00 00 00 f4 ff 0d 02 	addiu $13,$2,-12
  407128:	43 00 00 00 68 fd 05 10 	addiu $5,$16,-664
  407130:	43 00 00 00 68 f3 04 11 	addiu $4,$17,-3224
  407138:	43 00 00 00 93 01 09 00 	addiu $9,$0,403
  407140:	28 00 00 00 00 00 0a 0d 	lw $10,0($13)
  407148:	42 00 00 00 00 06 00 00 	addu $6,$0,$0
  407150:	09 00 00 00 7c 00 00 0a 	bltz $10,407348 <stagf1_+0x5a0>
  407158:	42 00 00 00 00 08 09 00 	addu $8,$0,$9
  407160:	43 00 00 00 01 00 02 0a 	addiu $2,$10,1
  407168:	4f 00 00 00 03 00 03 02 	andi $3,$2,3
  407170:	5b 00 00 00 00 02 02 06 	slt $2,$6,$2
  407178:	05 00 00 00 24 00 00 02 	beq $2,$0,407210 <stagf1_+0x468>
  407180:	05 00 00 00 34 00 00 03 	beq $3,$0,407258 <stagf1_+0x4b0>
  407188:	5c 00 00 00 02 00 02 03 	slti $2,$3,2
  407190:	06 00 00 00 1e 00 00 02 	bne $2,$0,407210 <stagf1_+0x468>
  407198:	5c 00 00 00 03 00 02 03 	slti $2,$3,3
  4071a0:	06 00 00 00 0c 00 00 02 	bne $2,$0,4071d8 <stagf1_+0x430>
  4071a8:	55 00 00 00 03 02 09 00 	sll $2,$9,0x3
  4071b0:	42 00 00 00 00 03 04 02 	addu $3,$2,$4
  4071b8:	2b 00 00 00 00 00 00 03 	l.d $f0,0($3)
  4071c0:	43 00 00 00 01 00 06 00 	addiu $6,$0,1
  4071c8:	42 00 00 00 00 02 05 02 	addu $2,$2,$5
  4071d0:	37 00 00 00 00 00 00 02 	s.d $f0,0($2)
  4071d8:	42 00 00 00 00 02 06 09 	addu $2,$9,$6
  4071e0:	55 00 00 00 03 02 02 00 	sll $2,$2,0x3
  4071e8:	42 00 00 00 00 03 04 02 	addu $3,$2,$4
  4071f0:	2b 00 00 00 00 00 00 03 	l.d $f0,0($3)
  4071f8:	43 00 00 00 01 00 06 06 	addiu $6,$6,1
  407200:	42 00 00 00 00 02 05 02 	addu $2,$2,$5
  407208:	37 00 00 00 00 00 00 02 	s.d $f0,0($2)
  407210:	42 00 00 00 00 02 06 08 	addu $2,$8,$6
  407218:	43 00 00 00 01 00 06 06 	addiu $6,$6,1
  407220:	55 00 00 00 03 02 02 00 	sll $2,$2,0x3
  407228:	42 00 00 00 00 03 04 02 	addu $3,$2,$4
  407230:	2b 00 00 00 00 00 00 03 	l.d $f0,0($3)
  407238:	5b 00 00 00 00 07 06 0a 	slt $7,$10,$6
  407240:	42 00 00 00 00 02 05 02 	addu $2,$2,$5
  407248:	37 00 00 00 00 00 00 02 	s.d $f0,0($2)
  407250:	06 00 00 00 3c 00 00 07 	bne $7,$0,407348 <stagf1_+0x5a0>
  407258:	42 00 00 00 00 02 06 08 	addu $2,$8,$6
  407260:	55 00 00 00 03 02 02 00 	sll $2,$2,0x3
  407268:	42 00 00 00 00 03 04 02 	addu $3,$2,$4
  407270:	2b 00 00 00 00 00 00 03 	l.d $f0,0($3)
  407278:	42 00 00 00 00 02 05 02 	addu $2,$2,$5
  407280:	37 00 00 00 00 00 00 02 	s.d $f0,0($2)
  407288:	43 00 00 00 01 00 02 06 	addiu $2,$6,1
  407290:	42 00 00 00 00 02 02 08 	addu $2,$8,$2
  407298:	55 00 00 00 03 02 02 00 	sll $2,$2,0x3
  4072a0:	42 00 00 00 00 03 04 02 	addu $3,$2,$4
  4072a8:	2b 00 00 00 00 00 00 03 	l.d $f0,0($3)
  4072b0:	42 00 00 00 00 02 05 02 	addu $2,$2,$5
  4072b8:	37 00 00 00 00 00 00 02 	s.d $f0,0($2)
  4072c0:	43 00 00 00 02 00 02 06 	addiu $2,$6,2
  4072c8:	42 00 00 00 00 02 02 08 	addu $2,$8,$2
  4072d0:	55 00 00 00 03 02 02 00 	sll $2,$2,0x3
  4072d8:	42 00 00 00 00 03 04 02 	addu $3,$2,$4
  4072e0:	2b 00 00 00 00 00 00 03 	l.d $f0,0($3)
  4072e8:	42 00 00 00 00 02 05 02 	addu $2,$2,$5
  4072f0:	43 00 00 00 03 00 03 06 	addiu $3,$6,3
  4072f8:	43 00 00 00 04 00 06 06 	addiu $6,$6,4
  407300:	42 00 00 00 00 03 03 08 	addu $3,$8,$3
  407308:	55 00 00 00 03 03 03 00 	sll $3,$3,0x3
  407310:	37 00 00 00 00 00 00 02 	s.d $f0,0($2)
  407318:	42 00 00 00 00 02 04 03 	addu $2,$3,$4
  407320:	2b 00 00 00 00 00 00 02 	l.d $f0,0($2)
  407328:	5b 00 00 00 00 07 06 0a 	slt $7,$10,$6
  407330:	42 00 00 00 00 03 05 03 	addu $3,$3,$5
  407338:	37 00 00 00 00 00 00 03 	s.d $f0,0($3)
  407340:	05 00 00 00 c4 ff 00 07 	beq $7,$0,407258 <stagf1_+0x4b0>
  407348:	43 00 00 00 93 01 09 09 	addiu $9,$9,403
  407350:	43 00 00 00 01 00 0c 0c 	addiu $12,$12,1
  407358:	5b 00 00 00 00 02 0c 0b 	slt $2,$11,$12
  407360:	05 00 00 00 76 ff 00 02 	beq $2,$0,407140 <stagf1_+0x398>
  407368:	a2 00 00 00 3f 10 11 00 	lui $17,4159
  407370:	43 00 00 00 10 7b 11 11 	addiu $17,$17,31504
  407378:	42 00 00 00 00 04 11 00 	addu $4,$0,$17
  407380:	a2 00 00 00 6f 10 10 00 	lui $16,4207
  407388:	43 00 00 00 30 36 10 10 	addiu $16,$16,13872
  407390:	42 00 00 00 00 05 10 00 	addu $5,$0,$16
  407398:	02 00 00 00 da 1e 10 00 	jal 407b68 <s1_>
  4073a0:	42 00 00 00 00 04 11 00 	addu $4,$0,$17
  4073a8:	42 00 00 00 00 05 10 00 	addu $5,$0,$16
  4073b0:	43 00 00 00 6c 81 06 1c 	addiu $6,$28,-32404
  4073b8:	43 00 00 00 02 00 07 00 	addiu $7,$0,2
  4073c0:	02 00 00 00 74 20 10 00 	jal 4081d0 <b1_>
  4073c8:	a2 00 00 00 5f 10 02 00 	lui $2,4191
  4073d0:	43 00 00 00 8c 29 02 02 	addiu $2,$2,10636
  4073d8:	28 00 00 00 00 00 0a 02 	lw $10,0($2)
  4073e0:	43 00 00 00 01 00 0c 00 	addiu $12,$0,1
  4073e8:	07 00 00 00 92 00 00 0a 	blez $10,407638 <stagf1_+0x890>
  4073f0:	43 00 00 00 f4 ff 0d 02 	addiu $13,$2,-12
  4073f8:	43 00 00 00 68 f8 05 10 	addiu $5,$16,-1944
  407400:	43 00 00 00 68 f3 04 11 	addiu $4,$17,-3224
  407408:	43 00 00 00 93 01 09 00 	addiu $9,$0,403
  407410:	28 00 00 00 00 00 0b 0d 	lw $11,0($13)
  407418:	42 00 00 00 00 06 00 00 	addu $6,$0,$0
  407420:	09 00 00 00 7c 00 00 0b 	bltz $11,407618 <stagf1_+0x870>
  407428:	42 00 00 00 00 08 09 00 	addu $8,$0,$9
  407430:	43 00 00 00 01 00 02 0b 	addiu $2,$11,1
  407438:	4f 00 00 00 03 00 03 02 	andi $3,$2,3
  407440:	5b 00 00 00 00 02 02 06 	slt $2,$6,$2
  407448:	05 00 00 00 24 00 00 02 	beq $2,$0,4074e0 <stagf1_+0x738>
  407450:	05 00 00 00 34 00 00 03 	beq $3,$0,407528 <stagf1_+0x780>
  407458:	5c 00 00 00 02 00 02 03 	slti $2,$3,2
  407460:	06 00 00 00 1e 00 00 02 	bne $2,$0,4074e0 <stagf1_+0x738>
  407468:	5c 00 00 00 03 00 02 03 	slti $2,$3,3
  407470:	06 00 00 00 0c 00 00 02 	bne $2,$0,4074a8 <stagf1_+0x700>
  407478:	55 00 00 00 03 02 09 00 	sll $2,$9,0x3
  407480:	42 00 00 00 00 03 04 02 	addu $3,$2,$4
  407488:	2b 00 00 00 00 00 00 03 	l.d $f0,0($3)
  407490:	43 00 00 00 01 00 06 00 	addiu $6,$0,1
  407498:	42 00 00 00 00 02 05 02 	addu $2,$2,$5
  4074a0:	37 00 00 00 00 00 00 02 	s.d $f0,0($2)
  4074a8:	42 00 00 00 00 02 06 09 	addu $2,$9,$6
  4074b0:	55 00 00 00 03 02 02 00 	sll $2,$2,0x3
  4074b8:	42 00 00 00 00 03 04 02 	addu $3,$2,$4
  4074c0:	2b 00 00 00 00 00 00 03 	l.d $f0,0($3)
  4074c8:	43 00 00 00 01 00 06 06 	addiu $6,$6,1
  4074d0:	42 00 00 00 00 02 05 02 	addu $2,$2,$5
  4074d8:	37 00 00 00 00 00 00 02 	s.d $f0,0($2)
  4074e0:	42 00 00 00 00 02 06 08 	addu $2,$8,$6
  4074e8:	43 00 00 00 01 00 06 06 	addiu $6,$6,1
  4074f0:	55 00 00 00 03 02 02 00 	sll $2,$2,0x3
  4074f8:	42 00 00 00 00 03 04 02 	addu $3,$2,$4
  407500:	2b 00 00 00 00 00 00 03 	l.d $f0,0($3)
  407508:	5b 00 00 00 00 07 06 0b 	slt $7,$11,$6
  407510:	42 00 00 00 00 02 05 02 	addu $2,$2,$5
  407518:	37 00 00 00 00 00 00 02 	s.d $f0,0($2)
  407520:	06 00 00 00 3c 00 00 07 	bne $7,$0,407618 <stagf1_+0x870>
  407528:	42 00 00 00 00 02 06 08 	addu $2,$8,$6
  407530:	55 00 00 00 03 02 02 00 	sll $2,$2,0x3
  407538:	42 00 00 00 00 03 04 02 	addu $3,$2,$4
  407540:	2b 00 00 00 00 00 00 03 	l.d $f0,0($3)
  407548:	42 00 00 00 00 02 05 02 	addu $2,$2,$5
  407550:	37 00 00 00 00 00 00 02 	s.d $f0,0($2)
  407558:	43 00 00 00 01 00 02 06 	addiu $2,$6,1
  407560:	42 00 00 00 00 02 02 08 	addu $2,$8,$2
  407568:	55 00 00 00 03 02 02 00 	sll $2,$2,0x3
  407570:	42 00 00 00 00 03 04 02 	addu $3,$2,$4
  407578:	2b 00 00 00 00 00 00 03 	l.d $f0,0($3)
  407580:	42 00 00 00 00 02 05 02 	addu $2,$2,$5
  407588:	37 00 00 00 00 00 00 02 	s.d $f0,0($2)
  407590:	43 00 00 00 02 00 02 06 	addiu $2,$6,2
  407598:	42 00 00 00 00 02 02 08 	addu $2,$8,$2
  4075a0:	55 00 00 00 03 02 02 00 	sll $2,$2,0x3
  4075a8:	42 00 00 00 00 03 04 02 	addu $3,$2,$4
  4075b0:	2b 00 00 00 00 00 00 03 	l.d $f0,0($3)
  4075b8:	42 00 00 00 00 02 05 02 	addu $2,$2,$5
  4075c0:	43 00 00 00 03 00 03 06 	addiu $3,$6,3
  4075c8:	43 00 00 00 04 00 06 06 	addiu $6,$6,4
  4075d0:	42 00 00 00 00 03 03 08 	addu $3,$8,$3
  4075d8:	55 00 00 00 03 03 03 00 	sll $3,$3,0x3
  4075e0:	37 00 00 00 00 00 00 02 	s.d $f0,0($2)
  4075e8:	42 00 00 00 00 02 04 03 	addu $2,$3,$4
  4075f0:	2b 00 00 00 00 00 00 02 	l.d $f0,0($2)
  4075f8:	5b 00 00 00 00 07 06 0b 	slt $7,$11,$6
  407600:	42 00 00 00 00 03 05 03 	addu $3,$3,$5
  407608:	37 00 00 00 00 00 00 03 	s.d $f0,0($3)
  407610:	05 00 00 00 c4 ff 00 07 	beq $7,$0,407528 <stagf1_+0x780>
  407618:	43 00 00 00 93 01 09 09 	addiu $9,$9,403
  407620:	43 00 00 00 01 00 0c 0c 	addiu $12,$12,1
  407628:	5b 00 00 00 00 02 0c 0a 	slt $2,$10,$12
  407630:	05 00 00 00 76 ff 00 02 	beq $2,$0,407410 <stagf1_+0x668>
  407638:	a2 00 00 00 3f 10 11 00 	lui $17,4159
  407640:	43 00 00 00 10 7b 11 11 	addiu $17,$17,31504
  407648:	42 00 00 00 00 04 11 00 	addu $4,$0,$17
  407650:	a2 00 00 00 67 10 10 00 	lui $16,4199
  407658:	43 00 00 00 30 5c 10 10 	addiu $16,$16,23600
  407660:	42 00 00 00 00 05 10 00 	addu $5,$0,$16
  407668:	02 00 00 00 da 1e 10 00 	jal 407b68 <s1_>
  407670:	42 00 00 00 00 04 11 00 	addu $4,$0,$17
  407678:	42 00 00 00 00 05 10 00 	addu $5,$0,$16
  407680:	43 00 00 00 68 81 06 1c 	addiu $6,$28,-32408
  407688:	43 00 00 00 02 00 07 00 	addiu $7,$0,2
  407690:	02 00 00 00 74 20 10 00 	jal 4081d0 <b1_>
  407698:	a2 00 00 00 5f 10 02 00 	lui $2,4191
  4076a0:	43 00 00 00 8c 29 02 02 	addiu $2,$2,10636
  4076a8:	28 00 00 00 00 00 0b 02 	lw $11,0($2)
  4076b0:	43 00 00 00 01 00 0c 00 	addiu $12,$0,1
  4076b8:	07 00 00 00 92 00 00 0b 	blez $11,407908 <stagf1_+0xb60>
  4076c0:	43 00 00 00 f4 ff 0d 02 	addiu $13,$2,-12
  4076c8:	43 00 00 00 68 f3 05 10 	addiu $5,$16,-3224
  4076d0:	43 00 00 00 68 f3 04 11 	addiu $4,$17,-3224
  4076d8:	43 00 00 00 93 01 09 00 	addiu $9,$0,403
  4076e0:	28 00 00 00 00 00 0a 0d 	lw $10,0($13)
  4076e8:	42 00 00 00 00 06 00 00 	addu $6,$0,$0
  4076f0:	09 00 00 00 7c 00 00 0a 	bltz $10,4078e8 <stagf1_+0xb40>
  4076f8:	42 00 00 00 00 08 09 00 	addu $8,$0,$9
  407700:	43 00 00 00 01 00 02 0a 	addiu $2,$10,1
  407708:	4f 00 00 00 03 00 03 02 	andi $3,$2,3
  407710:	5b 00 00 00 00 02 02 06 	slt $2,$6,$2
  407718:	05 00 00 00 24 00 00 02 	beq $2,$0,4077b0 <stagf1_+0xa08>
  407720:	05 00 00 00 34 00 00 03 	beq $3,$0,4077f8 <stagf1_+0xa50>
  407728:	5c 00 00 00 02 00 02 03 	slti $2,$3,2
  407730:	06 00 00 00 1e 00 00 02 	bne $2,$0,4077b0 <stagf1_+0xa08>
  407738:	5c 00 00 00 03 00 02 03 	slti $2,$3,3
  407740:	06 00 00 00 0c 00 00 02 	bne $2,$0,407778 <stagf1_+0x9d0>
  407748:	55 00 00 00 03 02 09 00 	sll $2,$9,0x3
  407750:	42 00 00 00 00 03 04 02 	addu $3,$2,$4
  407758:	2b 00 00 00 00 00 00 03 	l.d $f0,0($3)
  407760:	43 00 00 00 01 00 06 00 	addiu $6,$0,1
  407768:	42 00 00 00 00 02 05 02 	addu $2,$2,$5
  407770:	37 00 00 00 00 00 00 02 	s.d $f0,0($2)
  407778:	42 00 00 00 00 02 06 09 	addu $2,$9,$6
  407780:	55 00 00 00 03 02 02 00 	sll $2,$2,0x3
  407788:	42 00 00 00 00 03 04 02 	addu $3,$2,$4
  407790:	2b 00 00 00 00 00 00 03 	l.d $f0,0($3)
  407798:	43 00 00 00 01 00 06 06 	addiu $6,$6,1
  4077a0:	42 00 00 00 00 02 05 02 	addu $2,$2,$5
  4077a8:	37 00 00 00 00 00 00 02 	s.d $f0,0($2)
  4077b0:	42 00 00 00 00 02 06 08 	addu $2,$8,$6
  4077b8:	43 00 00 00 01 00 06 06 	addiu $6,$6,1
  4077c0:	55 00 00 00 03 02 02 00 	sll $2,$2,0x3
  4077c8:	42 00 00 00 00 03 04 02 	addu $3,$2,$4
  4077d0:	2b 00 00 00 00 00 00 03 	l.d $f0,0($3)
  4077d8:	5b 00 00 00 00 07 06 0a 	slt $7,$10,$6
  4077e0:	42 00 00 00 00 02 05 02 	addu $2,$2,$5
  4077e8:	37 00 00 00 00 00 00 02 	s.d $f0,0($2)
  4077f0:	06 00 00 00 3c 00 00 07 	bne $7,$0,4078e8 <stagf1_+0xb40>
  4077f8:	42 00 00 00 00 02 06 08 	addu $2,$8,$6
  407800:	55 00 00 00 03 02 02 00 	sll $2,$2,0x3
  407808:	42 00 00 00 00 03 04 02 	addu $3,$2,$4
  407810:	2b 00 00 00 00 00 00 03 	l.d $f0,0($3)
  407818:	42 00 00 00 00 02 05 02 	addu $2,$2,$5
  407820:	37 00 00 00 00 00 00 02 	s.d $f0,0($2)
  407828:	43 00 00 00 01 00 02 06 	addiu $2,$6,1
  407830:	42 00 00 00 00 02 02 08 	addu $2,$8,$2
  407838:	55 00 00 00 03 02 02 00 	sll $2,$2,0x3
  407840:	42 00 00 00 00 03 04 02 	addu $3,$2,$4
  407848:	2b 00 00 00 00 00 00 03 	l.d $f0,0($3)
  407850:	42 00 00 00 00 02 05 02 	addu $2,$2,$5
  407858:	37 00 00 00 00 00 00 02 	s.d $f0,0($2)
  407860:	43 00 00 00 02 00 02 06 	addiu $2,$6,2
  407868:	42 00 00 00 00 02 02 08 	addu $2,$8,$2
  407870:	55 00 00 00 03 02 02 00 	sll $2,$2,0x3
  407878:	42 00 00 00 00 03 04 02 	addu $3,$2,$4
  407880:	2b 00 00 00 00 00 00 03 	l.d $f0,0($3)
  407888:	42 00 00 00 00 02 05 02 	addu $2,$2,$5
  407890:	43 00 00 00 03 00 03 06 	addiu $3,$6,3
  407898:	43 00 00 00 04 00 06 06 	addiu $6,$6,4
  4078a0:	42 00 00 00 00 03 03 08 	addu $3,$8,$3
  4078a8:	55 00 00 00 03 03 03 00 	sll $3,$3,0x3
  4078b0:	37 00 00 00 00 00 00 02 	s.d $f0,0($2)
  4078b8:	42 00 00 00 00 02 04 03 	addu $2,$3,$4
  4078c0:	2b 00 00 00 00 00 00 02 	l.d $f0,0($2)
  4078c8:	5b 00 00 00 00 07 06 0a 	slt $7,$10,$6
  4078d0:	42 00 00 00 00 03 05 03 	addu $3,$3,$5
  4078d8:	37 00 00 00 00 00 00 03 	s.d $f0,0($3)
  4078e0:	05 00 00 00 c4 ff 00 07 	beq $7,$0,4077f8 <stagf1_+0xa50>
  4078e8:	43 00 00 00 93 01 09 09 	addiu $9,$9,403
  4078f0:	43 00 00 00 01 00 0c 0c 	addiu $12,$12,1
  4078f8:	5b 00 00 00 00 02 0c 0b 	slt $2,$11,$12
  407900:	05 00 00 00 76 ff 00 02 	beq $2,$0,4076e0 <stagf1_+0x938>
  407908:	42 00 00 00 00 02 00 00 	addu $2,$0,$0
  407910:	28 00 00 00 18 00 1f 1d 	lw $31,24($29)
  407918:	28 00 00 00 14 00 11 1d 	lw $17,20($29)
  407920:	28 00 00 00 10 00 10 1d 	lw $16,16($29)
  407928:	43 00 00 00 20 00 1d 1d 	addiu $29,$29,32
  407930:	03 00 00 00 00 00 00 1f 	jr $31

00407938 <stagf2_>:
  407938:	43 00 00 00 c8 ff 1d 1d 	addiu $29,$29,-56
  407940:	34 00 00 00 20 00 14 1d 	sw $20,32($29)
  407948:	a2 00 00 00 00 10 14 00 	lui $20,4096
  407950:	43 00 00 00 10 64 14 14 	addiu $20,$20,25616
  407958:	42 00 00 00 00 04 14 00 	addu $4,$0,$20
  407960:	34 00 00 00 10 00 10 1d 	sw $16,16($29)
  407968:	a2 00 00 00 67 10 10 00 	lui $16,4199
  407970:	43 00 00 00 30 5c 10 10 	addiu $16,$16,23600
  407978:	42 00 00 00 00 05 10 00 	addu $5,$0,$16
  407980:	34 00 00 00 30 00 1f 1d 	sw $31,48($29)
  407988:	34 00 00 00 2c 00 17 1d 	sw $23,44($29)
  407990:	34 00 00 00 28 00 16 1d 	sw $22,40($29)
  407998:	34 00 00 00 24 00 15 1d 	sw $21,36($29)
  4079a0:	34 00 00 00 1c 00 13 1d 	sw $19,28($29)
  4079a8:	34 00 00 00 18 00 12 1d 	sw $18,24($29)
  4079b0:	34 00 00 00 14 00 11 1d 	sw $17,20($29)
  4079b8:	02 00 00 00 7e 1f 10 00 	jal 407df8 <s2_>
  4079c0:	a2 00 00 00 08 10 15 00 	lui $21,4104
  4079c8:	43 00 00 00 a0 4a 15 15 	addiu $21,$21,19104
  4079d0:	42 00 00 00 00 04 15 00 	addu $4,$0,$21
  4079d8:	a2 00 00 00 6f 10 11 00 	lui $17,4207
  4079e0:	43 00 00 00 30 36 11 11 	addiu $17,$17,13872
  4079e8:	42 00 00 00 00 05 11 00 	addu $5,$0,$17
  4079f0:	02 00 00 00 7e 1f 10 00 	jal 407df8 <s2_>
  4079f8:	a2 00 00 00 10 10 16 00 	lui $22,4112
  407a00:	43 00 00 00 30 31 16 16 	addiu $22,$22,12592
  407a08:	42 00 00 00 00 04 16 00 	addu $4,$0,$22
  407a10:	a2 00 00 00 77 10 12 00 	lui $18,4215
  407a18:	43 00 00 00 30 10 12 12 	addiu $18,$18,4144
  407a20:	42 00 00 00 00 05 12 00 	addu $5,$0,$18
  407a28:	02 00 00 00 7e 1f 10 00 	jal 407df8 <s2_>
  407a30:	a2 00 00 00 18 10 17 00 	lui $23,4120
  407a38:	43 00 00 00 c0 17 17 17 	addiu $23,$23,6080
  407a40:	42 00 00 00 00 04 17 00 	addu $4,$0,$23
  407a48:	a2 00 00 00 7f 10 13 00 	lui $19,4223
  407a50:	43 00 00 00 30 ea 13 13 	addiu $19,$19,-5584
  407a58:	42 00 00 00 00 05 13 00 	addu $5,$0,$19
  407a60:	02 00 00 00 7e 1f 10 00 	jal 407df8 <s2_>
  407a68:	42 00 00 00 00 04 14 00 	addu $4,$0,$20
  407a70:	42 00 00 00 00 05 10 00 	addu $5,$0,$16
  407a78:	43 00 00 00 68 81 06 1c 	addiu $6,$28,-32408
  407a80:	43 00 00 00 02 00 07 00 	addiu $7,$0,2
  407a88:	02 00 00 00 64 21 10 00 	jal 408590 <b2_>
  407a90:	42 00 00 00 00 04 15 00 	addu $4,$0,$21
  407a98:	42 00 00 00 00 05 11 00 	addu $5,$0,$17
  407aa0:	43 00 00 00 6c 81 06 1c 	addiu $6,$28,-32404
  407aa8:	43 00 00 00 02 00 07 00 	addiu $7,$0,2
  407ab0:	02 00 00 00 64 21 10 00 	jal 408590 <b2_>
  407ab8:	42 00 00 00 00 04 16 00 	addu $4,$0,$22
  407ac0:	42 00 00 00 00 05 12 00 	addu $5,$0,$18
  407ac8:	43 00 00 00 70 81 06 1c 	addiu $6,$28,-32400
  407ad0:	43 00 00 00 02 00 07 00 	addiu $7,$0,2
  407ad8:	02 00 00 00 64 21 10 00 	jal 408590 <b2_>
  407ae0:	42 00 00 00 00 04 17 00 	addu $4,$0,$23
  407ae8:	42 00 00 00 00 05 13 00 	addu $5,$0,$19
  407af0:	43 00 00 00 74 81 06 1c 	addiu $6,$28,-32396
  407af8:	43 00 00 00 02 00 07 00 	addiu $7,$0,2
  407b00:	02 00 00 00 64 21 10 00 	jal 408590 <b2_>
  407b08:	42 00 00 00 00 02 00 00 	addu $2,$0,$0
  407b10:	28 00 00 00 30 00 1f 1d 	lw $31,48($29)
  407b18:	28 00 00 00 2c 00 17 1d 	lw $23,44($29)
  407b20:	28 00 00 00 28 00 16 1d 	lw $22,40($29)
  407b28:	28 00 00 00 24 00 15 1d 	lw $21,36($29)
  407b30:	28 00 00 00 20 00 14 1d 	lw $20,32($29)
  407b38:	28 00 00 00 1c 00 13 1d 	lw $19,28($29)
  407b40:	28 00 00 00 18 00 12 1d 	lw $18,24($29)
  407b48:	28 00 00 00 14 00 11 1d 	lw $17,20($29)
  407b50:	28 00 00 00 10 00 10 1d 	lw $16,16($29)
  407b58:	43 00 00 00 38 00 1d 1d 	addiu $29,$29,56
  407b60:	03 00 00 00 00 00 00 1f 	jr $31

00407b68 <s1_>:
  407b68:	a2 00 00 00 5f 10 03 00 	lui $3,4191
  407b70:	28 00 00 00 80 29 03 03 	lw $3,10624($3)
  407b78:	43 00 00 00 68 f3 05 05 	addiu $5,$5,-3224
  407b80:	43 00 00 00 68 f3 04 04 	addiu $4,$4,-3224
  407b88:	5c 00 00 00 92 01 02 03 	slti $2,$3,402
  407b90:	06 00 00 00 02 00 00 02 	bne $2,$0,407ba0 <s1_+0x38>
  407b98:	43 00 00 00 91 01 03 00 	addiu $3,$0,401
  407ba0:	a2 00 00 00 5f 10 0f 00 	lui $15,4191
  407ba8:	28 00 00 00 8c 29 0f 0f 	lw $15,10636($15)
  407bb0:	43 00 00 00 01 00 0e 00 	addiu $14,$0,1
  407bb8:	07 00 00 00 8a 00 00 0f 	blez $15,407de8 <s1_+0x280>
  407bc0:	42 00 00 00 00 09 03 00 	addu $9,$0,$3
  407bc8:	5c 00 00 00 01 00 19 09 	slti $25,$9,1
  407bd0:	a2 00 00 00 5f 10 18 00 	lui $24,4191
  407bd8:	43 00 00 00 58 5c 18 18 	addiu $24,$24,23640
  407be0:	43 00 00 00 92 01 0d 00 	addiu $13,$0,402
  407be8:	43 00 00 00 93 01 0c 00 	addiu $12,$0,403
  407bf0:	43 00 00 00 01 00 07 00 	addiu $7,$0,1
  407bf8:	06 00 00 00 70 00 00 19 	bne $25,$0,407dc0 <s1_+0x258>
  407c00:	43 00 00 00 08 00 08 18 	addiu $8,$24,8
  407c08:	42 00 00 00 00 0b 0c 00 	addu $11,$0,$12
  407c10:	42 00 00 00 00 0a 0d 00 	addu $10,$0,$13
  407c18:	43 00 00 00 01 00 02 09 	addiu $2,$9,1
  407c20:	4f 00 00 00 01 00 03 09 	andi $3,$9,1
  407c28:	5b 00 00 00 00 02 02 07 	slt $2,$7,$2
  407c30:	05 00 00 00 02 00 00 02 	beq $2,$0,407c40 <s1_+0xd8>
  407c38:	05 00 00 00 22 00 00 03 	beq $3,$0,407cc8 <s1_+0x160>
  407c40:	43 00 00 00 01 00 02 0d 	addiu $2,$13,1
  407c48:	55 00 00 00 03 02 02 00 	sll $2,$2,0x3
  407c50:	42 00 00 00 00 02 05 02 	addu $2,$2,$5
  407c58:	2b 00 00 00 08 00 00 02 	l.d $f0,8($2)
  407c60:	2b 00 00 00 00 00 04 02 	l.d $f4,0($2)
  407c68:	73 00 00 00 00 00 04 00 	sub.d $f0,$f0,$f4
  407c70:	2b 00 00 00 08 00 02 18 	l.d $f2,8($24)
  407c78:	75 00 00 00 00 02 00 02 	mul.d $f2,$f2,$f0
  407c80:	43 00 00 00 08 00 08 08 	addiu $8,$8,8
  407c88:	43 00 00 00 02 00 07 00 	addiu $7,$0,2
  407c90:	5c 00 00 00 02 00 06 09 	slti $6,$9,2
  407c98:	71 00 00 00 00 02 04 02 	add.d $f2,$f2,$f4
  407ca0:	43 00 00 00 01 00 02 0c 	addiu $2,$12,1
  407ca8:	55 00 00 00 03 02 02 00 	sll $2,$2,0x3
  407cb0:	42 00 00 00 00 02 04 02 	addu $2,$2,$4
  407cb8:	37 00 00 00 00 00 02 02 	s.d $f2,0($2)
  407cc0:	06 00 00 00 3e 00 00 06 	bne $6,$0,407dc0 <s1_+0x258>
  407cc8:	42 00 00 00 00 02 07 0a 	addu $2,$10,$7
  407cd0:	55 00 00 00 03 02 02 00 	sll $2,$2,0x3
  407cd8:	42 00 00 00 00 02 05 02 	addu $2,$2,$5
  407ce0:	2b 00 00 00 08 00 02 02 	l.d $f2,8($2)
  407ce8:	2b 00 00 00 00 00 04 02 	l.d $f4,0($2)
  407cf0:	73 00 00 00 00 02 04 02 	sub.d $f2,$f2,$f4
  407cf8:	2b 00 00 00 00 00 00 08 	l.d $f0,0($8)
  407d00:	75 00 00 00 00 00 02 00 	mul.d $f0,$f0,$f2
  407d08:	43 00 00 00 01 00 03 07 	addiu $3,$7,1
  407d10:	71 00 00 00 00 00 04 00 	add.d $f0,$f0,$f4
  407d18:	42 00 00 00 00 02 07 0b 	addu $2,$11,$7
  407d20:	55 00 00 00 03 02 02 00 	sll $2,$2,0x3
  407d28:	42 00 00 00 00 02 04 02 	addu $2,$2,$4
  407d30:	37 00 00 00 00 00 00 02 	s.d $f0,0($2)
  407d38:	42 00 00 00 00 02 03 0a 	addu $2,$10,$3
  407d40:	55 00 00 00 03 02 02 00 	sll $2,$2,0x3
  407d48:	42 00 00 00 00 02 05 02 	addu $2,$2,$5
  407d50:	2b 00 00 00 08 00 00 02 	l.d $f0,8($2)
  407d58:	2b 00 00 00 00 00 04 02 	l.d $f4,0($2)
  407d60:	73 00 00 00 00 00 04 00 	sub.d $f0,$f0,$f4
  407d68:	2b 00 00 00 08 00 02 08 	l.d $f2,8($8)
  407d70:	75 00 00 00 00 02 00 02 	mul.d $f2,$f2,$f0
  407d78:	43 00 00 00 02 00 07 07 	addiu $7,$7,2
  407d80:	5b 00 00 00 00 06 07 09 	slt $6,$9,$7
  407d88:	42 00 00 00 00 03 03 0b 	addu $3,$11,$3
  407d90:	71 00 00 00 00 02 04 02 	add.d $f2,$f2,$f4
  407d98:	55 00 00 00 03 03 03 00 	sll $3,$3,0x3
  407da0:	42 00 00 00 00 03 04 03 	addu $3,$3,$4
  407da8:	43 00 00 00 10 00 08 08 	addiu $8,$8,16
  407db0:	37 00 00 00 00 00 02 03 	s.d $f2,0($3)
  407db8:	05 00 00 00 c2 ff 00 06 	beq $6,$0,407cc8 <s1_+0x160>
  407dc0:	43 00 00 00 92 01 0d 0d 	addiu $13,$13,402
  407dc8:	43 00 00 00 93 01 0c 0c 	addiu $12,$12,403
  407dd0:	43 00 00 00 01 00 0e 0e 	addiu $14,$14,1
  407dd8:	5b 00 00 00 00 02 0e 0f 	slt $2,$15,$14
  407de0:	05 00 00 00 82 ff 00 02 	beq $2,$0,407bf0 <s1_+0x88>
  407de8:	42 00 00 00 00 02 00 00 	addu $2,$0,$0
  407df0:	03 00 00 00 00 00 00 1f 	jr $31

00407df8 <s2_>:
  407df8:	a2 00 00 00 5f 10 03 00 	lui $3,4191
  407e00:	28 00 00 00 8c 29 03 03 	lw $3,10636($3)
  407e08:	43 00 00 00 68 f3 05 05 	addiu $5,$5,-3224
  407e10:	43 00 00 00 f8 ff 04 04 	addiu $4,$4,-8
  407e18:	5c 00 00 00 a0 00 02 03 	slti $2,$3,160
  407e20:	06 00 00 00 02 00 00 02 	bne $2,$0,407e30 <s2_+0x38>
  407e28:	43 00 00 00 9f 00 03 00 	addiu $3,$0,159
  407e30:	43 00 00 00 01 00 0c 00 	addiu $12,$0,1
  407e38:	42 00 00 00 00 0d 03 00 	addu $13,$0,$3
  407e40:	07 00 00 00 de 00 00 0d 	blez $13,4081c0 <s2_+0x3c8>
  407e48:	a2 00 00 00 5f 10 0b 00 	lui $11,4191
  407e50:	43 00 00 00 f8 7c 0b 0b 	addiu $11,$11,31992
  407e58:	43 00 00 00 92 01 0a 00 	addiu $10,$0,402
  407e60:	a2 00 00 00 5f 10 09 00 	lui $9,4191
  407e68:	28 00 00 00 80 29 09 09 	lw $9,10624($9)
  407e70:	43 00 00 00 01 00 06 00 	addiu $6,$0,1
  407e78:	07 00 00 00 c6 00 00 09 	blez $9,408198 <s2_+0x3a0>
  407e80:	42 00 00 00 00 08 0a 00 	addu $8,$0,$10
  407e88:	42 00 00 00 00 07 0b 00 	addu $7,$0,$11
  407e90:	43 00 00 00 01 00 02 09 	addiu $2,$9,1
  407e98:	4f 00 00 00 03 00 03 09 	andi $3,$9,3
  407ea0:	5b 00 00 00 00 02 02 06 	slt $2,$6,$2
  407ea8:	05 00 00 00 3a 00 00 02 	beq $2,$0,407f98 <s2_+0x1a0>
  407eb0:	05 00 00 00 54 00 00 03 	beq $3,$0,408008 <s2_+0x210>
  407eb8:	5c 00 00 00 02 00 02 03 	slti $2,$3,2
  407ec0:	06 00 00 00 34 00 00 02 	bne $2,$0,407f98 <s2_+0x1a0>
  407ec8:	5c 00 00 00 03 00 02 03 	slti $2,$3,3
  407ed0:	06 00 00 00 18 00 00 02 	bne $2,$0,407f38 <s2_+0x140>
  407ed8:	43 00 00 00 01 00 03 0a 	addiu $3,$10,1
  407ee0:	55 00 00 00 03 03 03 00 	sll $3,$3,0x3
  407ee8:	42 00 00 00 00 02 05 03 	addu $2,$3,$5
  407ef0:	2b 00 00 00 90 0c 02 02 	l.d $f2,3216($2)
  407ef8:	2b 00 00 00 00 00 04 02 	l.d $f4,0($2)
  407f00:	73 00 00 00 00 02 04 02 	sub.d $f2,$f2,$f4
  407f08:	2b 00 00 00 00 00 00 0b 	l.d $f0,0($11)
  407f10:	75 00 00 00 00 00 02 00 	mul.d $f0,$f0,$f2
  407f18:	71 00 00 00 00 00 04 00 	add.d $f0,$f0,$f4
  407f20:	43 00 00 00 02 00 06 00 	addiu $6,$0,2
  407f28:	42 00 00 00 00 03 04 03 	addu $3,$3,$4
  407f30:	37 00 00 00 00 00 00 03 	s.d $f0,0($3)
  407f38:	42 00 00 00 00 03 06 0a 	addu $3,$10,$6
  407f40:	55 00 00 00 03 03 03 00 	sll $3,$3,0x3
  407f48:	42 00 00 00 00 02 05 03 	addu $2,$3,$5
  407f50:	2b 00 00 00 90 0c 02 02 	l.d $f2,3216($2)
  407f58:	2b 00 00 00 00 00 04 02 	l.d $f4,0($2)
  407f60:	73 00 00 00 00 02 04 02 	sub.d $f2,$f2,$f4
  407f68:	2b 00 00 00 00 00 00 0b 	l.d $f0,0($11)
  407f70:	75 00 00 00 00 00 02 00 	mul.d $f0,$f0,$f2
  407f78:	71 00 00 00 00 00 04 00 	add.d $f0,$f0,$f4
  407f80:	43 00 00 00 01 00 06 06 	addiu $6,$6,1
  407f88:	42 00 00 00 00 03 04 03 	addu $3,$3,$4
  407f90:	37 00 00 00 00 00 00 03 	s.d $f0,0($3)
  407f98:	42 00 00 00 00 03 06 08 	addu $3,$8,$6
  407fa0:	55 00 00 00 03 03 03 00 	sll $3,$3,0x3
  407fa8:	42 00 00 00 00 02 05 03 	addu $2,$3,$5
  407fb0:	2b 00 00 00 90 0c 00 02 	l.d $f0,3216($2)
  407fb8:	2b 00 00 00 00 00 04 02 	l.d $f4,0($2)
  407fc0:	73 00 00 00 00 00 04 00 	sub.d $f0,$f0,$f4
  407fc8:	2b 00 00 00 00 00 02 07 	l.d $f2,0($7)
  407fd0:	75 00 00 00 00 02 00 02 	mul.d $f2,$f2,$f0
  407fd8:	71 00 00 00 00 02 04 02 	add.d $f2,$f2,$f4
  407fe0:	43 00 00 00 01 00 06 06 	addiu $6,$6,1
  407fe8:	42 00 00 00 00 03 04 03 	addu $3,$3,$4
  407ff0:	5b 00 00 00 00 02 06 09 	slt $2,$9,$6
  407ff8:	37 00 00 00 00 00 02 03 	s.d $f2,0($3)
  408000:	06 00 00 00 64 00 00 02 	bne $2,$0,408198 <s2_+0x3a0>
  408008:	42 00 00 00 00 03 06 08 	addu $3,$8,$6
  408010:	55 00 00 00 03 03 03 00 	sll $3,$3,0x3
  408018:	42 00 00 00 00 02 05 03 	addu $2,$3,$5
  408020:	2b 00 00 00 90 0c 02 02 	l.d $f2,3216($2)
  408028:	2b 00 00 00 00 00 04 02 	l.d $f4,0($2)
  408030:	73 00 00 00 00 02 04 02 	sub.d $f2,$f2,$f4
  408038:	2b 00 00 00 00 00 00 07 	l.d $f0,0($7)
  408040:	75 00 00 00 00 00 02 00 	mul.d $f0,$f0,$f2
  408048:	71 00 00 00 00 00 04 00 	add.d $f0,$f0,$f4
  408050:	42 00 00 00 00 03 04 03 	addu $3,$3,$4
  408058:	37 00 00 00 00 00 00 03 	s.d $f0,0($3)
  408060:	43 00 00 00 01 00 03 06 	addiu $3,$6,1
  408068:	42 00 00 00 00 03 03 08 	addu $3,$8,$3
  408070:	55 00 00 00 03 03 03 00 	sll $3,$3,0x3
  408078:	42 00 00 00 00 02 05 03 	addu $2,$3,$5
  408080:	2b 00 00 00 90 0c 02 02 	l.d $f2,3216($2)
  408088:	2b 00 00 00 00 00 04 02 	l.d $f4,0($2)
  408090:	73 00 00 00 00 02 04 02 	sub.d $f2,$f2,$f4
  408098:	2b 00 00 00 00 00 00 07 	l.d $f0,0($7)
  4080a0:	75 00 00 00 00 00 02 00 	mul.d $f0,$f0,$f2
  4080a8:	71 00 00 00 00 00 04 00 	add.d $f0,$f0,$f4
  4080b0:	42 00 00 00 00 03 04 03 	addu $3,$3,$4
  4080b8:	37 00 00 00 00 00 00 03 	s.d $f0,0($3)
  4080c0:	43 00 00 00 02 00 03 06 	addiu $3,$6,2
  4080c8:	42 00 00 00 00 03 03 08 	addu $3,$8,$3
  4080d0:	55 00 00 00 03 03 03 00 	sll $3,$3,0x3
  4080d8:	42 00 00 00 00 02 05 03 	addu $2,$3,$5
  4080e0:	2b 00 00 00 90 0c 02 02 	l.d $f2,3216($2)
  4080e8:	2b 00 00 00 00 00 04 02 	l.d $f4,0($2)
  4080f0:	73 00 00 00 00 02 04 02 	sub.d $f2,$f2,$f4
  4080f8:	2b 00 00 00 00 00 00 07 	l.d $f0,0($7)
  408100:	75 00 00 00 00 00 02 00 	mul.d $f0,$f0,$f2
  408108:	71 00 00 00 00 00 04 00 	add.d $f0,$f0,$f4
  408110:	42 00 00 00 00 03 04 03 	addu $3,$3,$4
  408118:	37 00 00 00 00 00 00 03 	s.d $f0,0($3)
  408120:	43 00 00 00 03 00 03 06 	addiu $3,$6,3
  408128:	42 00 00 00 00 03 03 08 	addu $3,$8,$3
  408130:	55 00 00 00 03 03 03 00 	sll $3,$3,0x3
  408138:	42 00 00 00 00 02 05 03 	addu $2,$3,$5
  408140:	2b 00 00 00 90 0c 02 02 	l.d $f2,3216($2)
  408148:	2b 00 00 00 00 00 04 02 	l.d $f4,0($2)
  408150:	73 00 00 00 00 02 04 02 	sub.d $f2,$f2,$f4
  408158:	2b 00 00 00 00 00 00 07 	l.d $f0,0($7)
  408160:	75 00 00 00 00 00 02 00 	mul.d $f0,$f0,$f2
  408168:	71 00 00 00 00 00 04 00 	add.d $f0,$f0,$f4
  408170:	43 00 00 00 04 00 06 06 	addiu $6,$6,4
  408178:	42 00 00 00 00 03 04 03 	addu $3,$3,$4
  408180:	5b 00 00 00 00 02 06 09 	slt $2,$9,$6
  408188:	37 00 00 00 00 00 00 03 	s.d $f0,0($3)
  408190:	05 00 00 00 9c ff 00 02 	beq $2,$0,408008 <s2_+0x210>
  408198:	43 00 00 00 08 00 0b 0b 	addiu $11,$11,8
  4081a0:	43 00 00 00 92 01 0a 0a 	addiu $10,$10,402
  4081a8:	43 00 00 00 01 00 0c 0c 	addiu $12,$12,1
  4081b0:	5b 00 00 00 00 02 0c 0d 	slt $2,$13,$12
  4081b8:	05 00 00 00 28 ff 00 02 	beq $2,$0,407e60 <s2_+0x68>
  4081c0:	42 00 00 00 00 02 00 00 	addu $2,$0,$0
  4081c8:	03 00 00 00 00 00 00 1f 	jr $31

004081d0 <b1_>:
  4081d0:	43 00 00 00 d8 ff 1d 1d 	addiu $29,$29,-40
  4081d8:	34 00 00 00 18 00 10 1d 	sw $16,24($29)
  4081e0:	42 00 00 00 00 10 06 00 	addu $16,$0,$6
  4081e8:	34 00 00 00 1c 00 11 1d 	sw $17,28($29)
  4081f0:	43 00 00 00 68 f3 11 04 	addiu $17,$4,-3224
  4081f8:	42 00 00 00 00 04 10 00 	addu $4,$0,$16
  408200:	34 00 00 00 20 00 12 1d 	sw $18,32($29)
  408208:	43 00 00 00 68 f3 12 05 	addiu $18,$5,-3224
  408210:	43 00 00 00 68 81 05 1c 	addiu $5,$28,-32408
  408218:	43 00 00 00 02 00 06 00 	addiu $6,$0,2
  408220:	43 00 00 00 02 00 07 00 	addiu $7,$0,2
  408228:	34 00 00 00 24 00 1f 1d 	sw $31,36($29)
  408230:	02 00 00 00 d4 6b 10 00 	jal 41af50 <s_cmp>
  408238:	05 00 00 00 30 00 00 02 	beq $2,$0,408300 <b1_+0x130>
  408240:	42 00 00 00 00 04 10 00 	addu $4,$0,$16
  408248:	43 00 00 00 6c 81 05 1c 	addiu $5,$28,-32404
  408250:	43 00 00 00 02 00 06 00 	addiu $6,$0,2
  408258:	43 00 00 00 02 00 07 00 	addiu $7,$0,2
  408260:	02 00 00 00 d4 6b 10 00 	jal 41af50 <s_cmp>
  408268:	05 00 00 00 24 00 00 02 	beq $2,$0,408300 <b1_+0x130>
  408270:	42 00 00 00 00 04 10 00 	addu $4,$0,$16
  408278:	43 00 00 00 74 81 05 1c 	addiu $5,$28,-32396
  408280:	43 00 00 00 02 00 06 00 	addiu $6,$0,2
  408288:	43 00 00 00 02 00 07 00 	addiu $7,$0,2
  408290:	02 00 00 00 d4 6b 10 00 	jal 41af50 <s_cmp>
  408298:	05 00 00 00 18 00 00 02 	beq $2,$0,408300 <b1_+0x130>
  4082a0:	42 00 00 00 00 04 10 00 	addu $4,$0,$16
  4082a8:	43 00 00 00 88 81 05 1c 	addiu $5,$28,-32376
  4082b0:	43 00 00 00 02 00 06 00 	addiu $6,$0,2
  4082b8:	43 00 00 00 02 00 07 00 	addiu $7,$0,2
  4082c0:	02 00 00 00 d4 6b 10 00 	jal 41af50 <s_cmp>
  4082c8:	05 00 00 00 0c 00 00 02 	beq $2,$0,408300 <b1_+0x130>
  4082d0:	42 00 00 00 00 04 10 00 	addu $4,$0,$16
  4082d8:	43 00 00 00 8c 81 05 1c 	addiu $5,$28,-32372
  4082e0:	43 00 00 00 02 00 06 00 	addiu $6,$0,2
  4082e8:	43 00 00 00 02 00 07 00 	addiu $7,$0,2
  4082f0:	02 00 00 00 d4 6b 10 00 	jal 41af50 <s_cmp>
  4082f8:	06 00 00 00 08 00 00 02 	bne $2,$0,408320 <b1_+0x150>
  408300:	43 00 00 00 4f 00 02 00 	addiu $2,$0,79
  408308:	30 00 00 00 10 00 02 1d 	sb $2,16($29)
  408310:	30 00 00 00 11 00 02 1d 	sb $2,17($29)
  408318:	01 00 00 00 d2 20 10 00 	j 408348 <b1_+0x178>
  408320:	22 00 00 00 f0 88 02 1c 	lbu $2,-30480($28)
  408328:	a2 00 00 00 00 10 03 00 	lui $3,4096
  408330:	22 00 00 00 a1 49 03 03 	lbu $3,18849($3)
  408338:	30 00 00 00 10 00 02 1d 	sb $2,16($29)
  408340:	30 00 00 00 11 00 03 1d 	sb $3,17($29)
  408348:	22 00 00 00 10 00 03 1d 	lbu $3,16($29)
  408350:	43 00 00 00 43 00 02 00 	addiu $2,$0,67
  408358:	06 00 00 00 18 00 02 03 	bne $3,$2,4083c0 <b1_+0x1f0>
  408360:	43 00 00 00 01 00 06 00 	addiu $6,$0,1
  408368:	43 00 00 00 98 0c 03 11 	addiu $3,$17,3224
  408370:	38 00 00 00 00 00 00 03 	dsz 0($3)
  408378:	38 00 00 00 98 0c 00 03 	dsz 3224($3)
  408380:	38 00 00 00 30 19 00 03 	dsz 6448($3)
  408388:	38 00 00 00 c8 25 00 03 	dsz 9672($3)
  408390:	38 00 00 00 60 32 00 03 	dsz 12896($3)
  408398:	43 00 00 00 f8 3e 03 03 	addiu $3,$3,16120
  4083a0:	43 00 00 00 05 00 06 06 	addiu $6,$6,5
  4083a8:	5c 00 00 00 a1 00 02 06 	slti $2,$6,161
  4083b0:	06 00 00 00 ee ff 00 02 	bne $2,$0,408370 <b1_+0x1a0>
  4083b8:	01 00 00 00 14 21 10 00 	j 408450 <b1_+0x280>
  4083c0:	43 00 00 00 01 00 06 00 	addiu $6,$0,1
  4083c8:	43 00 00 00 90 0c 04 12 	addiu $4,$18,3216
  4083d0:	43 00 00 00 98 0c 03 11 	addiu $3,$17,3224
  4083d8:	2b 00 00 00 08 00 00 04 	l.d $f0,8($4)
  4083e0:	37 00 00 00 00 00 00 03 	s.d $f0,0($3)
  4083e8:	2b 00 00 00 98 0c 00 04 	l.d $f0,3224($4)
  4083f0:	37 00 00 00 98 0c 00 03 	s.d $f0,3224($3)
  4083f8:	2b 00 00 00 28 19 00 04 	l.d $f0,6440($4)
  408400:	37 00 00 00 30 19 00 03 	s.d $f0,6448($3)
  408408:	2b 00 00 00 b8 25 00 04 	l.d $f0,9656($4)
  408410:	37 00 00 00 c8 25 00 03 	s.d $f0,9672($3)
  408418:	2b 00 00 00 48 32 00 04 	l.d $f0,12872($4)
  408420:	43 00 00 00 05 00 06 06 	addiu $6,$6,5
  408428:	5c 00 00 00 a1 00 02 06 	slti $2,$6,161
  408430:	37 00 00 00 60 32 00 03 	s.d $f0,12896($3)
  408438:	43 00 00 00 f8 3e 03 03 	addiu $3,$3,16120
  408440:	43 00 00 00 d0 3e 04 04 	addiu $4,$4,16080
  408448:	06 00 00 00 e2 ff 00 02 	bne $2,$0,4083d8 <b1_+0x208>
  408450:	22 00 00 00 11 00 03 1d 	lbu $3,17($29)
  408458:	43 00 00 00 43 00 02 00 	addiu $2,$0,67
  408460:	06 00 00 00 18 00 02 03 	bne $3,$2,4084c8 <b1_+0x2f8>
  408468:	43 00 00 00 01 00 06 00 	addiu $6,$0,1
  408470:	43 00 00 00 98 0c 04 11 	addiu $4,$17,3224
  408478:	38 00 00 00 90 0c 00 04 	dsz 3216($4)
  408480:	38 00 00 00 28 19 00 04 	dsz 6440($4)
  408488:	38 00 00 00 c0 25 00 04 	dsz 9664($4)
  408490:	38 00 00 00 58 32 00 04 	dsz 12888($4)
  408498:	38 00 00 00 f0 3e 00 04 	dsz 16112($4)
  4084a0:	43 00 00 00 f8 3e 04 04 	addiu $4,$4,16120
  4084a8:	43 00 00 00 05 00 06 06 	addiu $6,$6,5
  4084b0:	5c 00 00 00 a1 00 02 06 	slti $2,$6,161
  4084b8:	06 00 00 00 ee ff 00 02 	bne $2,$0,408478 <b1_+0x2a8>
  4084c0:	01 00 00 00 56 21 10 00 	j 408558 <b1_+0x388>
  4084c8:	43 00 00 00 01 00 06 00 	addiu $6,$0,1
  4084d0:	43 00 00 00 90 0c 05 12 	addiu $5,$18,3216
  4084d8:	43 00 00 00 98 0c 04 11 	addiu $4,$17,3224
  4084e0:	2b 00 00 00 90 0c 00 05 	l.d $f0,3216($5)
  4084e8:	37 00 00 00 90 0c 00 04 	s.d $f0,3216($4)
  4084f0:	2b 00 00 00 20 19 00 05 	l.d $f0,6432($5)
  4084f8:	37 00 00 00 28 19 00 04 	s.d $f0,6440($4)
  408500:	2b 00 00 00 b0 25 00 05 	l.d $f0,9648($5)
  408508:	37 00 00 00 c0 25 00 04 	s.d $f0,9664($4)
  408510:	2b 00 00 00 40 32 00 05 	l.d $f0,12864($5)
  408518:	37 00 00 00 58 32 00 04 	s.d $f0,12888($4)
  408520:	2b 00 00 00 d0 3e 00 05 	l.d $f0,16080($5)
  408528:	43 00 00 00 05 00 06 06 	addiu $6,$6,5
  408530:	5c 00 00 00 a1 00 02 06 	slti $2,$6,161
  408538:	43 00 00 00 d0 3e 05 05 	addiu $5,$5,16080
  408540:	37 00 00 00 f0 3e 00 04 	s.d $f0,16112($4)
  408548:	43 00 00 00 f8 3e 04 04 	addiu $4,$4,16120
  408550:	06 00 00 00 e2 ff 00 02 	bne $2,$0,4084e0 <b1_+0x310>
  408558:	42 00 00 00 00 02 00 00 	addu $2,$0,$0
  408560:	28 00 00 00 24 00 1f 1d 	lw $31,36($29)
  408568:	28 00 00 00 20 00 12 1d 	lw $18,32($29)
  408570:	28 00 00 00 1c 00 11 1d 	lw $17,28($29)
  408578:	28 00 00 00 18 00 10 1d 	lw $16,24($29)
  408580:	43 00 00 00 28 00 1d 1d 	addiu $29,$29,40
  408588:	03 00 00 00 00 00 00 1f 	jr $31

00408590 <b2_>:
  408590:	43 00 00 00 d8 ff 1d 1d 	addiu $29,$29,-40
  408598:	34 00 00 00 18 00 10 1d 	sw $16,24($29)
  4085a0:	42 00 00 00 00 10 06 00 	addu $16,$0,$6
  4085a8:	34 00 00 00 1c 00 11 1d 	sw $17,28($29)
  4085b0:	43 00 00 00 f8 ff 11 04 	addiu $17,$4,-8
  4085b8:	42 00 00 00 00 04 10 00 	addu $4,$0,$16
  4085c0:	34 00 00 00 20 00 12 1d 	sw $18,32($29)
  4085c8:	43 00 00 00 68 f3 12 05 	addiu $18,$5,-3224
  4085d0:	43 00 00 00 68 81 05 1c 	addiu $5,$28,-32408
  4085d8:	43 00 00 00 02 00 06 00 	addiu $6,$0,2
  4085e0:	43 00 00 00 02 00 07 00 	addiu $7,$0,2
  4085e8:	34 00 00 00 24 00 1f 1d 	sw $31,36($29)
  4085f0:	02 00 00 00 d4 6b 10 00 	jal 41af50 <s_cmp>
  4085f8:	05 00 00 00 24 00 00 02 	beq $2,$0,408690 <b2_+0x100>
  408600:	42 00 00 00 00 04 10 00 	addu $4,$0,$16
  408608:	43 00 00 00 6c 81 05 1c 	addiu $5,$28,-32404
  408610:	43 00 00 00 02 00 06 00 	addiu $6,$0,2
  408618:	43 00 00 00 02 00 07 00 	addiu $7,$0,2
  408620:	02 00 00 00 d4 6b 10 00 	jal 41af50 <s_cmp>
  408628:	05 00 00 00 18 00 00 02 	beq $2,$0,408690 <b2_+0x100>
  408630:	42 00 00 00 00 04 10 00 	addu $4,$0,$16
  408638:	43 00 00 00 70 81 05 1c 	addiu $5,$28,-32400
  408640:	43 00 00 00 02 00 06 00 	addiu $6,$0,2
  408648:	43 00 00 00 02 00 07 00 	addiu $7,$0,2
  408650:	02 00 00 00 d4 6b 10 00 	jal 41af50 <s_cmp>
  408658:	05 00 00 00 0c 00 00 02 	beq $2,$0,408690 <b2_+0x100>
  408660:	42 00 00 00 00 04 10 00 	addu $4,$0,$16
  408668:	43 00 00 00 8c 81 05 1c 	addiu $5,$28,-32372
  408670:	43 00 00 00 02 00 06 00 	addiu $6,$0,2
  408678:	43 00 00 00 02 00 07 00 	addiu $7,$0,2
  408680:	02 00 00 00 d4 6b 10 00 	jal 41af50 <s_cmp>
  408688:	06 00 00 00 08 00 00 02 	bne $2,$0,4086b0 <b2_+0x120>
  408690:	43 00 00 00 4f 00 02 00 	addiu $2,$0,79
  408698:	30 00 00 00 10 00 02 1d 	sb $2,16($29)
  4086a0:	30 00 00 00 11 00 02 1d 	sb $2,17($29)
  4086a8:	01 00 00 00 b8 21 10 00 	j 4086e0 <b2_+0x150>
  4086b0:	a2 00 00 00 00 10 02 00 	lui $2,4096
  4086b8:	22 00 00 00 a2 49 02 02 	lbu $2,18850($2)
  4086c0:	a2 00 00 00 00 10 03 00 	lui $3,4096
  4086c8:	22 00 00 00 a3 49 03 03 	lbu $3,18851($3)
  4086d0:	30 00 00 00 10 00 02 1d 	sb $2,16($29)
  4086d8:	30 00 00 00 11 00 03 1d 	sb $3,17($29)
  4086e0:	22 00 00 00 10 00 03 1d 	lbu $3,16($29)
  4086e8:	43 00 00 00 43 00 02 00 	addiu $2,$0,67
  4086f0:	06 00 00 00 1a 00 02 03 	bne $3,$2,408760 <b2_+0x1d0>
  4086f8:	43 00 00 00 01 00 0b 00 	addiu $11,$0,1
  408700:	43 00 00 00 08 00 03 11 	addiu $3,$17,8
  408708:	38 00 00 00 00 00 00 03 	dsz 0($3)
  408710:	38 00 00 00 08 00 00 03 	dsz 8($3)
  408718:	38 00 00 00 10 00 00 03 	dsz 16($3)
  408720:	38 00 00 00 18 00 00 03 	dsz 24($3)
  408728:	38 00 00 00 20 00 00 03 	dsz 32($3)
  408730:	38 00 00 00 28 00 00 03 	dsz 40($3)
  408738:	43 00 00 00 30 00 03 03 	addiu $3,$3,48
  408740:	43 00 00 00 06 00 0b 0b 	addiu $11,$11,6
  408748:	5c 00 00 00 93 01 02 0b 	slti $2,$11,403
  408750:	06 00 00 00 ec ff 00 02 	bne $2,$0,408708 <b2_+0x178>
  408758:	01 00 00 00 00 22 10 00 	j 408800 <b2_+0x270>
  408760:	43 00 00 00 01 00 0b 00 	addiu $11,$0,1
  408768:	43 00 00 00 08 00 04 12 	addiu $4,$18,8
  408770:	43 00 00 00 08 00 03 11 	addiu $3,$17,8
  408778:	2b 00 00 00 90 0c 00 04 	l.d $f0,3216($4)
  408780:	37 00 00 00 00 00 00 03 	s.d $f0,0($3)
  408788:	2b 00 00 00 98 0c 00 04 	l.d $f0,3224($4)
  408790:	37 00 00 00 08 00 00 03 	s.d $f0,8($3)
  408798:	2b 00 00 00 a0 0c 00 04 	l.d $f0,3232($4)
  4087a0:	37 00 00 00 10 00 00 03 	s.d $f0,16($3)
  4087a8:	2b 00 00 00 a8 0c 00 04 	l.d $f0,3240($4)
  4087b0:	37 00 00 00 18 00 00 03 	s.d $f0,24($3)
  4087b8:	2b 00 00 00 b0 0c 00 04 	l.d $f0,3248($4)
  4087c0:	37 00 00 00 20 00 00 03 	s.d $f0,32($3)
  4087c8:	2b 00 00 00 b8 0c 00 04 	l.d $f0,3256($4)
  4087d0:	43 00 00 00 06 00 0b 0b 	addiu $11,$11,6
  4087d8:	5c 00 00 00 93 01 02 0b 	slti $2,$11,403
  4087e0:	37 00 00 00 28 00 00 03 	s.d $f0,40($3)
  4087e8:	43 00 00 00 30 00 03 03 	addiu $3,$3,48
  4087f0:	43 00 00 00 30 00 04 04 	addiu $4,$4,48
  4087f8:	06 00 00 00 de ff 00 02 	bne $2,$0,408778 <b2_+0x1e8>
  408800:	22 00 00 00 11 00 03 1d 	lbu $3,17($29)
  408808:	43 00 00 00 43 00 02 00 	addiu $2,$0,67
  408810:	06 00 00 00 34 00 02 03 	bne $3,$2,4088e8 <b2_+0x358>
  408818:	43 00 00 00 01 00 0b 00 	addiu $11,$0,1
  408820:	a2 00 00 00 07 00 09 00 	lui $9,7
  408828:	51 00 00 00 00 da 09 09 	ori $9,$9,55808
  408830:	43 00 00 00 08 00 08 11 	addiu $8,$17,8
  408838:	42 00 00 00 00 07 09 08 	addu $7,$8,$9
  408840:	43 00 00 00 08 00 02 08 	addiu $2,$8,8
  408848:	43 00 00 00 10 00 03 08 	addiu $3,$8,16
  408850:	43 00 00 00 18 00 04 08 	addiu $4,$8,24
  408858:	43 00 00 00 20 00 05 08 	addiu $5,$8,32
  408860:	43 00 00 00 28 00 06 08 	addiu $6,$8,40
  408868:	43 00 00 00 30 00 08 08 	addiu $8,$8,48
  408870:	43 00 00 00 06 00 0b 0b 	addiu $11,$11,6
  408878:	42 00 00 00 00 02 09 02 	addu $2,$2,$9
  408880:	42 00 00 00 00 03 09 03 	addu $3,$3,$9
  408888:	42 00 00 00 00 04 09 04 	addu $4,$4,$9
  408890:	42 00 00 00 00 05 09 05 	addu $5,$5,$9
  408898:	42 00 00 00 00 06 09 06 	addu $6,$6,$9
  4088a0:	38 00 00 00 00 00 00 07 	dsz 0($7)
  4088a8:	38 00 00 00 00 00 00 02 	dsz 0($2)
  4088b0:	5c 00 00 00 93 01 02 0b 	slti $2,$11,403
  4088b8:	38 00 00 00 00 00 00 03 	dsz 0($3)
  4088c0:	38 00 00 00 00 00 00 04 	dsz 0($4)
  4088c8:	38 00 00 00 00 00 00 05 	dsz 0($5)
  4088d0:	38 00 00 00 00 00 00 06 	dsz 0($6)
  4088d8:	06 00 00 00 d6 ff 00 02 	bne $2,$0,408838 <b2_+0x2a8>
  4088e0:	01 00 00 00 88 22 10 00 	j 408a20 <b2_+0x490>
  4088e8:	43 00 00 00 01 00 0b 00 	addiu $11,$0,1
  4088f0:	a2 00 00 00 07 00 08 00 	lui $8,7
  4088f8:	51 00 00 00 00 da 08 08 	ori $8,$8,55808
  408900:	43 00 00 00 08 00 0a 12 	addiu $10,$18,8
  408908:	43 00 00 00 08 00 09 11 	addiu $9,$17,8
  408910:	42 00 00 00 00 02 08 0a 	addu $2,$10,$8
  408918:	2b 00 00 00 00 00 00 02 	l.d $f0,0($2)
  408920:	42 00 00 00 00 03 08 0a 	addu $3,$10,$8
  408928:	42 00 00 00 00 04 08 0a 	addu $4,$10,$8
  408930:	42 00 00 00 00 05 08 0a 	addu $5,$10,$8
  408938:	42 00 00 00 00 06 08 0a 	addu $6,$10,$8
  408940:	42 00 00 00 00 07 08 0a 	addu $7,$10,$8
  408948:	43 00 00 00 30 00 0a 0a 	addiu $10,$10,48
  408950:	43 00 00 00 06 00 0b 0b 	addiu $11,$11,6
  408958:	42 00 00 00 00 02 08 09 	addu $2,$9,$8
  408960:	37 00 00 00 00 00 00 02 	s.d $f0,0($2)
  408968:	2b 00 00 00 08 00 00 03 	l.d $f0,8($3)
  408970:	43 00 00 00 08 00 02 09 	addiu $2,$9,8
  408978:	42 00 00 00 00 02 08 02 	addu $2,$2,$8
  408980:	37 00 00 00 00 00 00 02 	s.d $f0,0($2)
  408988:	2b 00 00 00 10 00 00 04 	l.d $f0,16($4)
  408990:	43 00 00 00 10 00 02 09 	addiu $2,$9,16
  408998:	42 00 00 00 00 02 08 02 	addu $2,$2,$8
  4089a0:	43 00 00 00 28 00 03 09 	addiu $3,$9,40
  4089a8:	42 00 00 00 00 03 08 03 	addu $3,$3,$8
  4089b0:	37 00 00 00 00 00 00 02 	s.d $f0,0($2)
  4089b8:	2b 00 00 00 18 00 00 05 	l.d $f0,24($5)
  4089c0:	43 00 00 00 18 00 02 09 	addiu $2,$9,24
  4089c8:	42 00 00 00 00 02 08 02 	addu $2,$2,$8
  4089d0:	37 00 00 00 00 00 00 02 	s.d $f0,0($2)
  4089d8:	2b 00 00 00 20 00 00 06 	l.d $f0,32($6)
  4089e0:	43 00 00 00 20 00 02 09 	addiu $2,$9,32
  4089e8:	42 00 00 00 00 02 08 02 	addu $2,$2,$8
  4089f0:	37 00 00 00 00 00 00 02 	s.d $f0,0($2)
  4089f8:	2b 00 00 00 28 00 00 07 	l.d $f0,40($7)
  408a00:	43 00 00 00 30 00 09 09 	addiu $9,$9,48
  408a08:	5c 00 00 00 93 01 02 0b 	slti $2,$11,403
  408a10:	37 00 00 00 00 00 00 03 	s.d $f0,0($3)
  408a18:	06 00 00 00 bc ff 00 02 	bne $2,$0,408910 <b2_+0x380>
  408a20:	42 00 00 00 00 02 00 00 	addu $2,$0,$0
  408a28:	28 00 00 00 24 00 1f 1d 	lw $31,36($29)
  408a30:	28 00 00 00 20 00 12 1d 	lw $18,32($29)
  408a38:	28 00 00 00 1c 00 11 1d 	lw $17,28($29)
  408a40:	28 00 00 00 18 00 10 1d 	lw $16,24($29)
  408a48:	43 00 00 00 28 00 1d 1d 	addiu $29,$29,40
  408a50:	03 00 00 00 00 00 00 1f 	jr $31

00408a58 <trans1_>:
  408a58:	a2 00 00 00 5f 10 01 00 	lui $1,4191
  408a60:	2b 00 00 00 b0 29 02 01 	l.d $f2,10672($1)
  408a68:	2b 00 00 00 90 81 00 1c 	l.d $f0,-32368($28)
  408a70:	43 00 00 00 d8 ff 1d 1d 	addiu $29,$29,-40
  408a78:	a2 00 00 00 5f 10 02 00 	lui $2,4191
  408a80:	43 00 00 00 8c 29 02 02 	addiu $2,$2,10636
  408a88:	34 00 00 00 20 00 1f 1d 	sw $31,32($29)
  408a90:	34 00 00 00 1c 00 13 1d 	sw $19,28($29)
  408a98:	34 00 00 00 18 00 12 1d 	sw $18,24($29)
  408aa0:	34 00 00 00 14 00 11 1d 	sw $17,20($29)
  408aa8:	34 00 00 00 10 00 10 1d 	sw $16,16($29)
  408ab0:	73 00 00 00 00 04 00 02 	sub.d $f4,$f2,$f0
  408ab8:	28 00 00 00 00 00 0a 02 	lw $10,0($2)
  408ac0:	43 00 00 00 01 00 0b 00 	addiu $11,$0,1
  408ac8:	07 00 00 00 7e 00 00 0a 	blez $10,408cc8 <trans1_+0x270>
  408ad0:	43 00 00 00 f4 ff 13 02 	addiu $19,$2,-12
  408ad8:	a2 00 00 00 3f 10 12 00 	lui $18,4159
  408ae0:	43 00 00 00 78 6e 12 12 	addiu $18,$18,28280
  408ae8:	a2 00 00 00 77 10 11 00 	lui $17,4215
  408af0:	43 00 00 00 98 0d 11 11 	addiu $17,$17,3480
  408af8:	a2 00 00 00 67 10 19 00 	lui $25,4199
  408b00:	43 00 00 00 98 4f 19 19 	addiu $25,$25,20376
  408b08:	a2 00 00 00 47 10 18 00 	lui $24,4167
  408b10:	43 00 00 00 78 4d 18 18 	addiu $24,$24,19832
  408b18:	a2 00 00 00 7f 10 10 00 	lui $16,4223
  408b20:	43 00 00 00 98 ec 10 10 	addiu $16,$16,-4968
  408b28:	a2 00 00 00 4f 10 0f 00 	lui $15,4175
  408b30:	43 00 00 00 78 2c 0f 0f 	addiu $15,$15,11384
  408b38:	43 00 00 00 93 01 09 00 	addiu $9,$0,403
  408b40:	28 00 00 00 00 00 08 13 	lw $8,0($19)
  408b48:	42 00 00 00 00 07 00 00 	addu $7,$0,$0
  408b50:	09 00 00 00 54 00 00 08 	bltz $8,408ca8 <trans1_+0x250>
  408b58:	42 00 00 00 00 0c 09 00 	addu $12,$0,$9
  408b60:	a2 00 00 00 6f 10 0e 00 	lui $14,4207
  408b68:	43 00 00 00 98 2e 0e 0e 	addiu $14,$14,11928
  408b70:	2b 00 00 00 98 81 06 1c 	l.d $f6,-32360($28)
  408b78:	a2 00 00 00 00 10 0d 00 	lui $13,4096
  408b80:	43 00 00 00 50 54 0d 0d 	addiu $13,$13,21584
  408b88:	42 00 00 00 00 03 07 0c 	addu $3,$12,$7
  408b90:	55 00 00 00 03 03 03 00 	sll $3,$3,0x3
  408b98:	42 00 00 00 00 05 11 03 	addu $5,$3,$17
  408ba0:	42 00 00 00 00 06 19 03 	addu $6,$3,$25
  408ba8:	2b 00 00 00 00 00 02 05 	l.d $f2,0($5)
  408bb0:	2b 00 00 00 00 00 00 06 	l.d $f0,0($6)
  408bb8:	77 00 00 00 00 02 00 02 	div.d $f2,$f2,$f0
  408bc0:	42 00 00 00 00 02 12 03 	addu $2,$3,$18
  408bc8:	42 00 00 00 00 04 10 03 	addu $4,$3,$16
  408bd0:	37 00 00 00 00 00 02 02 	s.d $f2,0($2)
  408bd8:	2b 00 00 00 00 00 02 04 	l.d $f2,0($4)
  408be0:	2b 00 00 00 00 00 00 06 	l.d $f0,0($6)
  408be8:	77 00 00 00 00 02 00 02 	div.d $f2,$f2,$f0
  408bf0:	42 00 00 00 00 02 18 03 	addu $2,$3,$24
  408bf8:	37 00 00 00 00 00 02 02 	s.d $f2,0($2)
  408c00:	2b 00 00 00 00 00 02 05 	l.d $f2,0($5)
  408c08:	75 00 00 00 00 02 02 02 	mul.d $f2,$f2,$f2
  408c10:	2b 00 00 00 00 00 00 04 	l.d $f0,0($4)
  408c18:	75 00 00 00 00 00 00 00 	mul.d $f0,$f0,$f0
  408c20:	71 00 00 00 00 02 00 02 	add.d $f2,$f2,$f0
  408c28:	75 00 00 00 00 02 06 02 	mul.d $f2,$f2,$f6
  408c30:	2b 00 00 00 00 00 00 06 	l.d $f0,0($6)
  408c38:	77 00 00 00 00 02 00 02 	div.d $f2,$f2,$f0
  408c40:	42 00 00 00 00 02 0e 03 	addu $2,$3,$14
  408c48:	2b 00 00 00 00 00 00 02 	l.d $f0,0($2)
  408c50:	73 00 00 00 00 00 02 00 	sub.d $f0,$f0,$f2
  408c58:	75 00 00 00 00 00 00 04 	mul.d $f0,$f4,$f0
  408c60:	42 00 00 00 00 03 0f 03 	addu $3,$3,$15
  408c68:	37 00 00 00 00 00 00 03 	s.d $f0,0($3)
  408c70:	2b 00 00 00 00 00 02 0d 	l.d $f2,0($13)
  408c78:	93 00 00 00 00 00 02 00 	c.lt.d $f0,$f2
  408c80:	0b 00 00 00 02 00 00 00 	bc1f 408c90 <trans1_+0x238>
  408c88:	37 00 00 00 00 00 02 03 	s.d $f2,0($3)
  408c90:	43 00 00 00 01 00 07 07 	addiu $7,$7,1
  408c98:	5b 00 00 00 00 02 07 08 	slt $2,$8,$7
  408ca0:	05 00 00 00 b8 ff 00 02 	beq $2,$0,408b88 <trans1_+0x130>
  408ca8:	43 00 00 00 93 01 09 09 	addiu $9,$9,403
  408cb0:	43 00 00 00 01 00 0b 0b 	addiu $11,$11,1
  408cb8:	5b 00 00 00 00 02 0b 0a 	slt $2,$10,$11
  408cc0:	05 00 00 00 9e ff 00 02 	beq $2,$0,408b40 <trans1_+0xe8>
  408cc8:	a2 00 00 00 5f 10 02 00 	lui $2,4191
  408cd0:	43 00 00 00 8c 29 02 02 	addiu $2,$2,10636
  408cd8:	28 00 00 00 00 00 08 02 	lw $8,0($2)
  408ce0:	43 00 00 00 01 00 0b 00 	addiu $11,$0,1
  408ce8:	07 00 00 00 be 00 00 08 	blez $8,408fe8 <trans1_+0x590>
  408cf0:	43 00 00 00 f4 ff 0e 02 	addiu $14,$2,-12
  408cf8:	a2 00 00 00 57 10 0c 00 	lui $12,4183
  408d00:	43 00 00 00 78 0b 0c 0c 	addiu $12,$12,2936
  408d08:	a2 00 00 00 67 10 09 00 	lui $9,4199
  408d10:	43 00 00 00 98 4f 09 09 	addiu $9,$9,20376
  408d18:	a2 00 00 00 3f 10 06 00 	lui $6,4159
  408d20:	43 00 00 00 78 6e 06 06 	addiu $6,$6,28280
  408d28:	43 00 00 00 93 01 0d 00 	addiu $13,$0,403
  408d30:	28 00 00 00 00 00 0a 0e 	lw $10,0($14)
  408d38:	42 00 00 00 00 07 00 00 	addu $7,$0,$0
  408d40:	09 00 00 00 a0 00 00 0a 	bltz $10,408fc8 <trans1_+0x570>
  408d48:	42 00 00 00 00 05 0d 00 	addu $5,$0,$13
  408d50:	43 00 00 00 01 00 02 0a 	addiu $2,$10,1
  408d58:	4f 00 00 00 03 00 03 02 	andi $3,$2,3
  408d60:	5b 00 00 00 00 02 02 07 	slt $2,$7,$2
  408d68:	05 00 00 00 30 00 00 02 	beq $2,$0,408e30 <trans1_+0x3d8>
  408d70:	05 00 00 00 40 00 00 03 	beq $3,$0,408e78 <trans1_+0x420>
  408d78:	5c 00 00 00 02 00 02 03 	slti $2,$3,2
  408d80:	06 00 00 00 2a 00 00 02 	bne $2,$0,408e30 <trans1_+0x3d8>
  408d88:	5c 00 00 00 03 00 02 03 	slti $2,$3,3
  408d90:	06 00 00 00 12 00 00 02 	bne $2,$0,408de0 <trans1_+0x388>
  408d98:	55 00 00 00 03 02 0d 00 	sll $2,$13,0x3
  408da0:	42 00 00 00 00 03 09 02 	addu $3,$2,$9
  408da8:	42 00 00 00 00 04 06 02 	addu $4,$2,$6
  408db0:	2b 00 00 00 00 00 02 03 	l.d $f2,0($3)
  408db8:	2b 00 00 00 00 00 00 04 	l.d $f0,0($4)
  408dc0:	75 00 00 00 00 02 00 02 	mul.d $f2,$f2,$f0
  408dc8:	43 00 00 00 01 00 07 00 	addiu $7,$0,1
  408dd0:	42 00 00 00 00 02 0c 02 	addu $2,$2,$12
  408dd8:	37 00 00 00 00 00 02 02 	s.d $f2,0($2)
  408de0:	42 00 00 00 00 02 07 0d 	addu $2,$13,$7
  408de8:	55 00 00 00 03 02 02 00 	sll $2,$2,0x3
  408df0:	42 00 00 00 00 03 09 02 	addu $3,$2,$9
  408df8:	42 00 00 00 00 04 06 02 	addu $4,$2,$6
  408e00:	2b 00 00 00 00 00 02 03 	l.d $f2,0($3)
  408e08:	2b 00 00 00 00 00 00 04 	l.d $f0,0($4)
  408e10:	75 00 00 00 00 02 00 02 	mul.d $f2,$f2,$f0
  408e18:	43 00 00 00 01 00 07 07 	addiu $7,$7,1
  408e20:	42 00 00 00 00 02 0c 02 	addu $2,$2,$12
  408e28:	37 00 00 00 00 00 02 02 	s.d $f2,0($2)
  408e30:	42 00 00 00 00 02 07 05 	addu $2,$5,$7
  408e38:	55 00 00 00 03 02 02 00 	sll $2,$2,0x3
  408e40:	42 00 00 00 00 03 09 02 	addu $3,$2,$9
  408e48:	42 00 00 00 00 04 06 02 	addu $4,$2,$6
  408e50:	2b 00 00 00 00 00 02 03 	l.d $f2,0($3)
  408e58:	2b 00 00 00 00 00 00 04 	l.d $f0,0($4)
  408e60:	75 00 00 00 00 02 00 02 	mul.d $f2,$f2,$f0
  408e68:	43 00 00 00 01 00 07 07 	addiu $7,$7,1
  408e70:	01 00 00 00 ea 23 10 00 	j 408fa8 <trans1_+0x550>
  408e78:	42 00 00 00 00 02 07 05 	addu $2,$5,$7
  408e80:	55 00 00 00 03 02 02 00 	sll $2,$2,0x3
  408e88:	42 00 00 00 00 03 09 02 	addu $3,$2,$9
  408e90:	42 00 00 00 00 04 06 02 	addu $4,$2,$6
  408e98:	2b 00 00 00 00 00 02 03 	l.d $f2,0($3)
  408ea0:	2b 00 00 00 00 00 00 04 	l.d $f0,0($4)
  408ea8:	75 00 00 00 00 02 00 02 	mul.d $f2,$f2,$f0
  408eb0:	42 00 00 00 00 02 0c 02 	addu $2,$2,$12
  408eb8:	37 00 00 00 00 00 02 02 	s.d $f2,0($2)
  408ec0:	43 00 00 00 01 00 02 07 	addiu $2,$7,1
  408ec8:	42 00 00 00 00 02 02 05 	addu $2,$5,$2
  408ed0:	55 00 00 00 03 02 02 00 	sll $2,$2,0x3
  408ed8:	42 00 00 00 00 03 09 02 	addu $3,$2,$9
  408ee0:	42 00 00 00 00 04 06 02 	addu $4,$2,$6
  408ee8:	2b 00 00 00 00 00 02 03 	l.d $f2,0($3)
  408ef0:	2b 00 00 00 00 00 00 04 	l.d $f0,0($4)
  408ef8:	75 00 00 00 00 02 00 02 	mul.d $f2,$f2,$f0
  408f00:	42 00 00 00 00 02 0c 02 	addu $2,$2,$12
  408f08:	37 00 00 00 00 00 02 02 	s.d $f2,0($2)
  408f10:	43 00 00 00 02 00 02 07 	addiu $2,$7,2
  408f18:	42 00 00 00 00 02 02 05 	addu $2,$5,$2
  408f20:	55 00 00 00 03 02 02 00 	sll $2,$2,0x3
  408f28:	42 00 00 00 00 03 09 02 	addu $3,$2,$9
  408f30:	42 00 00 00 00 04 06 02 	addu $4,$2,$6
  408f38:	2b 00 00 00 00 00 02 03 	l.d $f2,0($3)
  408f40:	2b 00 00 00 00 00 00 04 	l.d $f0,0($4)
  408f48:	75 00 00 00 00 02 00 02 	mul.d $f2,$f2,$f0
  408f50:	42 00 00 00 00 02 0c 02 	addu $2,$2,$12
  408f58:	37 00 00 00 00 00 02 02 	s.d $f2,0($2)
  408f60:	43 00 00 00 03 00 02 07 	addiu $2,$7,3
  408f68:	42 00 00 00 00 02 02 05 	addu $2,$5,$2
  408f70:	55 00 00 00 03 02 02 00 	sll $2,$2,0x3
  408f78:	42 00 00 00 00 03 09 02 	addu $3,$2,$9
  408f80:	42 00 00 00 00 04 06 02 	addu $4,$2,$6
  408f88:	2b 00 00 00 00 00 02 03 	l.d $f2,0($3)
  408f90:	2b 00 00 00 00 00 00 04 	l.d $f0,0($4)
  408f98:	75 00 00 00 00 02 00 02 	mul.d $f2,$f2,$f0
  408fa0:	43 00 00 00 04 00 07 07 	addiu $7,$7,4
  408fa8:	42 00 00 00 00 02 0c 02 	addu $2,$2,$12
  408fb0:	5b 00 00 00 00 03 07 0a 	slt $3,$10,$7
  408fb8:	37 00 00 00 00 00 02 02 	s.d $f2,0($2)
  408fc0:	05 00 00 00 ac ff 00 03 	beq $3,$0,408e78 <trans1_+0x420>
  408fc8:	43 00 00 00 93 01 0d 0d 	addiu $13,$13,403
  408fd0:	43 00 00 00 01 00 0b 0b 	addiu $11,$11,1
  408fd8:	5b 00 00 00 00 02 0b 08 	slt $2,$8,$11
  408fe0:	05 00 00 00 52 ff 00 02 	beq $2,$0,408d30 <trans1_+0x2d8>
  408fe8:	a2 00 00 00 67 10 04 00 	lui $4,4199
  408ff0:	43 00 00 00 30 5c 04 04 	addiu $4,$4,23600
  408ff8:	a2 00 00 00 20 10 05 00 	lui $5,4128
  409000:	43 00 00 00 70 12 05 05 	addiu $5,$5,4720
  409008:	a2 00 00 00 57 10 10 00 	lui $16,4183
  409010:	43 00 00 00 10 18 10 10 	addiu $16,$16,6160
  409018:	42 00 00 00 00 06 10 00 	addu $6,$0,$16
  409020:	02 00 00 00 e2 2a 10 00 	jal 40ab88 <t1_>
  409028:	a2 00 00 00 5f 10 02 00 	lui $2,4191
  409030:	43 00 00 00 8c 29 02 02 	addiu $2,$2,10636
  409038:	28 00 00 00 00 00 0a 02 	lw $10,0($2)
  409040:	43 00 00 00 01 00 0b 00 	addiu $11,$0,1
  409048:	07 00 00 00 7e 00 00 0a 	blez $10,409248 <trans1_+0x7f0>
  409050:	43 00 00 00 f4 ff 0f 02 	addiu $15,$2,-12
  409058:	43 00 00 00 68 f3 06 10 	addiu $6,$16,-3224
  409060:	a2 00 00 00 6f 10 0e 00 	lui $14,4207
  409068:	43 00 00 00 98 2e 0e 0e 	addiu $14,$14,11928
  409070:	a2 00 00 00 4f 10 0d 00 	lui $13,4175
  409078:	43 00 00 00 78 2c 0d 0d 	addiu $13,$13,11384
  409080:	a2 00 00 00 3f 10 0c 00 	lui $12,4159
  409088:	43 00 00 00 78 6e 0c 0c 	addiu $12,$12,28280
  409090:	43 00 00 00 93 01 09 00 	addiu $9,$0,403
  409098:	28 00 00 00 00 00 08 0f 	lw $8,0($15)
  4090a0:	42 00 00 00 00 07 00 00 	addu $7,$0,$0
  4090a8:	09 00 00 00 5e 00 00 08 	bltz $8,409228 <trans1_+0x7d0>
  4090b0:	42 00 00 00 00 05 09 00 	addu $5,$0,$9
  4090b8:	43 00 00 00 01 00 02 08 	addiu $2,$8,1
  4090c0:	4f 00 00 00 01 00 03 02 	andi $3,$2,1
  4090c8:	5b 00 00 00 00 02 02 07 	slt $2,$7,$2
  4090d0:	05 00 00 00 02 00 00 02 	beq $2,$0,4090e0 <trans1_+0x688>
  4090d8:	05 00 00 00 1a 00 00 03 	beq $3,$0,409148 <trans1_+0x6f0>
  4090e0:	55 00 00 00 03 04 09 00 	sll $4,$9,0x3
  4090e8:	42 00 00 00 00 02 0e 04 	addu $2,$4,$14
  4090f0:	42 00 00 00 00 03 0d 04 	addu $3,$4,$13
  4090f8:	2b 00 00 00 00 00 02 02 	l.d $f2,0($2)
  409100:	2b 00 00 00 00 00 00 03 	l.d $f0,0($3)
  409108:	71 00 00 00 00 02 00 02 	add.d $f2,$f2,$f0
  409110:	42 00 00 00 00 02 0c 04 	addu $2,$4,$12
  409118:	2b 00 00 00 00 00 00 02 	l.d $f0,0($2)
  409120:	75 00 00 00 00 02 00 02 	mul.d $f2,$f2,$f0
  409128:	43 00 00 00 01 00 07 00 	addiu $7,$0,1
  409130:	42 00 00 00 00 04 06 04 	addu $4,$4,$6
  409138:	37 00 00 00 00 00 02 04 	s.d $f2,0($4)
  409140:	07 00 00 00 38 00 00 08 	blez $8,409228 <trans1_+0x7d0>
  409148:	42 00 00 00 00 02 07 05 	addu $2,$5,$7
  409150:	55 00 00 00 03 02 02 00 	sll $2,$2,0x3
  409158:	42 00 00 00 00 03 0e 02 	addu $3,$2,$14
  409160:	42 00 00 00 00 04 0d 02 	addu $4,$2,$13
  409168:	2b 00 00 00 00 00 02 03 	l.d $f2,0($3)
  409170:	2b 00 00 00 00 00 00 04 	l.d $f0,0($4)
  409178:	71 00 00 00 00 02 00 02 	add.d $f2,$f2,$f0
  409180:	42 00 00 00 00 03 0c 02 	addu $3,$2,$12
  409188:	2b 00 00 00 00 00 00 03 	l.d $f0,0($3)
  409190:	75 00 00 00 00 02 00 02 	mul.d $f2,$f2,$f0
  409198:	42 00 00 00 00 02 06 02 	addu $2,$2,$6
  4091a0:	37 00 00 00 00 00 02 02 	s.d $f2,0($2)
  4091a8:	43 00 00 00 01 00 02 07 	addiu $2,$7,1
  4091b0:	42 00 00 00 00 02 02 05 	addu $2,$5,$2
  4091b8:	55 00 00 00 03 02 02 00 	sll $2,$2,0x3
  4091c0:	42 00 00 00 00 03 0e 02 	addu $3,$2,$14
  4091c8:	42 00 00 00 00 04 0d 02 	addu $4,$2,$13
  4091d0:	2b 00 00 00 00 00 02 03 	l.d $f2,0($3)
  4091d8:	2b 00 00 00 00 00 00 04 	l.d $f0,0($4)
  4091e0:	71 00 00 00 00 02 00 02 	add.d $f2,$f2,$f0
  4091e8:	42 00 00 00 00 03 0c 02 	addu $3,$2,$12
  4091f0:	2b 00 00 00 00 00 00 03 	l.d $f0,0($3)
  4091f8:	75 00 00 00 00 02 00 02 	mul.d $f2,$f2,$f0
  409200:	43 00 00 00 02 00 07 07 	addiu $7,$7,2
  409208:	42 00 00 00 00 02 06 02 	addu $2,$2,$6
  409210:	37 00 00 00 00 00 02 02 	s.d $f2,0($2)
  409218:	5b 00 00 00 00 02 07 08 	slt $2,$8,$7
  409220:	05 00 00 00 c8 ff 00 02 	beq $2,$0,409148 <trans1_+0x6f0>
  409228:	43 00 00 00 93 01 09 09 	addiu $9,$9,403
  409230:	43 00 00 00 01 00 0b 0b 	addiu $11,$11,1
  409238:	5b 00 00 00 00 02 0b 0a 	slt $2,$10,$11
  409240:	05 00 00 00 94 ff 00 02 	beq $2,$0,409098 <trans1_+0x640>
  409248:	a2 00 00 00 6f 10 04 00 	lui $4,4207
  409250:	43 00 00 00 30 36 04 04 	addiu $4,$4,13872
  409258:	a2 00 00 00 28 10 05 00 	lui $5,4136
  409260:	43 00 00 00 70 ec 05 05 	addiu $5,$5,-5008
  409268:	a2 00 00 00 57 10 10 00 	lui $16,4183
  409270:	43 00 00 00 10 18 10 10 	addiu $16,$16,6160
  409278:	42 00 00 00 00 06 10 00 	addu $6,$0,$16
  409280:	02 00 00 00 e2 2a 10 00 	jal 40ab88 <t1_>
  409288:	a2 00 00 00 5f 10 02 00 	lui $2,4191
  409290:	43 00 00 00 8c 29 02 02 	addiu $2,$2,10636
  409298:	28 00 00 00 00 00 08 02 	lw $8,0($2)
  4092a0:	43 00 00 00 01 00 0b 00 	addiu $11,$0,1
  4092a8:	07 00 00 00 7e 00 00 08 	blez $8,4094a8 <trans1_+0xa50>
  4092b0:	43 00 00 00 f4 ff 0f 02 	addiu $15,$2,-12
  4092b8:	43 00 00 00 68 f3 06 10 	addiu $6,$16,-3224
  4092c0:	a2 00 00 00 77 10 0e 00 	lui $14,4215
  4092c8:	43 00 00 00 98 0d 0e 0e 	addiu $14,$14,3480
  4092d0:	a2 00 00 00 3f 10 0d 00 	lui $13,4159
  4092d8:	43 00 00 00 78 6e 0d 0d 	addiu $13,$13,28280
  4092e0:	a2 00 00 00 4f 10 0c 00 	lui $12,4175
  4092e8:	43 00 00 00 78 2c 0c 0c 	addiu $12,$12,11384
  4092f0:	43 00 00 00 93 01 09 00 	addiu $9,$0,403
  4092f8:	28 00 00 00 00 00 0a 0f 	lw $10,0($15)
  409300:	42 00 00 00 00 07 00 00 	addu $7,$0,$0
  409308:	09 00 00 00 5e 00 00 0a 	bltz $10,409488 <trans1_+0xa30>
  409310:	42 00 00 00 00 05 09 00 	addu $5,$0,$9
  409318:	43 00 00 00 01 00 02 0a 	addiu $2,$10,1
  409320:	4f 00 00 00 01 00 03 02 	andi $3,$2,1
  409328:	5b 00 00 00 00 02 02 07 	slt $2,$7,$2
  409330:	05 00 00 00 02 00 00 02 	beq $2,$0,409340 <trans1_+0x8e8>
  409338:	05 00 00 00 1a 00 00 03 	beq $3,$0,4093a8 <trans1_+0x950>
  409340:	55 00 00 00 03 04 09 00 	sll $4,$9,0x3
  409348:	42 00 00 00 00 02 0e 04 	addu $2,$4,$14
  409350:	42 00 00 00 00 03 0d 04 	addu $3,$4,$13
  409358:	2b 00 00 00 00 00 02 02 	l.d $f2,0($2)
  409360:	2b 00 00 00 00 00 00 03 	l.d $f0,0($3)
  409368:	75 00 00 00 00 02 00 02 	mul.d $f2,$f2,$f0
  409370:	42 00 00 00 00 02 0c 04 	addu $2,$4,$12
  409378:	2b 00 00 00 00 00 00 02 	l.d $f0,0($2)
  409380:	71 00 00 00 00 02 00 02 	add.d $f2,$f2,$f0
  409388:	43 00 00 00 01 00 07 00 	addiu $7,$0,1
  409390:	42 00 00 00 00 04 06 04 	addu $4,$4,$6
  409398:	37 00 00 00 00 00 02 04 	s.d $f2,0($4)
  4093a0:	07 00 00 00 38 00 00 0a 	blez $10,409488 <trans1_+0xa30>
  4093a8:	42 00 00 00 00 03 07 05 	addu $3,$5,$7
  4093b0:	55 00 00 00 03 03 03 00 	sll $3,$3,0x3
  4093b8:	42 00 00 00 00 02 0e 03 	addu $2,$3,$14
  4093c0:	42 00 00 00 00 04 0d 03 	addu $4,$3,$13
  4093c8:	2b 00 00 00 00 00 02 02 	l.d $f2,0($2)
  4093d0:	2b 00 00 00 00 00 00 04 	l.d $f0,0($4)
  4093d8:	75 00 00 00 00 02 00 02 	mul.d $f2,$f2,$f0
  4093e0:	42 00 00 00 00 02 0c 03 	addu $2,$3,$12
  4093e8:	2b 00 00 00 00 00 00 02 	l.d $f0,0($2)
  4093f0:	42 00 00 00 00 03 06 03 	addu $3,$3,$6
  4093f8:	43 00 00 00 01 00 02 07 	addiu $2,$7,1
  409400:	71 00 00 00 00 02 00 02 	add.d $f2,$f2,$f0
  409408:	42 00 00 00 00 02 02 05 	addu $2,$5,$2
  409410:	55 00 00 00 03 02 02 00 	sll $2,$2,0x3
  409418:	42 00 00 00 00 04 0d 02 	addu $4,$2,$13
  409420:	37 00 00 00 00 00 02 03 	s.d $f2,0($3)
  409428:	42 00 00 00 00 03 0e 02 	addu $3,$2,$14
  409430:	2b 00 00 00 00 00 02 03 	l.d $f2,0($3)
  409438:	2b 00 00 00 00 00 00 04 	l.d $f0,0($4)
  409440:	75 00 00 00 00 02 00 02 	mul.d $f2,$f2,$f0
  409448:	42 00 00 00 00 03 0c 02 	addu $3,$2,$12
  409450:	2b 00 00 00 00 00 00 03 	l.d $f0,0($3)
  409458:	71 00 00 00 00 02 00 02 	add.d $f2,$f2,$f0
  409460:	43 00 00 00 02 00 07 07 	addiu $7,$7,2
  409468:	42 00 00 00 00 02 06 02 	addu $2,$2,$6
  409470:	37 00 00 00 00 00 02 02 	s.d $f2,0($2)
  409478:	5b 00 00 00 00 02 07 0a 	slt $2,$10,$7
  409480:	05 00 00 00 c8 ff 00 02 	beq $2,$0,4093a8 <trans1_+0x950>
  409488:	43 00 00 00 93 01 09 09 	addiu $9,$9,403
  409490:	43 00 00 00 01 00 0b 0b 	addiu $11,$11,1
  409498:	5b 00 00 00 00 02 0b 08 	slt $2,$8,$11
  4094a0:	05 00 00 00 94 ff 00 02 	beq $2,$0,4092f8 <trans1_+0x8a0>
  4094a8:	a2 00 00 00 77 10 04 00 	lui $4,4215
  4094b0:	43 00 00 00 30 10 04 04 	addiu $4,$4,4144
  4094b8:	a2 00 00 00 30 10 05 00 	lui $5,4144
  4094c0:	43 00 00 00 70 c6 05 05 	addiu $5,$5,-14736
  4094c8:	a2 00 00 00 57 10 10 00 	lui $16,4183
  4094d0:	43 00 00 00 10 18 10 10 	addiu $16,$16,6160
  4094d8:	42 00 00 00 00 06 10 00 	addu $6,$0,$16
  4094e0:	02 00 00 00 e2 2a 10 00 	jal 40ab88 <t1_>
  4094e8:	a2 00 00 00 5f 10 02 00 	lui $2,4191
  4094f0:	43 00 00 00 8c 29 02 02 	addiu $2,$2,10636
  4094f8:	28 00 00 00 00 00 0a 02 	lw $10,0($2)
  409500:	43 00 00 00 01 00 0b 00 	addiu $11,$0,1
  409508:	07 00 00 00 bc 00 00 0a 	blez $10,409800 <trans1_+0xda8>
  409510:	43 00 00 00 f4 ff 0e 02 	addiu $14,$2,-12
  409518:	43 00 00 00 68 f3 06 10 	addiu $6,$16,-3224
  409520:	a2 00 00 00 7f 10 0c 00 	lui $12,4223
  409528:	43 00 00 00 98 ec 0c 0c 	addiu $12,$12,-4968
  409530:	a2 00 00 00 3f 10 09 00 	lui $9,4159
  409538:	43 00 00 00 78 6e 09 09 	addiu $9,$9,28280
  409540:	43 00 00 00 93 01 0d 00 	addiu $13,$0,403
  409548:	28 00 00 00 00 00 08 0e 	lw $8,0($14)
  409550:	42 00 00 00 00 07 00 00 	addu $7,$0,$0
  409558:	09 00 00 00 a0 00 00 08 	bltz $8,4097e0 <trans1_+0xd88>
  409560:	42 00 00 00 00 05 0d 00 	addu $5,$0,$13
  409568:	43 00 00 00 01 00 02 08 	addiu $2,$8,1
  409570:	4f 00 00 00 03 00 03 02 	andi $3,$2,3
  409578:	5b 00 00 00 00 02 02 07 	slt $2,$7,$2
  409580:	05 00 00 00 30 00 00 02 	beq $2,$0,409648 <trans1_+0xbf0>
  409588:	05 00 00 00 40 00 00 03 	beq $3,$0,409690 <trans1_+0xc38>
  409590:	5c 00 00 00 02 00 02 03 	slti $2,$3,2
  409598:	06 00 00 00 2a 00 00 02 	bne $2,$0,409648 <trans1_+0xbf0>
  4095a0:	5c 00 00 00 03 00 02 03 	slti $2,$3,3
  4095a8:	06 00 00 00 12 00 00 02 	bne $2,$0,4095f8 <trans1_+0xba0>
  4095b0:	55 00 00 00 03 02 0d 00 	sll $2,$13,0x3
  4095b8:	42 00 00 00 00 03 0c 02 	addu $3,$2,$12
  4095c0:	42 00 00 00 00 04 09 02 	addu $4,$2,$9
  4095c8:	2b 00 00 00 00 00 02 03 	l.d $f2,0($3)
  4095d0:	2b 00 00 00 00 00 00 04 	l.d $f0,0($4)
  4095d8:	75 00 00 00 00 02 00 02 	mul.d $f2,$f2,$f0
  4095e0:	43 00 00 00 01 00 07 00 	addiu $7,$0,1
  4095e8:	42 00 00 00 00 02 06 02 	addu $2,$2,$6
  4095f0:	37 00 00 00 00 00 02 02 	s.d $f2,0($2)
  4095f8:	42 00 00 00 00 02 07 0d 	addu $2,$13,$7
  409600:	55 00 00 00 03 02 02 00 	sll $2,$2,0x3
  409608:	42 00 00 00 00 03 0c 02 	addu $3,$2,$12
  409610:	42 00 00 00 00 04 09 02 	addu $4,$2,$9
  409618:	2b 00 00 00 00 00 02 03 	l.d $f2,0($3)
  409620:	2b 00 00 00 00 00 00 04 	l.d $f0,0($4)
  409628:	75 00 00 00 00 02 00 02 	mul.d $f2,$f2,$f0
  409630:	43 00 00 00 01 00 07 07 	addiu $7,$7,1
  409638:	42 00 00 00 00 02 06 02 	addu $2,$2,$6
  409640:	37 00 00 00 00 00 02 02 	s.d $f2,0($2)
  409648:	42 00 00 00 00 02 07 05 	addu $2,$5,$7
  409650:	55 00 00 00 03 02 02 00 	sll $2,$2,0x3
  409658:	42 00 00 00 00 03 0c 02 	addu $3,$2,$12
  409660:	42 00 00 00 00 04 09 02 	addu $4,$2,$9
  409668:	2b 00 00 00 00 00 02 03 	l.d $f2,0($3)
  409670:	2b 00 00 00 00 00 00 04 	l.d $f0,0($4)
  409678:	75 00 00 00 00 02 00 02 	mul.d $f2,$f2,$f0
  409680:	43 00 00 00 01 00 07 07 	addiu $7,$7,1
  409688:	01 00 00 00 f0 25 10 00 	j 4097c0 <trans1_+0xd68>
  409690:	42 00 00 00 00 02 07 05 	addu $2,$5,$7
  409698:	55 00 00 00 03 02 02 00 	sll $2,$2,0x3
  4096a0:	42 00 00 00 00 03 0c 02 	addu $3,$2,$12
  4096a8:	42 00 00 00 00 04 09 02 	addu $4,$2,$9
  4096b0:	2b 00 00 00 00 00 02 03 	l.d $f2,0($3)
  4096b8:	2b 00 00 00 00 00 00 04 	l.d $f0,0($4)
  4096c0:	75 00 00 00 00 02 00 02 	mul.d $f2,$f2,$f0
  4096c8:	42 00 00 00 00 02 06 02 	addu $2,$2,$6
  4096d0:	37 00 00 00 00 00 02 02 	s.d $f2,0($2)
  4096d8:	43 00 00 00 01 00 02 07 	addiu $2,$7,1
  4096e0:	42 00 00 00 00 02 02 05 	addu $2,$5,$2
  4096e8:	55 00 00 00 03 02 02 00 	sll $2,$2,0x3
  4096f0:	42 00 00 00 00 03 0c 02 	addu $3,$2,$12
  4096f8:	42 00 00 00 00 04 09 02 	addu $4,$2,$9
  409700:	2b 00 00 00 00 00 02 03 	l.d $f2,0($3)
  409708:	2b 00 00 00 00 00 00 04 	l.d $f0,0($4)
  409710:	75 00 00 00 00 02 00 02 	mul.d $f2,$f2,$f0
  409718:	42 00 00 00 00 02 06 02 	addu $2,$2,$6
  409720:	37 00 00 00 00 00 02 02 	s.d $f2,0($2)
  409728:	43 00 00 00 02 00 02 07 	addiu $2,$7,2
  409730:	42 00 00 00 00 02 02 05 	addu $2,$5,$2
  409738:	55 00 00 00 03 02 02 00 	sll $2,$2,0x3
  409740:	42 00 00 00 00 03 0c 02 	addu $3,$2,$12
  409748:	42 00 00 00 00 04 09 02 	addu $4,$2,$9
  409750:	2b 00 00 00 00 00 02 03 	l.d $f2,0($3)
  409758:	2b 00 00 00 00 00 00 04 	l.d $f0,0($4)
  409760:	75 00 00 00 00 02 00 02 	mul.d $f2,$f2,$f0
  409768:	42 00 00 00 00 02 06 02 	addu $2,$2,$6
  409770:	37 00 00 00 00 00 02 02 	s.d $f2,0($2)
  409778:	43 00 00 00 03 00 02 07 	addiu $2,$7,3
  409780:	42 00 00 00 00 02 02 05 	addu $2,$5,$2
  409788:	55 00 00 00 03 02 02 00 	sll $2,$2,0x3
  409790:	42 00 00 00 00 03 0c 02 	addu $3,$2,$12
  409798:	42 00 00 00 00 04 09 02 	addu $4,$2,$9
  4097a0:	2b 00 00 00 00 00 02 03 	l.d $f2,0($3)
  4097a8:	2b 00 00 00 00 00 00 04 	l.d $f0,0($4)
  4097b0:	75 00 00 00 00 02 00 02 	mul.d $f2,$f2,$f0
  4097b8:	43 00 00 00 04 00 07 07 	addiu $7,$7,4
  4097c0:	42 00 00 00 00 02 06 02 	addu $2,$2,$6
  4097c8:	5b 00 00 00 00 03 07 08 	slt $3,$8,$7
  4097d0:	37 00 00 00 00 00 02 02 	s.d $f2,0($2)
  4097d8:	05 00 00 00 ac ff 00 03 	beq $3,$0,409690 <trans1_+0xc38>
  4097e0:	43 00 00 00 93 01 0d 0d 	addiu $13,$13,403
  4097e8:	43 00 00 00 01 00 0b 0b 	addiu $11,$11,1
  4097f0:	5b 00 00 00 00 02 0b 0a 	slt $2,$10,$11
  4097f8:	05 00 00 00 52 ff 00 02 	beq $2,$0,409548 <trans1_+0xaf0>
  409800:	a2 00 00 00 7f 10 04 00 	lui $4,4223
  409808:	43 00 00 00 30 ea 04 04 	addiu $4,$4,-5584
  409810:	a2 00 00 00 38 10 05 00 	lui $5,4152
  409818:	43 00 00 00 70 a0 05 05 	addiu $5,$5,-24464
  409820:	a2 00 00 00 57 10 06 00 	lui $6,4183
  409828:	43 00 00 00 10 18 06 06 	addiu $6,$6,6160
  409830:	02 00 00 00 e2 2a 10 00 	jal 40ab88 <t1_>
  409838:	42 00 00 00 00 02 00 00 	addu $2,$0,$0
  409840:	28 00 00 00 20 00 1f 1d 	lw $31,32($29)
  409848:	28 00 00 00 1c 00 13 1d 	lw $19,28($29)
  409850:	28 00 00 00 18 00 12 1d 	lw $18,24($29)
  409858:	28 00 00 00 14 00 11 1d 	lw $17,20($29)
  409860:	28 00 00 00 10 00 10 1d 	lw $16,16($29)
  409868:	43 00 00 00 28 00 1d 1d 	addiu $29,$29,40
  409870:	03 00 00 00 00 00 00 1f 	jr $31

00409878 <trans2_>:
  409878:	a2 00 00 00 5f 10 01 00 	lui $1,4191
  409880:	2b 00 00 00 b0 29 02 01 	l.d $f2,10672($1)
  409888:	2b 00 00 00 a0 81 00 1c 	l.d $f0,-32352($28)
  409890:	43 00 00 00 e8 ff 1d 1d 	addiu $29,$29,-24
  409898:	a2 00 00 00 5f 10 09 00 	lui $9,4191
  4098a0:	28 00 00 00 8c 29 09 09 	lw $9,10636($9)
  4098a8:	73 00 00 00 00 04 00 02 	sub.d $f4,$f2,$f0
  4098b0:	42 00 00 00 00 0c 00 00 	addu $12,$0,$0
  4098b8:	34 00 00 00 14 00 1f 1d 	sw $31,20($29)
  4098c0:	34 00 00 00 10 00 10 1d 	sw $16,16($29)
  4098c8:	09 00 00 00 f2 00 00 09 	bltz $9,409c98 <trans2_+0x420>
