
/export/capc5/SPEC_TRACE/SimpleScalar/bin/li.ss:     file format ss-coff-little

Disassembly of section .text:

00400140 <__start>:
  400140:	28 00 00 00 00 00 10 1d 	lw $16,0($29)
  400148:	a2 00 00 00 01 10 1c 00 	lui $28,4097
  400150:	43 00 00 00 40 b9 1c 1c 	addiu $28,$28,-18112
  400158:	43 00 00 00 04 00 11 1d 	addiu $17,$29,4
  400160:	43 00 00 00 04 00 03 11 	addiu $3,$17,4
  400168:	55 00 00 00 02 02 10 00 	sll $2,$16,0x2
  400170:	42 00 00 00 00 03 02 03 	addu $3,$3,$2
  400178:	42 00 00 00 00 12 03 00 	addu $18,$0,$3
  400180:	34 00 00 00 34 90 12 1c 	sw $18,-28620($28)
  400188:	43 00 00 00 e8 ff 1d 1d 	addiu $29,$29,-24
  400190:	42 00 00 00 00 04 10 00 	addu $4,$0,$16
  400198:	42 00 00 00 00 05 11 00 	addu $5,$0,$17
  4001a0:	42 00 00 00 00 06 12 00 	addu $6,$0,$18
  4001a8:	02 00 00 00 d0 5b 10 00 	jal 416f40 <__libc_init>
  4001b0:	34 00 00 00 30 90 00 1c 	sw $0,-28624($28)
  4001b8:	42 00 00 00 00 04 10 00 	addu $4,$0,$16
  4001c0:	42 00 00 00 00 05 11 00 	addu $5,$0,$17
  4001c8:	42 00 00 00 00 06 12 00 	addu $6,$0,$18
  4001d0:	02 00 00 00 80 26 10 00 	jal 409a00 <main>
  4001d8:	42 00 00 00 00 04 02 00 	addu $4,$0,$2
  4001e0:	02 00 00 00 dc 5b 10 00 	jal 416f70 <exit>
	...

004001f0 <osinit>:
  4001f0:	43 00 00 00 e8 ff 1d 1d 	addiu $29,$29,-24
  4001f8:	34 00 00 00 10 00 1f 1d 	sw $31,16($29)
  400200:	42 00 00 00 00 05 04 00 	addu $5,$0,$4
  400208:	43 00 00 00 00 80 04 1c 	addiu $4,$28,-32768
  400210:	02 00 00 00 54 5c 10 00 	jal 417150 <printf>
  400218:	28 00 00 00 10 00 1f 1d 	lw $31,16($29)
  400220:	43 00 00 00 18 00 1d 1d 	addiu $29,$29,24
  400228:	03 00 00 00 00 00 00 1f 	jr $31

00400230 <osrand>:
  400230:	43 00 00 00 e8 ff 1d 1d 	addiu $29,$29,-24
  400238:	34 00 00 00 10 00 10 1d 	sw $16,16($29)
  400240:	42 00 00 00 00 10 04 00 	addu $16,$0,$4
  400248:	34 00 00 00 14 00 1f 1d 	sw $31,20($29)
  400250:	02 00 00 00 70 5c 10 00 	jal 4171c0 <rand>
  400258:	2b 00 00 00 08 80 02 1c 	l.d $f2,-32760($28)
  400260:	a5 00 00 00 00 00 02 00 	mtc1 $2,$f0
  400268:	83 00 00 00 00 00 00 00 	cvt.d.w $f0,$f0
  400270:	77 00 00 00 00 00 02 00 	div.d $f0,$f0,$f2
  400278:	a5 00 00 00 00 00 10 02 	mtc1 $16,$f2
  400280:	83 00 00 00 00 02 00 02 	cvt.d.w $f2,$f2
  400288:	75 00 00 00 00 00 02 00 	mul.d $f0,$f0,$f2
  400290:	85 00 00 00 00 02 00 00 	cvt.w.d $f2,$f0
  400298:	a3 00 00 00 00 00 02 02 	mfc1 $2,$f2
  4002a0:	28 00 00 00 14 00 1f 1d 	lw $31,20($29)
  4002a8:	28 00 00 00 10 00 10 1d 	lw $16,16($29)
  4002b0:	43 00 00 00 18 00 1d 1d 	addiu $29,$29,24
  4002b8:	03 00 00 00 00 00 00 1f 	jr $31

004002c0 <osgetc>:
  4002c0:	43 00 00 00 e8 ff 1d 1d 	addiu $29,$29,-24
  4002c8:	34 00 00 00 10 00 1f 1d 	sw $31,16($29)
  4002d0:	28 00 00 00 04 00 03 04 	lw $3,4($4)
  4002d8:	28 00 00 00 08 00 02 04 	lw $2,8($4)
  4002e0:	5d 00 00 00 00 02 02 03 	sltu $2,$3,$2
  4002e8:	06 00 00 00 04 00 00 02 	bne $2,$0,400300 <osgetc+0x40>
  4002f0:	02 00 00 00 da 61 10 00 	jal 418768 <__fillbf>
  4002f8:	01 00 00 00 c6 00 10 00 	j 400318 <osgetc+0x58>
  400300:	43 00 00 00 01 00 02 03 	addiu $2,$3,1
  400308:	34 00 00 00 04 00 02 04 	sw $2,4($4)
  400310:	22 00 00 00 00 00 02 03 	lbu $2,0($3)
  400318:	28 00 00 00 10 00 1f 1d 	lw $31,16($29)
  400320:	43 00 00 00 18 00 1d 1d 	addiu $29,$29,24
  400328:	03 00 00 00 00 00 00 1f 	jr $31

00400330 <osputc>:
  400330:	43 00 00 00 e8 ff 1d 1d 	addiu $29,$29,-24
  400338:	42 00 00 00 00 06 04 00 	addu $6,$0,$4
  400340:	42 00 00 00 00 04 05 00 	addu $4,$0,$5
  400348:	34 00 00 00 10 00 1f 1d 	sw $31,16($29)
  400350:	28 00 00 00 04 00 03 04 	lw $3,4($4)
  400358:	28 00 00 00 0c 00 02 04 	lw $2,12($4)
  400360:	5d 00 00 00 00 02 02 03 	sltu $2,$3,$2
  400368:	05 00 00 00 08 00 00 02 	beq $2,$0,400390 <osputc+0x60>
  400370:	43 00 00 00 01 00 02 03 	addiu $2,$3,1
  400378:	34 00 00 00 04 00 02 04 	sw $2,4($4)
  400380:	30 00 00 00 00 00 06 03 	sb $6,0($3)
  400388:	01 00 00 00 e8 00 10 00 	j 4003a0 <osputc+0x70>
  400390:	4f 00 00 00 ff 00 05 06 	andi $5,$6,255
  400398:	02 00 00 00 8c 60 10 00 	jal 418230 <__flshfp>
  4003a0:	28 00 00 00 10 00 1f 1d 	lw $31,16($29)
  4003a8:	43 00 00 00 18 00 1d 1d 	addiu $29,$29,24
  4003b0:	03 00 00 00 00 00 00 1f 	jr $31

004003b8 <oscheck>:
  4003b8:	03 00 00 00 00 00 00 1f 	jr $31

004003c0 <osfinit>:
  4003c0:	03 00 00 00 00 00 00 1f 	jr $31

004003c8 <osfinish>:
  4003c8:	03 00 00 00 00 00 00 1f 	jr $31

004003d0 <xeval>:
  4003d0:	43 00 00 00 e0 ff 1d 1d 	addiu $29,$29,-32
  4003d8:	34 00 00 00 20 00 04 1d 	sw $4,32($29)
  4003e0:	43 00 00 00 10 00 04 1d 	addiu $4,$29,16
  4003e8:	42 00 00 00 00 05 00 00 	addu $5,$0,$0
  4003f0:	34 00 00 00 1c 00 1f 1d 	sw $31,28($29)
  4003f8:	34 00 00 00 18 00 10 1d 	sw $16,24($29)
  400400:	02 00 00 00 bc 1f 10 00 	jal 407ef0 <xlsave>
  400408:	43 00 00 00 20 00 04 1d 	addiu $4,$29,32
  400410:	42 00 00 00 00 10 02 00 	addu $16,$0,$2
  400418:	02 00 00 00 4e 53 10 00 	jal 414d38 <xlarg>
  400420:	34 00 00 00 10 00 02 1d 	sw $2,16($29)
  400428:	28 00 00 00 20 00 04 1d 	lw $4,32($29)
  400430:	02 00 00 00 14 55 10 00 	jal 415450 <xllastarg>
  400438:	28 00 00 00 10 00 04 1d 	lw $4,16($29)
  400440:	02 00 00 00 64 1a 10 00 	jal 406990 <xleval>
  400448:	34 00 00 00 54 85 10 1c 	sw $16,-31404($28)
  400450:	28 00 00 00 1c 00 1f 1d 	lw $31,28($29)
  400458:	28 00 00 00 18 00 10 1d 	lw $16,24($29)
  400460:	43 00 00 00 20 00 1d 1d 	addiu $29,$29,32
  400468:	03 00 00 00 00 00 00 1f 	jr $31

00400470 <xapply>:
  400470:	43 00 00 00 e0 ff 1d 1d 	addiu $29,$29,-32
  400478:	34 00 00 00 20 00 04 1d 	sw $4,32($29)
  400480:	43 00 00 00 10 00 04 1d 	addiu $4,$29,16
  400488:	43 00 00 00 14 00 05 1d 	addiu $5,$29,20
  400490:	42 00 00 00 00 06 00 00 	addu $6,$0,$0
  400498:	34 00 00 00 1c 00 1f 1d 	sw $31,28($29)
  4004a0:	34 00 00 00 18 00 10 1d 	sw $16,24($29)
  4004a8:	02 00 00 00 bc 1f 10 00 	jal 407ef0 <xlsave>
  4004b0:	43 00 00 00 20 00 04 1d 	addiu $4,$29,32
  4004b8:	42 00 00 00 00 10 02 00 	addu $16,$0,$2
  4004c0:	02 00 00 00 4e 53 10 00 	jal 414d38 <xlarg>
  4004c8:	43 00 00 00 03 00 04 00 	addiu $4,$0,3
  4004d0:	43 00 00 00 20 00 05 1d 	addiu $5,$29,32
  4004d8:	34 00 00 00 10 00 02 1d 	sw $2,16($29)
  4004e0:	02 00 00 00 76 53 10 00 	jal 414dd8 <xlmatch>
  4004e8:	34 00 00 00 14 00 02 1d 	sw $2,20($29)
  4004f0:	28 00 00 00 20 00 04 1d 	lw $4,32($29)
  4004f8:	02 00 00 00 14 55 10 00 	jal 415450 <xllastarg>
  400500:	28 00 00 00 10 00 04 1d 	lw $4,16($29)
  400508:	05 00 00 00 0a 00 00 04 	beq $4,$0,400538 <xapply+0xc8>
  400510:	20 00 00 00 00 00 03 04 	lb $3,0($4)
  400518:	43 00 00 00 04 00 02 00 	addiu $2,$0,4
  400520:	06 00 00 00 04 00 02 03 	bne $3,$2,400538 <xapply+0xc8>
  400528:	02 00 00 00 64 1a 10 00 	jal 406990 <xleval>
  400530:	34 00 00 00 10 00 02 1d 	sw $2,16($29)
  400538:	28 00 00 00 10 00 04 1d 	lw $4,16($29)
  400540:	28 00 00 00 14 00 05 1d 	lw $5,20($29)
  400548:	02 00 00 00 e0 1a 10 00 	jal 406b80 <xlapply>
  400550:	34 00 00 00 54 85 10 1c 	sw $16,-31404($28)
  400558:	28 00 00 00 1c 00 1f 1d 	lw $31,28($29)
  400560:	28 00 00 00 18 00 10 1d 	lw $16,24($29)
  400568:	43 00 00 00 20 00 1d 1d 	addiu $29,$29,32
  400570:	03 00 00 00 00 00 00 1f 	jr $31

00400578 <xfuncall>:
  400578:	43 00 00 00 e0 ff 1d 1d 	addiu $29,$29,-32
  400580:	34 00 00 00 20 00 04 1d 	sw $4,32($29)
  400588:	43 00 00 00 10 00 04 1d 	addiu $4,$29,16
  400590:	43 00 00 00 14 00 05 1d 	addiu $5,$29,20
  400598:	42 00 00 00 00 06 00 00 	addu $6,$0,$0
  4005a0:	34 00 00 00 1c 00 1f 1d 	sw $31,28($29)
  4005a8:	34 00 00 00 18 00 10 1d 	sw $16,24($29)
  4005b0:	02 00 00 00 bc 1f 10 00 	jal 407ef0 <xlsave>
  4005b8:	43 00 00 00 20 00 04 1d 	addiu $4,$29,32
  4005c0:	42 00 00 00 00 10 02 00 	addu $16,$0,$2
  4005c8:	02 00 00 00 4e 53 10 00 	jal 414d38 <xlarg>
  4005d0:	42 00 00 00 00 04 02 00 	addu $4,$0,$2
  4005d8:	34 00 00 00 10 00 04 1d 	sw $4,16($29)
  4005e0:	28 00 00 00 20 00 02 1d 	lw $2,32($29)
  4005e8:	34 00 00 00 14 00 02 1d 	sw $2,20($29)
  4005f0:	05 00 00 00 0a 00 00 04 	beq $4,$0,400620 <xfuncall+0xa8>
  4005f8:	20 00 00 00 00 00 03 04 	lb $3,0($4)
  400600:	43 00 00 00 04 00 02 00 	addiu $2,$0,4
  400608:	06 00 00 00 04 00 02 03 	bne $3,$2,400620 <xfuncall+0xa8>
  400610:	02 00 00 00 64 1a 10 00 	jal 406990 <xleval>
  400618:	34 00 00 00 10 00 02 1d 	sw $2,16($29)
  400620:	28 00 00 00 10 00 04 1d 	lw $4,16($29)
  400628:	28 00 00 00 14 00 05 1d 	lw $5,20($29)
  400630:	02 00 00 00 e0 1a 10 00 	jal 406b80 <xlapply>
  400638:	34 00 00 00 54 85 10 1c 	sw $16,-31404($28)
  400640:	28 00 00 00 1c 00 1f 1d 	lw $31,28($29)
  400648:	28 00 00 00 18 00 10 1d 	lw $16,24($29)
  400650:	43 00 00 00 20 00 1d 1d 	addiu $29,$29,32
  400658:	03 00 00 00 00 00 00 1f 	jr $31

00400660 <xquote>:
  400660:	43 00 00 00 e8 ff 1d 1d 	addiu $29,$29,-24
  400668:	34 00 00 00 18 00 04 1d 	sw $4,24($29)
  400670:	43 00 00 00 18 00 04 1d 	addiu $4,$29,24
  400678:	34 00 00 00 14 00 1f 1d 	sw $31,20($29)
  400680:	34 00 00 00 10 00 10 1d 	sw $16,16($29)
  400688:	02 00 00 00 4e 53 10 00 	jal 414d38 <xlarg>
  400690:	28 00 00 00 18 00 04 1d 	lw $4,24($29)
  400698:	42 00 00 00 00 10 02 00 	addu $16,$0,$2
  4006a0:	02 00 00 00 14 55 10 00 	jal 415450 <xllastarg>
  4006a8:	42 00 00 00 00 02 10 00 	addu $2,$0,$16
  4006b0:	28 00 00 00 14 00 1f 1d 	lw $31,20($29)
  4006b8:	28 00 00 00 10 00 10 1d 	lw $16,16($29)
  4006c0:	43 00 00 00 18 00 1d 1d 	addiu $29,$29,24
  4006c8:	03 00 00 00 00 00 00 1f 	jr $31

004006d0 <xfunction>:
  4006d0:	43 00 00 00 e8 ff 1d 1d 	addiu $29,$29,-24
  4006d8:	34 00 00 00 18 00 04 1d 	sw $4,24($29)
  4006e0:	43 00 00 00 18 00 04 1d 	addiu $4,$29,24
  4006e8:	34 00 00 00 14 00 1f 1d 	sw $31,20($29)
  4006f0:	34 00 00 00 10 00 10 1d 	sw $16,16($29)
  4006f8:	02 00 00 00 4e 53 10 00 	jal 414d38 <xlarg>
  400700:	28 00 00 00 18 00 04 1d 	lw $4,24($29)
  400708:	42 00 00 00 00 10 02 00 	addu $16,$0,$2
  400710:	02 00 00 00 14 55 10 00 	jal 415450 <xllastarg>
  400718:	05 00 00 00 26 00 00 10 	beq $16,$0,4007b8 <xfunction+0xe8>
  400720:	20 00 00 00 00 00 03 10 	lb $3,0($16)
  400728:	43 00 00 00 03 00 02 00 	addiu $2,$0,3
  400730:	06 00 00 00 10 00 02 03 	bne $3,$2,400778 <xfunction+0xa8>
  400738:	28 00 00 00 04 00 03 10 	lw $3,4($16)
  400740:	28 00 00 00 c4 84 02 1c 	lw $2,-31548($28)
  400748:	06 00 00 00 0a 00 02 03 	bne $3,$2,400778 <xfunction+0xa8>
  400750:	28 00 00 00 60 85 05 1c 	lw $5,-31392($28)
  400758:	42 00 00 00 00 04 10 00 	addu $4,$0,$16
  400760:	02 00 00 00 fc 13 10 00 	jal 404ff0 <cons>
  400768:	42 00 00 00 00 10 02 00 	addu $16,$0,$2
  400770:	01 00 00 00 f6 01 10 00 	j 4007d8 <xfunction+0x108>
  400778:	05 00 00 00 0e 00 00 10 	beq $16,$0,4007b8 <xfunction+0xe8>
  400780:	20 00 00 00 00 00 03 10 	lb $3,0($16)
  400788:	43 00 00 00 04 00 02 00 	addiu $2,$0,4
  400790:	06 00 00 00 08 00 02 03 	bne $3,$2,4007b8 <xfunction+0xe8>
  400798:	42 00 00 00 00 04 10 00 	addu $4,$0,$16
  4007a0:	02 00 00 00 94 57 10 00 	jal 415e50 <xlgetvalue>
  4007a8:	42 00 00 00 00 10 02 00 	addu $16,$0,$2
  4007b0:	01 00 00 00 f6 01 10 00 	j 4007d8 <xfunction+0x108>
  4007b8:	a2 00 00 00 00 10 04 00 	lui $4,4096
  4007c0:	43 00 00 00 00 00 04 04 	addiu $4,$4,0
  4007c8:	42 00 00 00 00 05 10 00 	addu $5,$0,$16
  4007d0:	02 00 00 00 d2 11 10 00 	jal 404748 <xlerror>
  4007d8:	42 00 00 00 00 02 10 00 	addu $2,$0,$16
  4007e0:	28 00 00 00 14 00 1f 1d 	lw $31,20($29)
  4007e8:	28 00 00 00 10 00 10 1d 	lw $16,16($29)
  4007f0:	43 00 00 00 18 00 1d 1d 	addiu $29,$29,24
  4007f8:	03 00 00 00 00 00 00 1f 	jr $31

00400800 <xlambda>:
  400800:	43 00 00 00 e0 ff 1d 1d 	addiu $29,$29,-32
  400808:	34 00 00 00 20 00 04 1d 	sw $4,32($29)
  400810:	43 00 00 00 10 00 04 1d 	addiu $4,$29,16
  400818:	43 00 00 00 14 00 05 1d 	addiu $5,$29,20
  400820:	42 00 00 00 00 06 00 00 	addu $6,$0,$0
  400828:	34 00 00 00 1c 00 1f 1d 	sw $31,28($29)
  400830:	34 00 00 00 18 00 10 1d 	sw $16,24($29)
  400838:	02 00 00 00 bc 1f 10 00 	jal 407ef0 <xlsave>
  400840:	43 00 00 00 03 00 04 00 	addiu $4,$0,3
  400848:	43 00 00 00 20 00 05 1d 	addiu $5,$29,32
  400850:	42 00 00 00 00 10 02 00 	addu $16,$0,$2
  400858:	02 00 00 00 76 53 10 00 	jal 414dd8 <xlmatch>
  400860:	34 00 00 00 10 00 02 1d 	sw $2,16($29)
  400868:	28 00 00 00 20 00 05 1d 	lw $5,32($29)
  400870:	42 00 00 00 00 04 02 00 	addu $4,$0,$2
  400878:	02 00 00 00 fc 13 10 00 	jal 404ff0 <cons>
  400880:	28 00 00 00 c4 84 04 1c 	lw $4,-31548($28)
  400888:	42 00 00 00 00 05 02 00 	addu $5,$0,$2
  400890:	34 00 00 00 14 00 05 1d 	sw $5,20($29)
  400898:	02 00 00 00 fc 13 10 00 	jal 404ff0 <cons>
  4008a0:	28 00 00 00 60 85 05 1c 	lw $5,-31392($28)
  4008a8:	42 00 00 00 00 04 02 00 	addu $4,$0,$2
  4008b0:	34 00 00 00 14 00 04 1d 	sw $4,20($29)
  4008b8:	02 00 00 00 fc 13 10 00 	jal 404ff0 <cons>
  4008c0:	34 00 00 00 14 00 02 1d 	sw $2,20($29)
  4008c8:	34 00 00 00 54 85 10 1c 	sw $16,-31404($28)
  4008d0:	28 00 00 00 1c 00 1f 1d 	lw $31,28($29)
  4008d8:	28 00 00 00 18 00 10 1d 	lw $16,24($29)
  4008e0:	43 00 00 00 20 00 1d 1d 	addiu $29,$29,32
  4008e8:	03 00 00 00 00 00 00 1f 	jr $31

004008f0 <xbquote>:
  4008f0:	43 00 00 00 e0 ff 1d 1d 	addiu $29,$29,-32
  4008f8:	34 00 00 00 20 00 04 1d 	sw $4,32($29)
  400900:	43 00 00 00 10 00 04 1d 	addiu $4,$29,16
  400908:	42 00 00 00 00 05 00 00 	addu $5,$0,$0
  400910:	34 00 00 00 1c 00 1f 1d 	sw $31,28($29)
  400918:	34 00 00 00 18 00 10 1d 	sw $16,24($29)
  400920:	02 00 00 00 bc 1f 10 00 	jal 407ef0 <xlsave>
  400928:	43 00 00 00 20 00 04 1d 	addiu $4,$29,32
  400930:	42 00 00 00 00 10 02 00 	addu $16,$0,$2
  400938:	02 00 00 00 4e 53 10 00 	jal 414d38 <xlarg>
  400940:	34 00 00 00 10 00 02 1d 	sw $2,16($29)
  400948:	28 00 00 00 20 00 04 1d 	lw $4,32($29)
  400950:	02 00 00 00 14 55 10 00 	jal 415450 <xllastarg>
  400958:	28 00 00 00 10 00 04 1d 	lw $4,16($29)
  400960:	02 00 00 00 64 02 10 00 	jal 400990 <bquote1>
  400968:	34 00 00 00 54 85 10 1c 	sw $16,-31404($28)
  400970:	28 00 00 00 1c 00 1f 1d 	lw $31,28($29)
  400978:	28 00 00 00 18 00 10 1d 	lw $16,24($29)
  400980:	43 00 00 00 20 00 1d 1d 	addiu $29,$29,32
  400988:	03 00 00 00 00 00 00 1f 	jr $31

00400990 <bquote1>:
  400990:	43 00 00 00 d0 ff 1d 1d 	addiu $29,$29,-48
  400998:	34 00 00 00 1c 00 11 1d 	sw $17,28($29)
  4009a0:	42 00 00 00 00 11 04 00 	addu $17,$0,$4
  4009a8:	34 00 00 00 28 00 1f 1d 	sw $31,40($29)
  4009b0:	34 00 00 00 24 00 13 1d 	sw $19,36($29)
  4009b8:	34 00 00 00 20 00 12 1d 	sw $18,32($29)
  4009c0:	34 00 00 00 18 00 10 1d 	sw $16,24($29)
  4009c8:	05 00 00 00 06 00 00 11 	beq $17,$0,4009e8 <bquote1+0x58>
  4009d0:	20 00 00 00 00 00 04 11 	lb $4,0($17)
  4009d8:	43 00 00 00 03 00 02 00 	addiu $2,$0,3
  4009e0:	05 00 00 00 04 00 02 04 	beq $4,$2,4009f8 <bquote1+0x68>
  4009e8:	34 00 00 00 14 00 11 1d 	sw $17,20($29)
  4009f0:	01 00 00 00 24 03 10 00 	j 400c90 <bquote1+0x300>
  4009f8:	28 00 00 00 04 00 03 11 	lw $3,4($17)
  400a00:	28 00 00 00 b4 84 02 1c 	lw $2,-31564($28)
  400a08:	06 00 00 00 18 00 02 03 	bne $3,$2,400a70 <bquote1+0xe0>
  400a10:	28 00 00 00 08 00 02 11 	lw $2,8($17)
  400a18:	05 00 00 00 04 00 00 02 	beq $2,$0,400a30 <bquote1+0xa0>
  400a20:	20 00 00 00 00 00 02 02 	lb $2,0($2)
  400a28:	05 00 00 00 06 00 04 02 	beq $2,$4,400a48 <bquote1+0xb8>
  400a30:	a2 00 00 00 00 10 04 00 	lui $4,4096
  400a38:	43 00 00 00 10 00 04 04 	addiu $4,$4,16
  400a40:	02 00 00 00 8c 11 10 00 	jal 404630 <xlfail>
  400a48:	28 00 00 00 08 00 02 11 	lw $2,8($17)
  400a50:	28 00 00 00 04 00 04 02 	lw $4,4($2)
  400a58:	02 00 00 00 64 1a 10 00 	jal 406990 <xleval>
  400a60:	34 00 00 00 14 00 02 1d 	sw $2,20($29)
  400a68:	01 00 00 00 24 03 10 00 	j 400c90 <bquote1+0x300>
  400a70:	05 00 00 00 66 00 00 03 	beq $3,$0,400c10 <bquote1+0x280>
  400a78:	20 00 00 00 00 00 10 03 	lb $16,0($3)
  400a80:	06 00 00 00 62 00 04 10 	bne $16,$4,400c10 <bquote1+0x280>
  400a88:	28 00 00 00 04 00 03 03 	lw $3,4($3)
  400a90:	28 00 00 00 b8 84 02 1c 	lw $2,-31560($28)
  400a98:	06 00 00 00 5c 00 02 03 	bne $3,$2,400c10 <bquote1+0x280>
  400aa0:	43 00 00 00 10 00 04 1d 	addiu $4,$29,16
  400aa8:	43 00 00 00 14 00 05 1d 	addiu $5,$29,20
  400ab0:	42 00 00 00 00 06 00 00 	addu $6,$0,$0
  400ab8:	02 00 00 00 bc 1f 10 00 	jal 407ef0 <xlsave>
  400ac0:	28 00 00 00 04 00 03 11 	lw $3,4($17)
  400ac8:	28 00 00 00 08 00 03 03 	lw $3,8($3)
  400ad0:	42 00 00 00 00 12 02 00 	addu $18,$0,$2
  400ad8:	05 00 00 00 04 00 00 03 	beq $3,$0,400af0 <bquote1+0x160>
  400ae0:	20 00 00 00 00 00 02 03 	lb $2,0($3)
  400ae8:	05 00 00 00 06 00 10 02 	beq $2,$16,400b08 <bquote1+0x178>
  400af0:	a2 00 00 00 00 10 04 00 	lui $4,4096
  400af8:	43 00 00 00 28 00 04 04 	addiu $4,$4,40
  400b00:	02 00 00 00 8c 11 10 00 	jal 404630 <xlfail>
  400b08:	28 00 00 00 04 00 02 11 	lw $2,4($17)
  400b10:	28 00 00 00 08 00 02 02 	lw $2,8($2)
  400b18:	28 00 00 00 04 00 04 02 	lw $4,4($2)
  400b20:	42 00 00 00 00 10 00 00 	addu $16,$0,$0
  400b28:	02 00 00 00 64 1a 10 00 	jal 406990 <xleval>
  400b30:	34 00 00 00 10 00 02 1d 	sw $2,16($29)
  400b38:	05 00 00 00 20 00 00 02 	beq $2,$0,400bc0 <bquote1+0x230>
  400b40:	43 00 00 00 03 00 13 00 	addiu $19,$0,3
  400b48:	28 00 00 00 10 00 03 1d 	lw $3,16($29)
  400b50:	20 00 00 00 00 00 02 03 	lb $2,0($3)
  400b58:	06 00 00 00 18 00 13 02 	bne $2,$19,400bc0 <bquote1+0x230>
  400b60:	28 00 00 00 04 00 04 03 	lw $4,4($3)
  400b68:	02 00 00 00 1a 14 10 00 	jal 405068 <consa>
  400b70:	42 00 00 00 00 03 02 00 	addu $3,$0,$2
  400b78:	05 00 00 00 04 00 00 10 	beq $16,$0,400b90 <bquote1+0x200>
  400b80:	34 00 00 00 08 00 03 10 	sw $3,8($16)
  400b88:	01 00 00 00 e6 02 10 00 	j 400b98 <bquote1+0x208>
  400b90:	34 00 00 00 14 00 03 1d 	sw $3,20($29)
  400b98:	28 00 00 00 10 00 02 1d 	lw $2,16($29)
  400ba0:	28 00 00 00 08 00 02 02 	lw $2,8($2)
  400ba8:	42 00 00 00 00 10 03 00 	addu $16,$0,$3
  400bb0:	34 00 00 00 10 00 02 1d 	sw $2,16($29)
  400bb8:	06 00 00 00 e2 ff 00 02 	bne $2,$0,400b48 <bquote1+0x1b8>
  400bc0:	05 00 00 00 08 00 00 10 	beq $16,$0,400be8 <bquote1+0x258>
  400bc8:	28 00 00 00 08 00 04 11 	lw $4,8($17)
  400bd0:	02 00 00 00 64 02 10 00 	jal 400990 <bquote1>
  400bd8:	34 00 00 00 08 00 02 10 	sw $2,8($16)
  400be0:	01 00 00 00 00 03 10 00 	j 400c00 <bquote1+0x270>
  400be8:	28 00 00 00 08 00 04 11 	lw $4,8($17)
  400bf0:	02 00 00 00 64 02 10 00 	jal 400990 <bquote1>
  400bf8:	34 00 00 00 14 00 02 1d 	sw $2,20($29)
  400c00:	34 00 00 00 54 85 12 1c 	sw $18,-31404($28)
  400c08:	01 00 00 00 24 03 10 00 	j 400c90 <bquote1+0x300>
  400c10:	43 00 00 00 14 00 04 1d 	addiu $4,$29,20
  400c18:	42 00 00 00 00 05 00 00 	addu $5,$0,$0
  400c20:	02 00 00 00 bc 1f 10 00 	jal 407ef0 <xlsave>
  400c28:	42 00 00 00 00 12 02 00 	addu $18,$0,$2
  400c30:	42 00 00 00 00 04 00 00 	addu $4,$0,$0
  400c38:	02 00 00 00 1a 14 10 00 	jal 405068 <consa>
  400c40:	28 00 00 00 04 00 04 11 	lw $4,4($17)
  400c48:	34 00 00 00 14 00 02 1d 	sw $2,20($29)
  400c50:	02 00 00 00 64 02 10 00 	jal 400990 <bquote1>
  400c58:	28 00 00 00 14 00 03 1d 	lw $3,20($29)
  400c60:	34 00 00 00 04 00 02 03 	sw $2,4($3)
  400c68:	28 00 00 00 08 00 04 11 	lw $4,8($17)
  400c70:	02 00 00 00 64 02 10 00 	jal 400990 <bquote1>
  400c78:	28 00 00 00 14 00 03 1d 	lw $3,20($29)
  400c80:	34 00 00 00 54 85 12 1c 	sw $18,-31404($28)
  400c88:	34 00 00 00 08 00 02 03 	sw $2,8($3)
  400c90:	28 00 00 00 14 00 02 1d 	lw $2,20($29)
  400c98:	28 00 00 00 28 00 1f 1d 	lw $31,40($29)
  400ca0:	28 00 00 00 24 00 13 1d 	lw $19,36($29)
  400ca8:	28 00 00 00 20 00 12 1d 	lw $18,32($29)
  400cb0:	28 00 00 00 1c 00 11 1d 	lw $17,28($29)
  400cb8:	28 00 00 00 18 00 10 1d 	lw $16,24($29)
  400cc0:	43 00 00 00 30 00 1d 1d 	addiu $29,$29,48
  400cc8:	03 00 00 00 00 00 00 1f 	jr $31

00400cd0 <xset>:
  400cd0:	43 00 00 00 e0 ff 1d 1d 	addiu $29,$29,-32
  400cd8:	34 00 00 00 20 00 04 1d 	sw $4,32($29)
  400ce0:	43 00 00 00 04 00 04 00 	addiu $4,$0,4
  400ce8:	43 00 00 00 20 00 05 1d 	addiu $5,$29,32
  400cf0:	34 00 00 00 18 00 1f 1d 	sw $31,24($29)
  400cf8:	34 00 00 00 14 00 11 1d 	sw $17,20($29)
  400d00:	34 00 00 00 10 00 10 1d 	sw $16,16($29)
  400d08:	02 00 00 00 76 53 10 00 	jal 414dd8 <xlmatch>
  400d10:	43 00 00 00 20 00 04 1d 	addiu $4,$29,32
  400d18:	42 00 00 00 00 11 02 00 	addu $17,$0,$2
  400d20:	02 00 00 00 4e 53 10 00 	jal 414d38 <xlarg>
  400d28:	28 00 00 00 20 00 04 1d 	lw $4,32($29)
  400d30:	42 00 00 00 00 10 02 00 	addu $16,$0,$2
  400d38:	02 00 00 00 14 55 10 00 	jal 415450 <xllastarg>
  400d40:	42 00 00 00 00 02 10 00 	addu $2,$0,$16
  400d48:	34 00 00 00 08 00 02 11 	sw $2,8($17)
  400d50:	28 00 00 00 18 00 1f 1d 	lw $31,24($29)
  400d58:	28 00 00 00 14 00 11 1d 	lw $17,20($29)
  400d60:	28 00 00 00 10 00 10 1d 	lw $16,16($29)
  400d68:	43 00 00 00 20 00 1d 1d 	addiu $29,$29,32
  400d70:	03 00 00 00 00 00 00 1f 	jr $31

00400d78 <xsetq>:
  400d78:	43 00 00 00 d0 ff 1d 1d 	addiu $29,$29,-48
  400d80:	34 00 00 00 20 00 10 1d 	sw $16,32($29)
  400d88:	42 00 00 00 00 10 04 00 	addu $16,$0,$4
  400d90:	43 00 00 00 10 00 04 1d 	addiu $4,$29,16
  400d98:	43 00 00 00 14 00 05 1d 	addiu $5,$29,20
  400da0:	43 00 00 00 18 00 06 1d 	addiu $6,$29,24
  400da8:	42 00 00 00 00 07 00 00 	addu $7,$0,$0
  400db0:	34 00 00 00 28 00 1f 1d 	sw $31,40($29)
  400db8:	34 00 00 00 24 00 11 1d 	sw $17,36($29)
  400dc0:	02 00 00 00 bc 1f 10 00 	jal 407ef0 <xlsave>
  400dc8:	42 00 00 00 00 11 02 00 	addu $17,$0,$2
  400dd0:	34 00 00 00 10 00 10 1d 	sw $16,16($29)
  400dd8:	05 00 00 00 18 00 00 10 	beq $16,$0,400e40 <xsetq+0xc8>
  400de0:	43 00 00 00 04 00 04 00 	addiu $4,$0,4
  400de8:	43 00 00 00 10 00 05 1d 	addiu $5,$29,16
  400df0:	02 00 00 00 76 53 10 00 	jal 414dd8 <xlmatch>
  400df8:	43 00 00 00 10 00 04 1d 	addiu $4,$29,16
  400e00:	34 00 00 00 14 00 02 1d 	sw $2,20($29)
  400e08:	02 00 00 00 be 53 10 00 	jal 414ef8 <xlevarg>
  400e10:	28 00 00 00 14 00 04 1d 	lw $4,20($29)
  400e18:	42 00 00 00 00 05 02 00 	addu $5,$0,$2
  400e20:	34 00 00 00 18 00 05 1d 	sw $5,24($29)
  400e28:	02 00 00 00 0c 58 10 00 	jal 416030 <xlsetvalue>
  400e30:	28 00 00 00 10 00 02 1d 	lw $2,16($29)
  400e38:	06 00 00 00 e8 ff 00 02 	bne $2,$0,400de0 <xsetq+0x68>
  400e40:	28 00 00 00 18 00 02 1d 	lw $2,24($29)
  400e48:	34 00 00 00 54 85 11 1c 	sw $17,-31404($28)
  400e50:	28 00 00 00 28 00 1f 1d 	lw $31,40($29)
  400e58:	28 00 00 00 24 00 11 1d 	lw $17,36($29)
  400e60:	28 00 00 00 20 00 10 1d 	lw $16,32($29)
  400e68:	43 00 00 00 30 00 1d 1d 	addiu $29,$29,48
  400e70:	03 00 00 00 00 00 00 1f 	jr $31

00400e78 <xsetf>:
  400e78:	43 00 00 00 d0 ff 1d 1d 	addiu $29,$29,-48
  400e80:	34 00 00 00 20 00 10 1d 	sw $16,32($29)
  400e88:	42 00 00 00 00 10 04 00 	addu $16,$0,$4
  400e90:	43 00 00 00 10 00 04 1d 	addiu $4,$29,16
  400e98:	43 00 00 00 14 00 05 1d 	addiu $5,$29,20
  400ea0:	43 00 00 00 18 00 06 1d 	addiu $6,$29,24
  400ea8:	42 00 00 00 00 07 00 00 	addu $7,$0,$0
  400eb0:	34 00 00 00 2c 00 1f 1d 	sw $31,44($29)
  400eb8:	34 00 00 00 28 00 12 1d 	sw $18,40($29)
  400ec0:	34 00 00 00 24 00 11 1d 	sw $17,36($29)
  400ec8:	02 00 00 00 bc 1f 10 00 	jal 407ef0 <xlsave>
  400ed0:	42 00 00 00 00 11 02 00 	addu $17,$0,$2
  400ed8:	34 00 00 00 10 00 10 1d 	sw $16,16($29)
  400ee0:	05 00 00 00 30 00 00 10 	beq $16,$0,400fa8 <xsetf+0x130>
  400ee8:	43 00 00 00 04 00 12 00 	addiu $18,$0,4
  400ef0:	43 00 00 00 03 00 10 00 	addiu $16,$0,3
  400ef8:	43 00 00 00 10 00 04 1d 	addiu $4,$29,16
  400f00:	02 00 00 00 4e 53 10 00 	jal 414d38 <xlarg>
  400f08:	43 00 00 00 10 00 04 1d 	addiu $4,$29,16
  400f10:	34 00 00 00 14 00 02 1d 	sw $2,20($29)
  400f18:	02 00 00 00 be 53 10 00 	jal 414ef8 <xlevarg>
  400f20:	28 00 00 00 14 00 04 1d 	lw $4,20($29)
  400f28:	34 00 00 00 18 00 02 1d 	sw $2,24($29)
  400f30:	05 00 00 00 12 00 00 04 	beq $4,$0,400f80 <xsetf+0x108>
  400f38:	20 00 00 00 00 00 03 04 	lb $3,0($4)
  400f40:	06 00 00 00 06 00 12 03 	bne $3,$18,400f60 <xsetf+0xe8>
  400f48:	42 00 00 00 00 05 02 00 	addu $5,$0,$2
  400f50:	02 00 00 00 0c 58 10 00 	jal 416030 <xlsetvalue>
  400f58:	01 00 00 00 e6 03 10 00 	j 400f98 <xsetf+0x120>
  400f60:	06 00 00 00 06 00 10 03 	bne $3,$16,400f80 <xsetf+0x108>
  400f68:	42 00 00 00 00 05 02 00 	addu $5,$0,$2
  400f70:	02 00 00 00 fa 03 10 00 	jal 400fe8 <placeform>
  400f78:	01 00 00 00 e6 03 10 00 	j 400f98 <xsetf+0x120>
  400f80:	a2 00 00 00 00 10 04 00 	lui $4,4096
  400f88:	43 00 00 00 40 00 04 04 	addiu $4,$4,64
  400f90:	02 00 00 00 8c 11 10 00 	jal 404630 <xlfail>
  400f98:	28 00 00 00 10 00 02 1d 	lw $2,16($29)
  400fa0:	06 00 00 00 d4 ff 00 02 	bne $2,$0,400ef8 <xsetf+0x80>
  400fa8:	28 00 00 00 18 00 02 1d 	lw $2,24($29)
  400fb0:	34 00 00 00 54 85 11 1c 	sw $17,-31404($28)
  400fb8:	28 00 00 00 2c 00 1f 1d 	lw $31,44($29)
  400fc0:	28 00 00 00 28 00 12 1d 	lw $18,40($29)
  400fc8:	28 00 00 00 24 00 11 1d 	lw $17,36($29)
  400fd0:	28 00 00 00 20 00 10 1d 	lw $16,32($29)
  400fd8:	43 00 00 00 30 00 1d 1d 	addiu $29,$29,48
  400fe0:	03 00 00 00 00 00 00 1f 	jr $31

00400fe8 <placeform>:
  400fe8:	43 00 00 00 d8 ff 1d 1d 	addiu $29,$29,-40
  400ff0:	34 00 00 00 20 00 12 1d 	sw $18,32($29)
  400ff8:	42 00 00 00 00 12 05 00 	addu $18,$0,$5
  401000:	34 00 00 00 28 00 04 1d 	sw $4,40($29)
  401008:	43 00 00 00 04 00 04 00 	addiu $4,$0,4
  401010:	43 00 00 00 28 00 05 1d 	addiu $5,$29,40
  401018:	34 00 00 00 24 00 1f 1d 	sw $31,36($29)
  401020:	34 00 00 00 1c 00 11 1d 	sw $17,28($29)
  401028:	34 00 00 00 18 00 10 1d 	sw $16,24($29)
  401030:	02 00 00 00 76 53 10 00 	jal 414dd8 <xlmatch>
  401038:	28 00 00 00 f0 84 03 1c 	lw $3,-31504($28)
  401040:	42 00 00 00 00 10 02 00 	addu $16,$0,$2
  401048:	06 00 00 00 2a 00 03 10 	bne $16,$3,4010f8 <placeform+0x110>
  401050:	43 00 00 00 10 00 04 1d 	addiu $4,$29,16
  401058:	43 00 00 00 14 00 05 1d 	addiu $5,$29,20
  401060:	42 00 00 00 00 06 00 00 	addu $6,$0,$0
  401068:	02 00 00 00 bc 1f 10 00 	jal 407ef0 <xlsave>
  401070:	42 00 00 00 00 11 02 00 	addu $17,$0,$2
  401078:	43 00 00 00 04 00 04 00 	addiu $4,$0,4
  401080:	43 00 00 00 28 00 05 1d 	addiu $5,$29,40
  401088:	02 00 00 00 fa 53 10 00 	jal 414fe8 <xlevmatch>
  401090:	43 00 00 00 04 00 04 00 	addiu $4,$0,4
  401098:	43 00 00 00 28 00 05 1d 	addiu $5,$29,40
  4010a0:	34 00 00 00 10 00 02 1d 	sw $2,16($29)
  4010a8:	02 00 00 00 fa 53 10 00 	jal 414fe8 <xlevmatch>
  4010b0:	34 00 00 00 14 00 02 1d 	sw $2,20($29)
  4010b8:	28 00 00 00 28 00 04 1d 	lw $4,40($29)
  4010c0:	02 00 00 00 14 55 10 00 	jal 415450 <xllastarg>
  4010c8:	28 00 00 00 10 00 04 1d 	lw $4,16($29)
  4010d0:	28 00 00 00 14 00 06 1d 	lw $6,20($29)
  4010d8:	42 00 00 00 00 05 12 00 	addu $5,$0,$18
  4010e0:	02 00 00 00 5c 58 10 00 	jal 416170 <xlputprop>
  4010e8:	34 00 00 00 54 85 11 1c 	sw $17,-31404($28)
  4010f0:	01 00 00 00 32 05 10 00 	j 4014c8 <placeform+0x4e0>
  4010f8:	28 00 00 00 f4 84 02 1c 	lw $2,-31500($28)
  401100:	05 00 00 00 04 00 02 10 	beq $16,$2,401118 <placeform+0x130>
  401108:	28 00 00 00 f8 84 02 1c 	lw $2,-31496($28)
  401110:	06 00 00 00 24 00 02 10 	bne $16,$2,4011a8 <placeform+0x1c0>
  401118:	43 00 00 00 10 00 04 1d 	addiu $4,$29,16
  401120:	42 00 00 00 00 05 00 00 	addu $5,$0,$0
  401128:	02 00 00 00 bc 1f 10 00 	jal 407ef0 <xlsave>
  401130:	42 00 00 00 00 11 02 00 	addu $17,$0,$2
  401138:	43 00 00 00 04 00 04 00 	addiu $4,$0,4
  401140:	43 00 00 00 28 00 05 1d 	addiu $5,$29,40
  401148:	02 00 00 00 fa 53 10 00 	jal 414fe8 <xlevmatch>
  401150:	34 00 00 00 10 00 02 1d 	sw $2,16($29)
  401158:	28 00 00 00 28 00 04 1d 	lw $4,40($29)
  401160:	02 00 00 00 14 55 10 00 	jal 415450 <xllastarg>
  401168:	28 00 00 00 f4 84 02 1c 	lw $2,-31500($28)
  401170:	06 00 00 00 04 00 02 10 	bne $16,$2,401188 <placeform+0x1a0>
  401178:	28 00 00 00 10 00 02 1d 	lw $2,16($29)
  401180:	01 00 00 00 66 04 10 00 	j 401198 <placeform+0x1b0>
  401188:	28 00 00 00 10 00 02 1d 	lw $2,16($29)
  401190:	28 00 00 00 04 00 02 02 	lw $2,4($2)
  401198:	34 00 00 00 08 00 12 02 	sw $18,8($2)
  4011a0:	01 00 00 00 3a 04 10 00 	j 4010e8 <placeform+0x100>
  4011a8:	28 00 00 00 e4 84 02 1c 	lw $2,-31516($28)
  4011b0:	05 00 00 00 04 00 02 10 	beq $16,$2,4011c8 <placeform+0x1e0>
  4011b8:	28 00 00 00 e8 84 02 1c 	lw $2,-31512($28)
  4011c0:	06 00 00 00 2a 00 02 10 	bne $16,$2,401270 <placeform+0x288>
  4011c8:	43 00 00 00 10 00 04 1d 	addiu $4,$29,16
  4011d0:	42 00 00 00 00 05 00 00 	addu $5,$0,$0
  4011d8:	02 00 00 00 bc 1f 10 00 	jal 407ef0 <xlsave>
  4011e0:	42 00 00 00 00 11 02 00 	addu $17,$0,$2
  4011e8:	43 00 00 00 03 00 04 00 	addiu $4,$0,3
  4011f0:	43 00 00 00 28 00 05 1d 	addiu $5,$29,40
  4011f8:	02 00 00 00 fa 53 10 00 	jal 414fe8 <xlevmatch>
  401200:	34 00 00 00 10 00 02 1d 	sw $2,16($29)
  401208:	28 00 00 00 28 00 04 1d 	lw $4,40($29)
  401210:	02 00 00 00 14 55 10 00 	jal 415450 <xllastarg>
  401218:	28 00 00 00 10 00 04 1d 	lw $4,16($29)
  401220:	05 00 00 00 b0 ff 00 04 	beq $4,$0,4010e8 <placeform+0x100>
  401228:	20 00 00 00 00 00 03 04 	lb $3,0($4)
  401230:	43 00 00 00 03 00 02 00 	addiu $2,$0,3
  401238:	06 00 00 00 aa ff 02 03 	bne $3,$2,4010e8 <placeform+0x100>
  401240:	28 00 00 00 e4 84 02 1c 	lw $2,-31516($28)
  401248:	06 00 00 00 04 00 02 10 	bne $16,$2,401260 <placeform+0x278>
  401250:	34 00 00 00 04 00 12 04 	sw $18,4($4)
  401258:	01 00 00 00 3a 04 10 00 	j 4010e8 <placeform+0x100>
  401260:	34 00 00 00 08 00 12 04 	sw $18,8($4)
  401268:	01 00 00 00 3a 04 10 00 	j 4010e8 <placeform+0x100>
  401270:	28 00 00 00 ec 84 02 1c 	lw $2,-31508($28)
  401278:	06 00 00 00 48 00 02 10 	bne $16,$2,4013a0 <placeform+0x3b8>
  401280:	43 00 00 00 10 00 04 1d 	addiu $4,$29,16
  401288:	43 00 00 00 14 00 05 1d 	addiu $5,$29,20
  401290:	42 00 00 00 00 06 00 00 	addu $6,$0,$0
  401298:	02 00 00 00 bc 1f 10 00 	jal 407ef0 <xlsave>
  4012a0:	42 00 00 00 00 11 02 00 	addu $17,$0,$2
  4012a8:	43 00 00 00 05 00 04 00 	addiu $4,$0,5
  4012b0:	43 00 00 00 28 00 05 1d 	addiu $5,$29,40
  4012b8:	02 00 00 00 fa 53 10 00 	jal 414fe8 <xlevmatch>
  4012c0:	43 00 00 00 03 00 04 00 	addiu $4,$0,3
  4012c8:	43 00 00 00 28 00 05 1d 	addiu $5,$29,40
  4012d0:	34 00 00 00 10 00 02 1d 	sw $2,16($29)
  4012d8:	02 00 00 00 fa 53 10 00 	jal 414fe8 <xlevmatch>
  4012e0:	34 00 00 00 14 00 02 1d 	sw $2,20($29)
  4012e8:	28 00 00 00 28 00 04 1d 	lw $4,40($29)
  4012f0:	02 00 00 00 14 55 10 00 	jal 415450 <xllastarg>
  4012f8:	28 00 00 00 10 00 02 1d 	lw $2,16($29)
  401300:	28 00 00 00 04 00 10 02 	lw $16,4($2)
  401308:	07 00 00 00 16 00 00 10 	blez $16,401368 <placeform+0x380>
  401310:	28 00 00 00 14 00 02 1d 	lw $2,20($29)
  401318:	05 00 00 00 72 ff 00 02 	beq $2,$0,4010e8 <placeform+0x100>
  401320:	43 00 00 00 03 00 04 00 	addiu $4,$0,3
  401328:	28 00 00 00 14 00 03 1d 	lw $3,20($29)
  401330:	20 00 00 00 00 00 02 03 	lb $2,0($3)
  401338:	06 00 00 00 0a 00 04 02 	bne $2,$4,401368 <placeform+0x380>
  401340:	28 00 00 00 08 00 02 03 	lw $2,8($3)
  401348:	43 00 00 00 ff ff 10 10 	addiu $16,$16,-1
  401350:	34 00 00 00 14 00 02 1d 	sw $2,20($29)
  401358:	07 00 00 00 02 00 00 10 	blez $16,401368 <placeform+0x380>
  401360:	06 00 00 00 f0 ff 00 02 	bne $2,$0,401328 <placeform+0x340>
  401368:	28 00 00 00 14 00 04 1d 	lw $4,20($29)
  401370:	05 00 00 00 5c ff 00 04 	beq $4,$0,4010e8 <placeform+0x100>
  401378:	20 00 00 00 00 00 03 04 	lb $3,0($4)
  401380:	43 00 00 00 03 00 02 00 	addiu $2,$0,3
  401388:	06 00 00 00 56 ff 02 03 	bne $3,$2,4010e8 <placeform+0x100>
  401390:	34 00 00 00 04 00 12 04 	sw $18,4($4)
  401398:	01 00 00 00 3a 04 10 00 	j 4010e8 <placeform+0x100>
  4013a0:	28 00 00 00 fc 84 02 1c 	lw $2,-31492($28)
  4013a8:	06 00 00 00 40 00 02 10 	bne $16,$2,4014b0 <placeform+0x4c8>
  4013b0:	43 00 00 00 10 00 04 1d 	addiu $4,$29,16
  4013b8:	43 00 00 00 14 00 05 1d 	addiu $5,$29,20
  4013c0:	42 00 00 00 00 06 00 00 	addu $6,$0,$0
  4013c8:	02 00 00 00 bc 1f 10 00 	jal 407ef0 <xlsave>
  4013d0:	42 00 00 00 00 11 02 00 	addu $17,$0,$2
  4013d8:	43 00 00 00 0a 00 04 00 	addiu $4,$0,10
  4013e0:	43 00 00 00 28 00 05 1d 	addiu $5,$29,40
  4013e8:	02 00 00 00 fa 53 10 00 	jal 414fe8 <xlevmatch>
  4013f0:	43 00 00 00 05 00 04 00 	addiu $4,$0,5
  4013f8:	43 00 00 00 28 00 05 1d 	addiu $5,$29,40
  401400:	34 00 00 00 10 00 02 1d 	sw $2,16($29)
  401408:	02 00 00 00 fa 53 10 00 	jal 414fe8 <xlevmatch>
  401410:	34 00 00 00 14 00 02 1d 	sw $2,20($29)
  401418:	28 00 00 00 28 00 04 1d 	lw $4,40($29)
  401420:	28 00 00 00 04 00 10 02 	lw $16,4($2)
  401428:	02 00 00 00 14 55 10 00 	jal 415450 <xllastarg>
  401430:	09 00 00 00 08 00 00 10 	bltz $16,401458 <placeform+0x470>
  401438:	28 00 00 00 10 00 02 1d 	lw $2,16($29)
  401440:	28 00 00 00 04 00 02 02 	lw $2,4($2)
  401448:	5b 00 00 00 00 02 02 10 	slt $2,$16,$2
  401450:	06 00 00 00 08 00 00 02 	bne $2,$0,401478 <placeform+0x490>
  401458:	28 00 00 00 14 00 05 1d 	lw $5,20($29)
  401460:	a2 00 00 00 00 10 04 00 	lui $4,4096
  401468:	43 00 00 00 50 00 04 04 	addiu $4,$4,80
  401470:	02 00 00 00 d2 11 10 00 	jal 404748 <xlerror>
  401478:	28 00 00 00 10 00 02 1d 	lw $2,16($29)
  401480:	28 00 00 00 08 00 03 02 	lw $3,8($2)
  401488:	34 00 00 00 54 85 11 1c 	sw $17,-31404($28)
  401490:	55 00 00 00 02 02 10 00 	sll $2,$16,0x2
  401498:	42 00 00 00 00 02 03 02 	addu $2,$2,$3
  4014a0:	34 00 00 00 00 00 12 02 	sw $18,0($2)
  4014a8:	01 00 00 00 32 05 10 00 	j 4014c8 <placeform+0x4e0>
  4014b0:	a2 00 00 00 00 10 04 00 	lui $4,4096
  4014b8:	43 00 00 00 40 00 04 04 	addiu $4,$4,64
  4014c0:	02 00 00 00 8c 11 10 00 	jal 404630 <xlfail>
  4014c8:	28 00 00 00 24 00 1f 1d 	lw $31,36($29)
  4014d0:	28 00 00 00 20 00 12 1d 	lw $18,32($29)
  4014d8:	28 00 00 00 1c 00 11 1d 	lw $17,28($29)
  4014e0:	28 00 00 00 18 00 10 1d 	lw $16,24($29)
  4014e8:	43 00 00 00 28 00 1d 1d 	addiu $29,$29,40
  4014f0:	03 00 00 00 00 00 00 1f 	jr $31

004014f8 <xdefun>:
  4014f8:	28 00 00 00 c4 84 05 1c 	lw $5,-31548($28)
  401500:	43 00 00 00 e8 ff 1d 1d 	addiu $29,$29,-24
  401508:	34 00 00 00 10 00 1f 1d 	sw $31,16($29)
  401510:	02 00 00 00 5a 05 10 00 	jal 401568 <defun>
  401518:	28 00 00 00 10 00 1f 1d 	lw $31,16($29)
  401520:	43 00 00 00 18 00 1d 1d 	addiu $29,$29,24
  401528:	03 00 00 00 00 00 00 1f 	jr $31

00401530 <xdefmacro>:
  401530:	28 00 00 00 c8 84 05 1c 	lw $5,-31544($28)
  401538:	43 00 00 00 e8 ff 1d 1d 	addiu $29,$29,-24
  401540:	34 00 00 00 10 00 1f 1d 	sw $31,16($29)
  401548:	02 00 00 00 5a 05 10 00 	jal 401568 <defun>
  401550:	28 00 00 00 10 00 1f 1d 	lw $31,16($29)
  401558:	43 00 00 00 18 00 1d 1d 	addiu $29,$29,24
  401560:	03 00 00 00 00 00 00 1f 	jr $31

00401568 <defun>:
  401568:	43 00 00 00 d0 ff 1d 1d 	addiu $29,$29,-48
  401570:	34 00 00 00 20 00 10 1d 	sw $16,32($29)
  401578:	42 00 00 00 00 10 05 00 	addu $16,$0,$5
  401580:	34 00 00 00 30 00 04 1d 	sw $4,48($29)
  401588:	43 00 00 00 10 00 04 1d 	addiu $4,$29,16
  401590:	43 00 00 00 14 00 05 1d 	addiu $5,$29,20
  401598:	43 00 00 00 18 00 06 1d 	addiu $6,$29,24
  4015a0:	42 00 00 00 00 07 00 00 	addu $7,$0,$0
  4015a8:	34 00 00 00 28 00 1f 1d 	sw $31,40($29)
  4015b0:	34 00 00 00 24 00 11 1d 	sw $17,36($29)
  4015b8:	02 00 00 00 bc 1f 10 00 	jal 407ef0 <xlsave>
  4015c0:	43 00 00 00 04 00 04 00 	addiu $4,$0,4
  4015c8:	43 00 00 00 30 00 05 1d 	addiu $5,$29,48
  4015d0:	42 00 00 00 00 11 02 00 	addu $17,$0,$2
  4015d8:	02 00 00 00 76 53 10 00 	jal 414dd8 <xlmatch>
  4015e0:	43 00 00 00 03 00 04 00 	addiu $4,$0,3
  4015e8:	43 00 00 00 30 00 05 1d 	addiu $5,$29,48
  4015f0:	34 00 00 00 10 00 02 1d 	sw $2,16($29)
  4015f8:	02 00 00 00 76 53 10 00 	jal 414dd8 <xlmatch>
  401600:	34 00 00 00 14 00 02 1d 	sw $2,20($29)
  401608:	28 00 00 00 30 00 05 1d 	lw $5,48($29)
  401610:	42 00 00 00 00 04 02 00 	addu $4,$0,$2
  401618:	02 00 00 00 fc 13 10 00 	jal 404ff0 <cons>
  401620:	42 00 00 00 00 04 10 00 	addu $4,$0,$16
  401628:	42 00 00 00 00 05 02 00 	addu $5,$0,$2
  401630:	34 00 00 00 18 00 05 1d 	sw $5,24($29)
  401638:	02 00 00 00 fc 13 10 00 	jal 404ff0 <cons>
  401640:	28 00 00 00 60 85 05 1c 	lw $5,-31392($28)
  401648:	42 00 00 00 00 04 02 00 	addu $4,$0,$2
  401650:	34 00 00 00 18 00 04 1d 	sw $4,24($29)
  401658:	02 00 00 00 fc 13 10 00 	jal 404ff0 <cons>
  401660:	28 00 00 00 10 00 04 1d 	lw $4,16($29)
  401668:	42 00 00 00 00 05 02 00 	addu $5,$0,$2
  401670:	34 00 00 00 18 00 05 1d 	sw $5,24($29)
  401678:	02 00 00 00 0c 58 10 00 	jal 416030 <xlsetvalue>
  401680:	28 00 00 00 10 00 02 1d 	lw $2,16($29)
  401688:	34 00 00 00 54 85 11 1c 	sw $17,-31404($28)
  401690:	28 00 00 00 28 00 1f 1d 	lw $31,40($29)
  401698:	28 00 00 00 24 00 11 1d 	lw $17,36($29)
  4016a0:	28 00 00 00 20 00 10 1d 	lw $16,32($29)
  4016a8:	43 00 00 00 30 00 1d 1d 	addiu $29,$29,48
  4016b0:	03 00 00 00 00 00 00 1f 	jr $31

004016b8 <xgensym>:
  4016b8:	43 00 00 00 80 ff 1d 1d 	addiu $29,$29,-128
  4016c0:	34 00 00 00 78 00 1f 1d 	sw $31,120($29)
  4016c8:	34 00 00 00 80 00 04 1d 	sw $4,128($29)
  4016d0:	05 00 00 00 26 00 00 04 	beq $4,$0,401770 <xgensym+0xb8>
  4016d8:	43 00 00 00 80 00 04 1d 	addiu $4,$29,128
  4016e0:	02 00 00 00 4e 53 10 00 	jal 414d38 <xlarg>
  4016e8:	42 00 00 00 00 05 02 00 	addu $5,$0,$2
  4016f0:	20 00 00 00 00 00 03 05 	lb $3,0($5)
  4016f8:	43 00 00 00 05 00 02 00 	addiu $2,$0,5
  401700:	05 00 00 00 0e 00 02 03 	beq $3,$2,401740 <xgensym+0x88>
  401708:	43 00 00 00 06 00 02 00 	addiu $2,$0,6
  401710:	06 00 00 00 10 00 02 03 	bne $3,$2,401758 <xgensym+0xa0>
  401718:	28 00 00 00 08 00 05 05 	lw $5,8($5)
  401720:	a2 00 00 00 00 10 04 00 	lui $4,4096
  401728:	43 00 00 00 60 2b 04 04 	addiu $4,$4,11104
  401730:	02 00 00 00 5c 63 10 00 	jal 418d70 <strcpy>
  401738:	01 00 00 00 dc 05 10 00 	j 401770 <xgensym+0xb8>
  401740:	28 00 00 00 04 00 02 05 	lw $2,4($5)
  401748:	34 00 00 00 7c 85 02 1c 	sw $2,-31364($28)
  401750:	01 00 00 00 dc 05 10 00 	j 401770 <xgensym+0xb8>
  401758:	a2 00 00 00 00 10 04 00 	lui $4,4096
  401760:	43 00 00 00 64 00 04 04 	addiu $4,$4,100
  401768:	02 00 00 00 d2 11 10 00 	jal 404748 <xlerror>
  401770:	28 00 00 00 80 00 04 1d 	lw $4,128($29)
  401778:	02 00 00 00 14 55 10 00 	jal 415450 <xllastarg>
  401780:	28 00 00 00 7c 85 07 1c 	lw $7,-31364($28)
  401788:	43 00 00 00 10 00 04 1d 	addiu $4,$29,16
  401790:	43 00 00 00 10 80 05 1c 	addiu $5,$28,-32752
  401798:	a2 00 00 00 00 10 06 00 	lui $6,4096
  4017a0:	43 00 00 00 60 2b 06 06 	addiu $6,$6,11104
  4017a8:	43 00 00 00 01 00 02 07 	addiu $2,$7,1
  4017b0:	34 00 00 00 7c 85 02 1c 	sw $2,-31364($28)
  4017b8:	02 00 00 00 70 63 10 00 	jal 418dc0 <sprintf>
  4017c0:	43 00 00 00 10 00 04 1d 	addiu $4,$29,16
  4017c8:	42 00 00 00 00 05 00 00 	addu $5,$0,$0
  4017d0:	02 00 00 00 32 57 10 00 	jal 415cc8 <xlmakesym>
  4017d8:	28 00 00 00 78 00 1f 1d 	lw $31,120($29)
  4017e0:	43 00 00 00 80 00 1d 1d 	addiu $29,$29,128
  4017e8:	03 00 00 00 00 00 00 1f 	jr $31

004017f0 <xmakesymbol>:
  4017f0:	43 00 00 00 e8 ff 1d 1d 	addiu $29,$29,-24
  4017f8:	34 00 00 00 10 00 1f 1d 	sw $31,16($29)
  401800:	42 00 00 00 00 05 00 00 	addu $5,$0,$0
  401808:	02 00 00 00 18 06 10 00 	jal 401860 <makesymbol>
  401810:	28 00 00 00 10 00 1f 1d 	lw $31,16($29)
  401818:	43 00 00 00 18 00 1d 1d 	addiu $29,$29,24
  401820:	03 00 00 00 00 00 00 1f 	jr $31

00401828 <xintern>:
  401828:	43 00 00 00 e8 ff 1d 1d 	addiu $29,$29,-24
  401830:	34 00 00 00 10 00 1f 1d 	sw $31,16($29)
  401838:	43 00 00 00 01 00 05 00 	addiu $5,$0,1
  401840:	02 00 00 00 18 06 10 00 	jal 401860 <makesymbol>
  401848:	28 00 00 00 10 00 1f 1d 	lw $31,16($29)
  401850:	43 00 00 00 18 00 1d 1d 	addiu $29,$29,24
  401858:	03 00 00 00 00 00 00 1f 	jr $31

00401860 <makesymbol>:
  401860:	43 00 00 00 d8 ff 1d 1d 	addiu $29,$29,-40
  401868:	34 00 00 00 18 00 10 1d 	sw $16,24($29)
  401870:	42 00 00 00 00 10 05 00 	addu $16,$0,$5
  401878:	34 00 00 00 28 00 04 1d 	sw $4,40($29)
  401880:	43 00 00 00 10 00 04 1d 	addiu $4,$29,16
  401888:	42 00 00 00 00 05 00 00 	addu $5,$0,$0
  401890:	34 00 00 00 20 00 1f 1d 	sw $31,32($29)
  401898:	34 00 00 00 1c 00 11 1d 	sw $17,28($29)
  4018a0:	02 00 00 00 bc 1f 10 00 	jal 407ef0 <xlsave>
  4018a8:	43 00 00 00 06 00 04 00 	addiu $4,$0,6
  4018b0:	43 00 00 00 28 00 05 1d 	addiu $5,$29,40
  4018b8:	42 00 00 00 00 11 02 00 	addu $17,$0,$2
  4018c0:	02 00 00 00 76 53 10 00 	jal 414dd8 <xlmatch>
  4018c8:	34 00 00 00 10 00 02 1d 	sw $2,16($29)
  4018d0:	28 00 00 00 28 00 04 1d 	lw $4,40($29)
  4018d8:	02 00 00 00 14 55 10 00 	jal 415450 <xllastarg>
  4018e0:	28 00 00 00 10 00 02 1d 	lw $2,16($29)
  4018e8:	28 00 00 00 08 00 04 02 	lw $4,8($2)
  4018f0:	05 00 00 00 06 00 00 10 	beq $16,$0,401910 <makesymbol+0xb0>
  4018f8:	42 00 00 00 00 05 00 00 	addu $5,$0,$0
  401900:	02 00 00 00 24 56 10 00 	jal 415890 <xlenter>
  401908:	01 00 00 00 48 06 10 00 	j 401920 <makesymbol+0xc0>
  401910:	42 00 00 00 00 05 00 00 	addu $5,$0,$0
  401918:	02 00 00 00 32 57 10 00 	jal 415cc8 <xlmakesym>
  401920:	34 00 00 00 54 85 11 1c 	sw $17,-31404($28)
  401928:	28 00 00 00 20 00 1f 1d 	lw $31,32($29)
  401930:	28 00 00 00 1c 00 11 1d 	lw $17,28($29)
  401938:	28 00 00 00 18 00 10 1d 	lw $16,24($29)
  401940:	43 00 00 00 28 00 1d 1d 	addiu $29,$29,40
  401948:	03 00 00 00 00 00 00 1f 	jr $31

00401950 <xsymname>:
  401950:	43 00 00 00 e8 ff 1d 1d 	addiu $29,$29,-24
  401958:	34 00 00 00 18 00 04 1d 	sw $4,24($29)
  401960:	43 00 00 00 04 00 04 00 	addiu $4,$0,4
  401968:	43 00 00 00 18 00 05 1d 	addiu $5,$29,24
  401970:	34 00 00 00 14 00 1f 1d 	sw $31,20($29)
  401978:	34 00 00 00 10 00 10 1d 	sw $16,16($29)
  401980:	02 00 00 00 76 53 10 00 	jal 414dd8 <xlmatch>
  401988:	28 00 00 00 18 00 04 1d 	lw $4,24($29)
  401990:	42 00 00 00 00 10 02 00 	addu $16,$0,$2
  401998:	02 00 00 00 14 55 10 00 	jal 415450 <xllastarg>
  4019a0:	28 00 00 00 04 00 02 10 	lw $2,4($16)
  4019a8:	28 00 00 00 04 00 02 02 	lw $2,4($2)
  4019b0:	28 00 00 00 14 00 1f 1d 	lw $31,20($29)
  4019b8:	28 00 00 00 10 00 10 1d 	lw $16,16($29)
  4019c0:	43 00 00 00 18 00 1d 1d 	addiu $29,$29,24
  4019c8:	03 00 00 00 00 00 00 1f 	jr $31

004019d0 <xsymvalue>:
  4019d0:	43 00 00 00 e8 ff 1d 1d 	addiu $29,$29,-24
  4019d8:	34 00 00 00 18 00 04 1d 	sw $4,24($29)
  4019e0:	43 00 00 00 04 00 04 00 	addiu $4,$0,4
  4019e8:	43 00 00 00 18 00 05 1d 	addiu $5,$29,24
  4019f0:	34 00 00 00 14 00 1f 1d 	sw $31,20($29)
  4019f8:	34 00 00 00 10 00 10 1d 	sw $16,16($29)
  401a00:	02 00 00 00 76 53 10 00 	jal 414dd8 <xlmatch>
  401a08:	28 00 00 00 18 00 04 1d 	lw $4,24($29)
  401a10:	42 00 00 00 00 10 02 00 	addu $16,$0,$2
  401a18:	02 00 00 00 14 55 10 00 	jal 415450 <xllastarg>
  401a20:	01 00 00 00 96 06 10 00 	j 401a58 <xsymvalue+0x88>
  401a28:	a2 00 00 00 00 10 04 00 	lui $4,4096
  401a30:	43 00 00 00 78 00 04 04 	addiu $4,$4,120
  401a38:	a2 00 00 00 00 10 05 00 	lui $5,4096
  401a40:	43 00 00 00 94 00 05 05 	addiu $5,$5,148
  401a48:	42 00 00 00 00 06 10 00 	addu $6,$0,$16
  401a50:	02 00 00 00 e8 11 10 00 	jal 4047a0 <xlcerror>
  401a58:	28 00 00 00 08 00 03 10 	lw $3,8($16)
  401a60:	28 00 00 00 50 85 02 1c 	lw $2,-31408($28)
  401a68:	05 00 00 00 ee ff 02 03 	beq $3,$2,401a28 <xsymvalue+0x58>
  401a70:	42 00 00 00 00 02 03 00 	addu $2,$0,$3
  401a78:	28 00 00 00 14 00 1f 1d 	lw $31,20($29)
  401a80:	28 00 00 00 10 00 10 1d 	lw $16,16($29)
  401a88:	43 00 00 00 18 00 1d 1d 	addiu $29,$29,24
  401a90:	03 00 00 00 00 00 00 1f 	jr $31

00401a98 <xsymplist>:
  401a98:	43 00 00 00 e8 ff 1d 1d 	addiu $29,$29,-24
  401aa0:	34 00 00 00 18 00 04 1d 	sw $4,24($29)
  401aa8:	43 00 00 00 04 00 04 00 	addiu $4,$0,4
  401ab0:	43 00 00 00 18 00 05 1d 	addiu $5,$29,24
  401ab8:	34 00 00 00 14 00 1f 1d 	sw $31,20($29)
  401ac0:	34 00 00 00 10 00 10 1d 	sw $16,16($29)
  401ac8:	02 00 00 00 76 53 10 00 	jal 414dd8 <xlmatch>
  401ad0:	28 00 00 00 18 00 04 1d 	lw $4,24($29)
  401ad8:	42 00 00 00 00 10 02 00 	addu $16,$0,$2
  401ae0:	02 00 00 00 14 55 10 00 	jal 415450 <xllastarg>
  401ae8:	28 00 00 00 04 00 02 10 	lw $2,4($16)
  401af0:	28 00 00 00 08 00 02 02 	lw $2,8($2)
  401af8:	28 00 00 00 14 00 1f 1d 	lw $31,20($29)
  401b00:	28 00 00 00 10 00 10 1d 	lw $16,16($29)
  401b08:	43 00 00 00 18 00 1d 1d 	addiu $29,$29,24
  401b10:	03 00 00 00 00 00 00 1f 	jr $31

00401b18 <xget>:
  401b18:	43 00 00 00 e0 ff 1d 1d 	addiu $29,$29,-32
  401b20:	34 00 00 00 20 00 04 1d 	sw $4,32($29)
  401b28:	43 00 00 00 04 00 04 00 	addiu $4,$0,4
  401b30:	43 00 00 00 20 00 05 1d 	addiu $5,$29,32
  401b38:	34 00 00 00 18 00 1f 1d 	sw $31,24($29)
  401b40:	34 00 00 00 14 00 11 1d 	sw $17,20($29)
  401b48:	34 00 00 00 10 00 10 1d 	sw $16,16($29)
  401b50:	02 00 00 00 76 53 10 00 	jal 414dd8 <xlmatch>
  401b58:	43 00 00 00 04 00 04 00 	addiu $4,$0,4
  401b60:	43 00 00 00 20 00 05 1d 	addiu $5,$29,32
  401b68:	42 00 00 00 00 11 02 00 	addu $17,$0,$2
  401b70:	02 00 00 00 76 53 10 00 	jal 414dd8 <xlmatch>
  401b78:	28 00 00 00 20 00 04 1d 	lw $4,32($29)
  401b80:	42 00 00 00 00 10 02 00 	addu $16,$0,$2
  401b88:	02 00 00 00 14 55 10 00 	jal 415450 <xllastarg>
  401b90:	42 00 00 00 00 04 11 00 	addu $4,$0,$17
  401b98:	42 00 00 00 00 05 10 00 	addu $5,$0,$16
  401ba0:	02 00 00 00 48 58 10 00 	jal 416120 <xlgetprop>
  401ba8:	28 00 00 00 18 00 1f 1d 	lw $31,24($29)
  401bb0:	28 00 00 00 14 00 11 1d 	lw $17,20($29)
  401bb8:	28 00 00 00 10 00 10 1d 	lw $16,16($29)
  401bc0:	43 00 00 00 20 00 1d 1d 	addiu $29,$29,32
  401bc8:	03 00 00 00 00 00 00 1f 	jr $31

00401bd0 <xputprop>:
  401bd0:	43 00 00 00 e0 ff 1d 1d 	addiu $29,$29,-32
  401bd8:	34 00 00 00 20 00 04 1d 	sw $4,32($29)
  401be0:	43 00 00 00 04 00 04 00 	addiu $4,$0,4
  401be8:	43 00 00 00 20 00 05 1d 	addiu $5,$29,32
  401bf0:	34 00 00 00 1c 00 1f 1d 	sw $31,28($29)
  401bf8:	34 00 00 00 18 00 12 1d 	sw $18,24($29)
  401c00:	34 00 00 00 14 00 11 1d 	sw $17,20($29)
  401c08:	34 00 00 00 10 00 10 1d 	sw $16,16($29)
  401c10:	02 00 00 00 76 53 10 00 	jal 414dd8 <xlmatch>
  401c18:	43 00 00 00 20 00 04 1d 	addiu $4,$29,32
  401c20:	42 00 00 00 00 12 02 00 	addu $18,$0,$2
  401c28:	02 00 00 00 4e 53 10 00 	jal 414d38 <xlarg>
  401c30:	43 00 00 00 04 00 04 00 	addiu $4,$0,4
  401c38:	43 00 00 00 20 00 05 1d 	addiu $5,$29,32
  401c40:	42 00 00 00 00 11 02 00 	addu $17,$0,$2
  401c48:	02 00 00 00 76 53 10 00 	jal 414dd8 <xlmatch>
  401c50:	28 00 00 00 20 00 04 1d 	lw $4,32($29)
  401c58:	42 00 00 00 00 10 02 00 	addu $16,$0,$2
  401c60:	02 00 00 00 14 55 10 00 	jal 415450 <xllastarg>
  401c68:	42 00 00 00 00 04 12 00 	addu $4,$0,$18
  401c70:	42 00 00 00 00 05 11 00 	addu $5,$0,$17
  401c78:	42 00 00 00 00 06 10 00 	addu $6,$0,$16
  401c80:	02 00 00 00 5c 58 10 00 	jal 416170 <xlputprop>
  401c88:	42 00 00 00 00 02 11 00 	addu $2,$0,$17
  401c90:	28 00 00 00 1c 00 1f 1d 	lw $31,28($29)
  401c98:	28 00 00 00 18 00 12 1d 	lw $18,24($29)
  401ca0:	28 00 00 00 14 00 11 1d 	lw $17,20($29)
  401ca8:	28 00 00 00 10 00 10 1d 	lw $16,16($29)
  401cb0:	43 00 00 00 20 00 1d 1d 	addiu $29,$29,32
  401cb8:	03 00 00 00 00 00 00 1f 	jr $31

00401cc0 <xremprop>:
  401cc0:	43 00 00 00 e0 ff 1d 1d 	addiu $29,$29,-32
  401cc8:	34 00 00 00 20 00 04 1d 	sw $4,32($29)
  401cd0:	43 00 00 00 04 00 04 00 	addiu $4,$0,4
  401cd8:	43 00 00 00 20 00 05 1d 	addiu $5,$29,32
  401ce0:	34 00 00 00 18 00 1f 1d 	sw $31,24($29)
  401ce8:	34 00 00 00 14 00 11 1d 	sw $17,20($29)
  401cf0:	34 00 00 00 10 00 10 1d 	sw $16,16($29)
  401cf8:	02 00 00 00 76 53 10 00 	jal 414dd8 <xlmatch>
  401d00:	43 00 00 00 04 00 04 00 	addiu $4,$0,4
  401d08:	43 00 00 00 20 00 05 1d 	addiu $5,$29,32
  401d10:	42 00 00 00 00 11 02 00 	addu $17,$0,$2
  401d18:	02 00 00 00 76 53 10 00 	jal 414dd8 <xlmatch>
  401d20:	28 00 00 00 20 00 04 1d 	lw $4,32($29)
  401d28:	42 00 00 00 00 10 02 00 	addu $16,$0,$2
  401d30:	02 00 00 00 14 55 10 00 	jal 415450 <xllastarg>
  401d38:	42 00 00 00 00 04 11 00 	addu $4,$0,$17
  401d40:	42 00 00 00 00 05 10 00 	addu $5,$0,$16
  401d48:	02 00 00 00 a4 58 10 00 	jal 416290 <xlremprop>
  401d50:	42 00 00 00 00 02 00 00 	addu $2,$0,$0
  401d58:	28 00 00 00 18 00 1f 1d 	lw $31,24($29)
  401d60:	28 00 00 00 14 00 11 1d 	lw $17,20($29)
  401d68:	28 00 00 00 10 00 10 1d 	lw $16,16($29)
  401d70:	43 00 00 00 20 00 1d 1d 	addiu $29,$29,32
  401d78:	03 00 00 00 00 00 00 1f 	jr $31

00401d80 <xhash>:
  401d80:	43 00 00 00 e0 ff 1d 1d 	addiu $29,$29,-32
  401d88:	34 00 00 00 20 00 04 1d 	sw $4,32($29)
  401d90:	43 00 00 00 20 00 04 1d 	addiu $4,$29,32
  401d98:	34 00 00 00 1c 00 1f 1d 	sw $31,28($29)
  401da0:	34 00 00 00 18 00 12 1d 	sw $18,24($29)
  401da8:	34 00 00 00 14 00 11 1d 	sw $17,20($29)
  401db0:	34 00 00 00 10 00 10 1d 	sw $16,16($29)
  401db8:	02 00 00 00 4e 53 10 00 	jal 414d38 <xlarg>
  401dc0:	43 00 00 00 05 00 04 00 	addiu $4,$0,5
  401dc8:	43 00 00 00 20 00 05 1d 	addiu $5,$29,32
  401dd0:	42 00 00 00 00 10 02 00 	addu $16,$0,$2
  401dd8:	02 00 00 00 76 53 10 00 	jal 414dd8 <xlmatch>
  401de0:	28 00 00 00 20 00 04 1d 	lw $4,32($29)
  401de8:	28 00 00 00 04 00 12 02 	lw $18,4($2)
  401df0:	02 00 00 00 14 55 10 00 	jal 415450 <xllastarg>
  401df8:	05 00 00 00 16 00 00 10 	beq $16,$0,401e58 <xhash+0xd8>
  401e00:	20 00 00 00 00 00 03 10 	lb $3,0($16)
  401e08:	43 00 00 00 04 00 02 00 	addiu $2,$0,4
  401e10:	06 00 00 00 08 00 02 03 	bne $3,$2,401e38 <xhash+0xb8>
  401e18:	28 00 00 00 04 00 02 10 	lw $2,4($16)
  401e20:	28 00 00 00 04 00 02 02 	lw $2,4($2)
  401e28:	28 00 00 00 08 00 11 02 	lw $17,8($2)
  401e30:	01 00 00 00 9e 07 10 00 	j 401e78 <xhash+0xf8>
  401e38:	43 00 00 00 06 00 02 00 	addiu $2,$0,6
  401e40:	06 00 00 00 04 00 02 03 	bne $3,$2,401e58 <xhash+0xd8>
  401e48:	28 00 00 00 08 00 11 10 	lw $17,8($16)
  401e50:	01 00 00 00 9e 07 10 00 	j 401e78 <xhash+0xf8>
  401e58:	a2 00 00 00 00 10 04 00 	lui $4,4096
  401e60:	43 00 00 00 64 00 04 04 	addiu $4,$4,100
  401e68:	42 00 00 00 00 05 10 00 	addu $5,$0,$16
  401e70:	02 00 00 00 d2 11 10 00 	jal 404748 <xlerror>
  401e78:	42 00 00 00 00 04 11 00 	addu $4,$0,$17
  401e80:	42 00 00 00 00 05 12 00 	addu $5,$0,$18
  401e88:	02 00 00 00 10 59 10 00 	jal 416440 <hash>
  401e90:	42 00 00 00 00 04 02 00 	addu $4,$0,$2
  401e98:	02 00 00 00 50 15 10 00 	jal 405540 <cvfixnum>
  401ea0:	28 00 00 00 1c 00 1f 1d 	lw $31,28($29)
  401ea8:	28 00 00 00 18 00 12 1d 	lw $18,24($29)
  401eb0:	28 00 00 00 14 00 11 1d 	lw $17,20($29)
  401eb8:	28 00 00 00 10 00 10 1d 	lw $16,16($29)
  401ec0:	43 00 00 00 20 00 1d 1d 	addiu $29,$29,32
  401ec8:	03 00 00 00 00 00 00 1f 	jr $31

00401ed0 <xaref>:
  401ed0:	43 00 00 00 e0 ff 1d 1d 	addiu $29,$29,-32
  401ed8:	34 00 00 00 20 00 04 1d 	sw $4,32($29)
  401ee0:	43 00 00 00 0a 00 04 00 	addiu $4,$0,10
  401ee8:	43 00 00 00 20 00 05 1d 	addiu $5,$29,32
  401ef0:	34 00 00 00 1c 00 1f 1d 	sw $31,28($29)
  401ef8:	34 00 00 00 18 00 12 1d 	sw $18,24($29)
  401f00:	34 00 00 00 14 00 11 1d 	sw $17,20($29)
  401f08:	34 00 00 00 10 00 10 1d 	sw $16,16($29)
  401f10:	02 00 00 00 76 53 10 00 	jal 414dd8 <xlmatch>
  401f18:	43 00 00 00 05 00 04 00 	addiu $4,$0,5
  401f20:	43 00 00 00 20 00 05 1d 	addiu $5,$29,32
  401f28:	42 00 00 00 00 12 02 00 	addu $18,$0,$2
  401f30:	02 00 00 00 76 53 10 00 	jal 414dd8 <xlmatch>
  401f38:	28 00 00 00 20 00 04 1d 	lw $4,32($29)
  401f40:	42 00 00 00 00 11 02 00 	addu $17,$0,$2
  401f48:	28 00 00 00 04 00 10 11 	lw $16,4($17)
  401f50:	02 00 00 00 14 55 10 00 	jal 415450 <xllastarg>
  401f58:	09 00 00 00 06 00 00 10 	bltz $16,401f78 <xaref+0xa8>
  401f60:	28 00 00 00 04 00 02 12 	lw $2,4($18)
  401f68:	5b 00 00 00 00 02 02 10 	slt $2,$16,$2
  401f70:	06 00 00 00 08 00 00 02 	bne $2,$0,401f98 <xaref+0xc8>
  401f78:	a2 00 00 00 00 10 04 00 	lui $4,4096
  401f80:	43 00 00 00 a8 00 04 04 	addiu $4,$4,168
  401f88:	42 00 00 00 00 05 11 00 	addu $5,$0,$17
  401f90:	02 00 00 00 d2 11 10 00 	jal 404748 <xlerror>
  401f98:	28 00 00 00 08 00 03 12 	lw $3,8($18)
  401fa0:	55 00 00 00 02 02 10 00 	sll $2,$16,0x2
  401fa8:	42 00 00 00 00 02 03 02 	addu $2,$2,$3
  401fb0:	28 00 00 00 00 00 02 02 	lw $2,0($2)
  401fb8:	28 00 00 00 1c 00 1f 1d 	lw $31,28($29)
  401fc0:	28 00 00 00 18 00 12 1d 	lw $18,24($29)
  401fc8:	28 00 00 00 14 00 11 1d 	lw $17,20($29)
  401fd0:	28 00 00 00 10 00 10 1d 	lw $16,16($29)
  401fd8:	43 00 00 00 20 00 1d 1d 	addiu $29,$29,32
  401fe0:	03 00 00 00 00 00 00 1f 	jr $31

00401fe8 <xmkarray>:
  401fe8:	43 00 00 00 e8 ff 1d 1d 	addiu $29,$29,-24
  401ff0:	34 00 00 00 18 00 04 1d 	sw $4,24($29)
  401ff8:	43 00 00 00 05 00 04 00 	addiu $4,$0,5
  402000:	43 00 00 00 18 00 05 1d 	addiu $5,$29,24
  402008:	34 00 00 00 14 00 1f 1d 	sw $31,20($29)
  402010:	34 00 00 00 10 00 10 1d 	sw $16,16($29)
  402018:	02 00 00 00 76 53 10 00 	jal 414dd8 <xlmatch>
  402020:	28 00 00 00 18 00 04 1d 	lw $4,24($29)
  402028:	28 00 00 00 04 00 10 02 	lw $16,4($2)
  402030:	02 00 00 00 14 55 10 00 	jal 415450 <xllastarg>
  402038:	42 00 00 00 00 04 10 00 	addu $4,$0,$16
  402040:	02 00 00 00 ca 15 10 00 	jal 405728 <newvector>
  402048:	28 00 00 00 14 00 1f 1d 	lw $31,20($29)
  402050:	28 00 00 00 10 00 10 1d 	lw $16,16($29)
  402058:	43 00 00 00 18 00 1d 1d 	addiu $29,$29,24
  402060:	03 00 00 00 00 00 00 1f 	jr $31
	...

00402070 <xcond>:
  402070:	43 00 00 00 d8 ff 1d 1d 	addiu $29,$29,-40
  402078:	34 00 00 00 18 00 10 1d 	sw $16,24($29)
  402080:	42 00 00 00 00 10 04 00 	addu $16,$0,$4
  402088:	43 00 00 00 10 00 04 1d 	addiu $4,$29,16
  402090:	43 00 00 00 14 00 05 1d 	addiu $5,$29,20
  402098:	42 00 00 00 00 06 00 00 	addu $6,$0,$0
  4020a0:	34 00 00 00 20 00 1f 1d 	sw $31,32($29)
  4020a8:	34 00 00 00 1c 00 11 1d 	sw $17,28($29)
  4020b0:	02 00 00 00 bc 1f 10 00 	jal 407ef0 <xlsave>
  4020b8:	42 00 00 00 00 04 00 00 	addu $4,$0,$0
  4020c0:	42 00 00 00 00 11 02 00 	addu $17,$0,$2
  4020c8:	34 00 00 00 10 00 10 1d 	sw $16,16($29)
  4020d0:	05 00 00 00 24 00 00 10 	beq $16,$0,402168 <xcond+0xf8>
  4020d8:	43 00 00 00 03 00 04 00 	addiu $4,$0,3
  4020e0:	43 00 00 00 10 00 05 1d 	addiu $5,$29,16
  4020e8:	02 00 00 00 76 53 10 00 	jal 414dd8 <xlmatch>
  4020f0:	34 00 00 00 14 00 02 1d 	sw $2,20($29)
  4020f8:	43 00 00 00 14 00 04 1d 	addiu $4,$29,20
  402100:	02 00 00 00 be 53 10 00 	jal 414ef8 <xlevarg>
  402108:	42 00 00 00 00 04 02 00 	addu $4,$0,$2
  402110:	05 00 00 00 10 00 00 04 	beq $4,$0,402158 <xcond+0xe8>
  402118:	28 00 00 00 14 00 02 1d 	lw $2,20($29)
  402120:	05 00 00 00 10 00 00 02 	beq $2,$0,402168 <xcond+0xf8>
  402128:	43 00 00 00 14 00 04 1d 	addiu $4,$29,20
  402130:	02 00 00 00 be 53 10 00 	jal 414ef8 <xlevarg>
  402138:	28 00 00 00 14 00 03 1d 	lw $3,20($29)
  402140:	42 00 00 00 00 04 02 00 	addu $4,$0,$2
  402148:	06 00 00 00 f6 ff 00 03 	bne $3,$0,402128 <xcond+0xb8>
  402150:	01 00 00 00 5a 08 10 00 	j 402168 <xcond+0xf8>
  402158:	28 00 00 00 10 00 02 1d 	lw $2,16($29)
  402160:	06 00 00 00 dc ff 00 02 	bne $2,$0,4020d8 <xcond+0x68>
  402168:	34 00 00 00 54 85 11 1c 	sw $17,-31404($28)
  402170:	42 00 00 00 00 02 04 00 	addu $2,$0,$4
  402178:	28 00 00 00 20 00 1f 1d 	lw $31,32($29)
  402180:	28 00 00 00 1c 00 11 1d 	lw $17,28($29)
  402188:	28 00 00 00 18 00 10 1d 	lw $16,24($29)
  402190:	43 00 00 00 28 00 1d 1d 	addiu $29,$29,40
  402198:	03 00 00 00 00 00 00 1f 	jr $31

004021a0 <xcase>:
  4021a0:	43 00 00 00 c8 ff 1d 1d 	addiu $29,$29,-56
  4021a8:	34 00 00 00 24 00 11 1d 	sw $17,36($29)
  4021b0:	42 00 00 00 00 11 04 00 	addu $17,$0,$4
  4021b8:	43 00 00 00 10 00 04 1d 	addiu $4,$29,16
  4021c0:	34 00 00 00 20 00 10 1d 	sw $16,32($29)
  4021c8:	43 00 00 00 14 00 10 1d 	addiu $16,$29,20
  4021d0:	42 00 00 00 00 05 10 00 	addu $5,$0,$16
  4021d8:	43 00 00 00 18 00 06 1d 	addiu $6,$29,24
  4021e0:	42 00 00 00 00 07 00 00 	addu $7,$0,$0
  4021e8:	34 00 00 00 30 00 1f 1d 	sw $31,48($29)
  4021f0:	34 00 00 00 2c 00 13 1d 	sw $19,44($29)
  4021f8:	34 00 00 00 28 00 12 1d 	sw $18,40($29)
  402200:	02 00 00 00 bc 1f 10 00 	jal 407ef0 <xlsave>
  402208:	42 00 00 00 00 04 10 00 	addu $4,$0,$16
  402210:	42 00 00 00 00 13 02 00 	addu $19,$0,$2
  402218:	34 00 00 00 14 00 11 1d 	sw $17,20($29)
  402220:	02 00 00 00 be 53 10 00 	jal 414ef8 <xlevarg>
  402228:	28 00 00 00 14 00 03 1d 	lw $3,20($29)
  402230:	42 00 00 00 00 11 00 00 	addu $17,$0,$0
  402238:	34 00 00 00 10 00 02 1d 	sw $2,16($29)
  402240:	05 00 00 00 3e 00 00 03 	beq $3,$0,402340 <xcase+0x1a0>
  402248:	43 00 00 00 03 00 12 00 	addiu $18,$0,3
  402250:	43 00 00 00 03 00 04 00 	addiu $4,$0,3
  402258:	43 00 00 00 14 00 05 1d 	addiu $5,$29,20
  402260:	02 00 00 00 76 53 10 00 	jal 414dd8 <xlmatch>
  402268:	43 00 00 00 18 00 04 1d 	addiu $4,$29,24
  402270:	34 00 00 00 18 00 02 1d 	sw $2,24($29)
  402278:	02 00 00 00 4e 53 10 00 	jal 414d38 <xlarg>
  402280:	28 00 00 00 a0 84 03 1c 	lw $3,-31584($28)
  402288:	42 00 00 00 00 10 02 00 	addu $16,$0,$2
  402290:	05 00 00 00 16 00 03 10 	beq $16,$3,4022f0 <xcase+0x150>
  402298:	05 00 00 00 04 00 00 10 	beq $16,$0,4022b0 <xcase+0x110>
  4022a0:	20 00 00 00 00 00 02 10 	lb $2,0($16)
  4022a8:	06 00 00 00 08 00 12 02 	bne $2,$18,4022d0 <xcase+0x130>
  4022b0:	28 00 00 00 10 00 04 1d 	lw $4,16($29)
  4022b8:	42 00 00 00 00 05 10 00 	addu $5,$0,$16
  4022c0:	02 00 00 00 e2 08 10 00 	jal 402388 <keypresent>
  4022c8:	06 00 00 00 08 00 00 02 	bne $2,$0,4022f0 <xcase+0x150>
  4022d0:	28 00 00 00 10 00 04 1d 	lw $4,16($29)
  4022d8:	42 00 00 00 00 05 10 00 	addu $5,$0,$16
  4022e0:	02 00 00 00 2c 55 10 00 	jal 4154b0 <eql>
  4022e8:	05 00 00 00 10 00 00 02 	beq $2,$0,402330 <xcase+0x190>
  4022f0:	28 00 00 00 18 00 02 1d 	lw $2,24($29)
  4022f8:	05 00 00 00 10 00 00 02 	beq $2,$0,402340 <xcase+0x1a0>
  402300:	43 00 00 00 18 00 04 1d 	addiu $4,$29,24
  402308:	02 00 00 00 be 53 10 00 	jal 414ef8 <xlevarg>
  402310:	28 00 00 00 18 00 03 1d 	lw $3,24($29)
  402318:	42 00 00 00 00 11 02 00 	addu $17,$0,$2
  402320:	06 00 00 00 f6 ff 00 03 	bne $3,$0,402300 <xcase+0x160>
  402328:	01 00 00 00 d0 08 10 00 	j 402340 <xcase+0x1a0>
  402330:	28 00 00 00 14 00 02 1d 	lw $2,20($29)
  402338:	06 00 00 00 c4 ff 00 02 	bne $2,$0,402250 <xcase+0xb0>
  402340:	34 00 00 00 54 85 13 1c 	sw $19,-31404($28)
  402348:	42 00 00 00 00 02 11 00 	addu $2,$0,$17
  402350:	28 00 00 00 30 00 1f 1d 	lw $31,48($29)
  402358:	28 00 00 00 2c 00 13 1d 	lw $19,44($29)
  402360:	28 00 00 00 28 00 12 1d 	lw $18,40($29)
  402368:	28 00 00 00 24 00 11 1d 	lw $17,36($29)
  402370:	28 00 00 00 20 00 10 1d 	lw $16,32($29)
  402378:	43 00 00 00 38 00 1d 1d 	addiu $29,$29,56
  402380:	03 00 00 00 00 00 00 1f 	jr $31

00402388 <keypresent>:
  402388:	43 00 00 00 e0 ff 1d 1d 	addiu $29,$29,-32
  402390:	34 00 00 00 14 00 11 1d 	sw $17,20($29)
  402398:	42 00 00 00 00 11 04 00 	addu $17,$0,$4
  4023a0:	34 00 00 00 10 00 10 1d 	sw $16,16($29)
  4023a8:	42 00 00 00 00 10 05 00 	addu $16,$0,$5
  4023b0:	34 00 00 00 1c 00 1f 1d 	sw $31,28($29)
  4023b8:	34 00 00 00 18 00 12 1d 	sw $18,24($29)
  4023c0:	05 00 00 00 16 00 00 10 	beq $16,$0,402420 <keypresent+0x98>
  4023c8:	43 00 00 00 03 00 12 00 	addiu $18,$0,3
  4023d0:	20 00 00 00 00 00 02 10 	lb $2,0($16)
  4023d8:	06 00 00 00 10 00 12 02 	bne $2,$18,402420 <keypresent+0x98>
  4023e0:	28 00 00 00 04 00 04 10 	lw $4,4($16)
  4023e8:	42 00 00 00 00 05 11 00 	addu $5,$0,$17
  4023f0:	02 00 00 00 2c 55 10 00 	jal 4154b0 <eql>
  4023f8:	05 00 00 00 04 00 00 02 	beq $2,$0,402410 <keypresent+0x88>
  402400:	43 00 00 00 01 00 02 00 	addiu $2,$0,1
  402408:	01 00 00 00 0a 09 10 00 	j 402428 <keypresent+0xa0>
  402410:	28 00 00 00 08 00 10 10 	lw $16,8($16)
  402418:	06 00 00 00 ec ff 00 10 	bne $16,$0,4023d0 <keypresent+0x48>
  402420:	42 00 00 00 00 02 00 00 	addu $2,$0,$0
  402428:	28 00 00 00 1c 00 1f 1d 	lw $31,28($29)
  402430:	28 00 00 00 18 00 12 1d 	lw $18,24($29)
  402438:	28 00 00 00 14 00 11 1d 	lw $17,20($29)
  402440:	28 00 00 00 10 00 10 1d 	lw $16,16($29)
  402448:	43 00 00 00 20 00 1d 1d 	addiu $29,$29,32
  402450:	03 00 00 00 00 00 00 1f 	jr $31

00402458 <xand>:
  402458:	43 00 00 00 d8 ff 1d 1d 	addiu $29,$29,-40
  402460:	34 00 00 00 18 00 10 1d 	sw $16,24($29)
  402468:	42 00 00 00 00 10 04 00 	addu $16,$0,$4
  402470:	43 00 00 00 10 00 04 1d 	addiu $4,$29,16
  402478:	42 00 00 00 00 05 00 00 	addu $5,$0,$0
  402480:	34 00 00 00 20 00 1f 1d 	sw $31,32($29)
  402488:	34 00 00 00 1c 00 11 1d 	sw $17,28($29)
  402490:	02 00 00 00 bc 1f 10 00 	jal 407ef0 <xlsave>
  402498:	28 00 00 00 a0 84 03 1c 	lw $3,-31584($28)
  4024a0:	42 00 00 00 00 11 02 00 	addu $17,$0,$2
  4024a8:	34 00 00 00 10 00 10 1d 	sw $16,16($29)
  4024b0:	05 00 00 00 0c 00 00 10 	beq $16,$0,4024e8 <xand+0x90>
  4024b8:	43 00 00 00 10 00 04 1d 	addiu $4,$29,16
  4024c0:	02 00 00 00 be 53 10 00 	jal 414ef8 <xlevarg>
  4024c8:	42 00 00 00 00 03 02 00 	addu $3,$0,$2
  4024d0:	05 00 00 00 04 00 00 03 	beq $3,$0,4024e8 <xand+0x90>
  4024d8:	28 00 00 00 10 00 02 1d 	lw $2,16($29)
  4024e0:	06 00 00 00 f4 ff 00 02 	bne $2,$0,4024b8 <xand+0x60>
  4024e8:	34 00 00 00 54 85 11 1c 	sw $17,-31404($28)
  4024f0:	42 00 00 00 00 02 03 00 	addu $2,$0,$3
  4024f8:	28 00 00 00 20 00 1f 1d 	lw $31,32($29)
  402500:	28 00 00 00 1c 00 11 1d 	lw $17,28($29)
  402508:	28 00 00 00 18 00 10 1d 	lw $16,24($29)
  402510:	43 00 00 00 28 00 1d 1d 	addiu $29,$29,40
  402518:	03 00 00 00 00 00 00 1f 	jr $31

00402520 <xor>:
  402520:	43 00 00 00 d8 ff 1d 1d 	addiu $29,$29,-40
  402528:	34 00 00 00 18 00 10 1d 	sw $16,24($29)
  402530:	42 00 00 00 00 10 04 00 	addu $16,$0,$4
  402538:	43 00 00 00 10 00 04 1d 	addiu $4,$29,16
  402540:	42 00 00 00 00 05 00 00 	addu $5,$0,$0
  402548:	34 00 00 00 20 00 1f 1d 	sw $31,32($29)
  402550:	34 00 00 00 1c 00 11 1d 	sw $17,28($29)
  402558:	02 00 00 00 bc 1f 10 00 	jal 407ef0 <xlsave>
  402560:	42 00 00 00 00 03 00 00 	addu $3,$0,$0
  402568:	42 00 00 00 00 11 02 00 	addu $17,$0,$2
  402570:	34 00 00 00 10 00 10 1d 	sw $16,16($29)
  402578:	05 00 00 00 0c 00 00 10 	beq $16,$0,4025b0 <xor+0x90>
  402580:	43 00 00 00 10 00 04 1d 	addiu $4,$29,16
  402588:	02 00 00 00 be 53 10 00 	jal 414ef8 <xlevarg>
  402590:	42 00 00 00 00 03 02 00 	addu $3,$0,$2
  402598:	06 00 00 00 04 00 00 03 	bne $3,$0,4025b0 <xor+0x90>
  4025a0:	28 00 00 00 10 00 02 1d 	lw $2,16($29)
  4025a8:	06 00 00 00 f4 ff 00 02 	bne $2,$0,402580 <xor+0x60>
  4025b0:	34 00 00 00 54 85 11 1c 	sw $17,-31404($28)
  4025b8:	42 00 00 00 00 02 03 00 	addu $2,$0,$3
  4025c0:	28 00 00 00 20 00 1f 1d 	lw $31,32($29)
  4025c8:	28 00 00 00 1c 00 11 1d 	lw $17,28($29)
  4025d0:	28 00 00 00 18 00 10 1d 	lw $16,24($29)
  4025d8:	43 00 00 00 28 00 1d 1d 	addiu $29,$29,40
  4025e0:	03 00 00 00 00 00 00 1f 	jr $31

004025e8 <xif>:
  4025e8:	43 00 00 00 d8 ff 1d 1d 	addiu $29,$29,-40
  4025f0:	34 00 00 00 28 00 04 1d 	sw $4,40($29)
  4025f8:	43 00 00 00 10 00 04 1d 	addiu $4,$29,16
  402600:	43 00 00 00 14 00 05 1d 	addiu $5,$29,20
  402608:	43 00 00 00 18 00 06 1d 	addiu $6,$29,24
  402610:	42 00 00 00 00 07 00 00 	addu $7,$0,$0
  402618:	34 00 00 00 24 00 1f 1d 	sw $31,36($29)
  402620:	34 00 00 00 20 00 10 1d 	sw $16,32($29)
  402628:	02 00 00 00 bc 1f 10 00 	jal 407ef0 <xlsave>
  402630:	43 00 00 00 28 00 04 1d 	addiu $4,$29,40
  402638:	42 00 00 00 00 10 02 00 	addu $16,$0,$2
  402640:	02 00 00 00 4e 53 10 00 	jal 414d38 <xlarg>
  402648:	43 00 00 00 28 00 04 1d 	addiu $4,$29,40
  402650:	34 00 00 00 10 00 02 1d 	sw $2,16($29)
  402658:	02 00 00 00 4e 53 10 00 	jal 414d38 <xlarg>
  402660:	34 00 00 00 14 00 02 1d 	sw $2,20($29)
  402668:	28 00 00 00 28 00 02 1d 	lw $2,40($29)
  402670:	05 00 00 00 06 00 00 02 	beq $2,$0,402690 <xif+0xa8>
  402678:	43 00 00 00 28 00 04 1d 	addiu $4,$29,40
  402680:	02 00 00 00 4e 53 10 00 	jal 414d38 <xlarg>
  402688:	01 00 00 00 a6 09 10 00 	j 402698 <xif+0xb0>
  402690:	42 00 00 00 00 02 00 00 	addu $2,$0,$0
  402698:	34 00 00 00 18 00 02 1d 	sw $2,24($29)
  4026a0:	28 00 00 00 28 00 04 1d 	lw $4,40($29)
  4026a8:	02 00 00 00 14 55 10 00 	jal 415450 <xllastarg>
  4026b0:	28 00 00 00 10 00 04 1d 	lw $4,16($29)
  4026b8:	02 00 00 00 64 1a 10 00 	jal 406990 <xleval>
  4026c0:	05 00 00 00 04 00 00 02 	beq $2,$0,4026d8 <xif+0xf0>
  4026c8:	28 00 00 00 14 00 04 1d 	lw $4,20($29)
  4026d0:	01 00 00 00 b8 09 10 00 	j 4026e0 <xif+0xf8>
  4026d8:	28 00 00 00 18 00 04 1d 	lw $4,24($29)
  4026e0:	02 00 00 00 64 1a 10 00 	jal 406990 <xleval>
  4026e8:	34 00 00 00 54 85 10 1c 	sw $16,-31404($28)
  4026f0:	28 00 00 00 24 00 1f 1d 	lw $31,36($29)
  4026f8:	28 00 00 00 20 00 10 1d 	lw $16,32($29)
  402700:	43 00 00 00 28 00 1d 1d 	addiu $29,$29,40
  402708:	03 00 00 00 00 00 00 1f 	jr $31

00402710 <xlet>:
  402710:	43 00 00 00 e8 ff 1d 1d 	addiu $29,$29,-24
  402718:	34 00 00 00 10 00 1f 1d 	sw $31,16($29)
  402720:	43 00 00 00 01 00 05 00 	addiu $5,$0,1
  402728:	02 00 00 00 e0 09 10 00 	jal 402780 <let>
  402730:	28 00 00 00 10 00 1f 1d 	lw $31,16($29)
  402738:	43 00 00 00 18 00 1d 1d 	addiu $29,$29,24
  402740:	03 00 00 00 00 00 00 1f 	jr $31

00402748 <xletstar>:
  402748:	43 00 00 00 e8 ff 1d 1d 	addiu $29,$29,-24
  402750:	34 00 00 00 10 00 1f 1d 	sw $31,16($29)
  402758:	42 00 00 00 00 05 00 00 	addu $5,$0,$0
  402760:	02 00 00 00 e0 09 10 00 	jal 402780 <let>
  402768:	28 00 00 00 10 00 1f 1d 	lw $31,16($29)
  402770:	43 00 00 00 18 00 1d 1d 	addiu $29,$29,24
  402778:	03 00 00 00 00 00 00 1f 	jr $31

00402780 <let>:
  402780:	43 00 00 00 d8 ff 1d 1d 	addiu $29,$29,-40
  402788:	34 00 00 00 18 00 10 1d 	sw $16,24($29)
  402790:	42 00 00 00 00 10 04 00 	addu $16,$0,$4
  402798:	34 00 00 00 20 00 12 1d 	sw $18,32($29)
  4027a0:	42 00 00 00 00 12 05 00 	addu $18,$0,$5
  4027a8:	43 00 00 00 10 00 04 1d 	addiu $4,$29,16
  4027b0:	34 00 00 00 1c 00 11 1d 	sw $17,28($29)
  4027b8:	43 00 00 00 14 00 11 1d 	addiu $17,$29,20
  4027c0:	42 00 00 00 00 05 11 00 	addu $5,$0,$17
  4027c8:	42 00 00 00 00 06 00 00 	addu $6,$0,$0
  4027d0:	34 00 00 00 24 00 1f 1d 	sw $31,36($29)
  4027d8:	02 00 00 00 bc 1f 10 00 	jal 407ef0 <xlsave>
  4027e0:	28 00 00 00 60 85 04 1c 	lw $4,-31392($28)
  4027e8:	34 00 00 00 14 00 10 1d 	sw $16,20($29)
  4027f0:	42 00 00 00 00 10 02 00 	addu $16,$0,$2
  4027f8:	02 00 00 00 5c 57 10 00 	jal 415d70 <xlframe>
  402800:	34 00 00 00 10 00 02 1d 	sw $2,16($29)
  402808:	06 00 00 00 02 00 00 12 	bne $18,$0,402818 <let+0x98>
  402810:	34 00 00 00 60 85 02 1c 	sw $2,-31392($28)
  402818:	43 00 00 00 03 00 04 00 	addiu $4,$0,3
  402820:	42 00 00 00 00 05 11 00 	addu $5,$0,$17
  402828:	02 00 00 00 76 53 10 00 	jal 414dd8 <xlmatch>
  402830:	28 00 00 00 10 00 05 1d 	lw $5,16($29)
  402838:	42 00 00 00 00 04 02 00 	addu $4,$0,$2
  402840:	02 00 00 00 f8 0f 10 00 	jal 403fe0 <dobindings>
  402848:	05 00 00 00 04 00 00 12 	beq $18,$0,402860 <let+0xe0>
  402850:	28 00 00 00 10 00 02 1d 	lw $2,16($29)
  402858:	34 00 00 00 60 85 02 1c 	sw $2,-31392($28)
  402860:	28 00 00 00 14 00 02 1d 	lw $2,20($29)
  402868:	42 00 00 00 00 04 00 00 	addu $4,$0,$0
  402870:	05 00 00 00 0a 00 00 02 	beq $2,$0,4028a0 <let+0x120>
  402878:	43 00 00 00 14 00 04 1d 	addiu $4,$29,20
  402880:	02 00 00 00 be 53 10 00 	jal 414ef8 <xlevarg>
  402888:	28 00 00 00 14 00 03 1d 	lw $3,20($29)
  402890:	42 00 00 00 00 04 02 00 	addu $4,$0,$2
  402898:	06 00 00 00 f6 ff 00 03 	bne $3,$0,402878 <let+0xf8>
  4028a0:	28 00 00 00 60 85 02 1c 	lw $2,-31392($28)
  4028a8:	28 00 00 00 08 00 03 02 	lw $3,8($2)
  4028b0:	34 00 00 00 54 85 10 1c 	sw $16,-31404($28)
  4028b8:	42 00 00 00 00 02 04 00 	addu $2,$0,$4
  4028c0:	34 00 00 00 60 85 03 1c 	sw $3,-31392($28)
  4028c8:	28 00 00 00 24 00 1f 1d 	lw $31,36($29)
  4028d0:	28 00 00 00 20 00 12 1d 	lw $18,32($29)
  4028d8:	28 00 00 00 1c 00 11 1d 	lw $17,28($29)
  4028e0:	28 00 00 00 18 00 10 1d 	lw $16,24($29)
  4028e8:	43 00 00 00 28 00 1d 1d 	addiu $29,$29,40
  4028f0:	03 00 00 00 00 00 00 1f 	jr $31

004028f8 <xprog>:
  4028f8:	43 00 00 00 e8 ff 1d 1d 	addiu $29,$29,-24
  402900:	34 00 00 00 10 00 1f 1d 	sw $31,16($29)
  402908:	43 00 00 00 01 00 05 00 	addiu $5,$0,1
  402910:	02 00 00 00 5a 0a 10 00 	jal 402968 <prog>
  402918:	28 00 00 00 10 00 1f 1d 	lw $31,16($29)
  402920:	43 00 00 00 18 00 1d 1d 	addiu $29,$29,24
  402928:	03 00 00 00 00 00 00 1f 	jr $31

00402930 <xprogstar>:
  402930:	43 00 00 00 e8 ff 1d 1d 	addiu $29,$29,-24
  402938:	34 00 00 00 10 00 1f 1d 	sw $31,16($29)
  402940:	42 00 00 00 00 05 00 00 	addu $5,$0,$0
  402948:	02 00 00 00 5a 0a 10 00 	jal 402968 <prog>
  402950:	28 00 00 00 10 00 1f 1d 	lw $31,16($29)
  402958:	43 00 00 00 18 00 1d 1d 	addiu $29,$29,24
  402960:	03 00 00 00 00 00 00 1f 	jr $31

00402968 <prog>:
  402968:	43 00 00 00 d0 ff 1d 1d 	addiu $29,$29,-48
  402970:	34 00 00 00 20 00 10 1d 	sw $16,32($29)
  402978:	42 00 00 00 00 10 04 00 	addu $16,$0,$4
  402980:	34 00 00 00 28 00 12 1d 	sw $18,40($29)
  402988:	42 00 00 00 00 12 05 00 	addu $18,$0,$5
  402990:	43 00 00 00 10 00 04 1d 	addiu $4,$29,16
  402998:	34 00 00 00 24 00 11 1d 	sw $17,36($29)
  4029a0:	43 00 00 00 14 00 11 1d 	addiu $17,$29,20
  4029a8:	42 00 00 00 00 05 11 00 	addu $5,$0,$17
  4029b0:	42 00 00 00 00 06 00 00 	addu $6,$0,$0
  4029b8:	34 00 00 00 2c 00 1f 1d 	sw $31,44($29)
  4029c0:	02 00 00 00 bc 1f 10 00 	jal 407ef0 <xlsave>
  4029c8:	28 00 00 00 60 85 04 1c 	lw $4,-31392($28)
  4029d0:	34 00 00 00 14 00 10 1d 	sw $16,20($29)
  4029d8:	42 00 00 00 00 10 02 00 	addu $16,$0,$2
  4029e0:	02 00 00 00 5c 57 10 00 	jal 415d70 <xlframe>
  4029e8:	34 00 00 00 10 00 02 1d 	sw $2,16($29)
  4029f0:	06 00 00 00 02 00 00 12 	bne $18,$0,402a00 <prog+0x98>
  4029f8:	34 00 00 00 60 85 02 1c 	sw $2,-31392($28)
  402a00:	43 00 00 00 03 00 04 00 	addiu $4,$0,3
  402a08:	42 00 00 00 00 05 11 00 	addu $5,$0,$17
  402a10:	02 00 00 00 76 53 10 00 	jal 414dd8 <xlmatch>
  402a18:	28 00 00 00 10 00 05 1d 	lw $5,16($29)
  402a20:	42 00 00 00 00 04 02 00 	addu $4,$0,$2
  402a28:	02 00 00 00 f8 0f 10 00 	jal 403fe0 <dobindings>
  402a30:	05 00 00 00 04 00 00 12 	beq $18,$0,402a48 <prog+0xe0>
  402a38:	28 00 00 00 10 00 02 1d 	lw $2,16($29)
  402a40:	34 00 00 00 60 85 02 1c 	sw $2,-31392($28)
  402a48:	28 00 00 00 14 00 04 1d 	lw $4,20($29)
  402a50:	43 00 00 00 18 00 05 1d 	addiu $5,$29,24
  402a58:	02 00 00 00 16 11 10 00 	jal 404458 <tagblock>
  402a60:	28 00 00 00 60 85 03 1c 	lw $3,-31392($28)
  402a68:	28 00 00 00 18 00 02 1d 	lw $2,24($29)
  402a70:	28 00 00 00 08 00 03 03 	lw $3,8($3)
  402a78:	34 00 00 00 54 85 10 1c 	sw $16,-31404($28)
  402a80:	34 00 00 00 60 85 03 1c 	sw $3,-31392($28)
  402a88:	28 00 00 00 2c 00 1f 1d 	lw $31,44($29)
  402a90:	28 00 00 00 28 00 12 1d 	lw $18,40($29)
  402a98:	28 00 00 00 24 00 11 1d 	lw $17,36($29)
  402aa0:	28 00 00 00 20 00 10 1d 	lw $16,32($29)
  402aa8:	43 00 00 00 30 00 1d 1d 	addiu $29,$29,48
  402ab0:	03 00 00 00 00 00 00 1f 	jr $31

00402ab8 <xgo>:
  402ab8:	43 00 00 00 e8 ff 1d 1d 	addiu $29,$29,-24
  402ac0:	34 00 00 00 18 00 04 1d 	sw $4,24($29)
  402ac8:	43 00 00 00 18 00 04 1d 	addiu $4,$29,24
  402ad0:	34 00 00 00 14 00 1f 1d 	sw $31,20($29)
  402ad8:	34 00 00 00 10 00 10 1d 	sw $16,16($29)
  402ae0:	02 00 00 00 4e 53 10 00 	jal 414d38 <xlarg>
  402ae8:	28 00 00 00 18 00 04 1d 	lw $4,24($29)
  402af0:	42 00 00 00 00 10 02 00 	addu $16,$0,$2
  402af8:	02 00 00 00 14 55 10 00 	jal 415450 <xllastarg>
  402b00:	42 00 00 00 00 04 10 00 	addu $4,$0,$16
  402b08:	02 00 00 00 6a 28 10 00 	jal 40a1a8 <xlgo>
  402b10:	42 00 00 00 00 02 00 00 	addu $2,$0,$0
  402b18:	28 00 00 00 14 00 1f 1d 	lw $31,20($29)
  402b20:	28 00 00 00 10 00 10 1d 	lw $16,16($29)
  402b28:	43 00 00 00 18 00 1d 1d 	addiu $29,$29,24
  402b30:	03 00 00 00 00 00 00 1f 	jr $31

00402b38 <xreturn>:
  402b38:	43 00 00 00 e8 ff 1d 1d 	addiu $29,$29,-24
  402b40:	34 00 00 00 14 00 1f 1d 	sw $31,20($29)
  402b48:	34 00 00 00 10 00 10 1d 	sw $16,16($29)
  402b50:	34 00 00 00 18 00 04 1d 	sw $4,24($29)
  402b58:	05 00 00 00 08 00 00 04 	beq $4,$0,402b80 <xreturn+0x48>
  402b60:	43 00 00 00 18 00 04 1d 	addiu $4,$29,24
  402b68:	02 00 00 00 4e 53 10 00 	jal 414d38 <xlarg>
  402b70:	42 00 00 00 00 10 02 00 	addu $16,$0,$2
  402b78:	01 00 00 00 e2 0a 10 00 	j 402b88 <xreturn+0x50>
  402b80:	42 00 00 00 00 10 00 00 	addu $16,$0,$0
  402b88:	28 00 00 00 18 00 04 1d 	lw $4,24($29)
  402b90:	02 00 00 00 14 55 10 00 	jal 415450 <xllastarg>
  402b98:	42 00 00 00 00 04 10 00 	addu $4,$0,$16
  402ba0:	02 00 00 00 b0 28 10 00 	jal 40a2c0 <xlreturn>
  402ba8:	42 00 00 00 00 02 00 00 	addu $2,$0,$0
  402bb0:	28 00 00 00 14 00 1f 1d 	lw $31,20($29)
  402bb8:	28 00 00 00 10 00 10 1d 	lw $16,16($29)
  402bc0:	43 00 00 00 18 00 1d 1d 	addiu $29,$29,24
  402bc8:	03 00 00 00 00 00 00 1f 	jr $31

00402bd0 <xprog1>:
  402bd0:	43 00 00 00 e8 ff 1d 1d 	addiu $29,$29,-24
  402bd8:	34 00 00 00 10 00 1f 1d 	sw $31,16($29)
  402be0:	43 00 00 00 01 00 05 00 	addiu $5,$0,1
  402be8:	02 00 00 00 10 0b 10 00 	jal 402c40 <progx>
  402bf0:	28 00 00 00 10 00 1f 1d 	lw $31,16($29)
  402bf8:	43 00 00 00 18 00 1d 1d 	addiu $29,$29,24
  402c00:	03 00 00 00 00 00 00 1f 	jr $31

00402c08 <xprog2>:
  402c08:	43 00 00 00 e8 ff 1d 1d 	addiu $29,$29,-24
  402c10:	34 00 00 00 10 00 1f 1d 	sw $31,16($29)
  402c18:	43 00 00 00 02 00 05 00 	addiu $5,$0,2
  402c20:	02 00 00 00 10 0b 10 00 	jal 402c40 <progx>
  402c28:	28 00 00 00 10 00 1f 1d 	lw $31,16($29)
  402c30:	43 00 00 00 18 00 1d 1d 	addiu $29,$29,24
  402c38:	03 00 00 00 00 00 00 1f 	jr $31

00402c40 <progx>:
  402c40:	43 00 00 00 d8 ff 1d 1d 	addiu $29,$29,-40
  402c48:	34 00 00 00 18 00 10 1d 	sw $16,24($29)
  402c50:	42 00 00 00 00 10 04 00 	addu $16,$0,$4
  402c58:	34 00 00 00 1c 00 11 1d 	sw $17,28($29)
  402c60:	42 00 00 00 00 11 05 00 	addu $17,$0,$5
  402c68:	43 00 00 00 10 00 04 1d 	addiu $4,$29,16
  402c70:	43 00 00 00 14 00 05 1d 	addiu $5,$29,20
  402c78:	42 00 00 00 00 06 00 00 	addu $6,$0,$0
  402c80:	34 00 00 00 24 00 1f 1d 	sw $31,36($29)
  402c88:	34 00 00 00 20 00 12 1d 	sw $18,32($29)
  402c90:	02 00 00 00 bc 1f 10 00 	jal 407ef0 <xlsave>
  402c98:	43 00 00 00 ff ff 11 11 	addiu $17,$17,-1
  402ca0:	42 00 00 00 00 12 02 00 	addu $18,$0,$2
  402ca8:	43 00 00 00 ff ff 02 00 	addiu $2,$0,-1
  402cb0:	34 00 00 00 10 00 10 1d 	sw $16,16($29)
  402cb8:	05 00 00 00 4e 00 02 11 	beq $17,$2,402df8 <progx+0x1b8>
  402cc0:	43 00 00 00 ff ff 10 00 	addiu $16,$0,-1
  402cc8:	54 00 00 00 00 02 11 00 	nor $2,$0,$17
  402cd0:	4f 00 00 00 03 00 03 02 	andi $3,$2,3
  402cd8:	09 00 00 00 1a 00 00 11 	bltz $17,402d48 <progx+0x108>
  402ce0:	05 00 00 00 22 00 00 03 	beq $3,$0,402d70 <progx+0x130>
  402ce8:	5c 00 00 00 03 00 02 03 	slti $2,$3,3
  402cf0:	05 00 00 00 14 00 00 02 	beq $2,$0,402d48 <progx+0x108>
  402cf8:	5c 00 00 00 02 00 02 03 	slti $2,$3,2
  402d00:	05 00 00 00 08 00 00 02 	beq $2,$0,402d28 <progx+0xe8>
  402d08:	43 00 00 00 10 00 04 1d 	addiu $4,$29,16
  402d10:	02 00 00 00 be 53 10 00 	jal 414ef8 <xlevarg>
  402d18:	34 00 00 00 14 00 02 1d 	sw $2,20($29)
  402d20:	43 00 00 00 ff ff 11 11 	addiu $17,$17,-1
  402d28:	43 00 00 00 10 00 04 1d 	addiu $4,$29,16
  402d30:	02 00 00 00 be 53 10 00 	jal 414ef8 <xlevarg>
  402d38:	34 00 00 00 14 00 02 1d 	sw $2,20($29)
  402d40:	43 00 00 00 ff ff 11 11 	addiu $17,$17,-1
  402d48:	43 00 00 00 10 00 04 1d 	addiu $4,$29,16
  402d50:	02 00 00 00 be 53 10 00 	jal 414ef8 <xlevarg>
  402d58:	34 00 00 00 14 00 02 1d 	sw $2,20($29)
  402d60:	43 00 00 00 ff ff 11 11 	addiu $17,$17,-1
  402d68:	05 00 00 00 22 00 10 11 	beq $17,$16,402df8 <progx+0x1b8>
  402d70:	43 00 00 00 10 00 04 1d 	addiu $4,$29,16
  402d78:	02 00 00 00 be 53 10 00 	jal 414ef8 <xlevarg>
  402d80:	43 00 00 00 10 00 04 1d 	addiu $4,$29,16
  402d88:	34 00 00 00 14 00 02 1d 	sw $2,20($29)
  402d90:	02 00 00 00 be 53 10 00 	jal 414ef8 <xlevarg>
  402d98:	43 00 00 00 10 00 04 1d 	addiu $4,$29,16
  402da0:	34 00 00 00 14 00 02 1d 	sw $2,20($29)
  402da8:	02 00 00 00 be 53 10 00 	jal 414ef8 <xlevarg>
  402db0:	43 00 00 00 10 00 04 1d 	addiu $4,$29,16
  402db8:	34 00 00 00 14 00 02 1d 	sw $2,20($29)
  402dc0:	02 00 00 00 be 53 10 00 	jal 414ef8 <xlevarg>
  402dc8:	43 00 00 00 fc ff 11 11 	addiu $17,$17,-4
  402dd0:	34 00 00 00 14 00 02 1d 	sw $2,20($29)
  402dd8:	06 00 00 00 e4 ff 10 11 	bne $17,$16,402d70 <progx+0x130>
  402de0:	01 00 00 00 7e 0b 10 00 	j 402df8 <progx+0x1b8>
  402de8:	43 00 00 00 10 00 04 1d 	addiu $4,$29,16
  402df0:	02 00 00 00 be 53 10 00 	jal 414ef8 <xlevarg>
  402df8:	28 00 00 00 10 00 02 1d 	lw $2,16($29)
  402e00:	06 00 00 00 f8 ff 00 02 	bne $2,$0,402de8 <progx+0x1a8>
  402e08:	28 00 00 00 14 00 02 1d 	lw $2,20($29)
  402e10:	34 00 00 00 54 85 12 1c 	sw $18,-31404($28)
  402e18:	28 00 00 00 24 00 1f 1d 	lw $31,36($29)
  402e20:	28 00 00 00 20 00 12 1d 	lw $18,32($29)
  402e28:	28 00 00 00 1c 00 11 1d 	lw $17,28($29)
  402e30:	28 00 00 00 18 00 10 1d 	lw $16,24($29)
  402e38:	43 00 00 00 28 00 1d 1d 	addiu $29,$29,40
  402e40:	03 00 00 00 00 00 00 1f 	jr $31

00402e48 <xprogn>:
  402e48:	43 00 00 00 d8 ff 1d 1d 	addiu $29,$29,-40
  402e50:	34 00 00 00 18 00 10 1d 	sw $16,24($29)
  402e58:	42 00 00 00 00 10 04 00 	addu $16,$0,$4
  402e60:	43 00 00 00 10 00 04 1d 	addiu $4,$29,16
  402e68:	42 00 00 00 00 05 00 00 	addu $5,$0,$0
  402e70:	34 00 00 00 20 00 1f 1d 	sw $31,32($29)
  402e78:	34 00 00 00 1c 00 11 1d 	sw $17,28($29)
  402e80:	02 00 00 00 bc 1f 10 00 	jal 407ef0 <xlsave>
  402e88:	42 00 00 00 00 04 00 00 	addu $4,$0,$0
  402e90:	42 00 00 00 00 11 02 00 	addu $17,$0,$2
  402e98:	34 00 00 00 10 00 10 1d 	sw $16,16($29)
  402ea0:	05 00 00 00 0a 00 00 10 	beq $16,$0,402ed0 <xprogn+0x88>
  402ea8:	43 00 00 00 10 00 04 1d 	addiu $4,$29,16
  402eb0:	02 00 00 00 be 53 10 00 	jal 414ef8 <xlevarg>
  402eb8:	28 00 00 00 10 00 03 1d 	lw $3,16($29)
  402ec0:	42 00 00 00 00 04 02 00 	addu $4,$0,$2
  402ec8:	06 00 00 00 f6 ff 00 03 	bne $3,$0,402ea8 <xprogn+0x60>
  402ed0:	34 00 00 00 54 85 11 1c 	sw $17,-31404($28)
  402ed8:	42 00 00 00 00 02 04 00 	addu $2,$0,$4
  402ee0:	28 00 00 00 20 00 1f 1d 	lw $31,32($29)
  402ee8:	28 00 00 00 1c 00 11 1d 	lw $17,28($29)
  402ef0:	28 00 00 00 18 00 10 1d 	lw $16,24($29)
  402ef8:	43 00 00 00 28 00 1d 1d 	addiu $29,$29,40
  402f00:	03 00 00 00 00 00 00 1f 	jr $31

00402f08 <xdo>:
  402f08:	43 00 00 00 e8 ff 1d 1d 	addiu $29,$29,-24
  402f10:	34 00 00 00 10 00 1f 1d 	sw $31,16($29)
  402f18:	43 00 00 00 01 00 05 00 	addiu $5,$0,1
  402f20:	02 00 00 00 de 0b 10 00 	jal 402f78 <doloop>
  402f28:	28 00 00 00 10 00 1f 1d 	lw $31,16($29)
  402f30:	43 00 00 00 18 00 1d 1d 	addiu $29,$29,24
  402f38:	03 00 00 00 00 00 00 1f 	jr $31

00402f40 <xdostar>:
  402f40:	43 00 00 00 e8 ff 1d 1d 	addiu $29,$29,-24
  402f48:	34 00 00 00 10 00 1f 1d 	sw $31,16($29)
  402f50:	42 00 00 00 00 05 00 00 	addu $5,$0,$0
  402f58:	02 00 00 00 de 0b 10 00 	jal 402f78 <doloop>
  402f60:	28 00 00 00 10 00 1f 1d 	lw $31,16($29)
  402f68:	43 00 00 00 18 00 1d 1d 	addiu $29,$29,24
  402f70:	03 00 00 00 00 00 00 1f 	jr $31

00402f78 <doloop>:
  402f78:	43 00 00 00 b8 ff 1d 1d 	addiu $29,$29,-72
  402f80:	34 00 00 00 30 00 10 1d 	sw $16,48($29)
  402f88:	42 00 00 00 00 10 04 00 	addu $16,$0,$4
  402f90:	34 00 00 00 38 00 12 1d 	sw $18,56($29)
  402f98:	42 00 00 00 00 12 05 00 	addu $18,$0,$5
  402fa0:	43 00 00 00 18 00 04 1d 	addiu $4,$29,24
  402fa8:	34 00 00 00 34 00 11 1d 	sw $17,52($29)
  402fb0:	43 00 00 00 1c 00 11 1d 	addiu $17,$29,28
  402fb8:	42 00 00 00 00 05 11 00 	addu $5,$0,$17
  402fc0:	43 00 00 00 28 00 02 1d 	addiu $2,$29,40
  402fc8:	34 00 00 00 3c 00 13 1d 	sw $19,60($29)
  402fd0:	43 00 00 00 24 00 13 1d 	addiu $19,$29,36
  402fd8:	43 00 00 00 20 00 06 1d 	addiu $6,$29,32
  402fe0:	42 00 00 00 00 07 13 00 	addu $7,$0,$19
  402fe8:	34 00 00 00 44 00 1f 1d 	sw $31,68($29)
  402ff0:	34 00 00 00 40 00 14 1d 	sw $20,64($29)
  402ff8:	34 00 00 00 10 00 02 1d 	sw $2,16($29)
  403000:	34 00 00 00 14 00 00 1d 	sw $0,20($29)
  403008:	02 00 00 00 bc 1f 10 00 	jal 407ef0 <xlsave>
  403010:	43 00 00 00 03 00 04 00 	addiu $4,$0,3
  403018:	42 00 00 00 00 05 11 00 	addu $5,$0,$17
  403020:	42 00 00 00 00 14 02 00 	addu $20,$0,$2
  403028:	34 00 00 00 1c 00 10 1d 	sw $16,28($29)
  403030:	02 00 00 00 76 53 10 00 	jal 414dd8 <xlmatch>
  403038:	28 00 00 00 60 85 04 1c 	lw $4,-31392($28)
  403040:	34 00 00 00 20 00 02 1d 	sw $2,32($29)
  403048:	02 00 00 00 5c 57 10 00 	jal 415d70 <xlframe>
  403050:	34 00 00 00 18 00 02 1d 	sw $2,24($29)
  403058:	06 00 00 00 02 00 00 12 	bne $18,$0,403068 <doloop+0xf0>
  403060:	34 00 00 00 60 85 02 1c 	sw $2,-31392($28)
  403068:	28 00 00 00 20 00 04 1d 	lw $4,32($29)
  403070:	42 00 00 00 00 05 02 00 	addu $5,$0,$2
  403078:	02 00 00 00 f8 0f 10 00 	jal 403fe0 <dobindings>
  403080:	05 00 00 00 04 00 00 12 	beq $18,$0,403098 <doloop+0x120>
  403088:	28 00 00 00 18 00 02 1d 	lw $2,24($29)
  403090:	34 00 00 00 60 85 02 1c 	sw $2,-31392($28)
  403098:	43 00 00 00 03 00 04 00 	addiu $4,$0,3
  4030a0:	42 00 00 00 00 05 11 00 	addu $5,$0,$17
  4030a8:	02 00 00 00 76 53 10 00 	jal 414dd8 <xlmatch>
  4030b0:	42 00 00 00 00 04 13 00 	addu $4,$0,$19
  4030b8:	34 00 00 00 24 00 02 1d 	sw $2,36($29)
  4030c0:	02 00 00 00 4e 53 10 00 	jal 414d38 <xlarg>
  4030c8:	42 00 00 00 00 10 00 00 	addu $16,$0,$0
  4030d0:	34 00 00 00 28 00 02 1d 	sw $2,40($29)
  4030d8:	28 00 00 00 28 00 04 1d 	lw $4,40($29)
  4030e0:	02 00 00 00 64 1a 10 00 	jal 406990 <xleval>
  4030e8:	06 00 00 00 12 00 00 02 	bne $2,$0,403138 <doloop+0x1c0>
  4030f0:	28 00 00 00 1c 00 04 1d 	lw $4,28($29)
  4030f8:	43 00 00 00 2c 00 05 1d 	addiu $5,$29,44
  403100:	02 00 00 00 16 11 10 00 	jal 404458 <tagblock>
  403108:	06 00 00 00 08 00 00 02 	bne $2,$0,403130 <doloop+0x1b8>
  403110:	28 00 00 00 20 00 04 1d 	lw $4,32($29)
  403118:	42 00 00 00 00 05 12 00 	addu $5,$0,$18
  403120:	02 00 00 00 78 10 10 00 	jal 4041e0 <doupdates>
  403128:	01 00 00 00 36 0c 10 00 	j 4030d8 <doloop+0x160>
  403130:	43 00 00 00 01 00 10 00 	addiu $16,$0,1
  403138:	06 00 00 00 18 00 00 10 	bne $16,$0,4031a0 <doloop+0x228>
  403140:	28 00 00 00 24 00 02 1d 	lw $2,36($29)
  403148:	34 00 00 00 2c 00 00 1d 	sw $0,44($29)
  403150:	05 00 00 00 12 00 00 02 	beq $2,$0,4031a0 <doloop+0x228>
  403158:	43 00 00 00 03 00 10 00 	addiu $16,$0,3
  403160:	28 00 00 00 24 00 02 1d 	lw $2,36($29)
  403168:	20 00 00 00 00 00 02 02 	lb $2,0($2)
  403170:	06 00 00 00 0a 00 10 02 	bne $2,$16,4031a0 <doloop+0x228>
  403178:	43 00 00 00 24 00 04 1d 	addiu $4,$29,36
  403180:	02 00 00 00 be 53 10 00 	jal 414ef8 <xlevarg>
  403188:	28 00 00 00 24 00 03 1d 	lw $3,36($29)
  403190:	34 00 00 00 2c 00 02 1d 	sw $2,44($29)
  403198:	06 00 00 00 f0 ff 00 03 	bne $3,$0,403160 <doloop+0x1e8>
  4031a0:	28 00 00 00 60 85 03 1c 	lw $3,-31392($28)
  4031a8:	28 00 00 00 2c 00 02 1d 	lw $2,44($29)
  4031b0:	28 00 00 00 08 00 03 03 	lw $3,8($3)
  4031b8:	34 00 00 00 54 85 14 1c 	sw $20,-31404($28)
  4031c0:	34 00 00 00 60 85 03 1c 	sw $3,-31392($28)
  4031c8:	28 00 00 00 44 00 1f 1d 	lw $31,68($29)
  4031d0:	28 00 00 00 40 00 14 1d 	lw $20,64($29)
  4031d8:	28 00 00 00 3c 00 13 1d 	lw $19,60($29)
  4031e0:	28 00 00 00 38 00 12 1d 	lw $18,56($29)
  4031e8:	28 00 00 00 34 00 11 1d 	lw $17,52($29)
  4031f0:	28 00 00 00 30 00 10 1d 	lw $16,48($29)
  4031f8:	43 00 00 00 48 00 1d 1d 	addiu $29,$29,72
  403200:	03 00 00 00 00 00 00 1f 	jr $31

00403208 <xdolist>:
  403208:	43 00 00 00 c0 ff 1d 1d 	addiu $29,$29,-64
  403210:	34 00 00 00 30 00 10 1d 	sw $16,48($29)
  403218:	42 00 00 00 00 10 04 00 	addu $16,$0,$4
  403220:	43 00 00 00 18 00 04 1d 	addiu $4,$29,24
  403228:	34 00 00 00 34 00 11 1d 	sw $17,52($29)
  403230:	43 00 00 00 1c 00 11 1d 	addiu $17,$29,28
  403238:	42 00 00 00 00 05 11 00 	addu $5,$0,$17
  403240:	43 00 00 00 20 00 06 1d 	addiu $6,$29,32
  403248:	43 00 00 00 28 00 02 1d 	addiu $2,$29,40
  403250:	43 00 00 00 24 00 07 1d 	addiu $7,$29,36
  403258:	34 00 00 00 3c 00 1f 1d 	sw $31,60($29)
  403260:	34 00 00 00 38 00 12 1d 	sw $18,56($29)
  403268:	34 00 00 00 10 00 02 1d 	sw $2,16($29)
  403270:	34 00 00 00 14 00 00 1d 	sw $0,20($29)
  403278:	02 00 00 00 bc 1f 10 00 	jal 407ef0 <xlsave>
  403280:	43 00 00 00 03 00 04 00 	addiu $4,$0,3
  403288:	43 00 00 00 18 00 05 1d 	addiu $5,$29,24
  403290:	42 00 00 00 00 12 02 00 	addu $18,$0,$2
  403298:	34 00 00 00 18 00 10 1d 	sw $16,24($29)
  4032a0:	02 00 00 00 76 53 10 00 	jal 414dd8 <xlmatch>
  4032a8:	43 00 00 00 04 00 04 00 	addiu $4,$0,4
  4032b0:	42 00 00 00 00 05 11 00 	addu $5,$0,$17
  4032b8:	34 00 00 00 1c 00 02 1d 	sw $2,28($29)
  4032c0:	02 00 00 00 76 53 10 00 	jal 414dd8 <xlmatch>
  4032c8:	43 00 00 00 03 00 04 00 	addiu $4,$0,3
  4032d0:	42 00 00 00 00 05 11 00 	addu $5,$0,$17
  4032d8:	34 00 00 00 20 00 02 1d 	sw $2,32($29)
  4032e0:	02 00 00 00 fa 53 10 00 	jal 414fe8 <xlevmatch>
  4032e8:	28 00 00 00 1c 00 03 1d 	lw $3,28($29)
  4032f0:	34 00 00 00 24 00 02 1d 	sw $2,36($29)
  4032f8:	05 00 00 00 0a 00 00 03 	beq $3,$0,403328 <xdolist+0x120>
  403300:	42 00 00 00 00 04 11 00 	addu $4,$0,$17
  403308:	02 00 00 00 4e 53 10 00 	jal 414d38 <xlarg>
  403310:	01 00 00 00 cc 0c 10 00 	j 403330 <xdolist+0x128>
  403318:	43 00 00 00 01 00 10 00 	addiu $16,$0,1
  403320:	01 00 00 00 00 0d 10 00 	j 403400 <xdolist+0x1f8>
  403328:	42 00 00 00 00 02 00 00 	addu $2,$0,$0
  403330:	28 00 00 00 60 85 04 1c 	lw $4,-31392($28)
  403338:	34 00 00 00 28 00 02 1d 	sw $2,40($29)
  403340:	02 00 00 00 5c 57 10 00 	jal 415d70 <xlframe>
  403348:	28 00 00 00 20 00 04 1d 	lw $4,32($29)
  403350:	42 00 00 00 00 05 00 00 	addu $5,$0,$0
  403358:	42 00 00 00 00 06 02 00 	addu $6,$0,$2
  403360:	34 00 00 00 60 85 06 1c 	sw $6,-31392($28)
  403368:	02 00 00 00 68 57 10 00 	jal 415da0 <xlbind>
  403370:	28 00 00 00 24 00 02 1d 	lw $2,36($29)
  403378:	42 00 00 00 00 10 00 00 	addu $16,$0,$0
  403380:	05 00 00 00 1e 00 00 02 	beq $2,$0,403400 <xdolist+0x1f8>
  403388:	43 00 00 00 03 00 11 00 	addiu $17,$0,3
  403390:	28 00 00 00 24 00 03 1d 	lw $3,36($29)
  403398:	20 00 00 00 00 00 02 03 	lb $2,0($3)
  4033a0:	06 00 00 00 16 00 11 02 	bne $2,$17,403400 <xdolist+0x1f8>
  4033a8:	28 00 00 00 20 00 04 1d 	lw $4,32($29)
  4033b0:	28 00 00 00 04 00 05 03 	lw $5,4($3)
  4033b8:	02 00 00 00 0c 58 10 00 	jal 416030 <xlsetvalue>
  4033c0:	28 00 00 00 18 00 04 1d 	lw $4,24($29)
  4033c8:	43 00 00 00 2c 00 05 1d 	addiu $5,$29,44
  4033d0:	02 00 00 00 16 11 10 00 	jal 404458 <tagblock>
  4033d8:	06 00 00 00 ce ff 00 02 	bne $2,$0,403318 <xdolist+0x110>
  4033e0:	28 00 00 00 24 00 02 1d 	lw $2,36($29)
  4033e8:	28 00 00 00 08 00 02 02 	lw $2,8($2)
  4033f0:	34 00 00 00 24 00 02 1d 	sw $2,36($29)
  4033f8:	06 00 00 00 e4 ff 00 02 	bne $2,$0,403390 <xdolist+0x188>
  403400:	06 00 00 00 0c 00 00 10 	bne $16,$0,403438 <xdolist+0x230>
  403408:	28 00 00 00 20 00 04 1d 	lw $4,32($29)
  403410:	42 00 00 00 00 05 00 00 	addu $5,$0,$0
  403418:	02 00 00 00 0c 58 10 00 	jal 416030 <xlsetvalue>
  403420:	28 00 00 00 28 00 04 1d 	lw $4,40($29)
  403428:	02 00 00 00 64 1a 10 00 	jal 406990 <xleval>
  403430:	34 00 00 00 2c 00 02 1d 	sw $2,44($29)
  403438:	28 00 00 00 60 85 03 1c 	lw $3,-31392($28)
  403440:	28 00 00 00 2c 00 02 1d 	lw $2,44($29)
  403448:	28 00 00 00 08 00 03 03 	lw $3,8($3)
  403450:	34 00 00 00 54 85 12 1c 	sw $18,-31404($28)
  403458:	34 00 00 00 60 85 03 1c 	sw $3,-31392($28)
  403460:	28 00 00 00 3c 00 1f 1d 	lw $31,60($29)
  403468:	28 00 00 00 38 00 12 1d 	lw $18,56($29)
  403470:	28 00 00 00 34 00 11 1d 	lw $17,52($29)
  403478:	28 00 00 00 30 00 10 1d 	lw $16,48($29)
  403480:	43 00 00 00 40 00 1d 1d 	addiu $29,$29,64
  403488:	03 00 00 00 00 00 00 1f 	jr $31

00403490 <xdotimes>:
  403490:	43 00 00 00 b0 ff 1d 1d 	addiu $29,$29,-80
  403498:	34 00 00 00 38 00 10 1d 	sw $16,56($29)
  4034a0:	42 00 00 00 00 10 04 00 	addu $16,$0,$4
  4034a8:	43 00 00 00 18 00 04 1d 	addiu $4,$29,24
  4034b0:	34 00 00 00 3c 00 11 1d 	sw $17,60($29)
  4034b8:	43 00 00 00 1c 00 11 1d 	addiu $17,$29,28
  4034c0:	42 00 00 00 00 05 11 00 	addu $5,$0,$17
  4034c8:	43 00 00 00 20 00 06 1d 	addiu $6,$29,32
  4034d0:	43 00 00 00 24 00 07 1d 	addiu $7,$29,36
  4034d8:	34 00 00 00 48 00 1f 1d 	sw $31,72($29)
  4034e0:	34 00 00 00 44 00 13 1d 	sw $19,68($29)
  4034e8:	34 00 00 00 40 00 12 1d 	sw $18,64($29)
  4034f0:	34 00 00 00 10 00 00 1d 	sw $0,16($29)
  4034f8:	02 00 00 00 bc 1f 10 00 	jal 407ef0 <xlsave>
  403500:	43 00 00 00 03 00 04 00 	addiu $4,$0,3
  403508:	43 00 00 00 18 00 05 1d 	addiu $5,$29,24
  403510:	42 00 00 00 00 13 02 00 	addu $19,$0,$2
  403518:	34 00 00 00 18 00 10 1d 	sw $16,24($29)
  403520:	02 00 00 00 76 53 10 00 	jal 414dd8 <xlmatch>
  403528:	43 00 00 00 04 00 04 00 	addiu $4,$0,4
  403530:	42 00 00 00 00 05 11 00 	addu $5,$0,$17
  403538:	34 00 00 00 1c 00 02 1d 	sw $2,28($29)
  403540:	02 00 00 00 76 53 10 00 	jal 414dd8 <xlmatch>
  403548:	43 00 00 00 05 00 04 00 	addiu $4,$0,5
  403550:	42 00 00 00 00 05 11 00 	addu $5,$0,$17
  403558:	34 00 00 00 20 00 02 1d 	sw $2,32($29)
  403560:	02 00 00 00 fa 53 10 00 	jal 414fe8 <xlevmatch>
  403568:	28 00 00 00 1c 00 03 1d 	lw $3,28($29)
  403570:	28 00 00 00 04 00 12 02 	lw $18,4($2)
  403578:	05 00 00 00 0a 00 00 03 	beq $3,$0,4035a8 <xdotimes+0x118>
  403580:	42 00 00 00 00 04 11 00 	addu $4,$0,$17
  403588:	02 00 00 00 4e 53 10 00 	jal 414d38 <xlarg>
  403590:	01 00 00 00 6c 0d 10 00 	j 4035b0 <xdotimes+0x120>
  403598:	43 00 00 00 01 00 11 00 	addiu $17,$0,1
  4035a0:	01 00 00 00 9a 0d 10 00 	j 403668 <xdotimes+0x1d8>
  4035a8:	42 00 00 00 00 02 00 00 	addu $2,$0,$0
  4035b0:	28 00 00 00 60 85 04 1c 	lw $4,-31392($28)
  4035b8:	42 00 00 00 00 10 00 00 	addu $16,$0,$0
  4035c0:	42 00 00 00 00 11 00 00 	addu $17,$0,$0
  4035c8:	34 00 00 00 24 00 02 1d 	sw $2,36($29)
  4035d0:	02 00 00 00 5c 57 10 00 	jal 415d70 <xlframe>
  4035d8:	28 00 00 00 20 00 04 1d 	lw $4,32($29)
  4035e0:	42 00 00 00 00 05 00 00 	addu $5,$0,$0
  4035e8:	42 00 00 00 00 06 02 00 	addu $6,$0,$2
  4035f0:	34 00 00 00 60 85 06 1c 	sw $6,-31392($28)
  4035f8:	02 00 00 00 68 57 10 00 	jal 415da0 <xlbind>
  403600:	07 00 00 00 18 00 00 12 	blez $18,403668 <xdotimes+0x1d8>
  403608:	42 00 00 00 00 04 10 00 	addu $4,$0,$16
  403610:	02 00 00 00 50 15 10 00 	jal 405540 <cvfixnum>
  403618:	28 00 00 00 20 00 04 1d 	lw $4,32($29)
  403620:	42 00 00 00 00 05 02 00 	addu $5,$0,$2
  403628:	02 00 00 00 0c 58 10 00 	jal 416030 <xlsetvalue>
  403630:	28 00 00 00 18 00 04 1d 	lw $4,24($29)
  403638:	43 00 00 00 28 00 05 1d 	addiu $5,$29,40
  403640:	02 00 00 00 16 11 10 00 	jal 404458 <tagblock>
  403648:	06 00 00 00 d2 ff 00 02 	bne $2,$0,403598 <xdotimes+0x108>
  403650:	43 00 00 00 01 00 10 10 	addiu $16,$16,1
  403658:	5b 00 00 00 00 02 12 10 	slt $2,$16,$18
  403660:	06 00 00 00 e8 ff 00 02 	bne $2,$0,403608 <xdotimes+0x178>
  403668:	06 00 00 00 10 00 00 11 	bne $17,$0,4036b0 <xdotimes+0x220>
  403670:	42 00 00 00 00 04 12 00 	addu $4,$0,$18
  403678:	02 00 00 00 50 15 10 00 	jal 405540 <cvfixnum>
  403680:	28 00 00 00 20 00 04 1d 	lw $4,32($29)
  403688:	42 00 00 00 00 05 02 00 	addu $5,$0,$2
  403690:	02 00 00 00 0c 58 10 00 	jal 416030 <xlsetvalue>
  403698:	28 00 00 00 24 00 04 1d 	lw $4,36($29)
  4036a0:	02 00 00 00 64 1a 10 00 	jal 406990 <xleval>
  4036a8:	34 00 00 00 28 00 02 1d 	sw $2,40($29)
  4036b0:	28 00 00 00 60 85 03 1c 	lw $3,-31392($28)
  4036b8:	28 00 00 00 28 00 02 1d 	lw $2,40($29)
  4036c0:	28 00 00 00 08 00 03 03 	lw $3,8($3)
  4036c8:	34 00 00 00 54 85 13 1c 	sw $19,-31404($28)
  4036d0:	34 00 00 00 60 85 03 1c 	sw $3,-31392($28)
  4036d8:	28 00 00 00 48 00 1f 1d 	lw $31,72($29)
  4036e0:	28 00 00 00 44 00 13 1d 	lw $19,68($29)
  4036e8:	28 00 00 00 40 00 12 1d 	lw $18,64($29)
  4036f0:	28 00 00 00 3c 00 11 1d 	lw $17,60($29)
  4036f8:	28 00 00 00 38 00 10 1d 	lw $16,56($29)
  403700:	43 00 00 00 50 00 1d 1d 	addiu $29,$29,80
  403708:	03 00 00 00 00 00 00 1f 	jr $31

00403710 <xcatch>:
  403710:	43 00 00 00 50 ff 1d 1d 	addiu $29,$29,-176
  403718:	34 00 00 00 b0 00 04 1d 	sw $4,176($29)
  403720:	43 00 00 00 90 00 04 1d 	addiu $4,$29,144
  403728:	43 00 00 00 94 00 05 1d 	addiu $5,$29,148
  403730:	42 00 00 00 00 06 00 00 	addu $6,$0,$0
  403738:	34 00 00 00 a8 00 1f 1d 	sw $31,168($29)
  403740:	02 00 00 00 bc 1f 10 00 	jal 407ef0 <xlsave>
  403748:	43 00 00 00 b0 00 04 1d 	addiu $4,$29,176
  403750:	34 00 00 00 98 00 02 1d 	sw $2,152($29)
  403758:	02 00 00 00 be 53 10 00 	jal 414ef8 <xlevarg>
  403760:	43 00 00 00 10 00 04 1d 	addiu $4,$29,16
  403768:	34 00 00 00 90 00 02 1d 	sw $2,144($29)
  403770:	28 00 00 00 b0 00 03 1d 	lw $3,176($29)
  403778:	43 00 00 00 04 00 05 00 	addiu $5,$0,4
  403780:	42 00 00 00 00 06 02 00 	addu $6,$0,$2
  403788:	34 00 00 00 a0 00 00 1d 	sw $0,160($29)
  403790:	34 00 00 00 94 00 03 1d 	sw $3,148($29)
  403798:	02 00 00 00 f8 27 10 00 	jal 409fe0 <xlbegin>
  4037a0:	43 00 00 00 18 00 04 1d 	addiu $4,$29,24
  4037a8:	02 00 00 00 84 63 10 00 	jal 418e10 <__setjmp>
  4037b0:	05 00 00 00 06 00 00 02 	beq $2,$0,4037d0 <xcatch+0xc0>
  4037b8:	28 00 00 00 68 85 07 1c 	lw $7,-31384($28)
  4037c0:	34 00 00 00 a0 00 07 1d 	sw $7,160($29)
  4037c8:	01 00 00 00 02 0e 10 00 	j 403808 <xcatch+0xf8>
  4037d0:	28 00 00 00 94 00 02 1d 	lw $2,148($29)
  4037d8:	05 00 00 00 0a 00 00 02 	beq $2,$0,403808 <xcatch+0xf8>
  4037e0:	43 00 00 00 94 00 04 1d 	addiu $4,$29,148
  4037e8:	02 00 00 00 be 53 10 00 	jal 414ef8 <xlevarg>
  4037f0:	28 00 00 00 94 00 03 1d 	lw $3,148($29)
  4037f8:	34 00 00 00 a0 00 02 1d 	sw $2,160($29)
  403800:	06 00 00 00 f6 ff 00 03 	bne $3,$0,4037e0 <xcatch+0xd0>
  403808:	43 00 00 00 10 00 04 1d 	addiu $4,$29,16
  403810:	02 00 00 00 10 28 10 00 	jal 40a040 <xlend>
  403818:	28 00 00 00 98 00 07 1d 	lw $7,152($29)
  403820:	28 00 00 00 a0 00 02 1d 	lw $2,160($29)
  403828:	34 00 00 00 54 85 07 1c 	sw $7,-31404($28)
  403830:	28 00 00 00 a8 00 1f 1d 	lw $31,168($29)
  403838:	43 00 00 00 b0 00 1d 1d 	addiu $29,$29,176
  403840:	03 00 00 00 00 00 00 1f 	jr $31

00403848 <xthrow>:
  403848:	43 00 00 00 e0 ff 1d 1d 	addiu $29,$29,-32
  403850:	34 00 00 00 20 00 04 1d 	sw $4,32($29)
  403858:	43 00 00 00 20 00 04 1d 	addiu $4,$29,32
  403860:	34 00 00 00 18 00 1f 1d 	sw $31,24($29)
  403868:	34 00 00 00 14 00 11 1d 	sw $17,20($29)
  403870:	34 00 00 00 10 00 10 1d 	sw $16,16($29)
  403878:	02 00 00 00 4e 53 10 00 	jal 414d38 <xlarg>
  403880:	28 00 00 00 20 00 03 1d 	lw $3,32($29)
  403888:	42 00 00 00 00 11 02 00 	addu $17,$0,$2
  403890:	05 00 00 00 08 00 00 03 	beq $3,$0,4038b8 <xthrow+0x70>
  403898:	43 00 00 00 20 00 04 1d 	addiu $4,$29,32
  4038a0:	02 00 00 00 4e 53 10 00 	jal 414d38 <xlarg>
  4038a8:	42 00 00 00 00 10 02 00 	addu $16,$0,$2
  4038b0:	01 00 00 00 30 0e 10 00 	j 4038c0 <xthrow+0x78>
  4038b8:	42 00 00 00 00 10 00 00 	addu $16,$0,$0
  4038c0:	28 00 00 00 20 00 04 1d 	lw $4,32($29)
  4038c8:	02 00 00 00 14 55 10 00 	jal 415450 <xllastarg>
  4038d0:	42 00 00 00 00 04 11 00 	addu $4,$0,$17
  4038d8:	42 00 00 00 00 05 10 00 	addu $5,$0,$16
  4038e0:	02 00 00 00 e6 28 10 00 	jal 40a398 <xlthrow>
  4038e8:	42 00 00 00 00 02 00 00 	addu $2,$0,$0
  4038f0:	28 00 00 00 18 00 1f 1d 	lw $31,24($29)
  4038f8:	28 00 00 00 14 00 11 1d 	lw $17,20($29)
  403900:	28 00 00 00 10 00 10 1d 	lw $16,16($29)
  403908:	43 00 00 00 20 00 1d 1d 	addiu $29,$29,32
  403910:	03 00 00 00 00 00 00 1f 	jr $31

00403918 <xerror>:
  403918:	43 00 00 00 e0 ff 1d 1d 	addiu $29,$29,-32
  403920:	34 00 00 00 20 00 04 1d 	sw $4,32($29)
  403928:	43 00 00 00 06 00 04 00 	addiu $4,$0,6
  403930:	43 00 00 00 20 00 05 1d 	addiu $5,$29,32
  403938:	34 00 00 00 18 00 1f 1d 	sw $31,24($29)
  403940:	34 00 00 00 14 00 11 1d 	sw $17,20($29)
  403948:	34 00 00 00 10 00 10 1d 	sw $16,16($29)
  403950:	02 00 00 00 76 53 10 00 	jal 414dd8 <xlmatch>
  403958:	28 00 00 00 20 00 03 1d 	lw $3,32($29)
  403960:	28 00 00 00 08 00 11 02 	lw $17,8($2)
  403968:	05 00 00 00 08 00 00 03 	beq $3,$0,403990 <xerror+0x78>
  403970:	43 00 00 00 20 00 04 1d 	addiu $4,$29,32
  403978:	02 00 00 00 4e 53 10 00 	jal 414d38 <xlarg>
  403980:	42 00 00 00 00 10 02 00 	addu $16,$0,$2
  403988:	01 00 00 00 66 0e 10 00 	j 403998 <xerror+0x80>
  403990:	28 00 00 00 50 85 10 1c 	lw $16,-31408($28)
  403998:	28 00 00 00 20 00 04 1d 	lw $4,32($29)
  4039a0:	02 00 00 00 14 55 10 00 	jal 415450 <xllastarg>
  4039a8:	42 00 00 00 00 04 11 00 	addu $4,$0,$17
  4039b0:	42 00 00 00 00 05 10 00 	addu $5,$0,$16
  4039b8:	02 00 00 00 d2 11 10 00 	jal 404748 <xlerror>
  4039c0:	42 00 00 00 00 02 00 00 	addu $2,$0,$0
  4039c8:	28 00 00 00 18 00 1f 1d 	lw $31,24($29)
  4039d0:	28 00 00 00 14 00 11 1d 	lw $17,20($29)
  4039d8:	28 00 00 00 10 00 10 1d 	lw $16,16($29)
  4039e0:	43 00 00 00 20 00 1d 1d 	addiu $29,$29,32
  4039e8:	03 00 00 00 00 00 00 1f 	jr $31

004039f0 <xcerror>:
  4039f0:	43 00 00 00 e0 ff 1d 1d 	addiu $29,$29,-32
  4039f8:	34 00 00 00 20 00 04 1d 	sw $4,32($29)
  403a00:	43 00 00 00 06 00 04 00 	addiu $4,$0,6
  403a08:	43 00 00 00 20 00 05 1d 	addiu $5,$29,32
  403a10:	34 00 00 00 1c 00 1f 1d 	sw $31,28($29)
  403a18:	34 00 00 00 18 00 12 1d 	sw $18,24($29)
  403a20:	34 00 00 00 14 00 11 1d 	sw $17,20($29)
  403a28:	34 00 00 00 10 00 10 1d 	sw $16,16($29)
  403a30:	02 00 00 00 76 53 10 00 	jal 414dd8 <xlmatch>
  403a38:	28 00 00 00 08 00 12 02 	lw $18,8($2)
  403a40:	43 00 00 00 06 00 04 00 	addiu $4,$0,6
  403a48:	43 00 00 00 20 00 05 1d 	addiu $5,$29,32
  403a50:	02 00 00 00 76 53 10 00 	jal 414dd8 <xlmatch>
  403a58:	28 00 00 00 20 00 03 1d 	lw $3,32($29)
  403a60:	28 00 00 00 08 00 11 02 	lw $17,8($2)
  403a68:	05 00 00 00 08 00 00 03 	beq $3,$0,403a90 <xcerror+0xa0>
  403a70:	43 00 00 00 20 00 04 1d 	addiu $4,$29,32
  403a78:	02 00 00 00 4e 53 10 00 	jal 414d38 <xlarg>
  403a80:	42 00 00 00 00 10 02 00 	addu $16,$0,$2
  403a88:	01 00 00 00 a6 0e 10 00 	j 403a98 <xcerror+0xa8>
  403a90:	28 00 00 00 50 85 10 1c 	lw $16,-31408($28)
  403a98:	28 00 00 00 20 00 04 1d 	lw $4,32($29)
  403aa0:	02 00 00 00 14 55 10 00 	jal 415450 <xllastarg>
  403aa8:	42 00 00 00 00 04 12 00 	addu $4,$0,$18
  403ab0:	42 00 00 00 00 05 11 00 	addu $5,$0,$17
  403ab8:	42 00 00 00 00 06 10 00 	addu $6,$0,$16
  403ac0:	02 00 00 00 e8 11 10 00 	jal 4047a0 <xlcerror>
  403ac8:	42 00 00 00 00 02 00 00 	addu $2,$0,$0
  403ad0:	28 00 00 00 1c 00 1f 1d 	lw $31,28($29)
  403ad8:	28 00 00 00 18 00 12 1d 	lw $18,24($29)
  403ae0:	28 00 00 00 14 00 11 1d 	lw $17,20($29)
  403ae8:	28 00 00 00 10 00 10 1d 	lw $16,16($29)
  403af0:	43 00 00 00 20 00 1d 1d 	addiu $29,$29,32
  403af8:	03 00 00 00 00 00 00 1f 	jr $31

00403b00 <xbreak>:
  403b00:	43 00 00 00 e0 ff 1d 1d 	addiu $29,$29,-32
  403b08:	34 00 00 00 18 00 1f 1d 	sw $31,24($29)
  403b10:	34 00 00 00 14 00 11 1d 	sw $17,20($29)
  403b18:	34 00 00 00 10 00 10 1d 	sw $16,16($29)
  403b20:	34 00 00 00 20 00 04 1d 	sw $4,32($29)
  403b28:	05 00 00 00 0a 00 00 04 	beq $4,$0,403b58 <xbreak+0x58>
  403b30:	43 00 00 00 06 00 04 00 	addiu $4,$0,6
  403b38:	43 00 00 00 20 00 05 1d 	addiu $5,$29,32
  403b40:	02 00 00 00 76 53 10 00 	jal 414dd8 <xlmatch>
  403b48:	28 00 00 00 08 00 11 02 	lw $17,8($2)
  403b50:	01 00 00 00 da 0e 10 00 	j 403b68 <xbreak+0x68>
  403b58:	a2 00 00 00 00 10 11 00 	lui $17,4096
  403b60:	43 00 00 00 d0 00 11 11 	addiu $17,$17,208
  403b68:	28 00 00 00 20 00 02 1d 	lw $2,32($29)
  403b70:	05 00 00 00 08 00 00 02 	beq $2,$0,403b98 <xbreak+0x98>
  403b78:	43 00 00 00 20 00 04 1d 	addiu $4,$29,32
  403b80:	02 00 00 00 4e 53 10 00 	jal 414d38 <xlarg>
  403b88:	42 00 00 00 00 10 02 00 	addu $16,$0,$2
  403b90:	01 00 00 00 e8 0e 10 00 	j 403ba0 <xbreak+0xa0>
  403b98:	28 00 00 00 50 85 10 1c 	lw $16,-31408($28)
  403ba0:	28 00 00 00 20 00 04 1d 	lw $4,32($29)
  403ba8:	02 00 00 00 14 55 10 00 	jal 415450 <xllastarg>
  403bb0:	42 00 00 00 00 04 11 00 	addu $4,$0,$17
  403bb8:	42 00 00 00 00 05 10 00 	addu $5,$0,$16
  403bc0:	02 00 00 00 ba 11 10 00 	jal 4046e8 <xlbreak>
  403bc8:	42 00 00 00 00 02 00 00 	addu $2,$0,$0
  403bd0:	28 00 00 00 18 00 1f 1d 	lw $31,24($29)
  403bd8:	28 00 00 00 14 00 11 1d 	lw $17,20($29)
  403be0:	28 00 00 00 10 00 10 1d 	lw $16,16($29)
  403be8:	43 00 00 00 20 00 1d 1d 	addiu $29,$29,32
  403bf0:	03 00 00 00 00 00 00 1f 	jr $31

00403bf8 <xcleanup>:
  403bf8:	43 00 00 00 e8 ff 1d 1d 	addiu $29,$29,-24
  403c00:	34 00 00 00 10 00 1f 1d 	sw $31,16($29)
  403c08:	02 00 00 00 14 55 10 00 	jal 415450 <xllastarg>
  403c10:	02 00 00 00 46 28 10 00 	jal 40a118 <xlcleanup>
  403c18:	42 00 00 00 00 02 00 00 	addu $2,$0,$0
  403c20:	28 00 00 00 10 00 1f 1d 	lw $31,16($29)
  403c28:	43 00 00 00 18 00 1d 1d 	addiu $29,$29,24
  403c30:	03 00 00 00 00 00 00 1f 	jr $31

00403c38 <xcontinue>:
  403c38:	43 00 00 00 e8 ff 1d 1d 	addiu $29,$29,-24
  403c40:	34 00 00 00 10 00 1f 1d 	sw $31,16($29)
  403c48:	02 00 00 00 14 55 10 00 	jal 415450 <xllastarg>
  403c50:	02 00 00 00 58 28 10 00 	jal 40a160 <xlcontinue>
  403c58:	42 00 00 00 00 02 00 00 	addu $2,$0,$0
  403c60:	28 00 00 00 10 00 1f 1d 	lw $31,16($29)
  403c68:	43 00 00 00 18 00 1d 1d 	addiu $29,$29,24
  403c70:	03 00 00 00 00 00 00 1f 	jr $31

00403c78 <xerrset>:
  403c78:	43 00 00 00 58 ff 1d 1d 	addiu $29,$29,-168
  403c80:	34 00 00 00 a8 00 04 1d 	sw $4,168($29)
  403c88:	43 00 00 00 90 00 04 1d 	addiu $4,$29,144
  403c90:	43 00 00 00 94 00 05 1d 	addiu $5,$29,148
  403c98:	42 00 00 00 00 06 00 00 	addu $6,$0,$0
  403ca0:	34 00 00 00 a4 00 1f 1d 	sw $31,164($29)
  403ca8:	34 00 00 00 a0 00 10 1d 	sw $16,160($29)
  403cb0:	02 00 00 00 bc 1f 10 00 	jal 407ef0 <xlsave>
  403cb8:	43 00 00 00 a8 00 04 1d 	addiu $4,$29,168
  403cc0:	34 00 00 00 98 00 02 1d 	sw $2,152($29)
  403cc8:	02 00 00 00 4e 53 10 00 	jal 414d38 <xlarg>
  403cd0:	34 00 00 00 90 00 02 1d 	sw $2,144($29)
  403cd8:	28 00 00 00 a8 00 02 1d 	lw $2,168($29)
  403ce0:	05 00 00 00 06 00 00 02 	beq $2,$0,403d00 <xerrset+0x88>
  403ce8:	43 00 00 00 a8 00 04 1d 	addiu $4,$29,168
  403cf0:	02 00 00 00 4e 53 10 00 	jal 414d38 <xlarg>
  403cf8:	01 00 00 00 42 0f 10 00 	j 403d08 <xerrset+0x90>
  403d00:	28 00 00 00 a0 84 02 1c 	lw $2,-31584($28)
  403d08:	34 00 00 00 94 00 02 1d 	sw $2,148($29)
  403d10:	28 00 00 00 a8 00 04 1d 	lw $4,168($29)
  403d18:	02 00 00 00 14 55 10 00 	jal 415450 <xllastarg>
  403d20:	28 00 00 00 94 00 06 1d 	lw $6,148($29)
  403d28:	43 00 00 00 10 00 04 1d 	addiu $4,$29,16
  403d30:	43 00 00 00 08 00 05 00 	addiu $5,$0,8
  403d38:	02 00 00 00 f8 27 10 00 	jal 409fe0 <xlbegin>
  403d40:	43 00 00 00 18 00 04 1d 	addiu $4,$29,24
  403d48:	02 00 00 00 84 63 10 00 	jal 418e10 <__setjmp>
  403d50:	05 00 00 00 04 00 00 02 	beq $2,$0,403d68 <xerrset+0xf0>
  403d58:	42 00 00 00 00 10 00 00 	addu $16,$0,$0
  403d60:	01 00 00 00 66 0f 10 00 	j 403d98 <xerrset+0x120>
  403d68:	28 00 00 00 90 00 04 1d 	lw $4,144($29)
  403d70:	02 00 00 00 64 1a 10 00 	jal 406990 <xleval>
  403d78:	42 00 00 00 00 04 02 00 	addu $4,$0,$2
  403d80:	34 00 00 00 90 00 04 1d 	sw $4,144($29)
  403d88:	02 00 00 00 1a 14 10 00 	jal 405068 <consa>
  403d90:	42 00 00 00 00 10 02 00 	addu $16,$0,$2
  403d98:	43 00 00 00 10 00 04 1d 	addiu $4,$29,16
  403da0:	02 00 00 00 10 28 10 00 	jal 40a040 <xlend>
  403da8:	28 00 00 00 98 00 03 1d 	lw $3,152($29)
  403db0:	42 00 00 00 00 02 10 00 	addu $2,$0,$16
  403db8:	34 00 00 00 54 85 03 1c 	sw $3,-31404($28)
  403dc0:	28 00 00 00 a4 00 1f 1d 	lw $31,164($29)
  403dc8:	28 00 00 00 a0 00 10 1d 	lw $16,160($29)
  403dd0:	43 00 00 00 a8 00 1d 1d 	addiu $29,$29,168
  403dd8:	03 00 00 00 00 00 00 1f 	jr $31

00403de0 <xevalhook>:
  403de0:	43 00 00 00 b8 ff 1d 1d 	addiu $29,$29,-72
  403de8:	34 00 00 00 48 00 04 1d 	sw $4,72($29)
  403df0:	43 00 00 00 20 00 04 1d 	addiu $4,$29,32
  403df8:	43 00 00 00 30 00 02 1d 	addiu $2,$29,48
  403e00:	34 00 00 00 10 00 02 1d 	sw $2,16($29)
  403e08:	43 00 00 00 34 00 02 1d 	addiu $2,$29,52
  403e10:	34 00 00 00 14 00 02 1d 	sw $2,20($29)
  403e18:	43 00 00 00 38 00 02 1d 	addiu $2,$29,56
  403e20:	43 00 00 00 24 00 05 1d 	addiu $5,$29,36
  403e28:	43 00 00 00 28 00 06 1d 	addiu $6,$29,40
  403e30:	43 00 00 00 2c 00 07 1d 	addiu $7,$29,44
  403e38:	34 00 00 00 44 00 1f 1d 	sw $31,68($29)
  403e40:	34 00 00 00 40 00 10 1d 	sw $16,64($29)
  403e48:	34 00 00 00 18 00 02 1d 	sw $2,24($29)
  403e50:	34 00 00 00 1c 00 00 1d 	sw $0,28($29)
  403e58:	02 00 00 00 bc 1f 10 00 	jal 407ef0 <xlsave>
  403e60:	43 00 00 00 48 00 04 1d 	addiu $4,$29,72
  403e68:	42 00 00 00 00 10 02 00 	addu $16,$0,$2
  403e70:	02 00 00 00 4e 53 10 00 	jal 414d38 <xlarg>
  403e78:	43 00 00 00 48 00 04 1d 	addiu $4,$29,72
  403e80:	34 00 00 00 20 00 02 1d 	sw $2,32($29)
  403e88:	02 00 00 00 4e 53 10 00 	jal 414d38 <xlarg>
  403e90:	43 00 00 00 48 00 04 1d 	addiu $4,$29,72
  403e98:	34 00 00 00 30 00 02 1d 	sw $2,48($29)
  403ea0:	02 00 00 00 4e 53 10 00 	jal 414d38 <xlarg>
  403ea8:	34 00 00 00 34 00 02 1d 	sw $2,52($29)
  403eb0:	28 00 00 00 48 00 02 1d 	lw $2,72($29)
  403eb8:	05 00 00 00 06 00 00 02 	beq $2,$0,403ed8 <xevalhook+0xf8>
  403ec0:	43 00 00 00 48 00 04 1d 	addiu $4,$29,72
  403ec8:	02 00 00 00 4e 53 10 00 	jal 414d38 <xlarg>
  403ed0:	01 00 00 00 b8 0f 10 00 	j 403ee0 <xevalhook+0x100>
  403ed8:	28 00 00 00 60 85 02 1c 	lw $2,-31392($28)
  403ee0:	34 00 00 00 38 00 02 1d 	sw $2,56($29)
  403ee8:	28 00 00 00 48 00 04 1d 	lw $4,72($29)
  403ef0:	02 00 00 00 14 55 10 00 	jal 415450 <xllastarg>
  403ef8:	28 00 00 00 bc 84 03 1c 	lw $3,-31556($28)
  403f00:	28 00 00 00 30 00 02 1d 	lw $2,48($29)
  403f08:	28 00 00 00 20 00 04 1d 	lw $4,32($29)
  403f10:	28 00 00 00 c0 84 07 1c 	lw $7,-31552($28)
  403f18:	28 00 00 00 08 00 08 03 	lw $8,8($3)
  403f20:	34 00 00 00 08 00 02 03 	sw $2,8($3)
  403f28:	28 00 00 00 60 85 03 1c 	lw $3,-31392($28)
  403f30:	28 00 00 00 08 00 05 07 	lw $5,8($7)
  403f38:	28 00 00 00 34 00 06 1d 	lw $6,52($29)
  403f40:	28 00 00 00 38 00 02 1d 	lw $2,56($29)
  403f48:	34 00 00 00 2c 00 03 1d 	sw $3,44($29)
  403f50:	34 00 00 00 60 85 02 1c 	sw $2,-31392($28)
  403f58:	34 00 00 00 24 00 08 1d 	sw $8,36($29)
  403f60:	34 00 00 00 28 00 05 1d 	sw $5,40($29)
  403f68:	34 00 00 00 08 00 06 07 	sw $6,8($7)
  403f70:	02 00 00 00 c0 1a 10 00 	jal 406b00 <xlxeval>
  403f78:	28 00 00 00 bc 84 07 1c 	lw $7,-31556($28)
  403f80:	28 00 00 00 24 00 05 1d 	lw $5,36($29)
  403f88:	28 00 00 00 c0 84 06 1c 	lw $6,-31552($28)
  403f90:	28 00 00 00 28 00 03 1d 	lw $3,40($29)
  403f98:	28 00 00 00 2c 00 04 1d 	lw $4,44($29)
  403fa0:	34 00 00 00 54 85 10 1c 	sw $16,-31404($28)
  403fa8:	34 00 00 00 08 00 05 07 	sw $5,8($7)
  403fb0:	34 00 00 00 08 00 03 06 	sw $3,8($6)
  403fb8:	34 00 00 00 60 85 04 1c 	sw $4,-31392($28)
  403fc0:	28 00 00 00 44 00 1f 1d 	lw $31,68($29)
  403fc8:	28 00 00 00 40 00 10 1d 	lw $16,64($29)
  403fd0:	43 00 00 00 48 00 1d 1d 	addiu $29,$29,72
  403fd8:	03 00 00 00 00 00 00 1f 	jr $31

00403fe0 <dobindings>:
  403fe0:	43 00 00 00 b8 ff 1d 1d 	addiu $29,$29,-72
  403fe8:	34 00 00 00 28 00 10 1d 	sw $16,40($29)
  403ff0:	42 00 00 00 00 10 04 00 	addu $16,$0,$4
  403ff8:	34 00 00 00 30 00 12 1d 	sw $18,48($29)
  404000:	42 00 00 00 00 12 05 00 	addu $18,$0,$5
  404008:	43 00 00 00 18 00 04 1d 	addiu $4,$29,24
  404010:	34 00 00 00 2c 00 11 1d 	sw $17,44($29)
  404018:	43 00 00 00 1c 00 11 1d 	addiu $17,$29,28
  404020:	42 00 00 00 00 05 11 00 	addu $5,$0,$17
  404028:	43 00 00 00 20 00 06 1d 	addiu $6,$29,32
  404030:	43 00 00 00 24 00 07 1d 	addiu $7,$29,36
  404038:	34 00 00 00 40 00 1f 1d 	sw $31,64($29)
  404040:	34 00 00 00 3c 00 15 1d 	sw $21,60($29)
  404048:	34 00 00 00 38 00 14 1d 	sw $20,56($29)
  404050:	34 00 00 00 34 00 13 1d 	sw $19,52($29)
  404058:	34 00 00 00 10 00 00 1d 	sw $0,16($29)
  404060:	02 00 00 00 bc 1f 10 00 	jal 407ef0 <xlsave>
  404068:	42 00 00 00 00 13 02 00 	addu $19,$0,$2
  404070:	34 00 00 00 18 00 10 1d 	sw $16,24($29)
  404078:	05 00 00 00 44 00 00 10 	beq $16,$0,404190 <dobindings+0x1b0>
  404080:	43 00 00 00 03 00 15 00 	addiu $21,$0,3
  404088:	43 00 00 00 04 00 14 00 	addiu $20,$0,4
  404090:	42 00 00 00 00 10 11 00 	addu $16,$0,$17
  404098:	28 00 00 00 18 00 02 1d 	lw $2,24($29)
  4040a0:	20 00 00 00 00 00 04 02 	lb $4,0($2)
  4040a8:	06 00 00 00 38 00 15 04 	bne $4,$21,404190 <dobindings+0x1b0>
  4040b0:	28 00 00 00 04 00 02 02 	lw $2,4($2)
  4040b8:	34 00 00 00 1c 00 02 1d 	sw $2,28($29)
  4040c0:	05 00 00 00 1c 00 00 02 	beq $2,$0,404138 <dobindings+0x158>
  4040c8:	20 00 00 00 00 00 03 02 	lb $3,0($2)
  4040d0:	06 00 00 00 06 00 14 03 	bne $3,$20,4040f0 <dobindings+0x110>
  4040d8:	34 00 00 00 20 00 02 1d 	sw $2,32($29)
  4040e0:	34 00 00 00 24 00 00 1d 	sw $0,36($29)
  4040e8:	01 00 00 00 54 10 10 00 	j 404150 <dobindings+0x170>
  4040f0:	06 00 00 00 10 00 04 03 	bne $3,$4,404138 <dobindings+0x158>
  4040f8:	43 00 00 00 04 00 04 00 	addiu $4,$0,4
  404100:	42 00 00 00 00 05 10 00 	addu $5,$0,$16
  404108:	02 00 00 00 76 53 10 00 	jal 414dd8 <xlmatch>
  404110:	42 00 00 00 00 04 10 00 	addu $4,$0,$16
  404118:	34 00 00 00 20 00 02 1d 	sw $2,32($29)
  404120:	02 00 00 00 be 53 10 00 	jal 414ef8 <xlevarg>
  404128:	34 00 00 00 24 00 02 1d 	sw $2,36($29)
  404130:	01 00 00 00 54 10 10 00 	j 404150 <dobindings+0x170>
  404138:	a2 00 00 00 00 10 04 00 	lui $4,4096
  404140:	43 00 00 00 dc 00 04 04 	addiu $4,$4,220
  404148:	02 00 00 00 8c 11 10 00 	jal 404630 <xlfail>
  404150:	28 00 00 00 20 00 04 1d 	lw $4,32($29)
  404158:	28 00 00 00 24 00 05 1d 	lw $5,36($29)
  404160:	42 00 00 00 00 06 12 00 	addu $6,$0,$18
  404168:	02 00 00 00 68 57 10 00 	jal 415da0 <xlbind>
  404170:	28 00 00 00 18 00 02 1d 	lw $2,24($29)
  404178:	28 00 00 00 08 00 02 02 	lw $2,8($2)
  404180:	34 00 00 00 18 00 02 1d 	sw $2,24($29)
  404188:	06 00 00 00 c2 ff 00 02 	bne $2,$0,404098 <dobindings+0xb8>
  404190:	34 00 00 00 54 85 13 1c 	sw $19,-31404($28)
  404198:	28 00 00 00 40 00 1f 1d 	lw $31,64($29)
  4041a0:	28 00 00 00 3c 00 15 1d 	lw $21,60($29)
  4041a8:	28 00 00 00 38 00 14 1d 	lw $20,56($29)
  4041b0:	28 00 00 00 34 00 13 1d 	lw $19,52($29)
  4041b8:	28 00 00 00 30 00 12 1d 	lw $18,48($29)
  4041c0:	28 00 00 00 2c 00 11 1d 	lw $17,44($29)
  4041c8:	28 00 00 00 28 00 10 1d 	lw $16,40($29)
  4041d0:	43 00 00 00 48 00 1d 1d 	addiu $29,$29,72
  4041d8:	03 00 00 00 00 00 00 1f 	jr $31

004041e0 <doupdates>:
  4041e0:	43 00 00 00 b8 ff 1d 1d 	addiu $29,$29,-72
  4041e8:	34 00 00 00 30 00 10 1d 	sw $16,48($29)
  4041f0:	42 00 00 00 00 10 04 00 	addu $16,$0,$4
  4041f8:	34 00 00 00 38 00 12 1d 	sw $18,56($29)
  404200:	42 00 00 00 00 12 05 00 	addu $18,$0,$5
  404208:	43 00 00 00 18 00 04 1d 	addiu $4,$29,24
  404210:	43 00 00 00 1c 00 05 1d 	addiu $5,$29,28
  404218:	43 00 00 00 28 00 02 1d 	addiu $2,$29,40
  404220:	34 00 00 00 34 00 11 1d 	sw $17,52($29)
  404228:	43 00 00 00 20 00 11 1d 	addiu $17,$29,32
  404230:	42 00 00 00 00 06 11 00 	addu $6,$0,$17
  404238:	43 00 00 00 24 00 07 1d 	addiu $7,$29,36
  404240:	34 00 00 00 44 00 1f 1d 	sw $31,68($29)
  404248:	34 00 00 00 40 00 14 1d 	sw $20,64($29)
  404250:	34 00 00 00 3c 00 13 1d 	sw $19,60($29)
  404258:	34 00 00 00 10 00 02 1d 	sw $2,16($29)
  404260:	34 00 00 00 14 00 00 1d 	sw $0,20($29)
  404268:	02 00 00 00 bc 1f 10 00 	jal 407ef0 <xlsave>
  404270:	42 00 00 00 00 14 02 00 	addu $20,$0,$2
  404278:	34 00 00 00 1c 00 10 1d 	sw $16,28($29)
  404280:	05 00 00 00 4c 00 00 10 	beq $16,$0,4043b8 <doupdates+0x1d8>
  404288:	43 00 00 00 03 00 13 00 	addiu $19,$0,3
  404290:	42 00 00 00 00 10 11 00 	addu $16,$0,$17
  404298:	28 00 00 00 1c 00 02 1d 	lw $2,28($29)
  4042a0:	20 00 00 00 00 00 03 02 	lb $3,0($2)
  4042a8:	06 00 00 00 42 00 13 03 	bne $3,$19,4043b8 <doupdates+0x1d8>
  4042b0:	28 00 00 00 04 00 02 02 	lw $2,4($2)
  4042b8:	34 00 00 00 20 00 02 1d 	sw $2,32($29)
  4042c0:	05 00 00 00 34 00 00 02 	beq $2,$0,404398 <doupdates+0x1b8>
  4042c8:	20 00 00 00 00 00 02 02 	lb $2,0($2)
  4042d0:	06 00 00 00 30 00 03 02 	bne $2,$3,404398 <doupdates+0x1b8>
  4042d8:	43 00 00 00 04 00 04 00 	addiu $4,$0,4
  4042e0:	42 00 00 00 00 05 10 00 	addu $5,$0,$16
  4042e8:	02 00 00 00 76 53 10 00 	jal 414dd8 <xlmatch>
  4042f0:	28 00 00 00 20 00 03 1d 	lw $3,32($29)
  4042f8:	28 00 00 00 08 00 03 03 	lw $3,8($3)
  404300:	34 00 00 00 24 00 02 1d 	sw $2,36($29)
  404308:	34 00 00 00 20 00 03 1d 	sw $3,32($29)
  404310:	05 00 00 00 20 00 00 03 	beq $3,$0,404398 <doupdates+0x1b8>
  404318:	42 00 00 00 00 04 10 00 	addu $4,$0,$16
  404320:	02 00 00 00 be 53 10 00 	jal 414ef8 <xlevarg>
  404328:	34 00 00 00 28 00 02 1d 	sw $2,40($29)
  404330:	05 00 00 00 12 00 00 12 	beq $18,$0,404380 <doupdates+0x1a0>
  404338:	28 00 00 00 18 00 04 1d 	lw $4,24($29)
  404340:	02 00 00 00 30 14 10 00 	jal 4050c0 <consd>
  404348:	28 00 00 00 24 00 04 1d 	lw $4,36($29)
  404350:	28 00 00 00 28 00 05 1d 	lw $5,40($29)
  404358:	34 00 00 00 18 00 02 1d 	sw $2,24($29)
  404360:	02 00 00 00 fc 13 10 00 	jal 404ff0 <cons>
  404368:	28 00 00 00 18 00 03 1d 	lw $3,24($29)
  404370:	34 00 00 00 04 00 02 03 	sw $2,4($3)
  404378:	01 00 00 00 e6 10 10 00 	j 404398 <doupdates+0x1b8>
  404380:	28 00 00 00 24 00 04 1d 	lw $4,36($29)
  404388:	42 00 00 00 00 05 02 00 	addu $5,$0,$2
  404390:	02 00 00 00 0c 58 10 00 	jal 416030 <xlsetvalue>
  404398:	28 00 00 00 1c 00 02 1d 	lw $2,28($29)
  4043a0:	28 00 00 00 08 00 02 02 	lw $2,8($2)
  4043a8:	34 00 00 00 1c 00 02 1d 	sw $2,28($29)
  4043b0:	06 00 00 00 b8 ff 00 02 	bne $2,$0,404298 <doupdates+0xb8>
  4043b8:	28 00 00 00 18 00 02 1d 	lw $2,24($29)
  4043c0:	05 00 00 00 12 00 00 02 	beq $2,$0,404410 <doupdates+0x230>
  4043c8:	28 00 00 00 18 00 02 1d 	lw $2,24($29)
  4043d0:	28 00 00 00 04 00 02 02 	lw $2,4($2)
  4043d8:	28 00 00 00 04 00 04 02 	lw $4,4($2)
  4043e0:	28 00 00 00 08 00 05 02 	lw $5,8($2)
  4043e8:	02 00 00 00 0c 58 10 00 	jal 416030 <xlsetvalue>
  4043f0:	28 00 00 00 18 00 02 1d 	lw $2,24($29)
  4043f8:	28 00 00 00 08 00 02 02 	lw $2,8($2)
  404400:	34 00 00 00 18 00 02 1d 	sw $2,24($29)
  404408:	06 00 00 00 ee ff 00 02 	bne $2,$0,4043c8 <doupdates+0x1e8>
  404410:	34 00 00 00 54 85 14 1c 	sw $20,-31404($28)
  404418:	28 00 00 00 44 00 1f 1d 	lw $31,68($29)
  404420:	28 00 00 00 40 00 14 1d 	lw $20,64($29)
  404428:	28 00 00 00 3c 00 13 1d 	lw $19,60($29)
  404430:	28 00 00 00 38 00 12 1d 	lw $18,56($29)
  404438:	28 00 00 00 34 00 11 1d 	lw $17,52($29)
  404440:	28 00 00 00 30 00 10 1d 	lw $16,48($29)
  404448:	43 00 00 00 48 00 1d 1d 	addiu $29,$29,72
  404450:	03 00 00 00 00 00 00 1f 	jr $31

00404458 <tagblock>:
  404458:	43 00 00 00 50 ff 1d 1d 	addiu $29,$29,-176
  404460:	34 00 00 00 a8 00 10 1d 	sw $16,168($29)
  404468:	42 00 00 00 00 10 04 00 	addu $16,$0,$4
  404470:	43 00 00 00 90 00 04 1d 	addiu $4,$29,144
  404478:	34 00 00 00 98 00 05 1d 	sw $5,152($29)
  404480:	42 00 00 00 00 05 00 00 	addu $5,$0,$0
  404488:	34 00 00 00 ac 00 1f 1d 	sw $31,172($29)
  404490:	02 00 00 00 bc 1f 10 00 	jal 407ef0 <xlsave>
  404498:	43 00 00 00 10 00 04 1d 	addiu $4,$29,16
  4044a0:	43 00 00 00 03 00 05 00 	addiu $5,$0,3
  4044a8:	42 00 00 00 00 06 10 00 	addu $6,$0,$16
  4044b0:	34 00 00 00 90 00 10 1d 	sw $16,144($29)
  4044b8:	34 00 00 00 a0 00 02 1d 	sw $2,160($29)
  4044c0:	02 00 00 00 f8 27 10 00 	jal 409fe0 <xlbegin>
  4044c8:	43 00 00 00 18 00 04 1d 	addiu $4,$29,24
  4044d0:	02 00 00 00 84 63 10 00 	jal 418e10 <__setjmp>
  4044d8:	42 00 00 00 00 03 02 00 	addu $3,$0,$2
  4044e0:	43 00 00 00 02 00 02 00 	addiu $2,$0,2
  4044e8:	06 00 00 00 0a 00 02 03 	bne $3,$2,404518 <tagblock+0xc0>
  4044f0:	28 00 00 00 68 85 02 1c 	lw $2,-31384($28)
  4044f8:	28 00 00 00 98 00 07 1d 	lw $7,152($29)
  404500:	43 00 00 00 01 00 10 00 	addiu $16,$0,1
  404508:	34 00 00 00 00 00 02 07 	sw $2,0($7)
  404510:	01 00 00 00 78 11 10 00 	j 4045e0 <tagblock+0x188>
  404518:	43 00 00 00 01 00 02 00 	addiu $2,$0,1
  404520:	06 00 00 00 04 00 02 03 	bne $3,$2,404538 <tagblock+0xe0>
  404528:	28 00 00 00 68 85 02 1c 	lw $2,-31384($28)
  404530:	34 00 00 00 90 00 02 1d 	sw $2,144($29)
  404538:	28 00 00 00 90 00 02 1d 	lw $2,144($29)
  404540:	05 00 00 00 20 00 00 02 	beq $2,$0,4045c8 <tagblock+0x170>
  404548:	43 00 00 00 03 00 10 00 	addiu $16,$0,3
  404550:	28 00 00 00 90 00 02 1d 	lw $2,144($29)
  404558:	20 00 00 00 00 00 03 02 	lb $3,0($2)
  404560:	06 00 00 00 18 00 10 03 	bne $3,$16,4045c8 <tagblock+0x170>
  404568:	28 00 00 00 04 00 02 02 	lw $2,4($2)
  404570:	05 00 00 00 0a 00 00 02 	beq $2,$0,4045a0 <tagblock+0x148>
  404578:	20 00 00 00 00 00 02 02 	lb $2,0($2)
  404580:	06 00 00 00 06 00 03 02 	bne $2,$3,4045a0 <tagblock+0x148>
  404588:	43 00 00 00 90 00 04 1d 	addiu $4,$29,144
  404590:	02 00 00 00 be 53 10 00 	jal 414ef8 <xlevarg>
  404598:	01 00 00 00 6e 11 10 00 	j 4045b8 <tagblock+0x160>
  4045a0:	28 00 00 00 90 00 02 1d 	lw $2,144($29)
  4045a8:	28 00 00 00 08 00 02 02 	lw $2,8($2)
  4045b0:	34 00 00 00 90 00 02 1d 	sw $2,144($29)
  4045b8:	28 00 00 00 90 00 02 1d 	lw $2,144($29)
  4045c0:	06 00 00 00 e2 ff 00 02 	bne $2,$0,404550 <tagblock+0xf8>
  4045c8:	28 00 00 00 98 00 07 1d 	lw $7,152($29)
  4045d0:	42 00 00 00 00 10 00 00 	addu $16,$0,$0
  4045d8:	34 00 00 00 00 00 00 07 	sw $0,0($7)
  4045e0:	43 00 00 00 10 00 04 1d 	addiu $4,$29,16
  4045e8:	02 00 00 00 10 28 10 00 	jal 40a040 <xlend>
  4045f0:	28 00 00 00 a0 00 07 1d 	lw $7,160($29)
  4045f8:	42 00 00 00 00 02 10 00 	addu $2,$0,$16
  404600:	34 00 00 00 54 85 07 1c 	sw $7,-31404($28)
  404608:	28 00 00 00 ac 00 1f 1d 	lw $31,172($29)
  404610:	28 00 00 00 a8 00 10 1d 	lw $16,168($29)
  404618:	43 00 00 00 b0 00 1d 1d 	addiu $29,$29,176
  404620:	03 00 00 00 00 00 00 1f 	jr $31
	...

00404630 <xlfail>:
  404630:	34 00 00 00 00 00 04 1d 	sw $4,0($29)
  404638:	34 00 00 00 04 00 05 1d 	sw $5,4($29)
  404640:	34 00 00 00 08 00 06 1d 	sw $6,8($29)
  404648:	34 00 00 00 0c 00 07 1d 	sw $7,12($29)
  404650:	43 00 00 00 e8 ff 1d 1d 	addiu $29,$29,-24
  404658:	34 00 00 00 10 00 10 1d 	sw $16,16($29)
  404660:	42 00 00 00 00 10 04 00 	addu $16,$0,$4
  404668:	34 00 00 00 14 00 1f 1d 	sw $31,20($29)
  404670:	02 00 00 00 88 13 10 00 	jal 404e20 <stacktop>
  404678:	42 00 00 00 00 04 10 00 	addu $4,$0,$16
  404680:	42 00 00 00 00 05 02 00 	addu $5,$0,$2
  404688:	02 00 00 00 d2 11 10 00 	jal 404748 <xlerror>
  404690:	28 00 00 00 14 00 1f 1d 	lw $31,20($29)
  404698:	28 00 00 00 10 00 10 1d 	lw $16,16($29)
  4046a0:	43 00 00 00 18 00 1d 1d 	addiu $29,$29,24
  4046a8:	03 00 00 00 00 00 00 1f 	jr $31

004046b0 <xlabort>:
  4046b0:	28 00 00 00 50 85 05 1c 	lw $5,-31408($28)
  4046b8:	43 00 00 00 e8 ff 1d 1d 	addiu $29,$29,-24
  4046c0:	34 00 00 00 10 00 1f 1d 	sw $31,16($29)
  4046c8:	02 00 00 00 20 29 10 00 	jal 40a480 <xlsignal>
  4046d0:	28 00 00 00 10 00 1f 1d 	lw $31,16($29)
  4046d8:	43 00 00 00 18 00 1d 1d 	addiu $29,$29,24
  4046e0:	03 00 00 00 00 00 00 1f 	jr $31

004046e8 <xlbreak>:
  4046e8:	43 00 00 00 e0 ff 1d 1d 	addiu $29,$29,-32
  4046f0:	42 00 00 00 00 06 04 00 	addu $6,$0,$4
  4046f8:	42 00 00 00 00 07 05 00 	addu $7,$0,$5
  404700:	43 00 00 00 01 00 02 00 	addiu $2,$0,1
  404708:	43 00 00 00 20 80 04 1c 	addiu $4,$28,-32736
  404710:	42 00 00 00 00 05 00 00 	addu $5,$0,$0
  404718:	34 00 00 00 18 00 1f 1d 	sw $31,24($29)
  404720:	34 00 00 00 10 00 02 1d 	sw $2,16($29)
  404728:	02 00 00 00 88 12 10 00 	jal 404a20 <breakloop>
  404730:	28 00 00 00 18 00 1f 1d 	lw $31,24($29)
  404738:	43 00 00 00 20 00 1d 1d 	addiu $29,$29,32
  404740:	03 00 00 00 00 00 00 1f 	jr $31

00404748 <xlerror>:
  404748:	43 00 00 00 e8 ff 1d 1d 	addiu $29,$29,-24
  404750:	34 00 00 00 10 00 1f 1d 	sw $31,16($29)
  404758:	42 00 00 00 00 02 04 00 	addu $2,$0,$4
  404760:	42 00 00 00 00 06 05 00 	addu $6,$0,$5
  404768:	42 00 00 00 00 04 00 00 	addu $4,$0,$0
  404770:	42 00 00 00 00 05 02 00 	addu $5,$0,$2
  404778:	42 00 00 00 00 07 00 00 	addu $7,$0,$0
  404780:	02 00 00 00 4e 12 10 00 	jal 404938 <doerror>
  404788:	28 00 00 00 10 00 1f 1d 	lw $31,16($29)
  404790:	43 00 00 00 18 00 1d 1d 	addiu $29,$29,24
  404798:	03 00 00 00 00 00 00 1f 	jr $31

004047a0 <xlcerror>:
  4047a0:	43 00 00 00 e8 ff 1d 1d 	addiu $29,$29,-24
  4047a8:	34 00 00 00 10 00 1f 1d 	sw $31,16($29)
  4047b0:	43 00 00 00 01 00 07 00 	addiu $7,$0,1
  4047b8:	02 00 00 00 4e 12 10 00 	jal 404938 <doerror>
  4047c0:	28 00 00 00 10 00 1f 1d 	lw $31,16($29)
  4047c8:	43 00 00 00 18 00 1d 1d 	addiu $29,$29,24
  4047d0:	03 00 00 00 00 00 00 1f 	jr $31

004047d8 <xlerrprint>:
  4047d8:	43 00 00 00 e0 ff 1d 1d 	addiu $29,$29,-32
  4047e0:	42 00 00 00 00 03 04 00 	addu $3,$0,$4
  4047e8:	34 00 00 00 18 00 12 1d 	sw $18,24($29)
  4047f0:	42 00 00 00 00 12 05 00 	addu $18,$0,$5
  4047f8:	42 00 00 00 00 02 06 00 	addu $2,$0,$6
  404800:	34 00 00 00 14 00 11 1d 	sw $17,20($29)
  404808:	42 00 00 00 00 11 07 00 	addu $17,$0,$7
  404810:	34 00 00 00 10 00 10 1d 	sw $16,16($29)
  404818:	a2 00 00 00 00 10 10 00 	lui $16,4096
  404820:	43 00 00 00 c8 2b 10 10 	addiu $16,$16,11208
  404828:	42 00 00 00 00 04 10 00 	addu $4,$0,$16
  404830:	43 00 00 00 28 80 05 1c 	addiu $5,$28,-32728
  404838:	42 00 00 00 00 06 03 00 	addu $6,$0,$3
  404840:	42 00 00 00 00 07 02 00 	addu $7,$0,$2
  404848:	34 00 00 00 1c 00 1f 1d 	sw $31,28($29)
  404850:	02 00 00 00 70 63 10 00 	jal 418dc0 <sprintf>
  404858:	42 00 00 00 00 04 10 00 	addu $4,$0,$16
  404860:	02 00 00 00 e6 27 10 00 	jal 409f98 <stdputstr>
  404868:	28 00 00 00 50 85 02 1c 	lw $2,-31408($28)
  404870:	05 00 00 00 0a 00 02 11 	beq $17,$2,4048a0 <xlerrprint+0xc8>
  404878:	43 00 00 00 30 80 04 1c 	addiu $4,$28,-32720
  404880:	02 00 00 00 e6 27 10 00 	jal 409f98 <stdputstr>
  404888:	42 00 00 00 00 04 11 00 	addu $4,$0,$17
  404890:	02 00 00 00 cc 27 10 00 	jal 409f30 <stdprint>
  404898:	01 00 00 00 2e 12 10 00 	j 4048b8 <xlerrprint+0xe0>
  4048a0:	28 00 00 00 d0 84 02 1c 	lw $2,-31536($28)
  4048a8:	28 00 00 00 08 00 04 02 	lw $4,8($2)
  4048b0:	02 00 00 00 ba 44 10 00 	jal 4112e8 <xlterpri>
  4048b8:	05 00 00 00 12 00 00 12 	beq $18,$0,404908 <xlerrprint+0x130>
  4048c0:	a2 00 00 00 00 10 10 00 	lui $16,4096
  4048c8:	43 00 00 00 c8 2b 10 10 	addiu $16,$16,11208
  4048d0:	42 00 00 00 00 04 10 00 	addu $4,$0,$16
  4048d8:	a2 00 00 00 00 10 05 00 	lui $5,4096
  4048e0:	43 00 00 00 f0 00 05 05 	addiu $5,$5,240
  4048e8:	42 00 00 00 00 06 12 00 	addu $6,$0,$18
  4048f0:	02 00 00 00 70 63 10 00 	jal 418dc0 <sprintf>
  4048f8:	42 00 00 00 00 04 10 00 	addu $4,$0,$16
  404900:	02 00 00 00 e6 27 10 00 	jal 409f98 <stdputstr>
  404908:	28 00 00 00 1c 00 1f 1d 	lw $31,28($29)
  404910:	28 00 00 00 18 00 12 1d 	lw $18,24($29)
  404918:	28 00 00 00 14 00 11 1d 	lw $17,20($29)
  404920:	28 00 00 00 10 00 10 1d 	lw $16,16($29)
  404928:	43 00 00 00 20 00 1d 1d 	addiu $29,$29,32
  404930:	03 00 00 00 00 00 00 1f 	jr $31

00404938 <doerror>:
  404938:	28 00 00 00 e0 84 02 1c 	lw $2,-31520($28)
  404940:	43 00 00 00 d0 ff 1d 1d 	addiu $29,$29,-48
  404948:	34 00 00 00 24 00 13 1d 	sw $19,36($29)
  404950:	42 00 00 00 00 13 04 00 	addu $19,$0,$4
  404958:	34 00 00 00 18 00 10 1d 	sw $16,24($29)
  404960:	42 00 00 00 00 10 05 00 	addu $16,$0,$5
  404968:	34 00 00 00 28 00 1f 1d 	sw $31,40($29)
  404970:	34 00 00 00 20 00 12 1d 	sw $18,32($29)
  404978:	34 00 00 00 1c 00 11 1d 	sw $17,28($29)
  404980:	28 00 00 00 08 00 02 02 	lw $2,8($2)
  404988:	42 00 00 00 00 12 06 00 	addu $18,$0,$6
  404990:	42 00 00 00 00 11 07 00 	addu $17,$0,$7
  404998:	06 00 00 00 06 00 00 02 	bne $2,$0,4049b8 <doerror+0x80>
  4049a0:	42 00 00 00 00 04 10 00 	addu $4,$0,$16
  4049a8:	42 00 00 00 00 05 12 00 	addu $5,$0,$18
  4049b0:	02 00 00 00 20 29 10 00 	jal 40a480 <xlsignal>
  4049b8:	34 00 00 00 10 00 11 1d 	sw $17,16($29)
  4049c0:	43 00 00 00 34 80 04 1c 	addiu $4,$28,-32716
  4049c8:	42 00 00 00 00 05 13 00 	addu $5,$0,$19
  4049d0:	42 00 00 00 00 06 10 00 	addu $6,$0,$16
  4049d8:	42 00 00 00 00 07 12 00 	addu $7,$0,$18
  4049e0:	02 00 00 00 88 12 10 00 	jal 404a20 <breakloop>
  4049e8:	28 00 00 00 28 00 1f 1d 	lw $31,40($29)
  4049f0:	28 00 00 00 24 00 13 1d 	lw $19,36($29)
  4049f8:	28 00 00 00 20 00 12 1d 	lw $18,32($29)
  404a00:	28 00 00 00 1c 00 11 1d 	lw $17,28($29)
  404a08:	28 00 00 00 18 00 10 1d 	lw $16,24($29)
  404a10:	43 00 00 00 30 00 1d 1d 	addiu $29,$29,48
  404a18:	03 00 00 00 00 00 00 1f 	jr $31

00404a20 <breakloop>:
  404a20:	43 00 00 00 50 ff 1d 1d 	addiu $29,$29,-176
  404a28:	42 00 00 00 00 03 04 00 	addu $3,$0,$4
  404a30:	34 00 00 00 a4 00 11 1d 	sw $17,164($29)
  404a38:	42 00 00 00 00 11 05 00 	addu $17,$0,$5
  404a40:	42 00 00 00 00 02 06 00 	addu $2,$0,$6
  404a48:	34 00 00 00 a0 00 10 1d 	sw $16,160($29)
  404a50:	42 00 00 00 00 10 07 00 	addu $16,$0,$7
  404a58:	a2 00 00 00 00 10 04 00 	lui $4,4096
  404a60:	43 00 00 00 c8 2b 04 04 	addiu $4,$4,11208
  404a68:	43 00 00 00 28 80 05 1c 	addiu $5,$28,-32728
  404a70:	42 00 00 00 00 06 03 00 	addu $6,$0,$3
  404a78:	42 00 00 00 00 07 02 00 	addu $7,$0,$2
  404a80:	34 00 00 00 a8 00 1f 1d 	sw $31,168($29)
  404a88:	02 00 00 00 70 63 10 00 	jal 418dc0 <sprintf>
  404a90:	a2 00 00 00 00 10 04 00 	lui $4,4096
  404a98:	43 00 00 00 c8 2b 04 04 	addiu $4,$4,11208
  404aa0:	02 00 00 00 e6 27 10 00 	jal 409f98 <stdputstr>
  404aa8:	28 00 00 00 50 85 02 1c 	lw $2,-31408($28)
  404ab0:	05 00 00 00 0e 00 02 10 	beq $16,$2,404af0 <breakloop+0xd0>
  404ab8:	43 00 00 00 30 80 04 1c 	addiu $4,$28,-32720
  404ac0:	02 00 00 00 e6 27 10 00 	jal 409f98 <stdputstr>
  404ac8:	42 00 00 00 00 04 10 00 	addu $4,$0,$16
  404ad0:	02 00 00 00 cc 27 10 00 	jal 409f30 <stdprint>
  404ad8:	01 00 00 00 c2 12 10 00 	j 404b08 <breakloop+0xe8>
  404ae0:	43 00 00 00 10 00 10 00 	addiu $16,$0,16
  404ae8:	01 00 00 00 60 13 10 00 	j 404d80 <breakloop+0x360>
  404af0:	28 00 00 00 d0 84 02 1c 	lw $2,-31536($28)
  404af8:	28 00 00 00 08 00 04 02 	lw $4,8($2)
  404b00:	02 00 00 00 ba 44 10 00 	jal 4112e8 <xlterpri>
  404b08:	05 00 00 00 12 00 00 11 	beq $17,$0,404b58 <breakloop+0x138>
  404b10:	a2 00 00 00 00 10 04 00 	lui $4,4096
  404b18:	43 00 00 00 c8 2b 04 04 	addiu $4,$4,11208
  404b20:	a2 00 00 00 00 10 05 00 	lui $5,4096
  404b28:	43 00 00 00 f0 00 05 05 	addiu $5,$5,240
  404b30:	42 00 00 00 00 06 11 00 	addu $6,$0,$17
  404b38:	02 00 00 00 70 63 10 00 	jal 418dc0 <sprintf>
  404b40:	a2 00 00 00 00 10 04 00 	lui $4,4096
  404b48:	43 00 00 00 c8 2b 04 04 	addiu $4,$4,11208
  404b50:	02 00 00 00 e6 27 10 00 	jal 409f98 <stdputstr>
  404b58:	02 00 00 00 64 26 10 00 	jal 409990 <xlflush>
  404b60:	28 00 00 00 d8 84 02 1c 	lw $2,-31528($28)
  404b68:	28 00 00 00 08 00 02 02 	lw $2,8($2)
  404b70:	05 00 00 00 12 00 00 02 	beq $2,$0,404bc0 <breakloop+0x1a0>
  404b78:	28 00 00 00 dc 84 02 1c 	lw $2,-31524($28)
  404b80:	28 00 00 00 08 00 05 02 	lw $5,8($2)
  404b88:	43 00 00 00 ff ff 04 00 	addiu $4,$0,-1
  404b90:	05 00 00 00 08 00 00 05 	beq $5,$0,404bb8 <breakloop+0x198>
  404b98:	20 00 00 00 00 00 03 05 	lb $3,0($5)
  404ba0:	43 00 00 00 05 00 02 00 	addiu $2,$0,5
  404ba8:	06 00 00 00 02 00 02 03 	bne $3,$2,404bb8 <breakloop+0x198>
  404bb0:	28 00 00 00 04 00 04 05 	lw $4,4($5)
  404bb8:	02 00 00 00 9c 13 10 00 	jal 404e70 <xlbaktrace>
  404bc0:	43 00 00 00 90 00 04 1d 	addiu $4,$29,144
  404bc8:	42 00 00 00 00 05 00 00 	addu $5,$0,$0
  404bd0:	02 00 00 00 bc 1f 10 00 	jal 407ef0 <xlsave>
  404bd8:	28 00 00 00 6c 85 03 1c 	lw $3,-31380($28)
  404be0:	28 00 00 00 a0 84 06 1c 	lw $6,-31584($28)
  404be8:	43 00 00 00 10 00 04 1d 	addiu $4,$29,16
  404bf0:	43 00 00 00 38 00 05 00 	addiu $5,$0,56
  404bf8:	34 00 00 00 98 00 02 1d 	sw $2,152($29)
  404c00:	43 00 00 00 01 00 03 03 	addiu $3,$3,1
  404c08:	34 00 00 00 6c 85 03 1c 	sw $3,-31380($28)
  404c10:	02 00 00 00 f8 27 10 00 	jal 409fe0 <xlbegin>
  404c18:	43 00 00 00 18 00 04 1d 	addiu $4,$29,24
  404c20:	02 00 00 00 84 63 10 00 	jal 418e10 <__setjmp>
  404c28:	42 00 00 00 00 10 02 00 	addu $16,$0,$2
  404c30:	05 00 00 00 2e 00 00 10 	beq $16,$0,404cf0 <breakloop+0x2d0>
  404c38:	43 00 00 00 10 00 02 00 	addiu $2,$0,16
  404c40:	05 00 00 00 4c 00 02 10 	beq $16,$2,404d78 <breakloop+0x358>
  404c48:	5c 00 00 00 11 00 02 10 	slti $2,$16,17
  404c50:	05 00 00 00 06 00 00 02 	beq $2,$0,404c70 <breakloop+0x250>
  404c58:	43 00 00 00 08 00 02 00 	addiu $2,$0,8
  404c60:	05 00 00 00 08 00 02 10 	beq $16,$2,404c88 <breakloop+0x268>
  404c68:	01 00 00 00 3c 13 10 00 	j 404cf0 <breakloop+0x2d0>
  404c70:	43 00 00 00 20 00 02 00 	addiu $2,$0,32
  404c78:	05 00 00 00 08 00 02 10 	beq $16,$2,404ca0 <breakloop+0x280>
  404c80:	01 00 00 00 3c 13 10 00 	j 404cf0 <breakloop+0x2d0>
  404c88:	02 00 00 00 64 26 10 00 	jal 409990 <xlflush>
  404c90:	42 00 00 00 00 10 00 00 	addu $16,$0,$0
  404c98:	01 00 00 00 5e 13 10 00 	j 404d78 <breakloop+0x358>
  404ca0:	28 00 00 00 c0 00 08 1d 	lw $8,192($29)
  404ca8:	05 00 00 00 08 00 00 08 	beq $8,$0,404cd0 <breakloop+0x2b0>
  404cb0:	a2 00 00 00 00 10 04 00 	lui $4,4096
  404cb8:	43 00 00 00 04 01 04 04 	addiu $4,$4,260
  404cc0:	02 00 00 00 e6 27 10 00 	jal 409f98 <stdputstr>
  404cc8:	01 00 00 00 5e 13 10 00 	j 404d78 <breakloop+0x358>
  404cd0:	28 00 00 00 50 85 05 1c 	lw $5,-31408($28)
  404cd8:	a2 00 00 00 00 10 04 00 	lui $4,4096
  404ce0:	43 00 00 00 24 01 04 04 	addiu $4,$4,292
  404ce8:	02 00 00 00 20 29 10 00 	jal 40a480 <xlsignal>
  404cf0:	28 00 00 00 cc 84 02 1c 	lw $2,-31540($28)
  404cf8:	28 00 00 00 08 00 04 02 	lw $4,8($2)
  404d00:	43 00 00 00 90 00 05 1d 	addiu $5,$29,144
  404d08:	42 00 00 00 00 06 00 00 	addu $6,$0,$0
  404d10:	02 00 00 00 20 47 10 00 	jal 411c80 <xlread>
  404d18:	05 00 00 00 70 ff 00 02 	beq $2,$0,404ae0 <breakloop+0xc0>
  404d20:	28 00 00 00 90 00 04 1d 	lw $4,144($29)
  404d28:	02 00 00 00 64 1a 10 00 	jal 406990 <xleval>
  404d30:	28 00 00 00 d0 84 03 1c 	lw $3,-31536($28)
  404d38:	28 00 00 00 08 00 04 03 	lw $4,8($3)
  404d40:	42 00 00 00 00 05 02 00 	addu $5,$0,$2
  404d48:	43 00 00 00 01 00 06 00 	addiu $6,$0,1
  404d50:	34 00 00 00 90 00 05 1d 	sw $5,144($29)
  404d58:	02 00 00 00 c0 43 10 00 	jal 410f00 <xlprint>
  404d60:	28 00 00 00 d0 84 02 1c 	lw $2,-31536($28)
  404d68:	28 00 00 00 08 00 04 02 	lw $4,8($2)
  404d70:	02 00 00 00 ba 44 10 00 	jal 4112e8 <xlterpri>
  404d78:	05 00 00 00 a6 ff 00 10 	beq $16,$0,404c18 <breakloop+0x1f8>
  404d80:	43 00 00 00 10 00 04 1d 	addiu $4,$29,16
  404d88:	02 00 00 00 10 28 10 00 	jal 40a040 <xlend>
  404d90:	28 00 00 00 6c 85 02 1c 	lw $2,-31380($28)
  404d98:	28 00 00 00 98 00 08 1d 	lw $8,152($29)
  404da0:	43 00 00 00 ff ff 02 02 	addiu $2,$2,-1
  404da8:	34 00 00 00 6c 85 02 1c 	sw $2,-31380($28)
  404db0:	43 00 00 00 10 00 02 00 	addiu $2,$0,16
  404db8:	34 00 00 00 54 85 08 1c 	sw $8,-31404($28)
  404dc0:	06 00 00 00 0c 00 02 10 	bne $16,$2,404df8 <breakloop+0x3d8>
  404dc8:	a2 00 00 00 00 10 04 00 	lui $4,4096
  404dd0:	43 00 00 00 44 01 04 04 	addiu $4,$4,324
  404dd8:	02 00 00 00 e6 27 10 00 	jal 409f98 <stdputstr>
  404de0:	42 00 00 00 00 04 00 00 	addu $4,$0,$0
  404de8:	42 00 00 00 00 05 00 00 	addu $5,$0,$0
  404df0:	02 00 00 00 20 29 10 00 	jal 40a480 <xlsignal>
  404df8:	28 00 00 00 a8 00 1f 1d 	lw $31,168($29)
  404e00:	28 00 00 00 a4 00 11 1d 	lw $17,164($29)
  404e08:	28 00 00 00 a0 00 10 1d 	lw $16,160($29)
  404e10:	43 00 00 00 b0 00 1d 1d 	addiu $29,$29,176
  404e18:	03 00 00 00 00 00 00 1f 	jr $31

00404e20 <stacktop>:
  404e20:	28 00 00 00 70 85 04 1c 	lw $4,-31376($28)
  404e28:	5e 00 00 00 f4 01 02 04 	sltiu $2,$4,500
  404e30:	05 00 00 00 0a 00 00 02 	beq $2,$0,404e60 <stacktop+0x40>
  404e38:	28 00 00 00 74 85 03 1c 	lw $3,-31372($28)
  404e40:	55 00 00 00 02 02 04 00 	sll $2,$4,0x2
  404e48:	42 00 00 00 00 02 03 02 	addu $2,$2,$3
  404e50:	28 00 00 00 00 00 02 02 	lw $2,0($2)
  404e58:	01 00 00 00 9a 13 10 00 	j 404e68 <stacktop+0x48>
  404e60:	28 00 00 00 50 85 02 1c 	lw $2,-31408($28)
  404e68:	03 00 00 00 00 00 00 1f 	jr $31

00404e70 <xlbaktrace>:
  404e70:	43 00 00 00 e0 ff 1d 1d 	addiu $29,$29,-32
  404e78:	34 00 00 00 14 00 11 1d 	sw $17,20($29)
  404e80:	28 00 00 00 70 85 11 1c 	lw $17,-31376($28)
  404e88:	34 00 00 00 10 00 10 1d 	sw $16,16($29)
  404e90:	42 00 00 00 00 10 04 00 	addu $16,$0,$4
  404e98:	34 00 00 00 18 00 1f 1d 	sw $31,24($29)
  404ea0:	01 00 00 00 bc 13 10 00 	j 404ef0 <xlbaktrace+0x80>
  404ea8:	09 00 00 00 18 00 00 11 	bltz $17,404f10 <xlbaktrace+0xa0>
  404eb0:	5c 00 00 00 f4 01 02 11 	slti $2,$17,500
  404eb8:	05 00 00 00 0a 00 00 02 	beq $2,$0,404ee8 <xlbaktrace+0x78>
  404ec0:	28 00 00 00 74 85 03 1c 	lw $3,-31372($28)
  404ec8:	55 00 00 00 02 02 11 00 	sll $2,$17,0x2
  404ed0:	42 00 00 00 00 02 03 02 	addu $2,$2,$3
  404ed8:	28 00 00 00 00 00 04 02 	lw $4,0($2)
  404ee0:	02 00 00 00 cc 27 10 00 	jal 409f30 <stdprint>
  404ee8:	43 00 00 00 ff ff 11 11 	addiu $17,$17,-1
  404ef0:	09 00 00 00 ec ff 00 10 	bltz $16,404ea8 <xlbaktrace+0x38>
  404ef8:	43 00 00 00 ff ff 10 10 	addiu $16,$16,-1
  404f00:	43 00 00 00 ff ff 02 00 	addiu $2,$0,-1
  404f08:	06 00 00 00 e6 ff 02 10 	bne $16,$2,404ea8 <xlbaktrace+0x38>
  404f10:	28 00 00 00 18 00 1f 1d 	lw $31,24($29)
  404f18:	28 00 00 00 14 00 11 1d 	lw $17,20($29)
  404f20:	28 00 00 00 10 00 10 1d 	lw $16,16($29)
  404f28:	43 00 00 00 20 00 1d 1d 	addiu $29,$29,32
  404f30:	03 00 00 00 00 00 00 1f 	jr $31

00404f38 <xldinit>:
  404f38:	43 00 00 00 e8 ff 1d 1d 	addiu $29,$29,-24
  404f40:	43 00 00 00 d0 07 04 00 	addiu $4,$0,2000
  404f48:	34 00 00 00 10 00 1f 1d 	sw $31,16($29)
  404f50:	02 00 00 00 f6 64 10 00 	jal 4193d8 <malloc>
  404f58:	34 00 00 00 74 85 02 1c 	sw $2,-31372($28)
  404f60:	06 00 00 00 0c 00 00 02 	bne $2,$0,404f98 <xldinit+0x60>
  404f68:	a2 00 00 00 00 10 04 00 	lui $4,4096
  404f70:	43 00 00 00 64 01 04 04 	addiu $4,$4,356
  404f78:	02 00 00 00 54 5c 10 00 	jal 417150 <printf>
  404f80:	02 00 00 00 f2 00 10 00 	jal 4003c8 <osfinish>
  404f88:	43 00 00 00 01 00 04 00 	addiu $4,$0,1
  404f90:	02 00 00 00 dc 5b 10 00 	jal 416f70 <exit>
  404f98:	28 00 00 00 8c 85 03 1c 	lw $3,-31348($28)
  404fa0:	43 00 00 00 ff ff 02 00 	addiu $2,$0,-1
  404fa8:	34 00 00 00 78 85 00 1c 	sw $0,-31368($28)
  404fb0:	34 00 00 00 70 85 02 1c 	sw $2,-31376($28)
  404fb8:	34 00 00 00 6c 85 00 1c 	sw $0,-31380($28)
  404fc0:	43 00 00 00 d0 07 03 03 	addiu $3,$3,2000
  404fc8:	34 00 00 00 8c 85 03 1c 	sw $3,-31348($28)
  404fd0:	28 00 00 00 10 00 1f 1d 	lw $31,16($29)
  404fd8:	43 00 00 00 18 00 1d 1d 	addiu $29,$29,24
  404fe0:	03 00 00 00 00 00 00 1f 	jr $31
	...

00404ff0 <cons>:
  404ff0:	43 00 00 00 e0 ff 1d 1d 	addiu $29,$29,-32
  404ff8:	34 00 00 00 10 00 10 1d 	sw $16,16($29)
  405000:	42 00 00 00 00 10 04 00 	addu $16,$0,$4
  405008:	34 00 00 00 14 00 11 1d 	sw $17,20($29)
  405010:	42 00 00 00 00 11 05 00 	addu $17,$0,$5
  405018:	43 00 00 00 03 00 04 00 	addiu $4,$0,3
  405020:	34 00 00 00 18 00 1f 1d 	sw $31,24($29)
  405028:	02 00 00 00 20 16 10 00 	jal 405880 <newnode>
  405030:	34 00 00 00 04 00 10 02 	sw $16,4($2)
  405038:	34 00 00 00 08 00 11 02 	sw $17,8($2)
  405040:	28 00 00 00 18 00 1f 1d 	lw $31,24($29)
  405048:	28 00 00 00 14 00 11 1d 	lw $17,20($29)
  405050:	28 00 00 00 10 00 10 1d 	lw $16,16($29)
  405058:	43 00 00 00 20 00 1d 1d 	addiu $29,$29,32
  405060:	03 00 00 00 00 00 00 1f 	jr $31

00405068 <consa>:
  405068:	43 00 00 00 e8 ff 1d 1d 	addiu $29,$29,-24
  405070:	34 00 00 00 10 00 10 1d 	sw $16,16($29)
  405078:	42 00 00 00 00 10 04 00 	addu $16,$0,$4
  405080:	43 00 00 00 03 00 04 00 	addiu $4,$0,3
  405088:	34 00 00 00 14 00 1f 1d 	sw $31,20($29)
  405090:	02 00 00 00 20 16 10 00 	jal 405880 <newnode>
  405098:	34 00 00 00 04 00 10 02 	sw $16,4($2)
  4050a0:	28 00 00 00 14 00 1f 1d 	lw $31,20($29)
  4050a8:	28 00 00 00 10 00 10 1d 	lw $16,16($29)
  4050b0:	43 00 00 00 18 00 1d 1d 	addiu $29,$29,24
  4050b8:	03 00 00 00 00 00 00 1f 	jr $31

004050c0 <consd>:
  4050c0:	43 00 00 00 e8 ff 1d 1d 	addiu $29,$29,-24
  4050c8:	34 00 00 00 10 00 10 1d 	sw $16,16($29)
  4050d0:	42 00 00 00 00 10 04 00 	addu $16,$0,$4
  4050d8:	43 00 00 00 03 00 04 00 	addiu $4,$0,3
  4050e0:	34 00 00 00 14 00 1f 1d 	sw $31,20($29)
  4050e8:	02 00 00 00 20 16 10 00 	jal 405880 <newnode>
  4050f0:	34 00 00 00 08 00 10 02 	sw $16,8($2)
  4050f8:	28 00 00 00 14 00 1f 1d 	lw $31,20($29)
  405100:	28 00 00 00 10 00 10 1d 	lw $16,16($29)
  405108:	43 00 00 00 18 00 1d 1d 	addiu $29,$29,24
  405110:	03 00 00 00 00 00 00 1f 	jr $31

00405118 <cvstring>:
  405118:	43 00 00 00 d8 ff 1d 1d 	addiu $29,$29,-40
  405120:	34 00 00 00 1c 00 11 1d 	sw $17,28($29)
  405128:	42 00 00 00 00 11 04 00 	addu $17,$0,$4
  405130:	43 00 00 00 10 00 04 1d 	addiu $4,$29,16
  405138:	42 00 00 00 00 05 00 00 	addu $5,$0,$0
  405140:	34 00 00 00 20 00 1f 1d 	sw $31,32($29)
  405148:	34 00 00 00 18 00 10 1d 	sw $16,24($29)
  405150:	02 00 00 00 bc 1f 10 00 	jal 407ef0 <xlsave>
  405158:	43 00 00 00 06 00 04 00 	addiu $4,$0,6
  405160:	42 00 00 00 00 10 02 00 	addu $16,$0,$2
  405168:	02 00 00 00 20 16 10 00 	jal 405880 <newnode>
  405170:	42 00 00 00 00 04 11 00 	addu $4,$0,$17
  405178:	34 00 00 00 10 00 02 1d 	sw $2,16($29)
  405180:	02 00 00 00 90 16 10 00 	jal 405a40 <strsave>
  405188:	28 00 00 00 10 00 03 1d 	lw $3,16($29)
  405190:	34 00 00 00 54 85 10 1c 	sw $16,-31404($28)
  405198:	34 00 00 00 08 00 02 03 	sw $2,8($3)
  4051a0:	42 00 00 00 00 02 03 00 	addu $2,$0,$3
  4051a8:	34 00 00 00 04 00 00 02 	sw $0,4($2)
  4051b0:	28 00 00 00 20 00 1f 1d 	lw $31,32($29)
  4051b8:	28 00 00 00 1c 00 11 1d 	lw $17,28($29)
  4051c0:	28 00 00 00 18 00 10 1d 	lw $16,24($29)
  4051c8:	43 00 00 00 28 00 1d 1d 	addiu $29,$29,40
  4051d0:	03 00 00 00 00 00 00 1f 	jr $31

004051d8 <cvcstring>:
  4051d8:	43 00 00 00 e8 ff 1d 1d 	addiu $29,$29,-24
  4051e0:	34 00 00 00 10 00 10 1d 	sw $16,16($29)
  4051e8:	42 00 00 00 00 10 04 00 	addu $16,$0,$4
  4051f0:	43 00 00 00 06 00 04 00 	addiu $4,$0,6
  4051f8:	34 00 00 00 14 00 1f 1d 	sw $31,20($29)
  405200:	02 00 00 00 20 16 10 00 	jal 405880 <newnode>
  405208:	43 00 00 00 01 00 03 00 	addiu $3,$0,1
  405210:	34 00 00 00 08 00 10 02 	sw $16,8($2)
  405218:	34 00 00 00 04 00 03 02 	sw $3,4($2)
  405220:	28 00 00 00 14 00 1f 1d 	lw $31,20($29)
  405228:	28 00 00 00 10 00 10 1d 	lw $16,16($29)
  405230:	43 00 00 00 18 00 1d 1d 	addiu $29,$29,24
  405238:	03 00 00 00 00 00 00 1f 	jr $31

00405240 <cvsymbol>:
  405240:	43 00 00 00 d0 ff 1d 1d 	addiu $29,$29,-48
  405248:	34 00 00 00 24 00 11 1d 	sw $17,36($29)
  405250:	42 00 00 00 00 11 04 00 	addu $17,$0,$4
  405258:	43 00 00 00 10 00 04 1d 	addiu $4,$29,16
  405260:	42 00 00 00 00 05 00 00 	addu $5,$0,$0
  405268:	34 00 00 00 2c 00 1f 1d 	sw $31,44($29)
  405270:	34 00 00 00 28 00 12 1d 	sw $18,40($29)
  405278:	34 00 00 00 20 00 10 1d 	sw $16,32($29)
  405280:	02 00 00 00 bc 1f 10 00 	jal 407ef0 <xlsave>
  405288:	43 00 00 00 04 00 04 00 	addiu $4,$0,4
  405290:	42 00 00 00 00 12 02 00 	addu $18,$0,$2
  405298:	02 00 00 00 20 16 10 00 	jal 405880 <newnode>
  4052a0:	43 00 00 00 03 00 04 00 	addiu $4,$0,3
  4052a8:	34 00 00 00 10 00 02 1d 	sw $2,16($29)
  4052b0:	02 00 00 00 20 16 10 00 	jal 405880 <newnode>
  4052b8:	28 00 00 00 10 00 03 1d 	lw $3,16($29)
  4052c0:	43 00 00 00 18 00 04 1d 	addiu $4,$29,24
  4052c8:	42 00 00 00 00 05 00 00 	addu $5,$0,$0
  4052d0:	34 00 00 00 04 00 02 03 	sw $2,4($3)
  4052d8:	02 00 00 00 bc 1f 10 00 	jal 407ef0 <xlsave>
  4052e0:	43 00 00 00 06 00 04 00 	addiu $4,$0,6
  4052e8:	42 00 00 00 00 10 02 00 	addu $16,$0,$2
  4052f0:	02 00 00 00 20 16 10 00 	jal 405880 <newnode>
  4052f8:	42 00 00 00 00 04 11 00 	addu $4,$0,$17
  405300:	34 00 00 00 18 00 02 1d 	sw $2,24($29)
  405308:	02 00 00 00 90 16 10 00 	jal 405a40 <strsave>
  405310:	28 00 00 00 18 00 03 1d 	lw $3,24($29)
  405318:	28 00 00 00 10 00 04 1d 	lw $4,16($29)
  405320:	34 00 00 00 08 00 02 03 	sw $2,8($3)
  405328:	34 00 00 00 04 00 00 03 	sw $0,4($3)
  405330:	28 00 00 00 04 00 05 04 	lw $5,4($4)
  405338:	34 00 00 00 54 85 10 1c 	sw $16,-31404($28)
  405340:	34 00 00 00 54 85 12 1c 	sw $18,-31404($28)
  405348:	42 00 00 00 00 02 04 00 	addu $2,$0,$4
  405350:	34 00 00 00 04 00 03 05 	sw $3,4($5)
  405358:	28 00 00 00 2c 00 1f 1d 	lw $31,44($29)
  405360:	28 00 00 00 28 00 12 1d 	lw $18,40($29)
  405368:	28 00 00 00 24 00 11 1d 	lw $17,36($29)
  405370:	28 00 00 00 20 00 10 1d 	lw $16,32($29)
  405378:	43 00 00 00 30 00 1d 1d 	addiu $29,$29,48
  405380:	03 00 00 00 00 00 00 1f 	jr $31

00405388 <cvcsymbol>:
  405388:	43 00 00 00 d8 ff 1d 1d 	addiu $29,$29,-40
  405390:	34 00 00 00 1c 00 11 1d 	sw $17,28($29)
  405398:	42 00 00 00 00 11 04 00 	addu $17,$0,$4
  4053a0:	43 00 00 00 10 00 04 1d 	addiu $4,$29,16
  4053a8:	42 00 00 00 00 05 00 00 	addu $5,$0,$0
  4053b0:	34 00 00 00 20 00 1f 1d 	sw $31,32($29)
  4053b8:	34 00 00 00 18 00 10 1d 	sw $16,24($29)
  4053c0:	02 00 00 00 bc 1f 10 00 	jal 407ef0 <xlsave>
  4053c8:	43 00 00 00 04 00 04 00 	addiu $4,$0,4
  4053d0:	42 00 00 00 00 10 02 00 	addu $16,$0,$2
  4053d8:	02 00 00 00 20 16 10 00 	jal 405880 <newnode>
  4053e0:	43 00 00 00 03 00 04 00 	addiu $4,$0,3
  4053e8:	34 00 00 00 10 00 02 1d 	sw $2,16($29)
  4053f0:	02 00 00 00 20 16 10 00 	jal 405880 <newnode>
  4053f8:	28 00 00 00 10 00 03 1d 	lw $3,16($29)
  405400:	43 00 00 00 06 00 04 00 	addiu $4,$0,6
  405408:	34 00 00 00 04 00 02 03 	sw $2,4($3)
  405410:	02 00 00 00 20 16 10 00 	jal 405880 <newnode>
  405418:	28 00 00 00 10 00 05 1d 	lw $5,16($29)
  405420:	42 00 00 00 00 03 02 00 	addu $3,$0,$2
  405428:	43 00 00 00 01 00 02 00 	addiu $2,$0,1
  405430:	34 00 00 00 08 00 11 03 	sw $17,8($3)
  405438:	34 00 00 00 04 00 02 03 	sw $2,4($3)
  405440:	28 00 00 00 04 00 04 05 	lw $4,4($5)
  405448:	34 00 00 00 54 85 10 1c 	sw $16,-31404($28)
  405450:	42 00 00 00 00 02 05 00 	addu $2,$0,$5
  405458:	34 00 00 00 04 00 03 04 	sw $3,4($4)
  405460:	28 00 00 00 20 00 1f 1d 	lw $31,32($29)
  405468:	28 00 00 00 1c 00 11 1d 	lw $17,28($29)
  405470:	28 00 00 00 18 00 10 1d 	lw $16,24($29)
  405478:	43 00 00 00 28 00 1d 1d 	addiu $29,$29,40
  405480:	03 00 00 00 00 00 00 1f 	jr $31

00405488 <cvsubr>:
  405488:	43 00 00 00 e8 ff 1d 1d 	addiu $29,$29,-24
  405490:	34 00 00 00 10 00 10 1d 	sw $16,16($29)
  405498:	42 00 00 00 00 10 04 00 	addu $16,$0,$4
  4054a0:	42 00 00 00 00 04 05 00 	addu $4,$0,$5
  4054a8:	34 00 00 00 14 00 1f 1d 	sw $31,20($29)
  4054b0:	02 00 00 00 20 16 10 00 	jal 405880 <newnode>
  4054b8:	34 00 00 00 04 00 10 02 	sw $16,4($2)
  4054c0:	28 00 00 00 14 00 1f 1d 	lw $31,20($29)
  4054c8:	28 00 00 00 10 00 10 1d 	lw $16,16($29)
  4054d0:	43 00 00 00 18 00 1d 1d 	addiu $29,$29,24
  4054d8:	03 00 00 00 00 00 00 1f 	jr $31

004054e0 <cvfile>:
  4054e0:	43 00 00 00 e8 ff 1d 1d 	addiu $29,$29,-24
  4054e8:	34 00 00 00 10 00 10 1d 	sw $16,16($29)
  4054f0:	42 00 00 00 00 10 04 00 	addu $16,$0,$4
  4054f8:	43 00 00 00 08 00 04 00 	addiu $4,$0,8
  405500:	34 00 00 00 14 00 1f 1d 	sw $31,20($29)
  405508:	02 00 00 00 20 16 10 00 	jal 405880 <newnode>
  405510:	34 00 00 00 04 00 10 02 	sw $16,4($2)
  405518:	34 00 00 00 08 00 00 02 	sw $0,8($2)
  405520:	28 00 00 00 14 00 1f 1d 	lw $31,20($29)
  405528:	28 00 00 00 10 00 10 1d 	lw $16,16($29)
  405530:	43 00 00 00 18 00 1d 1d 	addiu $29,$29,24
  405538:	03 00 00 00 00 00 00 1f 	jr $31

00405540 <cvfixnum>:
  405540:	43 00 00 00 e8 ff 1d 1d 	addiu $29,$29,-24
  405548:	34 00 00 00 10 00 10 1d 	sw $16,16($29)
  405550:	42 00 00 00 00 10 04 00 	addu $16,$0,$4
  405558:	43 00 00 00 05 00 04 00 	addiu $4,$0,5
  405560:	34 00 00 00 14 00 1f 1d 	sw $31,20($29)
  405568:	02 00 00 00 20 16 10 00 	jal 405880 <newnode>
  405570:	34 00 00 00 04 00 10 02 	sw $16,4($2)
  405578:	28 00 00 00 14 00 1f 1d 	lw $31,20($29)
  405580:	28 00 00 00 10 00 10 1d 	lw $16,16($29)
  405588:	43 00 00 00 18 00 1d 1d 	addiu $29,$29,24
  405590:	03 00 00 00 00 00 00 1f 	jr $31

00405598 <cvflonum>:
  405598:	43 00 00 00 e0 ff 1d 1d 	addiu $29,$29,-32
  4055a0:	37 00 00 00 18 00 14 1d 	s.d $f20,24($29)
  4055a8:	7a 00 00 00 00 14 00 0c 	mov.s $f20,$f12
  4055b0:	43 00 00 00 09 00 04 00 	addiu $4,$0,9
  4055b8:	34 00 00 00 10 00 1f 1d 	sw $31,16($29)
  4055c0:	02 00 00 00 20 16 10 00 	jal 405880 <newnode>
  4055c8:	36 00 00 00 04 00 14 02 	s.s $f20,4($2)
  4055d0:	28 00 00 00 10 00 1f 1d 	lw $31,16($29)
  4055d8:	2b 00 00 00 18 00 14 1d 	l.d $f20,24($29)
  4055e0:	43 00 00 00 20 00 1d 1d 	addiu $29,$29,32
  4055e8:	03 00 00 00 00 00 00 1f 	jr $31

004055f0 <newstring>:
  4055f0:	43 00 00 00 d8 ff 1d 1d 	addiu $29,$29,-40
  4055f8:	34 00 00 00 18 00 10 1d 	sw $16,24($29)
  405600:	42 00 00 00 00 10 04 00 	addu $16,$0,$4
  405608:	43 00 00 00 10 00 04 1d 	addiu $4,$29,16
  405610:	42 00 00 00 00 05 00 00 	addu $5,$0,$0
  405618:	34 00 00 00 20 00 1f 1d 	sw $31,32($29)
  405620:	34 00 00 00 1c 00 11 1d 	sw $17,28($29)
  405628:	02 00 00 00 bc 1f 10 00 	jal 407ef0 <xlsave>
  405630:	43 00 00 00 06 00 04 00 	addiu $4,$0,6
  405638:	42 00 00 00 00 11 02 00 	addu $17,$0,$2
  405640:	02 00 00 00 20 16 10 00 	jal 405880 <newnode>
  405648:	42 00 00 00 00 04 10 00 	addu $4,$0,$16
  405650:	34 00 00 00 10 00 02 1d 	sw $2,16($29)
  405658:	02 00 00 00 54 16 10 00 	jal 405950 <stralloc>
  405660:	28 00 00 00 10 00 03 1d 	lw $3,16($29)
  405668:	34 00 00 00 08 00 02 03 	sw $2,8($3)
  405670:	30 00 00 00 00 00 00 02 	sb $0,0($2)
  405678:	28 00 00 00 10 00 02 1d 	lw $2,16($29)
  405680:	34 00 00 00 54 85 11 1c 	sw $17,-31404($28)
  405688:	34 00 00 00 04 00 00 02 	sw $0,4($2)
  405690:	28 00 00 00 20 00 1f 1d 	lw $31,32($29)
  405698:	28 00 00 00 1c 00 11 1d 	lw $17,28($29)
  4056a0:	28 00 00 00 18 00 10 1d 	lw $16,24($29)
  4056a8:	43 00 00 00 28 00 1d 1d 	addiu $29,$29,40
  4056b0:	03 00 00 00 00 00 00 1f 	jr $31

004056b8 <newobject>:
  4056b8:	43 00 00 00 e8 ff 1d 1d 	addiu $29,$29,-24
  4056c0:	34 00 00 00 10 00 10 1d 	sw $16,16($29)
  4056c8:	42 00 00 00 00 10 04 00 	addu $16,$0,$4
  4056d0:	43 00 00 00 01 00 04 05 	addiu $4,$5,1
  4056d8:	34 00 00 00 14 00 1f 1d 	sw $31,20($29)
  4056e0:	02 00 00 00 ca 15 10 00 	jal 405728 <newvector>
  4056e8:	28 00 00 00 08 00 03 02 	lw $3,8($2)
  4056f0:	34 00 00 00 00 00 10 03 	sw $16,0($3)
  4056f8:	43 00 00 00 07 00 03 00 	addiu $3,$0,7
  405700:	30 00 00 00 00 00 03 02 	sb $3,0($2)
  405708:	28 00 00 00 14 00 1f 1d 	lw $31,20($29)
  405710:	28 00 00 00 10 00 10 1d 	lw $16,16($29)
  405718:	43 00 00 00 18 00 1d 1d 	addiu $29,$29,24
  405720:	03 00 00 00 00 00 00 1f 	jr $31

00405728 <newvector>:
  405728:	43 00 00 00 d8 ff 1d 1d 	addiu $29,$29,-40
  405730:	34 00 00 00 1c 00 11 1d 	sw $17,28($29)
  405738:	42 00 00 00 00 11 04 00 	addu $17,$0,$4
  405740:	43 00 00 00 10 00 04 1d 	addiu $4,$29,16
  405748:	42 00 00 00 00 05 00 00 	addu $5,$0,$0
  405750:	34 00 00 00 24 00 1f 1d 	sw $31,36($29)
  405758:	34 00 00 00 20 00 12 1d 	sw $18,32($29)
  405760:	34 00 00 00 18 00 10 1d 	sw $16,24($29)
  405768:	02 00 00 00 bc 1f 10 00 	jal 407ef0 <xlsave>
  405770:	43 00 00 00 0a 00 04 00 	addiu $4,$0,10
  405778:	42 00 00 00 00 12 02 00 	addu $18,$0,$2
  405780:	02 00 00 00 20 16 10 00 	jal 405880 <newnode>
  405788:	43 00 00 00 01 00 04 00 	addiu $4,$0,1
  405790:	55 00 00 00 02 10 11 00 	sll $16,$17,0x2
  405798:	42 00 00 00 00 05 10 00 	addu $5,$0,$16
  4057a0:	34 00 00 00 10 00 02 1d 	sw $2,16($29)
  4057a8:	34 00 00 00 04 00 00 02 	sw $0,4($2)
  4057b0:	02 00 00 00 58 67 10 00 	jal 419d60 <calloc>
  4057b8:	28 00 00 00 10 00 03 1d 	lw $3,16($29)
  4057c0:	34 00 00 00 08 00 02 03 	sw $2,8($3)
  4057c8:	06 00 00 00 14 00 00 02 	bne $2,$0,405820 <newvector+0xf8>
  4057d0:	02 00 00 00 da 16 10 00 	jal 405b68 <findmem>
  4057d8:	43 00 00 00 01 00 04 00 	addiu $4,$0,1
  4057e0:	42 00 00 00 00 05 10 00 	addu $5,$0,$16
  4057e8:	02 00 00 00 58 67 10 00 	jal 419d60 <calloc>
  4057f0:	28 00 00 00 10 00 03 1d 	lw $3,16($29)
  4057f8:	34 00 00 00 08 00 02 03 	sw $2,8($3)
  405800:	06 00 00 00 06 00 00 02 	bne $2,$0,405820 <newvector+0xf8>
  405808:	a2 00 00 00 00 10 04 00 	lui $4,4096
  405810:	43 00 00 00 80 01 04 04 	addiu $4,$4,384
  405818:	02 00 00 00 8c 11 10 00 	jal 404630 <xlfail>
  405820:	28 00 00 00 10 00 02 1d 	lw $2,16($29)
  405828:	28 00 00 00 8c 85 03 1c 	lw $3,-31348($28)
  405830:	34 00 00 00 54 85 12 1c 	sw $18,-31404($28)
  405838:	42 00 00 00 00 03 10 03 	addu $3,$3,$16
  405840:	34 00 00 00 04 00 11 02 	sw $17,4($2)
  405848:	34 00 00 00 8c 85 03 1c 	sw $3,-31348($28)
  405850:	28 00 00 00 24 00 1f 1d 	lw $31,36($29)
  405858:	28 00 00 00 20 00 12 1d 	lw $18,32($29)
  405860:	28 00 00 00 1c 00 11 1d 	lw $17,28($29)
  405868:	28 00 00 00 18 00 10 1d 	lw $16,24($29)
  405870:	43 00 00 00 28 00 1d 1d 	addiu $29,$29,40
  405878:	03 00 00 00 00 00 00 1f 	jr $31

00405880 <newnode>:
  405880:	43 00 00 00 e0 ff 1d 1d 	addiu $29,$29,-32
  405888:	34 00 00 00 10 00 10 1d 	sw $16,16($29)
  405890:	28 00 00 00 a8 85 10 1c 	lw $16,-31320($28)
  405898:	34 00 00 00 14 00 11 1d 	sw $17,20($29)
  4058a0:	42 00 00 00 00 11 04 00 	addu $17,$0,$4
  4058a8:	34 00 00 00 18 00 1f 1d 	sw $31,24($29)
  4058b0:	06 00 00 00 0c 00 00 10 	bne $16,$0,4058e8 <newnode+0x68>
  4058b8:	02 00 00 00 da 16 10 00 	jal 405b68 <findmem>
  4058c0:	28 00 00 00 a8 85 10 1c 	lw $16,-31320($28)
  4058c8:	06 00 00 00 06 00 00 10 	bne $16,$0,4058e8 <newnode+0x68>
  4058d0:	a2 00 00 00 00 10 04 00 	lui $4,4096
  4058d8:	43 00 00 00 9c 01 04 04 	addiu $4,$4,412
  4058e0:	02 00 00 00 ac 11 10 00 	jal 4046b0 <xlabort>
  4058e8:	28 00 00 00 9c 85 02 1c 	lw $2,-31332($28)
  4058f0:	28 00 00 00 08 00 03 10 	lw $3,8($16)
  4058f8:	43 00 00 00 ff ff 02 02 	addiu $2,$2,-1
  405900:	34 00 00 00 9c 85 02 1c 	sw $2,-31332($28)
  405908:	42 00 00 00 00 02 10 00 	addu $2,$0,$16
  405910:	34 00 00 00 a8 85 03 1c 	sw $3,-31320($28)
  405918:	30 00 00 00 00 00 11 10 	sb $17,0($16)
  405920:	34 00 00 00 08 00 00 10 	sw $0,8($16)
  405928:	28 00 00 00 18 00 1f 1d 	lw $31,24($29)
  405930:	28 00 00 00 14 00 11 1d 	lw $17,20($29)
  405938:	28 00 00 00 10 00 10 1d 	lw $16,16($29)
  405940:	43 00 00 00 20 00 1d 1d 	addiu $29,$29,32
  405948:	03 00 00 00 00 00 00 1f 	jr $31

00405950 <stralloc>:
  405950:	43 00 00 00 e0 ff 1d 1d 	addiu $29,$29,-32
  405958:	34 00 00 00 18 00 12 1d 	sw $18,24($29)
  405960:	42 00 00 00 00 12 04 00 	addu $18,$0,$4
  405968:	34 00 00 00 14 00 11 1d 	sw $17,20($29)
  405970:	43 00 00 00 01 00 11 12 	addiu $17,$18,1
  405978:	42 00 00 00 00 04 11 00 	addu $4,$0,$17
  405980:	34 00 00 00 1c 00 1f 1d 	sw $31,28($29)
  405988:	34 00 00 00 10 00 10 1d 	sw $16,16($29)
  405990:	02 00 00 00 f6 64 10 00 	jal 4193d8 <malloc>
  405998:	42 00 00 00 00 10 02 00 	addu $16,$0,$2
  4059a0:	06 00 00 00 10 00 00 10 	bne $16,$0,4059e8 <stralloc+0x98>
  4059a8:	02 00 00 00 da 16 10 00 	jal 405b68 <findmem>
  4059b0:	42 00 00 00 00 04 11 00 	addu $4,$0,$17
  4059b8:	02 00 00 00 f6 64 10 00 	jal 4193d8 <malloc>
  4059c0:	42 00 00 00 00 10 02 00 	addu $16,$0,$2
  4059c8:	06 00 00 00 06 00 00 10 	bne $16,$0,4059e8 <stralloc+0x98>
  4059d0:	a2 00 00 00 00 10 04 00 	lui $4,4096
  4059d8:	43 00 00 00 b4 01 04 04 	addiu $4,$4,436
  4059e0:	02 00 00 00 8c 11 10 00 	jal 404630 <xlfail>
  4059e8:	28 00 00 00 8c 85 03 1c 	lw $3,-31348($28)
  4059f0:	42 00 00 00 00 02 10 00 	addu $2,$0,$16
  4059f8:	43 00 00 00 01 00 03 03 	addiu $3,$3,1
  405a00:	42 00 00 00 00 03 12 03 	addu $3,$3,$18
  405a08:	34 00 00 00 8c 85 03 1c 	sw $3,-31348($28)
  405a10:	28 00 00 00 1c 00 1f 1d 	lw $31,28($29)
  405a18:	28 00 00 00 18 00 12 1d 	lw $18,24($29)
  405a20:	28 00 00 00 14 00 11 1d 	lw $17,20($29)
  405a28:	28 00 00 00 10 00 10 1d 	lw $16,16($29)
  405a30:	43 00 00 00 20 00 1d 1d 	addiu $29,$29,32
  405a38:	03 00 00 00 00 00 00 1f 	jr $31

00405a40 <strsave>:
  405a40:	43 00 00 00 d8 ff 1d 1d 	addiu $29,$29,-40
  405a48:	34 00 00 00 1c 00 13 1d 	sw $19,28($29)
  405a50:	42 00 00 00 00 13 04 00 	addu $19,$0,$4
  405a58:	34 00 00 00 20 00 1f 1d 	sw $31,32($29)
  405a60:	34 00 00 00 18 00 12 1d 	sw $18,24($29)
  405a68:	34 00 00 00 14 00 11 1d 	sw $17,20($29)
  405a70:	34 00 00 00 10 00 10 1d 	sw $16,16($29)
  405a78:	02 00 00 00 80 67 10 00 	jal 419e00 <strlen>
  405a80:	42 00 00 00 00 12 02 00 	addu $18,$0,$2
  405a88:	43 00 00 00 01 00 11 12 	addiu $17,$18,1
  405a90:	42 00 00 00 00 04 11 00 	addu $4,$0,$17
  405a98:	02 00 00 00 f6 64 10 00 	jal 4193d8 <malloc>
  405aa0:	42 00 00 00 00 10 02 00 	addu $16,$0,$2
  405aa8:	06 00 00 00 10 00 00 10 	bne $16,$0,405af0 <strsave+0xb0>
  405ab0:	02 00 00 00 da 16 10 00 	jal 405b68 <findmem>
  405ab8:	42 00 00 00 00 04 11 00 	addu $4,$0,$17
  405ac0:	02 00 00 00 f6 64 10 00 	jal 4193d8 <malloc>
  405ac8:	42 00 00 00 00 10 02 00 	addu $16,$0,$2
  405ad0:	06 00 00 00 06 00 00 10 	bne $16,$0,405af0 <strsave+0xb0>
  405ad8:	a2 00 00 00 00 10 04 00 	lui $4,4096
  405ae0:	43 00 00 00 b4 01 04 04 	addiu $4,$4,436
  405ae8:	02 00 00 00 8c 11 10 00 	jal 404630 <xlfail>
  405af0:	28 00 00 00 8c 85 02 1c 	lw $2,-31348($28)
  405af8:	42 00 00 00 00 04 10 00 	addu $4,$0,$16
  405b00:	42 00 00 00 00 05 13 00 	addu $5,$0,$19
  405b08:	43 00 00 00 01 00 02 02 	addiu $2,$2,1
  405b10:	42 00 00 00 00 02 12 02 	addu $2,$2,$18
  405b18:	34 00 00 00 8c 85 02 1c 	sw $2,-31348($28)
  405b20:	02 00 00 00 5c 63 10 00 	jal 418d70 <strcpy>
  405b28:	42 00 00 00 00 02 10 00 	addu $2,$0,$16
  405b30:	28 00 00 00 20 00 1f 1d 	lw $31,32($29)
  405b38:	28 00 00 00 1c 00 13 1d 	lw $19,28($29)
  405b40:	28 00 00 00 18 00 12 1d 	lw $18,24($29)
  405b48:	28 00 00 00 14 00 11 1d 	lw $17,20($29)
  405b50:	28 00 00 00 10 00 10 1d 	lw $16,16($29)
  405b58:	43 00 00 00 28 00 1d 1d 	addiu $29,$29,40
  405b60:	03 00 00 00 00 00 00 1f 	jr $31

00405b68 <findmem>:
  405b68:	43 00 00 00 e8 ff 1d 1d 	addiu $29,$29,-24
  405b70:	34 00 00 00 10 00 1f 1d 	sw $31,16($29)
  405b78:	02 00 00 00 f0 16 10 00 	jal 405bc0 <gc>
  405b80:	28 00 00 00 9c 85 02 1c 	lw $2,-31332($28)
  405b88:	28 00 00 00 90 85 03 1c 	lw $3,-31344($28)
  405b90:	5b 00 00 00 00 02 03 02 	slt $2,$2,$3
  405b98:	05 00 00 00 02 00 00 02 	beq $2,$0,405ba8 <findmem+0x40>
  405ba0:	02 00 00 00 7a 18 10 00 	jal 4061e8 <addseg>
  405ba8:	28 00 00 00 10 00 1f 1d 	lw $31,16($29)
  405bb0:	43 00 00 00 18 00 1d 1d 	addiu $29,$29,24
  405bb8:	03 00 00 00 00 00 00 1f 	jr $31

00405bc0 <gc>:
  405bc0:	28 00 00 00 4c 85 04 1c 	lw $4,-31412($28)
  405bc8:	43 00 00 00 e8 ff 1d 1d 	addiu $29,$29,-24
  405bd0:	34 00 00 00 14 00 1f 1d 	sw $31,20($29)
  405bd8:	34 00 00 00 10 00 10 1d 	sw $16,16($29)
  405be0:	02 00 00 00 24 17 10 00 	jal 405c90 <mark>
  405be8:	28 00 00 00 60 85 04 1c 	lw $4,-31392($28)
  405bf0:	02 00 00 00 24 17 10 00 	jal 405c90 <mark>
  405bf8:	28 00 00 00 54 85 10 1c 	lw $16,-31404($28)
  405c00:	28 00 00 00 5c 85 02 1c 	lw $2,-31396($28)
  405c08:	5d 00 00 00 00 02 02 10 	sltu $2,$16,$2
  405c10:	05 00 00 00 0e 00 00 02 	beq $2,$0,405c50 <gc+0x90>
  405c18:	28 00 00 00 00 00 02 10 	lw $2,0($16)
  405c20:	28 00 00 00 00 00 04 02 	lw $4,0($2)
  405c28:	02 00 00 00 24 17 10 00 	jal 405c90 <mark>
  405c30:	28 00 00 00 5c 85 02 1c 	lw $2,-31396($28)
  405c38:	43 00 00 00 04 00 10 10 	addiu $16,$16,4
  405c40:	5d 00 00 00 00 02 02 10 	sltu $2,$16,$2
  405c48:	06 00 00 00 f2 ff 00 02 	bne $2,$0,405c18 <gc+0x58>
  405c50:	02 00 00 00 d6 17 10 00 	jal 405f58 <sweep>
  405c58:	28 00 00 00 a0 85 02 1c 	lw $2,-31328($28)
  405c60:	43 00 00 00 01 00 02 02 	addiu $2,$2,1
  405c68:	34 00 00 00 a0 85 02 1c 	sw $2,-31328($28)
  405c70:	28 00 00 00 14 00 1f 1d 	lw $31,20($29)
  405c78:	28 00 00 00 10 00 10 1d 	lw $16,16($29)
  405c80:	43 00 00 00 18 00 1d 1d 	addiu $29,$29,24
  405c88:	03 00 00 00 00 00 00 1f 	jr $31

00405c90 <mark>:
  405c90:	43 00 00 00 e0 ff 1d 1d 	addiu $29,$29,-32
  405c98:	34 00 00 00 1c 00 1f 1d 	sw $31,28($29)
  405ca0:	34 00 00 00 18 00 12 1d 	sw $18,24($29)
  405ca8:	34 00 00 00 14 00 11 1d 	sw $17,20($29)
  405cb0:	34 00 00 00 10 00 10 1d 	sw $16,16($29)
  405cb8:	05 00 00 00 6e 00 00 04 	beq $4,$0,405e78 <mark+0x1e8>
  405cc0:	42 00 00 00 00 11 00 00 	addu $17,$0,$0
  405cc8:	42 00 00 00 00 10 04 00 	addu $16,$0,$4
  405cd0:	43 00 00 00 fd ff 12 00 	addiu $18,$0,-3
  405cd8:	22 00 00 00 01 00 03 10 	lbu $3,1($16)
  405ce0:	4f 00 00 00 01 00 02 03 	andi $2,$3,1
  405ce8:	06 00 00 00 30 00 00 02 	bne $2,$0,405db0 <mark+0x120>
  405cf0:	51 00 00 00 01 00 02 03 	ori $2,$3,1
  405cf8:	30 00 00 00 01 00 02 10 	sb $2,1($16)
  405d00:	42 00 00 00 00 04 10 00 	addu $4,$0,$16
  405d08:	02 00 00 00 24 19 10 00 	jal 406490 <livecar>
  405d10:	05 00 00 00 10 00 00 02 	beq $2,$0,405d58 <mark+0xc8>
  405d18:	22 00 00 00 01 00 02 10 	lbu $2,1($16)
  405d20:	42 00 00 00 00 03 11 00 	addu $3,$0,$17
  405d28:	42 00 00 00 00 11 10 00 	addu $17,$0,$16
  405d30:	51 00 00 00 02 00 02 02 	ori $2,$2,2
  405d38:	30 00 00 00 01 00 02 10 	sb $2,1($16)
  405d40:	28 00 00 00 04 00 10 10 	lw $16,4($16)
  405d48:	34 00 00 00 04 00 03 11 	sw $3,4($17)
  405d50:	01 00 00 00 36 17 10 00 	j 405cd8 <mark+0x48>
  405d58:	42 00 00 00 00 04 10 00 	addu $4,$0,$16
  405d60:	02 00 00 00 80 19 10 00 	jal 406600 <livecdr>
  405d68:	05 00 00 00 10 00 00 02 	beq $2,$0,405db0 <mark+0x120>
  405d70:	22 00 00 00 01 00 02 10 	lbu $2,1($16)
  405d78:	42 00 00 00 00 03 11 00 	addu $3,$0,$17
  405d80:	42 00 00 00 00 11 10 00 	addu $17,$0,$16
  405d88:	4e 00 00 00 00 02 12 02 	and $2,$2,$18
  405d90:	30 00 00 00 01 00 02 10 	sb $2,1($16)
  405d98:	28 00 00 00 08 00 10 10 	lw $16,8($16)
  405da0:	34 00 00 00 08 00 03 11 	sw $3,8($17)
  405da8:	01 00 00 00 36 17 10 00 	j 405cd8 <mark+0x48>
  405db0:	05 00 00 00 30 00 00 11 	beq $17,$0,405e78 <mark+0x1e8>
  405db8:	22 00 00 00 01 00 02 11 	lbu $2,1($17)
  405dc0:	4f 00 00 00 02 00 02 02 	andi $2,$2,2
  405dc8:	05 00 00 00 20 00 00 02 	beq $2,$0,405e50 <mark+0x1c0>
  405dd0:	42 00 00 00 00 04 11 00 	addu $4,$0,$17
  405dd8:	02 00 00 00 80 19 10 00 	jal 406600 <livecdr>
  405de0:	05 00 00 00 10 00 00 02 	beq $2,$0,405e28 <mark+0x198>
  405de8:	28 00 00 00 04 00 03 11 	lw $3,4($17)
  405df0:	22 00 00 00 01 00 02 11 	lbu $2,1($17)
  405df8:	34 00 00 00 04 00 10 11 	sw $16,4($17)
  405e00:	28 00 00 00 08 00 10 11 	lw $16,8($17)
  405e08:	4e 00 00 00 00 02 12 02 	and $2,$2,$18
  405e10:	30 00 00 00 01 00 02 11 	sb $2,1($17)
  405e18:	34 00 00 00 08 00 03 11 	sw $3,8($17)
  405e20:	01 00 00 00 36 17 10 00 	j 405cd8 <mark+0x48>
  405e28:	42 00 00 00 00 03 11 00 	addu $3,$0,$17
  405e30:	28 00 00 00 04 00 11 03 	lw $17,4($3)
  405e38:	34 00 00 00 04 00 10 03 	sw $16,4($3)
  405e40:	42 00 00 00 00 10 03 00 	addu $16,$0,$3
  405e48:	01 00 00 00 6c 17 10 00 	j 405db0 <mark+0x120>
  405e50:	42 00 00 00 00 03 11 00 	addu $3,$0,$17
  405e58:	28 00 00 00 08 00 11 03 	lw $17,8($3)
  405e60:	34 00 00 00 08 00 10 03 	sw $16,8($3)
  405e68:	42 00 00 00 00 10 03 00 	addu $16,$0,$3
  405e70:	01 00 00 00 6c 17 10 00 	j 405db0 <mark+0x120>
  405e78:	28 00 00 00 1c 00 1f 1d 	lw $31,28($29)
  405e80:	28 00 00 00 18 00 12 1d 	lw $18,24($29)
  405e88:	28 00 00 00 14 00 11 1d 	lw $17,20($29)
  405e90:	28 00 00 00 10 00 10 1d 	lw $16,16($29)
  405e98:	43 00 00 00 20 00 1d 1d 	addiu $29,$29,32
  405ea0:	03 00 00 00 00 00 00 1f 	jr $31

00405ea8 <vmark>:
  405ea8:	43 00 00 00 d8 ff 1d 1d 	addiu $29,$29,-40
  405eb0:	34 00 00 00 1c 00 11 1d 	sw $17,28($29)
  405eb8:	42 00 00 00 00 11 04 00 	addu $17,$0,$4
  405ec0:	34 00 00 00 20 00 1f 1d 	sw $31,32($29)
  405ec8:	34 00 00 00 18 00 10 1d 	sw $16,24($29)
  405ed0:	28 00 00 00 04 00 02 11 	lw $2,4($17)
  405ed8:	42 00 00 00 00 10 00 00 	addu $16,$0,$0
  405ee0:	07 00 00 00 12 00 00 02 	blez $2,405f30 <vmark+0x88>
  405ee8:	28 00 00 00 08 00 02 11 	lw $2,8($17)
  405ef0:	55 00 00 00 02 03 10 00 	sll $3,$16,0x2
  405ef8:	42 00 00 00 00 03 02 03 	addu $3,$3,$2
  405f00:	28 00 00 00 00 00 04 03 	lw $4,0($3)
  405f08:	02 00 00 00 24 17 10 00 	jal 405c90 <mark>
  405f10:	28 00 00 00 04 00 02 11 	lw $2,4($17)
  405f18:	43 00 00 00 01 00 10 10 	addiu $16,$16,1
  405f20:	5b 00 00 00 00 02 02 10 	slt $2,$16,$2
  405f28:	06 00 00 00 ee ff 00 02 	bne $2,$0,405ee8 <vmark+0x40>
  405f30:	28 00 00 00 20 00 1f 1d 	lw $31,32($29)
  405f38:	28 00 00 00 1c 00 11 1d 	lw $17,28($29)
  405f40:	28 00 00 00 18 00 10 1d 	lw $16,24($29)
  405f48:	43 00 00 00 28 00 1d 1d 	addiu $29,$29,40
  405f50:	03 00 00 00 00 00 00 1f 	jr $31

00405f58 <sweep>:
  405f58:	43 00 00 00 d0 ff 1d 1d 	addiu $29,$29,-48
  405f60:	34 00 00 00 20 00 14 1d 	sw $20,32($29)
  405f68:	28 00 00 00 a4 85 14 1c 	lw $20,-31324($28)
  405f70:	34 00 00 00 28 00 1f 1d 	sw $31,40($29)
  405f78:	34 00 00 00 24 00 15 1d 	sw $21,36($29)
  405f80:	34 00 00 00 1c 00 13 1d 	sw $19,28($29)
  405f88:	34 00 00 00 18 00 12 1d 	sw $18,24($29)
  405f90:	34 00 00 00 14 00 11 1d 	sw $17,20($29)
  405f98:	34 00 00 00 10 00 10 1d 	sw $16,16($29)
  405fa0:	34 00 00 00 a8 85 00 1c 	sw $0,-31320($28)
  405fa8:	34 00 00 00 9c 85 00 1c 	sw $0,-31332($28)
  405fb0:	05 00 00 00 7a 00 00 14 	beq $20,$0,4061a0 <sweep+0x248>
  405fb8:	43 00 00 00 ff ff 15 00 	addiu $21,$0,-1
  405fc0:	28 00 00 00 00 00 13 14 	lw $19,0($20)
  405fc8:	43 00 00 00 08 00 12 14 	addiu $18,$20,8
  405fd0:	43 00 00 00 ff ff 13 13 	addiu $19,$19,-1
  405fd8:	05 00 00 00 6c 00 15 13 	beq $19,$21,406190 <sweep+0x238>
  405fe0:	43 00 00 00 09 00 11 14 	addiu $17,$20,9
  405fe8:	22 00 00 00 00 00 03 11 	lbu $3,0($17)
  405ff0:	4f 00 00 00 01 00 02 03 	andi $2,$3,1
  405ff8:	06 00 00 00 58 00 00 02 	bne $2,$0,406160 <sweep+0x208>
  406000:	20 00 00 00 00 00 03 12 	lb $3,0($18)
  406008:	43 00 00 00 08 00 02 00 	addiu $2,$0,8
  406010:	05 00 00 00 26 00 02 03 	beq $3,$2,4060b0 <sweep+0x158>
  406018:	5c 00 00 00 09 00 02 03 	slti $2,$3,9
  406020:	05 00 00 00 06 00 00 02 	beq $2,$0,406040 <sweep+0xe8>
  406028:	43 00 00 00 06 00 02 00 	addiu $2,$0,6
  406030:	05 00 00 00 08 00 02 03 	beq $3,$2,406058 <sweep+0x100>
  406038:	01 00 00 00 44 18 10 00 	j 406110 <sweep+0x1b8>
  406040:	43 00 00 00 0a 00 02 00 	addiu $2,$0,10
  406048:	05 00 00 00 20 00 02 03 	beq $3,$2,4060d0 <sweep+0x178>
  406050:	01 00 00 00 44 18 10 00 	j 406110 <sweep+0x1b8>
  406058:	28 00 00 00 03 00 02 11 	lw $2,3($17)
  406060:	06 00 00 00 2a 00 00 02 	bne $2,$0,406110 <sweep+0x1b8>
  406068:	28 00 00 00 07 00 04 11 	lw $4,7($17)
  406070:	05 00 00 00 26 00 00 04 	beq $4,$0,406110 <sweep+0x1b8>
  406078:	28 00 00 00 8c 85 10 1c 	lw $16,-31348($28)
  406080:	43 00 00 00 ff ff 10 10 	addiu $16,$16,-1
  406088:	02 00 00 00 80 67 10 00 	jal 419e00 <strlen>
  406090:	28 00 00 00 07 00 04 11 	lw $4,7($17)
  406098:	45 00 00 00 00 10 02 10 	subu $16,$16,$2
  4060a0:	34 00 00 00 8c 85 10 1c 	sw $16,-31348($28)
  4060a8:	01 00 00 00 42 18 10 00 	j 406108 <sweep+0x1b0>
  4060b0:	28 00 00 00 03 00 04 11 	lw $4,3($17)
  4060b8:	05 00 00 00 14 00 00 04 	beq $4,$0,406110 <sweep+0x1b8>
  4060c0:	02 00 00 00 d4 67 10 00 	jal 419f50 <fclose>
  4060c8:	01 00 00 00 44 18 10 00 	j 406110 <sweep+0x1b8>
  4060d0:	28 00 00 00 03 00 02 11 	lw $2,3($17)
  4060d8:	05 00 00 00 0c 00 00 02 	beq $2,$0,406110 <sweep+0x1b8>
  4060e0:	28 00 00 00 8c 85 03 1c 	lw $3,-31348($28)
  4060e8:	28 00 00 00 07 00 04 11 	lw $4,7($17)
  4060f0:	55 00 00 00 02 02 02 00 	sll $2,$2,0x2
  4060f8:	45 00 00 00 00 03 02 03 	subu $3,$3,$2
  406100:	34 00 00 00 8c 85 03 1c 	sw $3,-31348($28)
  406108:	02 00 00 00 a0 6a 10 00 	jal 41aa80 <free>
  406110:	30 00 00 00 00 00 00 12 	sb $0,0($18)
  406118:	30 00 00 00 00 00 00 11 	sb $0,0($17)
  406120:	28 00 00 00 a8 85 03 1c 	lw $3,-31320($28)
  406128:	28 00 00 00 9c 85 02 1c 	lw $2,-31332($28)
  406130:	34 00 00 00 03 00 00 11 	sw $0,3($17)
  406138:	43 00 00 00 01 00 02 02 	addiu $2,$2,1
  406140:	34 00 00 00 07 00 03 11 	sw $3,7($17)
  406148:	34 00 00 00 a8 85 12 1c 	sw $18,-31320($28)
  406150:	34 00 00 00 9c 85 02 1c 	sw $2,-31332($28)
  406158:	01 00 00 00 5c 18 10 00 	j 406170 <sweep+0x218>
  406160:	4f 00 00 00 fc 00 02 03 	andi $2,$3,252
  406168:	30 00 00 00 00 00 02 11 	sb $2,0($17)
  406170:	43 00 00 00 0c 00 11 11 	addiu $17,$17,12
  406178:	43 00 00 00 0c 00 12 12 	addiu $18,$18,12
  406180:	43 00 00 00 ff ff 13 13 	addiu $19,$19,-1
  406188:	06 00 00 00 96 ff 15 13 	bne $19,$21,405fe8 <sweep+0x90>
  406190:	28 00 00 00 04 00 14 14 	lw $20,4($20)
  406198:	06 00 00 00 88 ff 00 14 	bne $20,$0,405fc0 <sweep+0x68>
  4061a0:	28 00 00 00 28 00 1f 1d 	lw $31,40($29)
  4061a8:	28 00 00 00 24 00 15 1d 	lw $21,36($29)
  4061b0:	28 00 00 00 20 00 14 1d 	lw $20,32($29)
  4061b8:	28 00 00 00 1c 00 13 1d 	lw $19,28($29)
  4061c0:	28 00 00 00 18 00 12 1d 	lw $18,24($29)
  4061c8:	28 00 00 00 14 00 11 1d 	lw $17,20($29)
  4061d0:	28 00 00 00 10 00 10 1d 	lw $16,16($29)
  4061d8:	43 00 00 00 30 00 1d 1d 	addiu $29,$29,48
  4061e0:	03 00 00 00 00 00 00 1f 	jr $31

004061e8 <addseg>:
  4061e8:	28 00 00 00 90 85 02 1c 	lw $2,-31344($28)
  4061f0:	43 00 00 00 e0 ff 1d 1d 	addiu $29,$29,-32
  4061f8:	34 00 00 00 18 00 1f 1d 	sw $31,24($29)
  406200:	05 00 00 00 9a 00 00 02 	beq $2,$0,406470 <addseg+0x288>
  406208:	43 00 00 00 ff ff 02 02 	addiu $2,$2,-1
  406210:	55 00 00 00 01 05 02 00 	sll $5,$2,0x1
  406218:	42 00 00 00 00 05 02 05 	addu $5,$5,$2
  406220:	55 00 00 00 02 05 05 00 	sll $5,$5,0x2
  406228:	43 00 00 00 01 00 04 00 	addiu $4,$0,1
  406230:	43 00 00 00 14 00 05 05 	addiu $5,$5,20
  406238:	02 00 00 00 58 67 10 00 	jal 419d60 <calloc>
  406240:	42 00 00 00 00 04 02 00 	addu $4,$0,$2
  406248:	05 00 00 00 88 00 00 04 	beq $4,$0,406470 <addseg+0x288>
  406250:	28 00 00 00 90 85 03 1c 	lw $3,-31344($28)
  406258:	28 00 00 00 a4 85 02 1c 	lw $2,-31324($28)
  406260:	43 00 00 00 08 00 05 04 	addiu $5,$4,8
  406268:	43 00 00 00 ff ff 06 03 	addiu $6,$3,-1
  406270:	34 00 00 00 00 00 03 04 	sw $3,0($4)
  406278:	34 00 00 00 04 00 02 04 	sw $2,4($4)
  406280:	34 00 00 00 a4 85 04 1c 	sw $4,-31324($28)
  406288:	05 00 00 00 50 00 00 03 	beq $3,$0,4063d0 <addseg+0x1e8>
  406290:	43 00 00 00 ff ff 07 00 	addiu $7,$0,-1
  406298:	54 00 00 00 00 02 06 00 	nor $2,$0,$6
  4062a0:	4f 00 00 00 03 00 03 02 	andi $3,$2,3
  4062a8:	09 00 00 00 1e 00 00 06 	bltz $6,406328 <addseg+0x140>
  4062b0:	05 00 00 00 28 00 00 03 	beq $3,$0,406358 <addseg+0x170>
  4062b8:	5c 00 00 00 03 00 02 03 	slti $2,$3,3
  4062c0:	05 00 00 00 18 00 00 02 	beq $2,$0,406328 <addseg+0x140>
  4062c8:	5c 00 00 00 02 00 02 03 	slti $2,$3,2
  4062d0:	05 00 00 00 0a 00 00 02 	beq $2,$0,406300 <addseg+0x118>
  4062d8:	28 00 00 00 a8 85 02 1c 	lw $2,-31320($28)
  4062e0:	43 00 00 00 ff ff 06 06 	addiu $6,$6,-1
  4062e8:	34 00 00 00 08 00 02 05 	sw $2,8($5)
  4062f0:	34 00 00 00 a8 85 05 1c 	sw $5,-31320($28)
  4062f8:	43 00 00 00 14 00 05 04 	addiu $5,$4,20
  406300:	28 00 00 00 a8 85 02 1c 	lw $2,-31320($28)
  406308:	43 00 00 00 ff ff 06 06 	addiu $6,$6,-1
  406310:	34 00 00 00 08 00 02 05 	sw $2,8($5)
  406318:	34 00 00 00 a8 85 05 1c 	sw $5,-31320($28)
  406320:	43 00 00 00 0c 00 05 05 	addiu $5,$5,12
  406328:	28 00 00 00 a8 85 02 1c 	lw $2,-31320($28)
  406330:	43 00 00 00 ff ff 06 06 	addiu $6,$6,-1
  406338:	34 00 00 00 08 00 02 05 	sw $2,8($5)
  406340:	34 00 00 00 a8 85 05 1c 	sw $5,-31320($28)
  406348:	43 00 00 00 0c 00 05 05 	addiu $5,$5,12
  406350:	05 00 00 00 1e 00 07 06 	beq $6,$7,4063d0 <addseg+0x1e8>
  406358:	28 00 00 00 a8 85 02 1c 	lw $2,-31320($28)
  406360:	43 00 00 00 fc ff 06 06 	addiu $6,$6,-4
  406368:	43 00 00 00 0c 00 04 05 	addiu $4,$5,12
  406370:	43 00 00 00 18 00 03 05 	addiu $3,$5,24
  406378:	34 00 00 00 14 00 05 05 	sw $5,20($5)
  406380:	34 00 00 00 20 00 04 05 	sw $4,32($5)
  406388:	34 00 00 00 2c 00 03 05 	sw $3,44($5)
  406390:	34 00 00 00 08 00 02 05 	sw $2,8($5)
  406398:	43 00 00 00 24 00 02 05 	addiu $2,$5,36
  4063a0:	34 00 00 00 a8 85 05 1c 	sw $5,-31320($28)
  4063a8:	43 00 00 00 30 00 05 05 	addiu $5,$5,48
  4063b0:	34 00 00 00 a8 85 04 1c 	sw $4,-31320($28)
  4063b8:	34 00 00 00 a8 85 03 1c 	sw $3,-31320($28)
  4063c0:	34 00 00 00 a8 85 02 1c 	sw $2,-31320($28)
  4063c8:	06 00 00 00 e2 ff 07 06 	bne $6,$7,406358 <addseg+0x170>
  4063d0:	28 00 00 00 8c 85 05 1c 	lw $5,-31348($28)
  4063d8:	28 00 00 00 90 85 08 1c 	lw $8,-31344($28)
  4063e0:	43 00 00 00 01 00 02 00 	addiu $2,$0,1
  4063e8:	28 00 00 00 9c 85 06 1c 	lw $6,-31332($28)
  4063f0:	28 00 00 00 98 85 07 1c 	lw $7,-31336($28)
  4063f8:	43 00 00 00 14 00 05 05 	addiu $5,$5,20
  406400:	43 00 00 00 ff ff 04 08 	addiu $4,$8,-1
  406408:	55 00 00 00 01 03 04 00 	sll $3,$4,0x1
  406410:	42 00 00 00 00 03 04 03 	addu $3,$3,$4
  406418:	28 00 00 00 94 85 04 1c 	lw $4,-31340($28)
  406420:	55 00 00 00 02 03 03 00 	sll $3,$3,0x2
  406428:	42 00 00 00 00 05 03 05 	addu $5,$5,$3
  406430:	42 00 00 00 00 06 08 06 	addu $6,$6,$8
  406438:	43 00 00 00 01 00 07 07 	addiu $7,$7,1
  406440:	34 00 00 00 8c 85 05 1c 	sw $5,-31348($28)
  406448:	34 00 00 00 9c 85 06 1c 	sw $6,-31332($28)
  406450:	34 00 00 00 98 85 07 1c 	sw $7,-31336($28)
  406458:	42 00 00 00 00 04 08 04 	addu $4,$4,$8
  406460:	34 00 00 00 94 85 04 1c 	sw $4,-31340($28)
  406468:	01 00 00 00 1e 19 10 00 	j 406478 <addseg+0x290>
  406470:	42 00 00 00 00 02 00 00 	addu $2,$0,$0
  406478:	28 00 00 00 18 00 1f 1d 	lw $31,24($29)
  406480:	43 00 00 00 20 00 1d 1d 	addiu $29,$29,32
  406488:	03 00 00 00 00 00 00 1f 	jr $31

00406490 <livecar>:
  406490:	43 00 00 00 d8 ff 1d 1d 	addiu $29,$29,-40
  406498:	34 00 00 00 1c 00 11 1d 	sw $17,28($29)
  4064a0:	42 00 00 00 00 11 04 00 	addu $17,$0,$4
  4064a8:	34 00 00 00 20 00 1f 1d 	sw $31,32($29)
  4064b0:	34 00 00 00 18 00 10 1d 	sw $16,24($29)
  4064b8:	22 00 00 00 00 00 05 11 	lbu $5,0($17)
  4064c0:	43 00 00 00 ff ff 02 05 	addiu $2,$5,-1
  4064c8:	55 00 00 00 18 02 02 00 	sll $2,$2,0x18
  4064d0:	59 00 00 00 18 03 02 00 	sra $3,$2,0x18
  4064d8:	5e 00 00 00 0a 00 02 03 	sltiu $2,$3,10
  4064e0:	05 00 00 00 2c 00 00 02 	beq $2,$0,406598 <livecar+0x108>
  4064e8:	55 00 00 00 02 02 03 00 	sll $2,$3,0x2
  4064f0:	a2 00 00 00 00 10 01 00 	lui $1,4096
  4064f8:	42 00 00 00 00 01 02 01 	addu $1,$1,$2
  406500:	28 00 00 00 b8 02 02 01 	lw $2,696($1)
  406508:	03 00 00 00 00 00 00 02 	jr $2
  406510:	28 00 00 00 04 00 02 11 	lw $2,4($17)
  406518:	42 00 00 00 00 10 00 00 	addu $16,$0,$0
  406520:	07 00 00 00 12 00 00 02 	blez $2,406570 <livecar+0xe0>
  406528:	28 00 00 00 08 00 02 11 	lw $2,8($17)
  406530:	55 00 00 00 02 03 10 00 	sll $3,$16,0x2
  406538:	42 00 00 00 00 03 02 03 	addu $3,$3,$2
  406540:	28 00 00 00 00 00 04 03 	lw $4,0($3)
  406548:	02 00 00 00 24 17 10 00 	jal 405c90 <mark>
  406550:	28 00 00 00 04 00 02 11 	lw $2,4($17)
  406558:	43 00 00 00 01 00 10 10 	addiu $16,$16,1
  406560:	5b 00 00 00 00 02 02 10 	slt $2,$16,$2
  406568:	06 00 00 00 ee ff 00 02 	bne $2,$0,406528 <livecar+0x98>
  406570:	42 00 00 00 00 02 00 00 	addu $2,$0,$0
  406578:	01 00 00 00 76 19 10 00 	j 4065d8 <livecar+0x148>
  406580:	28 00 00 00 04 00 02 11 	lw $2,4($17)
  406588:	5d 00 00 00 00 02 02 00 	sltu $2,$0,$2
  406590:	01 00 00 00 76 19 10 00 	j 4065d8 <livecar+0x148>
  406598:	a2 00 00 00 00 10 04 00 	lui $4,4096
  4065a0:	43 00 00 00 d0 01 04 04 	addiu $4,$4,464
  4065a8:	55 00 00 00 18 05 05 00 	sll $5,$5,0x18
  4065b0:	59 00 00 00 18 05 05 00 	sra $5,$5,0x18
  4065b8:	02 00 00 00 54 5c 10 00 	jal 417150 <printf>
  4065c0:	02 00 00 00 f2 00 10 00 	jal 4003c8 <osfinish>
  4065c8:	43 00 00 00 01 00 04 00 	addiu $4,$0,1
  4065d0:	02 00 00 00 dc 5b 10 00 	jal 416f70 <exit>
  4065d8:	28 00 00 00 20 00 1f 1d 	lw $31,32($29)
  4065e0:	28 00 00 00 1c 00 11 1d 	lw $17,28($29)
  4065e8:	28 00 00 00 18 00 10 1d 	lw $16,24($29)
  4065f0:	43 00 00 00 28 00 1d 1d 	addiu $29,$29,40
  4065f8:	03 00 00 00 00 00 00 1f 	jr $31

00406600 <livecdr>:
  406600:	43 00 00 00 e8 ff 1d 1d 	addiu $29,$29,-24
  406608:	34 00 00 00 10 00 1f 1d 	sw $31,16($29)
  406610:	22 00 00 00 00 00 05 04 	lbu $5,0($4)
  406618:	43 00 00 00 ff ff 02 05 	addiu $2,$5,-1
  406620:	55 00 00 00 18 02 02 00 	sll $2,$2,0x18
  406628:	59 00 00 00 18 03 02 00 	sra $3,$2,0x18
  406630:	5e 00 00 00 0a 00 02 03 	sltiu $2,$3,10
  406638:	05 00 00 00 14 00 00 02 	beq $2,$0,406690 <livecdr+0x90>
  406640:	55 00 00 00 02 02 03 00 	sll $2,$3,0x2
  406648:	a2 00 00 00 00 10 01 00 	lui $1,4096
  406650:	42 00 00 00 00 01 02 01 	addu $1,$1,$2
  406658:	28 00 00 00 e0 02 02 01 	lw $2,736($1)
  406660:	03 00 00 00 00 00 00 02 	jr $2
  406668:	42 00 00 00 00 02 00 00 	addu $2,$0,$0
  406670:	01 00 00 00 b4 19 10 00 	j 4066d0 <livecdr+0xd0>
  406678:	28 00 00 00 08 00 02 04 	lw $2,8($4)
  406680:	5d 00 00 00 00 02 02 00 	sltu $2,$0,$2
  406688:	01 00 00 00 b4 19 10 00 	j 4066d0 <livecdr+0xd0>
  406690:	a2 00 00 00 00 10 04 00 	lui $4,4096
  406698:	43 00 00 00 fc 01 04 04 	addiu $4,$4,508
  4066a0:	55 00 00 00 18 05 05 00 	sll $5,$5,0x18
  4066a8:	59 00 00 00 18 05 05 00 	sra $5,$5,0x18
  4066b0:	02 00 00 00 54 5c 10 00 	jal 417150 <printf>
  4066b8:	02 00 00 00 f2 00 10 00 	jal 4003c8 <osfinish>
  4066c0:	43 00 00 00 01 00 04 00 	addiu $4,$0,1
  4066c8:	02 00 00 00 dc 5b 10 00 	jal 416f70 <exit>
  4066d0:	28 00 00 00 10 00 1f 1d 	lw $31,16($29)
  4066d8:	43 00 00 00 18 00 1d 1d 	addiu $29,$29,24
  4066e0:	03 00 00 00 00 00 00 1f 	jr $31

004066e8 <stats>:
  4066e8:	28 00 00 00 94 85 06 1c 	lw $6,-31340($28)
  4066f0:	43 00 00 00 e8 ff 1d 1d 	addiu $29,$29,-24
  4066f8:	34 00 00 00 10 00 10 1d 	sw $16,16($29)
  406700:	a2 00 00 00 00 10 10 00 	lui $16,4096
  406708:	43 00 00 00 c8 2b 10 10 	addiu $16,$16,11208
  406710:	42 00 00 00 00 04 10 00 	addu $4,$0,$16
  406718:	a2 00 00 00 00 10 05 00 	lui $5,4096
  406720:	43 00 00 00 28 02 05 05 	addiu $5,$5,552
  406728:	34 00 00 00 14 00 1f 1d 	sw $31,20($29)
  406730:	02 00 00 00 70 63 10 00 	jal 418dc0 <sprintf>
  406738:	42 00 00 00 00 04 10 00 	addu $4,$0,$16
  406740:	02 00 00 00 e6 27 10 00 	jal 409f98 <stdputstr>
  406748:	28 00 00 00 9c 85 06 1c 	lw $6,-31332($28)
  406750:	42 00 00 00 00 04 10 00 	addu $4,$0,$16
  406758:	a2 00 00 00 00 10 05 00 	lui $5,4096
  406760:	43 00 00 00 3c 02 05 05 	addiu $5,$5,572
  406768:	02 00 00 00 70 63 10 00 	jal 418dc0 <sprintf>
  406770:	42 00 00 00 00 04 10 00 	addu $4,$0,$16
  406778:	02 00 00 00 e6 27 10 00 	jal 409f98 <stdputstr>
  406780:	28 00 00 00 98 85 06 1c 	lw $6,-31336($28)
  406788:	42 00 00 00 00 04 10 00 	addu $4,$0,$16
  406790:	a2 00 00 00 00 10 05 00 	lui $5,4096
  406798:	43 00 00 00 50 02 05 05 	addiu $5,$5,592
  4067a0:	02 00 00 00 70 63 10 00 	jal 418dc0 <sprintf>
  4067a8:	42 00 00 00 00 04 10 00 	addu $4,$0,$16
  4067b0:	02 00 00 00 e6 27 10 00 	jal 409f98 <stdputstr>
  4067b8:	28 00 00 00 90 85 06 1c 	lw $6,-31344($28)
  4067c0:	42 00 00 00 00 04 10 00 	addu $4,$0,$16
  4067c8:	a2 00 00 00 00 10 05 00 	lui $5,4096
  4067d0:	43 00 00 00 64 02 05 05 	addiu $5,$5,612
  4067d8:	02 00 00 00 70 63 10 00 	jal 418dc0 <sprintf>
  4067e0:	42 00 00 00 00 04 10 00 	addu $4,$0,$16
  4067e8:	02 00 00 00 e6 27 10 00 	jal 409f98 <stdputstr>
  4067f0:	28 00 00 00 8c 85 06 1c 	lw $6,-31348($28)
  4067f8:	42 00 00 00 00 04 10 00 	addu $4,$0,$16
  406800:	a2 00 00 00 00 10 05 00 	lui $5,4096
  406808:	43 00 00 00 78 02 05 05 	addiu $5,$5,632
  406810:	02 00 00 00 70 63 10 00 	jal 418dc0 <sprintf>
  406818:	42 00 00 00 00 04 10 00 	addu $4,$0,$16
  406820:	02 00 00 00 e6 27 10 00 	jal 409f98 <stdputstr>
  406828:	28 00 00 00 a0 85 06 1c 	lw $6,-31328($28)
  406830:	42 00 00 00 00 04 10 00 	addu $4,$0,$16
  406838:	a2 00 00 00 00 10 05 00 	lui $5,4096
  406840:	43 00 00 00 8c 02 05 05 	addiu $5,$5,652
  406848:	02 00 00 00 70 63 10 00 	jal 418dc0 <sprintf>
  406850:	42 00 00 00 00 04 10 00 	addu $4,$0,$16
  406858:	02 00 00 00 e6 27 10 00 	jal 409f98 <stdputstr>
  406860:	28 00 00 00 14 00 1f 1d 	lw $31,20($29)
  406868:	28 00 00 00 10 00 10 1d 	lw $16,16($29)
  406870:	43 00 00 00 18 00 1d 1d 	addiu $29,$29,24
  406878:	03 00 00 00 00 00 00 1f 	jr $31

00406880 <xlminit>:
  406880:	43 00 00 00 e8 ff 1d 1d 	addiu $29,$29,-24
  406888:	43 00 00 00 a0 0f 04 00 	addiu $4,$0,4000
  406890:	43 00 00 00 e8 03 02 00 	addiu $2,$0,1000
  406898:	34 00 00 00 10 00 1f 1d 	sw $31,16($29)
  4068a0:	34 00 00 00 90 85 02 1c 	sw $2,-31344($28)
  4068a8:	34 00 00 00 8c 85 00 1c 	sw $0,-31348($28)
  4068b0:	34 00 00 00 a0 85 00 1c 	sw $0,-31328($28)
  4068b8:	34 00 00 00 9c 85 00 1c 	sw $0,-31332($28)
  4068c0:	34 00 00 00 98 85 00 1c 	sw $0,-31336($28)
  4068c8:	34 00 00 00 94 85 00 1c 	sw $0,-31340($28)
  4068d0:	34 00 00 00 a8 85 00 1c 	sw $0,-31320($28)
  4068d8:	34 00 00 00 a4 85 00 1c 	sw $0,-31324($28)
  4068e0:	34 00 00 00 4c 85 00 1c 	sw $0,-31412($28)
  4068e8:	34 00 00 00 60 85 00 1c 	sw $0,-31392($28)
  4068f0:	02 00 00 00 f6 64 10 00 	jal 4193d8 <malloc>
  4068f8:	42 00 00 00 00 03 02 00 	addu $3,$0,$2
  406900:	34 00 00 00 58 85 03 1c 	sw $3,-31400($28)
  406908:	06 00 00 00 0c 00 00 03 	bne $3,$0,406940 <xlminit+0xc0>
  406910:	a2 00 00 00 00 10 04 00 	lui $4,4096
  406918:	43 00 00 00 a0 02 04 04 	addiu $4,$4,672
  406920:	02 00 00 00 54 5c 10 00 	jal 417150 <printf>
  406928:	02 00 00 00 f2 00 10 00 	jal 4003c8 <osfinish>
  406930:	43 00 00 00 01 00 04 00 	addiu $4,$0,1
  406938:	02 00 00 00 dc 5b 10 00 	jal 416f70 <exit>
  406940:	28 00 00 00 8c 85 02 1c 	lw $2,-31348($28)
  406948:	43 00 00 00 a0 0f 03 03 	addiu $3,$3,4000
  406950:	34 00 00 00 5c 85 03 1c 	sw $3,-31396($28)
  406958:	34 00 00 00 54 85 03 1c 	sw $3,-31404($28)
  406960:	43 00 00 00 a0 0f 02 02 	addiu $2,$2,4000
  406968:	34 00 00 00 8c 85 02 1c 	sw $2,-31348($28)
  406970:	28 00 00 00 10 00 1f 1d 	lw $31,16($29)
  406978:	43 00 00 00 18 00 1d 1d 	addiu $29,$29,24
  406980:	03 00 00 00 00 00 00 1f 	jr $31
	...

00406990 <xleval>:
  406990:	28 00 00 00 78 85 02 1c 	lw $2,-31368($28)
  406998:	43 00 00 00 e8 ff 1d 1d 	addiu $29,$29,-24
  4069a0:	34 00 00 00 10 00 10 1d 	sw $16,16($29)
  4069a8:	42 00 00 00 00 10 04 00 	addu $16,$0,$4
  4069b0:	34 00 00 00 14 00 1f 1d 	sw $31,20($29)
  4069b8:	43 00 00 00 ff ff 02 02 	addiu $2,$2,-1
  4069c0:	34 00 00 00 78 85 02 1c 	sw $2,-31368($28)
  4069c8:	08 00 00 00 06 00 00 02 	bgtz $2,4069e8 <xleval+0x58>
  4069d0:	43 00 00 00 64 00 02 00 	addiu $2,$0,100
  4069d8:	34 00 00 00 78 85 02 1c 	sw $2,-31368($28)
  4069e0:	02 00 00 00 ee 00 10 00 	jal 4003b8 <oscheck>
  4069e8:	28 00 00 00 bc 84 02 1c 	lw $2,-31556($28)
  4069f0:	28 00 00 00 08 00 02 02 	lw $2,8($2)
  4069f8:	05 00 00 00 06 00 00 02 	beq $2,$0,406a18 <xleval+0x88>
  406a00:	42 00 00 00 00 04 10 00 	addu $4,$0,$16
  406a08:	02 00 00 00 a4 1c 10 00 	jal 407290 <evalhook>
  406a10:	01 00 00 00 b8 1a 10 00 	j 406ae0 <xleval+0x150>
  406a18:	28 00 00 00 70 85 02 1c 	lw $2,-31376($28)
  406a20:	43 00 00 00 01 00 04 02 	addiu $4,$2,1
  406a28:	5c 00 00 00 f4 01 02 04 	slti $2,$4,500
  406a30:	34 00 00 00 70 85 04 1c 	sw $4,-31376($28)
  406a38:	05 00 00 00 08 00 00 02 	beq $2,$0,406a60 <xleval+0xd0>
  406a40:	28 00 00 00 74 85 03 1c 	lw $3,-31372($28)
  406a48:	55 00 00 00 02 02 04 00 	sll $2,$4,0x2
  406a50:	42 00 00 00 00 02 03 02 	addu $2,$2,$3
  406a58:	34 00 00 00 00 00 10 02 	sw $16,0($2)
  406a60:	05 00 00 00 16 00 00 10 	beq $16,$0,406ac0 <xleval+0x130>
  406a68:	20 00 00 00 00 00 03 10 	lb $3,0($16)
  406a70:	43 00 00 00 03 00 02 00 	addiu $2,$0,3
  406a78:	06 00 00 00 06 00 02 03 	bne $3,$2,406a98 <xleval+0x108>
  406a80:	42 00 00 00 00 04 10 00 	addu $4,$0,$16
  406a88:	02 00 00 00 48 1b 10 00 	jal 406d20 <evform>
  406a90:	01 00 00 00 ae 1a 10 00 	j 406ab8 <xleval+0x128>
  406a98:	43 00 00 00 04 00 02 00 	addiu $2,$0,4
  406aa0:	06 00 00 00 06 00 02 03 	bne $3,$2,406ac0 <xleval+0x130>
  406aa8:	42 00 00 00 00 04 10 00 	addu $4,$0,$16
  406ab0:	02 00 00 00 94 57 10 00 	jal 415e50 <xlgetvalue>
  406ab8:	42 00 00 00 00 10 02 00 	addu $16,$0,$2
  406ac0:	28 00 00 00 70 85 03 1c 	lw $3,-31376($28)
  406ac8:	42 00 00 00 00 02 10 00 	addu $2,$0,$16
  406ad0:	43 00 00 00 ff ff 03 03 	addiu $3,$3,-1
  406ad8:	34 00 00 00 70 85 03 1c 	sw $3,-31376($28)
  406ae0:	28 00 00 00 14 00 1f 1d 	lw $31,20($29)
  406ae8:	28 00 00 00 10 00 10 1d 	lw $16,16($29)
  406af0:	43 00 00 00 18 00 1d 1d 	addiu $29,$29,24
  406af8:	03 00 00 00 00 00 00 1f 	jr $31

00406b00 <xlxeval>:
  406b00:	43 00 00 00 e8 ff 1d 1d 	addiu $29,$29,-24
  406b08:	34 00 00 00 10 00 1f 1d 	sw $31,16($29)
  406b10:	05 00 00 00 12 00 00 04 	beq $4,$0,406b60 <xlxeval+0x60>
  406b18:	20 00 00 00 00 00 03 04 	lb $3,0($4)
  406b20:	43 00 00 00 03 00 02 00 	addiu $2,$0,3
  406b28:	06 00 00 00 04 00 02 03 	bne $3,$2,406b40 <xlxeval+0x40>
  406b30:	02 00 00 00 48 1b 10 00 	jal 406d20 <evform>
  406b38:	01 00 00 00 d6 1a 10 00 	j 406b58 <xlxeval+0x58>
  406b40:	43 00 00 00 04 00 02 00 	addiu $2,$0,4
  406b48:	06 00 00 00 04 00 02 03 	bne $3,$2,406b60 <xlxeval+0x60>
  406b50:	02 00 00 00 94 57 10 00 	jal 415e50 <xlgetvalue>
  406b58:	42 00 00 00 00 04 02 00 	addu $4,$0,$2
  406b60:	42 00 00 00 00 02 04 00 	addu $2,$0,$4
  406b68:	28 00 00 00 10 00 1f 1d 	lw $31,16($29)
  406b70:	43 00 00 00 18 00 1d 1d 	addiu $29,$29,24
  406b78:	03 00 00 00 00 00 00 1f 	jr $31

00406b80 <xlapply>:
  406b80:	43 00 00 00 e0 ff 1d 1d 	addiu $29,$29,-32
  406b88:	34 00 00 00 10 00 10 1d 	sw $16,16($29)
  406b90:	42 00 00 00 00 10 04 00 	addu $16,$0,$4
  406b98:	34 00 00 00 18 00 12 1d 	sw $18,24($29)
  406ba0:	42 00 00 00 00 12 05 00 	addu $18,$0,$5
  406ba8:	34 00 00 00 1c 00 1f 1d 	sw $31,28($29)
  406bb0:	34 00 00 00 14 00 11 1d 	sw $17,20($29)
  406bb8:	06 00 00 00 08 00 00 10 	bne $16,$0,406be0 <xlapply+0x60>
  406bc0:	a2 00 00 00 00 10 04 00 	lui $4,4096
  406bc8:	43 00 00 00 10 03 04 04 	addiu $4,$4,784
  406bd0:	02 00 00 00 8c 11 10 00 	jal 404630 <xlfail>
  406bd8:	01 00 00 00 34 1b 10 00 	j 406cd0 <xlapply+0x150>
  406be0:	20 00 00 00 00 00 04 10 	lb $4,0($16)
  406be8:	43 00 00 00 01 00 02 00 	addiu $2,$0,1
  406bf0:	06 00 00 00 0a 00 02 04 	bne $4,$2,406c20 <xlapply+0xa0>
  406bf8:	28 00 00 00 04 00 02 10 	lw $2,4($16)
  406c00:	42 00 00 00 00 04 12 00 	addu $4,$0,$18
  406c08:	04 00 00 00 00 1f 00 02 	jalr $31,$2
  406c10:	42 00 00 00 00 11 02 00 	addu $17,$0,$2
  406c18:	01 00 00 00 3a 1b 10 00 	j 406ce8 <xlapply+0x168>
  406c20:	43 00 00 00 03 00 02 00 	addiu $2,$0,3
  406c28:	06 00 00 00 28 00 02 04 	bne $4,$2,406cd0 <xlapply+0x150>
  406c30:	28 00 00 00 04 00 03 10 	lw $3,4($16)
  406c38:	05 00 00 00 0a 00 00 03 	beq $3,$0,406c68 <xlapply+0xe8>
  406c40:	20 00 00 00 00 00 02 03 	lb $2,0($3)
  406c48:	06 00 00 00 06 00 04 02 	bne $2,$4,406c68 <xlapply+0xe8>
  406c50:	28 00 00 00 08 00 11 10 	lw $17,8($16)
  406c58:	42 00 00 00 00 10 03 00 	addu $16,$0,$3
  406c60:	01 00 00 00 1c 1b 10 00 	j 406c70 <xlapply+0xf0>
  406c68:	28 00 00 00 60 85 11 1c 	lw $17,-31392($28)
  406c70:	28 00 00 00 04 00 03 10 	lw $3,4($16)
  406c78:	28 00 00 00 c4 84 02 1c 	lw $2,-31548($28)
  406c80:	05 00 00 00 06 00 02 03 	beq $3,$2,406ca0 <xlapply+0x120>
  406c88:	a2 00 00 00 00 10 04 00 	lui $4,4096
  406c90:	43 00 00 00 20 03 04 04 	addiu $4,$4,800
  406c98:	02 00 00 00 8c 11 10 00 	jal 404630 <xlfail>
  406ca0:	42 00 00 00 00 04 10 00 	addu $4,$0,$16
  406ca8:	42 00 00 00 00 05 12 00 	addu $5,$0,$18
  406cb0:	42 00 00 00 00 06 11 00 	addu $6,$0,$17
  406cb8:	02 00 00 00 14 1e 10 00 	jal 407850 <evfun>
  406cc0:	42 00 00 00 00 11 02 00 	addu $17,$0,$2
  406cc8:	01 00 00 00 3a 1b 10 00 	j 406ce8 <xlapply+0x168>
  406cd0:	a2 00 00 00 00 10 04 00 	lui $4,4096
  406cd8:	43 00 00 00 10 03 04 04 	addiu $4,$4,784
  406ce0:	02 00 00 00 8c 11 10 00 	jal 404630 <xlfail>
  406ce8:	42 00 00 00 00 02 11 00 	addu $2,$0,$17
  406cf0:	28 00 00 00 1c 00 1f 1d 	lw $31,28($29)
  406cf8:	28 00 00 00 18 00 12 1d 	lw $18,24($29)
  406d00:	28 00 00 00 14 00 11 1d 	lw $17,20($29)
  406d08:	28 00 00 00 10 00 10 1d 	lw $16,16($29)
  406d10:	43 00 00 00 20 00 1d 1d 	addiu $29,$29,32
  406d18:	03 00 00 00 00 00 00 1f 	jr $31

00406d20 <evform>:
  406d20:	43 00 00 00 d8 ff 1d 1d 	addiu $29,$29,-40
  406d28:	34 00 00 00 18 00 10 1d 	sw $16,24($29)
  406d30:	42 00 00 00 00 10 04 00 	addu $16,$0,$4
  406d38:	43 00 00 00 10 00 04 1d 	addiu $4,$29,16
  406d40:	43 00 00 00 14 00 05 1d 	addiu $5,$29,20
  406d48:	42 00 00 00 00 06 00 00 	addu $6,$0,$0
  406d50:	34 00 00 00 24 00 1f 1d 	sw $31,36($29)
  406d58:	34 00 00 00 20 00 12 1d 	sw $18,32($29)
  406d60:	34 00 00 00 1c 00 11 1d 	sw $17,28($29)
  406d68:	02 00 00 00 bc 1f 10 00 	jal 407ef0 <xlsave>
  406d70:	28 00 00 00 04 00 04 10 	lw $4,4($16)
  406d78:	28 00 00 00 08 00 05 10 	lw $5,8($16)
  406d80:	28 00 00 00 78 85 03 1c 	lw $3,-31368($28)
  406d88:	42 00 00 00 00 12 02 00 	addu $18,$0,$2
  406d90:	42 00 00 00 00 10 04 00 	addu $16,$0,$4
  406d98:	43 00 00 00 ff ff 03 03 	addiu $3,$3,-1
  406da0:	34 00 00 00 10 00 10 1d 	sw $16,16($29)
  406da8:	34 00 00 00 14 00 05 1d 	sw $5,20($29)
  406db0:	34 00 00 00 78 85 03 1c 	sw $3,-31368($28)
  406db8:	08 00 00 00 06 00 00 03 	bgtz $3,406dd8 <evform+0xb8>
  406dc0:	43 00 00 00 64 00 02 00 	addiu $2,$0,100
  406dc8:	34 00 00 00 78 85 02 1c 	sw $2,-31368($28)
  406dd0:	02 00 00 00 ee 00 10 00 	jal 4003b8 <oscheck>
  406dd8:	28 00 00 00 bc 84 02 1c 	lw $2,-31556($28)
  406de0:	28 00 00 00 08 00 02 02 	lw $2,8($2)
  406de8:	05 00 00 00 08 00 00 02 	beq $2,$0,406e10 <evform+0xf0>
  406df0:	42 00 00 00 00 04 10 00 	addu $4,$0,$16
  406df8:	02 00 00 00 a4 1c 10 00 	jal 407290 <evalhook>
  406e00:	42 00 00 00 00 04 02 00 	addu $4,$0,$2
  406e08:	01 00 00 00 b6 1b 10 00 	j 406ed8 <evform+0x1b8>
  406e10:	28 00 00 00 70 85 02 1c 	lw $2,-31376($28)
  406e18:	43 00 00 00 01 00 04 02 	addiu $4,$2,1
  406e20:	5c 00 00 00 f4 01 02 04 	slti $2,$4,500
  406e28:	34 00 00 00 70 85 04 1c 	sw $4,-31376($28)
  406e30:	05 00 00 00 08 00 00 02 	beq $2,$0,406e58 <evform+0x138>
  406e38:	28 00 00 00 74 85 03 1c 	lw $3,-31372($28)
  406e40:	55 00 00 00 02 02 04 00 	sll $2,$4,0x2
  406e48:	42 00 00 00 00 02 03 02 	addu $2,$2,$3
  406e50:	34 00 00 00 00 00 10 02 	sw $16,0($2)
  406e58:	05 00 00 00 16 00 00 10 	beq $16,$0,406eb8 <evform+0x198>
  406e60:	20 00 00 00 00 00 03 10 	lb $3,0($16)
  406e68:	43 00 00 00 03 00 02 00 	addiu $2,$0,3
  406e70:	06 00 00 00 06 00 02 03 	bne $3,$2,406e90 <evform+0x170>
  406e78:	42 00 00 00 00 04 10 00 	addu $4,$0,$16
  406e80:	02 00 00 00 48 1b 10 00 	jal 406d20 <evform>
  406e88:	01 00 00 00 ac 1b 10 00 	j 406eb0 <evform+0x190>
  406e90:	43 00 00 00 04 00 02 00 	addiu $2,$0,4
  406e98:	06 00 00 00 06 00 02 03 	bne $3,$2,406eb8 <evform+0x198>
  406ea0:	42 00 00 00 00 04 10 00 	addu $4,$0,$16
  406ea8:	02 00 00 00 94 57 10 00 	jal 415e50 <xlgetvalue>
  406eb0:	42 00 00 00 00 10 02 00 	addu $16,$0,$2
  406eb8:	28 00 00 00 70 85 02 1c 	lw $2,-31376($28)
  406ec0:	42 00 00 00 00 04 10 00 	addu $4,$0,$16
  406ec8:	43 00 00 00 ff ff 02 02 	addiu $2,$2,-1
  406ed0:	34 00 00 00 70 85 02 1c 	sw $2,-31376($28)
  406ed8:	34 00 00 00 10 00 04 1d 	sw $4,16($29)
  406ee0:	06 00 00 00 0a 00 00 04 	bne $4,$0,406f10 <evform+0x1f0>
  406ee8:	a2 00 00 00 00 10 04 00 	lui $4,4096
  406ef0:	43 00 00 00 10 03 04 04 	addiu $4,$4,784
  406ef8:	02 00 00 00 8c 11 10 00 	jal 404630 <xlfail>
  406f00:	28 00 00 00 10 00 02 1d 	lw $2,16($29)
  406f08:	05 00 00 00 ca 00 00 02 	beq $2,$0,407238 <evform+0x518>
  406f10:	28 00 00 00 10 00 04 1d 	lw $4,16($29)
  406f18:	22 00 00 00 00 00 03 04 	lbu $3,0($4)
  406f20:	43 00 00 00 ff ff 02 03 	addiu $2,$3,-1
  406f28:	5e 00 00 00 02 00 02 02 	sltiu $2,$2,2
  406f30:	05 00 00 00 1c 00 00 02 	beq $2,$0,406fa8 <evform+0x288>
  406f38:	05 00 00 00 0e 00 00 04 	beq $4,$0,406f78 <evform+0x258>
  406f40:	55 00 00 00 18 02 03 00 	sll $2,$3,0x18
  406f48:	59 00 00 00 18 02 02 00 	sra $2,$2,0x18
  406f50:	43 00 00 00 01 00 03 00 	addiu $3,$0,1
  406f58:	06 00 00 00 06 00 03 02 	bne $2,$3,406f78 <evform+0x258>
  406f60:	28 00 00 00 14 00 04 1d 	lw $4,20($29)
  406f68:	02 00 00 00 4a 1d 10 00 	jal 407528 <xlevlist>
  406f70:	34 00 00 00 14 00 02 1d 	sw $2,20($29)
  406f78:	28 00 00 00 10 00 02 1d 	lw $2,16($29)
  406f80:	28 00 00 00 14 00 04 1d 	lw $4,20($29)
  406f88:	28 00 00 00 04 00 02 02 	lw $2,4($2)
  406f90:	04 00 00 00 00 1f 00 02 	jalr $31,$2
  406f98:	42 00 00 00 00 11 02 00 	addu $17,$0,$2
  406fa0:	01 00 00 00 94 1c 10 00 	j 407250 <evform+0x530>
  406fa8:	05 00 00 00 a2 00 00 04 	beq $4,$0,407238 <evform+0x518>
  406fb0:	55 00 00 00 18 02 03 00 	sll $2,$3,0x18
  406fb8:	59 00 00 00 18 05 02 00 	sra $5,$2,0x18
  406fc0:	43 00 00 00 03 00 02 00 	addiu $2,$0,3
  406fc8:	06 00 00 00 8e 00 02 05 	bne $5,$2,407208 <evform+0x4e8>
  406fd0:	28 00 00 00 04 00 03 04 	lw $3,4($4)
  406fd8:	05 00 00 00 0a 00 00 03 	beq $3,$0,407008 <evform+0x2e8>
  406fe0:	20 00 00 00 00 00 02 03 	lb $2,0($3)
  406fe8:	06 00 00 00 06 00 05 02 	bne $2,$5,407008 <evform+0x2e8>
  406ff0:	28 00 00 00 08 00 10 04 	lw $16,8($4)
  406ff8:	34 00 00 00 10 00 03 1d 	sw $3,16($29)
  407000:	01 00 00 00 04 1c 10 00 	j 407010 <evform+0x2f0>
  407008:	28 00 00 00 60 85 10 1c 	lw $16,-31392($28)
  407010:	28 00 00 00 10 00 04 1d 	lw $4,16($29)
  407018:	28 00 00 00 c4 84 02 1c 	lw $2,-31548($28)
  407020:	28 00 00 00 04 00 03 04 	lw $3,4($4)
  407028:	06 00 00 00 12 00 02 03 	bne $3,$2,407078 <evform+0x358>
  407030:	28 00 00 00 14 00 04 1d 	lw $4,20($29)
  407038:	02 00 00 00 4a 1d 10 00 	jal 407528 <xlevlist>
  407040:	28 00 00 00 10 00 04 1d 	lw $4,16($29)
  407048:	42 00 00 00 00 05 02 00 	addu $5,$0,$2
  407050:	42 00 00 00 00 06 10 00 	addu $6,$0,$16
  407058:	34 00 00 00 14 00 05 1d 	sw $5,20($29)
  407060:	02 00 00 00 14 1e 10 00 	jal 407850 <evfun>
  407068:	42 00 00 00 00 11 02 00 	addu $17,$0,$2
  407070:	01 00 00 00 94 1c 10 00 	j 407250 <evform+0x530>
  407078:	28 00 00 00 c8 84 02 1c 	lw $2,-31544($28)
  407080:	06 00 00 00 5a 00 02 03 	bne $3,$2,4071f0 <evform+0x4d0>
  407088:	28 00 00 00 14 00 05 1d 	lw $5,20($29)
  407090:	42 00 00 00 00 06 10 00 	addu $6,$0,$16
  407098:	02 00 00 00 14 1e 10 00 	jal 407850 <evfun>
  4070a0:	28 00 00 00 78 85 03 1c 	lw $3,-31368($28)
  4070a8:	42 00 00 00 00 10 02 00 	addu $16,$0,$2
  4070b0:	34 00 00 00 14 00 10 1d 	sw $16,20($29)
  4070b8:	43 00 00 00 ff ff 03 03 	addiu $3,$3,-1
  4070c0:	34 00 00 00 78 85 03 1c 	sw $3,-31368($28)
  4070c8:	08 00 00 00 06 00 00 03 	bgtz $3,4070e8 <evform+0x3c8>
  4070d0:	43 00 00 00 64 00 02 00 	addiu $2,$0,100
  4070d8:	34 00 00 00 78 85 02 1c 	sw $2,-31368($28)
  4070e0:	02 00 00 00 ee 00 10 00 	jal 4003b8 <oscheck>
  4070e8:	28 00 00 00 bc 84 02 1c 	lw $2,-31556($28)
  4070f0:	28 00 00 00 08 00 02 02 	lw $2,8($2)
  4070f8:	05 00 00 00 08 00 00 02 	beq $2,$0,407120 <evform+0x400>
  407100:	42 00 00 00 00 04 10 00 	addu $4,$0,$16
  407108:	02 00 00 00 a4 1c 10 00 	jal 407290 <evalhook>
  407110:	42 00 00 00 00 11 02 00 	addu $17,$0,$2
  407118:	01 00 00 00 94 1c 10 00 	j 407250 <evform+0x530>
  407120:	28 00 00 00 70 85 02 1c 	lw $2,-31376($28)
  407128:	43 00 00 00 01 00 04 02 	addiu $4,$2,1
  407130:	5c 00 00 00 f4 01 02 04 	slti $2,$4,500
  407138:	34 00 00 00 70 85 04 1c 	sw $4,-31376($28)
  407140:	05 00 00 00 08 00 00 02 	beq $2,$0,407168 <evform+0x448>
  407148:	28 00 00 00 74 85 03 1c 	lw $3,-31372($28)
  407150:	55 00 00 00 02 02 04 00 	sll $2,$4,0x2
  407158:	42 00 00 00 00 02 03 02 	addu $2,$2,$3
  407160:	34 00 00 00 00 00 10 02 	sw $16,0($2)
  407168:	05 00 00 00 16 00 00 10 	beq $16,$0,4071c8 <evform+0x4a8>
  407170:	20 00 00 00 00 00 03 10 	lb $3,0($16)
  407178:	43 00 00 00 03 00 02 00 	addiu $2,$0,3
  407180:	06 00 00 00 06 00 02 03 	bne $3,$2,4071a0 <evform+0x480>
  407188:	42 00 00 00 00 04 10 00 	addu $4,$0,$16
  407190:	02 00 00 00 48 1b 10 00 	jal 406d20 <evform>
  407198:	01 00 00 00 70 1c 10 00 	j 4071c0 <evform+0x4a0>
  4071a0:	43 00 00 00 04 00 02 00 	addiu $2,$0,4
  4071a8:	06 00 00 00 06 00 02 03 	bne $3,$2,4071c8 <evform+0x4a8>
  4071b0:	42 00 00 00 00 04 10 00 	addu $4,$0,$16
  4071b8:	02 00 00 00 94 57 10 00 	jal 415e50 <xlgetvalue>
  4071c0:	42 00 00 00 00 10 02 00 	addu $16,$0,$2
  4071c8:	28 00 00 00 70 85 02 1c 	lw $2,-31376($28)
  4071d0:	42 00 00 00 00 11 10 00 	addu $17,$0,$16
  4071d8:	43 00 00 00 ff ff 02 02 	addiu $2,$2,-1
  4071e0:	34 00 00 00 70 85 02 1c 	sw $2,-31376($28)
  4071e8:	01 00 00 00 94 1c 10 00 	j 407250 <evform+0x530>
  4071f0:	a2 00 00 00 00 10 04 00 	lui $4,4096
  4071f8:	43 00 00 00 20 03 04 04 	addiu $4,$4,800
  407200:	01 00 00 00 92 1c 10 00 	j 407248 <evform+0x528>
  407208:	43 00 00 00 07 00 02 00 	addiu $2,$0,7
  407210:	06 00 00 00 08 00 02 05 	bne $5,$2,407238 <evform+0x518>
  407218:	28 00 00 00 14 00 05 1d 	lw $5,20($29)
  407220:	02 00 00 00 34 3c 10 00 	jal 40f0d0 <xlsend>
  407228:	42 00 00 00 00 11 02 00 	addu $17,$0,$2
  407230:	01 00 00 00 94 1c 10 00 	j 407250 <evform+0x530>
  407238:	a2 00 00 00 00 10 04 00 	lui $4,4096
  407240:	43 00 00 00 10 03 04 04 	addiu $4,$4,784
  407248:	02 00 00 00 8c 11 10 00 	jal 404630 <xlfail>
  407250:	34 00 00 00 54 85 12 1c 	sw $18,-31404($28)
  407258:	42 00 00 00 00 02 11 00 	addu $2,$0,$17
  407260:	28 00 00 00 24 00 1f 1d 	lw $31,36($29)
  407268:	28 00 00 00 20 00 12 1d 	lw $18,32($29)
  407270:	28 00 00 00 1c 00 11 1d 	lw $17,28($29)
  407278:	28 00 00 00 18 00 10 1d 	lw $16,24($29)
  407280:	43 00 00 00 28 00 1d 1d 	addiu $29,$29,40
  407288:	03 00 00 00 00 00 00 1f 	jr $31

00407290 <evalhook>:
  407290:	43 00 00 00 c8 ff 1d 1d 	addiu $29,$29,-56
  407298:	34 00 00 00 20 00 10 1d 	sw $16,32($29)
  4072a0:	42 00 00 00 00 10 04 00 	addu $16,$0,$4
  4072a8:	43 00 00 00 10 00 04 1d 	addiu $4,$29,16
  4072b0:	43 00 00 00 14 00 05 1d 	addiu $5,$29,20
  4072b8:	43 00 00 00 18 00 06 1d 	addiu $6,$29,24
  4072c0:	42 00 00 00 00 07 00 00 	addu $7,$0,$0
  4072c8:	34 00 00 00 30 00 1f 1d 	sw $31,48($29)
  4072d0:	34 00 00 00 2c 00 13 1d 	sw $19,44($29)
  4072d8:	34 00 00 00 28 00 12 1d 	sw $18,40($29)
  4072e0:	34 00 00 00 24 00 11 1d 	sw $17,36($29)
  4072e8:	02 00 00 00 bc 1f 10 00 	jal 407ef0 <xlsave>
  4072f0:	42 00 00 00 00 04 10 00 	addu $4,$0,$16
  4072f8:	42 00 00 00 00 13 02 00 	addu $19,$0,$2
  407300:	02 00 00 00 1a 14 10 00 	jal 405068 <consa>
  407308:	28 00 00 00 60 85 04 1c 	lw $4,-31392($28)
  407310:	34 00 00 00 18 00 02 1d 	sw $2,24($29)
  407318:	02 00 00 00 1a 14 10 00 	jal 405068 <consa>
  407320:	28 00 00 00 18 00 06 1d 	lw $6,24($29)
  407328:	28 00 00 00 bc 84 03 1c 	lw $3,-31556($28)
  407330:	28 00 00 00 c0 84 05 1c 	lw $5,-31552($28)
  407338:	34 00 00 00 08 00 02 06 	sw $2,8($6)
  407340:	28 00 00 00 08 00 04 03 	lw $4,8($3)
  407348:	34 00 00 00 08 00 00 03 	sw $0,8($3)
  407350:	28 00 00 00 08 00 02 05 	lw $2,8($5)
  407358:	42 00 00 00 00 12 06 00 	addu $18,$0,$6
  407360:	42 00 00 00 00 10 04 00 	addu $16,$0,$4
  407368:	34 00 00 00 10 00 10 1d 	sw $16,16($29)
  407370:	34 00 00 00 14 00 02 1d 	sw $2,20($29)
  407378:	34 00 00 00 08 00 00 05 	sw $0,8($5)
  407380:	06 00 00 00 08 00 00 10 	bne $16,$0,4073a8 <evalhook+0x118>
  407388:	a2 00 00 00 00 10 04 00 	lui $4,4096
  407390:	43 00 00 00 10 03 04 04 	addiu $4,$4,784
  407398:	02 00 00 00 8c 11 10 00 	jal 404630 <xlfail>
  4073a0:	01 00 00 00 26 1d 10 00 	j 407498 <evalhook+0x208>
  4073a8:	20 00 00 00 00 00 04 10 	lb $4,0($16)
  4073b0:	43 00 00 00 01 00 02 00 	addiu $2,$0,1
  4073b8:	06 00 00 00 0a 00 02 04 	bne $4,$2,4073e8 <evalhook+0x158>
  4073c0:	28 00 00 00 04 00 02 10 	lw $2,4($16)
  4073c8:	42 00 00 00 00 04 12 00 	addu $4,$0,$18
  4073d0:	04 00 00 00 00 1f 00 02 	jalr $31,$2
  4073d8:	42 00 00 00 00 11 02 00 	addu $17,$0,$2
  4073e0:	01 00 00 00 2c 1d 10 00 	j 4074b0 <evalhook+0x220>
  4073e8:	43 00 00 00 03 00 02 00 	addiu $2,$0,3
  4073f0:	06 00 00 00 28 00 02 04 	bne $4,$2,407498 <evalhook+0x208>
  4073f8:	28 00 00 00 04 00 03 10 	lw $3,4($16)
  407400:	05 00 00 00 0a 00 00 03 	beq $3,$0,407430 <evalhook+0x1a0>
  407408:	20 00 00 00 00 00 02 03 	lb $2,0($3)
  407410:	06 00 00 00 06 00 04 02 	bne $2,$4,407430 <evalhook+0x1a0>
  407418:	28 00 00 00 08 00 11 10 	lw $17,8($16)
  407420:	42 00 00 00 00 10 03 00 	addu $16,$0,$3
  407428:	01 00 00 00 0e 1d 10 00 	j 407438 <evalhook+0x1a8>
  407430:	28 00 00 00 60 85 11 1c 	lw $17,-31392($28)
  407438:	28 00 00 00 04 00 03 10 	lw $3,4($16)
  407440:	28 00 00 00 c4 84 02 1c 	lw $2,-31548($28)
  407448:	05 00 00 00 06 00 02 03 	beq $3,$2,407468 <evalhook+0x1d8>
  407450:	a2 00 00 00 00 10 04 00 	lui $4,4096
  407458:	43 00 00 00 20 03 04 04 	addiu $4,$4,800
  407460:	02 00 00 00 8c 11 10 00 	jal 404630 <xlfail>
  407468:	42 00 00 00 00 04 10 00 	addu $4,$0,$16
  407470:	42 00 00 00 00 05 12 00 	addu $5,$0,$18
  407478:	42 00 00 00 00 06 11 00 	addu $6,$0,$17
  407480:	02 00 00 00 14 1e 10 00 	jal 407850 <evfun>
  407488:	42 00 00 00 00 11 02 00 	addu $17,$0,$2
  407490:	01 00 00 00 2c 1d 10 00 	j 4074b0 <evalhook+0x220>
  407498:	a2 00 00 00 00 10 04 00 	lui $4,4096
  4074a0:	43 00 00 00 10 03 04 04 	addiu $4,$4,784
  4074a8:	02 00 00 00 8c 11 10 00 	jal 404630 <xlfail>
  4074b0:	28 00 00 00 bc 84 06 1c 	lw $6,-31556($28)
  4074b8:	28 00 00 00 10 00 04 1d 	lw $4,16($29)
  4074c0:	28 00 00 00 c0 84 05 1c 	lw $5,-31552($28)
  4074c8:	28 00 00 00 14 00 03 1d 	lw $3,20($29)
  4074d0:	42 00 00 00 00 02 11 00 	addu $2,$0,$17
  4074d8:	34 00 00 00 54 85 13 1c 	sw $19,-31404($28)
  4074e0:	34 00 00 00 08 00 04 06 	sw $4,8($6)
  4074e8:	34 00 00 00 08 00 03 05 	sw $3,8($5)
  4074f0:	28 00 00 00 30 00 1f 1d 	lw $31,48($29)
  4074f8:	28 00 00 00 2c 00 13 1d 	lw $19,44($29)
  407500:	28 00 00 00 28 00 12 1d 	lw $18,40($29)
  407508:	28 00 00 00 24 00 11 1d 	lw $17,36($29)
  407510:	28 00 00 00 20 00 10 1d 	lw $16,32($29)
  407518:	43 00 00 00 38 00 1d 1d 	addiu $29,$29,56
  407520:	03 00 00 00 00 00 00 1f 	jr $31

00407528 <xlevlist>:
  407528:	43 00 00 00 c8 ff 1d 1d 	addiu $29,$29,-56
  407530:	34 00 00 00 18 00 10 1d 	sw $16,24($29)
  407538:	42 00 00 00 00 10 04 00 	addu $16,$0,$4
  407540:	34 00 00 00 20 00 12 1d 	sw $18,32($29)
  407548:	42 00 00 00 00 12 00 00 	addu $18,$0,$0
  407550:	43 00 00 00 10 00 04 1d 	addiu $4,$29,16
  407558:	43 00 00 00 14 00 05 1d 	addiu $5,$29,20
  407560:	42 00 00 00 00 06 00 00 	addu $6,$0,$0
  407568:	34 00 00 00 30 00 1f 1d 	sw $31,48($29)
  407570:	34 00 00 00 2c 00 15 1d 	sw $21,44($29)
  407578:	34 00 00 00 28 00 14 1d 	sw $20,40($29)
  407580:	34 00 00 00 24 00 13 1d 	sw $19,36($29)
  407588:	34 00 00 00 1c 00 11 1d 	sw $17,28($29)
  407590:	02 00 00 00 bc 1f 10 00 	jal 407ef0 <xlsave>
  407598:	42 00 00 00 00 13 00 00 	addu $19,$0,$0
  4075a0:	42 00 00 00 00 15 02 00 	addu $21,$0,$2
  4075a8:	34 00 00 00 10 00 10 1d 	sw $16,16($29)
  4075b0:	05 00 00 00 7a 00 00 10 	beq $16,$0,4077a0 <xlevlist+0x278>
  4075b8:	43 00 00 00 03 00 14 00 	addiu $20,$0,3
  4075c0:	28 00 00 00 10 00 02 1d 	lw $2,16($29)
  4075c8:	20 00 00 00 00 00 02 02 	lb $2,0($2)
  4075d0:	05 00 00 00 06 00 14 02 	beq $2,$20,4075f0 <xlevlist+0xc8>
  4075d8:	a2 00 00 00 00 10 04 00 	lui $4,4096
  4075e0:	43 00 00 00 34 03 04 04 	addiu $4,$4,820
  4075e8:	02 00 00 00 8c 11 10 00 	jal 404630 <xlfail>
  4075f0:	42 00 00 00 00 04 00 00 	addu $4,$0,$0
  4075f8:	02 00 00 00 1a 14 10 00 	jal 405068 <consa>
  407600:	42 00 00 00 00 11 02 00 	addu $17,$0,$2
  407608:	05 00 00 00 04 00 00 13 	beq $19,$0,407620 <xlevlist+0xf8>
  407610:	34 00 00 00 08 00 11 12 	sw $17,8($18)
  407618:	01 00 00 00 8c 1d 10 00 	j 407630 <xlevlist+0x108>
  407620:	34 00 00 00 14 00 11 1d 	sw $17,20($29)
  407628:	42 00 00 00 00 13 11 00 	addu $19,$0,$17
  407630:	28 00 00 00 10 00 03 1d 	lw $3,16($29)
  407638:	28 00 00 00 78 85 02 1c 	lw $2,-31368($28)
  407640:	28 00 00 00 04 00 10 03 	lw $16,4($3)
  407648:	43 00 00 00 ff ff 02 02 	addiu $2,$2,-1
  407650:	34 00 00 00 78 85 02 1c 	sw $2,-31368($28)
  407658:	08 00 00 00 06 00 00 02 	bgtz $2,407678 <xlevlist+0x150>
  407660:	43 00 00 00 64 00 02 00 	addiu $2,$0,100
  407668:	34 00 00 00 78 85 02 1c 	sw $2,-31368($28)
  407670:	02 00 00 00 ee 00 10 00 	jal 4003b8 <oscheck>
  407678:	28 00 00 00 bc 84 02 1c 	lw $2,-31556($28)
  407680:	28 00 00 00 08 00 02 02 	lw $2,8($2)
  407688:	05 00 00 00 08 00 00 02 	beq $2,$0,4076b0 <xlevlist+0x188>
  407690:	42 00 00 00 00 04 10 00 	addu $4,$0,$16
  407698:	02 00 00 00 a4 1c 10 00 	jal 407290 <evalhook>
  4076a0:	42 00 00 00 00 04 02 00 	addu $4,$0,$2
  4076a8:	01 00 00 00 dc 1d 10 00 	j 407770 <xlevlist+0x248>
  4076b0:	28 00 00 00 70 85 02 1c 	lw $2,-31376($28)
  4076b8:	43 00 00 00 01 00 04 02 	addiu $4,$2,1
  4076c0:	5c 00 00 00 f4 01 02 04 	slti $2,$4,500
  4076c8:	34 00 00 00 70 85 04 1c 	sw $4,-31376($28)
  4076d0:	05 00 00 00 08 00 00 02 	beq $2,$0,4076f8 <xlevlist+0x1d0>
  4076d8:	28 00 00 00 74 85 03 1c 	lw $3,-31372($28)
  4076e0:	55 00 00 00 02 02 04 00 	sll $2,$4,0x2
  4076e8:	42 00 00 00 00 02 03 02 	addu $2,$2,$3
  4076f0:	34 00 00 00 00 00 10 02 	sw $16,0($2)
  4076f8:	05 00 00 00 14 00 00 10 	beq $16,$0,407750 <xlevlist+0x228>
  407700:	20 00 00 00 00 00 03 10 	lb $3,0($16)
  407708:	06 00 00 00 06 00 14 03 	bne $3,$20,407728 <xlevlist+0x200>
  407710:	42 00 00 00 00 04 10 00 	addu $4,$0,$16
  407718:	02 00 00 00 48 1b 10 00 	jal 406d20 <evform>
  407720:	01 00 00 00 d2 1d 10 00 	j 407748 <xlevlist+0x220>
  407728:	43 00 00 00 04 00 02 00 	addiu $2,$0,4
  407730:	06 00 00 00 06 00 02 03 	bne $3,$2,407750 <xlevlist+0x228>
  407738:	42 00 00 00 00 04 10 00 	addu $4,$0,$16
  407740:	02 00 00 00 94 57 10 00 	jal 415e50 <xlgetvalue>
  407748:	42 00 00 00 00 10 02 00 	addu $16,$0,$2
  407750:	28 00 00 00 70 85 02 1c 	lw $2,-31376($28)
  407758:	42 00 00 00 00 04 10 00 	addu $4,$0,$16
  407760:	43 00 00 00 ff ff 02 02 	addiu $2,$2,-1
  407768:	34 00 00 00 70 85 02 1c 	sw $2,-31376($28)
  407770:	28 00 00 00 10 00 02 1d 	lw $2,16($29)
  407778:	34 00 00 00 04 00 04 11 	sw $4,4($17)
  407780:	28 00 00 00 08 00 02 02 	lw $2,8($2)
  407788:	42 00 00 00 00 12 11 00 	addu $18,$0,$17
  407790:	34 00 00 00 10 00 02 1d 	sw $2,16($29)
  407798:	06 00 00 00 88 ff 00 02 	bne $2,$0,4075c0 <xlevlist+0x98>
  4077a0:	34 00 00 00 54 85 15 1c 	sw $21,-31404($28)
  4077a8:	42 00 00 00 00 02 13 00 	addu $2,$0,$19
  4077b0:	28 00 00 00 30 00 1f 1d 	lw $31,48($29)
  4077b8:	28 00 00 00 2c 00 15 1d 	lw $21,44($29)
  4077c0:	28 00 00 00 28 00 14 1d 	lw $20,40($29)
  4077c8:	28 00 00 00 24 00 13 1d 	lw $19,36($29)
  4077d0:	28 00 00 00 20 00 12 1d 	lw $18,32($29)
  4077d8:	28 00 00 00 1c 00 11 1d 	lw $17,28($29)
  4077e0:	28 00 00 00 18 00 10 1d 	lw $16,24($29)
  4077e8:	43 00 00 00 38 00 1d 1d 	addiu $29,$29,56
  4077f0:	03 00 00 00 00 00 00 1f 	jr $31

004077f8 <xlunbound>:
  4077f8:	43 00 00 00 e8 ff 1d 1d 	addiu $29,$29,-24
  407800:	34 00 00 00 10 00 1f 1d 	sw $31,16($29)
  407808:	42 00 00 00 00 06 04 00 	addu $6,$0,$4
  407810:	a2 00 00 00 00 10 04 00 	lui $4,4096
  407818:	43 00 00 00 48 03 04 04 	addiu $4,$4,840
  407820:	a2 00 00 00 00 10 05 00 	lui $5,4096
  407828:	43 00 00 00 64 03 05 05 	addiu $5,$5,868
  407830:	02 00 00 00 e8 11 10 00 	jal 4047a0 <xlcerror>
  407838:	28 00 00 00 10 00 1f 1d 	lw $31,16($29)
  407840:	43 00 00 00 18 00 1d 1d 	addiu $29,$29,24
  407848:	03 00 00 00 00 00 00 1f 	jr $31

00407850 <evfun>:
  407850:	43 00 00 00 c0 ff 1d 1d 	addiu $29,$29,-64
  407858:	34 00 00 00 24 00 11 1d 	sw $17,36($29)
  407860:	42 00 00 00 00 11 04 00 	addu $17,$0,$4
  407868:	34 00 00 00 2c 00 13 1d 	sw $19,44($29)
  407870:	42 00 00 00 00 13 05 00 	addu $19,$0,$5
  407878:	34 00 00 00 28 00 12 1d 	sw $18,40($29)
  407880:	42 00 00 00 00 12 06 00 	addu $18,$0,$6
  407888:	43 00 00 00 10 00 04 1d 	addiu $4,$29,16
  407890:	43 00 00 00 14 00 05 1d 	addiu $5,$29,20
  407898:	43 00 00 00 18 00 06 1d 	addiu $6,$29,24
  4078a0:	42 00 00 00 00 07 00 00 	addu $7,$0,$0
  4078a8:	34 00 00 00 38 00 1f 1d 	sw $31,56($29)
  4078b0:	34 00 00 00 34 00 15 1d 	sw $21,52($29)
  4078b8:	34 00 00 00 30 00 14 1d 	sw $20,48($29)
  4078c0:	34 00 00 00 20 00 10 1d 	sw $16,32($29)
  4078c8:	02 00 00 00 bc 1f 10 00 	jal 407ef0 <xlsave>
  4078d0:	28 00 00 00 08 00 11 11 	lw $17,8($17)
  4078d8:	42 00 00 00 00 15 02 00 	addu $21,$0,$2
  4078e0:	05 00 00 00 06 00 00 11 	beq $17,$0,407900 <evfun+0xb0>
  4078e8:	20 00 00 00 00 00 03 11 	lb $3,0($17)
  4078f0:	43 00 00 00 03 00 02 00 	addiu $2,$0,3
  4078f8:	05 00 00 00 06 00 02 03 	beq $3,$2,407918 <evfun+0xc8>
  407900:	a2 00 00 00 00 10 04 00 	lui $4,4096
  407908:	43 00 00 00 78 03 04 04 	addiu $4,$4,888
  407910:	02 00 00 00 8c 11 10 00 	jal 404630 <xlfail>
  407918:	28 00 00 00 04 00 10 11 	lw $16,4($17)
  407920:	05 00 00 00 0c 00 00 10 	beq $16,$0,407958 <evfun+0x108>
  407928:	20 00 00 00 00 00 03 10 	lb $3,0($16)
  407930:	43 00 00 00 03 00 02 00 	addiu $2,$0,3
  407938:	05 00 00 00 06 00 02 03 	beq $3,$2,407958 <evfun+0x108>
  407940:	a2 00 00 00 00 10 04 00 	lui $4,4096
  407948:	43 00 00 00 90 03 04 04 	addiu $4,$4,912
  407950:	02 00 00 00 8c 11 10 00 	jal 404630 <xlfail>
  407958:	42 00 00 00 00 04 12 00 	addu $4,$0,$18
  407960:	02 00 00 00 5c 57 10 00 	jal 415d70 <xlframe>
  407968:	42 00 00 00 00 04 10 00 	addu $4,$0,$16
  407970:	28 00 00 00 60 85 03 1c 	lw $3,-31392($28)
  407978:	42 00 00 00 00 05 13 00 	addu $5,$0,$19
  407980:	42 00 00 00 00 06 02 00 	addu $6,$0,$2
  407988:	34 00 00 00 14 00 06 1d 	sw $6,20($29)
  407990:	34 00 00 00 10 00 03 1d 	sw $3,16($29)
  407998:	02 00 00 00 96 1e 10 00 	jal 407a58 <xlabind>
  4079a0:	28 00 00 00 14 00 02 1d 	lw $2,20($29)
  4079a8:	28 00 00 00 08 00 03 11 	lw $3,8($17)
  4079b0:	34 00 00 00 60 85 02 1c 	sw $2,-31392($28)
  4079b8:	34 00 00 00 18 00 03 1d 	sw $3,24($29)
  4079c0:	05 00 00 00 0a 00 00 03 	beq $3,$0,4079f0 <evfun+0x1a0>
  4079c8:	43 00 00 00 18 00 04 1d 	addiu $4,$29,24
  4079d0:	02 00 00 00 be 53 10 00 	jal 414ef8 <xlevarg>
  4079d8:	28 00 00 00 18 00 03 1d 	lw $3,24($29)
  4079e0:	42 00 00 00 00 14 02 00 	addu $20,$0,$2
  4079e8:	06 00 00 00 f6 ff 00 03 	bne $3,$0,4079c8 <evfun+0x178>
  4079f0:	28 00 00 00 10 00 03 1d 	lw $3,16($29)
  4079f8:	42 00 00 00 00 02 14 00 	addu $2,$0,$20
  407a00:	34 00 00 00 54 85 15 1c 	sw $21,-31404($28)
  407a08:	34 00 00 00 60 85 03 1c 	sw $3,-31392($28)
  407a10:	28 00 00 00 38 00 1f 1d 	lw $31,56($29)
  407a18:	28 00 00 00 34 00 15 1d 	lw $21,52($29)
  407a20:	28 00 00 00 30 00 14 1d 	lw $20,48($29)
  407a28:	28 00 00 00 2c 00 13 1d 	lw $19,44($29)
  407a30:	28 00 00 00 28 00 12 1d 	lw $18,40($29)
  407a38:	28 00 00 00 24 00 11 1d 	lw $17,36($29)
  407a40:	28 00 00 00 20 00 10 1d 	lw $16,32($29)
  407a48:	43 00 00 00 40 00 1d 1d 	addiu $29,$29,64
  407a50:	03 00 00 00 00 00 00 1f 	jr $31

00407a58 <xlabind>:
  407a58:	43 00 00 00 d0 ff 1d 1d 	addiu $29,$29,-48
  407a60:	34 00 00 00 10 00 10 1d 	sw $16,16($29)
  407a68:	42 00 00 00 00 10 04 00 	addu $16,$0,$4
  407a70:	34 00 00 00 1c 00 13 1d 	sw $19,28($29)
  407a78:	42 00 00 00 00 13 05 00 	addu $19,$0,$5
  407a80:	34 00 00 00 20 00 14 1d 	sw $20,32($29)
  407a88:	42 00 00 00 00 14 06 00 	addu $20,$0,$6
  407a90:	34 00 00 00 28 00 1f 1d 	sw $31,40($29)
  407a98:	34 00 00 00 24 00 15 1d 	sw $21,36($29)
  407aa0:	34 00 00 00 18 00 12 1d 	sw $18,24($29)
  407aa8:	34 00 00 00 14 00 11 1d 	sw $17,20($29)
  407ab0:	05 00 00 00 da 00 00 10 	beq $16,$0,407e20 <xlabind+0x3c8>
  407ab8:	20 00 00 00 00 00 03 10 	lb $3,0($16)
  407ac0:	43 00 00 00 03 00 02 00 	addiu $2,$0,3
  407ac8:	06 00 00 00 22 00 02 03 	bne $3,$2,407b58 <xlabind+0x100>
  407ad0:	43 00 00 00 03 00 15 00 	addiu $21,$0,3
  407ad8:	28 00 00 00 04 00 11 10 	lw $17,4($16)
  407ae0:	42 00 00 00 00 04 11 00 	addu $4,$0,$17
  407ae8:	02 00 00 00 a8 1f 10 00 	jal 407ea0 <iskeyword>
  407af0:	06 00 00 00 18 00 00 02 	bne $2,$0,407b58 <xlabind+0x100>
  407af8:	05 00 00 00 16 00 00 13 	beq $19,$0,407b58 <xlabind+0x100>
  407b00:	20 00 00 00 00 00 12 13 	lb $18,0($19)
  407b08:	06 00 00 00 12 00 15 12 	bne $18,$21,407b58 <xlabind+0x100>
  407b10:	28 00 00 00 04 00 05 13 	lw $5,4($19)
  407b18:	42 00 00 00 00 04 11 00 	addu $4,$0,$17
  407b20:	42 00 00 00 00 06 14 00 	addu $6,$0,$20
  407b28:	02 00 00 00 68 57 10 00 	jal 415da0 <xlbind>
  407b30:	28 00 00 00 08 00 10 10 	lw $16,8($16)
  407b38:	28 00 00 00 08 00 13 13 	lw $19,8($19)
  407b40:	05 00 00 00 b6 00 00 10 	beq $16,$0,407e20 <xlabind+0x3c8>
  407b48:	20 00 00 00 00 00 02 10 	lb $2,0($16)
  407b50:	05 00 00 00 e0 ff 12 02 	beq $2,$18,407ad8 <xlabind+0x80>
  407b58:	05 00 00 00 b0 00 00 10 	beq $16,$0,407e20 <xlabind+0x3c8>
  407b60:	20 00 00 00 00 00 04 10 	lb $4,0($16)
  407b68:	43 00 00 00 03 00 02 00 	addiu $2,$0,3
  407b70:	06 00 00 00 52 00 02 04 	bne $4,$2,407cc0 <xlabind+0x268>
  407b78:	28 00 00 00 04 00 03 10 	lw $3,4($16)
  407b80:	28 00 00 00 1c 85 02 1c 	lw $2,-31460($28)
  407b88:	06 00 00 00 4c 00 02 03 	bne $3,$2,407cc0 <xlabind+0x268>
  407b90:	28 00 00 00 08 00 10 10 	lw $16,8($16)
  407b98:	05 00 00 00 a0 00 00 10 	beq $16,$0,407e20 <xlabind+0x3c8>
  407ba0:	20 00 00 00 00 00 02 10 	lb $2,0($16)
  407ba8:	06 00 00 00 22 00 04 02 	bne $2,$4,407c38 <xlabind+0x1e0>
  407bb0:	43 00 00 00 03 00 15 00 	addiu $21,$0,3
  407bb8:	28 00 00 00 04 00 11 10 	lw $17,4($16)
  407bc0:	42 00 00 00 00 04 11 00 	addu $4,$0,$17
  407bc8:	02 00 00 00 a8 1f 10 00 	jal 407ea0 <iskeyword>
  407bd0:	06 00 00 00 18 00 00 02 	bne $2,$0,407c38 <xlabind+0x1e0>
  407bd8:	05 00 00 00 16 00 00 13 	beq $19,$0,407c38 <xlabind+0x1e0>
  407be0:	20 00 00 00 00 00 12 13 	lb $18,0($19)
  407be8:	06 00 00 00 12 00 15 12 	bne $18,$21,407c38 <xlabind+0x1e0>
  407bf0:	28 00 00 00 04 00 05 13 	lw $5,4($19)
  407bf8:	42 00 00 00 00 04 11 00 	addu $4,$0,$17
  407c00:	42 00 00 00 00 06 14 00 	addu $6,$0,$20
  407c08:	02 00 00 00 68 57 10 00 	jal 415da0 <xlbind>
  407c10:	28 00 00 00 08 00 10 10 	lw $16,8($16)
  407c18:	28 00 00 00 08 00 13 13 	lw $19,8($19)
  407c20:	05 00 00 00 7e 00 00 10 	beq $16,$0,407e20 <xlabind+0x3c8>
  407c28:	20 00 00 00 00 00 02 10 	lb $2,0($16)
  407c30:	05 00 00 00 e0 ff 12 02 	beq $2,$18,407bb8 <xlabind+0x160>
  407c38:	05 00 00 00 78 00 00 10 	beq $16,$0,407e20 <xlabind+0x3c8>
  407c40:	20 00 00 00 00 00 03 10 	lb $3,0($16)
  407c48:	43 00 00 00 03 00 02 00 	addiu $2,$0,3
  407c50:	06 00 00 00 1a 00 02 03 	bne $3,$2,407cc0 <xlabind+0x268>
  407c58:	43 00 00 00 03 00 12 00 	addiu $18,$0,3
  407c60:	28 00 00 00 04 00 11 10 	lw $17,4($16)
  407c68:	42 00 00 00 00 04 11 00 	addu $4,$0,$17
  407c70:	02 00 00 00 a8 1f 10 00 	jal 407ea0 <iskeyword>
  407c78:	06 00 00 00 10 00 00 02 	bne $2,$0,407cc0 <xlabind+0x268>
  407c80:	42 00 00 00 00 04 11 00 	addu $4,$0,$17
  407c88:	42 00 00 00 00 05 00 00 	addu $5,$0,$0
  407c90:	42 00 00 00 00 06 14 00 	addu $6,$0,$20
  407c98:	02 00 00 00 68 57 10 00 	jal 415da0 <xlbind>
  407ca0:	28 00 00 00 08 00 10 10 	lw $16,8($16)
  407ca8:	05 00 00 00 5c 00 00 10 	beq $16,$0,407e20 <xlabind+0x3c8>
  407cb0:	20 00 00 00 00 00 02 10 	lb $2,0($16)
  407cb8:	05 00 00 00 e8 ff 12 02 	beq $2,$18,407c60 <xlabind+0x208>
  407cc0:	05 00 00 00 56 00 00 10 	beq $16,$0,407e20 <xlabind+0x3c8>
  407cc8:	20 00 00 00 00 00 04 10 	lb $4,0($16)
  407cd0:	43 00 00 00 03 00 02 00 	addiu $2,$0,3
  407cd8:	06 00 00 00 2c 00 02 04 	bne $4,$2,407d90 <xlabind+0x338>
  407ce0:	28 00 00 00 04 00 03 10 	lw $3,4($16)
  407ce8:	28 00 00 00 20 85 02 1c 	lw $2,-31456($28)
  407cf0:	06 00 00 00 26 00 02 03 	bne $3,$2,407d90 <xlabind+0x338>
  407cf8:	28 00 00 00 08 00 10 10 	lw $16,8($16)
  407d00:	05 00 00 00 18 00 00 10 	beq $16,$0,407d68 <xlabind+0x310>
  407d08:	20 00 00 00 00 00 02 10 	lb $2,0($16)
  407d10:	06 00 00 00 14 00 04 02 	bne $2,$4,407d68 <xlabind+0x310>
  407d18:	28 00 00 00 04 00 11 10 	lw $17,4($16)
  407d20:	05 00 00 00 10 00 00 11 	beq $17,$0,407d68 <xlabind+0x310>
  407d28:	42 00 00 00 00 04 11 00 	addu $4,$0,$17
  407d30:	02 00 00 00 a8 1f 10 00 	jal 407ea0 <iskeyword>
  407d38:	06 00 00 00 0a 00 00 02 	bne $2,$0,407d68 <xlabind+0x310>
  407d40:	42 00 00 00 00 04 11 00 	addu $4,$0,$17
  407d48:	42 00 00 00 00 05 13 00 	addu $5,$0,$19
  407d50:	42 00 00 00 00 06 14 00 	addu $6,$0,$20
  407d58:	02 00 00 00 68 57 10 00 	jal 415da0 <xlbind>
  407d60:	01 00 00 00 60 1f 10 00 	j 407d80 <xlabind+0x328>
  407d68:	a2 00 00 00 00 10 04 00 	lui $4,4096
  407d70:	43 00 00 00 ac 03 04 04 	addiu $4,$4,940
  407d78:	02 00 00 00 8c 11 10 00 	jal 404630 <xlfail>
  407d80:	28 00 00 00 08 00 10 10 	lw $16,8($16)
  407d88:	42 00 00 00 00 13 00 00 	addu $19,$0,$0
  407d90:	05 00 00 00 22 00 00 10 	beq $16,$0,407e20 <xlabind+0x3c8>
  407d98:	20 00 00 00 00 00 03 10 	lb $3,0($16)
  407da0:	43 00 00 00 03 00 02 00 	addiu $2,$0,3
  407da8:	06 00 00 00 1c 00 02 03 	bne $3,$2,407e20 <xlabind+0x3c8>
  407db0:	28 00 00 00 04 00 03 10 	lw $3,4($16)
  407db8:	28 00 00 00 24 85 02 1c 	lw $2,-31452($28)
  407dc0:	06 00 00 00 16 00 02 03 	bne $3,$2,407e20 <xlabind+0x3c8>
  407dc8:	28 00 00 00 08 00 10 10 	lw $16,8($16)
  407dd0:	05 00 00 00 12 00 00 10 	beq $16,$0,407e20 <xlabind+0x3c8>
  407dd8:	43 00 00 00 03 00 11 00 	addiu $17,$0,3
  407de0:	20 00 00 00 00 00 02 10 	lb $2,0($16)
  407de8:	06 00 00 00 0c 00 11 02 	bne $2,$17,407e20 <xlabind+0x3c8>
  407df0:	28 00 00 00 04 00 04 10 	lw $4,4($16)
  407df8:	42 00 00 00 00 05 00 00 	addu $5,$0,$0
  407e00:	42 00 00 00 00 06 14 00 	addu $6,$0,$20
  407e08:	02 00 00 00 68 57 10 00 	jal 415da0 <xlbind>
  407e10:	28 00 00 00 08 00 10 10 	lw $16,8($16)
  407e18:	06 00 00 00 f0 ff 00 10 	bne $16,$0,407de0 <xlabind+0x388>
  407e20:	05 00 00 00 0c 00 13 10 	beq $16,$19,407e58 <xlabind+0x400>
  407e28:	a2 00 00 00 00 10 04 00 	lui $4,4096
  407e30:	43 00 00 00 dc 03 04 04 	addiu $4,$4,988
  407e38:	05 00 00 00 04 00 00 10 	beq $16,$0,407e50 <xlabind+0x3f8>
  407e40:	a2 00 00 00 00 10 04 00 	lui $4,4096
  407e48:	43 00 00 00 c8 03 04 04 	addiu $4,$4,968
  407e50:	02 00 00 00 8c 11 10 00 	jal 404630 <xlfail>
  407e58:	28 00 00 00 28 00 1f 1d 	lw $31,40($29)
  407e60:	28 00 00 00 24 00 15 1d 	lw $21,36($29)
  407e68:	28 00 00 00 20 00 14 1d 	lw $20,32($29)
  407e70:	28 00 00 00 1c 00 13 1d 	lw $19,28($29)
  407e78:	28 00 00 00 18 00 12 1d 	lw $18,24($29)
  407e80:	28 00 00 00 14 00 11 1d 	lw $17,20($29)
  407e88:	28 00 00 00 10 00 10 1d 	lw $16,16($29)
  407e90:	43 00 00 00 30 00 1d 1d 	addiu $29,$29,48
  407e98:	03 00 00 00 00 00 00 1f 	jr $31

00407ea0 <iskeyword>:
  407ea0:	28 00 00 00 1c 85 02 1c 	lw $2,-31460($28)
  407ea8:	42 00 00 00 00 03 00 00 	addu $3,$0,$0
  407eb0:	05 00 00 00 08 00 02 04 	beq $4,$2,407ed8 <iskeyword+0x38>
  407eb8:	28 00 00 00 20 85 02 1c 	lw $2,-31456($28)
  407ec0:	05 00 00 00 04 00 02 04 	beq $4,$2,407ed8 <iskeyword+0x38>
  407ec8:	28 00 00 00 24 85 02 1c 	lw $2,-31452($28)
  407ed0:	06 00 00 00 02 00 02 04 	bne $4,$2,407ee0 <iskeyword+0x40>
  407ed8:	43 00 00 00 01 00 03 00 	addiu $3,$0,1
  407ee0:	42 00 00 00 00 02 03 00 	addu $2,$0,$3
  407ee8:	03 00 00 00 00 00 00 1f 	jr $31

00407ef0 <xlsave>:
  407ef0:	34 00 00 00 00 00 04 1d 	sw $4,0($29)
  407ef8:	34 00 00 00 04 00 05 1d 	sw $5,4($29)
  407f00:	34 00 00 00 08 00 06 1d 	sw $6,8($29)
  407f08:	34 00 00 00 0c 00 07 1d 	sw $7,12($29)
  407f10:	43 00 00 00 d8 ff 1d 1d 	addiu $29,$29,-40
  407f18:	34 00 00 00 18 00 12 1d 	sw $18,24($29)
  407f20:	28 00 00 00 54 85 12 1c 	lw $18,-31404($28)
  407f28:	34 00 00 00 10 00 10 1d 	sw $16,16($29)
  407f30:	42 00 00 00 00 10 04 00 	addu $16,$0,$4
  407f38:	34 00 00 00 14 00 11 1d 	sw $17,20($29)
  407f40:	43 00 00 00 2c 00 11 1d 	addiu $17,$29,44
  407f48:	34 00 00 00 20 00 1f 1d 	sw $31,32($29)
  407f50:	34 00 00 00 1c 00 13 1d 	sw $19,28($29)
  407f58:	05 00 00 00 24 00 00 10 	beq $16,$0,407ff0 <xlsave+0x100>
  407f60:	43 00 00 00 fc ff 13 00 	addiu $19,$0,-4
  407f68:	28 00 00 00 54 85 03 1c 	lw $3,-31404($28)
  407f70:	28 00 00 00 58 85 02 1c 	lw $2,-31400($28)
  407f78:	5d 00 00 00 00 02 03 02 	sltu $2,$2,$3
  407f80:	06 00 00 00 06 00 00 02 	bne $2,$0,407fa0 <xlsave+0xb0>
  407f88:	a2 00 00 00 00 10 04 00 	lui $4,4096
  407f90:	43 00 00 00 f0 03 04 04 	addiu $4,$4,1008
  407f98:	02 00 00 00 ac 11 10 00 	jal 4046b0 <xlabort>
  407fa0:	28 00 00 00 54 85 03 1c 	lw $3,-31404($28)
  407fa8:	43 00 00 00 fc ff 02 03 	addiu $2,$3,-4
  407fb0:	34 00 00 00 54 85 02 1c 	sw $2,-31404($28)
  407fb8:	43 00 00 00 03 00 02 11 	addiu $2,$17,3
  407fc0:	4e 00 00 00 00 02 13 02 	and $2,$2,$19
  407fc8:	34 00 00 00 fc ff 10 03 	sw $16,-4($3)
  407fd0:	34 00 00 00 00 00 00 10 	sw $0,0($16)
  407fd8:	28 00 00 00 00 00 10 02 	lw $16,0($2)
  407fe0:	43 00 00 00 04 00 11 02 	addiu $17,$2,4
  407fe8:	06 00 00 00 de ff 00 10 	bne $16,$0,407f68 <xlsave+0x78>
  407ff0:	42 00 00 00 00 02 12 00 	addu $2,$0,$18
  407ff8:	28 00 00 00 20 00 1f 1d 	lw $31,32($29)
  408000:	28 00 00 00 1c 00 13 1d 	lw $19,28($29)
  408008:	28 00 00 00 18 00 12 1d 	lw $18,24($29)
  408010:	28 00 00 00 14 00 11 1d 	lw $17,20($29)
  408018:	28 00 00 00 10 00 10 1d 	lw $16,16($29)
  408020:	43 00 00 00 28 00 1d 1d 	addiu $29,$29,40
  408028:	03 00 00 00 00 00 00 1f 	jr $31

00408030 <xread>:
  408030:	43 00 00 00 d0 ff 1d 1d 	addiu $29,$29,-48
  408038:	34 00 00 00 30 00 04 1d 	sw $4,48($29)
  408040:	43 00 00 00 10 00 04 1d 	addiu $4,$29,16
  408048:	43 00 00 00 14 00 05 1d 	addiu $5,$29,20
  408050:	42 00 00 00 00 06 00 00 	addu $6,$0,$0
  408058:	34 00 00 00 28 00 1f 1d 	sw $31,40($29)
  408060:	34 00 00 00 24 00 11 1d 	sw $17,36($29)
  408068:	34 00 00 00 20 00 10 1d 	sw $16,32($29)
  408070:	02 00 00 00 bc 1f 10 00 	jal 407ef0 <xlsave>
  408078:	28 00 00 00 30 00 03 1d 	lw $3,48($29)
  408080:	42 00 00 00 00 11 02 00 	addu $17,$0,$2
  408088:	05 00 00 00 06 00 00 03 	beq $3,$0,4080a8 <xread+0x78>
  408090:	43 00 00 00 30 00 04 1d 	addiu $4,$29,48
  408098:	02 00 00 00 c8 54 10 00 	jal 415320 <xlgetfile>
  4080a0:	01 00 00 00 2e 20 10 00 	j 4080b8 <xread+0x88>
  4080a8:	28 00 00 00 cc 84 02 1c 	lw $2,-31540($28)
  4080b0:	28 00 00 00 08 00 02 02 	lw $2,8($2)
  4080b8:	34 00 00 00 10 00 02 1d 	sw $2,16($29)
  4080c0:	28 00 00 00 30 00 02 1d 	lw $2,48($29)
  4080c8:	05 00 00 00 06 00 00 02 	beq $2,$0,4080e8 <xread+0xb8>
  4080d0:	43 00 00 00 30 00 04 1d 	addiu $4,$29,48
  4080d8:	02 00 00 00 4e 53 10 00 	jal 414d38 <xlarg>
  4080e0:	01 00 00 00 3c 20 10 00 	j 4080f0 <xread+0xc0>
  4080e8:	42 00 00 00 00 02 00 00 	addu $2,$0,$0
  4080f0:	34 00 00 00 14 00 02 1d 	sw $2,20($29)
  4080f8:	28 00 00 00 30 00 02 1d 	lw $2,48($29)
  408100:	05 00 00 00 08 00 00 02 	beq $2,$0,408128 <xread+0xf8>
  408108:	43 00 00 00 30 00 04 1d 	addiu $4,$29,48
  408110:	02 00 00 00 4e 53 10 00 	jal 414d38 <xlarg>
  408118:	42 00 00 00 00 10 02 00 	addu $16,$0,$2
  408120:	01 00 00 00 4c 20 10 00 	j 408130 <xread+0x100>
  408128:	42 00 00 00 00 10 00 00 	addu $16,$0,$0
  408130:	28 00 00 00 30 00 04 1d 	lw $4,48($29)
  408138:	02 00 00 00 14 55 10 00 	jal 415450 <xllastarg>
  408140:	28 00 00 00 10 00 04 1d 	lw $4,16($29)
  408148:	43 00 00 00 18 00 05 1d 	addiu $5,$29,24
  408150:	5d 00 00 00 00 06 10 00 	sltu $6,$0,$16
  408158:	02 00 00 00 20 47 10 00 	jal 411c80 <xlread>
  408160:	06 00 00 00 04 00 00 02 	bne $2,$0,408178 <xread+0x148>
  408168:	28 00 00 00 14 00 02 1d 	lw $2,20($29)
  408170:	34 00 00 00 18 00 02 1d 	sw $2,24($29)
  408178:	28 00 00 00 18 00 02 1d 	lw $2,24($29)
  408180:	34 00 00 00 54 85 11 1c 	sw $17,-31404($28)
  408188:	28 00 00 00 28 00 1f 1d 	lw $31,40($29)
  408190:	28 00 00 00 24 00 11 1d 	lw $17,36($29)
  408198:	28 00 00 00 20 00 10 1d 	lw $16,32($29)
  4081a0:	43 00 00 00 30 00 1d 1d 	addiu $29,$29,48
  4081a8:	03 00 00 00 00 00 00 1f 	jr $31

004081b0 <xprint>:
  4081b0:	43 00 00 00 e8 ff 1d 1d 	addiu $29,$29,-24
  4081b8:	34 00 00 00 10 00 1f 1d 	sw $31,16($29)
  4081c0:	43 00 00 00 01 00 05 00 	addiu $5,$0,1
  4081c8:	43 00 00 00 01 00 06 00 	addiu $6,$0,1
  4081d0:	02 00 00 00 c4 20 10 00 	jal 408310 <printit>
  4081d8:	28 00 00 00 10 00 1f 1d 	lw $31,16($29)
  4081e0:	43 00 00 00 18 00 1d 1d 	addiu $29,$29,24
  4081e8:	03 00 00 00 00 00 00 1f 	jr $31

004081f0 <xprin1>:
  4081f0:	43 00 00 00 e8 ff 1d 1d 	addiu $29,$29,-24
  4081f8:	34 00 00 00 10 00 1f 1d 	sw $31,16($29)
  408200:	43 00 00 00 01 00 05 00 	addiu $5,$0,1
  408208:	42 00 00 00 00 06 00 00 	addu $6,$0,$0
  408210:	02 00 00 00 c4 20 10 00 	jal 408310 <printit>
  408218:	28 00 00 00 10 00 1f 1d 	lw $31,16($29)
  408220:	43 00 00 00 18 00 1d 1d 	addiu $29,$29,24
  408228:	03 00 00 00 00 00 00 1f 	jr $31

00408230 <xprinc>:
  408230:	43 00 00 00 e8 ff 1d 1d 	addiu $29,$29,-24
  408238:	34 00 00 00 10 00 1f 1d 	sw $31,16($29)
  408240:	42 00 00 00 00 05 00 00 	addu $5,$0,$0
  408248:	42 00 00 00 00 06 00 00 	addu $6,$0,$0
  408250:	02 00 00 00 c4 20 10 00 	jal 408310 <printit>
  408258:	28 00 00 00 10 00 1f 1d 	lw $31,16($29)
  408260:	43 00 00 00 18 00 1d 1d 	addiu $29,$29,24
  408268:	03 00 00 00 00 00 00 1f 	jr $31

00408270 <xterpri>:
  408270:	43 00 00 00 e8 ff 1d 1d 	addiu $29,$29,-24
  408278:	34 00 00 00 14 00 1f 1d 	sw $31,20($29)
  408280:	34 00 00 00 10 00 10 1d 	sw $16,16($29)
  408288:	34 00 00 00 18 00 04 1d 	sw $4,24($29)
  408290:	05 00 00 00 08 00 00 04 	beq $4,$0,4082b8 <xterpri+0x48>
  408298:	43 00 00 00 18 00 04 1d 	addiu $4,$29,24
  4082a0:	02 00 00 00 c8 54 10 00 	jal 415320 <xlgetfile>
  4082a8:	42 00 00 00 00 10 02 00 	addu $16,$0,$2
  4082b0:	01 00 00 00 b2 20 10 00 	j 4082c8 <xterpri+0x58>
  4082b8:	28 00 00 00 d0 84 02 1c 	lw $2,-31536($28)
  4082c0:	28 00 00 00 08 00 10 02 	lw $16,8($2)
  4082c8:	28 00 00 00 18 00 04 1d 	lw $4,24($29)
  4082d0:	02 00 00 00 14 55 10 00 	jal 415450 <xllastarg>
  4082d8:	42 00 00 00 00 04 10 00 	addu $4,$0,$16
  4082e0:	02 00 00 00 ba 44 10 00 	jal 4112e8 <xlterpri>
  4082e8:	42 00 00 00 00 02 00 00 	addu $2,$0,$0
  4082f0:	28 00 00 00 14 00 1f 1d 	lw $31,20($29)
  4082f8:	28 00 00 00 10 00 10 1d 	lw $16,16($29)
  408300:	43 00 00 00 18 00 1d 1d 	addiu $29,$29,24
  408308:	03 00 00 00 00 00 00 1f 	jr $31

00408310 <printit>:
  408310:	43 00 00 00 d8 ff 1d 1d 	addiu $29,$29,-40
  408318:	34 00 00 00 18 00 10 1d 	sw $16,24($29)
  408320:	42 00 00 00 00 10 05 00 	addu $16,$0,$5
  408328:	34 00 00 00 20 00 12 1d 	sw $18,32($29)
  408330:	42 00 00 00 00 12 06 00 	addu $18,$0,$6
  408338:	34 00 00 00 28 00 04 1d 	sw $4,40($29)
  408340:	43 00 00 00 10 00 04 1d 	addiu $4,$29,16
  408348:	43 00 00 00 14 00 05 1d 	addiu $5,$29,20
  408350:	42 00 00 00 00 06 00 00 	addu $6,$0,$0
  408358:	34 00 00 00 24 00 1f 1d 	sw $31,36($29)
  408360:	34 00 00 00 1c 00 11 1d 	sw $17,28($29)
  408368:	02 00 00 00 bc 1f 10 00 	jal 407ef0 <xlsave>
  408370:	43 00 00 00 28 00 04 1d 	addiu $4,$29,40
  408378:	42 00 00 00 00 11 02 00 	addu $17,$0,$2
  408380:	02 00 00 00 4e 53 10 00 	jal 414d38 <xlarg>
  408388:	34 00 00 00 14 00 02 1d 	sw $2,20($29)
  408390:	28 00 00 00 28 00 02 1d 	lw $2,40($29)
  408398:	05 00 00 00 06 00 00 02 	beq $2,$0,4083b8 <printit+0xa8>
  4083a0:	43 00 00 00 28 00 04 1d 	addiu $4,$29,40
  4083a8:	02 00 00 00 c8 54 10 00 	jal 415320 <xlgetfile>
  4083b0:	01 00 00 00 f2 20 10 00 	j 4083c8 <printit+0xb8>
  4083b8:	28 00 00 00 d0 84 02 1c 	lw $2,-31536($28)
  4083c0:	28 00 00 00 08 00 02 02 	lw $2,8($2)
  4083c8:	34 00 00 00 10 00 02 1d 	sw $2,16($29)
  4083d0:	28 00 00 00 28 00 04 1d 	lw $4,40($29)
  4083d8:	02 00 00 00 14 55 10 00 	jal 415450 <xllastarg>
  4083e0:	28 00 00 00 10 00 04 1d 	lw $4,16($29)
  4083e8:	28 00 00 00 14 00 05 1d 	lw $5,20($29)
  4083f0:	42 00 00 00 00 06 10 00 	addu $6,$0,$16
  4083f8:	02 00 00 00 c0 43 10 00 	jal 410f00 <xlprint>
  408400:	05 00 00 00 04 00 00 12 	beq $18,$0,408418 <printit+0x108>
  408408:	28 00 00 00 10 00 04 1d 	lw $4,16($29)
  408410:	02 00 00 00 ba 44 10 00 	jal 4112e8 <xlterpri>
  408418:	28 00 00 00 14 00 02 1d 	lw $2,20($29)
  408420:	34 00 00 00 54 85 11 1c 	sw $17,-31404($28)
  408428:	28 00 00 00 24 00 1f 1d 	lw $31,36($29)
  408430:	28 00 00 00 20 00 12 1d 	lw $18,32($29)
  408438:	28 00 00 00 1c 00 11 1d 	lw $17,28($29)
  408440:	28 00 00 00 18 00 10 1d 	lw $16,24($29)
  408448:	43 00 00 00 28 00 1d 1d 	addiu $29,$29,40
  408450:	03 00 00 00 00 00 00 1f 	jr $31

00408458 <xflatsize>:
  408458:	43 00 00 00 e8 ff 1d 1d 	addiu $29,$29,-24
  408460:	34 00 00 00 10 00 1f 1d 	sw $31,16($29)
  408468:	43 00 00 00 01 00 05 00 	addiu $5,$0,1
  408470:	02 00 00 00 32 21 10 00 	jal 4084c8 <flatsize>
  408478:	28 00 00 00 10 00 1f 1d 	lw $31,16($29)
  408480:	43 00 00 00 18 00 1d 1d 	addiu $29,$29,24
  408488:	03 00 00 00 00 00 00 1f 	jr $31

00408490 <xflatc>:
  408490:	43 00 00 00 e8 ff 1d 1d 	addiu $29,$29,-24
  408498:	34 00 00 00 10 00 1f 1d 	sw $31,16($29)
  4084a0:	42 00 00 00 00 05 00 00 	addu $5,$0,$0
  4084a8:	02 00 00 00 32 21 10 00 	jal 4084c8 <flatsize>
  4084b0:	28 00 00 00 10 00 1f 1d 	lw $31,16($29)
  4084b8:	43 00 00 00 18 00 1d 1d 	addiu $29,$29,24
  4084c0:	03 00 00 00 00 00 00 1f 	jr $31

004084c8 <flatsize>:
  4084c8:	43 00 00 00 d8 ff 1d 1d 	addiu $29,$29,-40
  4084d0:	34 00 00 00 1c 00 11 1d 	sw $17,28($29)
  4084d8:	42 00 00 00 00 11 05 00 	addu $17,$0,$5
  4084e0:	34 00 00 00 28 00 04 1d 	sw $4,40($29)
  4084e8:	43 00 00 00 10 00 04 1d 	addiu $4,$29,16
  4084f0:	42 00 00 00 00 05 00 00 	addu $5,$0,$0
  4084f8:	34 00 00 00 20 00 1f 1d 	sw $31,32($29)
  408500:	34 00 00 00 18 00 10 1d 	sw $16,24($29)
  408508:	02 00 00 00 bc 1f 10 00 	jal 407ef0 <xlsave>
  408510:	43 00 00 00 28 00 04 1d 	addiu $4,$29,40
  408518:	42 00 00 00 00 10 02 00 	addu $16,$0,$2
  408520:	02 00 00 00 4e 53 10 00 	jal 414d38 <xlarg>
  408528:	34 00 00 00 10 00 02 1d 	sw $2,16($29)
  408530:	28 00 00 00 28 00 04 1d 	lw $4,40($29)
  408538:	02 00 00 00 14 55 10 00 	jal 415450 <xllastarg>
  408540:	28 00 00 00 10 00 05 1d 	lw $5,16($29)
  408548:	42 00 00 00 00 04 00 00 	addu $4,$0,$0
  408550:	42 00 00 00 00 06 11 00 	addu $6,$0,$17
  408558:	34 00 00 00 88 85 00 1c 	sw $0,-31352($28)
  408560:	02 00 00 00 c0 43 10 00 	jal 410f00 <xlprint>
  408568:	28 00 00 00 88 85 04 1c 	lw $4,-31352($28)
  408570:	34 00 00 00 54 85 10 1c 	sw $16,-31404($28)
  408578:	02 00 00 00 50 15 10 00 	jal 405540 <cvfixnum>
  408580:	28 00 00 00 20 00 1f 1d 	lw $31,32($29)
  408588:	28 00 00 00 1c 00 11 1d 	lw $17,28($29)
  408590:	28 00 00 00 18 00 10 1d 	lw $16,24($29)
  408598:	43 00 00 00 28 00 1d 1d 	addiu $29,$29,40
  4085a0:	03 00 00 00 00 00 00 1f 	jr $31

004085a8 <xopeni>:
  4085a8:	43 00 00 00 e8 ff 1d 1d 	addiu $29,$29,-24
  4085b0:	34 00 00 00 10 00 1f 1d 	sw $31,16($29)
  4085b8:	43 00 00 00 40 80 05 1c 	addiu $5,$28,-32704
  4085c0:	02 00 00 00 86 21 10 00 	jal 408618 <openit>
  4085c8:	28 00 00 00 10 00 1f 1d 	lw $31,16($29)
  4085d0:	43 00 00 00 18 00 1d 1d 	addiu $29,$29,24
  4085d8:	03 00 00 00 00 00 00 1f 	jr $31

004085e0 <xopeno>:
  4085e0:	43 00 00 00 e8 ff 1d 1d 	addiu $29,$29,-24
  4085e8:	34 00 00 00 10 00 1f 1d 	sw $31,16($29)
  4085f0:	43 00 00 00 44 80 05 1c 	addiu $5,$28,-32700
  4085f8:	02 00 00 00 86 21 10 00 	jal 408618 <openit>
  408600:	28 00 00 00 10 00 1f 1d 	lw $31,16($29)
  408608:	43 00 00 00 18 00 1d 1d 	addiu $29,$29,24
  408610:	03 00 00 00 00 00 00 1f 	jr $31

00408618 <openit>:
  408618:	43 00 00 00 e0 ff 1d 1d 	addiu $29,$29,-32
  408620:	34 00 00 00 18 00 12 1d 	sw $18,24($29)
  408628:	42 00 00 00 00 12 05 00 	addu $18,$0,$5
  408630:	34 00 00 00 20 00 04 1d 	sw $4,32($29)
  408638:	43 00 00 00 20 00 04 1d 	addiu $4,$29,32
  408640:	34 00 00 00 1c 00 1f 1d 	sw $31,28($29)
  408648:	34 00 00 00 14 00 11 1d 	sw $17,20($29)
  408650:	34 00 00 00 10 00 10 1d 	sw $16,16($29)
  408658:	02 00 00 00 4e 53 10 00 	jal 414d38 <xlarg>
  408660:	28 00 00 00 20 00 04 1d 	lw $4,32($29)
  408668:	42 00 00 00 00 10 02 00 	addu $16,$0,$2
  408670:	02 00 00 00 14 55 10 00 	jal 415450 <xllastarg>
  408678:	05 00 00 00 16 00 00 10 	beq $16,$0,4086d8 <openit+0xc0>
  408680:	20 00 00 00 00 00 03 10 	lb $3,0($16)
  408688:	43 00 00 00 04 00 02 00 	addiu $2,$0,4
  408690:	06 00 00 00 08 00 02 03 	bne $3,$2,4086b8 <openit+0xa0>
  408698:	28 00 00 00 04 00 02 10 	lw $2,4($16)
  4086a0:	28 00 00 00 04 00 02 02 	lw $2,4($2)
  4086a8:	28 00 00 00 08 00 11 02 	lw $17,8($2)
  4086b0:	01 00 00 00 bc 21 10 00 	j 4086f0 <openit+0xd8>
  4086b8:	43 00 00 00 06 00 02 00 	addiu $2,$0,6
  4086c0:	06 00 00 00 04 00 02 03 	bne $3,$2,4086d8 <openit+0xc0>
  4086c8:	28 00 00 00 08 00 11 10 	lw $17,8($16)
  4086d0:	01 00 00 00 bc 21 10 00 	j 4086f0 <openit+0xd8>
  4086d8:	a2 00 00 00 00 10 04 00 	lui $4,4096
  4086e0:	43 00 00 00 10 04 04 04 	addiu $4,$4,1040
  4086e8:	02 00 00 00 8c 11 10 00 	jal 404630 <xlfail>
  4086f0:	42 00 00 00 00 04 11 00 	addu $4,$0,$17
  4086f8:	42 00 00 00 00 05 12 00 	addu $5,$0,$18
  408700:	02 00 00 00 56 6b 10 00 	jal 41ad58 <fopen>
  408708:	05 00 00 00 06 00 00 02 	beq $2,$0,408728 <openit+0x110>
  408710:	42 00 00 00 00 04 02 00 	addu $4,$0,$2
  408718:	02 00 00 00 38 15 10 00 	jal 4054e0 <cvfile>
  408720:	01 00 00 00 cc 21 10 00 	j 408730 <openit+0x118>
  408728:	42 00 00 00 00 02 00 00 	addu $2,$0,$0
  408730:	28 00 00 00 1c 00 1f 1d 	lw $31,28($29)
  408738:	28 00 00 00 18 00 12 1d 	lw $18,24($29)
  408740:	28 00 00 00 14 00 11 1d 	lw $17,20($29)
  408748:	28 00 00 00 10 00 10 1d 	lw $16,16($29)
  408750:	43 00 00 00 20 00 1d 1d 	addiu $29,$29,32
  408758:	03 00 00 00 00 00 00 1f 	jr $31

00408760 <xclose>:
  408760:	43 00 00 00 e8 ff 1d 1d 	addiu $29,$29,-24
  408768:	34 00 00 00 18 00 04 1d 	sw $4,24($29)
  408770:	43 00 00 00 08 00 04 00 	addiu $4,$0,8
  408778:	43 00 00 00 18 00 05 1d 	addiu $5,$29,24
  408780:	34 00 00 00 14 00 1f 1d 	sw $31,20($29)
  408788:	34 00 00 00 10 00 10 1d 	sw $16,16($29)
  408790:	02 00 00 00 76 53 10 00 	jal 414dd8 <xlmatch>
  408798:	28 00 00 00 18 00 04 1d 	lw $4,24($29)
  4087a0:	42 00 00 00 00 10 02 00 	addu $16,$0,$2
  4087a8:	02 00 00 00 14 55 10 00 	jal 415450 <xllastarg>
  4087b0:	28 00 00 00 04 00 02 10 	lw $2,4($16)
  4087b8:	06 00 00 00 06 00 00 02 	bne $2,$0,4087d8 <xclose+0x78>
  4087c0:	a2 00 00 00 00 10 04 00 	lui $4,4096
  4087c8:	43 00 00 00 24 04 04 04 	addiu $4,$4,1060
  4087d0:	02 00 00 00 8c 11 10 00 	jal 404630 <xlfail>
  4087d8:	28 00 00 00 04 00 04 10 	lw $4,4($16)
  4087e0:	02 00 00 00 d4 67 10 00 	jal 419f50 <fclose>
  4087e8:	42 00 00 00 00 02 00 00 	addu $2,$0,$0
  4087f0:	34 00 00 00 04 00 00 10 	sw $0,4($16)
  4087f8:	28 00 00 00 14 00 1f 1d 	lw $31,20($29)
  408800:	28 00 00 00 10 00 10 1d 	lw $16,16($29)
  408808:	43 00 00 00 18 00 1d 1d 	addiu $29,$29,24
  408810:	03 00 00 00 00 00 00 1f 	jr $31

00408818 <xrdchar>:
  408818:	43 00 00 00 e8 ff 1d 1d 	addiu $29,$29,-24
  408820:	34 00 00 00 14 00 1f 1d 	sw $31,20($29)
  408828:	34 00 00 00 10 00 10 1d 	sw $16,16($29)
  408830:	34 00 00 00 18 00 04 1d 	sw $4,24($29)
  408838:	05 00 00 00 08 00 00 04 	beq $4,$0,408860 <xrdchar+0x48>
  408840:	43 00 00 00 18 00 04 1d 	addiu $4,$29,24
  408848:	02 00 00 00 c8 54 10 00 	jal 415320 <xlgetfile>
  408850:	42 00 00 00 00 10 02 00 	addu $16,$0,$2
  408858:	01 00 00 00 1c 22 10 00 	j 408870 <xrdchar+0x58>
  408860:	28 00 00 00 cc 84 02 1c 	lw $2,-31540($28)
  408868:	28 00 00 00 08 00 10 02 	lw $16,8($2)
  408870:	28 00 00 00 18 00 04 1d 	lw $4,24($29)
  408878:	02 00 00 00 14 55 10 00 	jal 415450 <xllastarg>
  408880:	42 00 00 00 00 04 10 00 	addu $4,$0,$16
  408888:	02 00 00 00 30 25 10 00 	jal 4094c0 <xlgetc>
  408890:	42 00 00 00 00 04 02 00 	addu $4,$0,$2
  408898:	43 00 00 00 ff ff 02 00 	addiu $2,$0,-1
  4088a0:	06 00 00 00 04 00 02 04 	bne $4,$2,4088b8 <xrdchar+0xa0>
  4088a8:	42 00 00 00 00 02 00 00 	addu $2,$0,$0
  4088b0:	01 00 00 00 30 22 10 00 	j 4088c0 <xrdchar+0xa8>
  4088b8:	02 00 00 00 50 15 10 00 	jal 405540 <cvfixnum>
  4088c0:	28 00 00 00 14 00 1f 1d 	lw $31,20($29)
  4088c8:	28 00 00 00 10 00 10 1d 	lw $16,16($29)
  4088d0:	43 00 00 00 18 00 1d 1d 	addiu $29,$29,24
  4088d8:	03 00 00 00 00 00 00 1f 	jr $31

004088e0 <xpkchar>:
  4088e0:	43 00 00 00 e0 ff 1d 1d 	addiu $29,$29,-32
  4088e8:	34 00 00 00 18 00 1f 1d 	sw $31,24($29)
  4088f0:	34 00 00 00 14 00 11 1d 	sw $17,20($29)
  4088f8:	34 00 00 00 10 00 10 1d 	sw $16,16($29)
  408900:	34 00 00 00 20 00 04 1d 	sw $4,32($29)
  408908:	05 00 00 00 08 00 00 04 	beq $4,$0,408930 <xpkchar+0x50>
  408910:	43 00 00 00 20 00 04 1d 	addiu $4,$29,32
  408918:	02 00 00 00 4e 53 10 00 	jal 414d38 <xlarg>
  408920:	42 00 00 00 00 11 02 00 	addu $17,$0,$2
  408928:	01 00 00 00 4e 22 10 00 	j 408938 <xpkchar+0x58>
  408930:	42 00 00 00 00 11 00 00 	addu $17,$0,$0
  408938:	28 00 00 00 20 00 02 1d 	lw $2,32($29)
  408940:	05 00 00 00 08 00 00 02 	beq $2,$0,408968 <xpkchar+0x88>
  408948:	43 00 00 00 20 00 04 1d 	addiu $4,$29,32
  408950:	02 00 00 00 c8 54 10 00 	jal 415320 <xlgetfile>
  408958:	42 00 00 00 00 10 02 00 	addu $16,$0,$2
  408960:	01 00 00 00 5e 22 10 00 	j 408978 <xpkchar+0x98>
  408968:	28 00 00 00 cc 84 02 1c 	lw $2,-31540($28)
  408970:	28 00 00 00 08 00 10 02 	lw $16,8($2)
  408978:	28 00 00 00 20 00 04 1d 	lw $4,32($29)
  408980:	02 00 00 00 14 55 10 00 	jal 415450 <xllastarg>
  408988:	05 00 00 00 1c 00 00 11 	beq $17,$0,408a00 <xpkchar+0x120>
  408990:	43 00 00 00 ff ff 11 00 	addiu $17,$0,-1
  408998:	42 00 00 00 00 04 10 00 	addu $4,$0,$16
  4089a0:	02 00 00 00 cc 25 10 00 	jal 409730 <xlpeek>
  4089a8:	42 00 00 00 00 04 02 00 	addu $4,$0,$2
  4089b0:	05 00 00 00 18 00 11 04 	beq $4,$17,408a18 <xpkchar+0x138>
  4089b8:	28 00 00 00 d0 88 02 1c 	lw $2,-30512($28)
  4089c0:	55 00 00 00 01 03 04 00 	sll $3,$4,0x1
  4089c8:	42 00 00 00 00 03 02 03 	addu $3,$3,$2
  4089d0:	26 00 00 00 00 00 02 03 	lhu $2,0($3)
  4089d8:	4f 00 00 00 10 00 02 02 	andi $2,$2,16
  4089e0:	05 00 00 00 0c 00 00 02 	beq $2,$0,408a18 <xpkchar+0x138>
  4089e8:	42 00 00 00 00 04 10 00 	addu $4,$0,$16
  4089f0:	02 00 00 00 30 25 10 00 	jal 4094c0 <xlgetc>
  4089f8:	01 00 00 00 66 22 10 00 	j 408998 <xpkchar+0xb8>
  408a00:	42 00 00 00 00 04 10 00 	addu $4,$0,$16
  408a08:	02 00 00 00 cc 25 10 00 	jal 409730 <xlpeek>
  408a10:	42 00 00 00 00 04 02 00 	addu $4,$0,$2
  408a18:	43 00 00 00 ff ff 02 00 	addiu $2,$0,-1
  408a20:	06 00 00 00 04 00 02 04 	bne $4,$2,408a38 <xpkchar+0x158>
  408a28:	42 00 00 00 00 02 00 00 	addu $2,$0,$0
  408a30:	01 00 00 00 90 22 10 00 	j 408a40 <xpkchar+0x160>
  408a38:	02 00 00 00 50 15 10 00 	jal 405540 <cvfixnum>
  408a40:	28 00 00 00 18 00 1f 1d 	lw $31,24($29)
  408a48:	28 00 00 00 14 00 11 1d 	lw $17,20($29)
  408a50:	28 00 00 00 10 00 10 1d 	lw $16,16($29)
  408a58:	43 00 00 00 20 00 1d 1d 	addiu $29,$29,32
  408a60:	03 00 00 00 00 00 00 1f 	jr $31

00408a68 <xwrchar>:
  408a68:	43 00 00 00 e0 ff 1d 1d 	addiu $29,$29,-32
  408a70:	34 00 00 00 20 00 04 1d 	sw $4,32($29)
  408a78:	43 00 00 00 05 00 04 00 	addiu $4,$0,5
  408a80:	43 00 00 00 20 00 05 1d 	addiu $5,$29,32
  408a88:	34 00 00 00 18 00 1f 1d 	sw $31,24($29)
  408a90:	34 00 00 00 14 00 11 1d 	sw $17,20($29)
  408a98:	34 00 00 00 10 00 10 1d 	sw $16,16($29)
  408aa0:	02 00 00 00 76 53 10 00 	jal 414dd8 <xlmatch>
  408aa8:	28 00 00 00 20 00 03 1d 	lw $3,32($29)
  408ab0:	42 00 00 00 00 11 02 00 	addu $17,$0,$2
  408ab8:	05 00 00 00 08 00 00 03 	beq $3,$0,408ae0 <xwrchar+0x78>
  408ac0:	43 00 00 00 20 00 04 1d 	addiu $4,$29,32
  408ac8:	02 00 00 00 c8 54 10 00 	jal 415320 <xlgetfile>
  408ad0:	42 00 00 00 00 10 02 00 	addu $16,$0,$2
  408ad8:	01 00 00 00 bc 22 10 00 	j 408af0 <xwrchar+0x88>
  408ae0:	28 00 00 00 d0 84 02 1c 	lw $2,-31536($28)
  408ae8:	28 00 00 00 08 00 10 02 	lw $16,8($2)
  408af0:	28 00 00 00 20 00 04 1d 	lw $4,32($29)
  408af8:	02 00 00 00 14 55 10 00 	jal 415450 <xllastarg>
  408b00:	28 00 00 00 04 00 05 11 	lw $5,4($17)
  408b08:	42 00 00 00 00 04 10 00 	addu $4,$0,$16
  408b10:	02 00 00 00 0e 26 10 00 	jal 409838 <xlputc>
  408b18:	42 00 00 00 00 02 11 00 	addu $2,$0,$17
  408b20:	28 00 00 00 18 00 1f 1d 	lw $31,24($29)
  408b28:	28 00 00 00 14 00 11 1d 	lw $17,20($29)
  408b30:	28 00 00 00 10 00 10 1d 	lw $16,16($29)
  408b38:	43 00 00 00 20 00 1d 1d 	addiu $29,$29,32
  408b40:	03 00 00 00 00 00 00 1f 	jr $31

00408b48 <xreadline>:
  408b48:	43 00 00 00 c0 ff 1d 1d 	addiu $29,$29,-64
  408b50:	34 00 00 00 40 00 04 1d 	sw $4,64($29)
  408b58:	43 00 00 00 10 00 04 1d 	addiu $4,$29,16
  408b60:	43 00 00 00 14 00 05 1d 	addiu $5,$29,20
  408b68:	42 00 00 00 00 06 00 00 	addu $6,$0,$0
  408b70:	34 00 00 00 3c 00 1f 1d 	sw $31,60($29)
  408b78:	34 00 00 00 38 00 1e 1d 	sw $30,56($29)
  408b80:	34 00 00 00 34 00 17 1d 	sw $23,52($29)
  408b88:	34 00 00 00 30 00 16 1d 	sw $22,48($29)
  408b90:	34 00 00 00 2c 00 15 1d 	sw $21,44($29)
  408b98:	34 00 00 00 28 00 14 1d 	sw $20,40($29)
  408ba0:	34 00 00 00 24 00 13 1d 	sw $19,36($29)
  408ba8:	34 00 00 00 20 00 12 1d 	sw $18,32($29)
  408bb0:	34 00 00 00 1c 00 11 1d 	sw $17,28($29)
  408bb8:	34 00 00 00 18 00 10 1d 	sw $16,24($29)
  408bc0:	02 00 00 00 bc 1f 10 00 	jal 407ef0 <xlsave>
  408bc8:	28 00 00 00 40 00 03 1d 	lw $3,64($29)
  408bd0:	42 00 00 00 00 1e 02 00 	addu $30,$0,$2
  408bd8:	05 00 00 00 06 00 00 03 	beq $3,$0,408bf8 <xreadline+0xb0>
  408be0:	43 00 00 00 40 00 04 1d 	addiu $4,$29,64
  408be8:	02 00 00 00 c8 54 10 00 	jal 415320 <xlgetfile>
  408bf0:	01 00 00 00 02 23 10 00 	j 408c08 <xreadline+0xc0>
  408bf8:	28 00 00 00 cc 84 02 1c 	lw $2,-31540($28)
  408c00:	28 00 00 00 08 00 02 02 	lw $2,8($2)
  408c08:	34 00 00 00 10 00 02 1d 	sw $2,16($29)
  408c10:	28 00 00 00 40 00 04 1d 	lw $4,64($29)
  408c18:	42 00 00 00 00 10 00 00 	addu $16,$0,$0
  408c20:	42 00 00 00 00 14 00 00 	addu $20,$0,$0
  408c28:	a2 00 00 00 00 10 13 00 	lui $19,4096
  408c30:	43 00 00 00 c8 2b 13 13 	addiu $19,$19,11208
  408c38:	43 00 00 00 ff ff 17 00 	addiu $23,$0,-1
  408c40:	43 00 00 00 0a 00 16 00 	addiu $22,$0,10
  408c48:	42 00 00 00 00 15 13 00 	addu $21,$0,$19
  408c50:	02 00 00 00 14 55 10 00 	jal 415450 <xllastarg>
  408c58:	28 00 00 00 10 00 04 1d 	lw $4,16($29)
  408c60:	02 00 00 00 30 25 10 00 	jal 4094c0 <xlgetc>
  408c68:	42 00 00 00 00 12 02 00 	addu $18,$0,$2
  408c70:	05 00 00 00 32 00 17 12 	beq $18,$23,408d40 <xreadline+0x1f8>
  408c78:	05 00 00 00 30 00 16 12 	beq $18,$22,408d40 <xreadline+0x1f8>
  408c80:	5c 00 00 00 64 00 02 10 	slti $2,$16,100
  408c88:	06 00 00 00 24 00 00 02 	bne $2,$0,408d20 <xreadline+0x1d8>
  408c90:	43 00 00 00 64 00 14 14 	addiu $20,$20,100
  408c98:	42 00 00 00 00 04 14 00 	addu $4,$0,$20
  408ca0:	02 00 00 00 7c 15 10 00 	jal 4055f0 <newstring>
  408ca8:	42 00 00 00 00 11 02 00 	addu $17,$0,$2
  408cb0:	28 00 00 00 08 00 10 11 	lw $16,8($17)
  408cb8:	30 00 00 00 00 00 00 10 	sb $0,0($16)
  408cc0:	28 00 00 00 14 00 02 1d 	lw $2,20($29)
  408cc8:	05 00 00 00 06 00 00 02 	beq $2,$0,408ce8 <xreadline+0x1a0>
  408cd0:	28 00 00 00 08 00 05 02 	lw $5,8($2)
  408cd8:	42 00 00 00 00 04 10 00 	addu $4,$0,$16
  408ce0:	02 00 00 00 a0 6b 10 00 	jal 41ae80 <strcat>
  408ce8:	42 00 00 00 00 04 10 00 	addu $4,$0,$16
  408cf0:	42 00 00 00 00 05 15 00 	addu $5,$0,$21
  408cf8:	30 00 00 00 00 00 00 13 	sb $0,0($19)
  408d00:	02 00 00 00 a0 6b 10 00 	jal 41ae80 <strcat>
  408d08:	42 00 00 00 00 13 15 00 	addu $19,$0,$21
  408d10:	42 00 00 00 00 10 00 00 	addu $16,$0,$0
  408d18:	34 00 00 00 14 00 11 1d 	sw $17,20($29)
  408d20:	30 00 00 00 00 00 12 13 	sb $18,0($19)
  408d28:	43 00 00 00 01 00 13 13 	addiu $19,$19,1
  408d30:	43 00 00 00 01 00 10 10 	addiu $16,$16,1
  408d38:	01 00 00 00 16 23 10 00 	j 408c58 <xreadline+0x110>
  408d40:	06 00 00 00 10 00 00 14 	bne $20,$0,408d88 <xreadline+0x240>
  408d48:	a2 00 00 00 00 10 02 00 	lui $2,4096
  408d50:	43 00 00 00 c8 2b 02 02 	addiu $2,$2,11208
  408d58:	06 00 00 00 0a 00 02 13 	bne $19,$2,408d88 <xreadline+0x240>
  408d60:	43 00 00 00 ff ff 02 00 	addiu $2,$0,-1
  408d68:	06 00 00 00 06 00 02 12 	bne $18,$2,408d88 <xreadline+0x240>
  408d70:	34 00 00 00 54 85 1e 1c 	sw $30,-31404($28)
  408d78:	42 00 00 00 00 02 00 00 	addu $2,$0,$0
  408d80:	01 00 00 00 8c 23 10 00 	j 408e30 <xreadline+0x2e8>
  408d88:	28 00 00 00 14 00 02 1d 	lw $2,20($29)
  408d90:	05 00 00 00 02 00 00 02 	beq $2,$0,408da0 <xreadline+0x258>
  408d98:	05 00 00 00 20 00 00 10 	beq $16,$0,408e20 <xreadline+0x2d8>
  408da0:	42 00 00 00 00 04 10 14 	addu $4,$20,$16
  408da8:	02 00 00 00 7c 15 10 00 	jal 4055f0 <newstring>
  408db0:	42 00 00 00 00 11 02 00 	addu $17,$0,$2
  408db8:	28 00 00 00 08 00 10 11 	lw $16,8($17)
  408dc0:	30 00 00 00 00 00 00 10 	sb $0,0($16)
  408dc8:	28 00 00 00 14 00 02 1d 	lw $2,20($29)
  408dd0:	05 00 00 00 06 00 00 02 	beq $2,$0,408df0 <xreadline+0x2a8>
  408dd8:	28 00 00 00 08 00 05 02 	lw $5,8($2)
  408de0:	42 00 00 00 00 04 10 00 	addu $4,$0,$16
  408de8:	02 00 00 00 a0 6b 10 00 	jal 41ae80 <strcat>
  408df0:	42 00 00 00 00 04 10 00 	addu $4,$0,$16
  408df8:	a2 00 00 00 00 10 05 00 	lui $5,4096
  408e00:	43 00 00 00 c8 2b 05 05 	addiu $5,$5,11208
  408e08:	30 00 00 00 00 00 00 13 	sb $0,0($19)
  408e10:	02 00 00 00 a0 6b 10 00 	jal 41ae80 <strcat>
  408e18:	34 00 00 00 14 00 11 1d 	sw $17,20($29)
  408e20:	28 00 00 00 14 00 02 1d 	lw $2,20($29)
  408e28:	34 00 00 00 54 85 1e 1c 	sw $30,-31404($28)
  408e30:	28 00 00 00 3c 00 1f 1d 	lw $31,60($29)
  408e38:	28 00 00 00 38 00 1e 1d 	lw $30,56($29)
  408e40:	28 00 00 00 34 00 17 1d 	lw $23,52($29)
  408e48:	28 00 00 00 30 00 16 1d 	lw $22,48($29)
  408e50:	28 00 00 00 2c 00 15 1d 	lw $21,44($29)
  408e58:	28 00 00 00 28 00 14 1d 	lw $20,40($29)
  408e60:	28 00 00 00 24 00 13 1d 	lw $19,36($29)
  408e68:	28 00 00 00 20 00 12 1d 	lw $18,32($29)
  408e70:	28 00 00 00 1c 00 11 1d 	lw $17,28($29)
  408e78:	28 00 00 00 18 00 10 1d 	lw $16,24($29)
  408e80:	43 00 00 00 40 00 1d 1d 	addiu $29,$29,64
  408e88:	03 00 00 00 00 00 00 1f 	jr $31

00408e90 <xlinit>:
  408e90:	43 00 00 00 e0 ff 1d 1d 	addiu $29,$29,-32
  408e98:	34 00 00 00 18 00 1f 1d 	sw $31,24($29)
  408ea0:	34 00 00 00 14 00 11 1d 	sw $17,20($29)
  408ea8:	34 00 00 00 10 00 10 1d 	sw $16,16($29)
  408eb0:	02 00 00 00 20 1a 10 00 	jal 406880 <xlminit>
  408eb8:	02 00 00 00 48 59 10 00 	jal 416520 <xlsinit>
  408ec0:	02 00 00 00 ce 13 10 00 	jal 404f38 <xldinit>
  408ec8:	02 00 00 00 98 40 10 00 	jal 410260 <xloinit>
  408ed0:	a2 00 00 00 00 10 11 00 	lui $17,4096
  408ed8:	43 00 00 00 30 23 11 11 	addiu $17,$17,9008
  408ee0:	28 00 00 00 00 00 02 11 	lw $2,0($17)
  408ee8:	05 00 00 00 12 00 00 02 	beq $2,$0,408f38 <xlinit+0xa8>
  408ef0:	43 00 00 00 08 00 10 11 	addiu $16,$17,8
  408ef8:	28 00 00 00 00 00 04 11 	lw $4,0($17)
  408f00:	28 00 00 00 fc ff 05 10 	lw $5,-4($16)
  408f08:	28 00 00 00 00 00 06 10 	lw $6,0($16)
  408f10:	02 00 00 00 2c 53 10 00 	jal 414cb0 <xlsubr>
  408f18:	43 00 00 00 0c 00 11 11 	addiu $17,$17,12
  408f20:	28 00 00 00 00 00 02 11 	lw $2,0($17)
  408f28:	43 00 00 00 0c 00 10 10 	addiu $16,$16,12
  408f30:	06 00 00 00 f0 ff 00 02 	bne $2,$0,408ef8 <xlinit+0x68>
  408f38:	02 00 00 00 f0 00 10 00 	jal 4003c0 <osfinit>
  408f40:	43 00 00 00 d0 85 04 1c 	addiu $4,$28,-31280
  408f48:	02 00 00 00 ae 56 10 00 	jal 415ab8 <xlsenter>
  408f50:	43 00 00 00 d4 85 04 1c 	addiu $4,$28,-31276
  408f58:	34 00 00 00 a0 84 02 1c 	sw $2,-31584($28)
  408f60:	34 00 00 00 08 00 02 02 	sw $2,8($2)
  408f68:	02 00 00 00 ae 56 10 00 	jal 415ab8 <xlsenter>
  408f70:	43 00 00 00 d8 85 04 1c 	addiu $4,$28,-31272
  408f78:	34 00 00 00 a4 84 02 1c 	sw $2,-31580($28)
  408f80:	02 00 00 00 ae 56 10 00 	jal 415ab8 <xlsenter>
  408f88:	a2 00 00 00 00 10 04 00 	lui $4,4096
  408f90:	43 00 00 00 20 05 04 04 	addiu $4,$4,1312
  408f98:	34 00 00 00 a8 84 02 1c 	sw $2,-31576($28)
  408fa0:	02 00 00 00 ae 56 10 00 	jal 415ab8 <xlsenter>
  408fa8:	a2 00 00 00 00 10 04 00 	lui $4,4096
  408fb0:	43 00 00 00 2c 05 04 04 	addiu $4,$4,1324
  408fb8:	34 00 00 00 ac 84 02 1c 	sw $2,-31572($28)
  408fc0:	02 00 00 00 ae 56 10 00 	jal 415ab8 <xlsenter>
  408fc8:	43 00 00 00 e0 85 04 1c 	addiu $4,$28,-31264
  408fd0:	34 00 00 00 b0 84 02 1c 	sw $2,-31568($28)
  408fd8:	02 00 00 00 ae 56 10 00 	jal 415ab8 <xlsenter>
  408fe0:	a2 00 00 00 00 10 04 00 	lui $4,4096
  408fe8:	43 00 00 00 38 05 04 04 	addiu $4,$4,1336
  408ff0:	34 00 00 00 b4 84 02 1c 	sw $2,-31564($28)
  408ff8:	02 00 00 00 ae 56 10 00 	jal 415ab8 <xlsenter>
  409000:	43 00 00 00 e8 85 04 1c 	addiu $4,$28,-31256
  409008:	34 00 00 00 b8 84 02 1c 	sw $2,-31560($28)
  409010:	02 00 00 00 ae 56 10 00 	jal 415ab8 <xlsenter>
  409018:	43 00 00 00 f0 85 04 1c 	addiu $4,$28,-31248
  409020:	34 00 00 00 c4 84 02 1c 	sw $2,-31548($28)
  409028:	02 00 00 00 ae 56 10 00 	jal 415ab8 <xlsenter>
  409030:	43 00 00 00 f8 85 04 1c 	addiu $4,$28,-31240
  409038:	34 00 00 00 c8 84 02 1c 	sw $2,-31544($28)
  409040:	02 00 00 00 ae 56 10 00 	jal 415ab8 <xlsenter>
  409048:	43 00 00 00 fc 85 04 1c 	addiu $4,$28,-31236
  409050:	34 00 00 00 00 85 02 1c 	sw $2,-31488($28)
  409058:	02 00 00 00 ae 56 10 00 	jal 415ab8 <xlsenter>
  409060:	43 00 00 00 00 86 04 1c 	addiu $4,$28,-31232
  409068:	34 00 00 00 e4 84 02 1c 	sw $2,-31516($28)
  409070:	02 00 00 00 ae 56 10 00 	jal 415ab8 <xlsenter>
  409078:	43 00 00 00 04 86 04 1c 	addiu $4,$28,-31228
  409080:	34 00 00 00 e8 84 02 1c 	sw $2,-31512($28)
  409088:	02 00 00 00 ae 56 10 00 	jal 415ab8 <xlsenter>
  409090:	43 00 00 00 08 86 04 1c 	addiu $4,$28,-31224
  409098:	34 00 00 00 ec 84 02 1c 	sw $2,-31508($28)
  4090a0:	02 00 00 00 ae 56 10 00 	jal 415ab8 <xlsenter>
  4090a8:	a2 00 00 00 00 10 04 00 	lui $4,4096
  4090b0:	43 00 00 00 44 05 04 04 	addiu $4,$4,1348
  4090b8:	34 00 00 00 f0 84 02 1c 	sw $2,-31504($28)
  4090c0:	02 00 00 00 ae 56 10 00 	jal 415ab8 <xlsenter>
  4090c8:	a2 00 00 00 00 10 04 00 	lui $4,4096
  4090d0:	43 00 00 00 54 05 04 04 	addiu $4,$4,1364
  4090d8:	34 00 00 00 f4 84 02 1c 	sw $2,-31500($28)
  4090e0:	02 00 00 00 ae 56 10 00 	jal 415ab8 <xlsenter>
  4090e8:	43 00 00 00 0c 86 04 1c 	addiu $4,$28,-31220
  4090f0:	34 00 00 00 f8 84 02 1c 	sw $2,-31496($28)
  4090f8:	02 00 00 00 ae 56 10 00 	jal 415ab8 <xlsenter>
  409100:	a2 00 00 00 00 10 04 00 	lui $4,4096
  409108:	43 00 00 00 64 05 04 04 	addiu $4,$4,1380
  409110:	34 00 00 00 fc 84 02 1c 	sw $2,-31492($28)
  409118:	02 00 00 00 ae 56 10 00 	jal 415ab8 <xlsenter>
  409120:	a2 00 00 00 00 10 04 00 	lui $4,4096
  409128:	43 00 00 00 70 05 04 04 	addiu $4,$4,1392
  409130:	34 00 00 00 d4 84 02 1c 	sw $2,-31532($28)
  409138:	02 00 00 00 ae 56 10 00 	jal 415ab8 <xlsenter>
  409140:	a2 00 00 00 00 10 04 00 	lui $4,4096
  409148:	43 00 00 00 80 05 04 04 	addiu $4,$4,1408
  409150:	34 00 00 00 0c 85 02 1c 	sw $2,-31476($28)
  409158:	02 00 00 00 ae 56 10 00 	jal 415ab8 <xlsenter>
  409160:	43 00 00 00 14 86 04 1c 	addiu $4,$28,-31212
  409168:	34 00 00 00 10 85 02 1c 	sw $2,-31472($28)
  409170:	02 00 00 00 ae 56 10 00 	jal 415ab8 <xlsenter>
  409178:	43 00 00 00 1c 86 04 1c 	addiu $4,$28,-31204
  409180:	34 00 00 00 14 85 02 1c 	sw $2,-31468($28)
  409188:	02 00 00 00 ae 56 10 00 	jal 415ab8 <xlsenter>
  409190:	34 00 00 00 18 85 02 1c 	sw $2,-31464($28)
  409198:	02 00 00 00 72 50 10 00 	jal 4141c8 <xlrinit>
  4091a0:	43 00 00 00 24 86 04 1c 	addiu $4,$28,-31196
  4091a8:	02 00 00 00 ae 56 10 00 	jal 415ab8 <xlsenter>
  4091b0:	a2 00 00 00 00 10 04 00 	lui $4,4096
  4091b8:	43 00 00 00 90 05 04 04 	addiu $4,$4,1424
  4091c0:	34 00 00 00 04 85 02 1c 	sw $2,-31484($28)
  4091c8:	02 00 00 00 ae 56 10 00 	jal 415ab8 <xlsenter>
  4091d0:	a2 00 00 00 00 10 04 00 	lui $4,4096
  4091d8:	43 00 00 00 9c 05 04 04 	addiu $4,$4,1436
  4091e0:	34 00 00 00 08 85 02 1c 	sw $2,-31480($28)
  4091e8:	02 00 00 00 ae 56 10 00 	jal 415ab8 <xlsenter>
  4091f0:	43 00 00 00 2c 86 04 1c 	addiu $4,$28,-31188
  4091f8:	34 00 00 00 1c 85 02 1c 	sw $2,-31460($28)
  409200:	02 00 00 00 ae 56 10 00 	jal 415ab8 <xlsenter>
  409208:	43 00 00 00 34 86 04 1c 	addiu $4,$28,-31180
  409210:	34 00 00 00 20 85 02 1c 	sw $2,-31456($28)
  409218:	02 00 00 00 ae 56 10 00 	jal 415ab8 <xlsenter>
  409220:	a2 00 00 00 00 10 04 00 	lui $4,4096
  409228:	43 00 00 00 a8 05 04 04 	addiu $4,$4,1448
  409230:	34 00 00 00 24 85 02 1c 	sw $2,-31452($28)
  409238:	02 00 00 00 ae 56 10 00 	jal 415ab8 <xlsenter>
  409240:	28 00 00 00 90 88 04 1c 	lw $4,-30576($28)
  409248:	34 00 00 00 cc 84 02 1c 	sw $2,-31540($28)
  409250:	02 00 00 00 38 15 10 00 	jal 4054e0 <cvfile>
  409258:	28 00 00 00 cc 84 03 1c 	lw $3,-31540($28)
  409260:	a2 00 00 00 00 10 04 00 	lui $4,4096
  409268:	43 00 00 00 bc 05 04 04 	addiu $4,$4,1468
  409270:	34 00 00 00 08 00 02 03 	sw $2,8($3)
  409278:	02 00 00 00 ae 56 10 00 	jal 415ab8 <xlsenter>
  409280:	28 00 00 00 94 88 04 1c 	lw $4,-30572($28)
  409288:	34 00 00 00 d0 84 02 1c 	sw $2,-31536($28)
  409290:	02 00 00 00 38 15 10 00 	jal 4054e0 <cvfile>
  409298:	28 00 00 00 d0 84 03 1c 	lw $3,-31536($28)
  4092a0:	a2 00 00 00 00 10 04 00 	lui $4,4096
  4092a8:	43 00 00 00 d0 05 04 04 	addiu $4,$4,1488
  4092b0:	34 00 00 00 08 00 02 03 	sw $2,8($3)
  4092b8:	02 00 00 00 ae 56 10 00 	jal 415ab8 <xlsenter>
  4092c0:	a2 00 00 00 00 10 04 00 	lui $4,4096
  4092c8:	43 00 00 00 dc 05 04 04 	addiu $4,$4,1500
  4092d0:	34 00 00 00 bc 84 02 1c 	sw $2,-31556($28)
  4092d8:	34 00 00 00 08 00 00 02 	sw $0,8($2)
  4092e0:	02 00 00 00 ae 56 10 00 	jal 415ab8 <xlsenter>
  4092e8:	a2 00 00 00 00 10 04 00 	lui $4,4096
  4092f0:	43 00 00 00 e8 05 04 04 	addiu $4,$4,1512
  4092f8:	34 00 00 00 c0 84 02 1c 	sw $2,-31552($28)
  409300:	34 00 00 00 08 00 00 02 	sw $0,8($2)
  409308:	02 00 00 00 ae 56 10 00 	jal 415ab8 <xlsenter>
  409310:	a2 00 00 00 00 10 04 00 	lui $4,4096
  409318:	43 00 00 00 f8 05 04 04 	addiu $4,$4,1528
  409320:	34 00 00 00 d8 84 02 1c 	sw $2,-31528($28)
  409328:	34 00 00 00 08 00 00 02 	sw $0,8($2)
  409330:	02 00 00 00 ae 56 10 00 	jal 415ab8 <xlsenter>
  409338:	a2 00 00 00 00 10 04 00 	lui $4,4096
  409340:	43 00 00 00 08 06 04 04 	addiu $4,$4,1544
  409348:	34 00 00 00 dc 84 02 1c 	sw $2,-31524($28)
  409350:	34 00 00 00 08 00 00 02 	sw $0,8($2)
  409358:	02 00 00 00 ae 56 10 00 	jal 415ab8 <xlsenter>
  409360:	28 00 00 00 a0 84 03 1c 	lw $3,-31584($28)
  409368:	a2 00 00 00 00 10 04 00 	lui $4,4096
  409370:	43 00 00 00 18 06 04 04 	addiu $4,$4,1560
  409378:	34 00 00 00 e0 84 02 1c 	sw $2,-31520($28)
  409380:	34 00 00 00 08 00 03 02 	sw $3,8($2)
  409388:	02 00 00 00 ae 56 10 00 	jal 415ab8 <xlsenter>
  409390:	28 00 00 00 a0 84 03 1c 	lw $3,-31584($28)
  409398:	43 00 00 00 3c 86 04 1c 	addiu $4,$28,-31172
  4093a0:	34 00 00 00 08 00 03 02 	sw $3,8($2)
  4093a8:	02 00 00 00 ae 56 10 00 	jal 415ab8 <xlsenter>
  4093b0:	43 00 00 00 44 86 04 1c 	addiu $4,$28,-31164
  4093b8:	34 00 00 00 28 85 02 1c 	sw $2,-31448($28)
  4093c0:	02 00 00 00 ae 56 10 00 	jal 415ab8 <xlsenter>
  4093c8:	43 00 00 00 4c 86 04 1c 	addiu $4,$28,-31156
  4093d0:	34 00 00 00 2c 85 02 1c 	sw $2,-31444($28)
  4093d8:	02 00 00 00 ae 56 10 00 	jal 415ab8 <xlsenter>
  4093e0:	43 00 00 00 54 86 04 1c 	addiu $4,$28,-31148
  4093e8:	34 00 00 00 30 85 02 1c 	sw $2,-31440($28)
  4093f0:	02 00 00 00 ae 56 10 00 	jal 415ab8 <xlsenter>
  4093f8:	43 00 00 00 5c 86 04 1c 	addiu $4,$28,-31140
  409400:	34 00 00 00 34 85 02 1c 	sw $2,-31436($28)
  409408:	02 00 00 00 ae 56 10 00 	jal 415ab8 <xlsenter>
  409410:	43 00 00 00 64 86 04 1c 	addiu $4,$28,-31132
  409418:	34 00 00 00 38 85 02 1c 	sw $2,-31432($28)
  409420:	02 00 00 00 ae 56 10 00 	jal 415ab8 <xlsenter>
  409428:	43 00 00 00 6c 86 04 1c 	addiu $4,$28,-31124
  409430:	34 00 00 00 3c 85 02 1c 	sw $2,-31428($28)
  409438:	02 00 00 00 ae 56 10 00 	jal 415ab8 <xlsenter>
  409440:	43 00 00 00 74 86 04 1c 	addiu $4,$28,-31116
  409448:	34 00 00 00 40 85 02 1c 	sw $2,-31424($28)
  409450:	02 00 00 00 ae 56 10 00 	jal 415ab8 <xlsenter>
  409458:	43 00 00 00 7c 86 04 1c 	addiu $4,$28,-31108
  409460:	34 00 00 00 44 85 02 1c 	sw $2,-31420($28)
  409468:	02 00 00 00 ae 56 10 00 	jal 415ab8 <xlsenter>
  409470:	43 00 00 00 84 86 04 1c 	addiu $4,$28,-31100
  409478:	34 00 00 00 48 85 02 1c 	sw $2,-31416($28)
  409480:	02 00 00 00 ae 56 10 00 	jal 415ab8 <xlsenter>
  409488:	34 00 00 00 40 90 02 1c 	sw $2,-28608($28)
  409490:	28 00 00 00 18 00 1f 1d 	lw $31,24($29)
  409498:	28 00 00 00 14 00 11 1d 	lw $17,20($29)
  4094a0:	28 00 00 00 10 00 10 1d 	lw $16,16($29)
  4094a8:	43 00 00 00 20 00 1d 1d 	addiu $29,$29,32
  4094b0:	03 00 00 00 00 00 00 1f 	jr $31
	...

004094c0 <xlgetc>:
  4094c0:	43 00 00 00 e0 ff 1d 1d 	addiu $29,$29,-32
  4094c8:	34 00 00 00 10 00 10 1d 	sw $16,16($29)
  4094d0:	42 00 00 00 00 10 04 00 	addu $16,$0,$4
  4094d8:	34 00 00 00 1c 00 1f 1d 	sw $31,28($29)
  4094e0:	34 00 00 00 18 00 12 1d 	sw $18,24($29)
  4094e8:	34 00 00 00 14 00 11 1d 	sw $17,20($29)
  4094f0:	05 00 00 00 0a 00 00 10 	beq $16,$0,409520 <xlgetc+0x60>
  4094f8:	20 00 00 00 00 00 03 10 	lb $3,0($16)
  409500:	43 00 00 00 03 00 02 00 	addiu $2,$0,3
  409508:	06 00 00 00 28 00 02 03 	bne $3,$2,4095b0 <xlgetc+0xf0>
  409510:	28 00 00 00 04 00 11 10 	lw $17,4($16)
  409518:	06 00 00 00 04 00 00 11 	bne $17,$0,409530 <xlgetc+0x70>
