
/export/capc5/SPEC_TRACE/SimpleScalar/bin/turb3d.ss:     file format ss-coff-little

Disassembly of section .text:

00400140 <__start>:
  400140:	28 00 00 00 00 00 10 1d 	lw $16,0($29)
  400148:	a2 00 00 00 01 10 1c 00 	lui $28,4097
  400150:	43 00 00 00 c0 b8 1c 1c 	addiu $28,$28,-18240
  400158:	43 00 00 00 04 00 11 1d 	addiu $17,$29,4
  400160:	43 00 00 00 04 00 03 11 	addiu $3,$17,4
  400168:	55 00 00 00 02 02 10 00 	sll $2,$16,0x2
  400170:	42 00 00 00 00 03 02 03 	addu $3,$3,$2
  400178:	42 00 00 00 00 12 03 00 	addu $18,$0,$3
  400180:	34 00 00 00 a4 8d 12 1c 	sw $18,-29276($28)
  400188:	43 00 00 00 e8 ff 1d 1d 	addiu $29,$29,-24
  400190:	42 00 00 00 00 04 10 00 	addu $4,$0,$16
  400198:	42 00 00 00 00 05 11 00 	addu $5,$0,$17
  4001a0:	42 00 00 00 00 06 12 00 	addu $6,$0,$18
  4001a8:	02 00 00 00 90 6a 10 00 	jal 41aa40 <__libc_init>
  4001b0:	34 00 00 00 a0 8d 00 1c 	sw $0,-29280($28)
  4001b8:	42 00 00 00 00 04 10 00 	addu $4,$0,$16
  4001c0:	42 00 00 00 00 05 11 00 	addu $5,$0,$17
  4001c8:	42 00 00 00 00 06 12 00 	addu $6,$0,$18
  4001d0:	02 00 00 00 9c 6a 10 00 	jal 41aa70 <main>
  4001d8:	42 00 00 00 00 04 02 00 	addu $4,$0,$2
  4001e0:	02 00 00 00 74 6b 10 00 	jal 41add0 <exit>
	...

004001f0 <MAIN__>:
  4001f0:	43 00 00 00 e8 ff 1d 1d 	addiu $29,$29,-24
  4001f8:	34 00 00 00 10 00 1f 1d 	sw $31,16($29)
  400200:	02 00 00 00 9e 00 10 00 	jal 400278 <turb3d_>
  400208:	a2 00 00 00 c6 10 03 00 	lui $3,4294
  400210:	28 00 00 00 00 60 03 03 	lw $3,24576($3)
  400218:	43 00 00 00 01 00 02 00 	addiu $2,$0,1
  400220:	06 00 00 00 04 00 02 03 	bne $3,$2,400238 <MAIN__+0x48>
  400228:	02 00 00 00 2c 54 10 00 	jal 4150b0 <verifytr_>
  400230:	01 00 00 00 90 00 10 00 	j 400240 <MAIN__+0x50>
  400238:	02 00 00 00 4e 5f 10 00 	jal 417d38 <verify_>
  400240:	43 00 00 00 3c 80 04 1c 	addiu $4,$28,-32708
  400248:	42 00 00 00 00 05 00 00 	addu $5,$0,$0
  400250:	02 00 00 00 dc 6b 10 00 	jal 41af70 <s_stop>
  400258:	42 00 00 00 00 02 00 00 	addu $2,$0,$0
  400260:	28 00 00 00 10 00 1f 1d 	lw $31,16($29)
  400268:	43 00 00 00 18 00 1d 1d 	addiu $29,$29,24
  400270:	03 00 00 00 00 00 00 1f 	jr $31

00400278 <turb3d_>:
  400278:	43 00 00 00 38 ff 1d 1d 	addiu $29,$29,-200
  400280:	a2 00 00 00 00 10 04 00 	lui $4,4096
  400288:	43 00 00 00 04 26 04 04 	addiu $4,$4,9732
  400290:	34 00 00 00 c0 00 1f 1d 	sw $31,192($29)
  400298:	34 00 00 00 bc 00 17 1d 	sw $23,188($29)
  4002a0:	34 00 00 00 b8 00 16 1d 	sw $22,184($29)
  4002a8:	34 00 00 00 b4 00 15 1d 	sw $21,180($29)
  4002b0:	34 00 00 00 b0 00 14 1d 	sw $20,176($29)
  4002b8:	34 00 00 00 ac 00 13 1d 	sw $19,172($29)
  4002c0:	34 00 00 00 a8 00 12 1d 	sw $18,168($29)
  4002c8:	34 00 00 00 a4 00 11 1d 	sw $17,164($29)
  4002d0:	34 00 00 00 a0 00 10 1d 	sw $16,160($29)
  4002d8:	02 00 00 00 c8 6c 10 00 	jal 41b320 <s_wsfe>
  4002e0:	02 00 00 00 0e 6e 10 00 	jal 41b838 <e_wsfe>
  4002e8:	a2 00 00 00 00 10 04 00 	lui $4,4096
  4002f0:	43 00 00 00 18 26 04 04 	addiu $4,$4,9752
  4002f8:	02 00 00 00 c8 6c 10 00 	jal 41b320 <s_wsfe>
  400300:	02 00 00 00 0e 6e 10 00 	jal 41b838 <e_wsfe>
  400308:	a2 00 00 00 00 10 04 00 	lui $4,4096
  400310:	43 00 00 00 2c 26 04 04 	addiu $4,$4,9772
  400318:	02 00 00 00 c8 6c 10 00 	jal 41b320 <s_wsfe>
  400320:	02 00 00 00 0e 6e 10 00 	jal 41b838 <e_wsfe>
  400328:	43 00 00 00 40 00 17 00 	addiu $23,$0,64
  400330:	a2 00 00 00 04 00 03 00 	lui $3,4
  400338:	51 00 00 00 00 20 03 03 	ori $3,$3,8192
  400340:	43 00 00 00 01 00 0c 00 	addiu $12,$0,1
  400348:	a2 00 00 00 c6 10 04 00 	lui $4,4294
  400350:	43 00 00 00 20 60 04 04 	addiu $4,$4,24608
  400358:	43 00 00 00 40 00 15 00 	addiu $21,$0,64
  400360:	43 00 00 00 42 00 02 00 	addiu $2,$0,66
  400368:	a2 00 00 00 c6 10 01 00 	lui $1,4294
  400370:	34 00 00 00 2c 64 02 01 	sw $2,25644($1)
  400378:	43 00 00 00 21 00 02 00 	addiu $2,$0,33
  400380:	a2 00 00 00 c6 10 01 00 	lui $1,4294
  400388:	34 00 00 00 30 64 02 01 	sw $2,25648($1)
  400390:	43 00 00 00 40 08 02 00 	addiu $2,$0,2112
  400398:	a2 00 00 00 c6 10 01 00 	lui $1,4294
  4003a0:	34 00 00 00 38 64 02 01 	sw $2,25656($1)
  4003a8:	a2 00 00 00 c6 10 01 00 	lui $1,4294
  4003b0:	34 00 00 00 3c 64 02 01 	sw $2,25660($1)
  4003b8:	43 00 00 00 00 10 02 00 	addiu $2,$0,4096
  4003c0:	34 00 00 00 28 00 03 1d 	sw $3,40($29)
  4003c8:	a2 00 00 00 c6 10 01 00 	lui $1,4294
  4003d0:	34 00 00 00 20 64 15 01 	sw $21,25632($1)
  4003d8:	a2 00 00 00 c6 10 01 00 	lui $1,4294
  4003e0:	34 00 00 00 24 64 15 01 	sw $21,25636($1)
  4003e8:	a2 00 00 00 c6 10 01 00 	lui $1,4294
  4003f0:	34 00 00 00 28 64 15 01 	sw $21,25640($1)
  4003f8:	a2 00 00 00 c6 10 01 00 	lui $1,4294
  400400:	34 00 00 00 34 64 03 01 	sw $3,25652($1)
  400408:	a2 00 00 00 c6 10 01 00 	lui $1,4294
  400410:	34 00 00 00 40 64 02 01 	sw $2,25664($1)
  400418:	34 00 00 00 00 00 00 04 	sw $0,0($4)
  400420:	34 00 00 00 04 00 00 04 	sw $0,4($4)
  400428:	34 00 00 00 08 00 00 04 	sw $0,8($4)
  400430:	34 00 00 00 0c 00 00 04 	sw $0,12($4)
  400438:	34 00 00 00 10 00 00 04 	sw $0,16($4)
  400440:	34 00 00 00 14 00 00 04 	sw $0,20($4)
  400448:	34 00 00 00 18 00 00 04 	sw $0,24($4)
  400450:	34 00 00 00 1c 00 00 04 	sw $0,28($4)
  400458:	43 00 00 00 20 00 04 04 	addiu $4,$4,32
  400460:	43 00 00 00 08 00 0c 0c 	addiu $12,$12,8
  400468:	5c 00 00 00 01 01 02 0c 	slti $2,$12,257
  400470:	06 00 00 00 e8 ff 00 02 	bne $2,$0,400418 <turb3d_+0x1a0>
  400478:	a2 00 00 00 00 10 04 00 	lui $4,4096
  400480:	43 00 00 00 40 26 04 04 	addiu $4,$4,9792
  400488:	02 00 00 00 c8 6c 10 00 	jal 41b320 <s_wsfe>
  400490:	a2 00 00 00 c6 10 10 00 	lui $16,4294
  400498:	43 00 00 00 1c 64 10 10 	addiu $16,$16,25628
  4004a0:	43 00 00 00 00 80 04 1c 	addiu $4,$28,-32768
  4004a8:	43 00 00 00 04 00 05 10 	addiu $5,$16,4
  4004b0:	43 00 00 00 04 00 06 00 	addiu $6,$0,4
  4004b8:	02 00 00 00 1c 7a 10 00 	jal 41e870 <do_fio>
  4004c0:	43 00 00 00 00 80 04 1c 	addiu $4,$28,-32768
  4004c8:	43 00 00 00 08 00 05 10 	addiu $5,$16,8
  4004d0:	43 00 00 00 04 00 06 00 	addiu $6,$0,4
  4004d8:	02 00 00 00 1c 7a 10 00 	jal 41e870 <do_fio>
  4004e0:	43 00 00 00 00 80 04 1c 	addiu $4,$28,-32768
  4004e8:	43 00 00 00 0c 00 05 10 	addiu $5,$16,12
  4004f0:	43 00 00 00 04 00 06 00 	addiu $6,$0,4
  4004f8:	02 00 00 00 1c 7a 10 00 	jal 41e870 <do_fio>
  400500:	02 00 00 00 0e 6e 10 00 	jal 41b838 <e_wsfe>
  400508:	02 00 00 00 c2 06 10 00 	jal 401b08 <param_>
  400510:	a2 00 00 00 c6 10 01 00 	lui $1,4294
  400518:	2b 00 00 00 d0 5f 00 01 	l.d $f0,24528($1)
  400520:	a2 00 00 00 c6 10 03 00 	lui $3,4294
  400528:	28 00 00 00 e0 5f 03 03 	lw $3,24544($3)
  400530:	43 00 00 00 01 00 02 00 	addiu $2,$0,1
  400538:	37 00 00 00 68 00 00 1d 	s.d $f0,104($29)
  400540:	06 00 00 00 04 00 02 03 	bne $3,$2,400558 <turb3d_+0x2e0>
  400548:	71 00 00 00 00 00 00 00 	add.d $f0,$f0,$f0
  400550:	37 00 00 00 68 00 00 1d 	s.d $f0,104($29)
  400558:	06 00 00 00 42 00 00 03 	bne $3,$0,400668 <turb3d_+0x3f0>
  400560:	a2 00 00 00 c6 10 16 00 	lui $22,4294
  400568:	28 00 00 00 e4 5f 16 16 	lw $22,24548($22)
  400570:	a2 00 00 00 c6 10 02 00 	lui $2,4294
  400578:	28 00 00 00 f8 5f 02 02 	lw $2,24568($2)
  400580:	43 00 00 00 01 00 14 00 	addiu $20,$0,1
  400588:	34 00 00 00 80 00 00 1d 	sw $0,128($29)
  400590:	38 00 00 00 88 00 00 1d 	dsz 136($29)
  400598:	06 00 00 00 08 00 14 02 	bne $2,$20,4005c0 <turb3d_+0x348>
  4005a0:	a2 00 00 00 00 10 04 00 	lui $4,4096
  4005a8:	43 00 00 00 00 00 04 04 	addiu $4,$4,0
  4005b0:	43 00 00 00 29 00 05 00 	addiu $5,$0,41
  4005b8:	02 00 00 00 dc 6b 10 00 	jal 41af70 <s_stop>
  4005c0:	a2 00 00 00 c6 10 02 00 	lui $2,4294
  4005c8:	28 00 00 00 fc 5f 02 02 	lw $2,24572($2)
  4005d0:	06 00 00 00 4a 00 14 02 	bne $2,$20,400700 <turb3d_+0x488>
  4005d8:	a2 00 00 00 00 10 12 00 	lui $18,4096
  4005e0:	43 00 00 00 80 5f 12 12 	addiu $18,$18,24448
  4005e8:	42 00 00 00 00 04 12 00 	addu $4,$0,$18
  4005f0:	a2 00 00 00 21 10 11 00 	lui $17,4129
  4005f8:	43 00 00 00 80 5f 11 11 	addiu $17,$17,24448
  400600:	42 00 00 00 00 05 11 00 	addu $5,$0,$17
  400608:	a2 00 00 00 42 10 10 00 	lui $16,4162
  400610:	43 00 00 00 80 5f 10 10 	addiu $16,$16,24448
  400618:	42 00 00 00 00 06 10 00 	addu $6,$0,$16
  400620:	02 00 00 00 0e 0f 10 00 	jal 403c38 <tgvel_>
  400628:	42 00 00 00 00 04 12 00 	addu $4,$0,$18
  400630:	42 00 00 00 00 05 11 00 	addu $5,$0,$17
  400638:	42 00 00 00 00 06 10 00 	addu $6,$0,$16
  400640:	a2 00 00 00 63 10 07 00 	lui $7,4195
  400648:	43 00 00 00 80 5f 07 07 	addiu $7,$7,24448
  400650:	a2 00 00 00 84 10 02 00 	lui $2,4228
  400658:	43 00 00 00 80 5f 02 02 	addiu $2,$2,24448
  400660:	01 00 00 00 b6 01 10 00 	j 4006d8 <turb3d_+0x460>
  400668:	a2 00 00 00 c6 10 16 00 	lui $22,4294
  400670:	28 00 00 00 e4 5f 16 16 	lw $22,24548($22)
  400678:	43 00 00 00 01 00 14 00 	addiu $20,$0,1
  400680:	a2 00 00 00 00 10 04 00 	lui $4,4096
  400688:	43 00 00 00 80 5f 04 04 	addiu $4,$4,24448
  400690:	a2 00 00 00 21 10 05 00 	lui $5,4129
  400698:	43 00 00 00 80 5f 05 05 	addiu $5,$5,24448
  4006a0:	a2 00 00 00 42 10 06 00 	lui $6,4162
  4006a8:	43 00 00 00 80 5f 06 06 	addiu $6,$6,24448
  4006b0:	a2 00 00 00 63 10 07 00 	lui $7,4195
  4006b8:	43 00 00 00 80 5f 07 07 	addiu $7,$7,24448
  4006c0:	a2 00 00 00 84 10 02 00 	lui $2,4228
  4006c8:	43 00 00 00 80 5f 02 02 	addiu $2,$2,24448
  4006d0:	34 00 00 00 80 00 00 1d 	sw $0,128($29)
  4006d8:	34 00 00 00 10 00 02 1d 	sw $2,16($29)
  4006e0:	a2 00 00 00 a5 10 02 00 	lui $2,4261
  4006e8:	43 00 00 00 80 5f 02 02 	addiu $2,$2,24448
  4006f0:	34 00 00 00 14 00 02 1d 	sw $2,20($29)
  4006f8:	02 00 00 00 38 11 10 00 	jal 4044e0 <wcal_>
  400700:	43 00 00 00 28 00 04 1d 	addiu $4,$29,40
  400708:	a2 00 00 00 00 10 05 00 	lui $5,4096
  400710:	43 00 00 00 80 5f 05 05 	addiu $5,$5,24448
  400718:	43 00 00 00 00 80 10 1c 	addiu $16,$28,-32768
  400720:	42 00 00 00 00 06 10 00 	addu $6,$0,$16
  400728:	a2 00 00 00 c6 10 07 00 	lui $7,4294
  400730:	43 00 00 00 50 64 07 07 	addiu $7,$7,25680
  400738:	34 00 00 00 10 00 10 1d 	sw $16,16($29)
  400740:	02 00 00 00 36 13 10 00 	jal 404cd8 <dcopy_>
  400748:	43 00 00 00 28 00 04 1d 	addiu $4,$29,40
  400750:	a2 00 00 00 21 10 05 00 	lui $5,4129
  400758:	43 00 00 00 80 5f 05 05 	addiu $5,$5,24448
  400760:	42 00 00 00 00 06 10 00 	addu $6,$0,$16
  400768:	a2 00 00 00 e7 10 07 00 	lui $7,4327
  400770:	43 00 00 00 50 64 07 07 	addiu $7,$7,25680
  400778:	34 00 00 00 10 00 10 1d 	sw $16,16($29)
  400780:	02 00 00 00 36 13 10 00 	jal 404cd8 <dcopy_>
  400788:	43 00 00 00 28 00 04 1d 	addiu $4,$29,40
  400790:	a2 00 00 00 42 10 05 00 	lui $5,4162
  400798:	43 00 00 00 80 5f 05 05 	addiu $5,$5,24448
  4007a0:	42 00 00 00 00 06 10 00 	addu $6,$0,$16
  4007a8:	a2 00 00 00 08 11 07 00 	lui $7,4360
  4007b0:	43 00 00 00 50 64 07 07 	addiu $7,$7,25680
  4007b8:	34 00 00 00 10 00 06 1d 	sw $6,16($29)
  4007c0:	02 00 00 00 36 13 10 00 	jal 404cd8 <dcopy_>
  4007c8:	a2 00 00 00 c6 10 02 00 	lui $2,4294
  4007d0:	28 00 00 00 f4 5f 02 02 	lw $2,24564($2)
  4007d8:	28 00 00 00 80 00 03 1d 	lw $3,128($29)
  4007e0:	48 00 00 00 00 00 02 03 	div $0,$3,$2
  4007e8:	06 00 00 00 02 00 00 02 	bne $2,$0,4007f8 <turb3d_+0x580>
  4007f0:	a1 00 00 00 07 00 00 00 	break 
  4007f8:	43 00 00 00 ff ff 01 00 	addiu $1,$0,-1
  400800:	06 00 00 00 06 00 01 02 	bne $2,$1,400820 <turb3d_+0x5a8>
  400808:	a2 00 00 00 00 80 01 00 	lui $1,32768
  400810:	06 00 00 00 02 00 01 03 	bne $3,$1,400820 <turb3d_+0x5a8>
  400818:	a1 00 00 00 06 00 00 00 	break 
  400820:	4c 00 00 00 00 10 00 00 	mflo $16
  400828:	4a 00 00 00 00 02 00 00 	mfhi $2
  400830:	2b 00 00 00 40 80 02 1c 	l.d $f2,-32704($28)
  400838:	2b 00 00 00 68 00 00 1d 	l.d $f0,104($29)
  400840:	75 00 00 00 00 00 02 00 	mul.d $f0,$f0,$f2
  400848:	a2 00 00 00 c6 10 01 00 	lui $1,4294
  400850:	2b 00 00 00 c8 5f 02 01 	l.d $f2,24520($1)
  400858:	37 00 00 00 78 00 00 1d 	s.d $f0,120($29)
  400860:	37 00 00 00 70 00 02 1d 	s.d $f2,112($29)
  400868:	05 00 00 00 02 00 00 02 	beq $2,$0,400878 <turb3d_+0x600>
  400870:	06 00 00 00 86 00 00 03 	bne $3,$0,400a90 <turb3d_+0x818>
  400878:	a2 00 00 00 c6 10 03 00 	lui $3,4294
  400880:	28 00 00 00 fc 5f 03 03 	lw $3,24572($3)
  400888:	43 00 00 00 01 00 02 00 	addiu $2,$0,1
  400890:	06 00 00 00 7e 00 02 03 	bne $3,$2,400a90 <turb3d_+0x818>
  400898:	a2 00 00 00 00 10 04 00 	lui $4,4096
  4008a0:	43 00 00 00 80 5f 04 04 	addiu $4,$4,24448
  4008a8:	42 00 00 00 00 05 04 00 	addu $5,$0,$4
  4008b0:	43 00 00 00 08 80 06 1c 	addiu $6,$28,-32760
  4008b8:	43 00 00 00 30 00 07 1d 	addiu $7,$29,48
  4008c0:	02 00 00 00 62 14 10 00 	jal 405188 <enr_>
  4008c8:	a2 00 00 00 21 10 04 00 	lui $4,4129
  4008d0:	43 00 00 00 80 5f 04 04 	addiu $4,$4,24448
  4008d8:	42 00 00 00 00 05 04 00 	addu $5,$0,$4
  4008e0:	43 00 00 00 08 80 06 1c 	addiu $6,$28,-32760
  4008e8:	43 00 00 00 38 00 07 1d 	addiu $7,$29,56
  4008f0:	02 00 00 00 62 14 10 00 	jal 405188 <enr_>
  4008f8:	a2 00 00 00 42 10 04 00 	lui $4,4162
  400900:	43 00 00 00 80 5f 04 04 	addiu $4,$4,24448
  400908:	42 00 00 00 00 05 04 00 	addu $5,$0,$4
  400910:	43 00 00 00 08 80 06 1c 	addiu $6,$28,-32760
  400918:	43 00 00 00 40 00 07 1d 	addiu $7,$29,64
  400920:	02 00 00 00 62 14 10 00 	jal 405188 <enr_>
  400928:	a2 00 00 00 63 10 04 00 	lui $4,4195
  400930:	43 00 00 00 80 5f 04 04 	addiu $4,$4,24448
  400938:	42 00 00 00 00 05 04 00 	addu $5,$0,$4
  400940:	43 00 00 00 08 80 06 1c 	addiu $6,$28,-32760
  400948:	43 00 00 00 48 00 07 1d 	addiu $7,$29,72
  400950:	02 00 00 00 62 14 10 00 	jal 405188 <enr_>
  400958:	a2 00 00 00 84 10 04 00 	lui $4,4228
  400960:	43 00 00 00 80 5f 04 04 	addiu $4,$4,24448
  400968:	42 00 00 00 00 05 04 00 	addu $5,$0,$4
  400970:	43 00 00 00 08 80 06 1c 	addiu $6,$28,-32760
  400978:	43 00 00 00 50 00 07 1d 	addiu $7,$29,80
  400980:	02 00 00 00 62 14 10 00 	jal 405188 <enr_>
  400988:	a2 00 00 00 a5 10 04 00 	lui $4,4261
  400990:	43 00 00 00 80 5f 04 04 	addiu $4,$4,24448
  400998:	42 00 00 00 00 05 04 00 	addu $5,$0,$4
  4009a0:	43 00 00 00 08 80 06 1c 	addiu $6,$28,-32760
  4009a8:	43 00 00 00 58 00 07 1d 	addiu $7,$29,88
  4009b0:	02 00 00 00 62 14 10 00 	jal 405188 <enr_>
  4009b8:	2b 00 00 00 30 00 00 1d 	l.d $f0,48($29)
  4009c0:	55 00 00 00 03 04 10 00 	sll $4,$16,0x3
  4009c8:	a2 00 00 00 00 10 03 00 	lui $3,4096
  4009d0:	43 00 00 00 40 5d 03 03 	addiu $3,$3,23872
  4009d8:	a2 00 00 00 00 10 01 00 	lui $1,4096
  4009e0:	42 00 00 00 00 01 01 04 	addu $1,$4,$1
  4009e8:	37 00 00 00 40 5d 00 01 	s.d $f0,23872($1)
  4009f0:	2b 00 00 00 38 00 00 1d 	l.d $f0,56($29)
  4009f8:	43 00 00 00 60 00 02 03 	addiu $2,$3,96
  400a00:	42 00 00 00 00 02 02 04 	addu $2,$4,$2
  400a08:	37 00 00 00 00 00 00 02 	s.d $f0,0($2)
  400a10:	2b 00 00 00 40 00 00 1d 	l.d $f0,64($29)
  400a18:	43 00 00 00 c0 00 02 03 	addiu $2,$3,192
  400a20:	42 00 00 00 00 02 02 04 	addu $2,$4,$2
  400a28:	37 00 00 00 00 00 00 02 	s.d $f0,0($2)
  400a30:	2b 00 00 00 48 00 00 1d 	l.d $f0,72($29)
  400a38:	43 00 00 00 20 01 02 03 	addiu $2,$3,288
  400a40:	42 00 00 00 00 02 02 04 	addu $2,$4,$2
  400a48:	37 00 00 00 00 00 00 02 	s.d $f0,0($2)
  400a50:	2b 00 00 00 50 00 00 1d 	l.d $f0,80($29)
  400a58:	43 00 00 00 80 01 02 03 	addiu $2,$3,384
  400a60:	42 00 00 00 00 02 02 04 	addu $2,$4,$2
  400a68:	37 00 00 00 00 00 00 02 	s.d $f0,0($2)
  400a70:	2b 00 00 00 58 00 00 1d 	l.d $f0,88($29)
  400a78:	43 00 00 00 e0 01 03 03 	addiu $3,$3,480
  400a80:	42 00 00 00 00 04 03 04 	addu $4,$4,$3
  400a88:	37 00 00 00 00 00 00 04 	s.d $f0,0($4)
  400a90:	42 00 00 00 00 11 15 00 	addu $17,$0,$21
  400a98:	43 00 00 00 01 00 02 00 	addiu $2,$0,1
  400aa0:	34 00 00 00 60 00 02 1d 	sw $2,96($29)
  400aa8:	05 00 00 00 48 00 00 11 	beq $17,$0,400bd0 <turb3d_+0x958>
  400ab0:	43 00 00 00 60 00 10 1d 	addiu $16,$29,96
  400ab8:	42 00 00 00 00 04 10 00 	addu $4,$0,$16
  400ac0:	43 00 00 00 00 80 05 1c 	addiu $5,$28,-32768
  400ac8:	42 00 00 00 00 06 05 00 	addu $6,$0,$5
  400ad0:	42 00 00 00 00 07 05 00 	addu $7,$0,$5
  400ad8:	02 00 00 00 88 15 10 00 	jal 405620 <zfft_>
  400ae0:	42 00 00 00 00 04 10 00 	addu $4,$0,$16
  400ae8:	43 00 00 00 00 80 05 1c 	addiu $5,$28,-32768
  400af0:	43 00 00 00 10 80 06 1c 	addiu $6,$28,-32752
  400af8:	42 00 00 00 00 07 05 00 	addu $7,$0,$5
  400b00:	02 00 00 00 88 15 10 00 	jal 405620 <zfft_>
  400b08:	42 00 00 00 00 04 10 00 	addu $4,$0,$16
  400b10:	43 00 00 00 00 80 05 1c 	addiu $5,$28,-32768
  400b18:	43 00 00 00 14 80 06 1c 	addiu $6,$28,-32748
  400b20:	42 00 00 00 00 07 05 00 	addu $7,$0,$5
  400b28:	02 00 00 00 88 15 10 00 	jal 405620 <zfft_>
  400b30:	42 00 00 00 00 04 10 00 	addu $4,$0,$16
  400b38:	43 00 00 00 00 80 05 1c 	addiu $5,$28,-32768
  400b40:	43 00 00 00 18 80 06 1c 	addiu $6,$28,-32744
  400b48:	42 00 00 00 00 07 05 00 	addu $7,$0,$5
  400b50:	02 00 00 00 88 15 10 00 	jal 405620 <zfft_>
  400b58:	42 00 00 00 00 04 10 00 	addu $4,$0,$16
  400b60:	43 00 00 00 00 80 05 1c 	addiu $5,$28,-32768
  400b68:	43 00 00 00 1c 80 06 1c 	addiu $6,$28,-32740
  400b70:	42 00 00 00 00 07 05 00 	addu $7,$0,$5
  400b78:	02 00 00 00 88 15 10 00 	jal 405620 <zfft_>
  400b80:	42 00 00 00 00 04 10 00 	addu $4,$0,$16
  400b88:	43 00 00 00 00 80 05 1c 	addiu $5,$28,-32768
  400b90:	43 00 00 00 20 80 06 1c 	addiu $6,$28,-32736
  400b98:	42 00 00 00 00 07 05 00 	addu $7,$0,$5
  400ba0:	02 00 00 00 88 15 10 00 	jal 405620 <zfft_>
  400ba8:	28 00 00 00 60 00 02 1d 	lw $2,96($29)
  400bb0:	43 00 00 00 01 00 02 02 	addiu $2,$2,1
  400bb8:	34 00 00 00 60 00 02 1d 	sw $2,96($29)
  400bc0:	5b 00 00 00 00 02 02 11 	slt $2,$17,$2
  400bc8:	05 00 00 00 ba ff 00 02 	beq $2,$0,400ab8 <turb3d_+0x840>
  400bd0:	42 00 00 00 00 11 17 00 	addu $17,$0,$23
  400bd8:	43 00 00 00 01 00 02 00 	addiu $2,$0,1
  400be0:	34 00 00 00 64 00 02 1d 	sw $2,100($29)
  400be8:	05 00 00 00 48 00 00 11 	beq $17,$0,400d10 <turb3d_+0xa98>
  400bf0:	43 00 00 00 64 00 10 1d 	addiu $16,$29,100
  400bf8:	42 00 00 00 00 04 10 00 	addu $4,$0,$16
  400c00:	43 00 00 00 00 80 05 1c 	addiu $5,$28,-32768
  400c08:	42 00 00 00 00 06 05 00 	addu $6,$0,$5
  400c10:	42 00 00 00 00 07 05 00 	addu $7,$0,$5
  400c18:	02 00 00 00 6c 22 10 00 	jal 4089b0 <xyfft_>
  400c20:	42 00 00 00 00 04 10 00 	addu $4,$0,$16
  400c28:	43 00 00 00 00 80 05 1c 	addiu $5,$28,-32768
  400c30:	43 00 00 00 10 80 06 1c 	addiu $6,$28,-32752
  400c38:	42 00 00 00 00 07 05 00 	addu $7,$0,$5
  400c40:	02 00 00 00 6c 22 10 00 	jal 4089b0 <xyfft_>
  400c48:	42 00 00 00 00 04 10 00 	addu $4,$0,$16
  400c50:	43 00 00 00 00 80 05 1c 	addiu $5,$28,-32768
  400c58:	43 00 00 00 14 80 06 1c 	addiu $6,$28,-32748
  400c60:	42 00 00 00 00 07 05 00 	addu $7,$0,$5
  400c68:	02 00 00 00 6c 22 10 00 	jal 4089b0 <xyfft_>
  400c70:	42 00 00 00 00 04 10 00 	addu $4,$0,$16
  400c78:	43 00 00 00 00 80 05 1c 	addiu $5,$28,-32768
  400c80:	43 00 00 00 18 80 06 1c 	addiu $6,$28,-32744
  400c88:	42 00 00 00 00 07 05 00 	addu $7,$0,$5
  400c90:	02 00 00 00 6c 22 10 00 	jal 4089b0 <xyfft_>
  400c98:	42 00 00 00 00 04 10 00 	addu $4,$0,$16
  400ca0:	43 00 00 00 00 80 05 1c 	addiu $5,$28,-32768
  400ca8:	43 00 00 00 1c 80 06 1c 	addiu $6,$28,-32740
  400cb0:	42 00 00 00 00 07 05 00 	addu $7,$0,$5
  400cb8:	02 00 00 00 6c 22 10 00 	jal 4089b0 <xyfft_>
  400cc0:	42 00 00 00 00 04 10 00 	addu $4,$0,$16
  400cc8:	43 00 00 00 00 80 05 1c 	addiu $5,$28,-32768
  400cd0:	43 00 00 00 20 80 06 1c 	addiu $6,$28,-32736
  400cd8:	42 00 00 00 00 07 05 00 	addu $7,$0,$5
  400ce0:	02 00 00 00 6c 22 10 00 	jal 4089b0 <xyfft_>
  400ce8:	28 00 00 00 64 00 02 1d 	lw $2,100($29)
  400cf0:	43 00 00 00 01 00 02 02 	addiu $2,$2,1
  400cf8:	34 00 00 00 64 00 02 1d 	sw $2,100($29)
  400d00:	5b 00 00 00 00 02 02 11 	slt $2,$17,$2
  400d08:	05 00 00 00 ba ff 00 02 	beq $2,$0,400bf8 <turb3d_+0x980>
  400d10:	a2 00 00 00 00 10 04 00 	lui $4,4096
  400d18:	43 00 00 00 80 5f 04 04 	addiu $4,$4,24448
  400d20:	a2 00 00 00 21 10 05 00 	lui $5,4129
  400d28:	43 00 00 00 80 5f 05 05 	addiu $5,$5,24448
  400d30:	a2 00 00 00 42 10 06 00 	lui $6,4162
  400d38:	43 00 00 00 80 5f 06 06 	addiu $6,$6,24448
  400d40:	a2 00 00 00 63 10 07 00 	lui $7,4195
  400d48:	43 00 00 00 80 5f 07 07 	addiu $7,$7,24448
  400d50:	a2 00 00 00 84 10 02 00 	lui $2,4228
  400d58:	43 00 00 00 80 5f 02 02 	addiu $2,$2,24448
  400d60:	34 00 00 00 10 00 02 1d 	sw $2,16($29)
  400d68:	a2 00 00 00 a5 10 02 00 	lui $2,4261
  400d70:	43 00 00 00 80 5f 02 02 	addiu $2,$2,24448
  400d78:	34 00 00 00 14 00 02 1d 	sw $2,20($29)
  400d80:	02 00 00 00 5a 48 10 00 	jal 412168 <uxw_>
  400d88:	42 00 00 00 00 11 17 00 	addu $17,$0,$23
  400d90:	43 00 00 00 01 00 02 00 	addiu $2,$0,1
  400d98:	34 00 00 00 64 00 02 1d 	sw $2,100($29)
  400da0:	05 00 00 00 48 00 00 11 	beq $17,$0,400ec8 <turb3d_+0xc50>
  400da8:	43 00 00 00 64 00 10 1d 	addiu $16,$29,100
  400db0:	42 00 00 00 00 04 10 00 	addu $4,$0,$16
  400db8:	43 00 00 00 00 80 05 1c 	addiu $5,$28,-32768
  400dc0:	42 00 00 00 00 06 05 00 	addu $6,$0,$5
  400dc8:	43 00 00 00 24 80 07 1c 	addiu $7,$28,-32732
  400dd0:	02 00 00 00 6c 22 10 00 	jal 4089b0 <xyfft_>
  400dd8:	42 00 00 00 00 04 10 00 	addu $4,$0,$16
  400de0:	43 00 00 00 00 80 05 1c 	addiu $5,$28,-32768
  400de8:	43 00 00 00 10 80 06 1c 	addiu $6,$28,-32752
  400df0:	43 00 00 00 24 80 07 1c 	addiu $7,$28,-32732
  400df8:	02 00 00 00 6c 22 10 00 	jal 4089b0 <xyfft_>
  400e00:	42 00 00 00 00 04 10 00 	addu $4,$0,$16
  400e08:	43 00 00 00 00 80 05 1c 	addiu $5,$28,-32768
  400e10:	43 00 00 00 14 80 06 1c 	addiu $6,$28,-32748
  400e18:	43 00 00 00 24 80 07 1c 	addiu $7,$28,-32732
  400e20:	02 00 00 00 6c 22 10 00 	jal 4089b0 <xyfft_>
  400e28:	42 00 00 00 00 04 10 00 	addu $4,$0,$16
  400e30:	43 00 00 00 00 80 05 1c 	addiu $5,$28,-32768
  400e38:	43 00 00 00 18 80 06 1c 	addiu $6,$28,-32744
  400e40:	43 00 00 00 24 80 07 1c 	addiu $7,$28,-32732
  400e48:	02 00 00 00 6c 22 10 00 	jal 4089b0 <xyfft_>
  400e50:	42 00 00 00 00 04 10 00 	addu $4,$0,$16
  400e58:	43 00 00 00 00 80 05 1c 	addiu $5,$28,-32768
  400e60:	43 00 00 00 1c 80 06 1c 	addiu $6,$28,-32740
  400e68:	43 00 00 00 24 80 07 1c 	addiu $7,$28,-32732
  400e70:	02 00 00 00 6c 22 10 00 	jal 4089b0 <xyfft_>
  400e78:	42 00 00 00 00 04 10 00 	addu $4,$0,$16
  400e80:	43 00 00 00 00 80 05 1c 	addiu $5,$28,-32768
  400e88:	43 00 00 00 20 80 06 1c 	addiu $6,$28,-32736
  400e90:	43 00 00 00 24 80 07 1c 	addiu $7,$28,-32732
  400e98:	02 00 00 00 6c 22 10 00 	jal 4089b0 <xyfft_>
  400ea0:	28 00 00 00 64 00 02 1d 	lw $2,100($29)
  400ea8:	43 00 00 00 01 00 02 02 	addiu $2,$2,1
  400eb0:	34 00 00 00 64 00 02 1d 	sw $2,100($29)
  400eb8:	5b 00 00 00 00 02 02 11 	slt $2,$17,$2
  400ec0:	05 00 00 00 ba ff 00 02 	beq $2,$0,400db0 <turb3d_+0xb38>
  400ec8:	42 00 00 00 00 11 15 00 	addu $17,$0,$21
  400ed0:	43 00 00 00 01 00 02 00 	addiu $2,$0,1
  400ed8:	34 00 00 00 60 00 02 1d 	sw $2,96($29)
  400ee0:	05 00 00 00 48 00 00 11 	beq $17,$0,401008 <turb3d_+0xd90>
  400ee8:	43 00 00 00 60 00 10 1d 	addiu $16,$29,96
  400ef0:	42 00 00 00 00 04 10 00 	addu $4,$0,$16
  400ef8:	43 00 00 00 00 80 05 1c 	addiu $5,$28,-32768
  400f00:	42 00 00 00 00 06 05 00 	addu $6,$0,$5
  400f08:	43 00 00 00 24 80 07 1c 	addiu $7,$28,-32732
  400f10:	02 00 00 00 88 15 10 00 	jal 405620 <zfft_>
  400f18:	42 00 00 00 00 04 10 00 	addu $4,$0,$16
  400f20:	43 00 00 00 00 80 05 1c 	addiu $5,$28,-32768
  400f28:	43 00 00 00 10 80 06 1c 	addiu $6,$28,-32752
  400f30:	43 00 00 00 24 80 07 1c 	addiu $7,$28,-32732
  400f38:	02 00 00 00 88 15 10 00 	jal 405620 <zfft_>
  400f40:	42 00 00 00 00 04 10 00 	addu $4,$0,$16
  400f48:	43 00 00 00 00 80 05 1c 	addiu $5,$28,-32768
  400f50:	43 00 00 00 14 80 06 1c 	addiu $6,$28,-32748
  400f58:	43 00 00 00 24 80 07 1c 	addiu $7,$28,-32732
  400f60:	02 00 00 00 88 15 10 00 	jal 405620 <zfft_>
  400f68:	42 00 00 00 00 04 10 00 	addu $4,$0,$16
  400f70:	43 00 00 00 00 80 05 1c 	addiu $5,$28,-32768
  400f78:	43 00 00 00 18 80 06 1c 	addiu $6,$28,-32744
  400f80:	43 00 00 00 24 80 07 1c 	addiu $7,$28,-32732
  400f88:	02 00 00 00 88 15 10 00 	jal 405620 <zfft_>
  400f90:	42 00 00 00 00 04 10 00 	addu $4,$0,$16
  400f98:	43 00 00 00 00 80 05 1c 	addiu $5,$28,-32768
  400fa0:	43 00 00 00 1c 80 06 1c 	addiu $6,$28,-32740
  400fa8:	43 00 00 00 24 80 07 1c 	addiu $7,$28,-32732
  400fb0:	02 00 00 00 88 15 10 00 	jal 405620 <zfft_>
  400fb8:	42 00 00 00 00 04 10 00 	addu $4,$0,$16
  400fc0:	43 00 00 00 00 80 05 1c 	addiu $5,$28,-32768
  400fc8:	43 00 00 00 20 80 06 1c 	addiu $6,$28,-32736
  400fd0:	43 00 00 00 24 80 07 1c 	addiu $7,$28,-32732
  400fd8:	02 00 00 00 88 15 10 00 	jal 405620 <zfft_>
  400fe0:	28 00 00 00 60 00 02 1d 	lw $2,96($29)
  400fe8:	43 00 00 00 01 00 02 02 	addiu $2,$2,1
  400ff0:	34 00 00 00 60 00 02 1d 	sw $2,96($29)
  400ff8:	5b 00 00 00 00 02 02 11 	slt $2,$17,$2
  401000:	05 00 00 00 ba ff 00 02 	beq $2,$0,400ef0 <turb3d_+0xc78>
  401008:	28 00 00 00 80 00 02 1d 	lw $2,128($29)
  401010:	4f 00 00 00 01 00 02 02 	andi $2,$2,1
  401018:	06 00 00 00 5c 00 00 02 	bne $2,$0,401190 <turb3d_+0xf18>
  401020:	43 00 00 00 28 00 04 1d 	addiu $4,$29,40
  401028:	a2 00 00 00 00 10 13 00 	lui $19,4096
  401030:	43 00 00 00 80 5f 13 13 	addiu $19,$19,24448
  401038:	42 00 00 00 00 05 13 00 	addu $5,$0,$19
  401040:	43 00 00 00 00 80 10 1c 	addiu $16,$28,-32768
  401048:	42 00 00 00 00 06 10 00 	addu $6,$0,$16
  401050:	a2 00 00 00 29 11 07 00 	lui $7,4393
  401058:	43 00 00 00 50 64 07 07 	addiu $7,$7,25680
  401060:	34 00 00 00 10 00 10 1d 	sw $16,16($29)
  401068:	02 00 00 00 36 13 10 00 	jal 404cd8 <dcopy_>
  401070:	43 00 00 00 28 00 04 1d 	addiu $4,$29,40
  401078:	a2 00 00 00 21 10 12 00 	lui $18,4129
  401080:	43 00 00 00 80 5f 12 12 	addiu $18,$18,24448
  401088:	42 00 00 00 00 05 12 00 	addu $5,$0,$18
  401090:	42 00 00 00 00 06 10 00 	addu $6,$0,$16
  401098:	a2 00 00 00 4a 11 07 00 	lui $7,4426
  4010a0:	43 00 00 00 50 64 07 07 	addiu $7,$7,25680
  4010a8:	34 00 00 00 10 00 10 1d 	sw $16,16($29)
  4010b0:	02 00 00 00 36 13 10 00 	jal 404cd8 <dcopy_>
  4010b8:	43 00 00 00 28 00 04 1d 	addiu $4,$29,40
  4010c0:	a2 00 00 00 42 10 11 00 	lui $17,4162
  4010c8:	43 00 00 00 80 5f 11 11 	addiu $17,$17,24448
  4010d0:	42 00 00 00 00 05 11 00 	addu $5,$0,$17
  4010d8:	42 00 00 00 00 06 10 00 	addu $6,$0,$16
  4010e0:	a2 00 00 00 6b 11 07 00 	lui $7,4459
  4010e8:	43 00 00 00 50 64 07 07 	addiu $7,$7,25680
  4010f0:	34 00 00 00 10 00 10 1d 	sw $16,16($29)
  4010f8:	02 00 00 00 36 13 10 00 	jal 404cd8 <dcopy_>
  401100:	43 00 00 00 28 00 04 1d 	addiu $4,$29,40
  401108:	a2 00 00 00 c6 10 05 00 	lui $5,4294
  401110:	43 00 00 00 50 64 05 05 	addiu $5,$5,25680
  401118:	42 00 00 00 00 06 10 00 	addu $6,$0,$16
  401120:	42 00 00 00 00 07 13 00 	addu $7,$0,$19
  401128:	34 00 00 00 10 00 10 1d 	sw $16,16($29)
  401130:	02 00 00 00 36 13 10 00 	jal 404cd8 <dcopy_>
  401138:	43 00 00 00 28 00 04 1d 	addiu $4,$29,40
  401140:	a2 00 00 00 e7 10 05 00 	lui $5,4327
  401148:	43 00 00 00 50 64 05 05 	addiu $5,$5,25680
  401150:	42 00 00 00 00 06 10 00 	addu $6,$0,$16
  401158:	42 00 00 00 00 07 12 00 	addu $7,$0,$18
  401160:	34 00 00 00 10 00 10 1d 	sw $16,16($29)
  401168:	02 00 00 00 36 13 10 00 	jal 404cd8 <dcopy_>
  401170:	43 00 00 00 28 00 04 1d 	addiu $4,$29,40
  401178:	a2 00 00 00 08 11 05 00 	lui $5,4360
  401180:	43 00 00 00 50 64 05 05 	addiu $5,$5,25680
  401188:	01 00 00 00 be 04 10 00 	j 4012f8 <turb3d_+0x1080>
  401190:	43 00 00 00 28 00 04 1d 	addiu $4,$29,40
  401198:	a2 00 00 00 00 10 13 00 	lui $19,4096
  4011a0:	43 00 00 00 80 5f 13 13 	addiu $19,$19,24448
  4011a8:	42 00 00 00 00 05 13 00 	addu $5,$0,$19
  4011b0:	43 00 00 00 00 80 10 1c 	addiu $16,$28,-32768
  4011b8:	42 00 00 00 00 06 10 00 	addu $6,$0,$16
  4011c0:	a2 00 00 00 c6 10 07 00 	lui $7,4294
  4011c8:	43 00 00 00 50 64 07 07 	addiu $7,$7,25680
  4011d0:	34 00 00 00 10 00 10 1d 	sw $16,16($29)
  4011d8:	02 00 00 00 36 13 10 00 	jal 404cd8 <dcopy_>
  4011e0:	43 00 00 00 28 00 04 1d 	addiu $4,$29,40
  4011e8:	a2 00 00 00 21 10 12 00 	lui $18,4129
  4011f0:	43 00 00 00 80 5f 12 12 	addiu $18,$18,24448
  4011f8:	42 00 00 00 00 05 12 00 	addu $5,$0,$18
  401200:	42 00 00 00 00 06 10 00 	addu $6,$0,$16
  401208:	a2 00 00 00 e7 10 07 00 	lui $7,4327
  401210:	43 00 00 00 50 64 07 07 	addiu $7,$7,25680
  401218:	34 00 00 00 10 00 10 1d 	sw $16,16($29)
  401220:	02 00 00 00 36 13 10 00 	jal 404cd8 <dcopy_>
  401228:	43 00 00 00 28 00 04 1d 	addiu $4,$29,40
  401230:	a2 00 00 00 42 10 11 00 	lui $17,4162
  401238:	43 00 00 00 80 5f 11 11 	addiu $17,$17,24448
  401240:	42 00 00 00 00 05 11 00 	addu $5,$0,$17
  401248:	42 00 00 00 00 06 10 00 	addu $6,$0,$16
  401250:	a2 00 00 00 08 11 07 00 	lui $7,4360
  401258:	43 00 00 00 50 64 07 07 	addiu $7,$7,25680
  401260:	34 00 00 00 10 00 10 1d 	sw $16,16($29)
  401268:	02 00 00 00 36 13 10 00 	jal 404cd8 <dcopy_>
  401270:	43 00 00 00 28 00 04 1d 	addiu $4,$29,40
  401278:	a2 00 00 00 29 11 05 00 	lui $5,4393
  401280:	43 00 00 00 50 64 05 05 	addiu $5,$5,25680
  401288:	42 00 00 00 00 06 10 00 	addu $6,$0,$16
  401290:	42 00 00 00 00 07 13 00 	addu $7,$0,$19
  401298:	34 00 00 00 10 00 10 1d 	sw $16,16($29)
  4012a0:	02 00 00 00 36 13 10 00 	jal 404cd8 <dcopy_>
  4012a8:	43 00 00 00 28 00 04 1d 	addiu $4,$29,40
  4012b0:	a2 00 00 00 4a 11 05 00 	lui $5,4426
  4012b8:	43 00 00 00 50 64 05 05 	addiu $5,$5,25680
  4012c0:	42 00 00 00 00 06 10 00 	addu $6,$0,$16
  4012c8:	42 00 00 00 00 07 12 00 	addu $7,$0,$18
  4012d0:	34 00 00 00 10 00 10 1d 	sw $16,16($29)
  4012d8:	02 00 00 00 36 13 10 00 	jal 404cd8 <dcopy_>
  4012e0:	43 00 00 00 28 00 04 1d 	addiu $4,$29,40
  4012e8:	a2 00 00 00 6b 11 05 00 	lui $5,4459
  4012f0:	43 00 00 00 50 64 05 05 	addiu $5,$5,25680
  4012f8:	42 00 00 00 00 06 10 00 	addu $6,$0,$16
  401300:	42 00 00 00 00 07 11 00 	addu $7,$0,$17
  401308:	34 00 00 00 10 00 06 1d 	sw $6,16($29)
  401310:	02 00 00 00 36 13 10 00 	jal 404cd8 <dcopy_>
  401318:	a2 00 00 00 c6 10 02 00 	lui $2,4294
  401320:	28 00 00 00 e8 5f 02 02 	lw $2,24552($2)
  401328:	06 00 00 00 b2 00 02 14 	bne $20,$2,4015f8 <turb3d_+0x1380>
  401330:	a2 00 00 00 00 10 11 00 	lui $17,4096
  401338:	43 00 00 00 80 5f 11 11 	addiu $17,$17,24448
  401340:	42 00 00 00 00 04 11 00 	addu $4,$0,$17
  401348:	a2 00 00 00 21 10 12 00 	lui $18,4129
  401350:	43 00 00 00 80 5f 12 12 	addiu $18,$18,24448
  401358:	42 00 00 00 00 05 12 00 	addu $5,$0,$18
  401360:	a2 00 00 00 42 10 13 00 	lui $19,4162
  401368:	43 00 00 00 80 5f 13 13 	addiu $19,$19,24448
  401370:	42 00 00 00 00 06 13 00 	addu $6,$0,$19
  401378:	a2 00 00 00 63 10 07 00 	lui $7,4195
  401380:	43 00 00 00 80 5f 07 07 	addiu $7,$7,24448
  401388:	a2 00 00 00 84 10 02 00 	lui $2,4228
  401390:	43 00 00 00 80 5f 02 02 	addiu $2,$2,24448
  401398:	34 00 00 00 10 00 02 1d 	sw $2,16($29)
  4013a0:	a2 00 00 00 a5 10 02 00 	lui $2,4261
  4013a8:	43 00 00 00 80 5f 02 02 	addiu $2,$2,24448
  4013b0:	34 00 00 00 14 00 02 1d 	sw $2,20($29)
  4013b8:	43 00 00 00 68 00 02 1d 	addiu $2,$29,104
  4013c0:	34 00 00 00 18 00 02 1d 	sw $2,24($29)
  4013c8:	43 00 00 00 70 00 02 1d 	addiu $2,$29,112
  4013d0:	34 00 00 00 1c 00 02 1d 	sw $2,28($29)
  4013d8:	43 00 00 00 78 00 02 1d 	addiu $2,$29,120
  4013e0:	34 00 00 00 20 00 02 1d 	sw $2,32($29)
  4013e8:	02 00 00 00 cc 49 10 00 	jal 412730 <linavg_>
  4013f0:	28 00 00 00 80 00 02 1d 	lw $2,128($29)
  4013f8:	4f 00 00 00 01 00 02 02 	andi $2,$2,1
  401400:	06 00 00 00 26 00 00 02 	bne $2,$0,4014a0 <turb3d_+0x1228>
  401408:	43 00 00 00 28 00 04 1d 	addiu $4,$29,40
  401410:	a2 00 00 00 29 11 05 00 	lui $5,4393
  401418:	43 00 00 00 50 64 05 05 	addiu $5,$5,25680
  401420:	43 00 00 00 00 80 10 1c 	addiu $16,$28,-32768
  401428:	42 00 00 00 00 06 10 00 	addu $6,$0,$16
  401430:	42 00 00 00 00 07 11 00 	addu $7,$0,$17
  401438:	34 00 00 00 10 00 10 1d 	sw $16,16($29)
  401440:	02 00 00 00 36 13 10 00 	jal 404cd8 <dcopy_>
  401448:	43 00 00 00 28 00 04 1d 	addiu $4,$29,40
  401450:	a2 00 00 00 4a 11 05 00 	lui $5,4426
  401458:	43 00 00 00 50 64 05 05 	addiu $5,$5,25680
  401460:	42 00 00 00 00 06 10 00 	addu $6,$0,$16
  401468:	42 00 00 00 00 07 12 00 	addu $7,$0,$18
  401470:	34 00 00 00 10 00 10 1d 	sw $16,16($29)
  401478:	02 00 00 00 36 13 10 00 	jal 404cd8 <dcopy_>
  401480:	43 00 00 00 28 00 04 1d 	addiu $4,$29,40
  401488:	a2 00 00 00 6b 11 05 00 	lui $5,4459
  401490:	43 00 00 00 50 64 05 05 	addiu $5,$5,25680
  401498:	01 00 00 00 4c 05 10 00 	j 401530 <turb3d_+0x12b8>
  4014a0:	43 00 00 00 28 00 04 1d 	addiu $4,$29,40
  4014a8:	a2 00 00 00 c6 10 05 00 	lui $5,4294
  4014b0:	43 00 00 00 50 64 05 05 	addiu $5,$5,25680
  4014b8:	43 00 00 00 00 80 10 1c 	addiu $16,$28,-32768
  4014c0:	42 00 00 00 00 06 10 00 	addu $6,$0,$16
  4014c8:	42 00 00 00 00 07 11 00 	addu $7,$0,$17
  4014d0:	34 00 00 00 10 00 10 1d 	sw $16,16($29)
  4014d8:	02 00 00 00 36 13 10 00 	jal 404cd8 <dcopy_>
  4014e0:	43 00 00 00 28 00 04 1d 	addiu $4,$29,40
  4014e8:	a2 00 00 00 e7 10 05 00 	lui $5,4327
  4014f0:	43 00 00 00 50 64 05 05 	addiu $5,$5,25680
  4014f8:	42 00 00 00 00 06 10 00 	addu $6,$0,$16
  401500:	42 00 00 00 00 07 12 00 	addu $7,$0,$18
  401508:	34 00 00 00 10 00 10 1d 	sw $16,16($29)
  401510:	02 00 00 00 36 13 10 00 	jal 404cd8 <dcopy_>
  401518:	43 00 00 00 28 00 04 1d 	addiu $4,$29,40
  401520:	a2 00 00 00 08 11 05 00 	lui $5,4360
  401528:	43 00 00 00 50 64 05 05 	addiu $5,$5,25680
  401530:	42 00 00 00 00 06 10 00 	addu $6,$0,$16
  401538:	42 00 00 00 00 07 13 00 	addu $7,$0,$19
  401540:	34 00 00 00 10 00 06 1d 	sw $6,16($29)
  401548:	02 00 00 00 36 13 10 00 	jal 404cd8 <dcopy_>
  401550:	a2 00 00 00 00 10 04 00 	lui $4,4096
  401558:	43 00 00 00 80 5f 04 04 	addiu $4,$4,24448
  401560:	a2 00 00 00 21 10 05 00 	lui $5,4129
  401568:	43 00 00 00 80 5f 05 05 	addiu $5,$5,24448
  401570:	a2 00 00 00 42 10 06 00 	lui $6,4162
  401578:	43 00 00 00 80 5f 06 06 	addiu $6,$6,24448
  401580:	a2 00 00 00 63 10 07 00 	lui $7,4195
  401588:	43 00 00 00 80 5f 07 07 	addiu $7,$7,24448
  401590:	a2 00 00 00 84 10 02 00 	lui $2,4228
  401598:	43 00 00 00 80 5f 02 02 	addiu $2,$2,24448
  4015a0:	34 00 00 00 10 00 02 1d 	sw $2,16($29)
  4015a8:	a2 00 00 00 a5 10 02 00 	lui $2,4261
  4015b0:	43 00 00 00 80 5f 02 02 	addiu $2,$2,24448
  4015b8:	34 00 00 00 14 00 02 1d 	sw $2,20($29)
  4015c0:	02 00 00 00 60 4d 10 00 	jal 413580 <mixavg_>
  4015c8:	a2 00 00 00 c6 10 01 00 	lui $1,4294
  4015d0:	2b 00 00 00 d0 5f 00 01 	l.d $f0,24528($1)
  4015d8:	71 00 00 00 00 00 00 00 	add.d $f0,$f0,$f0
  4015e0:	43 00 00 00 01 00 14 14 	addiu $20,$20,1
  4015e8:	37 00 00 00 68 00 00 1d 	s.d $f0,104($29)
  4015f0:	01 00 00 00 f2 01 10 00 	j 4007c8 <turb3d_+0x550>
  4015f8:	a2 00 00 00 00 10 04 00 	lui $4,4096
  401600:	43 00 00 00 80 5f 04 04 	addiu $4,$4,24448
  401608:	a2 00 00 00 21 10 05 00 	lui $5,4129
  401610:	43 00 00 00 80 5f 05 05 	addiu $5,$5,24448
  401618:	a2 00 00 00 42 10 06 00 	lui $6,4162
  401620:	43 00 00 00 80 5f 06 06 	addiu $6,$6,24448
  401628:	a2 00 00 00 63 10 07 00 	lui $7,4195
  401630:	43 00 00 00 80 5f 07 07 	addiu $7,$7,24448
  401638:	a2 00 00 00 84 10 02 00 	lui $2,4228
  401640:	43 00 00 00 80 5f 02 02 	addiu $2,$2,24448
  401648:	34 00 00 00 10 00 02 1d 	sw $2,16($29)
  401650:	a2 00 00 00 a5 10 02 00 	lui $2,4261
  401658:	43 00 00 00 80 5f 02 02 	addiu $2,$2,24448
  401660:	34 00 00 00 14 00 02 1d 	sw $2,20($29)
  401668:	43 00 00 00 68 00 02 1d 	addiu $2,$29,104
  401670:	34 00 00 00 18 00 02 1d 	sw $2,24($29)
  401678:	43 00 00 00 70 00 02 1d 	addiu $2,$29,112
  401680:	34 00 00 00 1c 00 02 1d 	sw $2,28($29)
  401688:	43 00 00 00 78 00 02 1d 	addiu $2,$29,120
  401690:	34 00 00 00 20 00 02 1d 	sw $2,32($29)
  401698:	02 00 00 00 26 50 10 00 	jal 414098 <lin_>
  4016a0:	a2 00 00 00 c6 10 02 00 	lui $2,4294
  4016a8:	28 00 00 00 f4 5f 02 02 	lw $2,24564($2)
  4016b0:	28 00 00 00 80 00 04 1d 	lw $4,128($29)
  4016b8:	48 00 00 00 00 00 02 04 	div $0,$4,$2
  4016c0:	06 00 00 00 02 00 00 02 	bne $2,$0,4016d0 <turb3d_+0x1458>
  4016c8:	a1 00 00 00 07 00 00 00 	break 
  4016d0:	43 00 00 00 ff ff 01 00 	addiu $1,$0,-1
  4016d8:	06 00 00 00 06 00 01 02 	bne $2,$1,4016f8 <turb3d_+0x1480>
  4016e0:	a2 00 00 00 00 80 01 00 	lui $1,32768
  4016e8:	06 00 00 00 02 00 01 04 	bne $4,$1,4016f8 <turb3d_+0x1480>
  4016f0:	a1 00 00 00 06 00 00 00 	break 
  4016f8:	4a 00 00 00 00 03 00 00 	mfhi $3
  401700:	05 00 00 00 02 00 00 03 	beq $3,$0,401710 <turb3d_+0x1498>
  401708:	06 00 00 00 60 00 00 04 	bne $4,$0,401890 <turb3d_+0x1618>
  401710:	a2 00 00 00 c6 10 03 00 	lui $3,4294
  401718:	28 00 00 00 fc 5f 03 03 	lw $3,24572($3)
  401720:	43 00 00 00 01 00 02 00 	addiu $2,$0,1
  401728:	06 00 00 00 58 00 02 03 	bne $3,$2,401890 <turb3d_+0x1618>
  401730:	a2 00 00 00 00 10 04 00 	lui $4,4096
  401738:	43 00 00 00 54 26 04 04 	addiu $4,$4,9812
  401740:	02 00 00 00 c8 6c 10 00 	jal 41b320 <s_wsfe>
  401748:	43 00 00 00 00 80 04 1c 	addiu $4,$28,-32768
  401750:	43 00 00 00 80 00 05 1d 	addiu $5,$29,128
  401758:	43 00 00 00 04 00 06 00 	addiu $6,$0,4
  401760:	02 00 00 00 1c 7a 10 00 	jal 41e870 <do_fio>
  401768:	43 00 00 00 00 80 04 1c 	addiu $4,$28,-32768
  401770:	43 00 00 00 88 00 05 1d 	addiu $5,$29,136
  401778:	43 00 00 00 08 00 06 00 	addiu $6,$0,8
  401780:	02 00 00 00 1c 7a 10 00 	jal 41e870 <do_fio>
  401788:	02 00 00 00 0e 6e 10 00 	jal 41b838 <e_wsfe>
  401790:	a2 00 00 00 00 10 04 00 	lui $4,4096
  401798:	43 00 00 00 68 26 04 04 	addiu $4,$4,9832
  4017a0:	02 00 00 00 c8 6c 10 00 	jal 41b320 <s_wsfe>
  4017a8:	43 00 00 00 00 80 04 1c 	addiu $4,$28,-32768
  4017b0:	43 00 00 00 30 00 05 1d 	addiu $5,$29,48
  4017b8:	43 00 00 00 08 00 06 00 	addiu $6,$0,8
  4017c0:	02 00 00 00 1c 7a 10 00 	jal 41e870 <do_fio>
  4017c8:	43 00 00 00 00 80 04 1c 	addiu $4,$28,-32768
  4017d0:	43 00 00 00 38 00 05 1d 	addiu $5,$29,56
  4017d8:	43 00 00 00 08 00 06 00 	addiu $6,$0,8
  4017e0:	02 00 00 00 1c 7a 10 00 	jal 41e870 <do_fio>
  4017e8:	43 00 00 00 00 80 04 1c 	addiu $4,$28,-32768
  4017f0:	43 00 00 00 40 00 05 1d 	addiu $5,$29,64
  4017f8:	43 00 00 00 08 00 06 00 	addiu $6,$0,8
  401800:	02 00 00 00 1c 7a 10 00 	jal 41e870 <do_fio>
  401808:	02 00 00 00 0e 6e 10 00 	jal 41b838 <e_wsfe>
  401810:	a2 00 00 00 00 10 04 00 	lui $4,4096
  401818:	43 00 00 00 7c 26 04 04 	addiu $4,$4,9852
  401820:	02 00 00 00 c8 6c 10 00 	jal 41b320 <s_wsfe>
  401828:	43 00 00 00 00 80 04 1c 	addiu $4,$28,-32768
  401830:	43 00 00 00 48 00 05 1d 	addiu $5,$29,72
  401838:	43 00 00 00 08 00 06 00 	addiu $6,$0,8
  401840:	02 00 00 00 1c 7a 10 00 	jal 41e870 <do_fio>
  401848:	43 00 00 00 00 80 04 1c 	addiu $4,$28,-32768
  401850:	43 00 00 00 50 00 05 1d 	addiu $5,$29,80
  401858:	43 00 00 00 08 00 06 00 	addiu $6,$0,8
  401860:	02 00 00 00 1c 7a 10 00 	jal 41e870 <do_fio>
  401868:	43 00 00 00 00 80 04 1c 	addiu $4,$28,-32768
  401870:	43 00 00 00 58 00 05 1d 	addiu $5,$29,88
  401878:	43 00 00 00 08 00 06 00 	addiu $6,$0,8
  401880:	02 00 00 00 1c 7a 10 00 	jal 41e870 <do_fio>
  401888:	02 00 00 00 0e 6e 10 00 	jal 41b838 <e_wsfe>
  401890:	28 00 00 00 80 00 03 1d 	lw $3,128($29)
  401898:	a2 00 00 00 c6 10 02 00 	lui $2,4294
  4018a0:	28 00 00 00 e8 5f 02 02 	lw $2,24552($2)
  4018a8:	43 00 00 00 01 00 04 03 	addiu $4,$3,1
  4018b0:	48 00 00 00 00 00 02 04 	div $0,$4,$2
  4018b8:	06 00 00 00 02 00 00 02 	bne $2,$0,4018c8 <turb3d_+0x1650>
  4018c0:	a1 00 00 00 07 00 00 00 	break 
  4018c8:	43 00 00 00 ff ff 01 00 	addiu $1,$0,-1
  4018d0:	06 00 00 00 06 00 01 02 	bne $2,$1,4018f0 <turb3d_+0x1678>
  4018d8:	a2 00 00 00 00 80 01 00 	lui $1,32768
  4018e0:	06 00 00 00 02 00 01 04 	bne $4,$1,4018f0 <turb3d_+0x1678>
  4018e8:	a1 00 00 00 06 00 00 00 	break 
  4018f0:	4a 00 00 00 00 03 00 00 	mfhi $3
  4018f8:	2b 00 00 00 88 00 02 1d 	l.d $f2,136($29)
  401900:	a2 00 00 00 c6 10 01 00 	lui $1,4294
  401908:	2b 00 00 00 d0 5f 00 01 	l.d $f0,24528($1)
  401910:	71 00 00 00 00 02 00 02 	add.d $f2,$f2,$f0
  401918:	71 00 00 00 00 00 00 00 	add.d $f0,$f0,$f0
  401920:	43 00 00 00 01 00 14 14 	addiu $20,$20,1
  401928:	34 00 00 00 80 00 04 1d 	sw $4,128($29)
  401930:	37 00 00 00 88 00 02 1d 	s.d $f2,136($29)
  401938:	37 00 00 00 68 00 00 1d 	s.d $f0,104($29)
  401940:	06 00 00 00 02 00 00 03 	bne $3,$0,401950 <turb3d_+0x16d8>
  401948:	43 00 00 00 01 00 14 00 	addiu $20,$0,1
  401950:	5b 00 00 00 00 02 16 04 	slt $2,$4,$22
  401958:	06 00 00 00 9a fb 00 02 	bne $2,$0,4007c8 <turb3d_+0x550>
  401960:	34 00 00 00 90 00 00 1d 	sw $0,144($29)
  401968:	43 00 00 00 01 00 0c 00 	addiu $12,$0,1
  401970:	a2 00 00 00 c6 10 0b 00 	lui $11,4294
  401978:	43 00 00 00 20 60 0b 0b 	addiu $11,$11,24608
  401980:	28 00 00 00 00 00 03 0b 	lw $3,0($11)
  401988:	28 00 00 00 04 00 04 0b 	lw $4,4($11)
  401990:	28 00 00 00 08 00 05 0b 	lw $5,8($11)
  401998:	28 00 00 00 0c 00 06 0b 	lw $6,12($11)
  4019a0:	28 00 00 00 10 00 07 0b 	lw $7,16($11)
  4019a8:	28 00 00 00 14 00 08 0b 	lw $8,20($11)
  4019b0:	28 00 00 00 18 00 09 0b 	lw $9,24($11)
  4019b8:	28 00 00 00 1c 00 0a 0b 	lw $10,28($11)
  4019c0:	28 00 00 00 90 00 02 1d 	lw $2,144($29)
  4019c8:	43 00 00 00 08 00 0c 0c 	addiu $12,$12,8
  4019d0:	43 00 00 00 20 00 0b 0b 	addiu $11,$11,32
  4019d8:	42 00 00 00 00 02 03 02 	addu $2,$2,$3
  4019e0:	34 00 00 00 90 00 02 1d 	sw $2,144($29)
  4019e8:	42 00 00 00 00 02 04 02 	addu $2,$2,$4
  4019f0:	34 00 00 00 90 00 02 1d 	sw $2,144($29)
  4019f8:	42 00 00 00 00 02 05 02 	addu $2,$2,$5
  401a00:	34 00 00 00 90 00 02 1d 	sw $2,144($29)
  401a08:	42 00 00 00 00 02 06 02 	addu $2,$2,$6
  401a10:	34 00 00 00 90 00 02 1d 	sw $2,144($29)
  401a18:	42 00 00 00 00 02 07 02 	addu $2,$2,$7
  401a20:	34 00 00 00 90 00 02 1d 	sw $2,144($29)
  401a28:	42 00 00 00 00 02 08 02 	addu $2,$2,$8
  401a30:	34 00 00 00 90 00 02 1d 	sw $2,144($29)
  401a38:	42 00 00 00 00 02 09 02 	addu $2,$2,$9
  401a40:	34 00 00 00 90 00 02 1d 	sw $2,144($29)
  401a48:	42 00 00 00 00 02 0a 02 	addu $2,$2,$10
  401a50:	34 00 00 00 90 00 02 1d 	sw $2,144($29)
  401a58:	5c 00 00 00 01 01 02 0c 	slti $2,$12,257
  401a60:	06 00 00 00 c6 ff 00 02 	bne $2,$0,401980 <turb3d_+0x1708>
  401a68:	a2 00 00 00 00 10 04 00 	lui $4,4096
  401a70:	43 00 00 00 90 26 04 04 	addiu $4,$4,9872
  401a78:	02 00 00 00 c8 6c 10 00 	jal 41b320 <s_wsfe>
  401a80:	43 00 00 00 00 80 04 1c 	addiu $4,$28,-32768
  401a88:	43 00 00 00 90 00 05 1d 	addiu $5,$29,144
  401a90:	43 00 00 00 04 00 06 00 	addiu $6,$0,4
  401a98:	02 00 00 00 1c 7a 10 00 	jal 41e870 <do_fio>
  401aa0:	02 00 00 00 0e 6e 10 00 	jal 41b838 <e_wsfe>
  401aa8:	42 00 00 00 00 02 00 00 	addu $2,$0,$0
  401ab0:	28 00 00 00 c0 00 1f 1d 	lw $31,192($29)
  401ab8:	28 00 00 00 bc 00 17 1d 	lw $23,188($29)
  401ac0:	28 00 00 00 b8 00 16 1d 	lw $22,184($29)
  401ac8:	28 00 00 00 b4 00 15 1d 	lw $21,180($29)
  401ad0:	28 00 00 00 b0 00 14 1d 	lw $20,176($29)
  401ad8:	28 00 00 00 ac 00 13 1d 	lw $19,172($29)
  401ae0:	28 00 00 00 a8 00 12 1d 	lw $18,168($29)
  401ae8:	28 00 00 00 a4 00 11 1d 	lw $17,164($29)
  401af0:	28 00 00 00 a0 00 10 1d 	lw $16,160($29)
  401af8:	43 00 00 00 c8 00 1d 1d 	addiu $29,$29,200
  401b00:	03 00 00 00 00 00 00 1f 	jr $31

00401b08 <param_>:
  401b08:	43 00 00 00 70 ff 1d 1d 	addiu $29,$29,-144
  401b10:	37 00 00 00 88 00 14 1d 	s.d $f20,136($29)
  401b18:	2b 00 00 00 50 80 14 1c 	l.d $f20,-32688($28)
  401b20:	34 00 00 00 84 00 1f 1d 	sw $31,132($29)
  401b28:	34 00 00 00 80 00 1e 1d 	sw $30,128($29)
  401b30:	34 00 00 00 7c 00 17 1d 	sw $23,124($29)
  401b38:	34 00 00 00 78 00 16 1d 	sw $22,120($29)
  401b40:	34 00 00 00 74 00 15 1d 	sw $21,116($29)
  401b48:	34 00 00 00 70 00 14 1d 	sw $20,112($29)
  401b50:	34 00 00 00 6c 00 13 1d 	sw $19,108($29)
  401b58:	34 00 00 00 68 00 12 1d 	sw $18,104($29)
  401b60:	34 00 00 00 64 00 11 1d 	sw $17,100($29)
  401b68:	34 00 00 00 60 00 10 1d 	sw $16,96($29)
  401b70:	7b 00 00 00 00 0c 00 14 	mov.d $f12,$f20
  401b78:	02 00 00 00 fc 7b 10 00 	jal 41eff0 <asin>
  401b80:	71 00 00 00 00 00 00 00 	add.d $f0,$f0,$f0
  401b88:	71 00 00 00 00 02 00 00 	add.d $f2,$f0,$f0
  401b90:	77 00 00 00 00 04 02 02 	div.d $f4,$f2,$f2
  401b98:	a2 00 00 00 00 10 04 00 	lui $4,4096
  401ba0:	43 00 00 00 54 27 04 04 	addiu $4,$4,10068
  401ba8:	a2 00 00 00 c6 10 01 00 	lui $1,4294
  401bb0:	37 00 00 00 80 5f 00 01 	s.d $f0,24448($1)
  401bb8:	a2 00 00 00 c6 10 01 00 	lui $1,4294
  401bc0:	37 00 00 00 88 5f 02 01 	s.d $f2,24456($1)
  401bc8:	a2 00 00 00 c6 10 01 00 	lui $1,4294
  401bd0:	37 00 00 00 90 5f 02 01 	s.d $f2,24464($1)
  401bd8:	a2 00 00 00 c6 10 01 00 	lui $1,4294
  401be0:	37 00 00 00 98 5f 02 01 	s.d $f2,24472($1)
  401be8:	a2 00 00 00 c6 10 01 00 	lui $1,4294
  401bf0:	37 00 00 00 a0 5f 02 01 	s.d $f2,24480($1)
  401bf8:	a2 00 00 00 c6 10 01 00 	lui $1,4294
  401c00:	37 00 00 00 a8 5f 04 01 	s.d $f4,24488($1)
  401c08:	a2 00 00 00 c6 10 01 00 	lui $1,4294
  401c10:	37 00 00 00 b0 5f 04 01 	s.d $f4,24496($1)
  401c18:	a2 00 00 00 c6 10 01 00 	lui $1,4294
  401c20:	37 00 00 00 b8 5f 04 01 	s.d $f4,24504($1)
  401c28:	02 00 00 00 9e 7d 10 00 	jal 41f678 <s_rsfe>
  401c30:	43 00 00 00 00 80 04 1c 	addiu $4,$28,-32768
  401c38:	43 00 00 00 10 00 05 1d 	addiu $5,$29,16
  401c40:	43 00 00 00 50 00 06 00 	addiu $6,$0,80
  401c48:	02 00 00 00 1c 7a 10 00 	jal 41e870 <do_fio>
  401c50:	02 00 00 00 78 6d 10 00 	jal 41b5e0 <e_rsfe>
  401c58:	a2 00 00 00 00 10 04 00 	lui $4,4096
  401c60:	43 00 00 00 68 27 04 04 	addiu $4,$4,10088
  401c68:	02 00 00 00 82 87 10 00 	jal 421e08 <s_rsle>
  401c70:	43 00 00 00 14 80 04 1c 	addiu $4,$28,-32748
  401c78:	43 00 00 00 00 80 05 1c 	addiu $5,$28,-32768
  401c80:	a2 00 00 00 c6 10 16 00 	lui $22,4294
  401c88:	43 00 00 00 e0 5f 16 16 	addiu $22,$22,24544
  401c90:	42 00 00 00 00 06 16 00 	addu $6,$0,$22
  401c98:	43 00 00 00 04 00 07 00 	addiu $7,$0,4
  401ca0:	02 00 00 00 54 88 10 00 	jal 422150 <do_lio>
  401ca8:	43 00 00 00 14 80 04 1c 	addiu $4,$28,-32748
  401cb0:	43 00 00 00 00 80 05 1c 	addiu $5,$28,-32768
  401cb8:	43 00 00 00 04 00 15 16 	addiu $21,$22,4
  401cc0:	42 00 00 00 00 06 15 00 	addu $6,$0,$21
  401cc8:	43 00 00 00 04 00 07 00 	addiu $7,$0,4
  401cd0:	02 00 00 00 54 88 10 00 	jal 422150 <do_lio>
  401cd8:	43 00 00 00 14 80 04 1c 	addiu $4,$28,-32748
  401ce0:	43 00 00 00 00 80 05 1c 	addiu $5,$28,-32768
  401ce8:	43 00 00 00 08 00 14 16 	addiu $20,$22,8
  401cf0:	42 00 00 00 00 06 14 00 	addu $6,$0,$20
  401cf8:	43 00 00 00 04 00 07 00 	addiu $7,$0,4
  401d00:	02 00 00 00 54 88 10 00 	jal 422150 <do_lio>
  401d08:	43 00 00 00 14 80 04 1c 	addiu $4,$28,-32748
  401d10:	43 00 00 00 00 80 05 1c 	addiu $5,$28,-32768
  401d18:	43 00 00 00 14 00 13 16 	addiu $19,$22,20
  401d20:	42 00 00 00 00 06 13 00 	addu $6,$0,$19
  401d28:	43 00 00 00 04 00 07 00 	addiu $7,$0,4
  401d30:	02 00 00 00 54 88 10 00 	jal 422150 <do_lio>
  401d38:	43 00 00 00 14 80 04 1c 	addiu $4,$28,-32748
  401d40:	43 00 00 00 00 80 05 1c 	addiu $5,$28,-32768
  401d48:	43 00 00 00 b0 8d 06 1c 	addiu $6,$28,-29264
  401d50:	43 00 00 00 04 00 07 00 	addiu $7,$0,4
  401d58:	02 00 00 00 54 88 10 00 	jal 422150 <do_lio>
  401d60:	43 00 00 00 14 80 04 1c 	addiu $4,$28,-32748
  401d68:	43 00 00 00 00 80 05 1c 	addiu $5,$28,-32768
  401d70:	43 00 00 00 20 00 12 16 	addiu $18,$22,32
  401d78:	42 00 00 00 00 06 12 00 	addu $6,$0,$18
  401d80:	43 00 00 00 04 00 07 00 	addiu $7,$0,4
  401d88:	02 00 00 00 54 88 10 00 	jal 422150 <do_lio>
  401d90:	02 00 00 00 88 7e 10 00 	jal 41fa20 <e_rsle>
  401d98:	a2 00 00 00 00 10 04 00 	lui $4,4096
  401da0:	43 00 00 00 7c 27 04 04 	addiu $4,$4,10108
  401da8:	02 00 00 00 9e 7d 10 00 	jal 41f678 <s_rsfe>
  401db0:	43 00 00 00 00 80 04 1c 	addiu $4,$28,-32768
  401db8:	43 00 00 00 10 00 05 1d 	addiu $5,$29,16
  401dc0:	43 00 00 00 50 00 06 00 	addiu $6,$0,80
  401dc8:	02 00 00 00 1c 7a 10 00 	jal 41e870 <do_fio>
  401dd0:	02 00 00 00 78 6d 10 00 	jal 41b5e0 <e_rsfe>
  401dd8:	a2 00 00 00 00 10 04 00 	lui $4,4096
  401de0:	43 00 00 00 90 27 04 04 	addiu $4,$4,10128
  401de8:	02 00 00 00 82 87 10 00 	jal 421e08 <s_rsle>
  401df0:	43 00 00 00 1c 80 04 1c 	addiu $4,$28,-32740
  401df8:	43 00 00 00 00 80 05 1c 	addiu $5,$28,-32768
  401e00:	a2 00 00 00 c6 10 10 00 	lui $16,4294
  401e08:	43 00 00 00 c8 5f 10 10 	addiu $16,$16,24520
  401e10:	42 00 00 00 00 06 10 00 	addu $6,$0,$16
  401e18:	43 00 00 00 08 00 07 00 	addiu $7,$0,8
  401e20:	02 00 00 00 54 88 10 00 	jal 422150 <do_lio>
  401e28:	43 00 00 00 1c 80 04 1c 	addiu $4,$28,-32740
  401e30:	43 00 00 00 00 80 05 1c 	addiu $5,$28,-32768
  401e38:	43 00 00 00 08 00 11 10 	addiu $17,$16,8
  401e40:	42 00 00 00 00 06 11 00 	addu $6,$0,$17
  401e48:	43 00 00 00 08 00 07 00 	addiu $7,$0,8
  401e50:	02 00 00 00 54 88 10 00 	jal 422150 <do_lio>
  401e58:	02 00 00 00 88 7e 10 00 	jal 41fa20 <e_rsle>
  401e60:	a2 00 00 00 00 10 04 00 	lui $4,4096
  401e68:	43 00 00 00 a4 27 04 04 	addiu $4,$4,10148
  401e70:	02 00 00 00 9e 7d 10 00 	jal 41f678 <s_rsfe>
  401e78:	43 00 00 00 00 80 04 1c 	addiu $4,$28,-32768
  401e80:	43 00 00 00 10 00 05 1d 	addiu $5,$29,16
  401e88:	43 00 00 00 50 00 06 00 	addiu $6,$0,80
  401e90:	02 00 00 00 1c 7a 10 00 	jal 41e870 <do_fio>
  401e98:	02 00 00 00 78 6d 10 00 	jal 41b5e0 <e_rsfe>
  401ea0:	a2 00 00 00 00 10 04 00 	lui $4,4096
  401ea8:	43 00 00 00 b8 27 04 04 	addiu $4,$4,10168
  401eb0:	02 00 00 00 82 87 10 00 	jal 421e08 <s_rsle>
  401eb8:	43 00 00 00 14 80 04 1c 	addiu $4,$28,-32748
  401ec0:	43 00 00 00 00 80 05 1c 	addiu $5,$28,-32768
  401ec8:	43 00 00 00 18 00 06 16 	addiu $6,$22,24
  401ed0:	43 00 00 00 04 00 07 00 	addiu $7,$0,4
  401ed8:	02 00 00 00 54 88 10 00 	jal 422150 <do_lio>
  401ee0:	43 00 00 00 14 80 04 1c 	addiu $4,$28,-32748
  401ee8:	43 00 00 00 00 80 05 1c 	addiu $5,$28,-32768
  401ef0:	43 00 00 00 1c 00 06 16 	addiu $6,$22,28
  401ef8:	43 00 00 00 04 00 07 00 	addiu $7,$0,4
  401f00:	02 00 00 00 54 88 10 00 	jal 422150 <do_lio>
  401f08:	02 00 00 00 88 7e 10 00 	jal 41fa20 <e_rsle>
  401f10:	a2 00 00 00 00 10 04 00 	lui $4,4096
  401f18:	43 00 00 00 cc 27 04 04 	addiu $4,$4,10188
  401f20:	02 00 00 00 9e 7d 10 00 	jal 41f678 <s_rsfe>
  401f28:	43 00 00 00 00 80 04 1c 	addiu $4,$28,-32768
  401f30:	43 00 00 00 10 00 05 1d 	addiu $5,$29,16
  401f38:	43 00 00 00 50 00 06 00 	addiu $6,$0,80
  401f40:	02 00 00 00 1c 7a 10 00 	jal 41e870 <do_fio>
  401f48:	02 00 00 00 78 6d 10 00 	jal 41b5e0 <e_rsfe>
  401f50:	a2 00 00 00 00 10 04 00 	lui $4,4096
  401f58:	43 00 00 00 e0 27 04 04 	addiu $4,$4,10208
  401f60:	02 00 00 00 82 87 10 00 	jal 421e08 <s_rsle>
  401f68:	43 00 00 00 1c 80 04 1c 	addiu $4,$28,-32740
  401f70:	43 00 00 00 00 80 05 1c 	addiu $5,$28,-32768
  401f78:	a2 00 00 00 c6 10 17 00 	lui $23,4294
  401f80:	43 00 00 00 10 60 17 17 	addiu $23,$23,24592
  401f88:	42 00 00 00 00 06 17 00 	addu $6,$0,$23
  401f90:	43 00 00 00 08 00 07 00 	addiu $7,$0,8
  401f98:	02 00 00 00 54 88 10 00 	jal 422150 <do_lio>
  401fa0:	43 00 00 00 1c 80 04 1c 	addiu $4,$28,-32740
  401fa8:	43 00 00 00 00 80 05 1c 	addiu $5,$28,-32768
  401fb0:	43 00 00 00 08 00 1e 17 	addiu $30,$23,8
  401fb8:	42 00 00 00 00 06 1e 00 	addu $6,$0,$30
  401fc0:	43 00 00 00 08 00 07 00 	addiu $7,$0,8
  401fc8:	02 00 00 00 54 88 10 00 	jal 422150 <do_lio>
  401fd0:	02 00 00 00 88 7e 10 00 	jal 41fa20 <e_rsle>
  401fd8:	2b 00 00 00 00 00 00 10 	l.d $f0,0($16)
  401fe0:	77 00 00 00 00 14 00 14 	div.d $f20,$f20,$f0
  401fe8:	a2 00 00 00 00 10 04 00 	lui $4,4096
  401ff0:	43 00 00 00 f4 27 04 04 	addiu $4,$4,10228
  401ff8:	37 00 00 00 f8 ff 14 10 	s.d $f20,-8($16)
  402000:	02 00 00 00 c8 6c 10 00 	jal 41b320 <s_wsfe>
  402008:	43 00 00 00 00 80 04 1c 	addiu $4,$28,-32768
  402010:	42 00 00 00 00 05 16 00 	addu $5,$0,$22
  402018:	43 00 00 00 04 00 06 00 	addiu $6,$0,4
  402020:	02 00 00 00 1c 7a 10 00 	jal 41e870 <do_fio>
  402028:	43 00 00 00 00 80 04 1c 	addiu $4,$28,-32768
  402030:	42 00 00 00 00 05 15 00 	addu $5,$0,$21
  402038:	43 00 00 00 04 00 06 00 	addiu $6,$0,4
  402040:	02 00 00 00 1c 7a 10 00 	jal 41e870 <do_fio>
  402048:	43 00 00 00 00 80 04 1c 	addiu $4,$28,-32768
  402050:	42 00 00 00 00 05 14 00 	addu $5,$0,$20
  402058:	43 00 00 00 04 00 06 00 	addiu $6,$0,4
  402060:	02 00 00 00 1c 7a 10 00 	jal 41e870 <do_fio>
  402068:	43 00 00 00 00 80 04 1c 	addiu $4,$28,-32768
  402070:	42 00 00 00 00 05 13 00 	addu $5,$0,$19
  402078:	43 00 00 00 04 00 06 00 	addiu $6,$0,4
  402080:	02 00 00 00 1c 7a 10 00 	jal 41e870 <do_fio>
  402088:	43 00 00 00 00 80 04 1c 	addiu $4,$28,-32768
  402090:	43 00 00 00 b0 8d 05 1c 	addiu $5,$28,-29264
  402098:	43 00 00 00 04 00 06 00 	addiu $6,$0,4
  4020a0:	02 00 00 00 1c 7a 10 00 	jal 41e870 <do_fio>
  4020a8:	43 00 00 00 00 80 04 1c 	addiu $4,$28,-32768
  4020b0:	42 00 00 00 00 05 12 00 	addu $5,$0,$18
  4020b8:	43 00 00 00 04 00 06 00 	addiu $6,$0,4
  4020c0:	02 00 00 00 1c 7a 10 00 	jal 41e870 <do_fio>
  4020c8:	02 00 00 00 0e 6e 10 00 	jal 41b838 <e_wsfe>
  4020d0:	a2 00 00 00 00 10 04 00 	lui $4,4096
  4020d8:	43 00 00 00 08 28 04 04 	addiu $4,$4,10248
  4020e0:	02 00 00 00 c8 6c 10 00 	jal 41b320 <s_wsfe>
  4020e8:	43 00 00 00 00 80 04 1c 	addiu $4,$28,-32768
  4020f0:	43 00 00 00 f8 ff 05 10 	addiu $5,$16,-8
  4020f8:	43 00 00 00 08 00 06 00 	addiu $6,$0,8
  402100:	02 00 00 00 1c 7a 10 00 	jal 41e870 <do_fio>
  402108:	43 00 00 00 00 80 04 1c 	addiu $4,$28,-32768
  402110:	42 00 00 00 00 05 10 00 	addu $5,$0,$16
  402118:	43 00 00 00 08 00 06 00 	addiu $6,$0,8
  402120:	02 00 00 00 1c 7a 10 00 	jal 41e870 <do_fio>
  402128:	43 00 00 00 00 80 04 1c 	addiu $4,$28,-32768
  402130:	42 00 00 00 00 05 11 00 	addu $5,$0,$17
  402138:	43 00 00 00 08 00 06 00 	addiu $6,$0,8
  402140:	02 00 00 00 1c 7a 10 00 	jal 41e870 <do_fio>
  402148:	02 00 00 00 0e 6e 10 00 	jal 41b838 <e_wsfe>
  402150:	28 00 00 00 18 00 02 16 	lw $2,24($22)
  402158:	43 00 00 00 01 00 10 00 	addiu $16,$0,1
  402160:	06 00 00 00 2c 00 10 02 	bne $2,$16,402218 <param_+0x710>
  402168:	a2 00 00 00 00 10 04 00 	lui $4,4096
  402170:	43 00 00 00 1c 28 04 04 	addiu $4,$4,10268
  402178:	02 00 00 00 6c 88 10 00 	jal 4221b0 <s_wsle>
  402180:	43 00 00 00 28 80 04 1c 	addiu $4,$28,-32728
  402188:	43 00 00 00 00 80 05 1c 	addiu $5,$28,-32768
  402190:	a2 00 00 00 00 10 06 00 	lui $6,4096
  402198:	43 00 00 00 2c 00 06 06 	addiu $6,$6,44
  4021a0:	43 00 00 00 33 00 07 00 	addiu $7,$0,51
  4021a8:	02 00 00 00 54 88 10 00 	jal 422150 <do_lio>
  4021b0:	02 00 00 00 c4 88 10 00 	jal 422310 <e_wsle>
  4021b8:	a2 00 00 00 00 10 04 00 	lui $4,4096
  4021c0:	43 00 00 00 30 28 04 04 	addiu $4,$4,10288
  4021c8:	02 00 00 00 c8 6c 10 00 	jal 41b320 <s_wsfe>
  4021d0:	43 00 00 00 00 80 04 1c 	addiu $4,$28,-32768
  4021d8:	42 00 00 00 00 05 17 00 	addu $5,$0,$23
  4021e0:	43 00 00 00 08 00 06 00 	addiu $6,$0,8
  4021e8:	02 00 00 00 1c 7a 10 00 	jal 41e870 <do_fio>
  4021f0:	43 00 00 00 00 80 04 1c 	addiu $4,$28,-32768
  4021f8:	42 00 00 00 00 05 1e 00 	addu $5,$0,$30
  402200:	43 00 00 00 08 00 06 00 	addiu $6,$0,8
  402208:	02 00 00 00 1c 7a 10 00 	jal 41e870 <do_fio>
  402210:	02 00 00 00 0e 6e 10 00 	jal 41b838 <e_wsfe>
  402218:	28 00 00 00 1c 00 02 16 	lw $2,28($22)
  402220:	06 00 00 00 14 00 10 02 	bne $2,$16,402278 <param_+0x770>
  402228:	a2 00 00 00 00 10 04 00 	lui $4,4096
  402230:	43 00 00 00 44 28 04 04 	addiu $4,$4,10308
  402238:	02 00 00 00 6c 88 10 00 	jal 4221b0 <s_wsle>
  402240:	43 00 00 00 28 80 04 1c 	addiu $4,$28,-32728
  402248:	43 00 00 00 00 80 05 1c 	addiu $5,$28,-32768
  402250:	a2 00 00 00 00 10 06 00 	lui $6,4096
  402258:	43 00 00 00 60 00 06 06 	addiu $6,$6,96
  402260:	43 00 00 00 29 00 07 00 	addiu $7,$0,41
  402268:	02 00 00 00 54 88 10 00 	jal 422150 <do_lio>
  402270:	02 00 00 00 c4 88 10 00 	jal 422310 <e_wsle>
  402278:	02 00 00 00 bc 08 10 00 	jal 4022f0 <wavnum_>
  402280:	42 00 00 00 00 02 00 00 	addu $2,$0,$0
  402288:	28 00 00 00 84 00 1f 1d 	lw $31,132($29)
  402290:	28 00 00 00 80 00 1e 1d 	lw $30,128($29)
  402298:	28 00 00 00 7c 00 17 1d 	lw $23,124($29)
  4022a0:	28 00 00 00 78 00 16 1d 	lw $22,120($29)
  4022a8:	28 00 00 00 74 00 15 1d 	lw $21,116($29)
  4022b0:	28 00 00 00 70 00 14 1d 	lw $20,112($29)
  4022b8:	28 00 00 00 6c 00 13 1d 	lw $19,108($29)
  4022c0:	28 00 00 00 68 00 12 1d 	lw $18,104($29)
  4022c8:	28 00 00 00 64 00 11 1d 	lw $17,100($29)
  4022d0:	28 00 00 00 60 00 10 1d 	lw $16,96($29)
  4022d8:	2b 00 00 00 88 00 14 1d 	l.d $f20,136($29)
  4022e0:	43 00 00 00 90 00 1d 1d 	addiu $29,$29,144
  4022e8:	03 00 00 00 00 00 00 1f 	jr $31

004022f0 <wavnum_>:
  4022f0:	a2 00 00 00 c6 10 02 00 	lui $2,4294
  4022f8:	28 00 00 00 20 64 02 02 	lw $2,25632($2)
  402300:	43 00 00 00 e8 ff 1d 1d 	addiu $29,$29,-24
  402308:	43 00 00 00 01 00 05 00 	addiu $5,$0,1
  402310:	57 00 00 00 1f 03 02 00 	srl $3,$2,0x1f
  402318:	42 00 00 00 00 02 03 02 	addu $2,$2,$3
  402320:	59 00 00 00 01 07 02 00 	sra $7,$2,0x1
  402328:	07 00 00 00 d6 00 00 07 	blez $7,402688 <wavnum_+0x398>
  402330:	a2 00 00 00 8c 11 08 00 	lui $8,4492
  402338:	43 00 00 00 48 64 08 08 	addiu $8,$8,25672
  402340:	43 00 00 00 20 0c 04 08 	addiu $4,$8,3104
  402348:	43 00 00 00 08 00 06 08 	addiu $6,$8,8
  402350:	a2 00 00 00 c6 10 09 00 	lui $9,4294
  402358:	43 00 00 00 a8 5f 09 09 	addiu $9,$9,24488
  402360:	2b 00 00 00 58 80 04 1c 	l.d $f4,-32680($28)
  402368:	43 00 00 00 01 00 02 07 	addiu $2,$7,1
  402370:	4f 00 00 00 03 00 03 07 	andi $3,$7,3
  402378:	5b 00 00 00 00 02 02 05 	slt $2,$5,$2
  402380:	05 00 00 00 3e 00 00 02 	beq $2,$0,402480 <wavnum_+0x190>
  402388:	05 00 00 00 5c 00 00 03 	beq $3,$0,402500 <wavnum_+0x210>
  402390:	5c 00 00 00 02 00 02 03 	slti $2,$3,2
  402398:	06 00 00 00 38 00 00 02 	bne $2,$0,402480 <wavnum_+0x190>
  4023a0:	5c 00 00 00 03 00 02 03 	slti $2,$3,3
  4023a8:	06 00 00 00 18 00 00 02 	bne $2,$0,402410 <wavnum_+0x120>
  4023b0:	a5 00 00 00 00 00 00 00 	mtc1 $0,$f0
  4023b8:	a5 00 00 00 00 00 00 01 	mtc1 $0,$f1
  4023c0:	2b 00 00 00 00 00 02 09 	l.d $f2,0($9)
  4023c8:	75 00 00 00 00 02 00 02 	mul.d $f2,$f2,$f0
  4023d0:	71 00 00 00 00 02 04 02 	add.d $f2,$f2,$f4
  4023d8:	75 00 00 00 00 00 02 02 	mul.d $f0,$f2,$f2
  4023e0:	43 00 00 00 28 0c 04 08 	addiu $4,$8,3112
  4023e8:	71 00 00 00 00 00 04 00 	add.d $f0,$f0,$f4
  4023f0:	43 00 00 00 08 00 06 06 	addiu $6,$6,8
  4023f8:	43 00 00 00 02 00 05 00 	addiu $5,$0,2
  402400:	37 00 00 00 08 00 02 08 	s.d $f2,8($8)
  402408:	37 00 00 00 20 0c 00 08 	s.d $f0,3104($8)
  402410:	43 00 00 00 ff ff 02 05 	addiu $2,$5,-1
  402418:	2b 00 00 00 00 00 02 09 	l.d $f2,0($9)
  402420:	a5 00 00 00 00 00 02 00 	mtc1 $2,$f0
  402428:	81 00 00 00 00 00 00 00 	cvt.s.w $f0,$f0
  402430:	82 00 00 00 00 00 00 00 	cvt.d.s $f0,$f0
  402438:	75 00 00 00 00 02 00 02 	mul.d $f2,$f2,$f0
  402440:	71 00 00 00 00 02 04 02 	add.d $f2,$f2,$f4
  402448:	75 00 00 00 00 00 02 02 	mul.d $f0,$f2,$f2
  402450:	71 00 00 00 00 00 04 00 	add.d $f0,$f0,$f4
  402458:	43 00 00 00 01 00 05 05 	addiu $5,$5,1
  402460:	37 00 00 00 00 00 02 06 	s.d $f2,0($6)
  402468:	43 00 00 00 08 00 06 06 	addiu $6,$6,8
  402470:	37 00 00 00 00 00 00 04 	s.d $f0,0($4)
  402478:	43 00 00 00 08 00 04 04 	addiu $4,$4,8
  402480:	43 00 00 00 ff ff 02 05 	addiu $2,$5,-1
  402488:	2b 00 00 00 00 00 02 09 	l.d $f2,0($9)
  402490:	a5 00 00 00 00 00 02 00 	mtc1 $2,$f0
  402498:	81 00 00 00 00 00 00 00 	cvt.s.w $f0,$f0
  4024a0:	82 00 00 00 00 00 00 00 	cvt.d.s $f0,$f0
  4024a8:	75 00 00 00 00 02 00 02 	mul.d $f2,$f2,$f0
  4024b0:	71 00 00 00 00 02 04 02 	add.d $f2,$f2,$f4
  4024b8:	75 00 00 00 00 00 02 02 	mul.d $f0,$f2,$f2
  4024c0:	43 00 00 00 01 00 05 05 	addiu $5,$5,1
  4024c8:	71 00 00 00 00 00 04 00 	add.d $f0,$f0,$f4
  4024d0:	5b 00 00 00 00 02 05 07 	slt $2,$7,$5
  4024d8:	37 00 00 00 00 00 02 06 	s.d $f2,0($6)
  4024e0:	43 00 00 00 08 00 06 06 	addiu $6,$6,8
  4024e8:	37 00 00 00 00 00 00 04 	s.d $f0,0($4)
  4024f0:	43 00 00 00 08 00 04 04 	addiu $4,$4,8
  4024f8:	06 00 00 00 62 00 00 02 	bne $2,$0,402688 <wavnum_+0x398>
  402500:	42 00 00 00 00 03 06 00 	addu $3,$0,$6
  402508:	43 00 00 00 ff ff 02 05 	addiu $2,$5,-1
  402510:	2b 00 00 00 00 00 02 09 	l.d $f2,0($9)
  402518:	a5 00 00 00 00 00 02 00 	mtc1 $2,$f0
  402520:	81 00 00 00 00 00 00 00 	cvt.s.w $f0,$f0
  402528:	82 00 00 00 00 00 00 00 	cvt.d.s $f0,$f0
  402530:	75 00 00 00 00 02 00 02 	mul.d $f2,$f2,$f0
  402538:	71 00 00 00 00 02 04 02 	add.d $f2,$f2,$f4
  402540:	75 00 00 00 00 00 02 02 	mul.d $f0,$f2,$f2
  402548:	71 00 00 00 00 00 04 00 	add.d $f0,$f0,$f4
  402550:	37 00 00 00 00 00 02 03 	s.d $f2,0($3)
  402558:	37 00 00 00 00 00 00 04 	s.d $f0,0($4)
  402560:	2b 00 00 00 00 00 02 09 	l.d $f2,0($9)
  402568:	a5 00 00 00 00 00 05 00 	mtc1 $5,$f0
  402570:	81 00 00 00 00 00 00 00 	cvt.s.w $f0,$f0
  402578:	82 00 00 00 00 00 00 00 	cvt.d.s $f0,$f0
  402580:	75 00 00 00 00 02 00 02 	mul.d $f2,$f2,$f0
  402588:	71 00 00 00 00 02 04 02 	add.d $f2,$f2,$f4
  402590:	75 00 00 00 00 00 02 02 	mul.d $f0,$f2,$f2
  402598:	71 00 00 00 00 00 04 00 	add.d $f0,$f0,$f4
  4025a0:	43 00 00 00 01 00 02 05 	addiu $2,$5,1
  4025a8:	37 00 00 00 08 00 02 03 	s.d $f2,8($3)
  4025b0:	37 00 00 00 08 00 00 04 	s.d $f0,8($4)
  4025b8:	2b 00 00 00 00 00 02 09 	l.d $f2,0($9)
  4025c0:	a5 00 00 00 00 00 02 00 	mtc1 $2,$f0
  4025c8:	81 00 00 00 00 00 00 00 	cvt.s.w $f0,$f0
  4025d0:	82 00 00 00 00 00 00 00 	cvt.d.s $f0,$f0
  4025d8:	75 00 00 00 00 02 00 02 	mul.d $f2,$f2,$f0
  4025e0:	71 00 00 00 00 02 04 02 	add.d $f2,$f2,$f4
  4025e8:	75 00 00 00 00 00 02 02 	mul.d $f0,$f2,$f2
  4025f0:	71 00 00 00 00 00 04 00 	add.d $f0,$f0,$f4
  4025f8:	43 00 00 00 02 00 02 05 	addiu $2,$5,2
  402600:	37 00 00 00 10 00 02 03 	s.d $f2,16($3)
  402608:	37 00 00 00 10 00 00 04 	s.d $f0,16($4)
  402610:	2b 00 00 00 00 00 02 09 	l.d $f2,0($9)
  402618:	a5 00 00 00 00 00 02 00 	mtc1 $2,$f0
  402620:	81 00 00 00 00 00 00 00 	cvt.s.w $f0,$f0
  402628:	82 00 00 00 00 00 00 00 	cvt.d.s $f0,$f0
  402630:	75 00 00 00 00 02 00 02 	mul.d $f2,$f2,$f0
  402638:	71 00 00 00 00 02 04 02 	add.d $f2,$f2,$f4
  402640:	75 00 00 00 00 00 02 02 	mul.d $f0,$f2,$f2
  402648:	43 00 00 00 04 00 05 05 	addiu $5,$5,4
  402650:	71 00 00 00 00 00 04 00 	add.d $f0,$f0,$f4
  402658:	5b 00 00 00 00 02 05 07 	slt $2,$7,$5
  402660:	37 00 00 00 18 00 02 03 	s.d $f2,24($3)
  402668:	43 00 00 00 20 00 03 03 	addiu $3,$3,32
  402670:	37 00 00 00 18 00 00 04 	s.d $f0,24($4)
  402678:	43 00 00 00 20 00 04 04 	addiu $4,$4,32
  402680:	05 00 00 00 a0 ff 00 02 	beq $2,$0,402508 <wavnum_+0x218>
  402688:	a2 00 00 00 c6 10 02 00 	lui $2,4294
  402690:	28 00 00 00 30 64 02 02 	lw $2,25648($2)
  402698:	2b 00 00 00 58 80 00 1c 	l.d $f0,-32680($28)
  4026a0:	55 00 00 00 03 02 02 00 	sll $2,$2,0x3
  4026a8:	a2 00 00 00 8c 11 01 00 	lui $1,4492
  4026b0:	42 00 00 00 00 01 01 02 	addu $1,$2,$1
  4026b8:	37 00 00 00 48 64 00 01 	s.d $f0,25672($1)
  4026c0:	a2 00 00 00 c6 10 02 00 	lui $2,4294
  4026c8:	28 00 00 00 30 64 02 02 	lw $2,25648($2)
  4026d0:	a2 00 00 00 8c 11 04 00 	lui $4,4492
  4026d8:	43 00 00 00 48 64 04 04 	addiu $4,$4,25672
  4026e0:	43 00 00 00 18 0c 03 04 	addiu $3,$4,3096
  4026e8:	55 00 00 00 03 02 02 00 	sll $2,$2,0x3
  4026f0:	42 00 00 00 00 02 03 02 	addu $2,$2,$3
  4026f8:	a2 00 00 00 c6 10 03 00 	lui $3,4294
  402700:	43 00 00 00 24 64 03 03 	addiu $3,$3,25636
  402708:	37 00 00 00 00 00 00 02 	s.d $f0,0($2)
  402710:	28 00 00 00 00 00 06 03 	lw $6,0($3)
  402718:	43 00 00 00 02 00 05 00 	addiu $5,$0,2
  402720:	57 00 00 00 1f 02 06 00 	srl $2,$6,0x1f
  402728:	42 00 00 00 00 02 02 06 	addu $2,$6,$2
  402730:	59 00 00 00 01 07 02 00 	sra $7,$2,0x1
  402738:	42 00 00 00 00 0e 07 00 	addu $14,$0,$7
  402740:	5c 00 00 00 02 00 02 07 	slti $2,$7,2
  402748:	06 00 00 00 a8 00 00 02 	bne $2,$0,4029f0 <wavnum_+0x700>
  402750:	43 00 00 00 30 10 09 04 	addiu $9,$4,4144
  402758:	43 00 00 00 18 04 08 04 	addiu $8,$4,1048
  402760:	43 00 00 00 08 04 0d 04 	addiu $13,$4,1032
  402768:	a2 00 00 00 c6 10 0c 00 	lui $12,4294
  402770:	43 00 00 00 b0 5f 0c 0c 	addiu $12,$12,24496
  402778:	7b 00 00 00 00 04 00 00 	mov.d $f4,$f0
  402780:	42 00 00 00 00 0a 03 00 	addu $10,$0,$3
  402788:	43 00 00 00 20 10 0b 04 	addiu $11,$4,4128
  402790:	43 00 00 00 01 00 02 07 	addiu $2,$7,1
  402798:	43 00 00 00 ff ff 03 07 	addiu $3,$7,-1
  4027a0:	4f 00 00 00 01 00 03 03 	andi $3,$3,1
  4027a8:	5b 00 00 00 00 02 02 05 	slt $2,$5,$2
  4027b0:	05 00 00 00 02 00 00 02 	beq $2,$0,4027c0 <wavnum_+0x4d0>
  4027b8:	05 00 00 00 26 00 00 03 	beq $3,$0,402858 <wavnum_+0x568>
  4027c0:	2b 00 00 00 00 00 00 0c 	l.d $f0,0($12)
  4027c8:	71 00 00 00 00 00 04 00 	add.d $f0,$f0,$f4
  4027d0:	55 00 00 00 03 02 06 00 	sll $2,$6,0x3
  4027d8:	37 00 00 00 18 04 00 04 	s.d $f0,1048($4)
  4027e0:	7d 00 00 00 00 00 00 00 	neg.d $f0,$f0
  4027e8:	42 00 00 00 00 02 0d 02 	addu $2,$2,$13
  4027f0:	37 00 00 00 00 00 00 02 	s.d $f0,0($2)
  4027f8:	2b 00 00 00 18 04 00 04 	l.d $f0,1048($4)
  402800:	75 00 00 00 00 00 00 00 	mul.d $f0,$f0,$f0
  402808:	43 00 00 00 38 10 09 04 	addiu $9,$4,4152
  402810:	43 00 00 00 20 04 08 04 	addiu $8,$4,1056
  402818:	37 00 00 00 30 10 00 04 	s.d $f0,4144($4)
  402820:	28 00 00 00 00 00 02 0a 	lw $2,0($10)
  402828:	43 00 00 00 03 00 05 00 	addiu $5,$0,3
  402830:	5c 00 00 00 03 00 03 07 	slti $3,$7,3
  402838:	55 00 00 00 03 02 02 00 	sll $2,$2,0x3
  402840:	42 00 00 00 00 02 0b 02 	addu $2,$2,$11
  402848:	37 00 00 00 00 00 00 02 	s.d $f0,0($2)
  402850:	06 00 00 00 66 00 00 03 	bne $3,$0,4029f0 <wavnum_+0x700>
  402858:	42 00 00 00 00 06 08 00 	addu $6,$0,$8
  402860:	43 00 00 00 ff ff 04 05 	addiu $4,$5,-1
  402868:	2b 00 00 00 00 00 02 0c 	l.d $f2,0($12)
  402870:	a5 00 00 00 00 00 04 00 	mtc1 $4,$f0
  402878:	81 00 00 00 00 00 00 00 	cvt.s.w $f0,$f0
  402880:	82 00 00 00 00 00 00 00 	cvt.d.s $f0,$f0
  402888:	75 00 00 00 00 02 00 02 	mul.d $f2,$f2,$f0
  402890:	71 00 00 00 00 02 04 02 	add.d $f2,$f2,$f4
  402898:	37 00 00 00 00 00 02 08 	s.d $f2,0($8)
  4028a0:	28 00 00 00 00 00 02 0a 	lw $2,0($10)
  4028a8:	43 00 00 00 fe ff 03 05 	addiu $3,$5,-2
  4028b0:	7d 00 00 00 00 02 00 02 	neg.d $f2,$f2
  4028b8:	45 00 00 00 00 02 03 02 	subu $2,$2,$3
  4028c0:	55 00 00 00 03 02 02 00 	sll $2,$2,0x3
  4028c8:	42 00 00 00 00 02 0d 02 	addu $2,$2,$13
  4028d0:	37 00 00 00 00 00 02 02 	s.d $f2,0($2)
  4028d8:	2b 00 00 00 00 00 00 06 	l.d $f0,0($6)
  4028e0:	75 00 00 00 00 00 00 00 	mul.d $f0,$f0,$f0
  4028e8:	37 00 00 00 00 00 00 09 	s.d $f0,0($9)
  4028f0:	28 00 00 00 00 00 02 0a 	lw $2,0($10)
  4028f8:	45 00 00 00 00 02 03 02 	subu $2,$2,$3
  402900:	55 00 00 00 03 02 02 00 	sll $2,$2,0x3
  402908:	42 00 00 00 00 02 0b 02 	addu $2,$2,$11
  402910:	37 00 00 00 00 00 00 02 	s.d $f0,0($2)
  402918:	2b 00 00 00 00 00 02 0c 	l.d $f2,0($12)
  402920:	a5 00 00 00 00 00 05 00 	mtc1 $5,$f0
  402928:	81 00 00 00 00 00 00 00 	cvt.s.w $f0,$f0
  402930:	82 00 00 00 00 00 00 00 	cvt.d.s $f0,$f0
  402938:	75 00 00 00 00 02 00 02 	mul.d $f2,$f2,$f0
  402940:	71 00 00 00 00 02 04 02 	add.d $f2,$f2,$f4
  402948:	37 00 00 00 08 00 02 08 	s.d $f2,8($8)
  402950:	28 00 00 00 00 00 02 0a 	lw $2,0($10)
  402958:	7d 00 00 00 00 02 00 02 	neg.d $f2,$f2
  402960:	45 00 00 00 00 02 04 02 	subu $2,$2,$4
  402968:	55 00 00 00 03 02 02 00 	sll $2,$2,0x3
  402970:	42 00 00 00 00 02 0d 02 	addu $2,$2,$13
  402978:	37 00 00 00 00 00 02 02 	s.d $f2,0($2)
  402980:	2b 00 00 00 08 00 00 06 	l.d $f0,8($6)
  402988:	75 00 00 00 00 00 00 00 	mul.d $f0,$f0,$f0
  402990:	43 00 00 00 02 00 05 05 	addiu $5,$5,2
  402998:	5b 00 00 00 00 03 05 07 	slt $3,$7,$5
  4029a0:	43 00 00 00 10 00 08 08 	addiu $8,$8,16
  4029a8:	37 00 00 00 08 00 00 09 	s.d $f0,8($9)
  4029b0:	28 00 00 00 00 00 02 0a 	lw $2,0($10)
  4029b8:	43 00 00 00 10 00 06 06 	addiu $6,$6,16
  4029c0:	43 00 00 00 10 00 09 09 	addiu $9,$9,16
  4029c8:	45 00 00 00 00 02 04 02 	subu $2,$2,$4
  4029d0:	55 00 00 00 03 02 02 00 	sll $2,$2,0x3
  4029d8:	42 00 00 00 00 02 0b 02 	addu $2,$2,$11
  4029e0:	37 00 00 00 00 00 00 02 	s.d $f0,0($2)
  4029e8:	05 00 00 00 9c ff 00 03 	beq $3,$0,402860 <wavnum_+0x570>
  4029f0:	2b 00 00 00 58 80 00 1c 	l.d $f0,-32680($28)
  4029f8:	55 00 00 00 03 03 0e 00 	sll $3,$14,0x3
  402a00:	a2 00 00 00 8c 11 04 00 	lui $4,4492
  402a08:	43 00 00 00 58 68 04 04 	addiu $4,$4,26712
  402a10:	43 00 00 00 18 0c 02 04 	addiu $2,$4,3096
  402a18:	a2 00 00 00 8c 11 01 00 	lui $1,4492
  402a20:	42 00 00 00 00 01 01 03 	addu $1,$3,$1
  402a28:	37 00 00 00 58 68 00 01 	s.d $f0,26712($1)
  402a30:	42 00 00 00 00 03 02 03 	addu $3,$3,$2
  402a38:	37 00 00 00 00 00 00 04 	s.d $f0,0($4)
  402a40:	37 00 00 00 18 0c 00 04 	s.d $f0,3096($4)
  402a48:	37 00 00 00 00 00 00 03 	s.d $f0,0($3)
  402a50:	a2 00 00 00 c6 10 03 00 	lui $3,4294
  402a58:	43 00 00 00 28 64 03 03 	addiu $3,$3,25640
  402a60:	28 00 00 00 00 00 06 03 	lw $6,0($3)
  402a68:	43 00 00 00 02 00 05 00 	addiu $5,$0,2
  402a70:	57 00 00 00 1f 02 06 00 	srl $2,$6,0x1f
  402a78:	42 00 00 00 00 02 02 06 	addu $2,$6,$2
  402a80:	59 00 00 00 01 07 02 00 	sra $7,$2,0x1
  402a88:	42 00 00 00 00 0e 07 00 	addu $14,$0,$7
  402a90:	5c 00 00 00 02 00 02 07 	slti $2,$7,2
  402a98:	06 00 00 00 a8 00 00 02 	bne $2,$0,402d40 <wavnum_+0xa50>
  402aa0:	43 00 00 00 28 10 09 04 	addiu $9,$4,4136
  402aa8:	43 00 00 00 10 04 08 04 	addiu $8,$4,1040
  402ab0:	43 00 00 00 00 04 0d 04 	addiu $13,$4,1024
  402ab8:	a2 00 00 00 c6 10 0c 00 	lui $12,4294
  402ac0:	43 00 00 00 b8 5f 0c 0c 	addiu $12,$12,24504
  402ac8:	7b 00 00 00 00 04 00 00 	mov.d $f4,$f0
  402ad0:	42 00 00 00 00 0a 03 00 	addu $10,$0,$3
  402ad8:	43 00 00 00 18 10 0b 04 	addiu $11,$4,4120
  402ae0:	43 00 00 00 01 00 02 07 	addiu $2,$7,1
  402ae8:	43 00 00 00 ff ff 03 07 	addiu $3,$7,-1
  402af0:	4f 00 00 00 01 00 03 03 	andi $3,$3,1
  402af8:	5b 00 00 00 00 02 02 05 	slt $2,$5,$2
  402b00:	05 00 00 00 02 00 00 02 	beq $2,$0,402b10 <wavnum_+0x820>
  402b08:	05 00 00 00 26 00 00 03 	beq $3,$0,402ba8 <wavnum_+0x8b8>
  402b10:	2b 00 00 00 00 00 00 0c 	l.d $f0,0($12)
  402b18:	71 00 00 00 00 00 04 00 	add.d $f0,$f0,$f4
  402b20:	55 00 00 00 03 02 06 00 	sll $2,$6,0x3
  402b28:	37 00 00 00 10 04 00 04 	s.d $f0,1040($4)
  402b30:	7d 00 00 00 00 00 00 00 	neg.d $f0,$f0
  402b38:	42 00 00 00 00 02 0d 02 	addu $2,$2,$13
  402b40:	37 00 00 00 00 00 00 02 	s.d $f0,0($2)
  402b48:	2b 00 00 00 10 04 00 04 	l.d $f0,1040($4)
  402b50:	75 00 00 00 00 00 00 00 	mul.d $f0,$f0,$f0
  402b58:	43 00 00 00 30 10 09 04 	addiu $9,$4,4144
  402b60:	43 00 00 00 18 04 08 04 	addiu $8,$4,1048
  402b68:	37 00 00 00 28 10 00 04 	s.d $f0,4136($4)
  402b70:	28 00 00 00 00 00 02 0a 	lw $2,0($10)
  402b78:	43 00 00 00 03 00 05 00 	addiu $5,$0,3
  402b80:	5c 00 00 00 03 00 03 07 	slti $3,$7,3
  402b88:	55 00 00 00 03 02 02 00 	sll $2,$2,0x3
  402b90:	42 00 00 00 00 02 0b 02 	addu $2,$2,$11
  402b98:	37 00 00 00 00 00 00 02 	s.d $f0,0($2)
  402ba0:	06 00 00 00 66 00 00 03 	bne $3,$0,402d40 <wavnum_+0xa50>
  402ba8:	42 00 00 00 00 06 08 00 	addu $6,$0,$8
  402bb0:	43 00 00 00 ff ff 04 05 	addiu $4,$5,-1
  402bb8:	2b 00 00 00 00 00 02 0c 	l.d $f2,0($12)
  402bc0:	a5 00 00 00 00 00 04 00 	mtc1 $4,$f0
  402bc8:	81 00 00 00 00 00 00 00 	cvt.s.w $f0,$f0
  402bd0:	82 00 00 00 00 00 00 00 	cvt.d.s $f0,$f0
  402bd8:	75 00 00 00 00 02 00 02 	mul.d $f2,$f2,$f0
  402be0:	71 00 00 00 00 02 04 02 	add.d $f2,$f2,$f4
  402be8:	37 00 00 00 00 00 02 08 	s.d $f2,0($8)
  402bf0:	28 00 00 00 00 00 02 0a 	lw $2,0($10)
  402bf8:	43 00 00 00 fe ff 03 05 	addiu $3,$5,-2
  402c00:	7d 00 00 00 00 02 00 02 	neg.d $f2,$f2
  402c08:	45 00 00 00 00 02 03 02 	subu $2,$2,$3
  402c10:	55 00 00 00 03 02 02 00 	sll $2,$2,0x3
  402c18:	42 00 00 00 00 02 0d 02 	addu $2,$2,$13
  402c20:	37 00 00 00 00 00 02 02 	s.d $f2,0($2)
  402c28:	2b 00 00 00 00 00 00 06 	l.d $f0,0($6)
  402c30:	75 00 00 00 00 00 00 00 	mul.d $f0,$f0,$f0
  402c38:	37 00 00 00 00 00 00 09 	s.d $f0,0($9)
  402c40:	28 00 00 00 00 00 02 0a 	lw $2,0($10)
  402c48:	45 00 00 00 00 02 03 02 	subu $2,$2,$3
  402c50:	55 00 00 00 03 02 02 00 	sll $2,$2,0x3
  402c58:	42 00 00 00 00 02 0b 02 	addu $2,$2,$11
  402c60:	37 00 00 00 00 00 00 02 	s.d $f0,0($2)
  402c68:	2b 00 00 00 00 00 02 0c 	l.d $f2,0($12)
  402c70:	a5 00 00 00 00 00 05 00 	mtc1 $5,$f0
  402c78:	81 00 00 00 00 00 00 00 	cvt.s.w $f0,$f0
  402c80:	82 00 00 00 00 00 00 00 	cvt.d.s $f0,$f0
  402c88:	75 00 00 00 00 02 00 02 	mul.d $f2,$f2,$f0
  402c90:	71 00 00 00 00 02 04 02 	add.d $f2,$f2,$f4
  402c98:	37 00 00 00 08 00 02 08 	s.d $f2,8($8)
  402ca0:	28 00 00 00 00 00 02 0a 	lw $2,0($10)
  402ca8:	7d 00 00 00 00 02 00 02 	neg.d $f2,$f2
  402cb0:	45 00 00 00 00 02 04 02 	subu $2,$2,$4
  402cb8:	55 00 00 00 03 02 02 00 	sll $2,$2,0x3
  402cc0:	42 00 00 00 00 02 0d 02 	addu $2,$2,$13
  402cc8:	37 00 00 00 00 00 02 02 	s.d $f2,0($2)
  402cd0:	2b 00 00 00 08 00 00 06 	l.d $f0,8($6)
  402cd8:	75 00 00 00 00 00 00 00 	mul.d $f0,$f0,$f0
  402ce0:	43 00 00 00 02 00 05 05 	addiu $5,$5,2
  402ce8:	5b 00 00 00 00 03 05 07 	slt $3,$7,$5
  402cf0:	43 00 00 00 10 00 08 08 	addiu $8,$8,16
  402cf8:	37 00 00 00 08 00 00 09 	s.d $f0,8($9)
  402d00:	28 00 00 00 00 00 02 0a 	lw $2,0($10)
  402d08:	43 00 00 00 10 00 06 06 	addiu $6,$6,16
  402d10:	43 00 00 00 10 00 09 09 	addiu $9,$9,16
  402d18:	45 00 00 00 00 02 04 02 	subu $2,$2,$4
  402d20:	55 00 00 00 03 02 02 00 	sll $2,$2,0x3
  402d28:	42 00 00 00 00 02 0b 02 	addu $2,$2,$11
  402d30:	37 00 00 00 00 00 00 02 	s.d $f0,0($2)
  402d38:	05 00 00 00 9c ff 00 03 	beq $3,$0,402bb0 <wavnum_+0x8c0>
  402d40:	2b 00 00 00 58 80 00 1c 	l.d $f0,-32680($28)
  402d48:	55 00 00 00 03 02 0e 00 	sll $2,$14,0x3
  402d50:	a2 00 00 00 8c 11 03 00 	lui $3,4492
  402d58:	43 00 00 00 60 6c 03 03 	addiu $3,$3,27744
  402d60:	43 00 00 00 18 0c 04 03 	addiu $4,$3,3096
  402d68:	a2 00 00 00 8c 11 01 00 	lui $1,4492
  402d70:	42 00 00 00 00 01 01 02 	addu $1,$2,$1
  402d78:	37 00 00 00 60 6c 00 01 	s.d $f0,27744($1)
  402d80:	42 00 00 00 00 02 04 02 	addu $2,$2,$4
  402d88:	37 00 00 00 00 00 00 02 	s.d $f0,0($2)
  402d90:	37 00 00 00 00 00 00 03 	s.d $f0,0($3)
  402d98:	37 00 00 00 18 0c 00 03 	s.d $f0,3096($3)
  402da0:	a2 00 00 00 c6 10 07 00 	lui $7,4294
  402da8:	28 00 00 00 30 64 07 07 	lw $7,25648($7)
  402db0:	43 00 00 00 01 00 05 00 	addiu $5,$0,1
  402db8:	07 00 00 00 42 00 00 07 	blez $7,402ec8 <wavnum_+0xbd8>
  402dc0:	a2 00 00 00 00 10 06 00 	lui $6,4096
  402dc8:	43 00 00 00 18 51 06 06 	addiu $6,$6,20760
  402dd0:	43 00 00 00 08 00 04 06 	addiu $4,$6,8
  402dd8:	2b 00 00 00 60 80 00 1c 	l.d $f0,-32672($28)
  402de0:	43 00 00 00 01 00 02 07 	addiu $2,$7,1
  402de8:	4f 00 00 00 03 00 03 07 	andi $3,$7,3
  402df0:	5b 00 00 00 00 02 02 05 	slt $2,$5,$2
  402df8:	05 00 00 00 16 00 00 02 	beq $2,$0,402e58 <wavnum_+0xb68>
  402e00:	05 00 00 00 1e 00 00 03 	beq $3,$0,402e80 <wavnum_+0xb90>
  402e08:	5c 00 00 00 02 00 02 03 	slti $2,$3,2
  402e10:	06 00 00 00 10 00 00 02 	bne $2,$0,402e58 <wavnum_+0xb68>
  402e18:	5c 00 00 00 03 00 02 03 	slti $2,$3,3
  402e20:	06 00 00 00 06 00 00 02 	bne $2,$0,402e40 <wavnum_+0xb50>
  402e28:	37 00 00 00 08 00 00 06 	s.d $f0,8($6)
  402e30:	43 00 00 00 08 00 04 04 	addiu $4,$4,8
  402e38:	43 00 00 00 02 00 05 00 	addiu $5,$0,2
  402e40:	37 00 00 00 00 00 00 04 	s.d $f0,0($4)
  402e48:	43 00 00 00 08 00 04 04 	addiu $4,$4,8
  402e50:	43 00 00 00 01 00 05 05 	addiu $5,$5,1
  402e58:	37 00 00 00 00 00 00 04 	s.d $f0,0($4)
  402e60:	43 00 00 00 08 00 04 04 	addiu $4,$4,8
  402e68:	43 00 00 00 01 00 05 05 	addiu $5,$5,1
  402e70:	5b 00 00 00 00 03 05 07 	slt $3,$7,$5
  402e78:	06 00 00 00 12 00 00 03 	bne $3,$0,402ec8 <wavnum_+0xbd8>
  402e80:	42 00 00 00 00 02 04 00 	addu $2,$0,$4
  402e88:	37 00 00 00 00 00 00 02 	s.d $f0,0($2)
  402e90:	37 00 00 00 08 00 00 02 	s.d $f0,8($2)
  402e98:	37 00 00 00 10 00 00 02 	s.d $f0,16($2)
  402ea0:	37 00 00 00 18 00 00 02 	s.d $f0,24($2)
  402ea8:	43 00 00 00 20 00 02 02 	addiu $2,$2,32
  402eb0:	43 00 00 00 04 00 05 05 	addiu $5,$5,4
  402eb8:	5b 00 00 00 00 03 05 07 	slt $3,$7,$5
  402ec0:	05 00 00 00 f0 ff 00 03 	beq $3,$0,402e88 <wavnum_+0xb98>
  402ec8:	a2 00 00 00 c6 10 07 00 	lui $7,4294
  402ed0:	28 00 00 00 24 64 07 07 	lw $7,25636($7)
  402ed8:	43 00 00 00 01 00 05 00 	addiu $5,$0,1
  402ee0:	07 00 00 00 42 00 00 07 	blez $7,402ff0 <wavnum_+0xd00>
  402ee8:	a2 00 00 00 00 10 06 00 	lui $6,4096
  402ef0:	43 00 00 00 20 55 06 06 	addiu $6,$6,21792
  402ef8:	43 00 00 00 08 00 04 06 	addiu $4,$6,8
  402f00:	2b 00 00 00 60 80 00 1c 	l.d $f0,-32672($28)
  402f08:	43 00 00 00 01 00 02 07 	addiu $2,$7,1
  402f10:	4f 00 00 00 03 00 03 07 	andi $3,$7,3
  402f18:	5b 00 00 00 00 02 02 05 	slt $2,$5,$2
  402f20:	05 00 00 00 16 00 00 02 	beq $2,$0,402f80 <wavnum_+0xc90>
  402f28:	05 00 00 00 1e 00 00 03 	beq $3,$0,402fa8 <wavnum_+0xcb8>
  402f30:	5c 00 00 00 02 00 02 03 	slti $2,$3,2
  402f38:	06 00 00 00 10 00 00 02 	bne $2,$0,402f80 <wavnum_+0xc90>
  402f40:	5c 00 00 00 03 00 02 03 	slti $2,$3,3
  402f48:	06 00 00 00 06 00 00 02 	bne $2,$0,402f68 <wavnum_+0xc78>
  402f50:	37 00 00 00 08 00 00 06 	s.d $f0,8($6)
  402f58:	43 00 00 00 08 00 04 04 	addiu $4,$4,8
  402f60:	43 00 00 00 02 00 05 00 	addiu $5,$0,2
  402f68:	37 00 00 00 00 00 00 04 	s.d $f0,0($4)
  402f70:	43 00 00 00 08 00 04 04 	addiu $4,$4,8
  402f78:	43 00 00 00 01 00 05 05 	addiu $5,$5,1
  402f80:	37 00 00 00 00 00 00 04 	s.d $f0,0($4)
  402f88:	43 00 00 00 08 00 04 04 	addiu $4,$4,8
  402f90:	43 00 00 00 01 00 05 05 	addiu $5,$5,1
  402f98:	5b 00 00 00 00 03 05 07 	slt $3,$7,$5
  402fa0:	06 00 00 00 12 00 00 03 	bne $3,$0,402ff0 <wavnum_+0xd00>
  402fa8:	42 00 00 00 00 02 04 00 	addu $2,$0,$4
  402fb0:	37 00 00 00 00 00 00 02 	s.d $f0,0($2)
  402fb8:	37 00 00 00 08 00 00 02 	s.d $f0,8($2)
  402fc0:	37 00 00 00 10 00 00 02 	s.d $f0,16($2)
  402fc8:	37 00 00 00 18 00 00 02 	s.d $f0,24($2)
  402fd0:	43 00 00 00 20 00 02 02 	addiu $2,$2,32
  402fd8:	43 00 00 00 04 00 05 05 	addiu $5,$5,4
  402fe0:	5b 00 00 00 00 03 05 07 	slt $3,$7,$5
  402fe8:	05 00 00 00 f0 ff 00 03 	beq $3,$0,402fb0 <wavnum_+0xcc0>
  402ff0:	a2 00 00 00 c6 10 07 00 	lui $7,4294
  402ff8:	28 00 00 00 28 64 07 07 	lw $7,25640($7)
  403000:	43 00 00 00 01 00 05 00 	addiu $5,$0,1
  403008:	07 00 00 00 42 00 00 07 	blez $7,403118 <wavnum_+0xe28>
  403010:	a2 00 00 00 00 10 06 00 	lui $6,4096
  403018:	43 00 00 00 28 59 06 06 	addiu $6,$6,22824
  403020:	43 00 00 00 08 00 04 06 	addiu $4,$6,8
  403028:	2b 00 00 00 60 80 00 1c 	l.d $f0,-32672($28)
  403030:	43 00 00 00 01 00 02 07 	addiu $2,$7,1
  403038:	4f 00 00 00 03 00 03 07 	andi $3,$7,3
  403040:	5b 00 00 00 00 02 02 05 	slt $2,$5,$2
  403048:	05 00 00 00 16 00 00 02 	beq $2,$0,4030a8 <wavnum_+0xdb8>
  403050:	05 00 00 00 1e 00 00 03 	beq $3,$0,4030d0 <wavnum_+0xde0>
  403058:	5c 00 00 00 02 00 02 03 	slti $2,$3,2
  403060:	06 00 00 00 10 00 00 02 	bne $2,$0,4030a8 <wavnum_+0xdb8>
  403068:	5c 00 00 00 03 00 02 03 	slti $2,$3,3
  403070:	06 00 00 00 06 00 00 02 	bne $2,$0,403090 <wavnum_+0xda0>
  403078:	37 00 00 00 08 00 00 06 	s.d $f0,8($6)
  403080:	43 00 00 00 08 00 04 04 	addiu $4,$4,8
  403088:	43 00 00 00 02 00 05 00 	addiu $5,$0,2
  403090:	37 00 00 00 00 00 00 04 	s.d $f0,0($4)
  403098:	43 00 00 00 08 00 04 04 	addiu $4,$4,8
  4030a0:	43 00 00 00 01 00 05 05 	addiu $5,$5,1
  4030a8:	37 00 00 00 00 00 00 04 	s.d $f0,0($4)
  4030b0:	43 00 00 00 08 00 04 04 	addiu $4,$4,8
  4030b8:	43 00 00 00 01 00 05 05 	addiu $5,$5,1
  4030c0:	5b 00 00 00 00 03 05 07 	slt $3,$7,$5
  4030c8:	06 00 00 00 12 00 00 03 	bne $3,$0,403118 <wavnum_+0xe28>
  4030d0:	42 00 00 00 00 02 04 00 	addu $2,$0,$4
  4030d8:	37 00 00 00 00 00 00 02 	s.d $f0,0($2)
  4030e0:	37 00 00 00 08 00 00 02 	s.d $f0,8($2)
  4030e8:	37 00 00 00 10 00 00 02 	s.d $f0,16($2)
  4030f0:	37 00 00 00 18 00 00 02 	s.d $f0,24($2)
  4030f8:	43 00 00 00 20 00 02 02 	addiu $2,$2,32
  403100:	43 00 00 00 04 00 05 05 	addiu $5,$5,4
  403108:	5b 00 00 00 00 03 05 07 	slt $3,$7,$5
  403110:	05 00 00 00 f0 ff 00 03 	beq $3,$0,4030d8 <wavnum_+0xde8>
  403118:	a2 00 00 00 c6 10 04 00 	lui $4,4294
  403120:	28 00 00 00 30 64 04 04 	lw $4,25648($4)
  403128:	a5 00 00 00 00 00 04 00 	mtc1 $4,$f0
  403130:	81 00 00 00 00 00 00 00 	cvt.s.w $f0,$f0
  403138:	82 00 00 00 00 00 00 00 	cvt.d.s $f0,$f0
  403140:	71 00 00 00 00 00 00 00 	add.d $f0,$f0,$f0
  403148:	2b 00 00 00 68 80 02 1c 	l.d $f2,-32664($28)
  403150:	77 00 00 00 00 04 02 00 	div.d $f4,$f0,$f2
  403158:	a2 00 00 00 c6 10 02 00 	lui $2,4294
  403160:	28 00 00 00 24 64 02 02 	lw $2,25636($2)
  403168:	57 00 00 00 1f 03 02 00 	srl $3,$2,0x1f
  403170:	42 00 00 00 00 02 03 02 	addu $2,$2,$3
  403178:	59 00 00 00 01 02 02 00 	sra $2,$2,0x1
  403180:	43 00 00 00 01 00 02 02 	addiu $2,$2,1
  403188:	a5 00 00 00 00 00 02 00 	mtc1 $2,$f0
  403190:	81 00 00 00 00 00 00 00 	cvt.s.w $f0,$f0
  403198:	82 00 00 00 00 00 00 00 	cvt.d.s $f0,$f0
  4031a0:	71 00 00 00 00 00 00 00 	add.d $f0,$f0,$f0
  4031a8:	77 00 00 00 00 06 02 00 	div.d $f6,$f0,$f2
  4031b0:	a2 00 00 00 c6 10 02 00 	lui $2,4294
  4031b8:	28 00 00 00 28 64 02 02 	lw $2,25640($2)
  4031c0:	57 00 00 00 1f 03 02 00 	srl $3,$2,0x1f
  4031c8:	42 00 00 00 00 02 03 02 	addu $2,$2,$3
  4031d0:	59 00 00 00 01 02 02 00 	sra $2,$2,0x1
  4031d8:	43 00 00 00 01 00 02 02 	addiu $2,$2,1
  4031e0:	a5 00 00 00 00 00 02 00 	mtc1 $2,$f0
  4031e8:	81 00 00 00 00 00 00 00 	cvt.s.w $f0,$f0
  4031f0:	82 00 00 00 00 00 00 00 	cvt.d.s $f0,$f0
  4031f8:	71 00 00 00 00 00 00 00 	add.d $f0,$f0,$f0
  403200:	77 00 00 00 00 02 02 00 	div.d $f2,$f0,$f2
  403208:	28 00 00 00 b0 8d 03 1c 	lw $3,-29264($28)
  403210:	43 00 00 00 01 00 02 00 	addiu $2,$0,1
  403218:	06 00 00 00 80 02 02 03 	bne $3,$2,403c20 <wavnum_+0x1930>
  403220:	42 00 00 00 00 07 04 00 	addu $7,$0,$4
  403228:	43 00 00 00 01 00 05 00 	addiu $5,$0,1
  403230:	07 00 00 00 ce 00 00 07 	blez $7,403570 <wavnum_+0x1280>
  403238:	a2 00 00 00 00 10 04 00 	lui $4,4096
  403240:	43 00 00 00 20 51 04 04 	addiu $4,$4,20768
  403248:	a2 00 00 00 8c 11 08 00 	lui $8,4492
  403250:	43 00 00 00 48 64 08 08 	addiu $8,$8,25672
  403258:	43 00 00 00 08 00 06 08 	addiu $6,$8,8
  403260:	a5 00 00 00 00 00 00 08 	mtc1 $0,$f8
  403268:	a5 00 00 00 00 00 00 09 	mtc1 $0,$f9
  403270:	43 00 00 00 01 00 02 07 	addiu $2,$7,1
  403278:	4f 00 00 00 03 00 03 07 	andi $3,$7,3
  403280:	5b 00 00 00 00 02 02 05 	slt $2,$5,$2
  403288:	05 00 00 00 3e 00 00 02 	beq $2,$0,403388 <wavnum_+0x1098>
  403290:	05 00 00 00 5a 00 00 03 	beq $3,$0,403400 <wavnum_+0x1110>
  403298:	5c 00 00 00 02 00 02 03 	slti $2,$3,2
  4032a0:	06 00 00 00 38 00 00 02 	bne $2,$0,403388 <wavnum_+0x1098>
  4032a8:	5c 00 00 00 03 00 02 03 	slti $2,$3,3
  4032b0:	06 00 00 00 1a 00 00 02 	bne $2,$0,403320 <wavnum_+0x1030>
  4032b8:	2b 00 00 00 08 00 00 08 	l.d $f0,8($8)
  4032c0:	95 00 00 00 00 00 00 08 	c.le.d $f8,$f0
  4032c8:	0b 00 00 00 06 00 00 00 	bc1f 4032e8 <wavnum_+0xff8>
  4032d0:	93 00 00 00 00 00 00 04 	c.lt.d $f4,$f0
  4032d8:	0c 00 00 00 08 00 00 00 	bc1t 403300 <wavnum_+0x1010>
  4032e0:	01 00 00 00 c2 0c 10 00 	j 403308 <wavnum_+0x1018>
  4032e8:	7d 00 00 00 00 00 00 00 	neg.d $f0,$f0
  4032f0:	93 00 00 00 00 00 00 04 	c.lt.d $f4,$f0
  4032f8:	0b 00 00 00 02 00 00 00 	bc1f 403308 <wavnum_+0x1018>
  403300:	38 00 00 00 00 00 00 04 	dsz 0($4)
  403308:	43 00 00 00 08 00 04 04 	addiu $4,$4,8
  403310:	43 00 00 00 08 00 06 06 	addiu $6,$6,8
  403318:	43 00 00 00 01 00 05 05 	addiu $5,$5,1
  403320:	2b 00 00 00 00 00 00 06 	l.d $f0,0($6)
  403328:	95 00 00 00 00 00 00 08 	c.le.d $f8,$f0
  403330:	0b 00 00 00 06 00 00 00 	bc1f 403350 <wavnum_+0x1060>
  403338:	93 00 00 00 00 00 00 04 	c.lt.d $f4,$f0
  403340:	0c 00 00 00 08 00 00 00 	bc1t 403368 <wavnum_+0x1078>
  403348:	01 00 00 00 dc 0c 10 00 	j 403370 <wavnum_+0x1080>
  403350:	7d 00 00 00 00 00 00 00 	neg.d $f0,$f0
  403358:	93 00 00 00 00 00 00 04 	c.lt.d $f4,$f0
  403360:	0b 00 00 00 02 00 00 00 	bc1f 403370 <wavnum_+0x1080>
  403368:	38 00 00 00 00 00 00 04 	dsz 0($4)
  403370:	43 00 00 00 08 00 04 04 	addiu $4,$4,8
  403378:	43 00 00 00 08 00 06 06 	addiu $6,$6,8
  403380:	43 00 00 00 01 00 05 05 	addiu $5,$5,1
  403388:	2b 00 00 00 00 00 00 06 	l.d $f0,0($6)
  403390:	95 00 00 00 00 00 00 08 	c.le.d $f8,$f0
  403398:	0b 00 00 00 06 00 00 00 	bc1f 4033b8 <wavnum_+0x10c8>
  4033a0:	93 00 00 00 00 00 00 04 	c.lt.d $f4,$f0
  4033a8:	0c 00 00 00 08 00 00 00 	bc1t 4033d0 <wavnum_+0x10e0>
  4033b0:	01 00 00 00 f6 0c 10 00 	j 4033d8 <wavnum_+0x10e8>
  4033b8:	7d 00 00 00 00 00 00 00 	neg.d $f0,$f0
  4033c0:	93 00 00 00 00 00 00 04 	c.lt.d $f4,$f0
  4033c8:	0b 00 00 00 02 00 00 00 	bc1f 4033d8 <wavnum_+0x10e8>
  4033d0:	38 00 00 00 00 00 00 04 	dsz 0($4)
  4033d8:	43 00 00 00 08 00 04 04 	addiu $4,$4,8
  4033e0:	43 00 00 00 08 00 06 06 	addiu $6,$6,8
  4033e8:	43 00 00 00 01 00 05 05 	addiu $5,$5,1
  4033f0:	5b 00 00 00 00 02 05 07 	slt $2,$7,$5
  4033f8:	06 00 00 00 5c 00 00 02 	bne $2,$0,403570 <wavnum_+0x1280>
  403400:	42 00 00 00 00 03 06 00 	addu $3,$0,$6
  403408:	2b 00 00 00 00 00 00 03 	l.d $f0,0($3)
  403410:	95 00 00 00 00 00 00 08 	c.le.d $f8,$f0
  403418:	0b 00 00 00 06 00 00 00 	bc1f 403438 <wavnum_+0x1148>
  403420:	93 00 00 00 00 00 00 04 	c.lt.d $f4,$f0
  403428:	0c 00 00 00 08 00 00 00 	bc1t 403450 <wavnum_+0x1160>
  403430:	01 00 00 00 16 0d 10 00 	j 403458 <wavnum_+0x1168>
  403438:	7d 00 00 00 00 00 00 00 	neg.d $f0,$f0
  403440:	93 00 00 00 00 00 00 04 	c.lt.d $f4,$f0
  403448:	0b 00 00 00 02 00 00 00 	bc1f 403458 <wavnum_+0x1168>
  403450:	38 00 00 00 00 00 00 04 	dsz 0($4)
  403458:	2b 00 00 00 08 00 00 03 	l.d $f0,8($3)
  403460:	95 00 00 00 00 00 00 08 	c.le.d $f8,$f0
  403468:	0b 00 00 00 06 00 00 00 	bc1f 403488 <wavnum_+0x1198>
  403470:	93 00 00 00 00 00 00 04 	c.lt.d $f4,$f0
  403478:	0c 00 00 00 08 00 00 00 	bc1t 4034a0 <wavnum_+0x11b0>
  403480:	01 00 00 00 2a 0d 10 00 	j 4034a8 <wavnum_+0x11b8>
  403488:	7d 00 00 00 00 00 00 00 	neg.d $f0,$f0
  403490:	93 00 00 00 00 00 00 04 	c.lt.d $f4,$f0
  403498:	0b 00 00 00 02 00 00 00 	bc1f 4034a8 <wavnum_+0x11b8>
  4034a0:	38 00 00 00 08 00 00 04 	dsz 8($4)
  4034a8:	2b 00 00 00 10 00 00 03 	l.d $f0,16($3)
  4034b0:	95 00 00 00 00 00 00 08 	c.le.d $f8,$f0
  4034b8:	0b 00 00 00 06 00 00 00 	bc1f 4034d8 <wavnum_+0x11e8>
  4034c0:	93 00 00 00 00 00 00 04 	c.lt.d $f4,$f0
  4034c8:	0c 00 00 00 08 00 00 00 	bc1t 4034f0 <wavnum_+0x1200>
  4034d0:	01 00 00 00 3e 0d 10 00 	j 4034f8 <wavnum_+0x1208>
  4034d8:	7d 00 00 00 00 00 00 00 	neg.d $f0,$f0
  4034e0:	93 00 00 00 00 00 00 04 	c.lt.d $f4,$f0
  4034e8:	0b 00 00 00 02 00 00 00 	bc1f 4034f8 <wavnum_+0x1208>
  4034f0:	38 00 00 00 10 00 00 04 	dsz 16($4)
  4034f8:	2b 00 00 00 18 00 00 03 	l.d $f0,24($3)
  403500:	95 00 00 00 00 00 00 08 	c.le.d $f8,$f0
  403508:	0b 00 00 00 06 00 00 00 	bc1f 403528 <wavnum_+0x1238>
  403510:	93 00 00 00 00 00 00 04 	c.lt.d $f4,$f0
  403518:	0c 00 00 00 08 00 00 00 	bc1t 403540 <wavnum_+0x1250>
  403520:	01 00 00 00 52 0d 10 00 	j 403548 <wavnum_+0x1258>
  403528:	7d 00 00 00 00 00 00 00 	neg.d $f0,$f0
  403530:	93 00 00 00 00 00 00 04 	c.lt.d $f4,$f0
  403538:	0b 00 00 00 02 00 00 00 	bc1f 403548 <wavnum_+0x1258>
  403540:	38 00 00 00 18 00 00 04 	dsz 24($4)
  403548:	43 00 00 00 20 00 04 04 	addiu $4,$4,32
  403550:	43 00 00 00 20 00 03 03 	addiu $3,$3,32
  403558:	43 00 00 00 04 00 05 05 	addiu $5,$5,4
  403560:	5b 00 00 00 00 02 05 07 	slt $2,$7,$5
  403568:	05 00 00 00 a6 ff 00 02 	beq $2,$0,403408 <wavnum_+0x1118>
  403570:	a2 00 00 00 c6 10 07 00 	lui $7,4294
  403578:	28 00 00 00 24 64 07 07 	lw $7,25636($7)
  403580:	43 00 00 00 01 00 05 00 	addiu $5,$0,1
  403588:	07 00 00 00 ce 00 00 07 	blez $7,4038c8 <wavnum_+0x15d8>
  403590:	a2 00 00 00 00 10 04 00 	lui $4,4096
  403598:	43 00 00 00 28 55 04 04 	addiu $4,$4,21800
  4035a0:	a2 00 00 00 8c 11 08 00 	lui $8,4492
  4035a8:	43 00 00 00 50 68 08 08 	addiu $8,$8,26704
  4035b0:	43 00 00 00 08 00 06 08 	addiu $6,$8,8
  4035b8:	a5 00 00 00 00 00 00 04 	mtc1 $0,$f4
  4035c0:	a5 00 00 00 00 00 00 05 	mtc1 $0,$f5
  4035c8:	43 00 00 00 01 00 02 07 	addiu $2,$7,1
  4035d0:	4f 00 00 00 03 00 03 07 	andi $3,$7,3
  4035d8:	5b 00 00 00 00 02 02 05 	slt $2,$5,$2
  4035e0:	05 00 00 00 3e 00 00 02 	beq $2,$0,4036e0 <wavnum_+0x13f0>
  4035e8:	05 00 00 00 5a 00 00 03 	beq $3,$0,403758 <wavnum_+0x1468>
  4035f0:	5c 00 00 00 02 00 02 03 	slti $2,$3,2
  4035f8:	06 00 00 00 38 00 00 02 	bne $2,$0,4036e0 <wavnum_+0x13f0>
  403600:	5c 00 00 00 03 00 02 03 	slti $2,$3,3
  403608:	06 00 00 00 1a 00 00 02 	bne $2,$0,403678 <wavnum_+0x1388>
  403610:	2b 00 00 00 08 00 00 08 	l.d $f0,8($8)
  403618:	95 00 00 00 00 00 00 04 	c.le.d $f4,$f0
  403620:	0b 00 00 00 06 00 00 00 	bc1f 403640 <wavnum_+0x1350>
  403628:	93 00 00 00 00 00 00 06 	c.lt.d $f6,$f0
  403630:	0c 00 00 00 08 00 00 00 	bc1t 403658 <wavnum_+0x1368>
  403638:	01 00 00 00 98 0d 10 00 	j 403660 <wavnum_+0x1370>
  403640:	7d 00 00 00 00 00 00 00 	neg.d $f0,$f0
  403648:	93 00 00 00 00 00 00 06 	c.lt.d $f6,$f0
  403650:	0b 00 00 00 02 00 00 00 	bc1f 403660 <wavnum_+0x1370>
  403658:	38 00 00 00 00 00 00 04 	dsz 0($4)
  403660:	43 00 00 00 08 00 04 04 	addiu $4,$4,8
  403668:	43 00 00 00 08 00 06 06 	addiu $6,$6,8
  403670:	43 00 00 00 01 00 05 05 	addiu $5,$5,1
  403678:	2b 00 00 00 00 00 00 06 	l.d $f0,0($6)
  403680:	95 00 00 00 00 00 00 04 	c.le.d $f4,$f0
  403688:	0b 00 00 00 06 00 00 00 	bc1f 4036a8 <wavnum_+0x13b8>
  403690:	93 00 00 00 00 00 00 06 	c.lt.d $f6,$f0
  403698:	0c 00 00 00 08 00 00 00 	bc1t 4036c0 <wavnum_+0x13d0>
  4036a0:	01 00 00 00 b2 0d 10 00 	j 4036c8 <wavnum_+0x13d8>
  4036a8:	7d 00 00 00 00 00 00 00 	neg.d $f0,$f0
  4036b0:	93 00 00 00 00 00 00 06 	c.lt.d $f6,$f0
  4036b8:	0b 00 00 00 02 00 00 00 	bc1f 4036c8 <wavnum_+0x13d8>
  4036c0:	38 00 00 00 00 00 00 04 	dsz 0($4)
  4036c8:	43 00 00 00 08 00 04 04 	addiu $4,$4,8
  4036d0:	43 00 00 00 08 00 06 06 	addiu $6,$6,8
  4036d8:	43 00 00 00 01 00 05 05 	addiu $5,$5,1
  4036e0:	2b 00 00 00 00 00 00 06 	l.d $f0,0($6)
  4036e8:	95 00 00 00 00 00 00 04 	c.le.d $f4,$f0
  4036f0:	0b 00 00 00 06 00 00 00 	bc1f 403710 <wavnum_+0x1420>
  4036f8:	93 00 00 00 00 00 00 06 	c.lt.d $f6,$f0
  403700:	0c 00 00 00 08 00 00 00 	bc1t 403728 <wavnum_+0x1438>
  403708:	01 00 00 00 cc 0d 10 00 	j 403730 <wavnum_+0x1440>
  403710:	7d 00 00 00 00 00 00 00 	neg.d $f0,$f0
  403718:	93 00 00 00 00 00 00 06 	c.lt.d $f6,$f0
  403720:	0b 00 00 00 02 00 00 00 	bc1f 403730 <wavnum_+0x1440>
  403728:	38 00 00 00 00 00 00 04 	dsz 0($4)
  403730:	43 00 00 00 08 00 04 04 	addiu $4,$4,8
  403738:	43 00 00 00 08 00 06 06 	addiu $6,$6,8
  403740:	43 00 00 00 01 00 05 05 	addiu $5,$5,1
  403748:	5b 00 00 00 00 02 05 07 	slt $2,$7,$5
  403750:	06 00 00 00 5c 00 00 02 	bne $2,$0,4038c8 <wavnum_+0x15d8>
  403758:	42 00 00 00 00 03 06 00 	addu $3,$0,$6
  403760:	2b 00 00 00 00 00 00 03 	l.d $f0,0($3)
  403768:	95 00 00 00 00 00 00 04 	c.le.d $f4,$f0
  403770:	0b 00 00 00 06 00 00 00 	bc1f 403790 <wavnum_+0x14a0>
  403778:	93 00 00 00 00 00 00 06 	c.lt.d $f6,$f0
  403780:	0c 00 00 00 08 00 00 00 	bc1t 4037a8 <wavnum_+0x14b8>
  403788:	01 00 00 00 ec 0d 10 00 	j 4037b0 <wavnum_+0x14c0>
  403790:	7d 00 00 00 00 00 00 00 	neg.d $f0,$f0
  403798:	93 00 00 00 00 00 00 06 	c.lt.d $f6,$f0
  4037a0:	0b 00 00 00 02 00 00 00 	bc1f 4037b0 <wavnum_+0x14c0>
  4037a8:	38 00 00 00 00 00 00 04 	dsz 0($4)
  4037b0:	2b 00 00 00 08 00 00 03 	l.d $f0,8($3)
  4037b8:	95 00 00 00 00 00 00 04 	c.le.d $f4,$f0
  4037c0:	0b 00 00 00 06 00 00 00 	bc1f 4037e0 <wavnum_+0x14f0>
  4037c8:	93 00 00 00 00 00 00 06 	c.lt.d $f6,$f0
  4037d0:	0c 00 00 00 08 00 00 00 	bc1t 4037f8 <wavnum_+0x1508>
  4037d8:	01 00 00 00 00 0e 10 00 	j 403800 <wavnum_+0x1510>
  4037e0:	7d 00 00 00 00 00 00 00 	neg.d $f0,$f0
  4037e8:	93 00 00 00 00 00 00 06 	c.lt.d $f6,$f0
  4037f0:	0b 00 00 00 02 00 00 00 	bc1f 403800 <wavnum_+0x1510>
  4037f8:	38 00 00 00 08 00 00 04 	dsz 8($4)
  403800:	2b 00 00 00 10 00 00 03 	l.d $f0,16($3)
  403808:	95 00 00 00 00 00 00 04 	c.le.d $f4,$f0
  403810:	0b 00 00 00 06 00 00 00 	bc1f 403830 <wavnum_+0x1540>
  403818:	93 00 00 00 00 00 00 06 	c.lt.d $f6,$f0
  403820:	0c 00 00 00 08 00 00 00 	bc1t 403848 <wavnum_+0x1558>
  403828:	01 00 00 00 14 0e 10 00 	j 403850 <wavnum_+0x1560>
  403830:	7d 00 00 00 00 00 00 00 	neg.d $f0,$f0
  403838:	93 00 00 00 00 00 00 06 	c.lt.d $f6,$f0
  403840:	0b 00 00 00 02 00 00 00 	bc1f 403850 <wavnum_+0x1560>
  403848:	38 00 00 00 10 00 00 04 	dsz 16($4)
  403850:	2b 00 00 00 18 00 00 03 	l.d $f0,24($3)
  403858:	95 00 00 00 00 00 00 04 	c.le.d $f4,$f0
  403860:	0b 00 00 00 06 00 00 00 	bc1f 403880 <wavnum_+0x1590>
  403868:	93 00 00 00 00 00 00 06 	c.lt.d $f6,$f0
  403870:	0c 00 00 00 08 00 00 00 	bc1t 403898 <wavnum_+0x15a8>
  403878:	01 00 00 00 28 0e 10 00 	j 4038a0 <wavnum_+0x15b0>
  403880:	7d 00 00 00 00 00 00 00 	neg.d $f0,$f0
  403888:	93 00 00 00 00 00 00 06 	c.lt.d $f6,$f0
  403890:	0b 00 00 00 02 00 00 00 	bc1f 4038a0 <wavnum_+0x15b0>
  403898:	38 00 00 00 18 00 00 04 	dsz 24($4)
  4038a0:	43 00 00 00 20 00 04 04 	addiu $4,$4,32
  4038a8:	43 00 00 00 20 00 03 03 	addiu $3,$3,32
  4038b0:	43 00 00 00 04 00 05 05 	addiu $5,$5,4
  4038b8:	5b 00 00 00 00 02 05 07 	slt $2,$7,$5
  4038c0:	05 00 00 00 a6 ff 00 02 	beq $2,$0,403760 <wavnum_+0x1470>
  4038c8:	a2 00 00 00 c6 10 07 00 	lui $7,4294
  4038d0:	28 00 00 00 28 64 07 07 	lw $7,25640($7)
  4038d8:	43 00 00 00 01 00 05 00 	addiu $5,$0,1
  4038e0:	07 00 00 00 ce 00 00 07 	blez $7,403c20 <wavnum_+0x1930>
  4038e8:	a2 00 00 00 00 10 04 00 	lui $4,4096
  4038f0:	43 00 00 00 30 59 04 04 	addiu $4,$4,22832
  4038f8:	a2 00 00 00 8c 11 08 00 	lui $8,4492
  403900:	43 00 00 00 58 6c 08 08 	addiu $8,$8,27736
  403908:	43 00 00 00 08 00 06 08 	addiu $6,$8,8
  403910:	a5 00 00 00 00 00 00 04 	mtc1 $0,$f4
  403918:	a5 00 00 00 00 00 00 05 	mtc1 $0,$f5
  403920:	43 00 00 00 01 00 02 07 	addiu $2,$7,1
  403928:	4f 00 00 00 03 00 03 07 	andi $3,$7,3
  403930:	5b 00 00 00 00 02 02 05 	slt $2,$5,$2
  403938:	05 00 00 00 3e 00 00 02 	beq $2,$0,403a38 <wavnum_+0x1748>
  403940:	05 00 00 00 5a 00 00 03 	beq $3,$0,403ab0 <wavnum_+0x17c0>
  403948:	5c 00 00 00 02 00 02 03 	slti $2,$3,2
  403950:	06 00 00 00 38 00 00 02 	bne $2,$0,403a38 <wavnum_+0x1748>
  403958:	5c 00 00 00 03 00 02 03 	slti $2,$3,3
  403960:	06 00 00 00 1a 00 00 02 	bne $2,$0,4039d0 <wavnum_+0x16e0>
  403968:	2b 00 00 00 08 00 00 08 	l.d $f0,8($8)
  403970:	95 00 00 00 00 00 00 04 	c.le.d $f4,$f0
  403978:	0b 00 00 00 06 00 00 00 	bc1f 403998 <wavnum_+0x16a8>
  403980:	93 00 00 00 00 00 00 02 	c.lt.d $f2,$f0
  403988:	0c 00 00 00 08 00 00 00 	bc1t 4039b0 <wavnum_+0x16c0>
  403990:	01 00 00 00 6e 0e 10 00 	j 4039b8 <wavnum_+0x16c8>
  403998:	7d 00 00 00 00 00 00 00 	neg.d $f0,$f0
  4039a0:	93 00 00 00 00 00 00 02 	c.lt.d $f2,$f0
  4039a8:	0b 00 00 00 02 00 00 00 	bc1f 4039b8 <wavnum_+0x16c8>
  4039b0:	38 00 00 00 00 00 00 04 	dsz 0($4)
  4039b8:	43 00 00 00 08 00 04 04 	addiu $4,$4,8
  4039c0:	43 00 00 00 08 00 06 06 	addiu $6,$6,8
  4039c8:	43 00 00 00 01 00 05 05 	addiu $5,$5,1
  4039d0:	2b 00 00 00 00 00 00 06 	l.d $f0,0($6)
  4039d8:	95 00 00 00 00 00 00 04 	c.le.d $f4,$f0
  4039e0:	0b 00 00 00 06 00 00 00 	bc1f 403a00 <wavnum_+0x1710>
  4039e8:	93 00 00 00 00 00 00 02 	c.lt.d $f2,$f0
  4039f0:	0c 00 00 00 08 00 00 00 	bc1t 403a18 <wavnum_+0x1728>
  4039f8:	01 00 00 00 88 0e 10 00 	j 403a20 <wavnum_+0x1730>
  403a00:	7d 00 00 00 00 00 00 00 	neg.d $f0,$f0
  403a08:	93 00 00 00 00 00 00 02 	c.lt.d $f2,$f0
  403a10:	0b 00 00 00 02 00 00 00 	bc1f 403a20 <wavnum_+0x1730>
  403a18:	38 00 00 00 00 00 00 04 	dsz 0($4)
  403a20:	43 00 00 00 08 00 04 04 	addiu $4,$4,8
  403a28:	43 00 00 00 08 00 06 06 	addiu $6,$6,8
  403a30:	43 00 00 00 01 00 05 05 	addiu $5,$5,1
  403a38:	2b 00 00 00 00 00 00 06 	l.d $f0,0($6)
  403a40:	95 00 00 00 00 00 00 04 	c.le.d $f4,$f0
  403a48:	0b 00 00 00 06 00 00 00 	bc1f 403a68 <wavnum_+0x1778>
  403a50:	93 00 00 00 00 00 00 02 	c.lt.d $f2,$f0
  403a58:	0c 00 00 00 08 00 00 00 	bc1t 403a80 <wavnum_+0x1790>
  403a60:	01 00 00 00 a2 0e 10 00 	j 403a88 <wavnum_+0x1798>
  403a68:	7d 00 00 00 00 00 00 00 	neg.d $f0,$f0
  403a70:	93 00 00 00 00 00 00 02 	c.lt.d $f2,$f0
  403a78:	0b 00 00 00 02 00 00 00 	bc1f 403a88 <wavnum_+0x1798>
  403a80:	38 00 00 00 00 00 00 04 	dsz 0($4)
  403a88:	43 00 00 00 08 00 04 04 	addiu $4,$4,8
  403a90:	43 00 00 00 08 00 06 06 	addiu $6,$6,8
  403a98:	43 00 00 00 01 00 05 05 	addiu $5,$5,1
  403aa0:	5b 00 00 00 00 02 05 07 	slt $2,$7,$5
  403aa8:	06 00 00 00 5c 00 00 02 	bne $2,$0,403c20 <wavnum_+0x1930>
  403ab0:	42 00 00 00 00 03 06 00 	addu $3,$0,$6
  403ab8:	2b 00 00 00 00 00 00 03 	l.d $f0,0($3)
  403ac0:	95 00 00 00 00 00 00 04 	c.le.d $f4,$f0
  403ac8:	0b 00 00 00 06 00 00 00 	bc1f 403ae8 <wavnum_+0x17f8>
  403ad0:	93 00 00 00 00 00 00 02 	c.lt.d $f2,$f0
  403ad8:	0c 00 00 00 08 00 00 00 	bc1t 403b00 <wavnum_+0x1810>
  403ae0:	01 00 00 00 c2 0e 10 00 	j 403b08 <wavnum_+0x1818>
  403ae8:	7d 00 00 00 00 00 00 00 	neg.d $f0,$f0
  403af0:	93 00 00 00 00 00 00 02 	c.lt.d $f2,$f0
  403af8:	0b 00 00 00 02 00 00 00 	bc1f 403b08 <wavnum_+0x1818>
  403b00:	38 00 00 00 00 00 00 04 	dsz 0($4)
  403b08:	2b 00 00 00 08 00 00 03 	l.d $f0,8($3)
  403b10:	95 00 00 00 00 00 00 04 	c.le.d $f4,$f0
  403b18:	0b 00 00 00 06 00 00 00 	bc1f 403b38 <wavnum_+0x1848>
  403b20:	93 00 00 00 00 00 00 02 	c.lt.d $f2,$f0
  403b28:	0c 00 00 00 08 00 00 00 	bc1t 403b50 <wavnum_+0x1860>
  403b30:	01 00 00 00 d6 0e 10 00 	j 403b58 <wavnum_+0x1868>
  403b38:	7d 00 00 00 00 00 00 00 	neg.d $f0,$f0
  403b40:	93 00 00 00 00 00 00 02 	c.lt.d $f2,$f0
  403b48:	0b 00 00 00 02 00 00 00 	bc1f 403b58 <wavnum_+0x1868>
  403b50:	38 00 00 00 08 00 00 04 	dsz 8($4)
  403b58:	2b 00 00 00 10 00 00 03 	l.d $f0,16($3)
  403b60:	95 00 00 00 00 00 00 04 	c.le.d $f4,$f0
  403b68:	0b 00 00 00 06 00 00 00 	bc1f 403b88 <wavnum_+0x1898>
  403b70:	93 00 00 00 00 00 00 02 	c.lt.d $f2,$f0
  403b78:	0c 00 00 00 08 00 00 00 	bc1t 403ba0 <wavnum_+0x18b0>
  403b80:	01 00 00 00 ea 0e 10 00 	j 403ba8 <wavnum_+0x18b8>
  403b88:	7d 00 00 00 00 00 00 00 	neg.d $f0,$f0
  403b90:	93 00 00 00 00 00 00 02 	c.lt.d $f2,$f0
  403b98:	0b 00 00 00 02 00 00 00 	bc1f 403ba8 <wavnum_+0x18b8>
  403ba0:	38 00 00 00 10 00 00 04 	dsz 16($4)
  403ba8:	2b 00 00 00 18 00 00 03 	l.d $f0,24($3)
  403bb0:	95 00 00 00 00 00 00 04 	c.le.d $f4,$f0
  403bb8:	0b 00 00 00 06 00 00 00 	bc1f 403bd8 <wavnum_+0x18e8>
  403bc0:	93 00 00 00 00 00 00 02 	c.lt.d $f2,$f0
  403bc8:	0c 00 00 00 08 00 00 00 	bc1t 403bf0 <wavnum_+0x1900>
  403bd0:	01 00 00 00 fe 0e 10 00 	j 403bf8 <wavnum_+0x1908>
  403bd8:	7d 00 00 00 00 00 00 00 	neg.d $f0,$f0
  403be0:	93 00 00 00 00 00 00 02 	c.lt.d $f2,$f0
  403be8:	0b 00 00 00 02 00 00 00 	bc1f 403bf8 <wavnum_+0x1908>
  403bf0:	38 00 00 00 18 00 00 04 	dsz 24($4)
  403bf8:	43 00 00 00 20 00 04 04 	addiu $4,$4,32
  403c00:	43 00 00 00 20 00 03 03 	addiu $3,$3,32
  403c08:	43 00 00 00 04 00 05 05 	addiu $5,$5,4
  403c10:	5b 00 00 00 00 02 05 07 	slt $2,$7,$5
  403c18:	05 00 00 00 a6 ff 00 02 	beq $2,$0,403ab8 <wavnum_+0x17c8>
  403c20:	42 00 00 00 00 02 00 00 	addu $2,$0,$0
  403c28:	43 00 00 00 18 00 1d 1d 	addiu $29,$29,24
  403c30:	03 00 00 00 00 00 00 1f 	jr $31

00403c38 <tgvel_>:
  403c38:	43 00 00 00 c0 ff 1d 1d 	addiu $29,$29,-64
  403c40:	34 00 00 00 20 00 10 1d 	sw $16,32($29)
  403c48:	a2 00 00 00 c6 10 10 00 	lui $16,4294
  403c50:	28 00 00 00 24 64 10 10 	lw $16,25636($16)
  403c58:	34 00 00 00 2c 00 13 1d 	sw $19,44($29)
  403c60:	a2 00 00 00 c6 10 13 00 	lui $19,4294
  403c68:	28 00 00 00 30 64 13 13 	lw $19,25648($19)
  403c70:	43 00 00 00 01 00 02 10 	addiu $2,$16,1
  403c78:	46 00 00 00 00 00 02 13 	mult $19,$2
  403c80:	2b 00 00 00 70 80 00 1c 	l.d $f0,-32656($28)
  403c88:	43 00 00 00 01 00 09 00 	addiu $9,$0,1
  403c90:	34 00 00 00 3c 00 17 1d 	sw $23,60($29)
  403c98:	34 00 00 00 38 00 16 1d 	sw $22,56($29)
  403ca0:	34 00 00 00 34 00 15 1d 	sw $21,52($29)
  403ca8:	34 00 00 00 30 00 14 1d 	sw $20,48($29)
  403cb0:	34 00 00 00 28 00 12 1d 	sw $18,40($29)
  403cb8:	34 00 00 00 24 00 11 1d 	sw $17,36($29)
  403cc0:	38 00 00 00 10 00 00 1d 	dsz 16($29)
  403cc8:	42 00 00 00 00 15 13 00 	addu $21,$0,$19
  403cd0:	42 00 00 00 00 19 15 00 	addu $25,$0,$21
  403cd8:	4c 00 00 00 00 02 00 00 	mflo $2
  403ce0:	42 00 00 00 00 14 10 00 	addu $20,$0,$16
  403ce8:	42 00 00 00 00 12 15 00 	addu $18,$0,$21
  403cf0:	37 00 00 00 18 00 00 1d 	s.d $f0,24($29)
  403cf8:	43 00 00 00 01 00 02 02 	addiu $2,$2,1
  403d00:	55 00 00 00 04 02 02 00 	sll $2,$2,0x4
  403d08:	45 00 00 00 00 11 02 06 	subu $17,$6,$2
  403d10:	45 00 00 00 00 16 02 05 	subu $22,$5,$2
  403d18:	42 00 00 00 00 05 14 00 	addu $5,$0,$20
  403d20:	45 00 00 00 00 06 02 04 	subu $6,$4,$2
  403d28:	07 00 00 00 b2 00 00 19 	blez $25,403ff8 <tgvel_+0x3c0>
  403d30:	a2 00 00 00 c6 10 17 00 	lui $23,4294
  403d38:	28 00 00 00 24 64 17 17 	lw $23,25636($23)
  403d40:	43 00 00 00 01 00 0f 00 	addiu $15,$0,1
  403d48:	07 00 00 00 a4 00 00 17 	blez $23,403fe0 <tgvel_+0x3a8>
  403d50:	a2 00 00 00 c6 10 0e 00 	lui $14,4294
  403d58:	28 00 00 00 28 64 0e 0e 	lw $14,25640($14)
  403d60:	43 00 00 00 01 00 0c 00 	addiu $12,$0,1
  403d68:	07 00 00 00 96 00 00 0e 	blez $14,403fc8 <tgvel_+0x390>
  403d70:	42 00 00 00 00 08 0f 10 	addu $8,$16,$15
  403d78:	42 00 00 00 00 07 0f 14 	addu $7,$20,$15
  403d80:	42 00 00 00 00 04 0f 05 	addu $4,$5,$15
  403d88:	43 00 00 00 01 00 02 0e 	addiu $2,$14,1
  403d90:	4f 00 00 00 01 00 03 0e 	andi $3,$14,1
  403d98:	5b 00 00 00 00 02 02 0c 	slt $2,$12,$2
  403da0:	05 00 00 00 02 00 00 02 	beq $2,$0,403db0 <tgvel_+0x178>
  403da8:	05 00 00 00 20 00 00 03 	beq $3,$0,403e30 <tgvel_+0x1f8>
  403db0:	46 00 00 00 00 00 12 04 	mult $4,$18
  403db8:	4c 00 00 00 00 02 00 00 	mflo $2
  403dc0:	46 00 00 00 00 00 15 07 	mult $7,$21
  403dc8:	4c 00 00 00 00 03 00 00 	mflo $3
  403dd0:	46 00 00 00 00 00 13 08 	mult $8,$19
  403dd8:	43 00 00 00 02 00 0c 00 	addiu $12,$0,2
  403de0:	5c 00 00 00 02 00 18 0e 	slti $24,$14,2
  403de8:	42 00 00 00 00 04 05 04 	addu $4,$4,$5
  403df0:	42 00 00 00 00 02 02 09 	addu $2,$9,$2
  403df8:	55 00 00 00 04 02 02 00 	sll $2,$2,0x4
  403e00:	42 00 00 00 00 02 06 02 	addu $2,$2,$6
  403e08:	38 00 00 00 00 00 00 02 	dsz 0($2)
  403e10:	38 00 00 00 08 00 00 02 	dsz 8($2)
  403e18:	42 00 00 00 00 07 14 07 	addu $7,$7,$20
  403e20:	42 00 00 00 00 02 03 09 	addu $2,$9,$3
  403e28:	01 00 00 00 da 0f 10 00 	j 403f68 <tgvel_+0x330>
  403e30:	46 00 00 00 00 00 12 04 	mult $4,$18
  403e38:	4c 00 00 00 00 02 00 00 	mflo $2
  403e40:	46 00 00 00 00 00 15 07 	mult $7,$21
  403e48:	4c 00 00 00 00 03 00 00 	mflo $3
  403e50:	46 00 00 00 00 00 13 08 	mult $8,$19
  403e58:	4c 00 00 00 00 0b 00 00 	mflo $11
  403e60:	42 00 00 00 00 04 05 04 	addu $4,$4,$5
  403e68:	46 00 00 00 00 00 12 04 	mult $4,$18
  403e70:	4c 00 00 00 00 0d 00 00 	mflo $13
  403e78:	42 00 00 00 00 07 14 07 	addu $7,$7,$20
  403e80:	46 00 00 00 00 00 15 07 	mult $7,$21
  403e88:	43 00 00 00 02 00 0c 0c 	addiu $12,$12,2
  403e90:	5b 00 00 00 00 18 0c 0e 	slt $24,$14,$12
  403e98:	42 00 00 00 00 02 02 09 	addu $2,$9,$2
  403ea0:	55 00 00 00 04 02 02 00 	sll $2,$2,0x4
  403ea8:	42 00 00 00 00 02 06 02 	addu $2,$2,$6
  403eb0:	38 00 00 00 00 00 00 02 	dsz 0($2)
  403eb8:	38 00 00 00 08 00 00 02 	dsz 8($2)
  403ec0:	42 00 00 00 00 02 03 09 	addu $2,$9,$3
  403ec8:	4c 00 00 00 00 0a 00 00 	mflo $10
  403ed0:	55 00 00 00 04 02 02 00 	sll $2,$2,0x4
  403ed8:	42 00 00 00 00 08 10 08 	addu $8,$8,$16
  403ee0:	46 00 00 00 00 00 13 08 	mult $8,$19
  403ee8:	42 00 00 00 00 02 16 02 	addu $2,$2,$22
  403ef0:	38 00 00 00 00 00 00 02 	dsz 0($2)
  403ef8:	38 00 00 00 08 00 00 02 	dsz 8($2)
  403f00:	42 00 00 00 00 02 0b 09 	addu $2,$9,$11
  403f08:	55 00 00 00 04 02 02 00 	sll $2,$2,0x4
  403f10:	42 00 00 00 00 02 11 02 	addu $2,$2,$17
  403f18:	38 00 00 00 00 00 00 02 	dsz 0($2)
  403f20:	38 00 00 00 08 00 00 02 	dsz 8($2)
  403f28:	42 00 00 00 00 04 05 04 	addu $4,$4,$5
  403f30:	42 00 00 00 00 02 0d 09 	addu $2,$9,$13
  403f38:	55 00 00 00 04 02 02 00 	sll $2,$2,0x4
  403f40:	42 00 00 00 00 02 06 02 	addu $2,$2,$6
  403f48:	38 00 00 00 00 00 00 02 	dsz 0($2)
  403f50:	38 00 00 00 08 00 00 02 	dsz 8($2)
  403f58:	42 00 00 00 00 07 14 07 	addu $7,$7,$20
  403f60:	42 00 00 00 00 02 0a 09 	addu $2,$9,$10
  403f68:	4c 00 00 00 00 03 00 00 	mflo $3
  403f70:	55 00 00 00 04 02 02 00 	sll $2,$2,0x4
  403f78:	42 00 00 00 00 02 16 02 	addu $2,$2,$22
  403f80:	38 00 00 00 00 00 00 02 	dsz 0($2)
  403f88:	38 00 00 00 08 00 00 02 	dsz 8($2)
  403f90:	42 00 00 00 00 08 10 08 	addu $8,$8,$16
  403f98:	42 00 00 00 00 02 03 09 	addu $2,$9,$3
  403fa0:	55 00 00 00 04 02 02 00 	sll $2,$2,0x4
  403fa8:	42 00 00 00 00 02 11 02 	addu $2,$2,$17
  403fb0:	38 00 00 00 00 00 00 02 	dsz 0($2)
  403fb8:	38 00 00 00 08 00 00 02 	dsz 8($2)
  403fc0:	05 00 00 00 9a ff 00 18 	beq $24,$0,403e30 <tgvel_+0x1f8>
  403fc8:	43 00 00 00 01 00 0f 0f 	addiu $15,$15,1
  403fd0:	5b 00 00 00 00 02 0f 17 	slt $2,$23,$15
  403fd8:	05 00 00 00 5c ff 00 02 	beq $2,$0,403d50 <tgvel_+0x118>
  403fe0:	43 00 00 00 01 00 09 09 	addiu $9,$9,1
  403fe8:	5b 00 00 00 00 02 09 19 	slt $2,$25,$9
  403ff0:	05 00 00 00 4e ff 00 02 	beq $2,$0,403d30 <tgvel_+0xf8>
  403ff8:	55 00 00 00 01 03 05 00 	sll $3,$5,0x1
  404000:	43 00 00 00 02 00 02 03 	addiu $2,$3,2
  404008:	2b 00 00 00 78 80 04 1c 	l.d $f4,-32648($28)
  404010:	46 00 00 00 00 00 12 02 	mult $2,$18
  404018:	2b 00 00 00 10 00 02 1d 	l.d $f2,16($29)
  404020:	7d 00 00 00 00 06 00 04 	neg.d $f6,$f4
  404028:	75 00 00 00 00 02 06 02 	mul.d $f2,$f2,$f6
  404030:	2b 00 00 00 18 00 00 1d 	l.d $f0,24($29)
  404038:	75 00 00 00 00 00 06 00 	mul.d $f0,$f0,$f6
  404040:	4c 00 00 00 00 02 00 00 	mflo $2
  404048:	37 00 00 00 00 00 02 1d 	s.d $f2,0($29)
  404050:	37 00 00 00 08 00 00 1d 	s.d $f0,8($29)
  404058:	43 00 00 00 02 00 19 02 	addiu $25,$2,2
  404060:	55 00 00 00 04 02 19 00 	sll $2,$25,0x4
  404068:	42 00 00 00 00 02 06 02 	addu $2,$2,$6
  404070:	37 00 00 00 00 00 02 02 	s.d $f2,0($2)
  404078:	2b 00 00 00 08 00 00 1d 	l.d $f0,8($29)
  404080:	a2 00 00 00 c6 10 04 00 	lui $4,4294
  404088:	43 00 00 00 24 64 04 04 	addiu $4,$4,25636
  404090:	37 00 00 00 08 00 00 02 	s.d $f0,8($2)
  404098:	28 00 00 00 00 00 02 04 	lw $2,0($4)
  4040a0:	42 00 00 00 00 02 03 02 	addu $2,$2,$3
  4040a8:	46 00 00 00 00 00 12 02 	mult $2,$18
  4040b0:	2b 00 00 00 10 00 02 1d 	l.d $f2,16($29)
  4040b8:	75 00 00 00 00 02 04 02 	mul.d $f2,$f2,$f4
  4040c0:	2b 00 00 00 18 00 00 1d 	l.d $f0,24($29)
  4040c8:	75 00 00 00 00 00 04 00 	mul.d $f0,$f0,$f4
  4040d0:	4c 00 00 00 00 02 00 00 	mflo $2
  4040d8:	37 00 00 00 00 00 02 1d 	s.d $f2,0($29)
  4040e0:	37 00 00 00 08 00 00 1d 	s.d $f0,8($29)
  4040e8:	43 00 00 00 02 00 19 02 	addiu $25,$2,2
  4040f0:	55 00 00 00 04 02 19 00 	sll $2,$25,0x4
  4040f8:	42 00 00 00 00 02 06 02 	addu $2,$2,$6
  404100:	37 00 00 00 00 00 02 02 	s.d $f2,0($2)
  404108:	2b 00 00 00 08 00 00 1d 	l.d $f0,8($29)
  404110:	37 00 00 00 08 00 00 02 	s.d $f0,8($2)
  404118:	a2 00 00 00 c6 10 02 00 	lui $2,4294
  404120:	28 00 00 00 28 64 02 02 	lw $2,25640($2)
  404128:	46 00 00 00 00 00 05 02 	mult $2,$5
  404130:	4c 00 00 00 00 02 00 00 	mflo $2
  404138:	43 00 00 00 02 00 02 02 	addiu $2,$2,2
  404140:	46 00 00 00 00 00 12 02 	mult $2,$18
  404148:	2b 00 00 00 10 00 02 1d 	l.d $f2,16($29)
  404150:	75 00 00 00 00 02 06 02 	mul.d $f2,$f2,$f6
  404158:	2b 00 00 00 18 00 00 1d 	l.d $f0,24($29)
  404160:	75 00 00 00 00 00 06 00 	mul.d $f0,$f0,$f6
  404168:	4c 00 00 00 00 02 00 00 	mflo $2
  404170:	37 00 00 00 00 00 02 1d 	s.d $f2,0($29)
  404178:	37 00 00 00 08 00 00 1d 	s.d $f0,8($29)
  404180:	43 00 00 00 02 00 19 02 	addiu $25,$2,2
  404188:	55 00 00 00 04 02 19 00 	sll $2,$25,0x4
  404190:	42 00 00 00 00 02 06 02 	addu $2,$2,$6
  404198:	37 00 00 00 00 00 02 02 	s.d $f2,0($2)
  4041a0:	2b 00 00 00 08 00 00 1d 	l.d $f0,8($29)
  4041a8:	37 00 00 00 08 00 00 02 	s.d $f0,8($2)
  4041b0:	a2 00 00 00 c6 10 02 00 	lui $2,4294
  4041b8:	28 00 00 00 28 64 02 02 	lw $2,25640($2)
  4041c0:	46 00 00 00 00 00 05 02 	mult $2,$5
  4041c8:	4c 00 00 00 00 03 00 00 	mflo $3
  4041d0:	28 00 00 00 00 00 02 04 	lw $2,0($4)
  4041d8:	42 00 00 00 00 02 03 02 	addu $2,$2,$3
  4041e0:	46 00 00 00 00 00 12 02 	mult $2,$18
  4041e8:	2b 00 00 00 10 00 02 1d 	l.d $f2,16($29)
  4041f0:	75 00 00 00 00 02 04 02 	mul.d $f2,$f2,$f4
  4041f8:	2b 00 00 00 18 00 00 1d 	l.d $f0,24($29)
  404200:	75 00 00 00 00 00 04 00 	mul.d $f0,$f0,$f4
  404208:	4c 00 00 00 00 02 00 00 	mflo $2
  404210:	37 00 00 00 00 00 02 1d 	s.d $f2,0($29)
  404218:	37 00 00 00 08 00 00 1d 	s.d $f0,8($29)
  404220:	43 00 00 00 02 00 19 02 	addiu $25,$2,2
  404228:	55 00 00 00 04 02 19 00 	sll $2,$25,0x4
  404230:	42 00 00 00 00 02 06 02 	addu $2,$2,$6
  404238:	37 00 00 00 00 00 02 02 	s.d $f2,0($2)
  404240:	2b 00 00 00 08 00 00 1d 	l.d $f0,8($29)
  404248:	55 00 00 00 01 03 14 00 	sll $3,$20,0x1
  404250:	37 00 00 00 08 00 00 02 	s.d $f0,8($2)
  404258:	2b 00 00 00 10 00 02 1d 	l.d $f2,16($29)
  404260:	43 00 00 00 02 00 02 03 	addiu $2,$3,2
  404268:	46 00 00 00 00 00 15 02 	mult $2,$21
  404270:	75 00 00 00 00 02 04 02 	mul.d $f2,$f2,$f4
  404278:	37 00 00 00 00 00 02 1d 	s.d $f2,0($29)
  404280:	2b 00 00 00 18 00 00 1d 	l.d $f0,24($29)
  404288:	75 00 00 00 00 00 04 00 	mul.d $f0,$f0,$f4
  404290:	4c 00 00 00 00 02 00 00 	mflo $2
  404298:	43 00 00 00 02 00 19 02 	addiu $25,$2,2
  4042a0:	55 00 00 00 04 02 19 00 	sll $2,$25,0x4
  4042a8:	42 00 00 00 00 02 16 02 	addu $2,$2,$22
  4042b0:	37 00 00 00 08 00 00 1d 	s.d $f0,8($29)
  4042b8:	37 00 00 00 00 00 02 02 	s.d $f2,0($2)
  4042c0:	2b 00 00 00 08 00 00 1d 	l.d $f0,8($29)
  4042c8:	37 00 00 00 08 00 00 02 	s.d $f0,8($2)
  4042d0:	28 00 00 00 00 00 02 04 	lw $2,0($4)
  4042d8:	42 00 00 00 00 02 03 02 	addu $2,$2,$3
  4042e0:	46 00 00 00 00 00 15 02 	mult $2,$21
  4042e8:	2b 00 00 00 10 00 02 1d 	l.d $f2,16($29)
  4042f0:	75 00 00 00 00 02 04 02 	mul.d $f2,$f2,$f4
  4042f8:	2b 00 00 00 18 00 00 1d 	l.d $f0,24($29)
  404300:	75 00 00 00 00 00 04 00 	mul.d $f0,$f0,$f4
  404308:	4c 00 00 00 00 02 00 00 	mflo $2
  404310:	37 00 00 00 00 00 02 1d 	s.d $f2,0($29)
  404318:	37 00 00 00 08 00 00 1d 	s.d $f0,8($29)
  404320:	43 00 00 00 02 00 19 02 	addiu $25,$2,2
  404328:	55 00 00 00 04 02 19 00 	sll $2,$25,0x4
  404330:	42 00 00 00 00 02 16 02 	addu $2,$2,$22
  404338:	37 00 00 00 00 00 02 02 	s.d $f2,0($2)
  404340:	2b 00 00 00 08 00 00 1d 	l.d $f0,8($29)
  404348:	37 00 00 00 08 00 00 02 	s.d $f0,8($2)
  404350:	a2 00 00 00 c6 10 02 00 	lui $2,4294
  404358:	28 00 00 00 28 64 02 02 	lw $2,25640($2)
  404360:	46 00 00 00 00 00 14 02 	mult $2,$20
  404368:	4c 00 00 00 00 02 00 00 	mflo $2
  404370:	43 00 00 00 02 00 02 02 	addiu $2,$2,2
  404378:	46 00 00 00 00 00 15 02 	mult $2,$21
  404380:	2b 00 00 00 10 00 02 1d 	l.d $f2,16($29)
  404388:	75 00 00 00 00 02 04 02 	mul.d $f2,$f2,$f4
  404390:	2b 00 00 00 18 00 00 1d 	l.d $f0,24($29)
  404398:	75 00 00 00 00 00 04 00 	mul.d $f0,$f0,$f4
  4043a0:	4c 00 00 00 00 02 00 00 	mflo $2
  4043a8:	37 00 00 00 00 00 02 1d 	s.d $f2,0($29)
  4043b0:	37 00 00 00 08 00 00 1d 	s.d $f0,8($29)
  4043b8:	43 00 00 00 02 00 19 02 	addiu $25,$2,2
  4043c0:	55 00 00 00 04 02 19 00 	sll $2,$25,0x4
  4043c8:	42 00 00 00 00 02 16 02 	addu $2,$2,$22
  4043d0:	37 00 00 00 00 00 02 02 	s.d $f2,0($2)
  4043d8:	2b 00 00 00 08 00 00 1d 	l.d $f0,8($29)
  4043e0:	37 00 00 00 08 00 00 02 	s.d $f0,8($2)
  4043e8:	a2 00 00 00 c6 10 02 00 	lui $2,4294
  4043f0:	28 00 00 00 28 64 02 02 	lw $2,25640($2)
  4043f8:	46 00 00 00 00 00 14 02 	mult $2,$20
  404400:	4c 00 00 00 00 03 00 00 	mflo $3
  404408:	28 00 00 00 00 00 02 04 	lw $2,0($4)
  404410:	42 00 00 00 00 02 03 02 	addu $2,$2,$3
  404418:	46 00 00 00 00 00 15 02 	mult $2,$21
  404420:	2b 00 00 00 10 00 02 1d 	l.d $f2,16($29)
  404428:	75 00 00 00 00 02 04 02 	mul.d $f2,$f2,$f4
  404430:	2b 00 00 00 18 00 00 1d 	l.d $f0,24($29)
  404438:	75 00 00 00 00 00 04 00 	mul.d $f0,$f0,$f4
  404440:	4c 00 00 00 00 02 00 00 	mflo $2
  404448:	37 00 00 00 00 00 02 1d 	s.d $f2,0($29)
  404450:	37 00 00 00 08 00 00 1d 	s.d $f0,8($29)
  404458:	43 00 00 00 02 00 19 02 	addiu $25,$2,2
  404460:	55 00 00 00 04 02 19 00 	sll $2,$25,0x4
  404468:	42 00 00 00 00 02 16 02 	addu $2,$2,$22
  404470:	37 00 00 00 00 00 02 02 	s.d $f2,0($2)
  404478:	2b 00 00 00 08 00 00 1d 	l.d $f0,8($29)
  404480:	37 00 00 00 08 00 00 02 	s.d $f0,8($2)
  404488:	42 00 00 00 00 02 00 00 	addu $2,$0,$0
  404490:	28 00 00 00 3c 00 17 1d 	lw $23,60($29)
  404498:	28 00 00 00 38 00 16 1d 	lw $22,56($29)
  4044a0:	28 00 00 00 34 00 15 1d 	lw $21,52($29)
  4044a8:	28 00 00 00 30 00 14 1d 	lw $20,48($29)
  4044b0:	28 00 00 00 2c 00 13 1d 	lw $19,44($29)
  4044b8:	28 00 00 00 28 00 12 1d 	lw $18,40($29)
  4044c0:	28 00 00 00 24 00 11 1d 	lw $17,36($29)
  4044c8:	28 00 00 00 20 00 10 1d 	lw $16,32($29)
  4044d0:	43 00 00 00 40 00 1d 1d 	addiu $29,$29,64
  4044d8:	03 00 00 00 00 00 00 1f 	jr $31

004044e0 <wcal_>:
  4044e0:	43 00 00 00 20 ff 1d 1d 	addiu $29,$29,-224
  4044e8:	34 00 00 00 d0 00 16 1d 	sw $22,208($29)
  4044f0:	a2 00 00 00 c6 10 16 00 	lui $22,4294
  4044f8:	28 00 00 00 24 64 16 16 	lw $22,25636($22)
  404500:	34 00 00 00 cc 00 15 1d 	sw $21,204($29)
  404508:	a2 00 00 00 c6 10 15 00 	lui $21,4294
  404510:	28 00 00 00 30 64 15 15 	lw $21,25648($21)
  404518:	43 00 00 00 01 00 02 16 	addiu $2,$22,1
  404520:	46 00 00 00 00 00 02 15 	mult $21,$2
  404528:	2b 00 00 00 88 80 00 1c 	l.d $f0,-32632($28)
  404530:	28 00 00 00 f4 00 0a 1d 	lw $10,244($29)
  404538:	43 00 00 00 01 00 0b 00 	addiu $11,$0,1
  404540:	34 00 00 00 d8 00 1e 1d 	sw $30,216($29)
  404548:	34 00 00 00 d4 00 17 1d 	sw $23,212($29)
  404550:	34 00 00 00 c8 00 14 1d 	sw $20,200($29)
  404558:	34 00 00 00 c4 00 13 1d 	sw $19,196($29)
  404560:	34 00 00 00 c0 00 12 1d 	sw $18,192($29)
  404568:	34 00 00 00 bc 00 11 1d 	sw $17,188($29)
  404570:	34 00 00 00 b8 00 10 1d 	sw $16,184($29)
  404578:	38 00 00 00 40 00 00 1d 	dsz 64($29)
  404580:	42 00 00 00 00 17 16 00 	addu $23,$0,$22
  404588:	4c 00 00 00 00 02 00 00 	mflo $2
  404590:	42 00 00 00 00 12 17 00 	addu $18,$0,$23
  404598:	42 00 00 00 00 1e 12 00 	addu $30,$0,$18
  4045a0:	37 00 00 00 48 00 00 1d 	s.d $f0,72($29)
  4045a8:	34 00 00 00 90 00 15 1d 	sw $21,144($29)
  4045b0:	34 00 00 00 88 00 15 1d 	sw $21,136($29)
  4045b8:	34 00 00 00 78 00 15 1d 	sw $21,120($29)
  4045c0:	34 00 00 00 80 00 12 1d 	sw $18,128($29)
  4045c8:	34 00 00 00 68 00 15 1d 	sw $21,104($29)
  4045d0:	34 00 00 00 70 00 12 1d 	sw $18,112($29)
  4045d8:	34 00 00 00 60 00 15 1d 	sw $21,96($29)
  4045e0:	34 00 00 00 98 00 12 1d 	sw $18,152($29)
  4045e8:	43 00 00 00 01 00 02 02 	addiu $2,$2,1
  4045f0:	55 00 00 00 04 02 02 00 	sll $2,$2,0x4
  4045f8:	45 00 00 00 00 0a 02 0a 	subu $10,$10,$2
  404600:	34 00 00 00 f4 00 0a 1d 	sw $10,244($29)
  404608:	28 00 00 00 f0 00 0a 1d 	lw $10,240($29)
  404610:	45 00 00 00 00 07 02 07 	subu $7,$7,$2
  404618:	45 00 00 00 00 14 02 06 	subu $20,$6,$2
  404620:	45 00 00 00 00 13 02 05 	subu $19,$5,$2
  404628:	45 00 00 00 00 04 02 04 	subu $4,$4,$2
  404630:	34 00 00 00 58 00 07 1d 	sw $7,88($29)
  404638:	34 00 00 00 50 00 04 1d 	sw $4,80($29)
  404640:	45 00 00 00 00 0a 02 0a 	subu $10,$10,$2
  404648:	34 00 00 00 f0 00 0a 1d 	sw $10,240($29)
  404650:	07 00 00 00 88 01 00 12 	blez $18,404c78 <wcal_+0x798>
  404658:	a2 00 00 00 8c 11 02 00 	lui $2,4492
  404660:	43 00 00 00 50 68 02 02 	addiu $2,$2,26704
  404668:	43 00 00 00 08 00 02 02 	addiu $2,$2,8
  404670:	34 00 00 00 a8 00 02 1d 	sw $2,168($29)
  404678:	28 00 00 00 a8 00 0a 1d 	lw $10,168($29)
  404680:	2b 00 00 00 00 00 10 0a 	l.d $f16,0($10)
  404688:	a2 00 00 00 c6 10 0a 00 	lui $10,4294
  404690:	28 00 00 00 30 64 0a 0a 	lw $10,25648($10)
  404698:	43 00 00 00 01 00 09 00 	addiu $9,$0,1
  4046a0:	34 00 00 00 a0 00 0a 1d 	sw $10,160($29)
  4046a8:	07 00 00 00 64 01 00 0a 	blez $10,404c40 <wcal_+0x760>
  4046b0:	a2 00 00 00 8c 11 0a 00 	lui $10,4492
  4046b8:	43 00 00 00 48 64 0a 0a 	addiu $10,$10,25672
  4046c0:	43 00 00 00 08 00 10 0a 	addiu $16,$10,8
  4046c8:	2b 00 00 00 00 00 0e 10 	l.d $f14,0($16)
  4046d0:	a2 00 00 00 c6 10 11 00 	lui $17,4294
  4046d8:	28 00 00 00 28 64 11 11 	lw $17,25640($17)
  4046e0:	43 00 00 00 01 00 0c 00 	addiu $12,$0,1
  4046e8:	07 00 00 00 4a 01 00 11 	blez $17,404c18 <wcal_+0x738>
  4046f0:	28 00 00 00 70 00 0a 1d 	lw $10,112($29)
  4046f8:	42 00 00 00 00 07 0b 16 	addu $7,$22,$11
  404700:	42 00 00 00 00 06 0b 1e 	addu $6,$30,$11
  404708:	42 00 00 00 00 18 0b 0a 	addu $24,$10,$11
  404710:	28 00 00 00 80 00 0a 1d 	lw $10,128($29)
  404718:	42 00 00 00 00 19 0b 17 	addu $25,$23,$11
  404720:	42 00 00 00 00 0e 0b 12 	addu $14,$18,$11
  404728:	42 00 00 00 00 0f 0b 0a 	addu $15,$10,$11
  404730:	28 00 00 00 88 00 0a 1d 	lw $10,136($29)
  404738:	46 00 00 00 00 00 0a 0e 	mult $14,$10
  404740:	4c 00 00 00 00 0a 00 00 	mflo $10
  404748:	34 00 00 00 b0 00 0a 1d 	sw $10,176($29)
  404750:	28 00 00 00 78 00 0a 1d 	lw $10,120($29)
  404758:	46 00 00 00 00 00 0a 0f 	mult $15,$10
  404760:	4c 00 00 00 00 02 00 00 	mflo $2
  404768:	28 00 00 00 68 00 0a 1d 	lw $10,104($29)
  404770:	42 00 00 00 00 04 02 09 	addu $4,$9,$2
  404778:	55 00 00 00 04 02 04 00 	sll $2,$4,0x4
  404780:	42 00 00 00 00 02 14 02 	addu $2,$2,$20
  404788:	2b 00 00 00 00 00 06 02 	l.d $f6,0($2)
  404790:	46 00 00 00 00 00 0a 18 	mult $24,$10
  404798:	75 00 00 00 00 06 06 10 	mul.d $f6,$f16,$f6
  4047a0:	37 00 00 00 20 00 06 1d 	s.d $f6,32($29)
  4047a8:	2b 00 00 00 08 00 04 02 	l.d $f4,8($2)
  4047b0:	43 00 00 00 ff ff 08 0c 	addiu $8,$12,-1
  4047b8:	75 00 00 00 00 04 04 10 	mul.d $f4,$f16,$f4
  4047c0:	55 00 00 00 03 03 08 00 	sll $3,$8,0x3
  4047c8:	4c 00 00 00 00 02 00 00 	mflo $2
  4047d0:	a2 00 00 00 8c 11 0a 00 	lui $10,4492
  4047d8:	43 00 00 00 60 6c 0a 0a 	addiu $10,$10,27744
  4047e0:	42 00 00 00 00 03 0a 03 	addu $3,$3,$10
  4047e8:	42 00 00 00 00 05 02 09 	addu $5,$9,$2
  4047f0:	55 00 00 00 04 02 05 00 	sll $2,$5,0x4
  4047f8:	42 00 00 00 00 02 13 02 	addu $2,$2,$19
  404800:	37 00 00 00 28 00 04 1d 	s.d $f4,40($29)
  404808:	2b 00 00 00 00 00 02 03 	l.d $f2,0($3)
  404810:	2b 00 00 00 00 00 00 02 	l.d $f0,0($2)
  404818:	75 00 00 00 00 02 00 02 	mul.d $f2,$f2,$f0
  404820:	28 00 00 00 90 00 0a 1d 	lw $10,144($29)
  404828:	46 00 00 00 00 00 0a 19 	mult $25,$10
  404830:	37 00 00 00 30 00 02 1d 	s.d $f2,48($29)
  404838:	2b 00 00 00 00 00 0a 03 	l.d $f10,0($3)
  404840:	2b 00 00 00 08 00 00 02 	l.d $f0,8($2)
  404848:	75 00 00 00 00 0a 00 0a 	mul.d $f10,$f10,$f0
  404850:	73 00 00 00 00 06 02 06 	sub.d $f6,$f6,$f2
  404858:	2b 00 00 00 40 00 02 1d 	l.d $f2,64($29)
  404860:	75 00 00 00 00 0c 06 02 	mul.d $f12,$f2,$f6
  404868:	4c 00 00 00 00 0d 00 00 	mflo $13
  404870:	28 00 00 00 60 00 0a 1d 	lw $10,96($29)
  404878:	73 00 00 00 00 04 0a 04 	sub.d $f4,$f4,$f10
  404880:	2b 00 00 00 48 00 00 1d 	l.d $f0,72($29)
  404888:	46 00 00 00 00 00 0a 06 	mult $6,$10
  404890:	75 00 00 00 00 08 04 00 	mul.d $f8,$f0,$f4
  404898:	75 00 00 00 00 02 04 02 	mul.d $f2,$f2,$f4
  4048a0:	75 00 00 00 00 00 06 00 	mul.d $f0,$f0,$f6
  4048a8:	28 00 00 00 b0 00 0a 1d 	lw $10,176($29)
  4048b0:	73 00 00 00 00 0c 08 0c 	sub.d $f12,$f12,$f8
  4048b8:	37 00 00 00 10 00 06 1d 	s.d $f6,16($29)
  4048c0:	37 00 00 00 38 00 0a 1d 	s.d $f10,56($29)
  4048c8:	37 00 00 00 18 00 04 1d 	s.d $f4,24($29)
  4048d0:	37 00 00 00 00 00 0c 1d 	s.d $f12,0($29)
  4048d8:	71 00 00 00 00 02 00 02 	add.d $f2,$f2,$f0
  4048e0:	42 00 00 00 00 02 0a 09 	addu $2,$9,$10
  4048e8:	28 00 00 00 58 00 0a 1d 	lw $10,88($29)
  4048f0:	4c 00 00 00 00 03 00 00 	mflo $3
  4048f8:	55 00 00 00 04 02 02 00 	sll $2,$2,0x4
  404900:	42 00 00 00 00 02 0a 02 	addu $2,$2,$10
  404908:	37 00 00 00 08 00 02 1d 	s.d $f2,8($29)
  404910:	37 00 00 00 00 00 0c 02 	s.d $f12,0($2)
  404918:	2b 00 00 00 08 00 00 1d 	l.d $f0,8($29)
  404920:	a2 00 00 00 8c 11 0a 00 	lui $10,4492
  404928:	43 00 00 00 60 6c 0a 0a 	addiu $10,$10,27744
  404930:	37 00 00 00 08 00 00 02 	s.d $f0,8($2)
  404938:	42 00 00 00 00 02 08 00 	addu $2,$0,$8
  404940:	42 00 00 00 00 08 03 09 	addu $8,$9,$3
  404948:	55 00 00 00 03 02 02 00 	sll $2,$2,0x3
  404950:	42 00 00 00 00 02 0a 02 	addu $2,$2,$10
  404958:	28 00 00 00 50 00 0a 1d 	lw $10,80($29)
  404960:	55 00 00 00 04 03 08 00 	sll $3,$8,0x4
  404968:	2b 00 00 00 00 00 08 02 	l.d $f8,0($2)
  404970:	42 00 00 00 00 03 0a 03 	addu $3,$3,$10
  404978:	2b 00 00 00 00 00 00 03 	l.d $f0,0($3)
  404980:	75 00 00 00 00 08 00 08 	mul.d $f8,$f8,$f0
  404988:	37 00 00 00 20 00 08 1d 	s.d $f8,32($29)
  404990:	2b 00 00 00 00 00 06 02 	l.d $f6,0($2)
  404998:	2b 00 00 00 08 00 00 03 	l.d $f0,8($3)
  4049a0:	75 00 00 00 00 06 00 06 	mul.d $f6,$f6,$f0
  4049a8:	55 00 00 00 04 04 04 00 	sll $4,$4,0x4
  4049b0:	42 00 00 00 00 04 14 04 	addu $4,$4,$20
  4049b8:	37 00 00 00 28 00 06 1d 	s.d $f6,40($29)
  4049c0:	2b 00 00 00 00 00 00 04 	l.d $f0,0($4)
  4049c8:	75 00 00 00 00 00 00 0e 	mul.d $f0,$f14,$f0
  4049d0:	37 00 00 00 30 00 00 1d 	s.d $f0,48($29)
  4049d8:	2b 00 00 00 08 00 0a 04 	l.d $f10,8($4)
  4049e0:	75 00 00 00 00 0a 0a 0e 	mul.d $f10,$f14,$f10
  4049e8:	73 00 00 00 00 08 00 08 	sub.d $f8,$f8,$f0
  4049f0:	2b 00 00 00 40 00 02 1d 	l.d $f2,64($29)
  4049f8:	75 00 00 00 00 0c 08 02 	mul.d $f12,$f2,$f8
  404a00:	73 00 00 00 00 06 0a 06 	sub.d $f6,$f6,$f10
  404a08:	2b 00 00 00 48 00 00 1d 	l.d $f0,72($29)
  404a10:	75 00 00 00 00 04 06 00 	mul.d $f4,$f0,$f6
  404a18:	75 00 00 00 00 02 06 02 	mul.d $f2,$f2,$f6
  404a20:	75 00 00 00 00 00 08 00 	mul.d $f0,$f0,$f8
  404a28:	42 00 00 00 00 02 0d 09 	addu $2,$9,$13
  404a30:	28 00 00 00 f0 00 0a 1d 	lw $10,240($29)
  404a38:	73 00 00 00 00 0c 04 0c 	sub.d $f12,$f12,$f4
  404a40:	55 00 00 00 04 02 02 00 	sll $2,$2,0x4
  404a48:	42 00 00 00 00 02 0a 02 	addu $2,$2,$10
  404a50:	37 00 00 00 10 00 08 1d 	s.d $f8,16($29)
  404a58:	71 00 00 00 00 02 00 02 	add.d $f2,$f2,$f0
  404a60:	37 00 00 00 38 00 0a 1d 	s.d $f10,56($29)
  404a68:	37 00 00 00 18 00 06 1d 	s.d $f6,24($29)
  404a70:	37 00 00 00 00 00 0c 1d 	s.d $f12,0($29)
  404a78:	37 00 00 00 08 00 02 1d 	s.d $f2,8($29)
  404a80:	37 00 00 00 00 00 0c 02 	s.d $f12,0($2)
  404a88:	2b 00 00 00 08 00 00 1d 	l.d $f0,8($29)
  404a90:	55 00 00 00 04 05 05 00 	sll $5,$5,0x4
  404a98:	42 00 00 00 00 05 13 05 	addu $5,$5,$19
  404aa0:	37 00 00 00 08 00 00 02 	s.d $f0,8($2)
  404aa8:	2b 00 00 00 00 00 02 05 	l.d $f2,0($5)
  404ab0:	75 00 00 00 00 02 02 0e 	mul.d $f2,$f14,$f2
  404ab8:	37 00 00 00 20 00 02 1d 	s.d $f2,32($29)
  404ac0:	2b 00 00 00 08 00 04 05 	l.d $f4,8($5)
  404ac8:	75 00 00 00 00 04 04 0e 	mul.d $f4,$f14,$f4
  404ad0:	37 00 00 00 28 00 04 1d 	s.d $f4,40($29)
  404ad8:	2b 00 00 00 00 00 00 03 	l.d $f0,0($3)
  404ae0:	75 00 00 00 00 00 00 10 	mul.d $f0,$f16,$f0
  404ae8:	37 00 00 00 30 00 00 1d 	s.d $f0,48($29)
  404af0:	2b 00 00 00 08 00 08 03 	l.d $f8,8($3)
  404af8:	75 00 00 00 00 08 08 10 	mul.d $f8,$f16,$f8
  404b00:	73 00 00 00 00 02 00 02 	sub.d $f2,$f2,$f0
  404b08:	2b 00 00 00 40 00 06 1d 	l.d $f6,64($29)
  404b10:	75 00 00 00 00 0a 02 06 	mul.d $f10,$f6,$f2
  404b18:	46 00 00 00 00 00 15 07 	mult $7,$21
  404b20:	73 00 00 00 00 04 08 04 	sub.d $f4,$f4,$f8
  404b28:	2b 00 00 00 48 00 00 1d 	l.d $f0,72($29)
  404b30:	75 00 00 00 00 0c 04 00 	mul.d $f12,$f0,$f4
  404b38:	75 00 00 00 00 06 04 06 	mul.d $f6,$f6,$f4
  404b40:	43 00 00 00 01 00 0c 0c 	addiu $12,$12,1
  404b48:	42 00 00 00 00 0e 12 0e 	addu $14,$14,$18
  404b50:	28 00 00 00 80 00 0a 1d 	lw $10,128($29)
  404b58:	42 00 00 00 00 19 17 19 	addu $25,$25,$23
  404b60:	4c 00 00 00 00 02 00 00 	mflo $2
  404b68:	42 00 00 00 00 0f 0a 0f 	addu $15,$15,$10
  404b70:	28 00 00 00 70 00 0a 1d 	lw $10,112($29)
  404b78:	75 00 00 00 00 00 02 00 	mul.d $f0,$f0,$f2
  404b80:	42 00 00 00 00 02 02 09 	addu $2,$9,$2
  404b88:	42 00 00 00 00 18 0a 18 	addu $24,$24,$10
  404b90:	28 00 00 00 f4 00 0a 1d 	lw $10,244($29)
  404b98:	73 00 00 00 00 0a 0c 0a 	sub.d $f10,$f10,$f12
  404ba0:	55 00 00 00 04 02 02 00 	sll $2,$2,0x4
  404ba8:	42 00 00 00 00 02 0a 02 	addu $2,$2,$10
  404bb0:	37 00 00 00 10 00 02 1d 	s.d $f2,16($29)
  404bb8:	71 00 00 00 00 06 00 06 	add.d $f6,$f6,$f0
  404bc0:	37 00 00 00 38 00 08 1d 	s.d $f8,56($29)
  404bc8:	37 00 00 00 18 00 04 1d 	s.d $f4,24($29)
  404bd0:	37 00 00 00 00 00 0a 1d 	s.d $f10,0($29)
  404bd8:	37 00 00 00 08 00 06 1d 	s.d $f6,8($29)
  404be0:	37 00 00 00 00 00 0a 02 	s.d $f10,0($2)
  404be8:	2b 00 00 00 08 00 00 1d 	l.d $f0,8($29)
  404bf0:	42 00 00 00 00 06 1e 06 	addu $6,$6,$30
  404bf8:	42 00 00 00 00 07 16 07 	addu $7,$7,$22
  404c00:	37 00 00 00 08 00 00 02 	s.d $f0,8($2)
  404c08:	5b 00 00 00 00 02 0c 11 	slt $2,$17,$12
  404c10:	05 00 00 00 c6 fe 00 02 	beq $2,$0,404730 <wcal_+0x250>
  404c18:	28 00 00 00 a0 00 0a 1d 	lw $10,160($29)
  404c20:	43 00 00 00 08 00 10 10 	addiu $16,$16,8
  404c28:	43 00 00 00 01 00 09 09 	addiu $9,$9,1
  404c30:	5b 00 00 00 00 02 09 0a 	slt $2,$10,$9
  404c38:	05 00 00 00 a2 fe 00 02 	beq $2,$0,4046c8 <wcal_+0x1e8>
  404c40:	28 00 00 00 a8 00 0a 1d 	lw $10,168($29)
  404c48:	43 00 00 00 08 00 0a 0a 	addiu $10,$10,8
  404c50:	34 00 00 00 a8 00 0a 1d 	sw $10,168($29)
  404c58:	28 00 00 00 98 00 0a 1d 	lw $10,152($29)
  404c60:	43 00 00 00 01 00 0b 0b 	addiu $11,$11,1
  404c68:	5b 00 00 00 00 02 0b 0a 	slt $2,$10,$11
  404c70:	05 00 00 00 80 fe 00 02 	beq $2,$0,404678 <wcal_+0x198>
  404c78:	42 00 00 00 00 02 00 00 	addu $2,$0,$0
  404c80:	28 00 00 00 d8 00 1e 1d 	lw $30,216($29)
  404c88:	28 00 00 00 d4 00 17 1d 	lw $23,212($29)
  404c90:	28 00 00 00 d0 00 16 1d 	lw $22,208($29)
  404c98:	28 00 00 00 cc 00 15 1d 	lw $21,204($29)
  404ca0:	28 00 00 00 c8 00 14 1d 	lw $20,200($29)
  404ca8:	28 00 00 00 c4 00 13 1d 	lw $19,196($29)
  404cb0:	28 00 00 00 c0 00 12 1d 	lw $18,192($29)
  404cb8:	28 00 00 00 bc 00 11 1d 	lw $17,188($29)
  404cc0:	28 00 00 00 b8 00 10 1d 	lw $16,184($29)
  404cc8:	43 00 00 00 e0 00 1d 1d 	addiu $29,$29,224
  404cd0:	03 00 00 00 00 00 00 1f 	jr $31

00404cd8 <dcopy_>:
  404cd8:	28 00 00 00 10 00 0a 1d 	lw $10,16($29)
  404ce0:	43 00 00 00 f8 ff 07 07 	addiu $7,$7,-8
  404ce8:	28 00 00 00 00 00 03 06 	lw $3,0($6)
  404cf0:	43 00 00 00 f8 ff 05 05 	addiu $5,$5,-8
  404cf8:	43 00 00 00 01 00 02 00 	addiu $2,$0,1
  404d00:	06 00 00 00 62 00 02 03 	bne $3,$2,404e90 <dcopy_+0x1b8>
  404d08:	28 00 00 00 00 00 02 0a 	lw $2,0($10)
  404d10:	06 00 00 00 5e 00 03 02 	bne $2,$3,404e90 <dcopy_+0x1b8>
  404d18:	28 00 00 00 00 00 04 04 	lw $4,0($4)
  404d20:	43 00 00 00 01 00 08 00 	addiu $8,$0,1
  404d28:	07 00 00 00 12 01 00 04 	blez $4,405178 <dcopy_+0x4a0>
  404d30:	43 00 00 00 08 00 06 07 	addiu $6,$7,8
  404d38:	43 00 00 00 08 00 09 05 	addiu $9,$5,8
  404d40:	43 00 00 00 01 00 02 04 	addiu $2,$4,1
  404d48:	4f 00 00 00 03 00 03 04 	andi $3,$4,3
  404d50:	5b 00 00 00 00 02 02 08 	slt $2,$8,$2
  404d58:	05 00 00 00 1e 00 00 02 	beq $2,$0,404dd8 <dcopy_+0x100>
  404d60:	05 00 00 00 2a 00 00 03 	beq $3,$0,404e10 <dcopy_+0x138>
  404d68:	5c 00 00 00 02 00 02 03 	slti $2,$3,2
  404d70:	06 00 00 00 18 00 00 02 	bne $2,$0,404dd8 <dcopy_+0x100>
  404d78:	5c 00 00 00 03 00 02 03 	slti $2,$3,3
  404d80:	06 00 00 00 0a 00 00 02 	bne $2,$0,404db0 <dcopy_+0xd8>
  404d88:	43 00 00 00 08 00 06 06 	addiu $6,$6,8
  404d90:	2b 00 00 00 08 00 00 05 	l.d $f0,8($5)
  404d98:	43 00 00 00 08 00 09 09 	addiu $9,$9,8
  404da0:	43 00 00 00 02 00 08 00 	addiu $8,$0,2
  404da8:	37 00 00 00 08 00 00 07 	s.d $f0,8($7)
  404db0:	2b 00 00 00 00 00 00 09 	l.d $f0,0($9)
  404db8:	43 00 00 00 01 00 08 08 	addiu $8,$8,1
  404dc0:	37 00 00 00 00 00 00 06 	s.d $f0,0($6)
  404dc8:	43 00 00 00 08 00 06 06 	addiu $6,$6,8
  404dd0:	43 00 00 00 08 00 09 09 	addiu $9,$9,8
  404dd8:	2b 00 00 00 00 00 00 09 	l.d $f0,0($9)
  404de0:	43 00 00 00 01 00 08 08 	addiu $8,$8,1
  404de8:	5b 00 00 00 00 05 08 04 	slt $5,$4,$8
  404df0:	37 00 00 00 00 00 00 06 	s.d $f0,0($6)
  404df8:	43 00 00 00 08 00 06 06 	addiu $6,$6,8
  404e00:	43 00 00 00 08 00 09 09 	addiu $9,$9,8
  404e08:	06 00 00 00 da 00 00 05 	bne $5,$0,405178 <dcopy_+0x4a0>
  404e10:	42 00 00 00 00 03 06 00 	addu $3,$0,$6
  404e18:	42 00 00 00 00 02 09 00 	addu $2,$0,$9
  404e20:	2b 00 00 00 00 00 00 02 	l.d $f0,0($2)
  404e28:	37 00 00 00 00 00 00 03 	s.d $f0,0($3)
  404e30:	2b 00 00 00 08 00 00 02 	l.d $f0,8($2)
  404e38:	37 00 00 00 08 00 00 03 	s.d $f0,8($3)
  404e40:	2b 00 00 00 10 00 00 02 	l.d $f0,16($2)
  404e48:	37 00 00 00 10 00 00 03 	s.d $f0,16($3)
  404e50:	2b 00 00 00 18 00 00 02 	l.d $f0,24($2)
  404e58:	43 00 00 00 04 00 08 08 	addiu $8,$8,4
  404e60:	5b 00 00 00 00 05 08 04 	slt $5,$4,$8
  404e68:	37 00 00 00 18 00 00 03 	s.d $f0,24($3)
  404e70:	43 00 00 00 20 00 03 03 	addiu $3,$3,32
  404e78:	43 00 00 00 20 00 02 02 	addiu $2,$2,32
  404e80:	05 00 00 00 e6 ff 00 05 	beq $5,$0,404e20 <dcopy_+0x148>
  404e88:	01 00 00 00 5e 14 10 00 	j 405178 <dcopy_+0x4a0>
  404e90:	28 00 00 00 00 00 02 04 	lw $2,0($4)
  404e98:	42 00 00 00 00 08 00 00 	addu $8,$0,$0
  404ea0:	43 00 00 00 ff ff 04 02 	addiu $4,$2,-1
  404ea8:	09 00 00 00 b2 00 00 04 	bltz $4,405178 <dcopy_+0x4a0>
  404eb0:	4f 00 00 00 03 00 03 02 	andi $3,$2,3
  404eb8:	5b 00 00 00 00 02 02 08 	slt $2,$8,$2
  404ec0:	05 00 00 00 2a 00 00 02 	beq $2,$0,404f70 <dcopy_+0x298>
  404ec8:	05 00 00 00 3e 00 00 03 	beq $3,$0,404fc8 <dcopy_+0x2f0>
  404ed0:	5c 00 00 00 02 00 02 03 	slti $2,$3,2
  404ed8:	06 00 00 00 24 00 00 02 	bne $2,$0,404f70 <dcopy_+0x298>
  404ee0:	5c 00 00 00 03 00 02 03 	slti $2,$3,3
  404ee8:	06 00 00 00 06 00 00 02 	bne $2,$0,404f08 <dcopy_+0x230>
  404ef0:	2b 00 00 00 08 00 00 05 	l.d $f0,8($5)
  404ef8:	43 00 00 00 01 00 08 00 	addiu $8,$0,1
  404f00:	37 00 00 00 08 00 00 07 	s.d $f0,8($7)
  404f08:	28 00 00 00 00 00 02 0a 	lw $2,0($10)
  404f10:	46 00 00 00 00 00 02 08 	mult $8,$2
  404f18:	28 00 00 00 00 00 02 06 	lw $2,0($6)
  404f20:	4c 00 00 00 00 03 00 00 	mflo $3
  404f28:	46 00 00 00 00 00 02 08 	mult $8,$2
  404f30:	4c 00 00 00 00 02 00 00 	mflo $2
  404f38:	55 00 00 00 03 02 02 00 	sll $2,$2,0x3
  404f40:	42 00 00 00 00 02 05 02 	addu $2,$2,$5
  404f48:	2b 00 00 00 08 00 00 02 	l.d $f0,8($2)
  404f50:	43 00 00 00 01 00 08 08 	addiu $8,$8,1
  404f58:	55 00 00 00 03 02 03 00 	sll $2,$3,0x3
  404f60:	42 00 00 00 00 02 07 02 	addu $2,$2,$7
  404f68:	37 00 00 00 08 00 00 02 	s.d $f0,8($2)
  404f70:	28 00 00 00 00 00 02 0a 	lw $2,0($10)
  404f78:	46 00 00 00 00 00 02 08 	mult $8,$2
  404f80:	28 00 00 00 00 00 02 06 	lw $2,0($6)
  404f88:	4c 00 00 00 00 09 00 00 	mflo $9
  404f90:	46 00 00 00 00 00 02 08 	mult $8,$2
  404f98:	4c 00 00 00 00 02 00 00 	mflo $2
  404fa0:	55 00 00 00 03 02 02 00 	sll $2,$2,0x3
  404fa8:	42 00 00 00 00 02 05 02 	addu $2,$2,$5
  404fb0:	2b 00 00 00 08 00 00 02 	l.d $f0,8($2)
  404fb8:	43 00 00 00 01 00 08 08 	addiu $8,$8,1
  404fc0:	01 00 00 00 54 14 10 00 	j 405150 <dcopy_+0x478>
  404fc8:	28 00 00 00 00 00 02 0a 	lw $2,0($10)
  404fd0:	46 00 00 00 00 00 02 08 	mult $8,$2
  404fd8:	28 00 00 00 00 00 02 06 	lw $2,0($6)
  404fe0:	4c 00 00 00 00 03 00 00 	mflo $3
  404fe8:	46 00 00 00 00 00 02 08 	mult $8,$2
  404ff0:	4c 00 00 00 00 02 00 00 	mflo $2
  404ff8:	55 00 00 00 03 02 02 00 	sll $2,$2,0x3
  405000:	42 00 00 00 00 02 05 02 	addu $2,$2,$5
  405008:	2b 00 00 00 08 00 00 02 	l.d $f0,8($2)
  405010:	55 00 00 00 03 02 03 00 	sll $2,$3,0x3
  405018:	42 00 00 00 00 02 07 02 	addu $2,$2,$7
  405020:	37 00 00 00 08 00 00 02 	s.d $f0,8($2)
  405028:	28 00 00 00 00 00 02 0a 	lw $2,0($10)
  405030:	43 00 00 00 01 00 03 08 	addiu $3,$8,1
  405038:	46 00 00 00 00 00 02 03 	mult $3,$2
  405040:	28 00 00 00 00 00 02 06 	lw $2,0($6)
  405048:	4c 00 00 00 00 09 00 00 	mflo $9
  405050:	46 00 00 00 00 00 02 03 	mult $3,$2
  405058:	4c 00 00 00 00 02 00 00 	mflo $2
  405060:	55 00 00 00 03 02 02 00 	sll $2,$2,0x3
  405068:	42 00 00 00 00 02 05 02 	addu $2,$2,$5
  405070:	2b 00 00 00 08 00 00 02 	l.d $f0,8($2)
  405078:	55 00 00 00 03 02 09 00 	sll $2,$9,0x3
  405080:	42 00 00 00 00 02 07 02 	addu $2,$2,$7
  405088:	37 00 00 00 08 00 00 02 	s.d $f0,8($2)
  405090:	28 00 00 00 00 00 02 0a 	lw $2,0($10)
  405098:	43 00 00 00 02 00 03 08 	addiu $3,$8,2
  4050a0:	46 00 00 00 00 00 02 03 	mult $3,$2
  4050a8:	28 00 00 00 00 00 02 06 	lw $2,0($6)
  4050b0:	4c 00 00 00 00 09 00 00 	mflo $9
  4050b8:	46 00 00 00 00 00 02 03 	mult $3,$2
  4050c0:	4c 00 00 00 00 02 00 00 	mflo $2
  4050c8:	55 00 00 00 03 02 02 00 	sll $2,$2,0x3
  4050d0:	42 00 00 00 00 02 05 02 	addu $2,$2,$5
  4050d8:	2b 00 00 00 08 00 00 02 	l.d $f0,8($2)
  4050e0:	55 00 00 00 03 02 09 00 	sll $2,$9,0x3
  4050e8:	42 00 00 00 00 02 07 02 	addu $2,$2,$7
  4050f0:	37 00 00 00 08 00 00 02 	s.d $f0,8($2)
  4050f8:	28 00 00 00 00 00 02 0a 	lw $2,0($10)
  405100:	43 00 00 00 03 00 03 08 	addiu $3,$8,3
  405108:	46 00 00 00 00 00 02 03 	mult $3,$2
  405110:	28 00 00 00 00 00 02 06 	lw $2,0($6)
  405118:	4c 00 00 00 00 09 00 00 	mflo $9
  405120:	46 00 00 00 00 00 02 03 	mult $3,$2
  405128:	4c 00 00 00 00 02 00 00 	mflo $2
  405130:	55 00 00 00 03 02 02 00 	sll $2,$2,0x3
  405138:	42 00 00 00 00 02 05 02 	addu $2,$2,$5
  405140:	2b 00 00 00 08 00 00 02 	l.d $f0,8($2)
  405148:	43 00 00 00 04 00 08 08 	addiu $8,$8,4
  405150:	5b 00 00 00 00 03 08 04 	slt $3,$4,$8
  405158:	55 00 00 00 03 02 09 00 	sll $2,$9,0x3
  405160:	42 00 00 00 00 02 07 02 	addu $2,$2,$7
  405168:	37 00 00 00 08 00 00 02 	s.d $f0,8($2)
  405170:	05 00 00 00 94 ff 00 03 	beq $3,$0,404fc8 <dcopy_+0x2f0>
  405178:	42 00 00 00 00 02 00 00 	addu $2,$0,$0
  405180:	03 00 00 00 00 00 00 1f 	jr $31

00405188 <enr_>:
  405188:	a2 00 00 00 c6 10 19 00 	lui $25,4294
  405190:	28 00 00 00 24 64 19 19 	lw $25,25636($25)
  405198:	43 00 00 00 e0 ff 1d 1d 	addiu $29,$29,-32
  4051a0:	34 00 00 00 10 00 14 1d 	sw $20,16($29)
  4051a8:	42 00 00 00 00 14 07 00 	addu $20,$0,$7
  4051b0:	a2 00 00 00 c6 10 03 00 	lui $3,4294
  4051b8:	43 00 00 00 30 64 03 03 	addiu $3,$3,25648
  4051c0:	34 00 00 00 1c 00 17 1d 	sw $23,28($29)
  4051c8:	34 00 00 00 18 00 16 1d 	sw $22,24($29)
  4051d0:	34 00 00 00 14 00 15 1d 	sw $21,20($29)
  4051d8:	34 00 00 00 0c 00 13 1d 	sw $19,12($29)
  4051e0:	34 00 00 00 08 00 12 1d 	sw $18,8($29)
  4051e8:	34 00 00 00 04 00 11 1d 	sw $17,4($29)
  4051f0:	34 00 00 00 00 00 10 1d 	sw $16,0($29)
  4051f8:	28 00 00 00 00 00 07 03 	lw $7,0($3)
  405200:	43 00 00 00 01 00 02 19 	addiu $2,$25,1
  405208:	46 00 00 00 00 00 02 07 	mult $7,$2
  405210:	42 00 00 00 00 13 06 00 	addu $19,$0,$6
  405218:	43 00 00 00 01 00 0e 00 	addiu $14,$0,1
  405220:	43 00 00 00 01 00 17 00 	addiu $23,$0,1
  405228:	42 00 00 00 00 16 03 00 	addu $22,$0,$3
  405230:	43 00 00 00 f8 ff 15 16 	addiu $21,$22,-8
  405238:	42 00 00 00 00 10 07 00 	addu $16,$0,$7
  405240:	42 00 00 00 00 06 19 00 	addu $6,$0,$25
  405248:	38 00 00 00 00 00 00 14 	dsz 0($20)
  405250:	4c 00 00 00 00 02 00 00 	mflo $2
  405258:	2b 00 00 00 00 00 06 14 	l.d $f6,0($20)
  405260:	28 00 00 00 f4 ff 12 16 	lw $18,-12($22)
  405268:	43 00 00 00 01 00 02 02 	addiu $2,$2,1
  405270:	55 00 00 00 04 02 02 00 	sll $2,$2,0x4
  405278:	51 00 00 00 08 00 02 02 	ori $2,$2,8
  405280:	45 00 00 00 00 05 02 05 	subu $5,$5,$2
  405288:	45 00 00 00 00 04 02 04 	subu $4,$4,$2
  405290:	43 00 00 00 01 00 18 00 	addiu $24,$0,1
  405298:	07 00 00 00 be 00 00 12 	blez $18,405598 <enr_+0x410>
  4052a0:	28 00 00 00 00 00 02 16 	lw $2,0($22)
  4052a8:	43 00 00 00 ff ff 11 02 	addiu $17,$2,-1
  4052b0:	43 00 00 00 01 00 0a 00 	addiu $10,$0,1
  4052b8:	07 00 00 00 b0 00 00 11 	blez $17,405580 <enr_+0x3f8>
  4052c0:	06 00 00 00 04 00 17 0a 	bne $10,$23,4052d8 <enr_+0x150>
  4052c8:	2b 00 00 00 90 80 02 1c 	l.d $f2,-32624($28)
  4052d0:	01 00 00 00 b8 14 10 00 	j 4052e0 <enr_+0x158>
  4052d8:	2b 00 00 00 98 80 02 1c 	l.d $f2,-32616($28)
  4052e0:	28 00 00 00 00 00 0f 15 	lw $15,0($21)
  4052e8:	43 00 00 00 01 00 0d 00 	addiu $13,$0,1
  4052f0:	07 00 00 00 9c 00 00 0f 	blez $15,405568 <enr_+0x3e0>
  4052f8:	2b 00 00 00 00 00 00 13 	l.d $f0,0($19)
  405300:	75 00 00 00 00 08 00 02 	mul.d $f8,$f2,$f0
  405308:	42 00 00 00 00 09 18 19 	addu $9,$25,$24
  405310:	42 00 00 00 00 08 18 06 	addu $8,$6,$24
  405318:	43 00 00 00 01 00 02 0f 	addiu $2,$15,1
  405320:	4f 00 00 00 01 00 03 0f 	andi $3,$15,1
  405328:	5b 00 00 00 00 02 02 0d 	slt $2,$13,$2
  405330:	05 00 00 00 02 00 00 02 	beq $2,$0,405340 <enr_+0x1b8>
  405338:	05 00 00 00 30 00 00 03 	beq $3,$0,405400 <enr_+0x278>
  405340:	46 00 00 00 00 00 10 08 	mult $8,$16
  405348:	4c 00 00 00 00 02 00 00 	mflo $2
  405350:	46 00 00 00 00 00 07 09 	mult $9,$7
  405358:	42 00 00 00 00 03 02 0a 	addu $3,$10,$2
  405360:	55 00 00 00 01 03 03 00 	sll $3,$3,0x1
  405368:	42 00 00 00 00 03 03 0e 	addu $3,$14,$3
  405370:	55 00 00 00 03 03 03 00 	sll $3,$3,0x3
  405378:	4c 00 00 00 00 02 00 00 	mflo $2
  405380:	42 00 00 00 00 03 04 03 	addu $3,$3,$4
  405388:	2b 00 00 00 00 00 02 03 	l.d $f2,0($3)
  405390:	42 00 00 00 00 02 02 0a 	addu $2,$10,$2
  405398:	55 00 00 00 01 02 02 00 	sll $2,$2,0x1
  4053a0:	42 00 00 00 00 02 02 0e 	addu $2,$14,$2
  4053a8:	55 00 00 00 03 02 02 00 	sll $2,$2,0x3
  4053b0:	42 00 00 00 00 02 05 02 	addu $2,$2,$5
  4053b8:	2b 00 00 00 00 00 00 02 	l.d $f0,0($2)
  4053c0:	75 00 00 00 00 02 00 02 	mul.d $f2,$f2,$f0
  4053c8:	75 00 00 00 00 02 02 08 	mul.d $f2,$f8,$f2
  4053d0:	43 00 00 00 02 00 0d 00 	addiu $13,$0,2
  4053d8:	71 00 00 00 00 06 02 06 	add.d $f6,$f6,$f2
  4053e0:	42 00 00 00 00 08 06 08 	addu $8,$8,$6
  4053e8:	42 00 00 00 00 09 19 09 	addu $9,$9,$25
  4053f0:	5c 00 00 00 02 00 02 0f 	slti $2,$15,2
  4053f8:	06 00 00 00 5a 00 00 02 	bne $2,$0,405568 <enr_+0x3e0>
  405400:	46 00 00 00 00 00 10 08 	mult $8,$16
  405408:	4c 00 00 00 00 02 00 00 	mflo $2
  405410:	46 00 00 00 00 00 07 09 	mult $9,$7
  405418:	4c 00 00 00 00 0b 00 00 	mflo $11
  405420:	42 00 00 00 00 08 06 08 	addu $8,$8,$6
  405428:	46 00 00 00 00 00 10 08 	mult $8,$16
  405430:	42 00 00 00 00 03 02 0a 	addu $3,$10,$2
  405438:	55 00 00 00 01 03 03 00 	sll $3,$3,0x1
  405440:	42 00 00 00 00 03 03 0e 	addu $3,$14,$3
  405448:	55 00 00 00 03 03 03 00 	sll $3,$3,0x3
  405450:	42 00 00 00 00 03 04 03 	addu $3,$3,$4
  405458:	2b 00 00 00 00 00 04 03 	l.d $f4,0($3)
  405460:	42 00 00 00 00 09 19 09 	addu $9,$9,$25
  405468:	42 00 00 00 00 02 0b 0a 	addu $2,$10,$11
  405470:	55 00 00 00 01 02 02 00 	sll $2,$2,0x1
  405478:	42 00 00 00 00 02 02 0e 	addu $2,$14,$2
  405480:	4c 00 00 00 00 0c 00 00 	mflo $12
  405488:	55 00 00 00 03 02 02 00 	sll $2,$2,0x3
  405490:	42 00 00 00 00 02 05 02 	addu $2,$2,$5
  405498:	46 00 00 00 00 00 07 09 	mult $9,$7
  4054a0:	2b 00 00 00 00 00 00 02 	l.d $f0,0($2)
  4054a8:	75 00 00 00 00 04 00 04 	mul.d $f4,$f4,$f0
  4054b0:	75 00 00 00 00 04 04 08 	mul.d $f4,$f8,$f4
  4054b8:	42 00 00 00 00 03 0c 0a 	addu $3,$10,$12
  4054c0:	55 00 00 00 01 03 03 00 	sll $3,$3,0x1
  4054c8:	42 00 00 00 00 03 03 0e 	addu $3,$14,$3
  4054d0:	55 00 00 00 03 03 03 00 	sll $3,$3,0x3
  4054d8:	4c 00 00 00 00 02 00 00 	mflo $2
  4054e0:	42 00 00 00 00 03 04 03 	addu $3,$3,$4
  4054e8:	2b 00 00 00 00 00 02 03 	l.d $f2,0($3)
  4054f0:	42 00 00 00 00 02 02 0a 	addu $2,$10,$2
  4054f8:	55 00 00 00 01 02 02 00 	sll $2,$2,0x1
  405500:	42 00 00 00 00 02 02 0e 	addu $2,$14,$2
  405508:	55 00 00 00 03 02 02 00 	sll $2,$2,0x3
  405510:	42 00 00 00 00 02 05 02 	addu $2,$2,$5
  405518:	2b 00 00 00 00 00 00 02 	l.d $f0,0($2)
  405520:	75 00 00 00 00 02 00 02 	mul.d $f2,$f2,$f0
  405528:	75 00 00 00 00 02 02 08 	mul.d $f2,$f8,$f2
  405530:	71 00 00 00 00 06 04 06 	add.d $f6,$f6,$f4
  405538:	43 00 00 00 02 00 0d 0d 	addiu $13,$13,2
  405540:	71 00 00 00 00 06 02 06 	add.d $f6,$f6,$f2
  405548:	42 00 00 00 00 08 06 08 	addu $8,$8,$6
  405550:	42 00 00 00 00 09 19 09 	addu $9,$9,$25
  405558:	5b 00 00 00 00 02 0d 0f 	slt $2,$15,$13
  405560:	05 00 00 00 a6 ff 00 02 	beq $2,$0,405400 <enr_+0x278>
  405568:	43 00 00 00 01 00 0a 0a 	addiu $10,$10,1
  405570:	5b 00 00 00 00 02 0a 11 	slt $2,$17,$10
  405578:	05 00 00 00 50 ff 00 02 	beq $2,$0,4052c0 <enr_+0x138>
  405580:	43 00 00 00 01 00 18 18 	addiu $24,$24,1
  405588:	5b 00 00 00 00 02 18 12 	slt $2,$18,$24
  405590:	05 00 00 00 46 ff 00 02 	beq $2,$0,4052b0 <enr_+0x128>
  405598:	43 00 00 00 01 00 0e 0e 	addiu $14,$14,1
  4055a0:	5c 00 00 00 03 00 02 0e 	slti $2,$14,3
  4055a8:	06 00 00 00 38 ff 00 02 	bne $2,$0,405290 <enr_+0x108>
  4055b0:	2b 00 00 00 00 00 00 14 	l.d $f0,0($20)
  4055b8:	71 00 00 00 00 00 06 00 	add.d $f0,$f0,$f6
  4055c0:	42 00 00 00 00 02 00 00 	addu $2,$0,$0
  4055c8:	37 00 00 00 00 00 00 14 	s.d $f0,0($20)
  4055d0:	28 00 00 00 1c 00 17 1d 	lw $23,28($29)
  4055d8:	28 00 00 00 18 00 16 1d 	lw $22,24($29)
  4055e0:	28 00 00 00 14 00 15 1d 	lw $21,20($29)
  4055e8:	28 00 00 00 10 00 14 1d 	lw $20,16($29)
  4055f0:	28 00 00 00 0c 00 13 1d 	lw $19,12($29)
  4055f8:	28 00 00 00 08 00 12 1d 	lw $18,8($29)
  405600:	28 00 00 00 04 00 11 1d 	lw $17,4($29)
  405608:	28 00 00 00 00 00 10 1d 	lw $16,0($29)
  405610:	43 00 00 00 20 00 1d 1d 	addiu $29,$29,32
  405618:	03 00 00 00 00 00 00 1f 	jr $31

00405620 <zfft_>:
  405620:	43 00 00 00 b0 f3 1d 1d 	addiu $29,$29,-3152
  405628:	34 00 00 00 40 0c 10 1d 	sw $16,3136($29)
  405630:	42 00 00 00 00 10 04 00 	addu $16,$0,$4
  405638:	34 00 00 00 48 0c 1f 1d 	sw $31,3144($29)
  405640:	34 00 00 00 44 0c 11 1d 	sw $17,3140($29)
  405648:	28 00 00 00 00 00 03 07 	lw $3,0($7)
  405650:	42 00 00 00 00 11 06 00 	addu $17,$0,$6
  405658:	43 00 00 00 ff ff 02 00 	addiu $2,$0,-1
  405660:	06 00 00 00 b8 01 02 03 	bne $3,$2,405d48 <zfft_+0x728>
  405668:	28 00 00 00 00 00 03 11 	lw $3,0($17)
  405670:	43 00 00 00 01 00 02 00 	addiu $2,$0,1
  405678:	06 00 00 00 44 00 02 03 	bne $3,$2,405790 <zfft_+0x170>
  405680:	a2 00 00 00 c6 10 03 00 	lui $3,4294
  405688:	43 00 00 00 28 64 03 03 	addiu $3,$3,25640
  405690:	2b 00 00 00 a0 80 02 1c 	l.d $f2,-32608($28)
  405698:	2a 00 00 00 00 00 00 03 	l.s $f0,0($3)
  4056a0:	81 00 00 00 00 00 00 00 	cvt.s.w $f0,$f0
  4056a8:	82 00 00 00 00 00 00 00 	cvt.d.s $f0,$f0
  4056b0:	77 00 00 00 00 02 00 02 	div.d $f2,$f2,$f0
  4056b8:	43 00 00 00 20 80 04 1c 	addiu $4,$28,-32736
  4056c0:	37 00 00 00 38 0c 02 1d 	s.d $f2,3128($29)
  4056c8:	28 00 00 00 00 00 02 10 	lw $2,0($16)
  4056d0:	43 00 00 00 10 00 06 03 	addiu $6,$3,16
  4056d8:	43 00 00 00 00 80 07 1c 	addiu $7,$28,-32768
  4056e0:	43 00 00 00 40 00 02 02 	addiu $2,$2,64
  4056e8:	55 00 00 00 05 05 02 00 	sll $5,$2,0x5
  4056f0:	42 00 00 00 00 05 02 05 	addu $5,$5,$2
  4056f8:	55 00 00 00 04 05 05 00 	sll $5,$5,0x4
  405700:	a2 00 00 00 00 10 02 00 	lui $2,4096
  405708:	43 00 00 00 70 d9 02 02 	addiu $2,$2,-9872
  405710:	42 00 00 00 00 05 02 05 	addu $5,$5,$2
  405718:	34 00 00 00 1c 00 03 1d 	sw $3,28($29)
  405720:	43 00 00 00 08 00 03 03 	addiu $3,$3,8
  405728:	43 00 00 00 38 0c 02 1d 	addiu $2,$29,3128
  405730:	34 00 00 00 28 00 02 1d 	sw $2,40($29)
  405738:	43 00 00 00 38 00 02 1d 	addiu $2,$29,56
  405740:	34 00 00 00 2c 00 02 1d 	sw $2,44($29)
  405748:	43 00 00 00 38 08 02 1d 	addiu $2,$29,2104
  405750:	34 00 00 00 10 00 05 1d 	sw $5,16($29)
  405758:	34 00 00 00 14 00 06 1d 	sw $6,20($29)
  405760:	34 00 00 00 18 00 07 1d 	sw $7,24($29)
  405768:	34 00 00 00 20 00 03 1d 	sw $3,32($29)
  405770:	34 00 00 00 24 00 07 1d 	sw $7,36($29)
  405778:	34 00 00 00 30 00 02 1d 	sw $2,48($29)
  405780:	34 00 00 00 34 00 10 1d 	sw $16,52($29)
  405788:	02 00 00 00 de 18 10 00 	jal 406378 <dcft_>
  405790:	28 00 00 00 00 00 03 11 	lw $3,0($17)
  405798:	43 00 00 00 02 00 02 00 	addiu $2,$0,2
  4057a0:	06 00 00 00 44 00 02 03 	bne $3,$2,4058b8 <zfft_+0x298>
  4057a8:	a2 00 00 00 c6 10 03 00 	lui $3,4294
  4057b0:	43 00 00 00 28 64 03 03 	addiu $3,$3,25640
  4057b8:	2b 00 00 00 a0 80 02 1c 	l.d $f2,-32608($28)
  4057c0:	2a 00 00 00 00 00 00 03 	l.s $f0,0($3)
  4057c8:	81 00 00 00 00 00 00 00 	cvt.s.w $f0,$f0
  4057d0:	82 00 00 00 00 00 00 00 	cvt.d.s $f0,$f0
  4057d8:	77 00 00 00 00 02 00 02 	div.d $f2,$f2,$f0
  4057e0:	43 00 00 00 20 80 04 1c 	addiu $4,$28,-32736
  4057e8:	37 00 00 00 38 0c 02 1d 	s.d $f2,3128($29)
  4057f0:	28 00 00 00 00 00 02 10 	lw $2,0($16)
  4057f8:	43 00 00 00 10 00 06 03 	addiu $6,$3,16
  405800:	43 00 00 00 00 80 07 1c 	addiu $7,$28,-32768
  405808:	43 00 00 00 40 00 02 02 	addiu $2,$2,64
  405810:	55 00 00 00 05 05 02 00 	sll $5,$2,0x5
  405818:	42 00 00 00 00 05 02 05 	addu $5,$5,$2
  405820:	55 00 00 00 04 05 05 00 	sll $5,$5,0x4
  405828:	a2 00 00 00 21 10 02 00 	lui $2,4129
  405830:	43 00 00 00 70 d9 02 02 	addiu $2,$2,-9872
  405838:	42 00 00 00 00 05 02 05 	addu $5,$5,$2
  405840:	34 00 00 00 1c 00 03 1d 	sw $3,28($29)
  405848:	43 00 00 00 08 00 03 03 	addiu $3,$3,8
  405850:	43 00 00 00 38 0c 02 1d 	addiu $2,$29,3128
  405858:	34 00 00 00 28 00 02 1d 	sw $2,40($29)
  405860:	43 00 00 00 38 00 02 1d 	addiu $2,$29,56
  405868:	34 00 00 00 2c 00 02 1d 	sw $2,44($29)
  405870:	43 00 00 00 38 08 02 1d 	addiu $2,$29,2104
  405878:	34 00 00 00 10 00 05 1d 	sw $5,16($29)
  405880:	34 00 00 00 14 00 06 1d 	sw $6,20($29)
  405888:	34 00 00 00 18 00 07 1d 	sw $7,24($29)
  405890:	34 00 00 00 20 00 03 1d 	sw $3,32($29)
  405898:	34 00 00 00 24 00 07 1d 	sw $7,36($29)
  4058a0:	34 00 00 00 30 00 02 1d 	sw $2,48($29)
  4058a8:	34 00 00 00 34 00 10 1d 	sw $16,52($29)
  4058b0:	02 00 00 00 de 18 10 00 	jal 406378 <dcft_>
  4058b8:	28 00 00 00 00 00 03 11 	lw $3,0($17)
  4058c0:	43 00 00 00 03 00 02 00 	addiu $2,$0,3
  4058c8:	06 00 00 00 44 00 02 03 	bne $3,$2,4059e0 <zfft_+0x3c0>
  4058d0:	a2 00 00 00 c6 10 03 00 	lui $3,4294
  4058d8:	43 00 00 00 28 64 03 03 	addiu $3,$3,25640
  4058e0:	2b 00 00 00 a0 80 02 1c 	l.d $f2,-32608($28)
  4058e8:	2a 00 00 00 00 00 00 03 	l.s $f0,0($3)
  4058f0:	81 00 00 00 00 00 00 00 	cvt.s.w $f0,$f0
  4058f8:	82 00 00 00 00 00 00 00 	cvt.d.s $f0,$f0
  405900:	77 00 00 00 00 02 00 02 	div.d $f2,$f2,$f0
  405908:	43 00 00 00 20 80 04 1c 	addiu $4,$28,-32736
  405910:	37 00 00 00 38 0c 02 1d 	s.d $f2,3128($29)
  405918:	28 00 00 00 00 00 02 10 	lw $2,0($16)
  405920:	43 00 00 00 10 00 06 03 	addiu $6,$3,16
  405928:	43 00 00 00 00 80 07 1c 	addiu $7,$28,-32768
  405930:	43 00 00 00 40 00 02 02 	addiu $2,$2,64
  405938:	55 00 00 00 05 05 02 00 	sll $5,$2,0x5
  405940:	42 00 00 00 00 05 02 05 	addu $5,$5,$2
  405948:	55 00 00 00 04 05 05 00 	sll $5,$5,0x4
  405950:	a2 00 00 00 42 10 02 00 	lui $2,4162
  405958:	43 00 00 00 70 d9 02 02 	addiu $2,$2,-9872
  405960:	42 00 00 00 00 05 02 05 	addu $5,$5,$2
  405968:	34 00 00 00 1c 00 03 1d 	sw $3,28($29)
  405970:	43 00 00 00 08 00 03 03 	addiu $3,$3,8
  405978:	43 00 00 00 38 0c 02 1d 	addiu $2,$29,3128
  405980:	34 00 00 00 28 00 02 1d 	sw $2,40($29)
  405988:	43 00 00 00 38 00 02 1d 	addiu $2,$29,56
  405990:	34 00 00 00 2c 00 02 1d 	sw $2,44($29)
  405998:	43 00 00 00 38 08 02 1d 	addiu $2,$29,2104
  4059a0:	34 00 00 00 10 00 05 1d 	sw $5,16($29)
  4059a8:	34 00 00 00 14 00 06 1d 	sw $6,20($29)
  4059b0:	34 00 00 00 18 00 07 1d 	sw $7,24($29)
  4059b8:	34 00 00 00 20 00 03 1d 	sw $3,32($29)
  4059c0:	34 00 00 00 24 00 07 1d 	sw $7,36($29)
  4059c8:	34 00 00 00 30 00 02 1d 	sw $2,48($29)
  4059d0:	34 00 00 00 34 00 10 1d 	sw $16,52($29)
  4059d8:	02 00 00 00 de 18 10 00 	jal 406378 <dcft_>
  4059e0:	28 00 00 00 00 00 03 11 	lw $3,0($17)
  4059e8:	43 00 00 00 04 00 02 00 	addiu $2,$0,4
  4059f0:	06 00 00 00 44 00 02 03 	bne $3,$2,405b08 <zfft_+0x4e8>
  4059f8:	a2 00 00 00 c6 10 03 00 	lui $3,4294
  405a00:	43 00 00 00 28 64 03 03 	addiu $3,$3,25640
  405a08:	2b 00 00 00 a0 80 02 1c 	l.d $f2,-32608($28)
  405a10:	2a 00 00 00 00 00 00 03 	l.s $f0,0($3)
  405a18:	81 00 00 00 00 00 00 00 	cvt.s.w $f0,$f0
  405a20:	82 00 00 00 00 00 00 00 	cvt.d.s $f0,$f0
  405a28:	77 00 00 00 00 02 00 02 	div.d $f2,$f2,$f0
  405a30:	43 00 00 00 20 80 04 1c 	addiu $4,$28,-32736
  405a38:	37 00 00 00 38 0c 02 1d 	s.d $f2,3128($29)
  405a40:	28 00 00 00 00 00 02 10 	lw $2,0($16)
  405a48:	43 00 00 00 10 00 06 03 	addiu $6,$3,16
  405a50:	43 00 00 00 00 80 07 1c 	addiu $7,$28,-32768
  405a58:	43 00 00 00 40 00 02 02 	addiu $2,$2,64
  405a60:	55 00 00 00 05 05 02 00 	sll $5,$2,0x5
  405a68:	42 00 00 00 00 05 02 05 	addu $5,$5,$2
  405a70:	55 00 00 00 04 05 05 00 	sll $5,$5,0x4
  405a78:	a2 00 00 00 63 10 02 00 	lui $2,4195
  405a80:	43 00 00 00 70 d9 02 02 	addiu $2,$2,-9872
  405a88:	42 00 00 00 00 05 02 05 	addu $5,$5,$2
  405a90:	34 00 00 00 1c 00 03 1d 	sw $3,28($29)
  405a98:	43 00 00 00 08 00 03 03 	addiu $3,$3,8
  405aa0:	43 00 00 00 38 0c 02 1d 	addiu $2,$29,3128
  405aa8:	34 00 00 00 28 00 02 1d 	sw $2,40($29)
  405ab0:	43 00 00 00 38 00 02 1d 	addiu $2,$29,56
  405ab8:	34 00 00 00 2c 00 02 1d 	sw $2,44($29)
  405ac0:	43 00 00 00 38 08 02 1d 	addiu $2,$29,2104
  405ac8:	34 00 00 00 10 00 05 1d 	sw $5,16($29)
  405ad0:	34 00 00 00 14 00 06 1d 	sw $6,20($29)
  405ad8:	34 00 00 00 18 00 07 1d 	sw $7,24($29)
  405ae0:	34 00 00 00 20 00 03 1d 	sw $3,32($29)
  405ae8:	34 00 00 00 24 00 07 1d 	sw $7,36($29)
  405af0:	34 00 00 00 30 00 02 1d 	sw $2,48($29)
  405af8:	34 00 00 00 34 00 10 1d 	sw $16,52($29)
  405b00:	02 00 00 00 de 18 10 00 	jal 406378 <dcft_>
  405b08:	28 00 00 00 00 00 03 11 	lw $3,0($17)
  405b10:	43 00 00 00 05 00 02 00 	addiu $2,$0,5
  405b18:	06 00 00 00 44 00 02 03 	bne $3,$2,405c30 <zfft_+0x610>
  405b20:	a2 00 00 00 c6 10 03 00 	lui $3,4294
  405b28:	43 00 00 00 28 64 03 03 	addiu $3,$3,25640
  405b30:	2b 00 00 00 a0 80 02 1c 	l.d $f2,-32608($28)
  405b38:	2a 00 00 00 00 00 00 03 	l.s $f0,0($3)
  405b40:	81 00 00 00 00 00 00 00 	cvt.s.w $f0,$f0
  405b48:	82 00 00 00 00 00 00 00 	cvt.d.s $f0,$f0
  405b50:	77 00 00 00 00 02 00 02 	div.d $f2,$f2,$f0
  405b58:	43 00 00 00 20 80 04 1c 	addiu $4,$28,-32736
  405b60:	37 00 00 00 38 0c 02 1d 	s.d $f2,3128($29)
  405b68:	28 00 00 00 00 00 02 10 	lw $2,0($16)
  405b70:	43 00 00 00 10 00 06 03 	addiu $6,$3,16
  405b78:	43 00 00 00 00 80 07 1c 	addiu $7,$28,-32768
  405b80:	43 00 00 00 40 00 02 02 	addiu $2,$2,64
  405b88:	55 00 00 00 05 05 02 00 	sll $5,$2,0x5
  405b90:	42 00 00 00 00 05 02 05 	addu $5,$5,$2
  405b98:	55 00 00 00 04 05 05 00 	sll $5,$5,0x4
  405ba0:	a2 00 00 00 84 10 02 00 	lui $2,4228
  405ba8:	43 00 00 00 70 d9 02 02 	addiu $2,$2,-9872
  405bb0:	42 00 00 00 00 05 02 05 	addu $5,$5,$2
  405bb8:	34 00 00 00 1c 00 03 1d 	sw $3,28($29)
  405bc0:	43 00 00 00 08 00 03 03 	addiu $3,$3,8
  405bc8:	43 00 00 00 38 0c 02 1d 	addiu $2,$29,3128
  405bd0:	34 00 00 00 28 00 02 1d 	sw $2,40($29)
  405bd8:	43 00 00 00 38 00 02 1d 	addiu $2,$29,56
  405be0:	34 00 00 00 2c 00 02 1d 	sw $2,44($29)
  405be8:	43 00 00 00 38 08 02 1d 	addiu $2,$29,2104
  405bf0:	34 00 00 00 10 00 05 1d 	sw $5,16($29)
  405bf8:	34 00 00 00 14 00 06 1d 	sw $6,20($29)
  405c00:	34 00 00 00 18 00 07 1d 	sw $7,24($29)
  405c08:	34 00 00 00 20 00 03 1d 	sw $3,32($29)
  405c10:	34 00 00 00 24 00 07 1d 	sw $7,36($29)
  405c18:	34 00 00 00 30 00 02 1d 	sw $2,48($29)
  405c20:	34 00 00 00 34 00 10 1d 	sw $16,52($29)
  405c28:	02 00 00 00 de 18 10 00 	jal 406378 <dcft_>
  405c30:	28 00 00 00 00 00 03 11 	lw $3,0($17)
  405c38:	43 00 00 00 06 00 02 00 	addiu $2,$0,6
  405c40:	06 00 00 00 c0 01 02 03 	bne $3,$2,406348 <zfft_+0xd28>
  405c48:	a2 00 00 00 c6 10 03 00 	lui $3,4294
  405c50:	43 00 00 00 28 64 03 03 	addiu $3,$3,25640
  405c58:	2b 00 00 00 a0 80 02 1c 	l.d $f2,-32608($28)
  405c60:	2a 00 00 00 00 00 00 03 	l.s $f0,0($3)
  405c68:	81 00 00 00 00 00 00 00 	cvt.s.w $f0,$f0
  405c70:	82 00 00 00 00 00 00 00 	cvt.d.s $f0,$f0
  405c78:	77 00 00 00 00 02 00 02 	div.d $f2,$f2,$f0
  405c80:	43 00 00 00 20 80 04 1c 	addiu $4,$28,-32736
  405c88:	37 00 00 00 38 0c 02 1d 	s.d $f2,3128($29)
  405c90:	28 00 00 00 00 00 02 10 	lw $2,0($16)
  405c98:	43 00 00 00 10 00 06 03 	addiu $6,$3,16
  405ca0:	43 00 00 00 00 80 07 1c 	addiu $7,$28,-32768
  405ca8:	43 00 00 00 40 00 02 02 	addiu $2,$2,64
  405cb0:	55 00 00 00 05 05 02 00 	sll $5,$2,0x5
  405cb8:	42 00 00 00 00 05 02 05 	addu $5,$5,$2
  405cc0:	55 00 00 00 04 05 05 00 	sll $5,$5,0x4
  405cc8:	a2 00 00 00 a5 10 02 00 	lui $2,4261
  405cd0:	43 00 00 00 70 d9 02 02 	addiu $2,$2,-9872
  405cd8:	42 00 00 00 00 05 02 05 	addu $5,$5,$2
  405ce0:	34 00 00 00 1c 00 03 1d 	sw $3,28($29)
  405ce8:	43 00 00 00 08 00 03 03 	addiu $3,$3,8
  405cf0:	43 00 00 00 38 0c 02 1d 	addiu $2,$29,3128
  405cf8:	34 00 00 00 28 00 02 1d 	sw $2,40($29)
  405d00:	43 00 00 00 38 00 02 1d 	addiu $2,$29,56
  405d08:	34 00 00 00 2c 00 02 1d 	sw $2,44($29)
  405d10:	43 00 00 00 38 08 02 1d 	addiu $2,$29,2104
  405d18:	34 00 00 00 10 00 05 1d 	sw $5,16($29)
  405d20:	34 00 00 00 14 00 06 1d 	sw $6,20($29)
  405d28:	34 00 00 00 18 00 07 1d 	sw $7,24($29)
  405d30:	34 00 00 00 20 00 03 1d 	sw $3,32($29)
  405d38:	34 00 00 00 24 00 07 1d 	sw $7,36($29)
  405d40:	01 00 00 00 cc 18 10 00 	j 406330 <zfft_+0xd10>
  405d48:	28 00 00 00 00 00 03 11 	lw $3,0($17)
  405d50:	43 00 00 00 01 00 02 00 	addiu $2,$0,1
  405d58:	06 00 00 00 3a 00 02 03 	bne $3,$2,405e48 <zfft_+0x828>
  405d60:	43 00 00 00 20 80 04 1c 	addiu $4,$28,-32736
  405d68:	28 00 00 00 00 00 02 10 	lw $2,0($16)
  405d70:	a2 00 00 00 c6 10 06 00 	lui $6,4294
  405d78:	43 00 00 00 38 64 06 06 	addiu $6,$6,25656
  405d80:	43 00 00 00 00 80 07 1c 	addiu $7,$28,-32768
  405d88:	43 00 00 00 40 00 02 02 	addiu $2,$2,64
  405d90:	55 00 00 00 05 05 02 00 	sll $5,$2,0x5
  405d98:	42 00 00 00 00 05 02 05 	addu $5,$5,$2
  405da0:	55 00 00 00 04 05 05 00 	sll $5,$5,0x4
  405da8:	a2 00 00 00 00 10 02 00 	lui $2,4096
  405db0:	43 00 00 00 70 d9 02 02 	addiu $2,$2,-9872
  405db8:	42 00 00 00 00 05 02 05 	addu $5,$5,$2
  405dc0:	43 00 00 00 f0 ff 02 06 	addiu $2,$6,-16
  405dc8:	34 00 00 00 1c 00 02 1d 	sw $2,28($29)
  405dd0:	43 00 00 00 f8 ff 02 06 	addiu $2,$6,-8
  405dd8:	34 00 00 00 20 00 02 1d 	sw $2,32($29)
  405de0:	43 00 00 00 24 80 02 1c 	addiu $2,$28,-32732
  405de8:	34 00 00 00 24 00 02 1d 	sw $2,36($29)
  405df0:	43 00 00 00 30 80 02 1c 	addiu $2,$28,-32720
  405df8:	34 00 00 00 28 00 02 1d 	sw $2,40($29)
  405e00:	43 00 00 00 38 00 02 1d 	addiu $2,$29,56
  405e08:	34 00 00 00 2c 00 02 1d 	sw $2,44($29)
  405e10:	43 00 00 00 38 08 02 1d 	addiu $2,$29,2104
  405e18:	34 00 00 00 10 00 05 1d 	sw $5,16($29)
  405e20:	34 00 00 00 14 00 06 1d 	sw $6,20($29)
  405e28:	34 00 00 00 18 00 07 1d 	sw $7,24($29)
  405e30:	34 00 00 00 30 00 02 1d 	sw $2,48($29)
  405e38:	34 00 00 00 34 00 10 1d 	sw $16,52($29)
  405e40:	02 00 00 00 de 18 10 00 	jal 406378 <dcft_>
  405e48:	28 00 00 00 00 00 03 11 	lw $3,0($17)
  405e50:	43 00 00 00 02 00 02 00 	addiu $2,$0,2
  405e58:	06 00 00 00 3a 00 02 03 	bne $3,$2,405f48 <zfft_+0x928>
  405e60:	43 00 00 00 20 80 04 1c 	addiu $4,$28,-32736
  405e68:	28 00 00 00 00 00 02 10 	lw $2,0($16)
  405e70:	a2 00 00 00 c6 10 06 00 	lui $6,4294
  405e78:	43 00 00 00 38 64 06 06 	addiu $6,$6,25656
  405e80:	43 00 00 00 00 80 07 1c 	addiu $7,$28,-32768
  405e88:	43 00 00 00 40 00 02 02 	addiu $2,$2,64
  405e90:	55 00 00 00 05 05 02 00 	sll $5,$2,0x5
  405e98:	42 00 00 00 00 05 02 05 	addu $5,$5,$2
  405ea0:	55 00 00 00 04 05 05 00 	sll $5,$5,0x4
  405ea8:	a2 00 00 00 21 10 02 00 	lui $2,4129
  405eb0:	43 00 00 00 70 d9 02 02 	addiu $2,$2,-9872
  405eb8:	42 00 00 00 00 05 02 05 	addu $5,$5,$2
  405ec0:	43 00 00 00 f0 ff 02 06 	addiu $2,$6,-16
  405ec8:	34 00 00 00 1c 00 02 1d 	sw $2,28($29)
  405ed0:	43 00 00 00 f8 ff 02 06 	addiu $2,$6,-8
  405ed8:	34 00 00 00 20 00 02 1d 	sw $2,32($29)
  405ee0:	43 00 00 00 24 80 02 1c 	addiu $2,$28,-32732
  405ee8:	34 00 00 00 24 00 02 1d 	sw $2,36($29)
  405ef0:	43 00 00 00 30 80 02 1c 	addiu $2,$28,-32720
  405ef8:	34 00 00 00 28 00 02 1d 	sw $2,40($29)
  405f00:	43 00 00 00 38 00 02 1d 	addiu $2,$29,56
  405f08:	34 00 00 00 2c 00 02 1d 	sw $2,44($29)
  405f10:	43 00 00 00 38 08 02 1d 	addiu $2,$29,2104
  405f18:	34 00 00 00 10 00 05 1d 	sw $5,16($29)
  405f20:	34 00 00 00 14 00 06 1d 	sw $6,20($29)
  405f28:	34 00 00 00 18 00 07 1d 	sw $7,24($29)
  405f30:	34 00 00 00 30 00 02 1d 	sw $2,48($29)
  405f38:	34 00 00 00 34 00 10 1d 	sw $16,52($29)
  405f40:	02 00 00 00 de 18 10 00 	jal 406378 <dcft_>
  405f48:	28 00 00 00 00 00 03 11 	lw $3,0($17)
  405f50:	43 00 00 00 03 00 02 00 	addiu $2,$0,3
  405f58:	06 00 00 00 3a 00 02 03 	bne $3,$2,406048 <zfft_+0xa28>
  405f60:	43 00 00 00 20 80 04 1c 	addiu $4,$28,-32736
  405f68:	28 00 00 00 00 00 02 10 	lw $2,0($16)
  405f70:	a2 00 00 00 c6 10 06 00 	lui $6,4294
  405f78:	43 00 00 00 38 64 06 06 	addiu $6,$6,25656
  405f80:	43 00 00 00 00 80 07 1c 	addiu $7,$28,-32768
  405f88:	43 00 00 00 40 00 02 02 	addiu $2,$2,64
  405f90:	55 00 00 00 05 05 02 00 	sll $5,$2,0x5
  405f98:	42 00 00 00 00 05 02 05 	addu $5,$5,$2
  405fa0:	55 00 00 00 04 05 05 00 	sll $5,$5,0x4
  405fa8:	a2 00 00 00 42 10 02 00 	lui $2,4162
  405fb0:	43 00 00 00 70 d9 02 02 	addiu $2,$2,-9872
  405fb8:	42 00 00 00 00 05 02 05 	addu $5,$5,$2
  405fc0:	43 00 00 00 f0 ff 02 06 	addiu $2,$6,-16
  405fc8:	34 00 00 00 1c 00 02 1d 	sw $2,28($29)
  405fd0:	43 00 00 00 f8 ff 02 06 	addiu $2,$6,-8
  405fd8:	34 00 00 00 20 00 02 1d 	sw $2,32($29)
  405fe0:	43 00 00 00 24 80 02 1c 	addiu $2,$28,-32732
  405fe8:	34 00 00 00 24 00 02 1d 	sw $2,36($29)
  405ff0:	43 00 00 00 30 80 02 1c 	addiu $2,$28,-32720
  405ff8:	34 00 00 00 28 00 02 1d 	sw $2,40($29)
  406000:	43 00 00 00 38 00 02 1d 	addiu $2,$29,56
  406008:	34 00 00 00 2c 00 02 1d 	sw $2,44($29)
  406010:	43 00 00 00 38 08 02 1d 	addiu $2,$29,2104
  406018:	34 00 00 00 10 00 05 1d 	sw $5,16($29)
  406020:	34 00 00 00 14 00 06 1d 	sw $6,20($29)
  406028:	34 00 00 00 18 00 07 1d 	sw $7,24($29)
  406030:	34 00 00 00 30 00 02 1d 	sw $2,48($29)
  406038:	34 00 00 00 34 00 10 1d 	sw $16,52($29)
  406040:	02 00 00 00 de 18 10 00 	jal 406378 <dcft_>
  406048:	28 00 00 00 00 00 03 11 	lw $3,0($17)
  406050:	43 00 00 00 04 00 02 00 	addiu $2,$0,4
  406058:	06 00 00 00 3a 00 02 03 	bne $3,$2,406148 <zfft_+0xb28>
  406060:	43 00 00 00 20 80 04 1c 	addiu $4,$28,-32736
  406068:	28 00 00 00 00 00 02 10 	lw $2,0($16)
  406070:	a2 00 00 00 c6 10 06 00 	lui $6,4294
  406078:	43 00 00 00 38 64 06 06 	addiu $6,$6,25656
  406080:	43 00 00 00 00 80 07 1c 	addiu $7,$28,-32768
  406088:	43 00 00 00 40 00 02 02 	addiu $2,$2,64
  406090:	55 00 00 00 05 05 02 00 	sll $5,$2,0x5
  406098:	42 00 00 00 00 05 02 05 	addu $5,$5,$2
  4060a0:	55 00 00 00 04 05 05 00 	sll $5,$5,0x4
  4060a8:	a2 00 00 00 63 10 02 00 	lui $2,4195
  4060b0:	43 00 00 00 70 d9 02 02 	addiu $2,$2,-9872
  4060b8:	42 00 00 00 00 05 02 05 	addu $5,$5,$2
  4060c0:	43 00 00 00 f0 ff 02 06 	addiu $2,$6,-16
  4060c8:	34 00 00 00 1c 00 02 1d 	sw $2,28($29)
  4060d0:	43 00 00 00 f8 ff 02 06 	addiu $2,$6,-8
  4060d8:	34 00 00 00 20 00 02 1d 	sw $2,32($29)
  4060e0:	43 00 00 00 24 80 02 1c 	addiu $2,$28,-32732
  4060e8:	34 00 00 00 24 00 02 1d 	sw $2,36($29)
  4060f0:	43 00 00 00 30 80 02 1c 	addiu $2,$28,-32720
  4060f8:	34 00 00 00 28 00 02 1d 	sw $2,40($29)
  406100:	43 00 00 00 38 00 02 1d 	addiu $2,$29,56
  406108:	34 00 00 00 2c 00 02 1d 	sw $2,44($29)
  406110:	43 00 00 00 38 08 02 1d 	addiu $2,$29,2104
  406118:	34 00 00 00 10 00 05 1d 	sw $5,16($29)
  406120:	34 00 00 00 14 00 06 1d 	sw $6,20($29)
  406128:	34 00 00 00 18 00 07 1d 	sw $7,24($29)
  406130:	34 00 00 00 30 00 02 1d 	sw $2,48($29)
  406138:	34 00 00 00 34 00 10 1d 	sw $16,52($29)
  406140:	02 00 00 00 de 18 10 00 	jal 406378 <dcft_>
  406148:	28 00 00 00 00 00 03 11 	lw $3,0($17)
  406150:	43 00 00 00 05 00 02 00 	addiu $2,$0,5
  406158:	06 00 00 00 3a 00 02 03 	bne $3,$2,406248 <zfft_+0xc28>
  406160:	43 00 00 00 20 80 04 1c 	addiu $4,$28,-32736
  406168:	28 00 00 00 00 00 02 10 	lw $2,0($16)
  406170:	a2 00 00 00 c6 10 06 00 	lui $6,4294
  406178:	43 00 00 00 38 64 06 06 	addiu $6,$6,25656
  406180:	43 00 00 00 00 80 07 1c 	addiu $7,$28,-32768
  406188:	43 00 00 00 40 00 02 02 	addiu $2,$2,64
  406190:	55 00 00 00 05 05 02 00 	sll $5,$2,0x5
  406198:	42 00 00 00 00 05 02 05 	addu $5,$5,$2
  4061a0:	55 00 00 00 04 05 05 00 	sll $5,$5,0x4
  4061a8:	a2 00 00 00 84 10 02 00 	lui $2,4228
  4061b0:	43 00 00 00 70 d9 02 02 	addiu $2,$2,-9872
  4061b8:	42 00 00 00 00 05 02 05 	addu $5,$5,$2
  4061c0:	43 00 00 00 f0 ff 02 06 	addiu $2,$6,-16
  4061c8:	34 00 00 00 1c 00 02 1d 	sw $2,28($29)
  4061d0:	43 00 00 00 f8 ff 02 06 	addiu $2,$6,-8
  4061d8:	34 00 00 00 20 00 02 1d 	sw $2,32($29)
  4061e0:	43 00 00 00 24 80 02 1c 	addiu $2,$28,-32732
  4061e8:	34 00 00 00 24 00 02 1d 	sw $2,36($29)
  4061f0:	43 00 00 00 30 80 02 1c 	addiu $2,$28,-32720
  4061f8:	34 00 00 00 28 00 02 1d 	sw $2,40($29)
  406200:	43 00 00 00 38 00 02 1d 	addiu $2,$29,56
  406208:	34 00 00 00 2c 00 02 1d 	sw $2,44($29)
  406210:	43 00 00 00 38 08 02 1d 	addiu $2,$29,2104
  406218:	34 00 00 00 10 00 05 1d 	sw $5,16($29)
  406220:	34 00 00 00 14 00 06 1d 	sw $6,20($29)
  406228:	34 00 00 00 18 00 07 1d 	sw $7,24($29)
  406230:	34 00 00 00 30 00 02 1d 	sw $2,48($29)
  406238:	34 00 00 00 34 00 10 1d 	sw $16,52($29)
  406240:	02 00 00 00 de 18 10 00 	jal 406378 <dcft_>
  406248:	28 00 00 00 00 00 03 11 	lw $3,0($17)
  406250:	43 00 00 00 06 00 02 00 	addiu $2,$0,6
  406258:	06 00 00 00 3a 00 02 03 	bne $3,$2,406348 <zfft_+0xd28>
  406260:	43 00 00 00 20 80 04 1c 	addiu $4,$28,-32736
  406268:	28 00 00 00 00 00 02 10 	lw $2,0($16)
  406270:	a2 00 00 00 c6 10 06 00 	lui $6,4294
  406278:	43 00 00 00 38 64 06 06 	addiu $6,$6,25656
  406280:	43 00 00 00 00 80 07 1c 	addiu $7,$28,-32768
  406288:	43 00 00 00 40 00 02 02 	addiu $2,$2,64
  406290:	55 00 00 00 05 05 02 00 	sll $5,$2,0x5
  406298:	42 00 00 00 00 05 02 05 	addu $5,$5,$2
  4062a0:	55 00 00 00 04 05 05 00 	sll $5,$5,0x4
  4062a8:	a2 00 00 00 a5 10 02 00 	lui $2,4261
  4062b0:	43 00 00 00 70 d9 02 02 	addiu $2,$2,-9872
  4062b8:	42 00 00 00 00 05 02 05 	addu $5,$5,$2
  4062c0:	43 00 00 00 f0 ff 02 06 	addiu $2,$6,-16
  4062c8:	34 00 00 00 1c 00 02 1d 	sw $2,28($29)
  4062d0:	43 00 00 00 f8 ff 02 06 	addiu $2,$6,-8
  4062d8:	34 00 00 00 20 00 02 1d 	sw $2,32($29)
  4062e0:	43 00 00 00 24 80 02 1c 	addiu $2,$28,-32732
  4062e8:	34 00 00 00 24 00 02 1d 	sw $2,36($29)
  4062f0:	43 00 00 00 30 80 02 1c 	addiu $2,$28,-32720
  4062f8:	34 00 00 00 28 00 02 1d 	sw $2,40($29)
  406300:	43 00 00 00 38 00 02 1d 	addiu $2,$29,56
  406308:	34 00 00 00 2c 00 02 1d 	sw $2,44($29)
  406310:	43 00 00 00 38 08 02 1d 	addiu $2,$29,2104
  406318:	34 00 00 00 10 00 05 1d 	sw $5,16($29)
  406320:	34 00 00 00 14 00 06 1d 	sw $6,20($29)
  406328:	34 00 00 00 18 00 07 1d 	sw $7,24($29)
  406330:	34 00 00 00 30 00 02 1d 	sw $2,48($29)
  406338:	34 00 00 00 34 00 10 1d 	sw $16,52($29)
  406340:	02 00 00 00 de 18 10 00 	jal 406378 <dcft_>
  406348:	42 00 00 00 00 02 00 00 	addu $2,$0,$0
  406350:	28 00 00 00 48 0c 1f 1d 	lw $31,3144($29)
  406358:	28 00 00 00 44 0c 11 1d 	lw $17,3140($29)
  406360:	28 00 00 00 40 0c 10 1d 	lw $16,3136($29)
  406368:	43 00 00 00 50 0c 1d 1d 	addiu $29,$29,3152
  406370:	03 00 00 00 00 00 00 1f 	jr $31

00406378 <dcft_>:
  406378:	43 00 00 00 a8 ff 1d 1d 	addiu $29,$29,-88
  406380:	34 00 00 00 48 00 16 1d 	sw $22,72($29)
  406388:	28 00 00 00 68 00 16 1d 	lw $22,104($29)
  406390:	34 00 00 00 34 00 11 1d 	sw $17,52($29)
  406398:	28 00 00 00 84 00 11 1d 	lw $17,132($29)
  4063a0:	34 00 00 00 38 00 12 1d 	sw $18,56($29)
  4063a8:	43 00 00 00 f8 ff 12 05 	addiu $18,$5,-8
  4063b0:	34 00 00 00 18 00 04 1d 	sw $4,24($29)
  4063b8:	28 00 00 00 18 00 05 1d 	lw $5,24($29)
  4063c0:	28 00 00 00 88 00 0a 1d 	lw $10,136($29)
  4063c8:	34 00 00 00 44 00 15 1d 	sw $21,68($29)
  4063d0:	28 00 00 00 74 00 15 1d 	lw $21,116($29)
  4063d8:	34 00 00 00 30 00 10 1d 	sw $16,48($29)
  4063e0:	28 00 00 00 78 00 10 1d 	lw $16,120($29)
  4063e8:	34 00 00 00 4c 00 17 1d 	sw $23,76($29)
  4063f0:	28 00 00 00 80 00 17 1d 	lw $23,128($29)
  4063f8:	43 00 00 00 38 80 04 1c 	addiu $4,$28,-32712
  406400:	34 00 00 00 40 00 14 1d 	sw $20,64($29)
  406408:	42 00 00 00 00 14 06 00 	addu $20,$0,$6
  406410:	34 00 00 00 54 00 1f 1d 	sw $31,84($29)
  406418:	34 00 00 00 50 00 1e 1d 	sw $30,80($29)
  406420:	34 00 00 00 3c 00 13 1d 	sw $19,60($29)
  406428:	34 00 00 00 20 00 07 1d 	sw $7,32($29)
  406430:	43 00 00 00 f8 ff 16 16 	addiu $22,$22,-8
  406438:	43 00 00 00 f8 ff 0a 0a 	addiu $10,$10,-8
  406440:	43 00 00 00 f8 ff 11 11 	addiu $17,$17,-8
  406448:	43 00 00 00 08 00 06 0a 	addiu $6,$10,8
  406450:	34 00 00 00 88 00 0a 1d 	sw $10,136($29)
  406458:	28 00 00 00 00 00 02 15 	lw $2,0($21)
  406460:	43 00 00 00 08 00 07 11 	addiu $7,$17,8
  406468:	28 00 00 00 8c 00 0a 1d 	lw $10,140($29)
  406470:	55 00 00 00 04 02 02 00 	sll $2,$2,0x4
  406478:	43 00 00 00 08 00 02 02 	addiu $2,$2,8
  406480:	42 00 00 00 00 02 02 11 	addu $2,$17,$2
  406488:	34 00 00 00 10 00 02 1d 	sw $2,16($29)
  406490:	34 00 00 00 14 00 0a 1d 	sw $10,20($29)
  406498:	02 00 00 00 48 1b 10 00 	jal 406d20 <cfft_>
  4064a0:	28 00 00 00 00 00 10 10 	lw $16,0($16)
  4064a8:	43 00 00 00 01 00 1e 00 	addiu $30,$0,1
  4064b0:	34 00 00 00 28 00 10 1d 	sw $16,40($29)
  4064b8:	07 00 00 00 fe 01 00 10 	blez $16,406cb8 <dcft_+0x940>
  4064c0:	28 00 00 00 20 00 0a 1d 	lw $10,32($29)
  4064c8:	28 00 00 00 00 00 03 0a 	lw $3,0($10)
  4064d0:	43 00 00 00 ff ff 02 1e 	addiu $2,$30,-1
  4064d8:	46 00 00 00 00 00 03 02 	mult $2,$3
  4064e0:	4c 00 00 00 00 02 00 00 	mflo $2
  4064e8:	28 00 00 00 00 00 09 15 	lw $9,0($21)
  4064f0:	43 00 00 00 01 00 05 00 	addiu $5,$0,1
  4064f8:	55 00 00 00 01 04 02 00 	sll $4,$2,0x1
  406500:	43 00 00 00 01 00 13 04 	addiu $19,$4,1
  406508:	43 00 00 00 02 00 10 04 	addiu $16,$4,2
  406510:	07 00 00 00 24 01 00 09 	blez $9,4069a8 <dcft_+0x630>
  406518:	43 00 00 00 08 00 08 11 	addiu $8,$17,8
  406520:	42 00 00 00 00 07 00 00 	addu $7,$0,$0
  406528:	43 00 00 00 01 00 02 09 	addiu $2,$9,1
  406530:	4f 00 00 00 03 00 03 09 	andi $3,$9,3
  406538:	5b 00 00 00 00 02 02 05 	slt $2,$5,$2
  406540:	05 00 00 00 54 00 00 02 	beq $2,$0,406698 <dcft_+0x320>
  406548:	05 00 00 00 78 00 00 03 	beq $3,$0,406730 <dcft_+0x3b8>
  406550:	5c 00 00 00 02 00 02 03 	slti $2,$3,2
  406558:	06 00 00 00 4e 00 00 02 	bne $2,$0,406698 <dcft_+0x320>
  406560:	5c 00 00 00 03 00 02 03 	slti $2,$3,3
  406568:	06 00 00 00 22 00 00 02 	bne $2,$0,4065f8 <dcft_+0x280>
  406570:	43 00 00 00 01 00 02 04 	addiu $2,$4,1
  406578:	55 00 00 00 03 02 02 00 	sll $2,$2,0x3
  406580:	42 00 00 00 00 02 12 02 	addu $2,$2,$18
  406588:	2b 00 00 00 00 00 00 02 	l.d $f0,0($2)
  406590:	43 00 00 00 02 00 04 04 	addiu $4,$4,2
  406598:	43 00 00 00 08 00 08 08 	addiu $8,$8,8
  4065a0:	43 00 00 00 02 00 07 00 	addiu $7,$0,2
  4065a8:	43 00 00 00 02 00 05 00 	addiu $5,$0,2
  4065b0:	37 00 00 00 08 00 00 11 	s.d $f0,8($17)
  4065b8:	28 00 00 00 00 00 03 15 	lw $3,0($21)
  4065c0:	55 00 00 00 03 02 04 00 	sll $2,$4,0x3
  4065c8:	42 00 00 00 00 02 12 02 	addu $2,$2,$18
  4065d0:	2b 00 00 00 00 00 00 02 	l.d $f0,0($2)
  4065d8:	43 00 00 00 01 00 03 03 	addiu $3,$3,1
  4065e0:	55 00 00 00 03 03 03 00 	sll $3,$3,0x3
  4065e8:	42 00 00 00 00 03 11 03 	addu $3,$3,$17
  4065f0:	37 00 00 00 00 00 00 03 	s.d $f0,0($3)
  4065f8:	28 00 00 00 00 00 02 14 	lw $2,0($20)
  406600:	46 00 00 00 00 00 02 07 	mult $7,$2
  406608:	4c 00 00 00 00 04 00 00 	mflo $4
  406610:	42 00 00 00 00 02 04 13 	addu $2,$19,$4
  406618:	55 00 00 00 03 02 02 00 	sll $2,$2,0x3
  406620:	42 00 00 00 00 02 12 02 	addu $2,$2,$18
  406628:	2b 00 00 00 00 00 00 02 	l.d $f0,0($2)
  406630:	43 00 00 00 02 00 07 07 	addiu $7,$7,2
  406638:	42 00 00 00 00 04 04 10 	addu $4,$16,$4
  406640:	37 00 00 00 00 00 00 08 	s.d $f0,0($8)
  406648:	28 00 00 00 00 00 03 15 	lw $3,0($21)
  406650:	43 00 00 00 08 00 08 08 	addiu $8,$8,8
  406658:	55 00 00 00 03 02 04 00 	sll $2,$4,0x3
  406660:	42 00 00 00 00 02 12 02 	addu $2,$2,$18
  406668:	2b 00 00 00 00 00 00 02 	l.d $f0,0($2)
  406670:	42 00 00 00 00 03 03 05 	addu $3,$5,$3
  406678:	43 00 00 00 01 00 05 05 	addiu $5,$5,1
  406680:	55 00 00 00 03 03 03 00 	sll $3,$3,0x3
  406688:	42 00 00 00 00 03 11 03 	addu $3,$3,$17
  406690:	37 00 00 00 00 00 00 03 	s.d $f0,0($3)
  406698:	28 00 00 00 00 00 02 14 	lw $2,0($20)
  4066a0:	46 00 00 00 00 00 02 07 	mult $7,$2
  4066a8:	4c 00 00 00 00 04 00 00 	mflo $4
  4066b0:	42 00 00 00 00 02 04 13 	addu $2,$19,$4
  4066b8:	55 00 00 00 03 02 02 00 	sll $2,$2,0x3
  4066c0:	42 00 00 00 00 02 12 02 	addu $2,$2,$18
  4066c8:	2b 00 00 00 00 00 00 02 	l.d $f0,0($2)
  4066d0:	43 00 00 00 02 00 07 07 	addiu $7,$7,2
  4066d8:	42 00 00 00 00 04 04 10 	addu $4,$16,$4
  4066e0:	37 00 00 00 00 00 00 08 	s.d $f0,0($8)
  4066e8:	28 00 00 00 00 00 03 15 	lw $3,0($21)
  4066f0:	43 00 00 00 08 00 08 08 	addiu $8,$8,8
  4066f8:	55 00 00 00 03 02 04 00 	sll $2,$4,0x3
  406700:	42 00 00 00 00 02 12 02 	addu $2,$2,$18
  406708:	2b 00 00 00 00 00 00 02 	l.d $f0,0($2)
  406710:	42 00 00 00 00 03 03 05 	addu $3,$5,$3
  406718:	43 00 00 00 01 00 05 05 	addiu $5,$5,1
  406720:	5b 00 00 00 00 06 05 09 	slt $6,$9,$5
  406728:	01 00 00 00 62 1a 10 00 	j 406988 <dcft_+0x610>
  406730:	28 00 00 00 00 00 02 14 	lw $2,0($20)
  406738:	46 00 00 00 00 00 02 07 	mult $7,$2
  406740:	4c 00 00 00 00 04 00 00 	mflo $4
  406748:	42 00 00 00 00 02 04 13 	addu $2,$19,$4
  406750:	55 00 00 00 03 02 02 00 	sll $2,$2,0x3
  406758:	42 00 00 00 00 02 12 02 	addu $2,$2,$18
  406760:	2b 00 00 00 00 00 00 02 	l.d $f0,0($2)
  406768:	42 00 00 00 00 04 04 10 	addu $4,$16,$4
  406770:	37 00 00 00 00 00 00 08 	s.d $f0,0($8)
  406778:	28 00 00 00 00 00 03 15 	lw $3,0($21)
  406780:	55 00 00 00 03 02 04 00 	sll $2,$4,0x3
  406788:	42 00 00 00 00 02 12 02 	addu $2,$2,$18
  406790:	2b 00 00 00 00 00 00 02 	l.d $f0,0($2)
  406798:	42 00 00 00 00 03 03 05 	addu $3,$5,$3
  4067a0:	55 00 00 00 03 03 03 00 	sll $3,$3,0x3
  4067a8:	42 00 00 00 00 03 11 03 	addu $3,$3,$17
  4067b0:	37 00 00 00 00 00 00 03 	s.d $f0,0($3)
  4067b8:	28 00 00 00 00 00 03 14 	lw $3,0($20)
  4067c0:	43 00 00 00 02 00 02 07 	addiu $2,$7,2
  4067c8:	46 00 00 00 00 00 03 02 	mult $2,$3
  4067d0:	4c 00 00 00 00 03 00 00 	mflo $3
  4067d8:	42 00 00 00 00 02 03 13 	addu $2,$19,$3
  4067e0:	55 00 00 00 03 02 02 00 	sll $2,$2,0x3
  4067e8:	42 00 00 00 00 02 12 02 	addu $2,$2,$18
  4067f0:	2b 00 00 00 00 00 00 02 	l.d $f0,0($2)
  4067f8:	37 00 00 00 08 00 00 08 	s.d $f0,8($8)
  406800:	28 00 00 00 00 00 02 15 	lw $2,0($21)
  406808:	42 00 00 00 00 04 03 10 	addu $4,$16,$3
  406810:	43 00 00 00 01 00 03 05 	addiu $3,$5,1
  406818:	42 00 00 00 00 03 02 03 	addu $3,$3,$2
  406820:	55 00 00 00 03 02 04 00 	sll $2,$4,0x3
  406828:	42 00 00 00 00 02 12 02 	addu $2,$2,$18
  406830:	2b 00 00 00 00 00 00 02 	l.d $f0,0($2)
  406838:	55 00 00 00 03 03 03 00 	sll $3,$3,0x3
  406840:	42 00 00 00 00 03 11 03 	addu $3,$3,$17
  406848:	37 00 00 00 00 00 00 03 	s.d $f0,0($3)
  406850:	28 00 00 00 00 00 03 14 	lw $3,0($20)
  406858:	43 00 00 00 04 00 02 07 	addiu $2,$7,4
  406860:	46 00 00 00 00 00 03 02 	mult $2,$3
  406868:	4c 00 00 00 00 03 00 00 	mflo $3
  406870:	42 00 00 00 00 02 03 13 	addu $2,$19,$3
  406878:	55 00 00 00 03 02 02 00 	sll $2,$2,0x3
  406880:	42 00 00 00 00 02 12 02 	addu $2,$2,$18
  406888:	2b 00 00 00 00 00 00 02 	l.d $f0,0($2)
  406890:	37 00 00 00 10 00 00 08 	s.d $f0,16($8)
  406898:	28 00 00 00 00 00 02 15 	lw $2,0($21)
  4068a0:	42 00 00 00 00 04 03 10 	addu $4,$16,$3
  4068a8:	43 00 00 00 02 00 03 05 	addiu $3,$5,2
  4068b0:	42 00 00 00 00 03 02 03 	addu $3,$3,$2
  4068b8:	55 00 00 00 03 02 04 00 	sll $2,$4,0x3
  4068c0:	42 00 00 00 00 02 12 02 	addu $2,$2,$18
  4068c8:	2b 00 00 00 00 00 00 02 	l.d $f0,0($2)
  4068d0:	55 00 00 00 03 03 03 00 	sll $3,$3,0x3
  4068d8:	42 00 00 00 00 03 11 03 	addu $3,$3,$17
  4068e0:	37 00 00 00 00 00 00 03 	s.d $f0,0($3)
  4068e8:	28 00 00 00 00 00 03 14 	lw $3,0($20)
  4068f0:	43 00 00 00 06 00 02 07 	addiu $2,$7,6
  4068f8:	46 00 00 00 00 00 03 02 	mult $2,$3
  406900:	4c 00 00 00 00 04 00 00 	mflo $4
  406908:	43 00 00 00 08 00 07 07 	addiu $7,$7,8
  406910:	43 00 00 00 03 00 03 05 	addiu $3,$5,3
  406918:	42 00 00 00 00 02 04 13 	addu $2,$19,$4
  406920:	55 00 00 00 03 02 02 00 	sll $2,$2,0x3
  406928:	42 00 00 00 00 02 12 02 	addu $2,$2,$18
  406930:	2b 00 00 00 00 00 00 02 	l.d $f0,0($2)
  406938:	43 00 00 00 04 00 05 05 	addiu $5,$5,4
  406940:	5b 00 00 00 00 06 05 09 	slt $6,$9,$5
  406948:	37 00 00 00 18 00 00 08 	s.d $f0,24($8)
  406950:	28 00 00 00 00 00 02 15 	lw $2,0($21)
  406958:	42 00 00 00 00 04 04 10 	addu $4,$16,$4
  406960:	43 00 00 00 20 00 08 08 	addiu $8,$8,32
  406968:	42 00 00 00 00 03 02 03 	addu $3,$3,$2
  406970:	55 00 00 00 03 02 04 00 	sll $2,$4,0x3
  406978:	42 00 00 00 00 02 12 02 	addu $2,$2,$18
  406980:	2b 00 00 00 00 00 00 02 	l.d $f0,0($2)
  406988:	55 00 00 00 03 03 03 00 	sll $3,$3,0x3
  406990:	42 00 00 00 00 03 11 03 	addu $3,$3,$17
  406998:	37 00 00 00 00 00 00 03 	s.d $f0,0($3)
  4069a0:	05 00 00 00 62 ff 00 06 	beq $6,$0,406730 <dcft_+0x3b8>
  4069a8:	28 00 00 00 7c 00 04 1d 	lw $4,124($29)
  4069b0:	28 00 00 00 18 00 05 1d 	lw $5,24($29)
  4069b8:	28 00 00 00 88 00 0a 1d 	lw $10,136($29)
  4069c0:	28 00 00 00 00 00 02 15 	lw $2,0($21)
  4069c8:	43 00 00 00 08 00 07 11 	addiu $7,$17,8
  4069d0:	43 00 00 00 08 00 06 0a 	addiu $6,$10,8
  4069d8:	55 00 00 00 04 02 02 00 	sll $2,$2,0x4
  4069e0:	28 00 00 00 8c 00 0a 1d 	lw $10,140($29)
  4069e8:	43 00 00 00 08 00 02 02 	addiu $2,$2,8
  4069f0:	42 00 00 00 00 02 02 11 	addu $2,$17,$2
  4069f8:	34 00 00 00 10 00 02 1d 	sw $2,16($29)
  406a00:	34 00 00 00 14 00 0a 1d 	sw $10,20($29)
  406a08:	02 00 00 00 48 1b 10 00 	jal 406d20 <cfft_>
  406a10:	28 00 00 00 00 00 09 15 	lw $9,0($21)
  406a18:	43 00 00 00 01 00 05 00 	addiu $5,$0,1
  406a20:	07 00 00 00 9c 00 00 09 	blez $9,406c98 <dcft_+0x920>
  406a28:	43 00 00 00 08 00 04 11 	addiu $4,$17,8
  406a30:	42 00 00 00 00 06 00 00 	addu $6,$0,$0
  406a38:	43 00 00 00 01 00 02 09 	addiu $2,$9,1
  406a40:	4f 00 00 00 01 00 03 09 	andi $3,$9,1
  406a48:	5b 00 00 00 00 02 02 05 	slt $2,$5,$2
  406a50:	05 00 00 00 02 00 00 02 	beq $2,$0,406a60 <dcft_+0x6e8>
  406a58:	05 00 00 00 2a 00 00 03 	beq $3,$0,406b08 <dcft_+0x790>
  406a60:	2b 00 00 00 00 00 02 17 	l.d $f2,0($23)
  406a68:	2b 00 00 00 08 00 00 11 	l.d $f0,8($17)
  406a70:	75 00 00 00 00 02 00 02 	mul.d $f2,$f2,$f0
  406a78:	55 00 00 00 03 02 13 00 	sll $2,$19,0x3
  406a80:	42 00 00 00 00 02 16 02 	addu $2,$2,$22
  406a88:	37 00 00 00 00 00 02 02 	s.d $f2,0($2)
  406a90:	28 00 00 00 00 00 02 15 	lw $2,0($21)
  406a98:	2b 00 00 00 00 00 02 17 	l.d $f2,0($23)
  406aa0:	43 00 00 00 01 00 02 02 	addiu $2,$2,1
  406aa8:	55 00 00 00 03 02 02 00 	sll $2,$2,0x3
  406ab0:	42 00 00 00 00 02 11 02 	addu $2,$2,$17
  406ab8:	2b 00 00 00 00 00 00 02 	l.d $f0,0($2)
  406ac0:	75 00 00 00 00 02 00 02 	mul.d $f2,$f2,$f0
  406ac8:	43 00 00 00 08 00 04 04 	addiu $4,$4,8
  406ad0:	43 00 00 00 02 00 06 00 	addiu $6,$0,2
  406ad8:	43 00 00 00 02 00 05 00 	addiu $5,$0,2
  406ae0:	5c 00 00 00 02 00 03 09 	slti $3,$9,2
  406ae8:	55 00 00 00 03 02 10 00 	sll $2,$16,0x3
  406af0:	42 00 00 00 00 02 16 02 	addu $2,$2,$22
  406af8:	37 00 00 00 00 00 02 02 	s.d $f2,0($2)
  406b00:	06 00 00 00 64 00 00 03 	bne $3,$0,406c98 <dcft_+0x920>
  406b08:	42 00 00 00 00 07 04 00 	addu $7,$0,$4
  406b10:	28 00 00 00 00 00 02 14 	lw $2,0($20)
  406b18:	46 00 00 00 00 00 02 06 	mult $6,$2
  406b20:	2b 00 00 00 00 00 02 17 	l.d $f2,0($23)
  406b28:	2b 00 00 00 00 00 00 07 	l.d $f0,0($7)
  406b30:	75 00 00 00 00 02 00 02 	mul.d $f2,$f2,$f0
  406b38:	4c 00 00 00 00 03 00 00 	mflo $3
  406b40:	42 00 00 00 00 02 03 13 	addu $2,$19,$3
  406b48:	55 00 00 00 03 02 02 00 	sll $2,$2,0x3
  406b50:	42 00 00 00 00 02 16 02 	addu $2,$2,$22
  406b58:	37 00 00 00 00 00 02 02 	s.d $f2,0($2)
  406b60:	28 00 00 00 00 00 02 15 	lw $2,0($21)
  406b68:	2b 00 00 00 00 00 02 17 	l.d $f2,0($23)
  406b70:	42 00 00 00 00 02 02 05 	addu $2,$5,$2
  406b78:	55 00 00 00 03 02 02 00 	sll $2,$2,0x3
  406b80:	42 00 00 00 00 02 11 02 	addu $2,$2,$17
  406b88:	2b 00 00 00 00 00 00 02 	l.d $f0,0($2)
  406b90:	75 00 00 00 00 02 00 02 	mul.d $f2,$f2,$f0
  406b98:	42 00 00 00 00 04 03 10 	addu $4,$16,$3
  406ba0:	55 00 00 00 03 02 04 00 	sll $2,$4,0x3
  406ba8:	42 00 00 00 00 02 16 02 	addu $2,$2,$22
  406bb0:	37 00 00 00 00 00 02 02 	s.d $f2,0($2)
  406bb8:	28 00 00 00 00 00 03 14 	lw $3,0($20)
  406bc0:	43 00 00 00 02 00 02 06 	addiu $2,$6,2
  406bc8:	46 00 00 00 00 00 03 02 	mult $2,$3
  406bd0:	2b 00 00 00 00 00 02 17 	l.d $f2,0($23)
  406bd8:	2b 00 00 00 08 00 00 07 	l.d $f0,8($7)
  406be0:	75 00 00 00 00 02 00 02 	mul.d $f2,$f2,$f0
  406be8:	4c 00 00 00 00 04 00 00 	mflo $4
  406bf0:	42 00 00 00 00 02 04 13 	addu $2,$19,$4
  406bf8:	55 00 00 00 03 02 02 00 	sll $2,$2,0x3
  406c00:	42 00 00 00 00 02 16 02 	addu $2,$2,$22
  406c08:	37 00 00 00 00 00 02 02 	s.d $f2,0($2)
  406c10:	28 00 00 00 00 00 03 15 	lw $3,0($21)
  406c18:	43 00 00 00 01 00 02 05 	addiu $2,$5,1
  406c20:	2b 00 00 00 00 00 02 17 	l.d $f2,0($23)
  406c28:	42 00 00 00 00 02 03 02 	addu $2,$2,$3
  406c30:	55 00 00 00 03 02 02 00 	sll $2,$2,0x3
  406c38:	42 00 00 00 00 02 11 02 	addu $2,$2,$17
  406c40:	2b 00 00 00 00 00 00 02 	l.d $f0,0($2)
  406c48:	75 00 00 00 00 02 00 02 	mul.d $f2,$f2,$f0
  406c50:	43 00 00 00 04 00 06 06 	addiu $6,$6,4
  406c58:	43 00 00 00 10 00 07 07 	addiu $7,$7,16
  406c60:	43 00 00 00 02 00 05 05 	addiu $5,$5,2
  406c68:	42 00 00 00 00 04 04 10 	addu $4,$16,$4
  406c70:	5b 00 00 00 00 03 05 09 	slt $3,$9,$5
  406c78:	55 00 00 00 03 02 04 00 	sll $2,$4,0x3
  406c80:	42 00 00 00 00 02 16 02 	addu $2,$2,$22
  406c88:	37 00 00 00 00 00 02 02 	s.d $f2,0($2)
  406c90:	05 00 00 00 9e ff 00 03 	beq $3,$0,406b10 <dcft_+0x798>
  406c98:	28 00 00 00 28 00 0a 1d 	lw $10,40($29)
  406ca0:	43 00 00 00 01 00 1e 1e 	addiu $30,$30,1
  406ca8:	5b 00 00 00 00 02 1e 0a 	slt $2,$10,$30
  406cb0:	05 00 00 00 02 fe 00 02 	beq $2,$0,4064c0 <dcft_+0x148>
  406cb8:	42 00 00 00 00 02 00 00 	addu $2,$0,$0
  406cc0:	28 00 00 00 54 00 1f 1d 	lw $31,84($29)
  406cc8:	28 00 00 00 50 00 1e 1d 	lw $30,80($29)
  406cd0:	28 00 00 00 4c 00 17 1d 	lw $23,76($29)
  406cd8:	28 00 00 00 48 00 16 1d 	lw $22,72($29)
  406ce0:	28 00 00 00 44 00 15 1d 	lw $21,68($29)
  406ce8:	28 00 00 00 40 00 14 1d 	lw $20,64($29)
  406cf0:	28 00 00 00 3c 00 13 1d 	lw $19,60($29)
  406cf8:	28 00 00 00 38 00 12 1d 	lw $18,56($29)
  406d00:	28 00 00 00 34 00 11 1d 	lw $17,52($29)
  406d08:	28 00 00 00 30 00 10 1d 	lw $16,48($29)
  406d10:	43 00 00 00 58 00 1d 1d 	addiu $29,$29,88
  406d18:	03 00 00 00 00 00 00 1f 	jr $31

00406d20 <cfft_>:
  406d20:	43 00 00 00 88 ff 1d 1d 	addiu $29,$29,-120
  406d28:	34 00 00 00 58 00 1e 1d 	sw $30,88($29)
  406d30:	28 00 00 00 88 00 1e 1d 	lw $30,136($29)
  406d38:	34 00 00 00 50 00 16 1d 	sw $22,80($29)
  406d40:	42 00 00 00 00 16 04 00 	addu $22,$0,$4
  406d48:	34 00 00 00 38 00 10 1d 	sw $16,56($29)
  406d50:	42 00 00 00 00 10 05 00 	addu $16,$0,$5
  406d58:	34 00 00 00 5c 00 1f 1d 	sw $31,92($29)
  406d60:	34 00 00 00 54 00 17 1d 	sw $23,84($29)
  406d68:	34 00 00 00 4c 00 15 1d 	sw $21,76($29)
  406d70:	34 00 00 00 48 00 14 1d 	sw $20,72($29)
  406d78:	34 00 00 00 44 00 13 1d 	sw $19,68($29)
  406d80:	34 00 00 00 40 00 12 1d 	sw $18,64($29)
  406d88:	34 00 00 00 3c 00 11 1d 	sw $17,60($29)
  406d90:	37 00 00 00 70 00 18 1d 	s.d $f24,112($29)
  406d98:	37 00 00 00 68 00 16 1d 	s.d $f22,104($29)
  406da0:	37 00 00 00 60 00 14 1d 	s.d $f20,96($29)
  406da8:	28 00 00 00 00 00 04 16 	lw $4,0($22)
  406db0:	43 00 00 00 f8 ff 17 07 	addiu $23,$7,-8
  406db8:	43 00 00 00 f8 ff 14 06 	addiu $20,$6,-8
  406dc0:	43 00 00 00 f8 ff 1e 1e 	addiu $30,$30,-8
  406dc8:	06 00 00 00 e2 00 00 04 	bne $4,$0,407158 <cfft_+0x438>
  406dd0:	43 00 00 00 10 80 04 1c 	addiu $4,$28,-32752
  406dd8:	02 00 00 00 e4 88 10 00 	jal 422390 <pow_ii>
  406de0:	34 00 00 00 30 00 02 1d 	sw $2,48($29)
  406de8:	43 00 00 00 02 00 15 02 	addiu $21,$2,2
  406df0:	28 00 00 00 30 00 08 1d 	lw $8,48($29)
  406df8:	28 00 00 00 00 00 02 10 	lw $2,0($16)
  406e00:	43 00 00 00 02 00 12 00 	addiu $18,$0,2
  406e08:	55 00 00 00 06 03 08 00 	sll $3,$8,0x6
  406e10:	42 00 00 00 00 03 02 03 	addu $3,$3,$2
  406e18:	a5 00 00 00 00 00 03 00 	mtc1 $3,$f0
  406e20:	83 00 00 00 00 00 00 00 	cvt.d.w $f0,$f0
  406e28:	37 00 00 00 08 00 00 14 	s.d $f0,8($20)
  406e30:	28 00 00 00 00 00 13 10 	lw $19,0($16)
  406e38:	28 00 00 00 30 00 17 1d 	lw $23,48($29)
  406e40:	43 00 00 00 01 00 11 00 	addiu $17,$0,1
  406e48:	43 00 00 00 01 00 16 00 	addiu $22,$0,1
  406e50:	07 00 00 00 42 02 00 13 	blez $19,407760 <cfft_+0xa40>
  406e58:	2b 00 00 00 a8 80 18 1c 	l.d $f24,-32600($28)
  406e60:	43 00 00 00 01 00 02 13 	addiu $2,$19,1
  406e68:	4f 00 00 00 01 00 03 13 	andi $3,$19,1
  406e70:	5b 00 00 00 00 02 02 16 	slt $2,$22,$2
  406e78:	05 00 00 00 02 00 00 02 	beq $2,$0,406e88 <cfft_+0x168>
  406e80:	05 00 00 00 38 00 00 03 	beq $3,$0,406f68 <cfft_+0x248>
  406e88:	7b 00 00 00 00 16 00 18 	mov.d $f22,$f24
  406e90:	34 00 00 00 24 00 00 1d 	sw $0,36($29)
  406e98:	42 00 00 00 00 10 00 00 	addu $16,$0,$0
  406ea0:	a5 00 00 00 00 00 10 14 	mtc1 $16,$f20
  406ea8:	83 00 00 00 00 14 00 14 	cvt.d.w $f20,$f20
  406eb0:	75 00 00 00 00 14 16 14 	mul.d $f20,$f20,$f22
  406eb8:	7b 00 00 00 00 0c 00 14 	mov.d $f12,$f20
  406ec0:	02 00 00 00 2c 8a 10 00 	jal 4228b0 <cos>
  406ec8:	7b 00 00 00 00 0c 00 14 	mov.d $f12,$f20
  406ed0:	42 00 00 00 00 02 12 10 	addu $2,$16,$18
  406ed8:	55 00 00 00 03 02 02 00 	sll $2,$2,0x3
  406ee0:	42 00 00 00 00 02 14 02 	addu $2,$2,$20
  406ee8:	37 00 00 00 00 00 00 02 	s.d $f0,0($2)
  406ef0:	02 00 00 00 30 89 10 00 	jal 4224c0 <sin>
  406ef8:	42 00 00 00 00 02 15 10 	addu $2,$16,$21
  406f00:	43 00 00 00 01 00 10 10 	addiu $16,$16,1
  406f08:	28 00 00 00 24 00 03 1d 	lw $3,36($29)
  406f10:	55 00 00 00 03 02 02 00 	sll $2,$2,0x3
  406f18:	42 00 00 00 00 02 14 02 	addu $2,$2,$20
  406f20:	5b 00 00 00 00 03 10 03 	slt $3,$3,$16
  406f28:	37 00 00 00 00 00 00 02 	s.d $f0,0($2)
  406f30:	05 00 00 00 da ff 00 03 	beq $3,$0,406ea0 <cfft_+0x180>
  406f38:	42 00 00 00 00 12 11 12 	addu $18,$18,$17
  406f40:	42 00 00 00 00 15 17 12 	addu $21,$18,$23
  406f48:	55 00 00 00 01 11 11 00 	sll $17,$17,0x1
  406f50:	43 00 00 00 01 00 16 16 	addiu $22,$22,1
  406f58:	5b 00 00 00 00 02 16 13 	slt $2,$19,$22
  406f60:	06 00 00 00 fe 01 00 02 	bne $2,$0,407760 <cfft_+0xa40>
  406f68:	a5 00 00 00 00 00 11 00 	mtc1 $17,$f0
  406f70:	83 00 00 00 00 00 00 00 	cvt.d.w $f0,$f0
  406f78:	77 00 00 00 00 16 00 18 	div.d $f22,$f24,$f0
  406f80:	43 00 00 00 ff ff 02 11 	addiu $2,$17,-1
  406f88:	34 00 00 00 24 00 02 1d 	sw $2,36($29)
  406f90:	42 00 00 00 00 10 00 00 	addu $16,$0,$0
  406f98:	09 00 00 00 26 00 00 02 	bltz $2,407038 <cfft_+0x318>
  406fa0:	a5 00 00 00 00 00 10 14 	mtc1 $16,$f20
  406fa8:	83 00 00 00 00 14 00 14 	cvt.d.w $f20,$f20
  406fb0:	75 00 00 00 00 14 16 14 	mul.d $f20,$f20,$f22
  406fb8:	7b 00 00 00 00 0c 00 14 	mov.d $f12,$f20
  406fc0:	02 00 00 00 2c 8a 10 00 	jal 4228b0 <cos>
  406fc8:	7b 00 00 00 00 0c 00 14 	mov.d $f12,$f20
  406fd0:	42 00 00 00 00 02 12 10 	addu $2,$16,$18
  406fd8:	55 00 00 00 03 02 02 00 	sll $2,$2,0x3
  406fe0:	42 00 00 00 00 02 14 02 	addu $2,$2,$20
  406fe8:	37 00 00 00 00 00 00 02 	s.d $f0,0($2)
  406ff0:	02 00 00 00 30 89 10 00 	jal 4224c0 <sin>
  406ff8:	42 00 00 00 00 02 15 10 	addu $2,$16,$21
  407000:	43 00 00 00 01 00 10 10 	addiu $16,$16,1
  407008:	28 00 00 00 24 00 03 1d 	lw $3,36($29)
  407010:	55 00 00 00 03 02 02 00 	sll $2,$2,0x3
  407018:	42 00 00 00 00 02 14 02 	addu $2,$2,$20
  407020:	5b 00 00 00 00 03 10 03 	slt $3,$3,$16
  407028:	37 00 00 00 00 00 00 02 	s.d $f0,0($2)
  407030:	05 00 00 00 da ff 00 03 	beq $3,$0,406fa0 <cfft_+0x280>
  407038:	42 00 00 00 00 12 11 12 	addu $18,$18,$17
  407040:	55 00 00 00 01 11 11 00 	sll $17,$17,0x1
  407048:	a5 00 00 00 00 00 11 00 	mtc1 $17,$f0
  407050:	83 00 00 00 00 00 00 00 	cvt.d.w $f0,$f0
  407058:	77 00 00 00 00 16 00 18 	div.d $f22,$f24,$f0
  407060:	42 00 00 00 00 15 17 12 	addu $21,$18,$23
  407068:	43 00 00 00 ff ff 02 11 	addiu $2,$17,-1
  407070:	34 00 00 00 24 00 02 1d 	sw $2,36($29)
  407078:	42 00 00 00 00 10 00 00 	addu $16,$0,$0
  407080:	09 00 00 00 26 00 00 02 	bltz $2,407120 <cfft_+0x400>
  407088:	a5 00 00 00 00 00 10 14 	mtc1 $16,$f20
  407090:	83 00 00 00 00 14 00 14 	cvt.d.w $f20,$f20
  407098:	75 00 00 00 00 14 16 14 	mul.d $f20,$f20,$f22
  4070a0:	7b 00 00 00 00 0c 00 14 	mov.d $f12,$f20
  4070a8:	02 00 00 00 2c 8a 10 00 	jal 4228b0 <cos>
  4070b0:	7b 00 00 00 00 0c 00 14 	mov.d $f12,$f20
  4070b8:	42 00 00 00 00 02 12 10 	addu $2,$16,$18
  4070c0:	55 00 00 00 03 02 02 00 	sll $2,$2,0x3
  4070c8:	42 00 00 00 00 02 14 02 	addu $2,$2,$20
  4070d0:	37 00 00 00 00 00 00 02 	s.d $f0,0($2)
  4070d8:	02 00 00 00 30 89 10 00 	jal 4224c0 <sin>
  4070e0:	42 00 00 00 00 02 15 10 	addu $2,$16,$21
  4070e8:	43 00 00 00 01 00 10 10 	addiu $16,$16,1
  4070f0:	28 00 00 00 24 00 03 1d 	lw $3,36($29)
  4070f8:	55 00 00 00 03 02 02 00 	sll $2,$2,0x3
  407100:	42 00 00 00 00 02 14 02 	addu $2,$2,$20
  407108:	5b 00 00 00 00 03 10 03 	slt $3,$3,$16
  407110:	37 00 00 00 00 00 00 02 	s.d $f0,0($2)
  407118:	05 00 00 00 da ff 00 03 	beq $3,$0,407088 <cfft_+0x368>
  407120:	42 00 00 00 00 12 11 12 	addu $18,$18,$17
  407128:	42 00 00 00 00 15 17 12 	addu $21,$18,$23
  407130:	55 00 00 00 01 11 11 00 	sll $17,$17,0x1
  407138:	43 00 00 00 02 00 16 16 	addiu $22,$22,2
  407140:	5b 00 00 00 00 02 16 13 	slt $2,$19,$22
  407148:	05 00 00 00 86 ff 00 02 	beq $2,$0,406f68 <cfft_+0x248>
  407150:	01 00 00 00 d8 1d 10 00 	j 407760 <cfft_+0xa40>
  407158:	43 00 00 00 01 00 11 00 	addiu $17,$0,1
  407160:	43 00 00 00 10 80 04 1c 	addiu $4,$28,-32752
  407168:	42 00 00 00 00 05 10 00 	addu $5,$0,$16
  407170:	02 00 00 00 e4 88 10 00 	jal 422390 <pow_ii>
  407178:	28 00 00 00 00 00 03 10 	lw $3,0($16)
  407180:	34 00 00 00 30 00 02 1d 	sw $2,48($29)
  407188:	57 00 00 00 1f 02 03 00 	srl $2,$3,0x1f
  407190:	42 00 00 00 00 03 02 03 	addu $3,$3,$2
  407198:	59 00 00 00 01 13 03 00 	sra $19,$3,0x1
  4071a0:	5c 00 00 00 03 00 02 13 	slti $2,$19,3
  4071a8:	34 00 00 00 18 00 13 1d 	sw $19,24($29)
  4071b0:	06 00 00 00 04 00 00 02 	bne $2,$0,4071c8 <cfft_+0x4a8>
  4071b8:	43 00 00 00 02 00 02 00 	addiu $2,$0,2
  4071c0:	34 00 00 00 18 00 02 1d 	sw $2,24($29)
  4071c8:	28 00 00 00 00 00 02 10 	lw $2,0($16)
  4071d0:	28 00 00 00 18 00 03 1d 	lw $3,24($29)
  4071d8:	43 00 00 00 10 80 04 1c 	addiu $4,$28,-32752
  4071e0:	43 00 00 00 18 00 05 1d 	addiu $5,$29,24
  4071e8:	45 00 00 00 00 02 03 02 	subu $2,$2,$3
  4071f0:	34 00 00 00 1c 00 02 1d 	sw $2,28($29)
  4071f8:	02 00 00 00 e4 88 10 00 	jal 422390 <pow_ii>
  407200:	43 00 00 00 10 80 04 1c 	addiu $4,$28,-32752
  407208:	43 00 00 00 1c 00 05 1d 	addiu $5,$29,28
  407210:	34 00 00 00 2c 00 02 1d 	sw $2,44($29)
  407218:	02 00 00 00 e4 88 10 00 	jal 422390 <pow_ii>
  407220:	28 00 00 00 18 00 13 1d 	lw $19,24($29)
  407228:	34 00 00 00 28 00 02 1d 	sw $2,40($29)
  407230:	34 00 00 00 20 00 11 1d 	sw $17,32($29)
  407238:	07 00 00 00 36 00 00 13 	blez $19,407318 <cfft_+0x5f8>
  407240:	43 00 00 00 08 00 15 14 	addiu $21,$20,8
  407248:	43 00 00 00 08 00 12 17 	addiu $18,$23,8
  407250:	43 00 00 00 08 00 11 1e 	addiu $17,$30,8
  407258:	42 00 00 00 00 04 16 00 	addu $4,$0,$22
  407260:	43 00 00 00 20 00 05 1d 	addiu $5,$29,32
  407268:	42 00 00 00 00 06 10 00 	addu $6,$0,$16
  407270:	42 00 00 00 00 07 15 00 	addu $7,$0,$21
  407278:	34 00 00 00 10 00 12 1d 	sw $18,16($29)
  407280:	34 00 00 00 14 00 11 1d 	sw $17,20($29)
  407288:	02 00 00 00 f8 1d 10 00 	jal 4077e0 <fftz1_>
  407290:	28 00 00 00 20 00 03 1d 	lw $3,32($29)
  407298:	28 00 00 00 18 00 02 1d 	lw $2,24($29)
  4072a0:	05 00 00 00 80 00 02 03 	beq $3,$2,4074a8 <cfft_+0x788>
  4072a8:	42 00 00 00 00 04 16 00 	addu $4,$0,$22
  4072b0:	43 00 00 00 24 00 05 1d 	addiu $5,$29,36
  4072b8:	42 00 00 00 00 06 10 00 	addu $6,$0,$16
  4072c0:	42 00 00 00 00 07 15 00 	addu $7,$0,$21
  4072c8:	43 00 00 00 01 00 02 03 	addiu $2,$3,1
  4072d0:	34 00 00 00 24 00 02 1d 	sw $2,36($29)
  4072d8:	34 00 00 00 10 00 11 1d 	sw $17,16($29)
  4072e0:	34 00 00 00 14 00 12 1d 	sw $18,20($29)
  4072e8:	02 00 00 00 f8 1d 10 00 	jal 4077e0 <fftz1_>
  4072f0:	28 00 00 00 20 00 02 1d 	lw $2,32($29)
  4072f8:	43 00 00 00 02 00 02 02 	addiu $2,$2,2
  407300:	34 00 00 00 20 00 02 1d 	sw $2,32($29)
  407308:	5b 00 00 00 00 02 02 13 	slt $2,$19,$2
  407310:	05 00 00 00 d0 ff 00 02 	beq $2,$0,407258 <cfft_+0x538>
  407318:	43 00 00 00 28 00 04 1d 	addiu $4,$29,40
  407320:	43 00 00 00 2c 00 05 1d 	addiu $5,$29,44
  407328:	43 00 00 00 08 00 15 17 	addiu $21,$23,8
  407330:	42 00 00 00 00 06 15 00 	addu $6,$0,$21
  407338:	43 00 00 00 08 00 11 1e 	addiu $17,$30,8
  407340:	42 00 00 00 00 07 11 00 	addu $7,$0,$17
  407348:	02 00 00 00 0a 1f 10 00 	jal 407c28 <trans_>
  407350:	28 00 00 00 8c 00 08 1d 	lw $8,140($29)
  407358:	28 00 00 00 00 00 03 08 	lw $3,0($8)
  407360:	a2 00 00 00 c6 10 02 00 	lui $2,4294
  407368:	43 00 00 00 1c 60 02 02 	addiu $2,$2,24604
  407370:	55 00 00 00 02 03 03 00 	sll $3,$3,0x2
  407378:	42 00 00 00 00 03 02 03 	addu $3,$3,$2
  407380:	28 00 00 00 00 00 02 03 	lw $2,0($3)
  407388:	43 00 00 00 01 00 02 02 	addiu $2,$2,1
  407390:	34 00 00 00 00 00 02 03 	sw $2,0($3)
  407398:	28 00 00 00 18 00 02 1d 	lw $2,24($29)
  4073a0:	28 00 00 00 00 00 13 10 	lw $19,0($16)
  4073a8:	43 00 00 00 01 00 02 02 	addiu $2,$2,1
  4073b0:	34 00 00 00 20 00 02 1d 	sw $2,32($29)
  4073b8:	5b 00 00 00 00 02 02 13 	slt $2,$19,$2
  4073c0:	06 00 00 00 98 00 00 02 	bne $2,$0,407628 <cfft_+0x908>
  4073c8:	43 00 00 00 08 00 14 14 	addiu $20,$20,8
  4073d0:	42 00 00 00 00 12 11 00 	addu $18,$0,$17
  4073d8:	42 00 00 00 00 11 15 00 	addu $17,$0,$21
  4073e0:	42 00 00 00 00 04 16 00 	addu $4,$0,$22
  4073e8:	43 00 00 00 20 00 05 1d 	addiu $5,$29,32
  4073f0:	42 00 00 00 00 06 10 00 	addu $6,$0,$16
  4073f8:	42 00 00 00 00 07 14 00 	addu $7,$0,$20
  407400:	34 00 00 00 10 00 12 1d 	sw $18,16($29)
  407408:	34 00 00 00 14 00 11 1d 	sw $17,20($29)
  407410:	02 00 00 00 ae 20 10 00 	jal 4082b8 <fftz2_>
  407418:	28 00 00 00 20 00 03 1d 	lw $3,32($29)
  407420:	28 00 00 00 00 00 02 10 	lw $2,0($16)
  407428:	05 00 00 00 cc 00 02 03 	beq $3,$2,407760 <cfft_+0xa40>
  407430:	42 00 00 00 00 04 16 00 	addu $4,$0,$22
  407438:	43 00 00 00 24 00 05 1d 	addiu $5,$29,36
  407440:	42 00 00 00 00 06 10 00 	addu $6,$0,$16
  407448:	42 00 00 00 00 07 14 00 	addu $7,$0,$20
  407450:	43 00 00 00 01 00 02 03 	addiu $2,$3,1
  407458:	34 00 00 00 24 00 02 1d 	sw $2,36($29)
  407460:	34 00 00 00 10 00 11 1d 	sw $17,16($29)
  407468:	34 00 00 00 14 00 12 1d 	sw $18,20($29)
  407470:	02 00 00 00 ae 20 10 00 	jal 4082b8 <fftz2_>
  407478:	28 00 00 00 20 00 02 1d 	lw $2,32($29)
  407480:	43 00 00 00 02 00 02 02 	addiu $2,$2,2
  407488:	34 00 00 00 20 00 02 1d 	sw $2,32($29)
  407490:	5b 00 00 00 00 02 02 13 	slt $2,$19,$2
  407498:	05 00 00 00 d0 ff 00 02 	beq $2,$0,4073e0 <cfft_+0x6c0>
  4074a0:	01 00 00 00 8a 1d 10 00 	j 407628 <cfft_+0x908>
  4074a8:	43 00 00 00 28 00 04 1d 	addiu $4,$29,40
  4074b0:	43 00 00 00 2c 00 05 1d 	addiu $5,$29,44
  4074b8:	42 00 00 00 00 06 11 00 	addu $6,$0,$17
  4074c0:	42 00 00 00 00 07 12 00 	addu $7,$0,$18
  4074c8:	02 00 00 00 0a 1f 10 00 	jal 407c28 <trans_>
  4074d0:	28 00 00 00 8c 00 08 1d 	lw $8,140($29)
  4074d8:	28 00 00 00 00 00 03 08 	lw $3,0($8)
  4074e0:	a2 00 00 00 c6 10 02 00 	lui $2,4294
  4074e8:	43 00 00 00 1c 60 02 02 	addiu $2,$2,24604
  4074f0:	55 00 00 00 02 03 03 00 	sll $3,$3,0x2
  4074f8:	42 00 00 00 00 03 02 03 	addu $3,$3,$2
  407500:	28 00 00 00 00 00 02 03 	lw $2,0($3)
  407508:	43 00 00 00 01 00 02 02 	addiu $2,$2,1
  407510:	34 00 00 00 00 00 02 03 	sw $2,0($3)
  407518:	28 00 00 00 18 00 02 1d 	lw $2,24($29)
  407520:	28 00 00 00 00 00 13 10 	lw $19,0($16)
  407528:	43 00 00 00 01 00 02 02 	addiu $2,$2,1
  407530:	34 00 00 00 20 00 02 1d 	sw $2,32($29)
  407538:	5b 00 00 00 00 02 02 13 	slt $2,$19,$2
  407540:	06 00 00 00 86 00 00 02 	bne $2,$0,407760 <cfft_+0xa40>
  407548:	43 00 00 00 08 00 14 14 	addiu $20,$20,8
  407550:	43 00 00 00 08 00 12 17 	addiu $18,$23,8
  407558:	43 00 00 00 08 00 11 1e 	addiu $17,$30,8
  407560:	42 00 00 00 00 04 16 00 	addu $4,$0,$22
  407568:	43 00 00 00 20 00 05 1d 	addiu $5,$29,32
  407570:	42 00 00 00 00 06 10 00 	addu $6,$0,$16
  407578:	42 00 00 00 00 07 14 00 	addu $7,$0,$20
  407580:	34 00 00 00 10 00 12 1d 	sw $18,16($29)
  407588:	34 00 00 00 14 00 11 1d 	sw $17,20($29)
  407590:	02 00 00 00 ae 20 10 00 	jal 4082b8 <fftz2_>
  407598:	28 00 00 00 20 00 03 1d 	lw $3,32($29)
  4075a0:	28 00 00 00 00 00 02 10 	lw $2,0($16)
  4075a8:	05 00 00 00 1e 00 02 03 	beq $3,$2,407628 <cfft_+0x908>
  4075b0:	42 00 00 00 00 04 16 00 	addu $4,$0,$22
  4075b8:	43 00 00 00 24 00 05 1d 	addiu $5,$29,36
  4075c0:	42 00 00 00 00 06 10 00 	addu $6,$0,$16
  4075c8:	42 00 00 00 00 07 14 00 	addu $7,$0,$20
  4075d0:	43 00 00 00 01 00 02 03 	addiu $2,$3,1
  4075d8:	34 00 00 00 24 00 02 1d 	sw $2,36($29)
  4075e0:	34 00 00 00 10 00 11 1d 	sw $17,16($29)
  4075e8:	34 00 00 00 14 00 12 1d 	sw $18,20($29)
  4075f0:	02 00 00 00 ae 20 10 00 	jal 4082b8 <fftz2_>
  4075f8:	28 00 00 00 20 00 02 1d 	lw $2,32($29)
  407600:	43 00 00 00 02 00 02 02 	addiu $2,$2,2
  407608:	34 00 00 00 20 00 02 1d 	sw $2,32($29)
  407610:	5b 00 00 00 00 02 02 13 	slt $2,$19,$2
  407618:	05 00 00 00 d0 ff 00 02 	beq $2,$0,407560 <cfft_+0x840>
  407620:	01 00 00 00 d8 1d 10 00 	j 407760 <cfft_+0xa40>
  407628:	28 00 00 00 30 00 08 1d 	lw $8,48($29)
  407630:	43 00 00 00 01 00 10 00 	addiu $16,$0,1
  407638:	55 00 00 00 01 13 08 00 	sll $19,$8,0x1
  407640:	07 00 00 00 46 00 00 13 	blez $19,407760 <cfft_+0xa40>
  407648:	43 00 00 00 08 00 05 17 	addiu $5,$23,8
  407650:	43 00 00 00 08 00 06 1e 	addiu $6,$30,8
  407658:	43 00 00 00 01 00 02 13 	addiu $2,$19,1
  407660:	4f 00 00 00 03 00 03 13 	andi $3,$19,3
  407668:	5b 00 00 00 00 02 02 10 	slt $2,$16,$2
  407670:	05 00 00 00 0e 00 00 02 	beq $2,$0,4076b0 <cfft_+0x990>
  407678:	05 00 00 00 1a 00 00 03 	beq $3,$0,4076e8 <cfft_+0x9c8>
  407680:	05 00 00 00 0a 00 00 03 	beq $3,$0,4076b0 <cfft_+0x990>
  407688:	2b 00 00 00 00 00 00 06 	l.d $f0,0($6)
  407690:	43 00 00 00 01 00 10 10 	addiu $16,$16,1
  407698:	37 00 00 00 00 00 00 05 	s.d $f0,0($5)
  4076a0:	43 00 00 00 08 00 05 05 	addiu $5,$5,8
  4076a8:	43 00 00 00 08 00 06 06 	addiu $6,$6,8
  4076b0:	2b 00 00 00 00 00 00 06 	l.d $f0,0($6)
  4076b8:	43 00 00 00 01 00 10 10 	addiu $16,$16,1
  4076c0:	5b 00 00 00 00 04 10 13 	slt $4,$19,$16
  4076c8:	37 00 00 00 00 00 00 05 	s.d $f0,0($5)
  4076d0:	43 00 00 00 08 00 05 05 	addiu $5,$5,8
  4076d8:	43 00 00 00 08 00 06 06 	addiu $6,$6,8
  4076e0:	06 00 00 00 1e 00 00 04 	bne $4,$0,407760 <cfft_+0xa40>
  4076e8:	42 00 00 00 00 03 05 00 	addu $3,$0,$5
  4076f0:	42 00 00 00 00 02 06 00 	addu $2,$0,$6
  4076f8:	2b 00 00 00 00 00 00 02 	l.d $f0,0($2)
  407700:	37 00 00 00 00 00 00 03 	s.d $f0,0($3)
  407708:	2b 00 00 00 08 00 00 02 	l.d $f0,8($2)
  407710:	37 00 00 00 08 00 00 03 	s.d $f0,8($3)
  407718:	2b 00 00 00 10 00 00 02 	l.d $f0,16($2)
  407720:	37 00 00 00 10 00 00 03 	s.d $f0,16($3)
  407728:	2b 00 00 00 18 00 00 02 	l.d $f0,24($2)
  407730:	43 00 00 00 04 00 10 10 	addiu $16,$16,4
  407738:	5b 00 00 00 00 04 10 13 	slt $4,$19,$16
  407740:	37 00 00 00 18 00 00 03 	s.d $f0,24($3)
  407748:	43 00 00 00 20 00 03 03 	addiu $3,$3,32
  407750:	43 00 00 00 20 00 02 02 	addiu $2,$2,32
  407758:	05 00 00 00 e6 ff 00 04 	beq $4,$0,4076f8 <cfft_+0x9d8>
  407760:	42 00 00 00 00 02 00 00 	addu $2,$0,$0
  407768:	28 00 00 00 5c 00 1f 1d 	lw $31,92($29)
  407770:	28 00 00 00 58 00 1e 1d 	lw $30,88($29)
  407778:	28 00 00 00 54 00 17 1d 	lw $23,84($29)
  407780:	28 00 00 00 50 00 16 1d 	lw $22,80($29)
  407788:	28 00 00 00 4c 00 15 1d 	lw $21,76($29)
  407790:	28 00 00 00 48 00 14 1d 	lw $20,72($29)
  407798:	28 00 00 00 44 00 13 1d 	lw $19,68($29)
  4077a0:	28 00 00 00 40 00 12 1d 	lw $18,64($29)
  4077a8:	28 00 00 00 3c 00 11 1d 	lw $17,60($29)
  4077b0:	28 00 00 00 38 00 10 1d 	lw $16,56($29)
  4077b8:	2b 00 00 00 70 00 18 1d 	l.d $f24,112($29)
  4077c0:	2b 00 00 00 68 00 16 1d 	l.d $f22,104($29)
  4077c8:	2b 00 00 00 60 00 14 1d 	l.d $f20,96($29)
  4077d0:	43 00 00 00 78 00 1d 1d 	addiu $29,$29,120
  4077d8:	03 00 00 00 00 00 00 1f 	jr $31

004077e0 <fftz1_>:
  4077e0:	43 00 00 00 c0 ff 1d 1d 	addiu $29,$29,-64
  4077e8:	34 00 00 00 28 00 14 1d 	sw $20,40($29)
  4077f0:	28 00 00 00 50 00 14 1d 	lw $20,80($29)
  4077f8:	34 00 00 00 34 00 17 1d 	sw $23,52($29)
  407800:	42 00 00 00 00 17 04 00 	addu $23,$0,$4
  407808:	34 00 00 00 30 00 16 1d 	sw $22,48($29)
  407810:	42 00 00 00 00 16 05 00 	addu $22,$0,$5
  407818:	34 00 00 00 18 00 10 1d 	sw $16,24($29)
  407820:	42 00 00 00 00 10 06 00 	addu $16,$0,$6
  407828:	34 00 00 00 24 00 13 1d 	sw $19,36($29)
  407830:	28 00 00 00 54 00 13 1d 	lw $19,84($29)
  407838:	43 00 00 00 10 80 04 1c 	addiu $4,$28,-32752
  407840:	42 00 00 00 00 05 10 00 	addu $5,$0,$16
  407848:	34 00 00 00 2c 00 15 1d 	sw $21,44($29)
  407850:	43 00 00 00 f8 ff 15 07 	addiu $21,$7,-8
  407858:	34 00 00 00 3c 00 1f 1d 	sw $31,60($29)
  407860:	34 00 00 00 38 00 1e 1d 	sw $30,56($29)
  407868:	34 00 00 00 20 00 12 1d 	sw $18,32($29)
  407870:	34 00 00 00 1c 00 11 1d 	sw $17,28($29)
  407878:	43 00 00 00 f8 ff 13 13 	addiu $19,$19,-8
  407880:	43 00 00 00 f8 ff 14 14 	addiu $20,$20,-8
  407888:	02 00 00 00 e4 88 10 00 	jal 422390 <pow_ii>
  407890:	2b 00 00 00 08 00 00 15 	l.d $f0,8($21)
  407898:	42 00 00 00 00 12 02 00 	addu $18,$0,$2
  4078a0:	85 00 00 00 00 02 00 00 	cvt.w.d $f2,$f0
  4078a8:	a3 00 00 00 00 00 08 02 	mfc1 $8,$f2
  4078b0:	42 00 00 00 00 11 08 00 	addu $17,$0,$8
  4078b8:	0a 00 00 00 02 00 00 08 	bgez $8,4078c8 <fftz1_+0xe8>
  4078c0:	43 00 00 00 3f 00 11 08 	addiu $17,$8,63
  4078c8:	28 00 00 00 00 00 02 16 	lw $2,0($22)
  4078d0:	43 00 00 00 10 80 04 1c 	addiu $4,$28,-32752
  4078d8:	43 00 00 00 10 00 05 1d 	addiu $5,$29,16
  4078e0:	59 00 00 00 06 11 11 00 	sra $17,$17,0x6
  4078e8:	43 00 00 00 ff ff 02 02 	addiu $2,$2,-1
  4078f0:	34 00 00 00 10 00 02 1d 	sw $2,16($29)
  4078f8:	57 00 00 00 1f 02 12 00 	srl $2,$18,0x1f
  407900:	42 00 00 00 00 02 02 12 	addu $2,$18,$2
  407908:	59 00 00 00 01 1e 02 00 	sra $30,$2,0x1
  407910:	02 00 00 00 e4 88 10 00 	jal 422390 <pow_ii>
  407918:	28 00 00 00 00 00 03 10 	lw $3,0($16)
  407920:	28 00 00 00 00 00 06 16 	lw $6,0($22)
  407928:	43 00 00 00 10 80 04 1c 	addiu $4,$28,-32752
  407930:	43 00 00 00 10 00 05 1d 	addiu $5,$29,16
  407938:	45 00 00 00 00 03 06 03 	subu $3,$3,$6
  407940:	42 00 00 00 00 10 02 00 	addu $16,$0,$2
  407948:	34 00 00 00 10 00 03 1d 	sw $3,16($29)
  407950:	02 00 00 00 e4 88 10 00 	jal 422390 <pow_ii>
  407958:	42 00 00 00 00 08 00 00 	addu $8,$0,$0
  407960:	43 00 00 00 ff ff 10 10 	addiu $16,$16,-1
  407968:	42 00 00 00 00 09 02 00 	addu $9,$0,$2
  407970:	55 00 00 00 01 16 09 00 	sll $22,$9,0x1
  407978:	43 00 00 00 01 00 0d 09 	addiu $13,$9,1
  407980:	42 00 00 00 00 0e 11 0d 	addu $14,$13,$17
  407988:	34 00 00 00 10 00 10 1d 	sw $16,16($29)
  407990:	09 00 00 00 8a 00 00 10 	bltz $16,407bc0 <fftz1_+0x3e0>
  407998:	43 00 00 00 ff ff 0c 09 	addiu $12,$9,-1
  4079a0:	5c 00 00 00 00 00 0f 0c 	slti $15,$12,0
  4079a8:	43 00 00 00 01 00 07 00 	addiu $7,$0,1
  4079b0:	43 00 00 00 01 00 06 00 	addiu $6,$0,1
  4079b8:	42 00 00 00 00 05 00 00 	addu $5,$0,$0
  4079c0:	42 00 00 00 00 0b 09 06 	addu $11,$6,$9
  4079c8:	42 00 00 00 00 0a 1e 07 	addu $10,$7,$30
  4079d0:	06 00 00 00 70 00 00 0f 	bne $15,$0,407b98 <fftz1_+0x3b8>
  4079d8:	42 00 00 00 00 02 05 0d 	addu $2,$13,$5
  4079e0:	55 00 00 00 03 02 02 00 	sll $2,$2,0x3
  4079e8:	42 00 00 00 00 02 15 02 	addu $2,$2,$21
  4079f0:	2b 00 00 00 00 00 0c 02 	l.d $f12,0($2)
  4079f8:	2a 00 00 00 00 00 08 17 	l.s $f8,0($23)
  407a00:	83 00 00 00 00 08 00 08 	cvt.d.w $f8,$f8
  407a08:	42 00 00 00 00 02 05 0e 	addu $2,$14,$5
  407a10:	55 00 00 00 03 02 02 00 	sll $2,$2,0x3
  407a18:	42 00 00 00 00 02 15 02 	addu $2,$2,$21
  407a20:	2b 00 00 00 00 00 00 02 	l.d $f0,0($2)
  407a28:	42 00 00 00 00 03 05 06 	addu $3,$6,$5
  407a30:	42 00 00 00 00 04 05 0b 	addu $4,$11,$5
  407a38:	55 00 00 00 03 02 03 00 	sll $2,$3,0x3
  407a40:	42 00 00 00 00 02 14 02 	addu $2,$2,$20
  407a48:	2b 00 00 00 00 00 0a 02 	l.d $f10,0($2)
  407a50:	42 00 00 00 00 03 12 03 	addu $3,$3,$18
  407a58:	55 00 00 00 03 03 03 00 	sll $3,$3,0x3
  407a60:	75 00 00 00 00 08 00 08 	mul.d $f8,$f8,$f0
  407a68:	55 00 00 00 03 02 04 00 	sll $2,$4,0x3
  407a70:	42 00 00 00 00 02 14 02 	addu $2,$2,$20
  407a78:	2b 00 00 00 00 00 06 02 	l.d $f6,0($2)
  407a80:	42 00 00 00 00 03 14 03 	addu $3,$3,$20
  407a88:	2b 00 00 00 00 00 04 03 	l.d $f4,0($3)
  407a90:	73 00 00 00 00 10 06 0a 	sub.d $f16,$f10,$f6
  407a98:	42 00 00 00 00 04 12 04 	addu $4,$4,$18
  407aa0:	55 00 00 00 03 04 04 00 	sll $4,$4,0x3
  407aa8:	42 00 00 00 00 04 14 04 	addu $4,$4,$20
  407ab0:	75 00 00 00 00 0e 10 0c 	mul.d $f14,$f12,$f16
  407ab8:	2b 00 00 00 00 00 02 04 	l.d $f2,0($4)
  407ac0:	73 00 00 00 00 00 02 04 	sub.d $f0,$f4,$f2
  407ac8:	75 00 00 00 00 12 00 08 	mul.d $f18,$f8,$f0
  407ad0:	42 00 00 00 00 03 05 07 	addu $3,$7,$5
  407ad8:	42 00 00 00 00 04 05 0a 	addu $4,$10,$5
  407ae0:	43 00 00 00 01 00 05 05 	addiu $5,$5,1
  407ae8:	75 00 00 00 00 0c 00 0c 	mul.d $f12,$f12,$f0
  407af0:	55 00 00 00 03 02 03 00 	sll $2,$3,0x3
  407af8:	42 00 00 00 00 02 13 02 	addu $2,$2,$19
  407b00:	71 00 00 00 00 0a 06 0a 	add.d $f10,$f10,$f6
  407b08:	42 00 00 00 00 03 12 03 	addu $3,$3,$18
  407b10:	55 00 00 00 03 03 03 00 	sll $3,$3,0x3
  407b18:	42 00 00 00 00 03 13 03 	addu $3,$3,$19
  407b20:	71 00 00 00 00 04 02 04 	add.d $f4,$f4,$f2
  407b28:	75 00 00 00 00 08 10 08 	mul.d $f8,$f8,$f16
  407b30:	37 00 00 00 00 00 0a 02 	s.d $f10,0($2)
  407b38:	55 00 00 00 03 02 04 00 	sll $2,$4,0x3
  407b40:	42 00 00 00 00 02 13 02 	addu $2,$2,$19
  407b48:	73 00 00 00 00 0e 12 0e 	sub.d $f14,$f14,$f18
  407b50:	42 00 00 00 00 04 12 04 	addu $4,$4,$18
  407b58:	55 00 00 00 03 04 04 00 	sll $4,$4,0x3
  407b60:	42 00 00 00 00 04 13 04 	addu $4,$4,$19
  407b68:	71 00 00 00 00 0c 08 0c 	add.d $f12,$f12,$f8
  407b70:	37 00 00 00 00 00 04 03 	s.d $f4,0($3)
  407b78:	37 00 00 00 00 00 0e 02 	s.d $f14,0($2)
  407b80:	5b 00 00 00 00 02 05 0c 	slt $2,$12,$5
  407b88:	37 00 00 00 00 00 0c 04 	s.d $f12,0($4)
  407b90:	05 00 00 00 90 ff 00 02 	beq $2,$0,4079d8 <fftz1_+0x1f8>
  407b98:	42 00 00 00 00 07 09 07 	addu $7,$7,$9
  407ba0:	42 00 00 00 00 06 16 06 	addu $6,$6,$22
  407ba8:	43 00 00 00 01 00 08 08 	addiu $8,$8,1
  407bb0:	5b 00 00 00 00 02 08 10 	slt $2,$16,$8
  407bb8:	05 00 00 00 7e ff 00 02 	beq $2,$0,4079b8 <fftz1_+0x1d8>
  407bc0:	42 00 00 00 00 02 00 00 	addu $2,$0,$0
  407bc8:	28 00 00 00 3c 00 1f 1d 	lw $31,60($29)
  407bd0:	28 00 00 00 38 00 1e 1d 	lw $30,56($29)
  407bd8:	28 00 00 00 34 00 17 1d 	lw $23,52($29)
  407be0:	28 00 00 00 30 00 16 1d 	lw $22,48($29)
  407be8:	28 00 00 00 2c 00 15 1d 	lw $21,44($29)
  407bf0:	28 00 00 00 28 00 14 1d 	lw $20,40($29)
  407bf8:	28 00 00 00 24 00 13 1d 	lw $19,36($29)
  407c00:	28 00 00 00 20 00 12 1d 	lw $18,32($29)
  407c08:	28 00 00 00 1c 00 11 1d 	lw $17,28($29)
  407c10:	28 00 00 00 18 00 10 1d 	lw $16,24($29)
  407c18:	43 00 00 00 40 00 1d 1d 	addiu $29,$29,64
  407c20:	03 00 00 00 00 00 00 1f 	jr $31

00407c28 <trans_>:
  407c28:	42 00 00 00 00 0c 04 00 	addu $12,$0,$4
  407c30:	28 00 00 00 00 00 04 0c 	lw $4,0($12)
  407c38:	28 00 00 00 00 00 03 05 	lw $3,0($5)
  407c40:	46 00 00 00 00 00 03 04 	mult $4,$3
  407c48:	43 00 00 00 f8 ff 07 07 	addiu $7,$7,-8
  407c50:	4c 00 00 00 00 0b 00 00 	mflo $11
  407c58:	43 00 00 00 f8 ff 06 06 	addiu $6,$6,-8
  407c60:	5b 00 00 00 00 02 03 04 	slt $2,$4,$3
  407c68:	06 00 00 00 c8 00 00 02 	bne $2,$0,407f90 <trans_+0x368>
  407c70:	43 00 00 00 ff ff 0d 03 	addiu $13,$3,-1
  407c78:	42 00 00 00 00 0a 00 00 	addu $10,$0,$0
  407c80:	09 00 00 00 88 01 00 0d 	bltz $13,4082a8 <trans_+0x680>
  407c88:	28 00 00 00 00 00 03 0c 	lw $3,0($12)
  407c90:	42 00 00 00 00 09 00 00 	addu $9,$0,$0
  407c98:	43 00 00 00 ff ff 0e 03 	addiu $14,$3,-1
  407ca0:	09 00 00 00 b2 00 00 0e 	bltz $14,407f70 <trans_+0x348>
  407ca8:	4f 00 00 00 01 00 04 03 	andi $4,$3,1
  407cb0:	5b 00 00 00 00 02 03 09 	slt $2,$9,$3
  407cb8:	05 00 00 00 02 00 00 02 	beq $2,$0,407cc8 <trans_+0xa0>
  407cc0:	05 00 00 00 2a 00 00 04 	beq $4,$0,407d70 <trans_+0x148>
  407cc8:	46 00 00 00 00 00 03 0a 	mult $10,$3
  407cd0:	4c 00 00 00 00 02 00 00 	mflo $2
  407cd8:	55 00 00 00 03 02 02 00 	sll $2,$2,0x3
  407ce0:	42 00 00 00 00 02 06 02 	addu $2,$2,$6
  407ce8:	2b 00 00 00 08 00 00 02 	l.d $f0,8($2)
  407cf0:	55 00 00 00 03 02 0a 00 	sll $2,$10,0x3
  407cf8:	42 00 00 00 00 02 07 02 	addu $2,$2,$7
  407d00:	37 00 00 00 08 00 00 02 	s.d $f0,8($2)
  407d08:	28 00 00 00 00 00 02 0c 	lw $2,0($12)
  407d10:	46 00 00 00 00 00 02 0a 	mult $10,$2
  407d18:	4c 00 00 00 00 02 00 00 	mflo $2
  407d20:	43 00 00 00 01 00 09 00 	addiu $9,$0,1
  407d28:	42 00 00 00 00 03 0a 0b 	addu $3,$11,$10
  407d30:	42 00 00 00 00 02 02 0b 	addu $2,$11,$2
  407d38:	55 00 00 00 03 02 02 00 	sll $2,$2,0x3
  407d40:	42 00 00 00 00 02 06 02 	addu $2,$2,$6
  407d48:	2b 00 00 00 08 00 00 02 	l.d $f0,8($2)
  407d50:	55 00 00 00 03 03 03 00 	sll $3,$3,0x3
  407d58:	42 00 00 00 00 03 07 03 	addu $3,$3,$7
  407d60:	37 00 00 00 08 00 00 03 	s.d $f0,8($3)
  407d68:	07 00 00 00 80 00 00 0e 	blez $14,407f70 <trans_+0x348>
  407d70:	28 00 00 00 00 00 02 05 	lw $2,0($5)
  407d78:	46 00 00 00 00 00 02 09 	mult $9,$2
  407d80:	28 00 00 00 00 00 02 0c 	lw $2,0($12)
  407d88:	4c 00 00 00 00 03 00 00 	mflo $3
  407d90:	46 00 00 00 00 00 02 0a 	mult $10,$2
  407d98:	4c 00 00 00 00 02 00 00 	mflo $2
  407da0:	42 00 00 00 00 03 0a 03 	addu $3,$3,$10
  407da8:	42 00 00 00 00 02 02 09 	addu $2,$9,$2
  407db0:	55 00 00 00 03 02 02 00 	sll $2,$2,0x3
  407db8:	42 00 00 00 00 02 06 02 	addu $2,$2,$6
  407dc0:	2b 00 00 00 08 00 00 02 	l.d $f0,8($2)
  407dc8:	55 00 00 00 03 03 03 00 	sll $3,$3,0x3
  407dd0:	42 00 00 00 00 03 07 03 	addu $3,$3,$7
  407dd8:	37 00 00 00 08 00 00 03 	s.d $f0,8($3)
  407de0:	28 00 00 00 00 00 02 05 	lw $2,0($5)
  407de8:	46 00 00 00 00 00 02 09 	mult $9,$2
  407df0:	28 00 00 00 00 00 02 0c 	lw $2,0($12)
  407df8:	4c 00 00 00 00 03 00 00 	mflo $3
  407e00:	46 00 00 00 00 00 02 0a 	mult $10,$2
  407e08:	4c 00 00 00 00 02 00 00 	mflo $2
  407e10:	42 00 00 00 00 03 0a 03 	addu $3,$3,$10
  407e18:	42 00 00 00 00 03 03 0b 	addu $3,$11,$3
  407e20:	42 00 00 00 00 02 02 09 	addu $2,$9,$2
  407e28:	42 00 00 00 00 02 02 0b 	addu $2,$11,$2
  407e30:	55 00 00 00 03 02 02 00 	sll $2,$2,0x3
  407e38:	42 00 00 00 00 02 06 02 	addu $2,$2,$6
  407e40:	2b 00 00 00 08 00 00 02 	l.d $f0,8($2)
  407e48:	55 00 00 00 03 03 03 00 	sll $3,$3,0x3
  407e50:	42 00 00 00 00 03 07 03 	addu $3,$3,$7
  407e58:	37 00 00 00 08 00 00 03 	s.d $f0,8($3)
  407e60:	28 00 00 00 00 00 02 05 	lw $2,0($5)
  407e68:	43 00 00 00 01 00 04 09 	addiu $4,$9,1
  407e70:	46 00 00 00 00 00 02 04 	mult $4,$2
  407e78:	28 00 00 00 00 00 02 0c 	lw $2,0($12)
  407e80:	4c 00 00 00 00 03 00 00 	mflo $3
  407e88:	46 00 00 00 00 00 02 0a 	mult $10,$2
  407e90:	4c 00 00 00 00 02 00 00 	mflo $2
  407e98:	42 00 00 00 00 03 0a 03 	addu $3,$3,$10
  407ea0:	42 00 00 00 00 02 02 04 	addu $2,$4,$2
  407ea8:	55 00 00 00 03 02 02 00 	sll $2,$2,0x3
  407eb0:	42 00 00 00 00 02 06 02 	addu $2,$2,$6
  407eb8:	2b 00 00 00 08 00 00 02 	l.d $f0,8($2)
  407ec0:	55 00 00 00 03 03 03 00 	sll $3,$3,0x3
  407ec8:	42 00 00 00 00 03 07 03 	addu $3,$3,$7
  407ed0:	37 00 00 00 08 00 00 03 	s.d $f0,8($3)
  407ed8:	28 00 00 00 00 00 02 05 	lw $2,0($5)
  407ee0:	46 00 00 00 00 00 02 04 	mult $4,$2
  407ee8:	28 00 00 00 00 00 02 0c 	lw $2,0($12)
  407ef0:	4c 00 00 00 00 08 00 00 	mflo $8
  407ef8:	46 00 00 00 00 00 02 0a 	mult $10,$2
  407f00:	43 00 00 00 02 00 09 09 	addiu $9,$9,2
  407f08:	4c 00 00 00 00 03 00 00 	mflo $3
  407f10:	42 00 00 00 00 02 0a 08 	addu $2,$8,$10
  407f18:	42 00 00 00 00 02 02 0b 	addu $2,$11,$2
  407f20:	42 00 00 00 00 04 03 04 	addu $4,$4,$3
  407f28:	42 00 00 00 00 04 04 0b 	addu $4,$11,$4
  407f30:	55 00 00 00 03 04 04 00 	sll $4,$4,0x3
  407f38:	42 00 00 00 00 04 06 04 	addu $4,$4,$6
  407f40:	2b 00 00 00 08 00 00 04 	l.d $f0,8($4)
  407f48:	55 00 00 00 03 02 02 00 	sll $2,$2,0x3
  407f50:	42 00 00 00 00 02 07 02 	addu $2,$2,$7
  407f58:	37 00 00 00 08 00 00 02 	s.d $f0,8($2)
  407f60:	5b 00 00 00 00 02 09 0e 	slt $2,$14,$9
  407f68:	05 00 00 00 80 ff 00 02 	beq $2,$0,407d70 <trans_+0x148>
  407f70:	43 00 00 00 01 00 0a 0a 	addiu $10,$10,1
  407f78:	5b 00 00 00 00 02 0a 0d 	slt $2,$13,$10
  407f80:	05 00 00 00 40 ff 00 02 	beq $2,$0,407c88 <trans_+0x60>
  407f88:	01 00 00 00 aa 20 10 00 	j 4082a8 <trans_+0x680>
  407f90:	43 00 00 00 ff ff 0e 04 	addiu $14,$4,-1
  407f98:	42 00 00 00 00 09 00 00 	addu $9,$0,$0
  407fa0:	09 00 00 00 c0 00 00 0e 	bltz $14,4082a8 <trans_+0x680>
  407fa8:	28 00 00 00 00 00 03 05 	lw $3,0($5)
  407fb0:	42 00 00 00 00 0a 00 00 	addu $10,$0,$0
  407fb8:	43 00 00 00 ff ff 0d 03 	addiu $13,$3,-1
  407fc0:	09 00 00 00 b2 00 00 0d 	bltz $13,408290 <trans_+0x668>
  407fc8:	4f 00 00 00 01 00 04 03 	andi $4,$3,1
  407fd0:	5b 00 00 00 00 02 03 0a 	slt $2,$10,$3
  407fd8:	05 00 00 00 02 00 00 02 	beq $2,$0,407fe8 <trans_+0x3c0>
  407fe0:	05 00 00 00 2a 00 00 04 	beq $4,$0,408090 <trans_+0x468>
  407fe8:	46 00 00 00 00 00 03 09 	mult $9,$3
  407ff0:	55 00 00 00 03 02 09 00 	sll $2,$9,0x3
  407ff8:	42 00 00 00 00 02 06 02 	addu $2,$2,$6
  408000:	2b 00 00 00 08 00 00 02 	l.d $f0,8($2)
  408008:	4c 00 00 00 00 03 00 00 	mflo $3
  408010:	55 00 00 00 03 02 03 00 	sll $2,$3,0x3
  408018:	42 00 00 00 00 02 07 02 	addu $2,$2,$7
  408020:	37 00 00 00 08 00 00 02 	s.d $f0,8($2)
  408028:	28 00 00 00 00 00 02 05 	lw $2,0($5)
  408030:	46 00 00 00 00 00 02 09 	mult $9,$2
  408038:	4c 00 00 00 00 02 00 00 	mflo $2
  408040:	43 00 00 00 01 00 0a 00 	addiu $10,$0,1
  408048:	42 00 00 00 00 03 02 0b 	addu $3,$11,$2
  408050:	42 00 00 00 00 02 09 0b 	addu $2,$11,$9
  408058:	55 00 00 00 03 02 02 00 	sll $2,$2,0x3
  408060:	42 00 00 00 00 02 06 02 	addu $2,$2,$6
  408068:	2b 00 00 00 08 00 00 02 	l.d $f0,8($2)
  408070:	55 00 00 00 03 03 03 00 	sll $3,$3,0x3
  408078:	42 00 00 00 00 03 07 03 	addu $3,$3,$7
  408080:	37 00 00 00 08 00 00 03 	s.d $f0,8($3)
  408088:	07 00 00 00 80 00 00 0d 	blez $13,408290 <trans_+0x668>
  408090:	28 00 00 00 00 00 02 05 	lw $2,0($5)
  408098:	46 00 00 00 00 00 02 09 	mult $9,$2
  4080a0:	28 00 00 00 00 00 02 0c 	lw $2,0($12)
  4080a8:	4c 00 00 00 00 03 00 00 	mflo $3
  4080b0:	46 00 00 00 00 00 02 0a 	mult $10,$2
  4080b8:	4c 00 00 00 00 02 00 00 	mflo $2
  4080c0:	42 00 00 00 00 03 03 0a 	addu $3,$10,$3
  4080c8:	42 00 00 00 00 02 09 02 	addu $2,$2,$9
  4080d0:	55 00 00 00 03 02 02 00 	sll $2,$2,0x3
  4080d8:	42 00 00 00 00 02 06 02 	addu $2,$2,$6
  4080e0:	2b 00 00 00 08 00 00 02 	l.d $f0,8($2)
  4080e8:	55 00 00 00 03 03 03 00 	sll $3,$3,0x3
  4080f0:	42 00 00 00 00 03 07 03 	addu $3,$3,$7
  4080f8:	37 00 00 00 08 00 00 03 	s.d $f0,8($3)
  408100:	28 00 00 00 00 00 02 05 	lw $2,0($5)
  408108:	46 00 00 00 00 00 02 09 	mult $9,$2
  408110:	28 00 00 00 00 00 02 0c 	lw $2,0($12)
  408118:	4c 00 00 00 00 03 00 00 	mflo $3
  408120:	46 00 00 00 00 00 02 0a 	mult $10,$2
  408128:	4c 00 00 00 00 02 00 00 	mflo $2
  408130:	42 00 00 00 00 03 03 0a 	addu $3,$10,$3
  408138:	42 00 00 00 00 03 03 0b 	addu $3,$11,$3
  408140:	42 00 00 00 00 02 09 02 	addu $2,$2,$9
  408148:	42 00 00 00 00 02 02 0b 	addu $2,$11,$2
  408150:	55 00 00 00 03 02 02 00 	sll $2,$2,0x3
  408158:	42 00 00 00 00 02 06 02 	addu $2,$2,$6
  408160:	2b 00 00 00 08 00 00 02 	l.d $f0,8($2)
  408168:	55 00 00 00 03 03 03 00 	sll $3,$3,0x3
  408170:	42 00 00 00 00 03 07 03 	addu $3,$3,$7
  408178:	37 00 00 00 08 00 00 03 	s.d $f0,8($3)
  408180:	28 00 00 00 00 00 02 05 	lw $2,0($5)
  408188:	46 00 00 00 00 00 02 09 	mult $9,$2
  408190:	4c 00 00 00 00 03 00 00 	mflo $3
  408198:	28 00 00 00 00 00 02 0c 	lw $2,0($12)
  4081a0:	43 00 00 00 01 00 04 0a 	addiu $4,$10,1
  4081a8:	46 00 00 00 00 00 02 04 	mult $4,$2
  4081b0:	4c 00 00 00 00 02 00 00 	mflo $2
  4081b8:	42 00 00 00 00 03 03 04 	addu $3,$4,$3
  4081c0:	42 00 00 00 00 02 09 02 	addu $2,$2,$9
  4081c8:	55 00 00 00 03 02 02 00 	sll $2,$2,0x3
  4081d0:	42 00 00 00 00 02 06 02 	addu $2,$2,$6
  4081d8:	2b 00 00 00 08 00 00 02 	l.d $f0,8($2)
  4081e0:	55 00 00 00 03 03 03 00 	sll $3,$3,0x3
  4081e8:	42 00 00 00 00 03 07 03 	addu $3,$3,$7
  4081f0:	37 00 00 00 08 00 00 03 	s.d $f0,8($3)
  4081f8:	28 00 00 00 00 00 02 05 	lw $2,0($5)
  408200:	46 00 00 00 00 00 02 09 	mult $9,$2
  408208:	28 00 00 00 00 00 02 0c 	lw $2,0($12)
  408210:	4c 00 00 00 00 03 00 00 	mflo $3
  408218:	46 00 00 00 00 00 02 04 	mult $4,$2
  408220:	43 00 00 00 02 00 0a 0a 	addiu $10,$10,2
  408228:	4c 00 00 00 00 02 00 00 	mflo $2
  408230:	42 00 00 00 00 04 03 04 	addu $4,$4,$3
  408238:	42 00 00 00 00 04 04 0b 	addu $4,$11,$4
  408240:	42 00 00 00 00 02 09 02 	addu $2,$2,$9
  408248:	42 00 00 00 00 02 02 0b 	addu $2,$11,$2
  408250:	55 00 00 00 03 02 02 00 	sll $2,$2,0x3
  408258:	42 00 00 00 00 02 06 02 	addu $2,$2,$6
  408260:	2b 00 00 00 08 00 00 02 	l.d $f0,8($2)
  408268:	55 00 00 00 03 04 04 00 	sll $4,$4,0x3
  408270:	42 00 00 00 00 04 07 04 	addu $4,$4,$7
  408278:	5b 00 00 00 00 02 0a 0d 	slt $2,$13,$10
  408280:	37 00 00 00 08 00 00 04 	s.d $f0,8($4)
  408288:	05 00 00 00 80 ff 00 02 	beq $2,$0,408090 <trans_+0x468>
  408290:	43 00 00 00 01 00 09 09 	addiu $9,$9,1
  408298:	5b 00 00 00 00 02 09 0e 	slt $2,$14,$9
  4082a0:	05 00 00 00 40 ff 00 02 	beq $2,$0,407fa8 <trans_+0x380>
  4082a8:	42 00 00 00 00 02 00 00 	addu $2,$0,$0
  4082b0:	03 00 00 00 00 00 00 1f 	jr $31

004082b8 <fftz2_>:
  4082b8:	43 00 00 00 c0 ff 1d 1d 	addiu $29,$29,-64
  4082c0:	34 00 00 00 20 00 12 1d 	sw $18,32($29)
  4082c8:	28 00 00 00 50 00 12 1d 	lw $18,80($29)
  4082d0:	34 00 00 00 38 00 1e 1d 	sw $30,56($29)
  4082d8:	42 00 00 00 00 1e 04 00 	addu $30,$0,$4
  4082e0:	34 00 00 00 2c 00 15 1d 	sw $21,44($29)
  4082e8:	42 00 00 00 00 15 05 00 	addu $21,$0,$5
  4082f0:	34 00 00 00 28 00 14 1d 	sw $20,40($29)
  4082f8:	42 00 00 00 00 14 06 00 	addu $20,$0,$6
  408300:	34 00 00 00 1c 00 11 1d 	sw $17,28($29)
  408308:	28 00 00 00 54 00 11 1d 	lw $17,84($29)
  408310:	43 00 00 00 10 80 04 1c 	addiu $4,$28,-32752
  408318:	42 00 00 00 00 05 14 00 	addu $5,$0,$20
  408320:	34 00 00 00 24 00 13 1d 	sw $19,36($29)
  408328:	43 00 00 00 f8 ff 13 07 	addiu $19,$7,-8
  408330:	34 00 00 00 3c 00 1f 1d 	sw $31,60($29)
  408338:	34 00 00 00 34 00 17 1d 	sw $23,52($29)
  408340:	34 00 00 00 30 00 16 1d 	sw $22,48($29)
  408348:	34 00 00 00 18 00 10 1d 	sw $16,24($29)
  408350:	43 00 00 00 f8 ff 11 11 	addiu $17,$17,-8
  408358:	43 00 00 00 f8 ff 12 12 	addiu $18,$18,-8
  408360:	02 00 00 00 e4 88 10 00 	jal 422390 <pow_ii>
  408368:	2b 00 00 00 08 00 00 13 	l.d $f0,8($19)
  408370:	42 00 00 00 00 10 02 00 	addu $16,$0,$2
  408378:	85 00 00 00 00 02 00 00 	cvt.w.d $f2,$f0
  408380:	a3 00 00 00 00 00 06 02 	mfc1 $6,$f2
  408388:	42 00 00 00 00 03 06 00 	addu $3,$0,$6
  408390:	0a 00 00 00 02 00 00 06 	bgez $6,4083a0 <fftz2_+0xe8>
  408398:	43 00 00 00 3f 00 03 06 	addiu $3,$6,63
  4083a0:	28 00 00 00 00 00 02 15 	lw $2,0($21)
  4083a8:	43 00 00 00 10 80 04 1c 	addiu $4,$28,-32752
  4083b0:	43 00 00 00 10 00 05 1d 	addiu $5,$29,16
  4083b8:	59 00 00 00 06 17 03 00 	sra $23,$3,0x6
  4083c0:	43 00 00 00 ff ff 02 02 	addiu $2,$2,-1
  4083c8:	34 00 00 00 10 00 02 1d 	sw $2,16($29)
  4083d0:	57 00 00 00 1f 02 10 00 	srl $2,$16,0x1f
  4083d8:	42 00 00 00 00 02 02 10 	addu $2,$16,$2
  4083e0:	59 00 00 00 01 16 02 00 	sra $22,$2,0x1
  4083e8:	02 00 00 00 e4 88 10 00 	jal 422390 <pow_ii>
  4083f0:	28 00 00 00 00 00 03 14 	lw $3,0($20)
  4083f8:	28 00 00 00 00 00 06 15 	lw $6,0($21)
  408400:	43 00 00 00 10 80 04 1c 	addiu $4,$28,-32752
  408408:	43 00 00 00 10 00 05 1d 	addiu $5,$29,16
  408410:	45 00 00 00 00 03 06 03 	subu $3,$3,$6
  408418:	42 00 00 00 00 14 02 00 	addu $20,$0,$2
  408420:	34 00 00 00 10 00 03 1d 	sw $3,16($29)
  408428:	02 00 00 00 e4 88 10 00 	jal 422390 <pow_ii>
  408430:	42 00 00 00 00 0c 00 00 	addu $12,$0,$0
  408438:	43 00 00 00 ff ff 03 02 	addiu $3,$2,-1
  408440:	55 00 00 00 01 0e 14 00 	sll $14,$20,0x1
  408448:	43 00 00 00 01 00 0d 02 	addiu $13,$2,1
  408450:	34 00 00 00 10 00 03 1d 	sw $3,16($29)
  408458:	09 00 00 00 3a 01 00 03 	bltz $3,408948 <fftz2_+0x690>
  408460:	43 00 00 00 ff ff 0b 14 	addiu $11,$20,-1
  408468:	43 00 00 00 01 00 08 00 	addiu $8,$0,1
  408470:	43 00 00 00 01 00 07 00 	addiu $7,$0,1
  408478:	42 00 00 00 00 03 0c 0d 	addu $3,$13,$12
  408480:	42 00 00 00 00 02 17 03 	addu $2,$3,$23
  408488:	55 00 00 00 03 02 02 00 	sll $2,$2,0x3
  408490:	42 00 00 00 00 02 13 02 	addu $2,$2,$19
  408498:	2b 00 00 00 00 00 02 02 	l.d $f2,0($2)
  4084a0:	2a 00 00 00 00 00 00 1e 	l.s $f0,0($30)
  4084a8:	83 00 00 00 00 00 00 00 	cvt.d.w $f0,$f0
  4084b0:	75 00 00 00 00 12 02 00 	mul.d $f18,$f0,$f2
  4084b8:	42 00 00 00 00 06 00 00 	addu $6,$0,$0
  4084c0:	55 00 00 00 03 03 03 00 	sll $3,$3,0x3
  4084c8:	42 00 00 00 00 03 13 03 	addu $3,$3,$19
  4084d0:	2b 00 00 00 00 00 10 03 	l.d $f16,0($3)
  4084d8:	42 00 00 00 00 0a 16 07 	addu $10,$7,$22
  4084e0:	42 00 00 00 00 09 14 08 	addu $9,$8,$20
  4084e8:	09 00 00 00 0a 01 00 0b 	bltz $11,408918 <fftz2_+0x660>
  4084f0:	43 00 00 00 01 00 02 0b 	addiu $2,$11,1
  4084f8:	4f 00 00 00 01 00 03 02 	andi $3,$2,1
  408500:	5b 00 00 00 00 02 02 06 	slt $2,$6,$2
  408508:	05 00 00 00 02 00 00 02 	beq $2,$0,408518 <fftz2_+0x260>
  408510:	05 00 00 00 50 00 00 03 	beq $3,$0,408658 <fftz2_+0x3a0>
  408518:	55 00 00 00 03 02 07 00 	sll $2,$7,0x3
  408520:	42 00 00 00 00 02 12 02 	addu $2,$2,$18
  408528:	2b 00 00 00 00 00 02 02 	l.d $f2,0($2)
  408530:	42 00 00 00 00 03 10 07 	addu $3,$7,$16
  408538:	55 00 00 00 03 03 03 00 	sll $3,$3,0x3
  408540:	55 00 00 00 03 02 0a 00 	sll $2,$10,0x3
  408548:	42 00 00 00 00 02 12 02 	addu $2,$2,$18
  408550:	2b 00 00 00 00 00 0c 02 	l.d $f12,0($2)
  408558:	42 00 00 00 00 03 12 03 	addu $3,$3,$18
  408560:	2b 00 00 00 00 00 04 03 	l.d $f4,0($3)
  408568:	73 00 00 00 00 08 0c 02 	sub.d $f8,$f2,$f12
  408570:	42 00 00 00 00 02 10 0a 	addu $2,$10,$16
  408578:	55 00 00 00 03 02 02 00 	sll $2,$2,0x3
  408580:	42 00 00 00 00 02 12 02 	addu $2,$2,$18
  408588:	75 00 00 00 00 06 08 10 	mul.d $f6,$f16,$f8
  408590:	2b 00 00 00 00 00 0a 02 	l.d $f10,0($2)
  408598:	73 00 00 00 00 00 0a 04 	sub.d $f0,$f4,$f10
  4085a0:	75 00 00 00 00 0e 00 12 	mul.d $f14,$f18,$f0
  4085a8:	75 00 00 00 00 08 08 12 	mul.d $f8,$f18,$f8
  4085b0:	71 00 00 00 00 02 0c 02 	add.d $f2,$f2,$f12
  4085b8:	43 00 00 00 01 00 06 00 	addiu $6,$0,1
  4085c0:	55 00 00 00 03 02 08 00 	sll $2,$8,0x3
  4085c8:	42 00 00 00 00 02 11 02 	addu $2,$2,$17
  4085d0:	71 00 00 00 00 04 0a 04 	add.d $f4,$f4,$f10
  4085d8:	37 00 00 00 00 00 02 02 	s.d $f2,0($2)
  4085e0:	42 00 00 00 00 02 10 08 	addu $2,$8,$16
  4085e8:	75 00 00 00 00 00 00 10 	mul.d $f0,$f16,$f0
  4085f0:	55 00 00 00 03 02 02 00 	sll $2,$2,0x3
  4085f8:	42 00 00 00 00 02 11 02 	addu $2,$2,$17
  408600:	73 00 00 00 00 06 0e 06 	sub.d $f6,$f6,$f14
  408608:	37 00 00 00 00 00 04 02 	s.d $f4,0($2)
  408610:	55 00 00 00 03 02 09 00 	sll $2,$9,0x3
  408618:	42 00 00 00 00 02 11 02 	addu $2,$2,$17
  408620:	37 00 00 00 00 00 06 02 	s.d $f6,0($2)
  408628:	71 00 00 00 00 00 08 00 	add.d $f0,$f0,$f8
  408630:	42 00 00 00 00 02 10 09 	addu $2,$9,$16
  408638:	55 00 00 00 03 02 02 00 	sll $2,$2,0x3
  408640:	42 00 00 00 00 02 11 02 	addu $2,$2,$17
  408648:	37 00 00 00 00 00 00 02 	s.d $f0,0($2)
  408650:	07 00 00 00 b0 00 00 0b 	blez $11,408918 <fftz2_+0x660>
  408658:	42 00 00 00 00 03 06 07 	addu $3,$7,$6
  408660:	55 00 00 00 03 02 03 00 	sll $2,$3,0x3
  408668:	42 00 00 00 00 02 12 02 	addu $2,$2,$18
  408670:	2b 00 00 00 00 00 08 02 	l.d $f8,0($2)
  408678:	42 00 00 00 00 03 10 03 	addu $3,$3,$16
  408680:	55 00 00 00 03 03 03 00 	sll $3,$3,0x3
  408688:	42 00 00 00 00 04 06 0a 	addu $4,$10,$6
  408690:	55 00 00 00 03 02 04 00 	sll $2,$4,0x3
  408698:	42 00 00 00 00 02 12 02 	addu $2,$2,$18
  4086a0:	2b 00 00 00 00 00 04 02 	l.d $f4,0($2)
  4086a8:	42 00 00 00 00 03 12 03 	addu $3,$3,$18
  4086b0:	2b 00 00 00 00 00 06 03 	l.d $f6,0($3)
  4086b8:	73 00 00 00 00 0a 04 08 	sub.d $f10,$f8,$f4
  4086c0:	42 00 00 00 00 04 10 04 	addu $4,$4,$16
  4086c8:	55 00 00 00 03 04 04 00 	sll $4,$4,0x3
  4086d0:	42 00 00 00 00 04 12 04 	addu $4,$4,$18
  4086d8:	75 00 00 00 00 0c 0a 10 	mul.d $f12,$f16,$f10
  4086e0:	2b 00 00 00 00 00 02 04 	l.d $f2,0($4)
  4086e8:	73 00 00 00 00 00 02 06 	sub.d $f0,$f6,$f2
  4086f0:	75 00 00 00 00 0e 00 12 	mul.d $f14,$f18,$f0
  4086f8:	43 00 00 00 01 00 05 06 	addiu $5,$6,1
  408700:	42 00 00 00 00 03 06 08 	addu $3,$8,$6
  408708:	55 00 00 00 03 02 03 00 	sll $2,$3,0x3
  408710:	75 00 00 00 00 00 00 10 	mul.d $f0,$f16,$f0
  408718:	42 00 00 00 00 02 11 02 	addu $2,$2,$17
  408720:	71 00 00 00 00 08 04 08 	add.d $f8,$f8,$f4
  408728:	42 00 00 00 00 03 10 03 	addu $3,$3,$16
  408730:	55 00 00 00 03 03 03 00 	sll $3,$3,0x3
  408738:	42 00 00 00 00 03 11 03 	addu $3,$3,$17
  408740:	71 00 00 00 00 06 02 06 	add.d $f6,$f6,$f2
  408748:	42 00 00 00 00 04 05 0a 	addu $4,$10,$5
  408750:	75 00 00 00 00 0a 0a 12 	mul.d $f10,$f18,$f10
  408758:	37 00 00 00 00 00 08 02 	s.d $f8,0($2)
  408760:	37 00 00 00 00 00 06 03 	s.d $f6,0($3)
  408768:	42 00 00 00 00 03 06 09 	addu $3,$9,$6
  408770:	73 00 00 00 00 0c 0e 0c 	sub.d $f12,$f12,$f14
  408778:	55 00 00 00 03 02 03 00 	sll $2,$3,0x3
  408780:	42 00 00 00 00 02 11 02 	addu $2,$2,$17
  408788:	42 00 00 00 00 03 10 03 	addu $3,$3,$16
  408790:	71 00 00 00 00 00 0a 00 	add.d $f0,$f0,$f10
  408798:	55 00 00 00 03 03 03 00 	sll $3,$3,0x3
  4087a0:	42 00 00 00 00 03 11 03 	addu $3,$3,$17
  4087a8:	37 00 00 00 00 00 0c 02 	s.d $f12,0($2)
  4087b0:	37 00 00 00 00 00 00 03 	s.d $f0,0($3)
  4087b8:	42 00 00 00 00 03 05 07 	addu $3,$7,$5
  4087c0:	55 00 00 00 03 02 03 00 	sll $2,$3,0x3
  4087c8:	42 00 00 00 00 02 12 02 	addu $2,$2,$18
  4087d0:	2b 00 00 00 00 00 08 02 	l.d $f8,0($2)
  4087d8:	42 00 00 00 00 03 10 03 	addu $3,$3,$16
  4087e0:	55 00 00 00 03 03 03 00 	sll $3,$3,0x3
  4087e8:	55 00 00 00 03 02 04 00 	sll $2,$4,0x3
  4087f0:	42 00 00 00 00 02 12 02 	addu $2,$2,$18
  4087f8:	2b 00 00 00 00 00 04 02 	l.d $f4,0($2)
  408800:	42 00 00 00 00 03 12 03 	addu $3,$3,$18
  408808:	2b 00 00 00 00 00 06 03 	l.d $f6,0($3)
  408810:	73 00 00 00 00 0a 04 08 	sub.d $f10,$f8,$f4
  408818:	42 00 00 00 00 04 10 04 	addu $4,$4,$16
  408820:	55 00 00 00 03 04 04 00 	sll $4,$4,0x3
  408828:	42 00 00 00 00 04 12 04 	addu $4,$4,$18
  408830:	75 00 00 00 00 0c 0a 10 	mul.d $f12,$f16,$f10
  408838:	2b 00 00 00 00 00 02 04 	l.d $f2,0($4)
  408840:	73 00 00 00 00 00 02 06 	sub.d $f0,$f6,$f2
  408848:	75 00 00 00 00 0e 00 12 	mul.d $f14,$f18,$f0
  408850:	43 00 00 00 02 00 06 06 	addiu $6,$6,2
  408858:	42 00 00 00 00 03 05 08 	addu $3,$8,$5
  408860:	42 00 00 00 00 05 05 09 	addu $5,$9,$5
  408868:	75 00 00 00 00 00 00 10 	mul.d $f0,$f16,$f0
  408870:	55 00 00 00 03 02 03 00 	sll $2,$3,0x3
  408878:	42 00 00 00 00 02 11 02 	addu $2,$2,$17
  408880:	71 00 00 00 00 08 04 08 	add.d $f8,$f8,$f4
  408888:	42 00 00 00 00 03 10 03 	addu $3,$3,$16
  408890:	55 00 00 00 03 03 03 00 	sll $3,$3,0x3
  408898:	42 00 00 00 00 03 11 03 	addu $3,$3,$17
  4088a0:	71 00 00 00 00 06 02 06 	add.d $f6,$f6,$f2
  4088a8:	75 00 00 00 00 0a 0a 12 	mul.d $f10,$f18,$f10
  4088b0:	37 00 00 00 00 00 08 02 	s.d $f8,0($2)
  4088b8:	55 00 00 00 03 02 05 00 	sll $2,$5,0x3
  4088c0:	42 00 00 00 00 02 11 02 	addu $2,$2,$17
  4088c8:	73 00 00 00 00 0c 0e 0c 	sub.d $f12,$f12,$f14
  4088d0:	42 00 00 00 00 05 10 05 	addu $5,$5,$16
  4088d8:	55 00 00 00 03 05 05 00 	sll $5,$5,0x3
  4088e0:	42 00 00 00 00 05 11 05 	addu $5,$5,$17
  4088e8:	71 00 00 00 00 00 0a 00 	add.d $f0,$f0,$f10
  4088f0:	37 00 00 00 00 00 06 03 	s.d $f6,0($3)
  4088f8:	37 00 00 00 00 00 0c 02 	s.d $f12,0($2)
  408900:	5b 00 00 00 00 02 06 0b 	slt $2,$11,$6
  408908:	37 00 00 00 00 00 00 05 	s.d $f0,0($5)
  408910:	05 00 00 00 50 ff 00 02 	beq $2,$0,408658 <fftz2_+0x3a0>
  408918:	42 00 00 00 00 08 0e 08 	addu $8,$8,$14
  408920:	28 00 00 00 10 00 02 1d 	lw $2,16($29)
  408928:	42 00 00 00 00 07 14 07 	addu $7,$7,$20
  408930:	43 00 00 00 01 00 0c 0c 	addiu $12,$12,1
  408938:	5b 00 00 00 00 02 0c 02 	slt $2,$2,$12
  408940:	05 00 00 00 cc fe 00 02 	beq $2,$0,408478 <fftz2_+0x1c0>
  408948:	42 00 00 00 00 02 00 00 	addu $2,$0,$0
  408950:	28 00 00 00 3c 00 1f 1d 	lw $31,60($29)
  408958:	28 00 00 00 38 00 1e 1d 	lw $30,56($29)
  408960:	28 00 00 00 34 00 17 1d 	lw $23,52($29)
  408968:	28 00 00 00 30 00 16 1d 	lw $22,48($29)
  408970:	28 00 00 00 2c 00 15 1d 	lw $21,44($29)
  408978:	28 00 00 00 28 00 14 1d 	lw $20,40($29)
  408980:	28 00 00 00 24 00 13 1d 	lw $19,36($29)
  408988:	28 00 00 00 20 00 12 1d 	lw $18,32($29)
  408990:	28 00 00 00 1c 00 11 1d 	lw $17,28($29)
  408998:	28 00 00 00 18 00 10 1d 	lw $16,24($29)
  4089a0:	43 00 00 00 40 00 1d 1d 	addiu $29,$29,64
  4089a8:	03 00 00 00 00 00 00 1f 	jr $31

004089b0 <xyfft_>:
  4089b0:	43 00 00 00 40 f3 1d 1d 	addiu $29,$29,-3264
  4089b8:	34 00 00 00 a4 0c 15 1d 	sw $21,3236($29)
  4089c0:	42 00 00 00 00 15 04 00 	addu $21,$0,$4
  4089c8:	34 00 00 00 b4 0c 1f 1d 	sw $31,3252($29)
  4089d0:	34 00 00 00 b0 0c 1e 1d 	sw $30,3248($29)
  4089d8:	34 00 00 00 ac 0c 17 1d 	sw $23,3244($29)
  4089e0:	34 00 00 00 a8 0c 16 1d 	sw $22,3240($29)
  4089e8:	34 00 00 00 a0 0c 14 1d 	sw $20,3232($29)
  4089f0:	34 00 00 00 9c 0c 13 1d 	sw $19,3228($29)
  4089f8:	34 00 00 00 98 0c 12 1d 	sw $18,3224($29)
  408a00:	34 00 00 00 94 0c 11 1d 	sw $17,3220($29)
  408a08:	34 00 00 00 90 0c 10 1d 	sw $16,3216($29)
  408a10:	37 00 00 00 b8 0c 14 1d 	s.d $f20,3256($29)
  408a18:	28 00 00 00 00 00 03 07 	lw $3,0($7)
  408a20:	42 00 00 00 00 1e 06 00 	addu $30,$0,$6
  408a28:	43 00 00 00 ff ff 02 00 	addiu $2,$0,-1
  408a30:	06 00 00 00 62 0e 02 03 	bne $3,$2,40c3c0 <xyfft_+0x3a10>
  408a38:	28 00 00 00 00 00 03 1e 	lw $3,0($30)
  408a40:	43 00 00 00 01 00 02 00 	addiu $2,$0,1
  408a48:	06 00 00 00 60 02 02 03 	bne $3,$2,4093d0 <xyfft_+0xa20>
  408a50:	a2 00 00 00 c6 10 10 00 	lui $16,4294
  408a58:	43 00 00 00 20 64 10 10 	addiu $16,$16,25632
  408a60:	2b 00 00 00 b0 80 14 1c 	l.d $f20,-32592($28)
  408a68:	2a 00 00 00 00 00 00 10 	l.s $f0,0($16)
  408a70:	81 00 00 00 00 00 00 00 	cvt.s.w $f0,$f0
  408a78:	82 00 00 00 00 00 00 00 	cvt.d.s $f0,$f0
  408a80:	77 00 00 00 00 00 00 14 	div.d $f0,$f20,$f0
  408a88:	43 00 00 00 20 80 04 1c 	addiu $4,$28,-32736
  408a90:	43 00 00 00 0c 00 06 10 	addiu $6,$16,12
  408a98:	a2 00 00 00 00 10 13 00 	lui $19,4096
  408aa0:	43 00 00 00 70 d9 13 13 	addiu $19,$19,-9872
  408aa8:	37 00 00 00 30 0c 00 1d 	s.d $f0,3120($29)
  408ab0:	28 00 00 00 00 00 02 15 	lw $2,0($21)
  408ab8:	43 00 00 00 30 00 12 1d 	addiu $18,$29,48
  408ac0:	43 00 00 00 30 08 11 1d 	addiu $17,$29,2096
  408ac8:	55 00 00 00 06 02 02 00 	sll $2,$2,0x6
  408ad0:	43 00 00 00 01 00 02 02 	addiu $2,$2,1
  408ad8:	55 00 00 00 05 05 02 00 	sll $5,$2,0x5
  408ae0:	42 00 00 00 00 05 02 05 	addu $5,$5,$2
  408ae8:	55 00 00 00 04 05 05 00 	sll $5,$5,0x4
  408af0:	42 00 00 00 00 05 13 05 	addu $5,$5,$19
  408af8:	42 00 00 00 00 07 05 00 	addu $7,$0,$5
  408b00:	43 00 00 00 10 00 02 10 	addiu $2,$16,16
  408b08:	34 00 00 00 10 00 02 1d 	sw $2,16($29)
  408b10:	43 00 00 00 04 00 02 10 	addiu $2,$16,4
  408b18:	34 00 00 00 18 00 02 1d 	sw $2,24($29)
  408b20:	43 00 00 00 00 80 02 1c 	addiu $2,$28,-32768
  408b28:	34 00 00 00 1c 00 02 1d 	sw $2,28($29)
  408b30:	43 00 00 00 30 0c 02 1d 	addiu $2,$29,3120
  408b38:	34 00 00 00 14 00 10 1d 	sw $16,20($29)
  408b40:	34 00 00 00 20 00 02 1d 	sw $2,32($29)
  408b48:	34 00 00 00 24 00 12 1d 	sw $18,36($29)
  408b50:	34 00 00 00 28 00 11 1d 	sw $17,40($29)
  408b58:	34 00 00 00 2c 00 15 1d 	sw $21,44($29)
  408b60:	02 00 00 00 f4 3e 10 00 	jal 40fbd0 <drcft_>
  408b68:	2a 00 00 00 04 00 00 10 	l.s $f0,4($16)
  408b70:	81 00 00 00 00 00 00 00 	cvt.s.w $f0,$f0
  408b78:	82 00 00 00 00 00 00 00 	cvt.d.s $f0,$f0
  408b80:	77 00 00 00 00 14 00 14 	div.d $f20,$f20,$f0
  408b88:	43 00 00 00 01 00 16 00 	addiu $22,$0,1
  408b90:	43 00 00 00 38 80 04 1c 	addiu $4,$28,-32712
  408b98:	43 00 00 00 20 80 05 1c 	addiu $5,$28,-32736
  408ba0:	37 00 00 00 38 0c 14 1d 	s.d $f20,3128($29)
  408ba8:	28 00 00 00 00 00 02 15 	lw $2,0($21)
  408bb0:	42 00 00 00 00 06 11 00 	addu $6,$0,$17
  408bb8:	42 00 00 00 00 07 12 00 	addu $7,$0,$18
  408bc0:	55 00 00 00 06 03 02 00 	sll $3,$2,0x6
  408bc8:	55 00 00 00 0b 02 02 00 	sll $2,$2,0xb
  408bd0:	42 00 00 00 00 02 03 02 	addu $2,$2,$3
  408bd8:	55 00 00 00 04 02 02 00 	sll $2,$2,0x4
  408be0:	42 00 00 00 00 14 02 13 	addu $20,$19,$2
  408be8:	a2 00 00 00 c6 10 02 00 	lui $2,4294
  408bf0:	28 00 00 00 24 64 02 02 	lw $2,25636($2)
  408bf8:	43 00 00 00 28 00 10 1d 	addiu $16,$29,40
  408c00:	43 00 00 00 08 02 14 14 	addiu $20,$20,520
  408c08:	34 00 00 00 14 00 15 1d 	sw $21,20($29)
  408c10:	55 00 00 00 04 02 02 00 	sll $2,$2,0x4
  408c18:	43 00 00 00 08 00 02 02 	addiu $2,$2,8
  408c20:	42 00 00 00 00 02 02 10 	addu $2,$16,$2
  408c28:	34 00 00 00 10 00 02 1d 	sw $2,16($29)
  408c30:	02 00 00 00 48 1b 10 00 	jal 406d20 <cfft_>
  408c38:	a2 00 00 00 c6 10 17 00 	lui $23,4294
  408c40:	28 00 00 00 30 64 17 17 	lw $23,25648($23)
  408c48:	42 00 00 00 00 11 14 00 	addu $17,$0,$20
  408c50:	43 00 00 00 28 08 18 1d 	addiu $24,$29,2088
  408c58:	34 00 00 00 40 0c 18 1d 	sw $24,3136($29)
  408c60:	07 00 00 00 da 01 00 17 	blez $23,4093d0 <xyfft_+0xa20>
  408c68:	28 00 00 00 00 80 03 1c 	lw $3,-32768($28)
  408c70:	43 00 00 00 ff ff 02 16 	addiu $2,$22,-1
  408c78:	46 00 00 00 00 00 03 02 	mult $2,$3
  408c80:	4c 00 00 00 00 02 00 00 	mflo $2
  408c88:	a2 00 00 00 c6 10 0d 00 	lui $13,4294
  408c90:	28 00 00 00 24 64 0d 0d 	lw $13,25636($13)
  408c98:	43 00 00 00 01 00 0a 00 	addiu $10,$0,1
  408ca0:	55 00 00 00 01 04 02 00 	sll $4,$2,0x1
  408ca8:	43 00 00 00 01 00 13 04 	addiu $19,$4,1
  408cb0:	43 00 00 00 02 00 12 04 	addiu $18,$4,2
  408cb8:	07 00 00 00 16 01 00 0d 	blez $13,409118 <xyfft_+0x768>
  408cc0:	43 00 00 00 08 00 05 10 	addiu $5,$16,8
  408cc8:	42 00 00 00 00 0b 00 00 	addu $11,$0,$0
  408cd0:	a2 00 00 00 c6 10 0e 00 	lui $14,4294
  408cd8:	28 00 00 00 30 64 0e 0e 	lw $14,25648($14)
  408ce0:	42 00 00 00 00 0f 0d 00 	addu $15,$0,$13
  408ce8:	43 00 00 00 01 00 06 0d 	addiu $6,$13,1
  408cf0:	4f 00 00 00 03 00 03 0d 	andi $3,$13,3
  408cf8:	5b 00 00 00 00 02 06 0a 	slt $2,$10,$6
  408d00:	05 00 00 00 4c 00 00 02 	beq $2,$0,408e38 <xyfft_+0x488>
  408d08:	05 00 00 00 72 00 00 03 	beq $3,$0,408ed8 <xyfft_+0x528>
  408d10:	5c 00 00 00 02 00 02 03 	slti $2,$3,2
  408d18:	06 00 00 00 46 00 00 02 	bne $2,$0,408e38 <xyfft_+0x488>
  408d20:	5c 00 00 00 03 00 02 03 	slti $2,$3,3
  408d28:	06 00 00 00 1e 00 00 02 	bne $2,$0,408da8 <xyfft_+0x3f8>
  408d30:	43 00 00 00 01 00 08 04 	addiu $8,$4,1
  408d38:	55 00 00 00 03 02 08 00 	sll $2,$8,0x3
  408d40:	42 00 00 00 00 02 11 02 	addu $2,$2,$17
  408d48:	2b 00 00 00 00 00 00 02 	l.d $f0,0($2)
  408d50:	43 00 00 00 02 00 09 04 	addiu $9,$4,2
  408d58:	43 00 00 00 08 00 05 05 	addiu $5,$5,8
  408d60:	55 00 00 00 03 02 09 00 	sll $2,$9,0x3
  408d68:	42 00 00 00 00 02 11 02 	addu $2,$2,$17
  408d70:	37 00 00 00 08 00 00 10 	s.d $f0,8($16)
  408d78:	2b 00 00 00 00 00 00 02 	l.d $f0,0($2)
  408d80:	43 00 00 00 02 00 0b 00 	addiu $11,$0,2
  408d88:	43 00 00 00 02 00 0a 00 	addiu $10,$0,2
  408d90:	55 00 00 00 03 02 06 00 	sll $2,$6,0x3
  408d98:	42 00 00 00 00 02 10 02 	addu $2,$2,$16
  408da0:	37 00 00 00 00 00 00 02 	s.d $f0,0($2)
  408da8:	46 00 00 00 00 00 0e 0b 	mult $11,$14
  408db0:	42 00 00 00 00 03 0d 0a 	addu $3,$10,$13
  408db8:	4c 00 00 00 00 04 00 00 	mflo $4
  408dc0:	43 00 00 00 01 00 0a 0a 	addiu $10,$10,1
  408dc8:	55 00 00 00 03 03 03 00 	sll $3,$3,0x3
  408dd0:	42 00 00 00 00 08 04 13 	addu $8,$19,$4
  408dd8:	55 00 00 00 03 02 08 00 	sll $2,$8,0x3
  408de0:	42 00 00 00 00 02 11 02 	addu $2,$2,$17
  408de8:	2b 00 00 00 00 00 00 02 	l.d $f0,0($2)
  408df0:	42 00 00 00 00 03 10 03 	addu $3,$3,$16
  408df8:	42 00 00 00 00 09 04 12 	addu $9,$18,$4
  408e00:	55 00 00 00 03 02 09 00 	sll $2,$9,0x3
  408e08:	42 00 00 00 00 02 11 02 	addu $2,$2,$17
  408e10:	37 00 00 00 00 00 00 05 	s.d $f0,0($5)
  408e18:	2b 00 00 00 00 00 00 02 	l.d $f0,0($2)
  408e20:	43 00 00 00 02 00 0b 0b 	addiu $11,$11,2
  408e28:	43 00 00 00 08 00 05 05 	addiu $5,$5,8
  408e30:	37 00 00 00 00 00 00 03 	s.d $f0,0($3)
  408e38:	46 00 00 00 00 00 0e 0b 	mult $11,$14
  408e40:	42 00 00 00 00 03 0f 0a 	addu $3,$10,$15
  408e48:	43 00 00 00 01 00 0a 0a 	addiu $10,$10,1
  408e50:	4c 00 00 00 00 04 00 00 	mflo $4
  408e58:	5b 00 00 00 00 07 0a 0d 	slt $7,$13,$10
  408e60:	55 00 00 00 03 03 03 00 	sll $3,$3,0x3
  408e68:	42 00 00 00 00 08 04 13 	addu $8,$19,$4
  408e70:	55 00 00 00 03 02 08 00 	sll $2,$8,0x3
  408e78:	42 00 00 00 00 02 11 02 	addu $2,$2,$17
  408e80:	2b 00 00 00 00 00 00 02 	l.d $f0,0($2)
  408e88:	42 00 00 00 00 03 10 03 	addu $3,$3,$16
  408e90:	42 00 00 00 00 09 04 12 	addu $9,$18,$4
  408e98:	55 00 00 00 03 02 09 00 	sll $2,$9,0x3
  408ea0:	42 00 00 00 00 02 11 02 	addu $2,$2,$17
  408ea8:	37 00 00 00 00 00 00 05 	s.d $f0,0($5)
  408eb0:	2b 00 00 00 00 00 00 02 	l.d $f0,0($2)
  408eb8:	43 00 00 00 02 00 0b 0b 	addiu $11,$11,2
  408ec0:	43 00 00 00 08 00 05 05 	addiu $5,$5,8
  408ec8:	37 00 00 00 00 00 00 03 	s.d $f0,0($3)
  408ed0:	06 00 00 00 90 00 00 07 	bne $7,$0,409118 <xyfft_+0x768>
  408ed8:	42 00 00 00 00 0c 05 00 	addu $12,$0,$5
  408ee0:	46 00 00 00 00 00 0e 0b 	mult $11,$14
  408ee8:	4c 00 00 00 00 03 00 00 	mflo $3
  408ef0:	43 00 00 00 02 00 02 0b 	addiu $2,$11,2
  408ef8:	46 00 00 00 00 00 0e 02 	mult $2,$14
  408f00:	4c 00 00 00 00 07 00 00 	mflo $7
  408f08:	43 00 00 00 04 00 02 0b 	addiu $2,$11,4
  408f10:	46 00 00 00 00 00 0e 02 	mult $2,$14
  408f18:	42 00 00 00 00 08 03 13 	addu $8,$19,$3
  408f20:	42 00 00 00 00 09 03 12 	addu $9,$18,$3
  408f28:	55 00 00 00 03 02 08 00 	sll $2,$8,0x3
  408f30:	42 00 00 00 00 02 11 02 	addu $2,$2,$17
  408f38:	2b 00 00 00 00 00 00 02 	l.d $f0,0($2)
  408f40:	42 00 00 00 00 03 0f 0a 	addu $3,$10,$15
  408f48:	55 00 00 00 03 03 03 00 	sll $3,$3,0x3
  408f50:	55 00 00 00 03 02 09 00 	sll $2,$9,0x3
  408f58:	42 00 00 00 00 02 11 02 	addu $2,$2,$17
  408f60:	37 00 00 00 00 00 00 0c 	s.d $f0,0($12)
  408f68:	2b 00 00 00 00 00 00 02 	l.d $f0,0($2)
  408f70:	42 00 00 00 00 03 10 03 	addu $3,$3,$16
  408f78:	42 00 00 00 00 08 07 13 	addu $8,$19,$7
  408f80:	55 00 00 00 03 02 08 00 	sll $2,$8,0x3
  408f88:	42 00 00 00 00 02 11 02 	addu $2,$2,$17
  408f90:	37 00 00 00 00 00 00 03 	s.d $f0,0($3)
  408f98:	2b 00 00 00 00 00 00 02 	l.d $f0,0($2)
  408fa0:	4c 00 00 00 00 06 00 00 	mflo $6
  408fa8:	43 00 00 00 06 00 02 0b 	addiu $2,$11,6
  408fb0:	46 00 00 00 00 00 0e 02 	mult $2,$14
  408fb8:	43 00 00 00 02 00 04 0a 	addiu $4,$10,2
  408fc0:	43 00 00 00 03 00 05 0a 	addiu $5,$10,3
  408fc8:	42 00 00 00 00 04 0f 04 	addu $4,$4,$15
  408fd0:	55 00 00 00 03 04 04 00 	sll $4,$4,0x3
  408fd8:	42 00 00 00 00 04 10 04 	addu $4,$4,$16
  408fe0:	42 00 00 00 00 05 0f 05 	addu $5,$5,$15
  408fe8:	55 00 00 00 03 05 05 00 	sll $5,$5,0x3
  408ff0:	42 00 00 00 00 05 10 05 	addu $5,$5,$16
  408ff8:	42 00 00 00 00 09 07 12 	addu $9,$18,$7
  409000:	43 00 00 00 01 00 03 0a 	addiu $3,$10,1
  409008:	42 00 00 00 00 03 0f 03 	addu $3,$3,$15
  409010:	55 00 00 00 03 03 03 00 	sll $3,$3,0x3
  409018:	37 00 00 00 08 00 00 0c 	s.d $f0,8($12)
  409020:	55 00 00 00 03 02 09 00 	sll $2,$9,0x3
  409028:	42 00 00 00 00 02 11 02 	addu $2,$2,$17
  409030:	2b 00 00 00 00 00 00 02 	l.d $f0,0($2)
  409038:	42 00 00 00 00 03 10 03 	addu $3,$3,$16
  409040:	42 00 00 00 00 08 06 13 	addu $8,$19,$6
  409048:	55 00 00 00 03 02 08 00 	sll $2,$8,0x3
  409050:	42 00 00 00 00 02 11 02 	addu $2,$2,$17
  409058:	37 00 00 00 00 00 00 03 	s.d $f0,0($3)
  409060:	2b 00 00 00 00 00 00 02 	l.d $f0,0($2)
  409068:	42 00 00 00 00 09 06 12 	addu $9,$18,$6
  409070:	4c 00 00 00 00 03 00 00 	mflo $3
  409078:	55 00 00 00 03 02 09 00 	sll $2,$9,0x3
  409080:	42 00 00 00 00 02 11 02 	addu $2,$2,$17
  409088:	37 00 00 00 10 00 00 0c 	s.d $f0,16($12)
  409090:	2b 00 00 00 00 00 00 02 	l.d $f0,0($2)
  409098:	43 00 00 00 04 00 0a 0a 	addiu $10,$10,4
  4090a0:	42 00 00 00 00 08 03 13 	addu $8,$19,$3
  4090a8:	55 00 00 00 03 02 08 00 	sll $2,$8,0x3
  4090b0:	42 00 00 00 00 02 11 02 	addu $2,$2,$17
  4090b8:	37 00 00 00 00 00 00 04 	s.d $f0,0($4)
  4090c0:	2b 00 00 00 00 00 00 02 	l.d $f0,0($2)
  4090c8:	5b 00 00 00 00 07 0a 0d 	slt $7,$13,$10
  4090d0:	42 00 00 00 00 09 03 12 	addu $9,$18,$3
  4090d8:	55 00 00 00 03 02 09 00 	sll $2,$9,0x3
  4090e0:	42 00 00 00 00 02 11 02 	addu $2,$2,$17
  4090e8:	37 00 00 00 18 00 00 0c 	s.d $f0,24($12)
  4090f0:	2b 00 00 00 00 00 00 02 	l.d $f0,0($2)
  4090f8:	43 00 00 00 08 00 0b 0b 	addiu $11,$11,8
  409100:	43 00 00 00 20 00 0c 0c 	addiu $12,$12,32
  409108:	37 00 00 00 00 00 00 05 	s.d $f0,0($5)
  409110:	05 00 00 00 72 ff 00 07 	beq $7,$0,408ee0 <xyfft_+0x530>
  409118:	43 00 00 00 00 80 04 1c 	addiu $4,$28,-32768
  409120:	a2 00 00 00 c6 10 02 00 	lui $2,4294
  409128:	28 00 00 00 24 64 02 02 	lw $2,25636($2)
  409130:	28 00 00 00 40 0c 18 1d 	lw $24,3136($29)
  409138:	43 00 00 00 20 80 05 1c 	addiu $5,$28,-32736
  409140:	43 00 00 00 08 00 07 10 	addiu $7,$16,8
  409148:	34 00 00 00 14 00 15 1d 	sw $21,20($29)
  409150:	43 00 00 00 08 00 06 18 	addiu $6,$24,8
  409158:	55 00 00 00 04 02 02 00 	sll $2,$2,0x4
  409160:	43 00 00 00 08 00 02 02 	addiu $2,$2,8
  409168:	42 00 00 00 00 02 02 10 	addu $2,$16,$2
  409170:	34 00 00 00 10 00 02 1d 	sw $2,16($29)
  409178:	02 00 00 00 48 1b 10 00 	jal 406d20 <cfft_>
  409180:	a2 00 00 00 c6 10 0d 00 	lui $13,4294
  409188:	28 00 00 00 24 64 0d 0d 	lw $13,25636($13)
  409190:	43 00 00 00 01 00 0a 00 	addiu $10,$0,1
  409198:	07 00 00 00 86 00 00 0d 	blez $13,4093b8 <xyfft_+0xa08>
  4091a0:	43 00 00 00 08 00 06 10 	addiu $6,$16,8
  4091a8:	42 00 00 00 00 05 00 00 	addu $5,$0,$0
  4091b0:	a2 00 00 00 c6 10 0b 00 	lui $11,4294
  4091b8:	28 00 00 00 30 64 0b 0b 	lw $11,25648($11)
  4091c0:	2b 00 00 00 38 0c 02 1d 	l.d $f2,3128($29)
  4091c8:	42 00 00 00 00 07 0d 00 	addu $7,$0,$13
  4091d0:	43 00 00 00 01 00 04 0d 	addiu $4,$13,1
  4091d8:	4f 00 00 00 01 00 03 0d 	andi $3,$13,1
  4091e0:	5b 00 00 00 00 02 04 0a 	slt $2,$10,$4
  4091e8:	05 00 00 00 02 00 00 02 	beq $2,$0,4091f8 <xyfft_+0x848>
  4091f0:	05 00 00 00 1e 00 00 03 	beq $3,$0,409270 <xyfft_+0x8c0>
  4091f8:	2b 00 00 00 08 00 00 10 	l.d $f0,8($16)
  409200:	75 00 00 00 00 00 00 02 	mul.d $f0,$f2,$f0
  409208:	55 00 00 00 03 02 13 00 	sll $2,$19,0x3
  409210:	42 00 00 00 00 02 14 02 	addu $2,$2,$20
  409218:	37 00 00 00 00 00 00 02 	s.d $f0,0($2)
  409220:	55 00 00 00 03 02 04 00 	sll $2,$4,0x3
  409228:	42 00 00 00 00 02 10 02 	addu $2,$2,$16
  409230:	2b 00 00 00 00 00 00 02 	l.d $f0,0($2)
  409238:	75 00 00 00 00 00 00 02 	mul.d $f0,$f2,$f0
  409240:	43 00 00 00 08 00 06 06 	addiu $6,$6,8
  409248:	43 00 00 00 02 00 05 00 	addiu $5,$0,2
  409250:	43 00 00 00 02 00 0a 00 	addiu $10,$0,2
  409258:	5c 00 00 00 02 00 04 0d 	slti $4,$13,2
  409260:	55 00 00 00 03 02 12 00 	sll $2,$18,0x3
  409268:	01 00 00 00 e8 24 10 00 	j 4093a0 <xyfft_+0x9f0>
  409270:	46 00 00 00 00 00 0b 05 	mult $5,$11
  409278:	2b 00 00 00 00 00 00 06 	l.d $f0,0($6)
  409280:	75 00 00 00 00 00 00 02 	mul.d $f0,$f2,$f0
  409288:	4c 00 00 00 00 03 00 00 	mflo $3
  409290:	42 00 00 00 00 08 03 13 	addu $8,$19,$3
  409298:	55 00 00 00 03 02 08 00 	sll $2,$8,0x3
  4092a0:	42 00 00 00 00 02 14 02 	addu $2,$2,$20
  4092a8:	37 00 00 00 00 00 00 02 	s.d $f0,0($2)
  4092b0:	43 00 00 00 02 00 02 05 	addiu $2,$5,2
  4092b8:	46 00 00 00 00 00 0b 02 	mult $2,$11
  4092c0:	42 00 00 00 00 02 07 0a 	addu $2,$10,$7
  4092c8:	55 00 00 00 03 02 02 00 	sll $2,$2,0x3
  4092d0:	42 00 00 00 00 02 10 02 	addu $2,$2,$16
  4092d8:	2b 00 00 00 00 00 00 02 	l.d $f0,0($2)
  4092e0:	75 00 00 00 00 00 00 02 	mul.d $f0,$f2,$f0
  4092e8:	42 00 00 00 00 09 03 12 	addu $9,$18,$3
  4092f0:	55 00 00 00 03 02 09 00 	sll $2,$9,0x3
  4092f8:	42 00 00 00 00 02 14 02 	addu $2,$2,$20
  409300:	37 00 00 00 00 00 00 02 	s.d $f0,0($2)
  409308:	2b 00 00 00 08 00 00 06 	l.d $f0,8($6)
  409310:	75 00 00 00 00 00 00 02 	mul.d $f0,$f2,$f0
  409318:	4c 00 00 00 00 03 00 00 	mflo $3
  409320:	42 00 00 00 00 08 03 13 	addu $8,$19,$3
  409328:	55 00 00 00 03 02 08 00 	sll $2,$8,0x3
  409330:	42 00 00 00 00 02 14 02 	addu $2,$2,$20
  409338:	37 00 00 00 00 00 00 02 	s.d $f0,0($2)
  409340:	43 00 00 00 01 00 02 0a 	addiu $2,$10,1
  409348:	42 00 00 00 00 02 07 02 	addu $2,$2,$7
  409350:	55 00 00 00 03 02 02 00 	sll $2,$2,0x3
  409358:	42 00 00 00 00 02 10 02 	addu $2,$2,$16
  409360:	2b 00 00 00 00 00 00 02 	l.d $f0,0($2)
  409368:	75 00 00 00 00 00 00 02 	mul.d $f0,$f2,$f0
  409370:	43 00 00 00 04 00 05 05 	addiu $5,$5,4
  409378:	42 00 00 00 00 09 03 12 	addu $9,$18,$3
  409380:	43 00 00 00 10 00 06 06 	addiu $6,$6,16
  409388:	43 00 00 00 02 00 0a 0a 	addiu $10,$10,2
  409390:	5b 00 00 00 00 04 0a 0d 	slt $4,$13,$10
  409398:	55 00 00 00 03 02 09 00 	sll $2,$9,0x3
  4093a0:	42 00 00 00 00 02 14 02 	addu $2,$2,$20
  4093a8:	37 00 00 00 00 00 00 02 	s.d $f0,0($2)
  4093b0:	05 00 00 00 ae ff 00 04 	beq $4,$0,409270 <xyfft_+0x8c0>
  4093b8:	43 00 00 00 01 00 16 16 	addiu $22,$22,1
  4093c0:	5b 00 00 00 00 02 16 17 	slt $2,$23,$22
  4093c8:	05 00 00 00 26 fe 00 02 	beq $2,$0,408c68 <xyfft_+0x2b8>
  4093d0:	28 00 00 00 00 00 03 1e 	lw $3,0($30)
  4093d8:	43 00 00 00 02 00 02 00 	addiu $2,$0,2
  4093e0:	06 00 00 00 60 02 02 03 	bne $3,$2,409d68 <xyfft_+0x13b8>
  4093e8:	a2 00 00 00 c6 10 10 00 	lui $16,4294
  4093f0:	43 00 00 00 20 64 10 10 	addiu $16,$16,25632
  4093f8:	2b 00 00 00 b0 80 14 1c 	l.d $f20,-32592($28)
  409400:	2a 00 00 00 00 00 00 10 	l.s $f0,0($16)
  409408:	81 00 00 00 00 00 00 00 	cvt.s.w $f0,$f0
  409410:	82 00 00 00 00 00 00 00 	cvt.d.s $f0,$f0
  409418:	77 00 00 00 00 00 00 14 	div.d $f0,$f20,$f0
  409420:	43 00 00 00 20 80 04 1c 	addiu $4,$28,-32736
  409428:	43 00 00 00 0c 00 06 10 	addiu $6,$16,12
  409430:	a2 00 00 00 21 10 13 00 	lui $19,4129
  409438:	43 00 00 00 70 d9 13 13 	addiu $19,$19,-9872
  409440:	37 00 00 00 30 0c 00 1d 	s.d $f0,3120($29)
  409448:	28 00 00 00 00 00 02 15 	lw $2,0($21)
  409450:	43 00 00 00 30 00 12 1d 	addiu $18,$29,48
  409458:	43 00 00 00 30 08 11 1d 	addiu $17,$29,2096
  409460:	55 00 00 00 06 02 02 00 	sll $2,$2,0x6
  409468:	43 00 00 00 01 00 02 02 	addiu $2,$2,1
  409470:	55 00 00 00 05 05 02 00 	sll $5,$2,0x5
  409478:	42 00 00 00 00 05 02 05 	addu $5,$5,$2
  409480:	55 00 00 00 04 05 05 00 	sll $5,$5,0x4
  409488:	42 00 00 00 00 05 13 05 	addu $5,$5,$19
  409490:	42 00 00 00 00 07 05 00 	addu $7,$0,$5
  409498:	43 00 00 00 10 00 02 10 	addiu $2,$16,16
  4094a0:	34 00 00 00 10 00 02 1d 	sw $2,16($29)
  4094a8:	43 00 00 00 04 00 02 10 	addiu $2,$16,4
  4094b0:	34 00 00 00 18 00 02 1d 	sw $2,24($29)
  4094b8:	43 00 00 00 00 80 02 1c 	addiu $2,$28,-32768
  4094c0:	34 00 00 00 1c 00 02 1d 	sw $2,28($29)
  4094c8:	43 00 00 00 30 0c 02 1d 	addiu $2,$29,3120
  4094d0:	34 00 00 00 14 00 10 1d 	sw $16,20($29)
  4094d8:	34 00 00 00 20 00 02 1d 	sw $2,32($29)
  4094e0:	34 00 00 00 24 00 12 1d 	sw $18,36($29)
  4094e8:	34 00 00 00 28 00 11 1d 	sw $17,40($29)
  4094f0:	34 00 00 00 2c 00 15 1d 	sw $21,44($29)
  4094f8:	02 00 00 00 f4 3e 10 00 	jal 40fbd0 <drcft_>
  409500:	2a 00 00 00 04 00 00 10 	l.s $f0,4($16)
  409508:	81 00 00 00 00 00 00 00 	cvt.s.w $f0,$f0
  409510:	82 00 00 00 00 00 00 00 	cvt.d.s $f0,$f0
  409518:	77 00 00 00 00 14 00 14 	div.d $f20,$f20,$f0
  409520:	43 00 00 00 01 00 16 00 	addiu $22,$0,1
  409528:	43 00 00 00 38 80 04 1c 	addiu $4,$28,-32712
  409530:	43 00 00 00 20 80 05 1c 	addiu $5,$28,-32736
  409538:	37 00 00 00 38 0c 14 1d 	s.d $f20,3128($29)
  409540:	28 00 00 00 00 00 02 15 	lw $2,0($21)
  409548:	42 00 00 00 00 06 11 00 	addu $6,$0,$17
  409550:	42 00 00 00 00 07 12 00 	addu $7,$0,$18
  409558:	55 00 00 00 06 03 02 00 	sll $3,$2,0x6
  409560:	55 00 00 00 0b 02 02 00 	sll $2,$2,0xb
  409568:	42 00 00 00 00 02 03 02 	addu $2,$2,$3
  409570:	55 00 00 00 04 02 02 00 	sll $2,$2,0x4
  409578:	42 00 00 00 00 14 02 13 	addu $20,$19,$2
  409580:	a2 00 00 00 c6 10 02 00 	lui $2,4294
  409588:	28 00 00 00 24 64 02 02 	lw $2,25636($2)
  409590:	43 00 00 00 28 00 10 1d 	addiu $16,$29,40
  409598:	43 00 00 00 08 02 14 14 	addiu $20,$20,520
  4095a0:	34 00 00 00 14 00 15 1d 	sw $21,20($29)
  4095a8:	55 00 00 00 04 02 02 00 	sll $2,$2,0x4
  4095b0:	43 00 00 00 08 00 02 02 	addiu $2,$2,8
  4095b8:	42 00 00 00 00 02 02 10 	addu $2,$16,$2
  4095c0:	34 00 00 00 10 00 02 1d 	sw $2,16($29)
  4095c8:	02 00 00 00 48 1b 10 00 	jal 406d20 <cfft_>
  4095d0:	a2 00 00 00 c6 10 17 00 	lui $23,4294
  4095d8:	28 00 00 00 30 64 17 17 	lw $23,25648($23)
  4095e0:	42 00 00 00 00 11 14 00 	addu $17,$0,$20
  4095e8:	43 00 00 00 28 08 18 1d 	addiu $24,$29,2088
  4095f0:	34 00 00 00 48 0c 18 1d 	sw $24,3144($29)
  4095f8:	07 00 00 00 da 01 00 17 	blez $23,409d68 <xyfft_+0x13b8>
  409600:	28 00 00 00 00 80 03 1c 	lw $3,-32768($28)
  409608:	43 00 00 00 ff ff 02 16 	addiu $2,$22,-1
  409610:	46 00 00 00 00 00 03 02 	mult $2,$3
  409618:	4c 00 00 00 00 02 00 00 	mflo $2
  409620:	a2 00 00 00 c6 10 0d 00 	lui $13,4294
  409628:	28 00 00 00 24 64 0d 0d 	lw $13,25636($13)
  409630:	43 00 00 00 01 00 0a 00 	addiu $10,$0,1
  409638:	55 00 00 00 01 04 02 00 	sll $4,$2,0x1
  409640:	43 00 00 00 01 00 13 04 	addiu $19,$4,1
  409648:	43 00 00 00 02 00 12 04 	addiu $18,$4,2
  409650:	07 00 00 00 16 01 00 0d 	blez $13,409ab0 <xyfft_+0x1100>
  409658:	43 00 00 00 08 00 05 10 	addiu $5,$16,8
  409660:	42 00 00 00 00 0b 00 00 	addu $11,$0,$0
  409668:	a2 00 00 00 c6 10 0e 00 	lui $14,4294
  409670:	28 00 00 00 30 64 0e 0e 	lw $14,25648($14)
  409678:	42 00 00 00 00 0f 0d 00 	addu $15,$0,$13
  409680:	43 00 00 00 01 00 06 0d 	addiu $6,$13,1
  409688:	4f 00 00 00 03 00 03 0d 	andi $3,$13,3
  409690:	5b 00 00 00 00 02 06 0a 	slt $2,$10,$6
  409698:	05 00 00 00 4c 00 00 02 	beq $2,$0,4097d0 <xyfft_+0xe20>
  4096a0:	05 00 00 00 72 00 00 03 	beq $3,$0,409870 <xyfft_+0xec0>
  4096a8:	5c 00 00 00 02 00 02 03 	slti $2,$3,2
  4096b0:	06 00 00 00 46 00 00 02 	bne $2,$0,4097d0 <xyfft_+0xe20>
  4096b8:	5c 00 00 00 03 00 02 03 	slti $2,$3,3
  4096c0:	06 00 00 00 1e 00 00 02 	bne $2,$0,409740 <xyfft_+0xd90>
  4096c8:	43 00 00 00 01 00 08 04 	addiu $8,$4,1
  4096d0:	55 00 00 00 03 02 08 00 	sll $2,$8,0x3
  4096d8:	42 00 00 00 00 02 11 02 	addu $2,$2,$17
  4096e0:	2b 00 00 00 00 00 00 02 	l.d $f0,0($2)
  4096e8:	43 00 00 00 02 00 09 04 	addiu $9,$4,2
  4096f0:	43 00 00 00 08 00 05 05 	addiu $5,$5,8
  4096f8:	55 00 00 00 03 02 09 00 	sll $2,$9,0x3
  409700:	42 00 00 00 00 02 11 02 	addu $2,$2,$17
  409708:	37 00 00 00 08 00 00 10 	s.d $f0,8($16)
  409710:	2b 00 00 00 00 00 00 02 	l.d $f0,0($2)
  409718:	43 00 00 00 02 00 0b 00 	addiu $11,$0,2
  409720:	43 00 00 00 02 00 0a 00 	addiu $10,$0,2
  409728:	55 00 00 00 03 02 06 00 	sll $2,$6,0x3
  409730:	42 00 00 00 00 02 10 02 	addu $2,$2,$16
  409738:	37 00 00 00 00 00 00 02 	s.d $f0,0($2)
  409740:	46 00 00 00 00 00 0e 0b 	mult $11,$14
  409748:	42 00 00 00 00 03 0d 0a 	addu $3,$10,$13
  409750:	4c 00 00 00 00 04 00 00 	mflo $4
  409758:	43 00 00 00 01 00 0a 0a 	addiu $10,$10,1
  409760:	55 00 00 00 03 03 03 00 	sll $3,$3,0x3
  409768:	42 00 00 00 00 08 04 13 	addu $8,$19,$4
  409770:	55 00 00 00 03 02 08 00 	sll $2,$8,0x3
  409778:	42 00 00 00 00 02 11 02 	addu $2,$2,$17
  409780:	2b 00 00 00 00 00 00 02 	l.d $f0,0($2)
  409788:	42 00 00 00 00 03 10 03 	addu $3,$3,$16
  409790:	42 00 00 00 00 09 04 12 	addu $9,$18,$4
  409798:	55 00 00 00 03 02 09 00 	sll $2,$9,0x3
  4097a0:	42 00 00 00 00 02 11 02 	addu $2,$2,$17
  4097a8:	37 00 00 00 00 00 00 05 	s.d $f0,0($5)
  4097b0:	2b 00 00 00 00 00 00 02 	l.d $f0,0($2)
  4097b8:	43 00 00 00 02 00 0b 0b 	addiu $11,$11,2
  4097c0:	43 00 00 00 08 00 05 05 	addiu $5,$5,8
  4097c8:	37 00 00 00 00 00 00 03 	s.d $f0,0($3)
  4097d0:	46 00 00 00 00 00 0e 0b 	mult $11,$14
  4097d8:	42 00 00 00 00 03 0f 0a 	addu $3,$10,$15
  4097e0:	43 00 00 00 01 00 0a 0a 	addiu $10,$10,1
  4097e8:	4c 00 00 00 00 04 00 00 	mflo $4
  4097f0:	5b 00 00 00 00 07 0a 0d 	slt $7,$13,$10
  4097f8:	55 00 00 00 03 03 03 00 	sll $3,$3,0x3
  409800:	42 00 00 00 00 08 04 13 	addu $8,$19,$4
  409808:	55 00 00 00 03 02 08 00 	sll $2,$8,0x3
  409810:	42 00 00 00 00 02 11 02 	addu $2,$2,$17
  409818:	2b 00 00 00 00 00 00 02 	l.d $f0,0($2)
  409820:	42 00 00 00 00 03 10 03 	addu $3,$3,$16
  409828:	42 00 00 00 00 09 04 12 	addu $9,$18,$4
  409830:	55 00 00 00 03 02 09 00 	sll $2,$9,0x3
  409838:	42 00 00 00 00 02 11 02 	addu $2,$2,$17
  409840:	37 00 00 00 00 00 00 05 	s.d $f0,0($5)
  409848:	2b 00 00 00 00 00 00 02 	l.d $f0,0($2)
  409850:	43 00 00 00 02 00 0b 0b 	addiu $11,$11,2
  409858:	43 00 00 00 08 00 05 05 	addiu $5,$5,8
  409860:	37 00 00 00 00 00 00 03 	s.d $f0,0($3)
  409868:	06 00 00 00 90 00 00 07 	bne $7,$0,409ab0 <xyfft_+0x1100>
  409870:	42 00 00 00 00 0c 05 00 	addu $12,$0,$5
  409878:	46 00 00 00 00 00 0e 0b 	mult $11,$14
  409880:	4c 00 00 00 00 03 00 00 	mflo $3
  409888:	43 00 00 00 02 00 02 0b 	addiu $2,$11,2
  409890:	46 00 00 00 00 00 0e 02 	mult $2,$14
  409898:	4c 00 00 00 00 07 00 00 	mflo $7
  4098a0:	43 00 00 00 04 00 02 0b 	addiu $2,$11,4
  4098a8:	46 00 00 00 00 00 0e 02 	mult $2,$14
  4098b0:	42 00 00 00 00 08 03 13 	addu $8,$19,$3
  4098b8:	42 00 00 00 00 09 03 12 	addu $9,$18,$3
  4098c0:	55 00 00 00 03 02 08 00 	sll $2,$8,0x3
  4098c8:	42 00 00 00 00 02 11 02 	addu $2,$2,$17
  4098d0:	2b 00 00 00 00 00 00 02 	l.d $f0,0($2)
  4098d8:	42 00 00 00 00 03 0f 0a 	addu $3,$10,$15
  4098e0:	55 00 00 00 03 03 03 00 	sll $3,$3,0x3
  4098e8:	55 00 00 00 03 02 09 00 	sll $2,$9,0x3
  4098f0:	42 00 00 00 00 02 11 02 	addu $2,$2,$17
  4098f8:	37 00 00 00 00 00 00 0c 	s.d $f0,0($12)
  409900:	2b 00 00 00 00 00 00 02 	l.d $f0,0($2)
  409908:	42 00 00 00 00 03 10 03 	addu $3,$3,$16
  409910:	42 00 00 00 00 08 07 13 	addu $8,$19,$7
  409918:	55 00 00 00 03 02 08 00 	sll $2,$8,0x3
  409920:	42 00 00 00 00 02 11 02 	addu $2,$2,$17
  409928:	37 00 00 00 00 00 00 03 	s.d $f0,0($3)
  409930:	2b 00 00 00 00 00 00 02 	l.d $f0,0($2)
  409938:	4c 00 00 00 00 06 00 00 	mflo $6
  409940:	43 00 00 00 06 00 02 0b 	addiu $2,$11,6
  409948:	46 00 00 00 00 00 0e 02 	mult $2,$14
  409950:	43 00 00 00 02 00 04 0a 	addiu $4,$10,2
  409958:	43 00 00 00 03 00 05 0a 	addiu $5,$10,3
  409960:	42 00 00 00 00 04 0f 04 	addu $4,$4,$15
  409968:	55 00 00 00 03 04 04 00 	sll $4,$4,0x3
  409970:	42 00 00 00 00 04 10 04 	addu $4,$4,$16
  409978:	42 00 00 00 00 05 0f 05 	addu $5,$5,$15
  409980:	55 00 00 00 03 05 05 00 	sll $5,$5,0x3
  409988:	42 00 00 00 00 05 10 05 	addu $5,$5,$16
  409990:	42 00 00 00 00 09 07 12 	addu $9,$18,$7
  409998:	43 00 00 00 01 00 03 0a 	addiu $3,$10,1
  4099a0:	42 00 00 00 00 03 0f 03 	addu $3,$3,$15
  4099a8:	55 00 00 00 03 03 03 00 	sll $3,$3,0x3
  4099b0:	37 00 00 00 08 00 00 0c 	s.d $f0,8($12)
