
/export/capc5/SPEC_TRACE/SimpleScalar/bin/swim.ss:     file format ss-coff-little

Disassembly of section .text:

00400140 <__start>:
  400140:	28 00 00 00 00 00 10 1d 	lw $16,0($29)
  400148:	a2 00 00 00 01 10 1c 00 	lui $28,4097
  400150:	43 00 00 00 e0 b4 1c 1c 	addiu $28,$28,-19232
  400158:	43 00 00 00 04 00 11 1d 	addiu $17,$29,4
  400160:	43 00 00 00 04 00 03 11 	addiu $3,$17,4
  400168:	55 00 00 00 02 02 10 00 	sll $2,$16,0x2
  400170:	42 00 00 00 00 03 02 03 	addu $3,$3,$2
  400178:	42 00 00 00 00 12 03 00 	addu $18,$0,$3
  400180:	34 00 00 00 14 8a 12 1c 	sw $18,-30188($28)
  400188:	43 00 00 00 e8 ff 1d 1d 	addiu $29,$29,-24
  400190:	42 00 00 00 00 04 10 00 	addu $4,$0,$16
  400198:	42 00 00 00 00 05 11 00 	addu $5,$0,$17
  4001a0:	42 00 00 00 00 06 12 00 	addu $6,$0,$18
  4001a8:	02 00 00 00 ec 11 10 00 	jal 4047b0 <__libc_init>
  4001b0:	34 00 00 00 10 8a 00 1c 	sw $0,-30192($28)
  4001b8:	42 00 00 00 00 04 10 00 	addu $4,$0,$16
  4001c0:	42 00 00 00 00 05 11 00 	addu $5,$0,$17
  4001c8:	42 00 00 00 00 06 12 00 	addu $6,$0,$18
  4001d0:	02 00 00 00 f8 11 10 00 	jal 4047e0 <main>
  4001d8:	42 00 00 00 00 04 02 00 	addu $4,$0,$2
  4001e0:	02 00 00 00 d0 12 10 00 	jal 404b40 <exit>
	...

004001f0 <MAIN__>:
  4001f0:	43 00 00 00 c0 ff 1d 1d 	addiu $29,$29,-64
  4001f8:	a2 00 00 00 00 10 04 00 	lui $4,4096
  400200:	43 00 00 00 f8 25 04 04 	addiu $4,$4,9720
  400208:	34 00 00 00 30 00 1f 1d 	sw $31,48($29)
  400210:	34 00 00 00 2c 00 11 1d 	sw $17,44($29)
  400218:	34 00 00 00 28 00 10 1d 	sw $16,40($29)
  400220:	37 00 00 00 38 00 14 1d 	s.d $f20,56($29)
  400228:	02 00 00 00 38 13 10 00 	jal 404ce0 <s_wsle>
  400230:	43 00 00 00 00 80 04 1c 	addiu $4,$28,-32768
  400238:	43 00 00 00 04 80 05 1c 	addiu $5,$28,-32764
  400240:	a2 00 00 00 00 10 06 00 	lui $6,4096
  400248:	43 00 00 00 00 00 06 06 	addiu $6,$6,0
  400250:	43 00 00 00 17 00 07 00 	addiu $7,$0,23
  400258:	02 00 00 00 b0 13 10 00 	jal 404ec0 <do_lio>
  400260:	02 00 00 00 90 13 10 00 	jal 404e40 <e_wsle>
  400268:	a2 00 00 00 00 10 04 00 	lui $4,4096
  400270:	43 00 00 00 0c 26 04 04 	addiu $4,$4,9740
  400278:	02 00 00 00 38 13 10 00 	jal 404ce0 <s_wsle>
  400280:	43 00 00 00 00 80 04 1c 	addiu $4,$28,-32768
  400288:	43 00 00 00 04 80 05 1c 	addiu $5,$28,-32764
  400290:	43 00 00 00 10 80 06 1c 	addiu $6,$28,-32752
  400298:	43 00 00 00 01 00 07 00 	addiu $7,$0,1
  4002a0:	02 00 00 00 b0 13 10 00 	jal 404ec0 <do_lio>
  4002a8:	02 00 00 00 90 13 10 00 	jal 404e40 <e_wsle>
  4002b0:	02 00 00 00 08 02 10 00 	jal 400820 <inital_>
  4002b8:	a2 00 00 00 00 10 04 00 	lui $4,4096
  4002c0:	43 00 00 00 20 26 04 04 	addiu $4,$4,9760
  4002c8:	02 00 00 00 60 14 10 00 	jal 405180 <s_wsfe>
  4002d0:	43 00 00 00 04 80 04 1c 	addiu $4,$28,-32764
  4002d8:	a2 00 00 00 e1 10 10 00 	lui $16,4321
  4002e0:	43 00 00 00 04 2a 10 10 	addiu $16,$16,10756
  4002e8:	42 00 00 00 00 05 10 00 	addu $5,$0,$16
  4002f0:	43 00 00 00 04 00 06 00 	addiu $6,$0,4
  4002f8:	02 00 00 00 fc 20 10 00 	jal 4083f0 <do_fio>
  400300:	43 00 00 00 04 80 04 1c 	addiu $4,$28,-32764
  400308:	43 00 00 00 fc ff 05 10 	addiu $5,$16,-4
  400310:	43 00 00 00 04 00 06 00 	addiu $6,$0,4
  400318:	02 00 00 00 fc 20 10 00 	jal 4083f0 <do_fio>
  400320:	43 00 00 00 04 80 04 1c 	addiu $4,$28,-32764
  400328:	43 00 00 00 e4 ff 05 10 	addiu $5,$16,-28
  400330:	43 00 00 00 04 00 06 00 	addiu $6,$0,4
  400338:	02 00 00 00 fc 20 10 00 	jal 4083f0 <do_fio>
  400340:	43 00 00 00 04 80 04 1c 	addiu $4,$28,-32764
  400348:	43 00 00 00 e8 ff 05 10 	addiu $5,$16,-24
  400350:	43 00 00 00 04 00 06 00 	addiu $6,$0,4
  400358:	02 00 00 00 fc 20 10 00 	jal 4083f0 <do_fio>
  400360:	43 00 00 00 04 80 04 1c 	addiu $4,$28,-32764
  400368:	43 00 00 00 dc ff 05 10 	addiu $5,$16,-36
  400370:	43 00 00 00 04 00 06 00 	addiu $6,$0,4
  400378:	02 00 00 00 fc 20 10 00 	jal 4083f0 <do_fio>
  400380:	43 00 00 00 04 80 04 1c 	addiu $4,$28,-32764
  400388:	43 00 00 00 f0 ff 05 10 	addiu $5,$16,-16
  400390:	43 00 00 00 04 00 06 00 	addiu $6,$0,4
  400398:	02 00 00 00 fc 20 10 00 	jal 4083f0 <do_fio>
  4003a0:	43 00 00 00 04 80 04 1c 	addiu $4,$28,-32764
  4003a8:	43 00 00 00 f4 ff 05 10 	addiu $5,$16,-12
  4003b0:	43 00 00 00 04 00 06 00 	addiu $6,$0,4
  4003b8:	02 00 00 00 fc 20 10 00 	jal 4083f0 <do_fio>
  4003c0:	02 00 00 00 72 23 10 00 	jal 408dc8 <e_wsfe>
  4003c8:	28 00 00 00 fc ff 11 10 	lw $17,-4($16)
  4003d0:	28 00 00 00 00 00 10 10 	lw $16,0($16)
  4003d8:	5b 00 00 00 00 02 11 10 	slt $2,$16,$17
  4003e0:	05 00 00 00 02 00 00 02 	beq $2,$0,4003f0 <MAIN__+0x200>
  4003e8:	42 00 00 00 00 11 10 00 	addu $17,$0,$16
  4003f0:	a5 00 00 00 00 00 00 14 	mtc1 $0,$f20
  4003f8:	34 00 00 00 10 00 00 1d 	sw $0,16($29)
  400400:	28 00 00 00 10 00 02 1d 	lw $2,16($29)
  400408:	43 00 00 00 01 00 02 02 	addiu $2,$2,1
  400410:	34 00 00 00 10 00 02 1d 	sw $2,16($29)
  400418:	02 00 00 00 d4 07 10 00 	jal 401f50 <calc1_>
  400420:	02 00 00 00 30 0b 10 00 	jal 402cc0 <calc2_>
  400428:	a2 00 00 00 e1 10 03 00 	lui $3,4321
  400430:	28 00 00 00 fc 29 03 03 	lw $3,10748($3)
  400438:	28 00 00 00 10 00 02 1d 	lw $2,16($29)
  400440:	48 00 00 00 00 00 03 02 	div $0,$2,$3
  400448:	06 00 00 00 02 00 00 03 	bne $3,$0,400458 <MAIN__+0x268>
  400450:	a1 00 00 00 07 00 00 00 	break 
  400458:	43 00 00 00 ff ff 01 00 	addiu $1,$0,-1
  400460:	06 00 00 00 06 00 01 03 	bne $3,$1,400480 <MAIN__+0x290>
  400468:	a2 00 00 00 00 80 01 00 	lui $1,32768
  400470:	06 00 00 00 02 00 01 02 	bne $2,$1,400480 <MAIN__+0x290>
  400478:	a1 00 00 00 06 00 00 00 	break 
  400480:	4a 00 00 00 00 03 00 00 	mfhi $3
  400488:	a2 00 00 00 e1 10 01 00 	lui $1,4321
  400490:	2a 00 00 00 e0 29 00 01 	l.s $f0,10720($1)
  400498:	70 00 00 00 00 14 00 14 	add.s $f20,$f20,$f0
  4004a0:	06 00 00 00 b4 00 00 03 	bne $3,$0,400778 <MAIN__+0x588>
  4004a8:	2a 00 00 00 18 80 00 1c 	l.s $f0,-32744($28)
  4004b0:	76 00 00 00 00 00 00 14 	div.s $f0,$f20,$f0
  4004b8:	a2 00 00 00 00 10 04 00 	lui $4,4096
  4004c0:	43 00 00 00 34 26 04 04 	addiu $4,$4,9780
  4004c8:	36 00 00 00 14 00 00 1d 	s.s $f0,20($29)
  4004d0:	02 00 00 00 60 14 10 00 	jal 405180 <s_wsfe>
  4004d8:	43 00 00 00 04 80 04 1c 	addiu $4,$28,-32764
  4004e0:	43 00 00 00 10 00 05 1d 	addiu $5,$29,16
  4004e8:	43 00 00 00 04 00 06 00 	addiu $6,$0,4
  4004f0:	02 00 00 00 fc 20 10 00 	jal 4083f0 <do_fio>
  4004f8:	43 00 00 00 04 80 04 1c 	addiu $4,$28,-32764
  400500:	43 00 00 00 14 00 05 1d 	addiu $5,$29,20
  400508:	43 00 00 00 04 00 06 00 	addiu $6,$0,4
  400510:	02 00 00 00 fc 20 10 00 	jal 4083f0 <do_fio>
  400518:	02 00 00 00 72 23 10 00 	jal 408dc8 <e_wsfe>
  400520:	43 00 00 00 01 00 05 00 	addiu $5,$0,1
  400528:	a5 00 00 00 00 00 00 00 	mtc1 $0,$f0
  400530:	42 00 00 00 00 06 11 00 	addu $6,$0,$17
  400538:	36 00 00 00 18 00 00 1d 	s.s $f0,24($29)
  400540:	36 00 00 00 1c 00 00 1d 	s.s $f0,28($29)
  400548:	36 00 00 00 20 00 00 1d 	s.s $f0,32($29)
  400550:	07 00 00 00 68 00 00 06 	blez $6,4006f8 <MAIN__+0x508>
  400558:	42 00 00 00 00 07 06 00 	addu $7,$0,$6
  400560:	42 00 00 00 00 0b 00 00 	addu $11,$0,$0
  400568:	a2 00 00 00 51 10 0a 00 	lui $10,4177
  400570:	43 00 00 00 ac 91 0a 0a 	addiu $10,$10,-28244
  400578:	7a 00 00 00 00 04 00 00 	mov.s $f4,$f0
  400580:	a2 00 00 00 30 10 09 00 	lui $9,4144
  400588:	43 00 00 00 a4 71 09 09 	addiu $9,$9,29092
  400590:	a2 00 00 00 41 10 08 00 	lui $8,4161
  400598:	43 00 00 00 a8 81 08 08 	addiu $8,$8,-32344
  4005a0:	43 00 00 00 01 00 04 00 	addiu $4,$0,1
  4005a8:	06 00 00 00 4c 00 00 0b 	bne $11,$0,4006e0 <MAIN__+0x4f0>
  4005b0:	43 00 00 00 01 02 03 05 	addiu $3,$5,513
  4005b8:	55 00 00 00 02 02 03 00 	sll $2,$3,0x2
  4005c0:	42 00 00 00 00 02 0a 02 	addu $2,$2,$10
  4005c8:	2a 00 00 00 00 00 02 02 	l.s $f2,0($2)
  4005d0:	94 00 00 00 00 00 02 04 	c.le.s $f4,$f2
  4005d8:	0b 00 00 00 06 00 00 00 	bc1f 4005f8 <MAIN__+0x408>
  4005e0:	2a 00 00 00 18 00 00 1d 	l.s $f0,24($29)
  4005e8:	70 00 00 00 00 00 02 00 	add.s $f0,$f0,$f2
  4005f0:	01 00 00 00 82 01 10 00 	j 400608 <MAIN__+0x418>
  4005f8:	2a 00 00 00 18 00 00 1d 	l.s $f0,24($29)
  400600:	72 00 00 00 00 00 02 00 	sub.s $f0,$f0,$f2
  400608:	36 00 00 00 18 00 00 1d 	s.s $f0,24($29)
  400610:	55 00 00 00 02 02 03 00 	sll $2,$3,0x2
  400618:	42 00 00 00 00 02 09 02 	addu $2,$2,$9
  400620:	2a 00 00 00 00 00 02 02 	l.s $f2,0($2)
  400628:	94 00 00 00 00 00 02 04 	c.le.s $f4,$f2
  400630:	0b 00 00 00 06 00 00 00 	bc1f 400650 <MAIN__+0x460>
  400638:	2a 00 00 00 1c 00 00 1d 	l.s $f0,28($29)
  400640:	70 00 00 00 00 00 02 00 	add.s $f0,$f0,$f2
  400648:	01 00 00 00 98 01 10 00 	j 400660 <MAIN__+0x470>
  400650:	2a 00 00 00 1c 00 00 1d 	l.s $f0,28($29)
  400658:	72 00 00 00 00 00 02 00 	sub.s $f0,$f0,$f2
  400660:	36 00 00 00 1c 00 00 1d 	s.s $f0,28($29)
  400668:	55 00 00 00 02 02 03 00 	sll $2,$3,0x2
  400670:	42 00 00 00 00 02 08 02 	addu $2,$2,$8
  400678:	2a 00 00 00 00 00 02 02 	l.s $f2,0($2)
  400680:	94 00 00 00 00 00 02 04 	c.le.s $f4,$f2
  400688:	0b 00 00 00 06 00 00 00 	bc1f 4006a8 <MAIN__+0x4b8>
  400690:	2a 00 00 00 20 00 00 1d 	l.s $f0,32($29)
  400698:	70 00 00 00 00 00 02 00 	add.s $f0,$f0,$f2
  4006a0:	01 00 00 00 ae 01 10 00 	j 4006b8 <MAIN__+0x4c8>
  4006a8:	2a 00 00 00 20 00 00 1d 	l.s $f0,32($29)
  4006b0:	72 00 00 00 00 00 02 00 	sub.s $f0,$f0,$f2
  4006b8:	36 00 00 00 20 00 00 1d 	s.s $f0,32($29)
  4006c0:	43 00 00 00 01 02 03 03 	addiu $3,$3,513
  4006c8:	43 00 00 00 01 00 04 04 	addiu $4,$4,1
  4006d0:	5b 00 00 00 00 02 04 07 	slt $2,$7,$4
  4006d8:	05 00 00 00 b6 ff 00 02 	beq $2,$0,4005b8 <MAIN__+0x3c8>
  4006e0:	43 00 00 00 01 00 05 05 	addiu $5,$5,1
  4006e8:	5b 00 00 00 00 02 05 06 	slt $2,$6,$5
  4006f0:	05 00 00 00 aa ff 00 02 	beq $2,$0,4005a0 <MAIN__+0x3b0>
  4006f8:	a2 00 00 00 00 10 04 00 	lui $4,4096
  400700:	43 00 00 00 48 26 04 04 	addiu $4,$4,9800
  400708:	02 00 00 00 60 14 10 00 	jal 405180 <s_wsfe>
  400710:	43 00 00 00 04 80 04 1c 	addiu $4,$28,-32764
  400718:	43 00 00 00 18 00 05 1d 	addiu $5,$29,24
  400720:	43 00 00 00 04 00 06 00 	addiu $6,$0,4
  400728:	02 00 00 00 fc 20 10 00 	jal 4083f0 <do_fio>
  400730:	43 00 00 00 04 80 04 1c 	addiu $4,$28,-32764
  400738:	43 00 00 00 1c 00 05 1d 	addiu $5,$29,28
  400740:	43 00 00 00 04 00 06 00 	addiu $6,$0,4
  400748:	02 00 00 00 fc 20 10 00 	jal 4083f0 <do_fio>
  400750:	43 00 00 00 04 80 04 1c 	addiu $4,$28,-32764
  400758:	43 00 00 00 20 00 05 1d 	addiu $5,$29,32
  400760:	43 00 00 00 04 00 06 00 	addiu $6,$0,4
  400768:	02 00 00 00 fc 20 10 00 	jal 4083f0 <do_fio>
  400770:	02 00 00 00 72 23 10 00 	jal 408dc8 <e_wsfe>
  400778:	28 00 00 00 10 00 02 1d 	lw $2,16($29)
  400780:	a2 00 00 00 e1 10 03 00 	lui $3,4321
  400788:	28 00 00 00 f8 29 03 03 	lw $3,10744($3)
  400790:	5b 00 00 00 00 02 03 02 	slt $2,$2,$3
  400798:	06 00 00 00 06 00 00 02 	bne $2,$0,4007b8 <MAIN__+0x5c8>
  4007a0:	43 00 00 00 14 80 04 1c 	addiu $4,$28,-32748
  4007a8:	42 00 00 00 00 05 00 00 	addu $5,$0,$0
  4007b0:	02 00 00 00 94 23 10 00 	jal 408e50 <s_stop>
  4007b8:	28 00 00 00 10 00 02 1d 	lw $2,16($29)
  4007c0:	5c 00 00 00 02 00 02 02 	slti $2,$2,2
  4007c8:	05 00 00 00 04 00 00 02 	beq $2,$0,4007e0 <MAIN__+0x5f0>
  4007d0:	02 00 00 00 28 0e 10 00 	jal 4038a0 <calc3z_>
  4007d8:	01 00 00 00 00 01 10 00 	j 400400 <MAIN__+0x210>
  4007e0:	02 00 00 00 30 0f 10 00 	jal 403cc0 <calc3_>
  4007e8:	01 00 00 00 00 01 10 00 	j 400400 <MAIN__+0x210>
  4007f0:	28 00 00 00 30 00 1f 1d 	lw $31,48($29)
  4007f8:	28 00 00 00 2c 00 11 1d 	lw $17,44($29)
  400800:	28 00 00 00 28 00 10 1d 	lw $16,40($29)
  400808:	2b 00 00 00 38 00 14 1d 	l.d $f20,56($29)
  400810:	43 00 00 00 40 00 1d 1d 	addiu $29,$29,64
  400818:	03 00 00 00 00 00 00 1f 	jr $31

00400820 <inital_>:
  400820:	43 00 00 00 b0 ff 1d 1d 	addiu $29,$29,-80
  400828:	a2 00 00 00 00 10 04 00 	lui $4,4096
  400830:	43 00 00 00 5c 26 04 04 	addiu $4,$4,9820
  400838:	34 00 00 00 34 00 1f 1d 	sw $31,52($29)
  400840:	34 00 00 00 30 00 1e 1d 	sw $30,48($29)
  400848:	34 00 00 00 2c 00 17 1d 	sw $23,44($29)
  400850:	34 00 00 00 28 00 16 1d 	sw $22,40($29)
  400858:	34 00 00 00 24 00 15 1d 	sw $21,36($29)
  400860:	34 00 00 00 20 00 14 1d 	sw $20,32($29)
  400868:	34 00 00 00 1c 00 13 1d 	sw $19,28($29)
  400870:	34 00 00 00 18 00 12 1d 	sw $18,24($29)
  400878:	34 00 00 00 14 00 11 1d 	sw $17,20($29)
  400880:	34 00 00 00 10 00 10 1d 	sw $16,16($29)
  400888:	37 00 00 00 48 00 18 1d 	s.d $f24,72($29)
  400890:	37 00 00 00 40 00 16 1d 	s.d $f22,64($29)
  400898:	37 00 00 00 38 00 14 1d 	s.d $f20,56($29)
  4008a0:	02 00 00 00 22 2d 10 00 	jal 40b488 <s_rsle>
  4008a8:	43 00 00 00 08 80 04 1c 	addiu $4,$28,-32760
  4008b0:	43 00 00 00 04 80 05 1c 	addiu $5,$28,-32764
  4008b8:	a2 00 00 00 e1 10 10 00 	lui $16,4321
  4008c0:	43 00 00 00 e0 29 10 10 	addiu $16,$16,10720
  4008c8:	42 00 00 00 00 06 10 00 	addu $6,$0,$16
  4008d0:	43 00 00 00 04 00 07 00 	addiu $7,$0,4
  4008d8:	02 00 00 00 b0 13 10 00 	jal 404ec0 <do_lio>
  4008e0:	02 00 00 00 28 24 10 00 	jal 4090a0 <e_rsle>
  4008e8:	a2 00 00 00 00 10 04 00 	lui $4,4096
  4008f0:	43 00 00 00 70 26 04 04 	addiu $4,$4,9840
  4008f8:	02 00 00 00 22 2d 10 00 	jal 40b488 <s_rsle>
  400900:	43 00 00 00 08 80 04 1c 	addiu $4,$28,-32760
  400908:	43 00 00 00 04 80 05 1c 	addiu $5,$28,-32764
  400910:	43 00 00 00 08 00 06 10 	addiu $6,$16,8
  400918:	43 00 00 00 04 00 07 00 	addiu $7,$0,4
  400920:	02 00 00 00 b0 13 10 00 	jal 404ec0 <do_lio>
  400928:	02 00 00 00 28 24 10 00 	jal 4090a0 <e_rsle>
  400930:	a2 00 00 00 00 10 04 00 	lui $4,4096
  400938:	43 00 00 00 84 26 04 04 	addiu $4,$4,9860
  400940:	02 00 00 00 22 2d 10 00 	jal 40b488 <s_rsle>
  400948:	43 00 00 00 08 80 04 1c 	addiu $4,$28,-32760
  400950:	43 00 00 00 04 80 05 1c 	addiu $5,$28,-32764
  400958:	43 00 00 00 0c 00 06 10 	addiu $6,$16,12
  400960:	43 00 00 00 04 00 07 00 	addiu $7,$0,4
  400968:	02 00 00 00 b0 13 10 00 	jal 404ec0 <do_lio>
  400970:	02 00 00 00 28 24 10 00 	jal 4090a0 <e_rsle>
  400978:	a2 00 00 00 00 10 04 00 	lui $4,4096
  400980:	43 00 00 00 98 26 04 04 	addiu $4,$4,9880
  400988:	02 00 00 00 22 2d 10 00 	jal 40b488 <s_rsle>
  400990:	43 00 00 00 08 80 04 1c 	addiu $4,$28,-32760
  400998:	43 00 00 00 04 80 05 1c 	addiu $5,$28,-32764
  4009a0:	43 00 00 00 10 00 11 10 	addiu $17,$16,16
  4009a8:	42 00 00 00 00 06 11 00 	addu $6,$0,$17
  4009b0:	43 00 00 00 04 00 07 00 	addiu $7,$0,4
  4009b8:	02 00 00 00 b0 13 10 00 	jal 404ec0 <do_lio>
  4009c0:	02 00 00 00 28 24 10 00 	jal 4090a0 <e_rsle>
  4009c8:	a2 00 00 00 00 10 04 00 	lui $4,4096
  4009d0:	43 00 00 00 ac 26 04 04 	addiu $4,$4,9900
  4009d8:	02 00 00 00 22 2d 10 00 	jal 40b488 <s_rsle>
  4009e0:	43 00 00 00 08 80 04 1c 	addiu $4,$28,-32760
  4009e8:	43 00 00 00 04 80 05 1c 	addiu $5,$28,-32764
  4009f0:	43 00 00 00 14 00 06 10 	addiu $6,$16,20
  4009f8:	43 00 00 00 04 00 07 00 	addiu $7,$0,4
  400a00:	02 00 00 00 b0 13 10 00 	jal 404ec0 <do_lio>
  400a08:	02 00 00 00 28 24 10 00 	jal 4090a0 <e_rsle>
  400a10:	a2 00 00 00 00 10 04 00 	lui $4,4096
  400a18:	43 00 00 00 c0 26 04 04 	addiu $4,$4,9920
  400a20:	02 00 00 00 22 2d 10 00 	jal 40b488 <s_rsle>
  400a28:	43 00 00 00 0c 80 04 1c 	addiu $4,$28,-32756
  400a30:	43 00 00 00 04 80 05 1c 	addiu $5,$28,-32764
  400a38:	43 00 00 00 18 00 06 10 	addiu $6,$16,24
  400a40:	43 00 00 00 04 00 07 00 	addiu $7,$0,4
  400a48:	02 00 00 00 b0 13 10 00 	jal 404ec0 <do_lio>
  400a50:	02 00 00 00 28 24 10 00 	jal 4090a0 <e_rsle>
  400a58:	a2 00 00 00 00 10 04 00 	lui $4,4096
  400a60:	43 00 00 00 d4 26 04 04 	addiu $4,$4,9940
  400a68:	02 00 00 00 22 2d 10 00 	jal 40b488 <s_rsle>
  400a70:	43 00 00 00 0c 80 04 1c 	addiu $4,$28,-32756
  400a78:	43 00 00 00 04 80 05 1c 	addiu $5,$28,-32764
  400a80:	43 00 00 00 1c 00 06 10 	addiu $6,$16,28
  400a88:	43 00 00 00 04 00 07 00 	addiu $7,$0,4
  400a90:	02 00 00 00 b0 13 10 00 	jal 404ec0 <do_lio>
  400a98:	02 00 00 00 28 24 10 00 	jal 4090a0 <e_rsle>
  400aa0:	a2 00 00 00 00 10 04 00 	lui $4,4096
  400aa8:	43 00 00 00 e8 26 04 04 	addiu $4,$4,9960
  400ab0:	02 00 00 00 22 2d 10 00 	jal 40b488 <s_rsle>
  400ab8:	43 00 00 00 0c 80 04 1c 	addiu $4,$28,-32756
  400ac0:	43 00 00 00 04 80 05 1c 	addiu $5,$28,-32764
  400ac8:	43 00 00 00 20 00 06 10 	addiu $6,$16,32
  400ad0:	43 00 00 00 04 00 07 00 	addiu $7,$0,4
  400ad8:	02 00 00 00 b0 13 10 00 	jal 404ec0 <do_lio>
  400ae0:	02 00 00 00 28 24 10 00 	jal 4090a0 <e_rsle>
  400ae8:	a2 00 00 00 00 10 04 00 	lui $4,4096
  400af0:	43 00 00 00 fc 26 04 04 	addiu $4,$4,9980
  400af8:	02 00 00 00 22 2d 10 00 	jal 40b488 <s_rsle>
  400b00:	43 00 00 00 0c 80 04 1c 	addiu $4,$28,-32756
  400b08:	43 00 00 00 04 80 05 1c 	addiu $5,$28,-32764
  400b10:	43 00 00 00 24 00 06 10 	addiu $6,$16,36
  400b18:	43 00 00 00 04 00 07 00 	addiu $7,$0,4
  400b20:	02 00 00 00 b0 13 10 00 	jal 404ec0 <do_lio>
  400b28:	02 00 00 00 28 24 10 00 	jal 4090a0 <e_rsle>
  400b30:	2b 00 00 00 20 80 0c 1c 	l.d $f12,-32736($28)
  400b38:	28 00 00 00 24 00 03 10 	lw $3,36($16)
  400b40:	2a 00 00 00 08 00 02 10 	l.s $f2,8($16)
  400b48:	28 00 00 00 20 00 02 10 	lw $2,32($16)
  400b50:	a5 00 00 00 00 00 03 00 	mtc1 $3,$f0
  400b58:	81 00 00 00 00 00 00 00 	cvt.s.w $f0,$f0
  400b60:	74 00 00 00 00 00 02 00 	mul.s $f0,$f0,$f2
  400b68:	2a 00 00 00 00 00 04 10 	l.s $f4,0($16)
  400b70:	43 00 00 00 01 00 02 02 	addiu $2,$2,1
  400b78:	43 00 00 00 01 00 03 03 	addiu $3,$3,1
  400b80:	a2 00 00 00 e1 10 01 00 	lui $1,4321
  400b88:	36 00 00 00 e4 29 04 01 	s.s $f4,10724($1)
  400b90:	a2 00 00 00 e1 10 01 00 	lui $1,4321
  400b98:	34 00 00 00 08 2a 02 01 	sw $2,10760($1)
  400ba0:	a2 00 00 00 e1 10 01 00 	lui $1,4321
  400ba8:	34 00 00 00 0c 2a 03 01 	sw $3,10764($1)
  400bb0:	a2 00 00 00 e1 10 01 00 	lui $1,4321
  400bb8:	36 00 00 00 10 2a 00 01 	s.s $f0,10768($1)
  400bc0:	02 00 00 00 f4 2d 10 00 	jal 40b7d0 <atan>
  400bc8:	2b 00 00 00 28 80 02 1c 	l.d $f2,-32728($28)
  400bd0:	75 00 00 00 00 00 02 00 	mul.d $f0,$f0,$f2
  400bd8:	80 00 00 00 00 00 00 00 	cvt.s.d $f0,$f0
  400be0:	70 00 00 00 00 08 00 00 	add.s $f8,$f0,$f0
  400be8:	2a 00 00 00 20 00 0a 10 	l.s $f10,32($16)
  400bf0:	81 00 00 00 00 0a 00 0a 	cvt.s.w $f10,$f10
  400bf8:	76 00 00 00 00 0a 0a 08 	div.s $f10,$f8,$f10
  400c00:	74 00 00 00 00 04 00 00 	mul.s $f4,$f0,$f0
  400c08:	2a 00 00 00 10 00 02 10 	l.s $f2,16($16)
  400c10:	2a 00 00 00 24 00 06 10 	l.s $f6,36($16)
  400c18:	81 00 00 00 00 06 00 06 	cvt.s.w $f6,$f6
  400c20:	74 00 00 00 00 04 02 04 	mul.s $f4,$f4,$f2
  400c28:	76 00 00 00 00 06 06 08 	div.s $f6,$f8,$f6
  400c30:	74 00 00 00 00 04 02 04 	mul.s $f4,$f4,$f2
  400c38:	a2 00 00 00 e1 10 01 00 	lui $1,4321
  400c40:	2a 00 00 00 10 2a 02 01 	l.s $f2,10768($1)
  400c48:	74 00 00 00 00 02 02 02 	mul.s $f2,$f2,$f2
  400c50:	76 00 00 00 00 04 02 04 	div.s $f4,$f4,$f2
  400c58:	a2 00 00 00 e1 10 15 00 	lui $21,4321
  400c60:	28 00 00 00 0c 2a 15 15 	lw $21,10764($21)
  400c68:	43 00 00 00 01 00 13 00 	addiu $19,$0,1
  400c70:	a2 00 00 00 e1 10 01 00 	lui $1,4321
  400c78:	36 00 00 00 14 2a 00 01 	s.s $f0,10772($1)
  400c80:	a2 00 00 00 e1 10 01 00 	lui $1,4321
  400c88:	36 00 00 00 18 2a 08 01 	s.s $f8,10776($1)
  400c90:	a2 00 00 00 e1 10 01 00 	lui $1,4321
  400c98:	36 00 00 00 1c 2a 0a 01 	s.s $f10,10780($1)
  400ca0:	a2 00 00 00 e1 10 01 00 	lui $1,4321
  400ca8:	36 00 00 00 20 2a 06 01 	s.s $f6,10784($1)
  400cb0:	a2 00 00 00 e1 10 01 00 	lui $1,4321
  400cb8:	36 00 00 00 24 2a 04 01 	s.s $f4,10788($1)
  400cc0:	07 00 00 00 88 00 00 15 	blez $21,400ee8 <inital_+0x6c8>
  400cc8:	a2 00 00 00 d1 10 1e 00 	lui $30,4305
  400cd0:	43 00 00 00 cc 11 1e 1e 	addiu $30,$30,4556
  400cd8:	42 00 00 00 00 12 11 00 	addu $18,$0,$17
  400ce0:	2a 00 00 00 30 80 18 1c 	l.s $f24,-32720($28)
  400ce8:	43 00 00 00 01 02 16 00 	addiu $22,$0,513
  400cf0:	a2 00 00 00 e1 10 14 00 	lui $20,4321
  400cf8:	28 00 00 00 08 2a 14 14 	lw $20,10760($20)
  400d00:	43 00 00 00 01 00 11 00 	addiu $17,$0,1
  400d08:	07 00 00 00 6e 00 00 14 	blez $20,400ec8 <inital_+0x6a8>
  400d10:	42 00 00 00 00 17 16 00 	addu $23,$0,$22
  400d18:	a5 00 00 00 00 00 11 0c 	mtc1 $17,$f12
  400d20:	81 00 00 00 00 0c 00 0c 	cvt.s.w $f12,$f12
  400d28:	72 00 00 00 00 0c 18 0c 	sub.s $f12,$f12,$f24
  400d30:	2a 00 00 00 2c 00 00 12 	l.s $f0,44($18)
  400d38:	74 00 00 00 00 0c 00 0c 	mul.s $f12,$f12,$f0
  400d40:	2a 00 00 00 00 00 14 12 	l.s $f20,0($18)
  400d48:	42 00 00 00 00 10 11 17 	addu $16,$23,$17
  400d50:	55 00 00 00 02 10 10 00 	sll $16,$16,0x2
  400d58:	82 00 00 00 00 14 00 14 	cvt.d.s $f20,$f20
  400d60:	82 00 00 00 00 0c 00 0c 	cvt.d.s $f12,$f12
  400d68:	02 00 00 00 04 2e 10 00 	jal 40b810 <sin>
  400d70:	75 00 00 00 00 14 00 14 	mul.d $f20,$f20,$f0
  400d78:	a5 00 00 00 00 00 13 0c 	mtc1 $19,$f12
  400d80:	81 00 00 00 00 0c 00 0c 	cvt.s.w $f12,$f12
  400d88:	72 00 00 00 00 0c 18 0c 	sub.s $f12,$f12,$f24
  400d90:	2a 00 00 00 30 00 02 12 	l.s $f2,48($18)
  400d98:	74 00 00 00 00 0c 02 0c 	mul.s $f12,$f12,$f2
  400da0:	82 00 00 00 00 0c 00 0c 	cvt.d.s $f12,$f12
  400da8:	02 00 00 00 04 2e 10 00 	jal 40b810 <sin>
  400db0:	75 00 00 00 00 14 00 14 	mul.d $f20,$f20,$f0
  400db8:	42 00 00 00 00 02 1e 10 	addu $2,$16,$30
  400dc0:	80 00 00 00 00 14 00 14 	cvt.s.d $f20,$f20
  400dc8:	36 00 00 00 00 00 14 02 	s.s $f20,0($2)
  400dd0:	43 00 00 00 ff ff 02 11 	addiu $2,$17,-1
  400dd8:	a5 00 00 00 00 00 02 0c 	mtc1 $2,$f12
  400de0:	81 00 00 00 00 0c 00 0c 	cvt.s.w $f12,$f12
  400de8:	70 00 00 00 00 0c 0c 0c 	add.s $f12,$f12,$f12
  400df0:	2a 00 00 00 2c 00 00 12 	l.s $f0,44($18)
  400df8:	74 00 00 00 00 0c 00 0c 	mul.s $f12,$f12,$f0
  400e00:	2a 00 00 00 34 00 16 12 	l.s $f22,52($18)
  400e08:	a2 00 00 00 20 10 02 00 	lui $2,4128
  400e10:	43 00 00 00 a0 61 02 02 	addiu $2,$2,24992
  400e18:	42 00 00 00 00 10 02 10 	addu $16,$16,$2
  400e20:	82 00 00 00 00 16 00 16 	cvt.d.s $f22,$f22
  400e28:	82 00 00 00 00 0c 00 0c 	cvt.d.s $f12,$f12
  400e30:	02 00 00 00 00 2f 10 00 	jal 40bc00 <cos>
  400e38:	43 00 00 00 ff ff 02 13 	addiu $2,$19,-1
  400e40:	a5 00 00 00 00 00 02 0c 	mtc1 $2,$f12
  400e48:	81 00 00 00 00 0c 00 0c 	cvt.s.w $f12,$f12
  400e50:	70 00 00 00 00 0c 0c 0c 	add.s $f12,$f12,$f12
  400e58:	2a 00 00 00 30 00 02 12 	l.s $f2,48($18)
  400e60:	74 00 00 00 00 0c 02 0c 	mul.s $f12,$f12,$f2
  400e68:	7b 00 00 00 00 14 00 00 	mov.d $f20,$f0
  400e70:	82 00 00 00 00 0c 00 0c 	cvt.d.s $f12,$f12
  400e78:	02 00 00 00 00 2f 10 00 	jal 40bc00 <cos>
  400e80:	71 00 00 00 00 14 00 14 	add.d $f20,$f20,$f0
  400e88:	75 00 00 00 00 16 14 16 	mul.d $f22,$f22,$f20
  400e90:	2b 00 00 00 38 80 00 1c 	l.d $f0,-32712($28)
  400e98:	71 00 00 00 00 16 00 16 	add.d $f22,$f22,$f0
  400ea0:	43 00 00 00 01 00 11 11 	addiu $17,$17,1
  400ea8:	5b 00 00 00 00 02 11 14 	slt $2,$20,$17
  400eb0:	80 00 00 00 00 16 00 16 	cvt.s.d $f22,$f22
  400eb8:	36 00 00 00 00 00 16 10 	s.s $f22,0($16)
  400ec0:	05 00 00 00 94 ff 00 02 	beq $2,$0,400d18 <inital_+0x4f8>
  400ec8:	43 00 00 00 01 02 16 16 	addiu $22,$22,513
  400ed0:	43 00 00 00 01 00 13 13 	addiu $19,$19,1
  400ed8:	5b 00 00 00 00 02 13 15 	slt $2,$21,$19
  400ee0:	05 00 00 00 82 ff 00 02 	beq $2,$0,400cf0 <inital_+0x4d0>
  400ee8:	a2 00 00 00 e1 10 02 00 	lui $2,4321
  400ef0:	43 00 00 00 04 2a 02 02 	addiu $2,$2,10756
  400ef8:	28 00 00 00 00 00 14 02 	lw $20,0($2)
  400f00:	43 00 00 00 01 00 13 00 	addiu $19,$0,1
  400f08:	07 00 00 00 ba 00 00 14 	blez $20,4011f8 <inital_+0x9d8>
  400f10:	43 00 00 00 fc ff 0d 02 	addiu $13,$2,-4
  400f18:	a2 00 00 00 00 10 0c 00 	lui $12,4096
  400f20:	43 00 00 00 9c 41 0c 0c 	addiu $12,$12,16796
  400f28:	a2 00 00 00 d1 10 0b 00 	lui $11,4305
  400f30:	43 00 00 00 d4 19 0b 0b 	addiu $11,$11,6612
  400f38:	a2 00 00 00 d1 10 0a 00 	lui $10,4305
  400f40:	43 00 00 00 d0 11 0a 0a 	addiu $10,$10,4560
  400f48:	43 00 00 00 e8 ff 05 02 	addiu $5,$2,-24
  400f50:	a2 00 00 00 10 10 09 00 	lui $9,4112
  400f58:	43 00 00 00 a0 59 09 09 	addiu $9,$9,22944
  400f60:	43 00 00 00 01 02 06 00 	addiu $6,$0,513
  400f68:	28 00 00 00 00 00 15 0d 	lw $21,0($13)
  400f70:	43 00 00 00 01 00 11 00 	addiu $17,$0,1
  400f78:	07 00 00 00 96 00 00 15 	blez $21,4011d8 <inital_+0x9b8>
  400f80:	42 00 00 00 00 07 06 00 	addu $7,$0,$6
  400f88:	a2 00 00 00 d1 10 08 00 	lui $8,4305
  400f90:	43 00 00 00 d0 19 08 08 	addiu $8,$8,6608
  400f98:	43 00 00 00 01 00 02 15 	addiu $2,$21,1
  400fa0:	4f 00 00 00 01 00 03 15 	andi $3,$21,1
  400fa8:	5b 00 00 00 00 02 02 11 	slt $2,$17,$2
  400fb0:	05 00 00 00 02 00 00 02 	beq $2,$0,400fc0 <inital_+0x7a0>
  400fb8:	05 00 00 00 2e 00 00 03 	beq $3,$0,401078 <inital_+0x858>
  400fc0:	43 00 00 00 01 00 03 06 	addiu $3,$6,1
  400fc8:	55 00 00 00 02 03 03 00 	sll $3,$3,0x2
  400fd0:	42 00 00 00 00 04 0b 03 	addu $4,$3,$11
  400fd8:	42 00 00 00 00 02 0a 03 	addu $2,$3,$10
  400fe0:	2a 00 00 00 00 00 00 04 	l.s $f0,0($4)
  400fe8:	2a 00 00 00 00 00 02 02 	l.s $f2,0($2)
  400ff0:	72 00 00 00 00 00 02 00 	sub.s $f0,$f0,$f2
  400ff8:	2a 00 00 00 00 00 02 05 	l.s $f2,0($5)
  401000:	7c 00 00 00 00 00 00 00 	neg.s $f0,$f0
  401008:	76 00 00 00 00 00 02 00 	div.s $f0,$f0,$f2
  401010:	42 00 00 00 00 02 0c 03 	addu $2,$3,$12
  401018:	36 00 00 00 00 00 00 02 	s.s $f0,0($2)
  401020:	42 00 00 00 00 02 08 03 	addu $2,$3,$8
  401028:	2a 00 00 00 00 00 02 04 	l.s $f2,0($4)
  401030:	2a 00 00 00 00 00 00 02 	l.s $f0,0($2)
  401038:	72 00 00 00 00 02 00 02 	sub.s $f2,$f2,$f0
  401040:	2a 00 00 00 fc ff 00 05 	l.s $f0,-4($5)
  401048:	76 00 00 00 00 02 00 02 	div.s $f2,$f2,$f0
  401050:	43 00 00 00 02 00 11 00 	addiu $17,$0,2
  401058:	42 00 00 00 00 03 09 03 	addu $3,$3,$9
  401060:	5c 00 00 00 02 00 02 15 	slti $2,$21,2
  401068:	36 00 00 00 00 00 02 03 	s.s $f2,0($3)
  401070:	06 00 00 00 58 00 00 02 	bne $2,$0,4011d8 <inital_+0x9b8>
  401078:	42 00 00 00 00 03 11 07 	addu $3,$7,$17
  401080:	55 00 00 00 02 03 03 00 	sll $3,$3,0x2
  401088:	42 00 00 00 00 04 0b 03 	addu $4,$3,$11
  401090:	42 00 00 00 00 02 0a 03 	addu $2,$3,$10
  401098:	2a 00 00 00 00 00 00 04 	l.s $f0,0($4)
  4010a0:	2a 00 00 00 00 00 02 02 	l.s $f2,0($2)
  4010a8:	72 00 00 00 00 00 02 00 	sub.s $f0,$f0,$f2
  4010b0:	2a 00 00 00 00 00 02 05 	l.s $f2,0($5)
  4010b8:	7c 00 00 00 00 00 00 00 	neg.s $f0,$f0
  4010c0:	76 00 00 00 00 00 02 00 	div.s $f0,$f0,$f2
  4010c8:	42 00 00 00 00 02 0c 03 	addu $2,$3,$12
  4010d0:	36 00 00 00 00 00 00 02 	s.s $f0,0($2)
  4010d8:	42 00 00 00 00 02 08 03 	addu $2,$3,$8
  4010e0:	2a 00 00 00 00 00 00 04 	l.s $f0,0($4)
  4010e8:	2a 00 00 00 00 00 02 02 	l.s $f2,0($2)
  4010f0:	72 00 00 00 00 00 02 00 	sub.s $f0,$f0,$f2
  4010f8:	2a 00 00 00 fc ff 02 05 	l.s $f2,-4($5)
  401100:	76 00 00 00 00 00 02 00 	div.s $f0,$f0,$f2
  401108:	42 00 00 00 00 03 09 03 	addu $3,$3,$9
  401110:	36 00 00 00 00 00 00 03 	s.s $f0,0($3)
  401118:	43 00 00 00 01 00 03 11 	addiu $3,$17,1
  401120:	42 00 00 00 00 03 03 07 	addu $3,$7,$3
  401128:	55 00 00 00 02 03 03 00 	sll $3,$3,0x2
  401130:	42 00 00 00 00 04 0b 03 	addu $4,$3,$11
  401138:	42 00 00 00 00 02 0a 03 	addu $2,$3,$10
  401140:	2a 00 00 00 00 00 00 04 	l.s $f0,0($4)
  401148:	2a 00 00 00 00 00 02 02 	l.s $f2,0($2)
  401150:	72 00 00 00 00 00 02 00 	sub.s $f0,$f0,$f2
  401158:	2a 00 00 00 00 00 02 05 	l.s $f2,0($5)
  401160:	7c 00 00 00 00 00 00 00 	neg.s $f0,$f0
  401168:	76 00 00 00 00 00 02 00 	div.s $f0,$f0,$f2
  401170:	42 00 00 00 00 02 0c 03 	addu $2,$3,$12
  401178:	36 00 00 00 00 00 00 02 	s.s $f0,0($2)
  401180:	42 00 00 00 00 02 08 03 	addu $2,$3,$8
  401188:	2a 00 00 00 00 00 02 04 	l.s $f2,0($4)
  401190:	2a 00 00 00 00 00 00 02 	l.s $f0,0($2)
  401198:	72 00 00 00 00 02 00 02 	sub.s $f2,$f2,$f0
  4011a0:	2a 00 00 00 fc ff 00 05 	l.s $f0,-4($5)
  4011a8:	76 00 00 00 00 02 00 02 	div.s $f2,$f2,$f0
  4011b0:	43 00 00 00 02 00 11 11 	addiu $17,$17,2
  4011b8:	42 00 00 00 00 03 09 03 	addu $3,$3,$9
  4011c0:	5b 00 00 00 00 02 11 15 	slt $2,$21,$17
  4011c8:	36 00 00 00 00 00 02 03 	s.s $f2,0($3)
  4011d0:	05 00 00 00 a8 ff 00 02 	beq $2,$0,401078 <inital_+0x858>
  4011d8:	43 00 00 00 01 02 06 06 	addiu $6,$6,513
  4011e0:	43 00 00 00 01 00 13 13 	addiu $19,$19,1
  4011e8:	5b 00 00 00 00 02 13 14 	slt $2,$20,$19
  4011f0:	05 00 00 00 5c ff 00 02 	beq $2,$0,400f68 <inital_+0x748>
  4011f8:	a2 00 00 00 e1 10 15 00 	lui $21,4321
  401200:	28 00 00 00 04 2a 15 15 	lw $21,10756($21)
  401208:	43 00 00 00 01 00 13 00 	addiu $19,$0,1
  401210:	07 00 00 00 0a 01 00 15 	blez $21,401640 <inital_+0xe20>
  401218:	a2 00 00 00 10 10 09 00 	lui $9,4112
  401220:	43 00 00 00 a4 59 09 09 	addiu $9,$9,22948
  401228:	43 00 00 00 04 08 06 09 	addiu $6,$9,2052
  401230:	a2 00 00 00 00 10 08 00 	lui $8,4096
  401238:	43 00 00 00 9c 41 08 08 	addiu $8,$8,16796
  401240:	43 00 00 00 04 08 05 08 	addiu $5,$8,2052
  401248:	43 00 00 00 01 02 04 00 	addiu $4,$0,513
  401250:	43 00 00 00 01 00 02 15 	addiu $2,$21,1
  401258:	4f 00 00 00 03 00 03 15 	andi $3,$21,3
  401260:	5b 00 00 00 00 02 02 13 	slt $2,$19,$2
  401268:	05 00 00 00 4a 00 00 02 	beq $2,$0,401398 <inital_+0xb78>
  401270:	05 00 00 00 70 00 00 03 	beq $3,$0,401438 <inital_+0xc18>
  401278:	5c 00 00 00 02 00 02 03 	slti $2,$3,2
  401280:	06 00 00 00 44 00 00 02 	bne $2,$0,401398 <inital_+0xb78>
  401288:	5c 00 00 00 03 00 02 03 	slti $2,$3,3
  401290:	06 00 00 00 1c 00 00 02 	bne $2,$0,401308 <inital_+0xae8>
  401298:	a2 00 00 00 e1 10 02 00 	lui $2,4321
  4012a0:	28 00 00 00 00 2a 02 02 	lw $2,10752($2)
  4012a8:	43 00 00 00 08 10 06 09 	addiu $6,$9,4104
  4012b0:	43 00 00 00 08 10 05 08 	addiu $5,$8,4104
  4012b8:	2a 00 00 00 04 08 02 09 	l.s $f2,2052($9)
  4012c0:	43 00 00 00 02 04 04 00 	addiu $4,$0,1026
  4012c8:	43 00 00 00 01 02 02 02 	addiu $2,$2,513
  4012d0:	55 00 00 00 02 02 02 00 	sll $2,$2,0x2
  4012d8:	42 00 00 00 00 03 08 02 	addu $3,$2,$8
  4012e0:	2a 00 00 00 00 00 00 03 	l.s $f0,0($3)
  4012e8:	43 00 00 00 02 00 13 00 	addiu $19,$0,2
  4012f0:	42 00 00 00 00 02 09 02 	addu $2,$2,$9
  4012f8:	36 00 00 00 04 08 00 08 	s.s $f0,2052($8)
  401300:	36 00 00 00 00 00 02 02 	s.s $f2,0($2)
  401308:	a2 00 00 00 e1 10 02 00 	lui $2,4321
  401310:	28 00 00 00 00 2a 02 02 	lw $2,10752($2)
  401318:	42 00 00 00 00 02 02 04 	addu $2,$4,$2
  401320:	55 00 00 00 02 02 02 00 	sll $2,$2,0x2
  401328:	42 00 00 00 00 02 08 02 	addu $2,$2,$8
  401330:	2a 00 00 00 00 00 00 02 	l.s $f0,0($2)
  401338:	43 00 00 00 01 00 13 13 	addiu $19,$19,1
  401340:	36 00 00 00 00 00 00 05 	s.s $f0,0($5)
  401348:	2a 00 00 00 00 00 00 06 	l.s $f0,0($6)
  401350:	a2 00 00 00 e1 10 02 00 	lui $2,4321
  401358:	28 00 00 00 00 2a 02 02 	lw $2,10752($2)
  401360:	43 00 00 00 04 08 05 05 	addiu $5,$5,2052
  401368:	43 00 00 00 04 08 06 06 	addiu $6,$6,2052
  401370:	42 00 00 00 00 02 02 04 	addu $2,$4,$2
  401378:	43 00 00 00 01 02 04 04 	addiu $4,$4,513
  401380:	55 00 00 00 02 02 02 00 	sll $2,$2,0x2
  401388:	42 00 00 00 00 02 09 02 	addu $2,$2,$9
  401390:	36 00 00 00 00 00 00 02 	s.s $f0,0($2)
  401398:	a2 00 00 00 e1 10 02 00 	lui $2,4321
  4013a0:	28 00 00 00 00 2a 02 02 	lw $2,10752($2)
  4013a8:	42 00 00 00 00 02 02 04 	addu $2,$4,$2
  4013b0:	55 00 00 00 02 02 02 00 	sll $2,$2,0x2
  4013b8:	42 00 00 00 00 02 08 02 	addu $2,$2,$8
  4013c0:	2a 00 00 00 00 00 00 02 	l.s $f0,0($2)
  4013c8:	43 00 00 00 01 00 13 13 	addiu $19,$19,1
  4013d0:	5b 00 00 00 00 07 13 15 	slt $7,$21,$19
  4013d8:	36 00 00 00 00 00 00 05 	s.s $f0,0($5)
  4013e0:	2a 00 00 00 00 00 00 06 	l.s $f0,0($6)
  4013e8:	a2 00 00 00 e1 10 02 00 	lui $2,4321
  4013f0:	28 00 00 00 00 2a 02 02 	lw $2,10752($2)
  4013f8:	43 00 00 00 04 08 05 05 	addiu $5,$5,2052
  401400:	43 00 00 00 04 08 06 06 	addiu $6,$6,2052
  401408:	42 00 00 00 00 02 02 04 	addu $2,$4,$2
  401410:	43 00 00 00 01 02 04 04 	addiu $4,$4,513
  401418:	55 00 00 00 02 02 02 00 	sll $2,$2,0x2
  401420:	42 00 00 00 00 02 09 02 	addu $2,$2,$9
  401428:	36 00 00 00 00 00 00 02 	s.s $f0,0($2)
  401430:	06 00 00 00 82 00 00 07 	bne $7,$0,401640 <inital_+0xe20>
  401438:	a2 00 00 00 e1 10 02 00 	lui $2,4321
  401440:	28 00 00 00 00 2a 02 02 	lw $2,10752($2)
  401448:	42 00 00 00 00 02 02 04 	addu $2,$4,$2
  401450:	55 00 00 00 02 02 02 00 	sll $2,$2,0x2
  401458:	42 00 00 00 00 02 08 02 	addu $2,$2,$8
  401460:	2a 00 00 00 00 00 00 02 	l.s $f0,0($2)
  401468:	36 00 00 00 00 00 00 05 	s.s $f0,0($5)
  401470:	a2 00 00 00 e1 10 02 00 	lui $2,4321
  401478:	28 00 00 00 00 2a 02 02 	lw $2,10752($2)
  401480:	2a 00 00 00 00 00 00 06 	l.s $f0,0($6)
  401488:	42 00 00 00 00 02 02 04 	addu $2,$4,$2
  401490:	55 00 00 00 02 02 02 00 	sll $2,$2,0x2
  401498:	42 00 00 00 00 02 09 02 	addu $2,$2,$9
  4014a0:	36 00 00 00 00 00 00 02 	s.s $f0,0($2)
  4014a8:	a2 00 00 00 e1 10 02 00 	lui $2,4321
  4014b0:	28 00 00 00 00 2a 02 02 	lw $2,10752($2)
  4014b8:	43 00 00 00 01 02 03 04 	addiu $3,$4,513
  4014c0:	42 00 00 00 00 02 02 03 	addu $2,$3,$2
  4014c8:	55 00 00 00 02 02 02 00 	sll $2,$2,0x2
  4014d0:	42 00 00 00 00 02 08 02 	addu $2,$2,$8
  4014d8:	2a 00 00 00 00 00 00 02 	l.s $f0,0($2)
  4014e0:	36 00 00 00 04 08 00 05 	s.s $f0,2052($5)
  4014e8:	a2 00 00 00 e1 10 02 00 	lui $2,4321
  4014f0:	28 00 00 00 00 2a 02 02 	lw $2,10752($2)
  4014f8:	2a 00 00 00 04 08 00 06 	l.s $f0,2052($6)
  401500:	42 00 00 00 00 03 02 03 	addu $3,$3,$2
  401508:	55 00 00 00 02 03 03 00 	sll $3,$3,0x2
  401510:	42 00 00 00 00 03 09 03 	addu $3,$3,$9
  401518:	36 00 00 00 00 00 00 03 	s.s $f0,0($3)
  401520:	a2 00 00 00 e1 10 02 00 	lui $2,4321
  401528:	28 00 00 00 00 2a 02 02 	lw $2,10752($2)
  401530:	43 00 00 00 02 04 03 04 	addiu $3,$4,1026
  401538:	42 00 00 00 00 02 02 03 	addu $2,$3,$2
  401540:	55 00 00 00 02 02 02 00 	sll $2,$2,0x2
  401548:	42 00 00 00 00 02 08 02 	addu $2,$2,$8
  401550:	2a 00 00 00 00 00 00 02 	l.s $f0,0($2)
  401558:	36 00 00 00 08 10 00 05 	s.s $f0,4104($5)
  401560:	a2 00 00 00 e1 10 02 00 	lui $2,4321
  401568:	28 00 00 00 00 2a 02 02 	lw $2,10752($2)
  401570:	2a 00 00 00 08 10 00 06 	l.s $f0,4104($6)
  401578:	42 00 00 00 00 03 02 03 	addu $3,$3,$2
  401580:	55 00 00 00 02 03 03 00 	sll $3,$3,0x2
  401588:	42 00 00 00 00 03 09 03 	addu $3,$3,$9
  401590:	36 00 00 00 00 00 00 03 	s.s $f0,0($3)
  401598:	a2 00 00 00 e1 10 02 00 	lui $2,4321
  4015a0:	28 00 00 00 00 2a 02 02 	lw $2,10752($2)
  4015a8:	43 00 00 00 04 00 13 13 	addiu $19,$19,4
  4015b0:	43 00 00 00 03 06 03 04 	addiu $3,$4,1539
  4015b8:	42 00 00 00 00 02 02 03 	addu $2,$3,$2
  4015c0:	55 00 00 00 02 02 02 00 	sll $2,$2,0x2
  4015c8:	42 00 00 00 00 02 08 02 	addu $2,$2,$8
  4015d0:	2a 00 00 00 00 00 00 02 	l.s $f0,0($2)
  4015d8:	5b 00 00 00 00 07 13 15 	slt $7,$21,$19
  4015e0:	43 00 00 00 04 08 04 04 	addiu $4,$4,2052
  4015e8:	36 00 00 00 0c 18 00 05 	s.s $f0,6156($5)
  4015f0:	2a 00 00 00 0c 18 00 06 	l.s $f0,6156($6)
  4015f8:	a2 00 00 00 e1 10 02 00 	lui $2,4321
  401600:	28 00 00 00 00 2a 02 02 	lw $2,10752($2)
  401608:	43 00 00 00 10 20 05 05 	addiu $5,$5,8208
  401610:	43 00 00 00 10 20 06 06 	addiu $6,$6,8208
  401618:	42 00 00 00 00 03 02 03 	addu $3,$3,$2
  401620:	55 00 00 00 02 03 03 00 	sll $3,$3,0x2
  401628:	42 00 00 00 00 03 09 03 	addu $3,$3,$9
  401630:	36 00 00 00 00 00 00 03 	s.s $f0,0($3)
  401638:	05 00 00 00 7e ff 00 07 	beq $7,$0,401438 <inital_+0xc18>
  401640:	a2 00 00 00 e1 10 15 00 	lui $21,4321
  401648:	28 00 00 00 00 2a 15 15 	lw $21,10752($21)
  401650:	43 00 00 00 01 00 11 00 	addiu $17,$0,1
  401658:	07 00 00 00 44 01 00 15 	blez $21,401b70 <inital_+0x1350>
  401660:	a2 00 00 00 10 10 08 00 	lui $8,4112
  401668:	43 00 00 00 a0 59 08 08 	addiu $8,$8,22944
  401670:	43 00 00 00 04 00 05 08 	addiu $5,$8,4
  401678:	a2 00 00 00 00 10 07 00 	lui $7,4096
  401680:	43 00 00 00 a0 49 07 07 	addiu $7,$7,18848
  401688:	43 00 00 00 04 00 04 07 	addiu $4,$7,4
  401690:	43 00 00 00 01 00 02 15 	addiu $2,$21,1
  401698:	4f 00 00 00 03 00 03 15 	andi $3,$21,3
  4016a0:	5b 00 00 00 00 02 02 11 	slt $2,$17,$2
  4016a8:	05 00 00 00 5e 00 00 02 	beq $2,$0,401828 <inital_+0x1008>
  4016b0:	05 00 00 00 8a 00 00 03 	beq $3,$0,4018e0 <inital_+0x10c0>
  4016b8:	5c 00 00 00 02 00 02 03 	slti $2,$3,2
  4016c0:	06 00 00 00 58 00 00 02 	bne $2,$0,401828 <inital_+0x1008>
  4016c8:	5c 00 00 00 03 00 02 03 	slti $2,$3,3
  4016d0:	06 00 00 00 2a 00 00 02 	bne $2,$0,401780 <inital_+0xf60>
  4016d8:	a2 00 00 00 e1 10 03 00 	lui $3,4321
  4016e0:	28 00 00 00 04 2a 03 03 	lw $3,10756($3)
  4016e8:	2a 00 00 00 04 00 00 07 	l.s $f0,4($7)
  4016f0:	55 00 00 00 09 02 03 00 	sll $2,$3,0x9
  4016f8:	42 00 00 00 00 02 03 02 	addu $2,$2,$3
  401700:	43 00 00 00 01 00 02 02 	addiu $2,$2,1
  401708:	55 00 00 00 02 02 02 00 	sll $2,$2,0x2
  401710:	42 00 00 00 00 02 07 02 	addu $2,$2,$7
  401718:	36 00 00 00 00 00 00 02 	s.s $f0,0($2)
  401720:	a2 00 00 00 e1 10 03 00 	lui $3,4321
  401728:	28 00 00 00 04 2a 03 03 	lw $3,10756($3)
  401730:	43 00 00 00 04 00 05 05 	addiu $5,$5,4
  401738:	55 00 00 00 09 02 03 00 	sll $2,$3,0x9
  401740:	42 00 00 00 00 02 03 02 	addu $2,$2,$3
  401748:	43 00 00 00 01 00 02 02 	addiu $2,$2,1
  401750:	55 00 00 00 02 02 02 00 	sll $2,$2,0x2
  401758:	42 00 00 00 00 02 08 02 	addu $2,$2,$8
  401760:	2a 00 00 00 00 00 00 02 	l.s $f0,0($2)
  401768:	43 00 00 00 04 00 04 04 	addiu $4,$4,4
  401770:	43 00 00 00 02 00 11 00 	addiu $17,$0,2
  401778:	36 00 00 00 04 00 00 08 	s.s $f0,4($8)
  401780:	a2 00 00 00 e1 10 03 00 	lui $3,4321
  401788:	28 00 00 00 04 2a 03 03 	lw $3,10756($3)
  401790:	2a 00 00 00 00 00 00 04 	l.s $f0,0($4)
  401798:	55 00 00 00 09 02 03 00 	sll $2,$3,0x9
  4017a0:	42 00 00 00 00 02 03 02 	addu $2,$2,$3
  4017a8:	42 00 00 00 00 02 11 02 	addu $2,$2,$17
  4017b0:	55 00 00 00 02 02 02 00 	sll $2,$2,0x2
  4017b8:	42 00 00 00 00 02 07 02 	addu $2,$2,$7
  4017c0:	36 00 00 00 00 00 00 02 	s.s $f0,0($2)
  4017c8:	a2 00 00 00 e1 10 03 00 	lui $3,4321
  4017d0:	28 00 00 00 04 2a 03 03 	lw $3,10756($3)
  4017d8:	55 00 00 00 09 02 03 00 	sll $2,$3,0x9
  4017e0:	42 00 00 00 00 02 03 02 	addu $2,$2,$3
  4017e8:	42 00 00 00 00 02 11 02 	addu $2,$2,$17
  4017f0:	55 00 00 00 02 02 02 00 	sll $2,$2,0x2
  4017f8:	42 00 00 00 00 02 08 02 	addu $2,$2,$8
  401800:	2a 00 00 00 00 00 00 02 	l.s $f0,0($2)
  401808:	43 00 00 00 04 00 04 04 	addiu $4,$4,4
  401810:	43 00 00 00 01 00 11 11 	addiu $17,$17,1
  401818:	36 00 00 00 00 00 00 05 	s.s $f0,0($5)
  401820:	43 00 00 00 04 00 05 05 	addiu $5,$5,4
  401828:	a2 00 00 00 e1 10 03 00 	lui $3,4321
  401830:	28 00 00 00 04 2a 03 03 	lw $3,10756($3)
  401838:	2a 00 00 00 00 00 00 04 	l.s $f0,0($4)
  401840:	55 00 00 00 09 02 03 00 	sll $2,$3,0x9
  401848:	42 00 00 00 00 02 03 02 	addu $2,$2,$3
  401850:	42 00 00 00 00 02 11 02 	addu $2,$2,$17
  401858:	55 00 00 00 02 02 02 00 	sll $2,$2,0x2
  401860:	42 00 00 00 00 02 07 02 	addu $2,$2,$7
  401868:	36 00 00 00 00 00 00 02 	s.s $f0,0($2)
  401870:	a2 00 00 00 e1 10 03 00 	lui $3,4321
  401878:	28 00 00 00 04 2a 03 03 	lw $3,10756($3)
  401880:	55 00 00 00 09 02 03 00 	sll $2,$3,0x9
  401888:	42 00 00 00 00 02 03 02 	addu $2,$2,$3
  401890:	42 00 00 00 00 02 11 02 	addu $2,$2,$17
  401898:	55 00 00 00 02 02 02 00 	sll $2,$2,0x2
  4018a0:	42 00 00 00 00 02 08 02 	addu $2,$2,$8
  4018a8:	2a 00 00 00 00 00 00 02 	l.s $f0,0($2)
  4018b0:	43 00 00 00 04 00 04 04 	addiu $4,$4,4
  4018b8:	43 00 00 00 01 00 11 11 	addiu $17,$17,1
  4018c0:	5b 00 00 00 00 02 11 15 	slt $2,$21,$17
  4018c8:	36 00 00 00 00 00 00 05 	s.s $f0,0($5)
  4018d0:	43 00 00 00 04 00 05 05 	addiu $5,$5,4
  4018d8:	06 00 00 00 a4 00 00 02 	bne $2,$0,401b70 <inital_+0x1350>
  4018e0:	42 00 00 00 00 06 05 00 	addu $6,$0,$5
  4018e8:	42 00 00 00 00 05 04 00 	addu $5,$0,$4
  4018f0:	a2 00 00 00 e1 10 03 00 	lui $3,4321
  4018f8:	28 00 00 00 04 2a 03 03 	lw $3,10756($3)
  401900:	2a 00 00 00 00 00 00 05 	l.s $f0,0($5)
  401908:	55 00 00 00 09 02 03 00 	sll $2,$3,0x9
  401910:	42 00 00 00 00 02 03 02 	addu $2,$2,$3
  401918:	42 00 00 00 00 02 11 02 	addu $2,$2,$17
  401920:	55 00 00 00 02 02 02 00 	sll $2,$2,0x2
  401928:	42 00 00 00 00 02 07 02 	addu $2,$2,$7
  401930:	36 00 00 00 00 00 00 02 	s.s $f0,0($2)
  401938:	a2 00 00 00 e1 10 03 00 	lui $3,4321
  401940:	28 00 00 00 04 2a 03 03 	lw $3,10756($3)
  401948:	55 00 00 00 09 02 03 00 	sll $2,$3,0x9
  401950:	42 00 00 00 00 02 03 02 	addu $2,$2,$3
  401958:	42 00 00 00 00 02 11 02 	addu $2,$2,$17
  401960:	55 00 00 00 02 02 02 00 	sll $2,$2,0x2
  401968:	42 00 00 00 00 02 08 02 	addu $2,$2,$8
  401970:	2a 00 00 00 00 00 00 02 	l.s $f0,0($2)
  401978:	36 00 00 00 00 00 00 06 	s.s $f0,0($6)
  401980:	a2 00 00 00 e1 10 03 00 	lui $3,4321
  401988:	28 00 00 00 04 2a 03 03 	lw $3,10756($3)
  401990:	43 00 00 00 01 00 04 11 	addiu $4,$17,1
  401998:	2a 00 00 00 04 00 00 05 	l.s $f0,4($5)
  4019a0:	55 00 00 00 09 02 03 00 	sll $2,$3,0x9
  4019a8:	42 00 00 00 00 02 03 02 	addu $2,$2,$3
  4019b0:	42 00 00 00 00 02 04 02 	addu $2,$2,$4
  4019b8:	55 00 00 00 02 02 02 00 	sll $2,$2,0x2
  4019c0:	42 00 00 00 00 02 07 02 	addu $2,$2,$7
  4019c8:	36 00 00 00 00 00 00 02 	s.s $f0,0($2)
  4019d0:	a2 00 00 00 e1 10 03 00 	lui $3,4321
  4019d8:	28 00 00 00 04 2a 03 03 	lw $3,10756($3)
  4019e0:	55 00 00 00 09 02 03 00 	sll $2,$3,0x9
  4019e8:	42 00 00 00 00 02 03 02 	addu $2,$2,$3
  4019f0:	42 00 00 00 00 02 04 02 	addu $2,$2,$4
  4019f8:	55 00 00 00 02 02 02 00 	sll $2,$2,0x2
  401a00:	42 00 00 00 00 02 08 02 	addu $2,$2,$8
  401a08:	2a 00 00 00 00 00 00 02 	l.s $f0,0($2)
  401a10:	36 00 00 00 04 00 00 06 	s.s $f0,4($6)
  401a18:	a2 00 00 00 e1 10 03 00 	lui $3,4321
  401a20:	28 00 00 00 04 2a 03 03 	lw $3,10756($3)
  401a28:	43 00 00 00 02 00 04 11 	addiu $4,$17,2
  401a30:	2a 00 00 00 08 00 00 05 	l.s $f0,8($5)
  401a38:	55 00 00 00 09 02 03 00 	sll $2,$3,0x9
  401a40:	42 00 00 00 00 02 03 02 	addu $2,$2,$3
  401a48:	42 00 00 00 00 02 04 02 	addu $2,$2,$4
  401a50:	55 00 00 00 02 02 02 00 	sll $2,$2,0x2
  401a58:	42 00 00 00 00 02 07 02 	addu $2,$2,$7
  401a60:	36 00 00 00 00 00 00 02 	s.s $f0,0($2)
  401a68:	a2 00 00 00 e1 10 03 00 	lui $3,4321
  401a70:	28 00 00 00 04 2a 03 03 	lw $3,10756($3)
  401a78:	55 00 00 00 09 02 03 00 	sll $2,$3,0x9
  401a80:	42 00 00 00 00 02 03 02 	addu $2,$2,$3
  401a88:	42 00 00 00 00 02 04 02 	addu $2,$2,$4
  401a90:	55 00 00 00 02 02 02 00 	sll $2,$2,0x2
  401a98:	42 00 00 00 00 02 08 02 	addu $2,$2,$8
  401aa0:	2a 00 00 00 00 00 00 02 	l.s $f0,0($2)
  401aa8:	36 00 00 00 08 00 00 06 	s.s $f0,8($6)
  401ab0:	a2 00 00 00 e1 10 03 00 	lui $3,4321
  401ab8:	28 00 00 00 04 2a 03 03 	lw $3,10756($3)
  401ac0:	43 00 00 00 03 00 04 11 	addiu $4,$17,3
  401ac8:	2a 00 00 00 0c 00 00 05 	l.s $f0,12($5)
  401ad0:	55 00 00 00 09 02 03 00 	sll $2,$3,0x9
  401ad8:	42 00 00 00 00 02 03 02 	addu $2,$2,$3
  401ae0:	42 00 00 00 00 02 04 02 	addu $2,$2,$4
  401ae8:	55 00 00 00 02 02 02 00 	sll $2,$2,0x2
  401af0:	42 00 00 00 00 02 07 02 	addu $2,$2,$7
  401af8:	36 00 00 00 00 00 00 02 	s.s $f0,0($2)
  401b00:	a2 00 00 00 e1 10 03 00 	lui $3,4321
  401b08:	28 00 00 00 04 2a 03 03 	lw $3,10756($3)
  401b10:	55 00 00 00 09 02 03 00 	sll $2,$3,0x9
  401b18:	42 00 00 00 00 02 03 02 	addu $2,$2,$3
  401b20:	42 00 00 00 00 02 04 02 	addu $2,$2,$4
  401b28:	55 00 00 00 02 02 02 00 	sll $2,$2,0x2
  401b30:	42 00 00 00 00 02 08 02 	addu $2,$2,$8
  401b38:	2a 00 00 00 00 00 00 02 	l.s $f0,0($2)
  401b40:	43 00 00 00 04 00 11 11 	addiu $17,$17,4
  401b48:	43 00 00 00 10 00 05 05 	addiu $5,$5,16
  401b50:	5b 00 00 00 00 02 11 15 	slt $2,$21,$17
  401b58:	36 00 00 00 0c 00 00 06 	s.s $f0,12($6)
  401b60:	43 00 00 00 10 00 06 06 	addiu $6,$6,16
  401b68:	05 00 00 00 60 ff 00 02 	beq $2,$0,4018f0 <inital_+0x10d0>
  401b70:	a2 00 00 00 e1 10 04 00 	lui $4,4321
  401b78:	28 00 00 00 04 2a 04 04 	lw $4,10756($4)
  401b80:	a2 00 00 00 e1 10 03 00 	lui $3,4321
  401b88:	28 00 00 00 00 2a 03 03 	lw $3,10752($3)
  401b90:	a2 00 00 00 00 10 06 00 	lui $6,4096
  401b98:	43 00 00 00 a0 49 06 06 	addiu $6,$6,18848
  401ba0:	55 00 00 00 09 02 04 00 	sll $2,$4,0x9
  401ba8:	42 00 00 00 00 02 04 02 	addu $2,$2,$4
  401bb0:	55 00 00 00 02 03 03 00 	sll $3,$3,0x2
  401bb8:	42 00 00 00 00 03 06 03 	addu $3,$3,$6
  401bc0:	2a 00 00 00 00 00 00 03 	l.s $f0,0($3)
  401bc8:	55 00 00 00 02 02 02 00 	sll $2,$2,0x2
  401bd0:	42 00 00 00 00 02 06 02 	addu $2,$2,$6
  401bd8:	36 00 00 00 00 00 00 02 	s.s $f0,0($2)
  401be0:	a2 00 00 00 e1 10 04 00 	lui $4,4321
  401be8:	28 00 00 00 04 2a 04 04 	lw $4,10756($4)
  401bf0:	a2 00 00 00 10 10 05 00 	lui $5,4112
  401bf8:	43 00 00 00 a4 59 05 05 	addiu $5,$5,22948
  401c00:	a2 00 00 00 e1 10 03 00 	lui $3,4321
  401c08:	28 00 00 00 00 2a 03 03 	lw $3,10752($3)
  401c10:	55 00 00 00 09 02 04 00 	sll $2,$4,0x9
  401c18:	42 00 00 00 00 02 04 02 	addu $2,$2,$4
  401c20:	55 00 00 00 02 02 02 00 	sll $2,$2,0x2
  401c28:	42 00 00 00 00 02 05 02 	addu $2,$2,$5
  401c30:	2a 00 00 00 00 00 00 02 	l.s $f0,0($2)
  401c38:	55 00 00 00 02 03 03 00 	sll $3,$3,0x2
  401c40:	42 00 00 00 00 03 05 03 	addu $3,$3,$5
  401c48:	a2 00 00 00 e1 10 02 00 	lui $2,4321
  401c50:	43 00 00 00 0c 2a 02 02 	addiu $2,$2,10764
  401c58:	36 00 00 00 00 00 00 03 	s.s $f0,0($3)
  401c60:	28 00 00 00 00 00 15 02 	lw $21,0($2)
  401c68:	43 00 00 00 01 00 13 00 	addiu $19,$0,1
  401c70:	07 00 00 00 96 00 00 15 	blez $21,401ed0 <inital_+0x16b0>
  401c78:	43 00 00 00 fc ff 0d 02 	addiu $13,$2,-4
  401c80:	a2 00 00 00 61 10 0c 00 	lui $12,4193
  401c88:	43 00 00 00 b0 a1 0c 0c 	addiu $12,$12,-24144
  401c90:	43 00 00 00 f8 f7 0b 06 	addiu $11,$6,-2056
  401c98:	a2 00 00 00 71 10 0a 00 	lui $10,4209
  401ca0:	43 00 00 00 b4 b1 0a 0a 	addiu $10,$10,-20044
  401ca8:	a2 00 00 00 10 10 09 00 	lui $9,4112
  401cb0:	43 00 00 00 9c 51 09 09 	addiu $9,$9,20892
  401cb8:	a2 00 00 00 81 10 08 00 	lui $8,4225
  401cc0:	43 00 00 00 b8 c1 08 08 	addiu $8,$8,-15944
  401cc8:	43 00 00 00 01 02 06 00 	addiu $6,$0,513
  401cd0:	28 00 00 00 00 00 14 0d 	lw $20,0($13)
  401cd8:	43 00 00 00 01 00 11 00 	addiu $17,$0,1
  401ce0:	07 00 00 00 72 00 00 14 	blez $20,401eb0 <inital_+0x1690>
  401ce8:	42 00 00 00 00 05 06 00 	addu $5,$0,$6
  401cf0:	a2 00 00 00 20 10 07 00 	lui $7,4128
  401cf8:	43 00 00 00 a0 61 07 07 	addiu $7,$7,24992
  401d00:	43 00 00 00 01 00 02 14 	addiu $2,$20,1
  401d08:	4f 00 00 00 01 00 03 14 	andi $3,$20,1
  401d10:	5b 00 00 00 00 02 02 11 	slt $2,$17,$2
  401d18:	05 00 00 00 02 00 00 02 	beq $2,$0,401d28 <inital_+0x1508>
  401d20:	05 00 00 00 22 00 00 03 	beq $3,$0,401db0 <inital_+0x1590>
  401d28:	43 00 00 00 01 00 03 06 	addiu $3,$6,1
  401d30:	55 00 00 00 02 03 03 00 	sll $3,$3,0x2
  401d38:	42 00 00 00 00 02 0b 03 	addu $2,$3,$11
  401d40:	2a 00 00 00 00 00 00 02 	l.s $f0,0($2)
  401d48:	42 00 00 00 00 02 0c 03 	addu $2,$3,$12
  401d50:	36 00 00 00 00 00 00 02 	s.s $f0,0($2)
  401d58:	42 00 00 00 00 02 09 03 	addu $2,$3,$9
  401d60:	2a 00 00 00 00 00 00 02 	l.s $f0,0($2)
  401d68:	43 00 00 00 02 00 11 00 	addiu $17,$0,2
  401d70:	42 00 00 00 00 02 0a 03 	addu $2,$3,$10
  401d78:	36 00 00 00 00 00 00 02 	s.s $f0,0($2)
  401d80:	42 00 00 00 00 02 07 03 	addu $2,$3,$7
  401d88:	2a 00 00 00 00 00 00 02 	l.s $f0,0($2)
  401d90:	5c 00 00 00 02 00 04 14 	slti $4,$20,2
  401d98:	42 00 00 00 00 03 08 03 	addu $3,$3,$8
  401da0:	36 00 00 00 00 00 00 03 	s.s $f0,0($3)
  401da8:	06 00 00 00 40 00 00 04 	bne $4,$0,401eb0 <inital_+0x1690>
  401db0:	42 00 00 00 00 02 11 05 	addu $2,$5,$17
  401db8:	55 00 00 00 02 02 02 00 	sll $2,$2,0x2
  401dc0:	42 00 00 00 00 03 0b 02 	addu $3,$2,$11
  401dc8:	2a 00 00 00 00 00 00 03 	l.s $f0,0($3)
  401dd0:	42 00 00 00 00 03 0c 02 	addu $3,$2,$12
  401dd8:	36 00 00 00 00 00 00 03 	s.s $f0,0($3)
  401de0:	42 00 00 00 00 03 09 02 	addu $3,$2,$9
  401de8:	2a 00 00 00 00 00 00 03 	l.s $f0,0($3)
  401df0:	42 00 00 00 00 03 0a 02 	addu $3,$2,$10
  401df8:	36 00 00 00 00 00 00 03 	s.s $f0,0($3)
  401e00:	42 00 00 00 00 03 07 02 	addu $3,$2,$7
  401e08:	2a 00 00 00 00 00 00 03 	l.s $f0,0($3)
  401e10:	42 00 00 00 00 02 08 02 	addu $2,$2,$8
  401e18:	36 00 00 00 00 00 00 02 	s.s $f0,0($2)
  401e20:	43 00 00 00 01 00 02 11 	addiu $2,$17,1
  401e28:	42 00 00 00 00 02 02 05 	addu $2,$5,$2
  401e30:	55 00 00 00 02 02 02 00 	sll $2,$2,0x2
  401e38:	42 00 00 00 00 03 0b 02 	addu $3,$2,$11
  401e40:	2a 00 00 00 00 00 00 03 	l.s $f0,0($3)
  401e48:	42 00 00 00 00 03 0c 02 	addu $3,$2,$12
  401e50:	36 00 00 00 00 00 00 03 	s.s $f0,0($3)
  401e58:	42 00 00 00 00 03 09 02 	addu $3,$2,$9
  401e60:	2a 00 00 00 00 00 00 03 	l.s $f0,0($3)
  401e68:	43 00 00 00 02 00 11 11 	addiu $17,$17,2
  401e70:	42 00 00 00 00 03 0a 02 	addu $3,$2,$10
  401e78:	36 00 00 00 00 00 00 03 	s.s $f0,0($3)
  401e80:	42 00 00 00 00 03 07 02 	addu $3,$2,$7
  401e88:	2a 00 00 00 00 00 00 03 	l.s $f0,0($3)
  401e90:	5b 00 00 00 00 04 11 14 	slt $4,$20,$17
  401e98:	42 00 00 00 00 02 08 02 	addu $2,$2,$8
  401ea0:	36 00 00 00 00 00 00 02 	s.s $f0,0($2)
  401ea8:	05 00 00 00 c0 ff 00 04 	beq $4,$0,401db0 <inital_+0x1590>
  401eb0:	43 00 00 00 01 02 06 06 	addiu $6,$6,513
  401eb8:	43 00 00 00 01 00 13 13 	addiu $19,$19,1
  401ec0:	5b 00 00 00 00 02 13 15 	slt $2,$21,$19
  401ec8:	05 00 00 00 80 ff 00 02 	beq $2,$0,401cd0 <inital_+0x14b0>
  401ed0:	42 00 00 00 00 02 00 00 	addu $2,$0,$0
  401ed8:	28 00 00 00 34 00 1f 1d 	lw $31,52($29)
  401ee0:	28 00 00 00 30 00 1e 1d 	lw $30,48($29)
  401ee8:	28 00 00 00 2c 00 17 1d 	lw $23,44($29)
  401ef0:	28 00 00 00 28 00 16 1d 	lw $22,40($29)
  401ef8:	28 00 00 00 24 00 15 1d 	lw $21,36($29)
  401f00:	28 00 00 00 20 00 14 1d 	lw $20,32($29)
  401f08:	28 00 00 00 1c 00 13 1d 	lw $19,28($29)
  401f10:	28 00 00 00 18 00 12 1d 	lw $18,24($29)
  401f18:	28 00 00 00 14 00 11 1d 	lw $17,20($29)
  401f20:	28 00 00 00 10 00 10 1d 	lw $16,16($29)
  401f28:	2b 00 00 00 48 00 18 1d 	l.d $f24,72($29)
  401f30:	2b 00 00 00 40 00 16 1d 	l.d $f22,64($29)
  401f38:	2b 00 00 00 38 00 14 1d 	l.d $f20,56($29)
  401f40:	43 00 00 00 50 00 1d 1d 	addiu $29,$29,80
  401f48:	03 00 00 00 00 00 00 1f 	jr $31

00401f50 <calc1_>:
  401f50:	43 00 00 00 d0 ff 1d 1d 	addiu $29,$29,-48
  401f58:	a2 00 00 00 e1 10 02 00 	lui $2,4321
  401f60:	43 00 00 00 e8 29 02 02 	addiu $2,$2,10728
  401f68:	34 00 00 00 2c 00 17 1d 	sw $23,44($29)
  401f70:	34 00 00 00 28 00 16 1d 	sw $22,40($29)
  401f78:	34 00 00 00 24 00 15 1d 	sw $21,36($29)
  401f80:	34 00 00 00 20 00 14 1d 	sw $20,32($29)
  401f88:	34 00 00 00 1c 00 13 1d 	sw $19,28($29)
  401f90:	34 00 00 00 18 00 12 1d 	sw $18,24($29)
  401f98:	34 00 00 00 14 00 11 1d 	sw $17,20($29)
  401fa0:	34 00 00 00 10 00 10 1d 	sw $16,16($29)
  401fa8:	2a 00 00 00 00 00 00 02 	l.s $f0,0($2)
  401fb0:	2a 00 00 00 40 80 02 1c 	l.s $f2,-32704($28)
  401fb8:	76 00 00 00 00 0a 00 02 	div.s $f10,$f2,$f0
  401fc0:	a2 00 00 00 e1 10 01 00 	lui $1,4321
  401fc8:	2a 00 00 00 ec 29 00 01 	l.s $f0,10732($1)
  401fd0:	76 00 00 00 00 08 00 02 	div.s $f8,$f2,$f0
  401fd8:	a2 00 00 00 e1 10 0f 00 	lui $15,4321
  401fe0:	28 00 00 00 04 2a 0f 0f 	lw $15,10756($15)
  401fe8:	43 00 00 00 01 00 0a 00 	addiu $10,$0,1
  401ff0:	07 00 00 00 ca 00 00 0f 	blez $15,402320 <calc1_+0x3d0>
  401ff8:	43 00 00 00 18 00 17 02 	addiu $23,$2,24
  402000:	a2 00 00 00 91 10 16 00 	lui $22,4241
  402008:	43 00 00 00 c0 d1 16 16 	addiu $22,$22,-11840
  402010:	a2 00 00 00 20 10 15 00 	lui $21,4128
  402018:	43 00 00 00 a4 61 15 15 	addiu $21,$21,24996
  402020:	a2 00 00 00 20 10 14 00 	lui $20,4128
  402028:	43 00 00 00 a0 61 14 14 	addiu $20,$20,24992
  402030:	2a 00 00 00 44 80 0c 1c 	l.s $f12,-32700($28)
  402038:	a2 00 00 00 00 10 13 00 	lui $19,4096
  402040:	43 00 00 00 9c 41 13 13 	addiu $19,$19,16796
  402048:	a2 00 00 00 a1 10 12 00 	lui $18,4257
  402050:	43 00 00 00 c4 e9 12 12 	addiu $18,$18,-5692
  402058:	43 00 00 00 01 02 0c 00 	addiu $12,$0,513
  402060:	28 00 00 00 00 00 0b 17 	lw $11,0($23)
  402068:	43 00 00 00 01 00 09 00 	addiu $9,$0,1
  402070:	07 00 00 00 a2 00 00 0b 	blez $11,402300 <calc1_+0x3b0>
  402078:	42 00 00 00 00 0d 0c 00 	addu $13,$0,$12
  402080:	a2 00 00 00 20 10 11 00 	lui $17,4128
  402088:	43 00 00 00 a4 69 11 11 	addiu $17,$17,27044
  402090:	a2 00 00 00 10 10 10 00 	lui $16,4112
  402098:	43 00 00 00 a0 59 10 10 	addiu $16,$16,22944
  4020a0:	a2 00 00 00 b1 10 19 00 	lui $25,4273
  4020a8:	43 00 00 00 cc f9 19 19 	addiu $25,$25,-1588
  4020b0:	a2 00 00 00 00 10 0e 00 	lui $14,4096
  4020b8:	43 00 00 00 a0 49 0e 0e 	addiu $14,$14,18848
  4020c0:	43 00 00 00 f8 f7 18 0e 	addiu $24,$14,-2056
  4020c8:	42 00 00 00 00 03 09 0d 	addu $3,$13,$9
  4020d0:	55 00 00 00 02 03 03 00 	sll $3,$3,0x2
  4020d8:	42 00 00 00 00 07 15 03 	addu $7,$3,$21
  4020e0:	42 00 00 00 00 08 14 03 	addu $8,$3,$20
  4020e8:	2a 00 00 00 00 00 00 07 	l.s $f0,0($7)
  4020f0:	2a 00 00 00 00 00 02 08 	l.s $f2,0($8)
  4020f8:	70 00 00 00 00 00 02 00 	add.s $f0,$f0,$f2
  402100:	74 00 00 00 00 00 0c 00 	mul.s $f0,$f0,$f12
  402108:	42 00 00 00 00 06 13 03 	addu $6,$3,$19
  402110:	2a 00 00 00 00 00 02 06 	l.s $f2,0($6)
  402118:	74 00 00 00 00 00 02 00 	mul.s $f0,$f0,$f2
  402120:	42 00 00 00 00 02 16 03 	addu $2,$3,$22
  402128:	42 00 00 00 00 05 11 03 	addu $5,$3,$17
  402130:	36 00 00 00 00 00 00 02 	s.s $f0,0($2)
  402138:	2a 00 00 00 00 00 00 05 	l.s $f0,0($5)
  402140:	2a 00 00 00 00 00 02 08 	l.s $f2,0($8)
  402148:	70 00 00 00 00 00 02 00 	add.s $f0,$f0,$f2
  402150:	74 00 00 00 00 00 0c 00 	mul.s $f0,$f0,$f12
  402158:	42 00 00 00 00 04 10 03 	addu $4,$3,$16
  402160:	2a 00 00 00 00 00 02 04 	l.s $f2,0($4)
  402168:	74 00 00 00 00 00 02 00 	mul.s $f0,$f0,$f2
  402170:	42 00 00 00 00 02 12 03 	addu $2,$3,$18
  402178:	36 00 00 00 00 00 00 02 	s.s $f0,0($2)
  402180:	a2 00 00 00 10 10 01 00 	lui $1,4112
  402188:	42 00 00 00 00 01 03 01 	addu $1,$1,$3
  402190:	2a 00 00 00 a4 59 04 01 	l.s $f4,22948($1)
  402198:	2a 00 00 00 00 00 00 04 	l.s $f0,0($4)
  4021a0:	72 00 00 00 00 04 00 04 	sub.s $f4,$f4,$f0
  4021a8:	42 00 00 00 00 02 0e 03 	addu $2,$3,$14
  4021b0:	2a 00 00 00 00 00 02 06 	l.s $f2,0($6)
  4021b8:	2a 00 00 00 00 00 00 02 	l.s $f0,0($2)
  4021c0:	74 00 00 00 00 04 04 0a 	mul.s $f4,$f10,$f4
  4021c8:	72 00 00 00 00 00 02 00 	sub.s $f0,$f0,$f2
  4021d0:	74 00 00 00 00 00 00 08 	mul.s $f0,$f8,$f0
  4021d8:	72 00 00 00 00 04 00 04 	sub.s $f4,$f4,$f0
  4021e0:	2a 00 00 00 00 00 02 08 	l.s $f2,0($8)
  4021e8:	2a 00 00 00 00 00 00 07 	l.s $f0,0($7)
  4021f0:	70 00 00 00 00 02 00 02 	add.s $f2,$f2,$f0
  4021f8:	a2 00 00 00 20 10 01 00 	lui $1,4128
  402200:	42 00 00 00 00 01 03 01 	addu $1,$1,$3
  402208:	2a 00 00 00 a8 69 00 01 	l.s $f0,27048($1)
  402210:	70 00 00 00 00 02 00 02 	add.s $f2,$f2,$f0
  402218:	2a 00 00 00 00 00 00 05 	l.s $f0,0($5)
  402220:	70 00 00 00 00 02 00 02 	add.s $f2,$f2,$f0
  402228:	76 00 00 00 00 04 02 04 	div.s $f4,$f4,$f2
  402230:	42 00 00 00 00 02 19 03 	addu $2,$3,$25
  402238:	36 00 00 00 00 00 04 02 	s.s $f4,0($2)
  402240:	2a 00 00 00 00 00 00 06 	l.s $f0,0($6)
  402248:	74 00 00 00 00 00 00 00 	mul.s $f0,$f0,$f0
  402250:	42 00 00 00 00 02 18 03 	addu $2,$3,$24
  402258:	2a 00 00 00 00 00 04 02 	l.s $f4,0($2)
  402260:	74 00 00 00 00 04 04 04 	mul.s $f4,$f4,$f4
  402268:	2a 00 00 00 00 00 06 04 	l.s $f6,0($4)
  402270:	74 00 00 00 00 06 06 06 	mul.s $f6,$f6,$f6
  402278:	a2 00 00 00 10 10 01 00 	lui $1,4112
  402280:	42 00 00 00 00 01 03 01 	addu $1,$1,$3
  402288:	2a 00 00 00 9c 51 02 01 	l.s $f2,20892($1)
  402290:	70 00 00 00 00 00 04 00 	add.s $f0,$f0,$f4
  402298:	74 00 00 00 00 02 02 02 	mul.s $f2,$f2,$f2
  4022a0:	70 00 00 00 00 00 06 00 	add.s $f0,$f0,$f6
  4022a8:	70 00 00 00 00 00 02 00 	add.s $f0,$f0,$f2
  4022b0:	2a 00 00 00 48 80 02 1c 	l.s $f2,-32696($28)
  4022b8:	74 00 00 00 00 00 02 00 	mul.s $f0,$f0,$f2
  4022c0:	2a 00 00 00 00 00 02 08 	l.s $f2,0($8)
  4022c8:	70 00 00 00 00 02 00 02 	add.s $f2,$f2,$f0
  4022d0:	43 00 00 00 01 00 09 09 	addiu $9,$9,1
  4022d8:	5b 00 00 00 00 02 09 0b 	slt $2,$11,$9
  4022e0:	a2 00 00 00 c1 10 01 00 	lui $1,4289
  4022e8:	42 00 00 00 00 01 03 01 	addu $1,$1,$3
  4022f0:	36 00 00 00 c8 01 02 01 	s.s $f2,456($1)
  4022f8:	05 00 00 00 72 ff 00 02 	beq $2,$0,4020c8 <calc1_+0x178>
  402300:	43 00 00 00 01 02 0c 0c 	addiu $12,$12,513
  402308:	43 00 00 00 01 00 0a 0a 	addiu $10,$10,1
  402310:	5b 00 00 00 00 02 0a 0f 	slt $2,$15,$10
  402318:	05 00 00 00 50 ff 00 02 	beq $2,$0,402060 <calc1_+0x110>
  402320:	a2 00 00 00 e1 10 0b 00 	lui $11,4321
  402328:	28 00 00 00 04 2a 0b 0b 	lw $11,10756($11)
  402330:	43 00 00 00 01 00 0a 00 	addiu $10,$0,1
  402338:	07 00 00 00 de 00 00 0b 	blez $11,4026b8 <calc1_+0x768>
  402340:	a2 00 00 00 c1 10 0f 00 	lui $15,4289
  402348:	43 00 00 00 cc 01 0f 0f 	addiu $15,$15,460
  402350:	43 00 00 00 04 08 09 0f 	addiu $9,$15,2052
  402358:	a2 00 00 00 b1 10 0e 00 	lui $14,4273
  402360:	43 00 00 00 cc f9 0e 0e 	addiu $14,$14,-1588
  402368:	43 00 00 00 04 08 08 0e 	addiu $8,$14,2052
  402370:	a2 00 00 00 a1 10 0d 00 	lui $13,4257
  402378:	43 00 00 00 c8 e9 0d 0d 	addiu $13,$13,-5688
  402380:	43 00 00 00 04 08 07 0d 	addiu $7,$13,2052
  402388:	a2 00 00 00 91 10 0c 00 	lui $12,4241
  402390:	43 00 00 00 c0 d1 0c 0c 	addiu $12,$12,-11840
  402398:	43 00 00 00 04 08 06 0c 	addiu $6,$12,2052
  4023a0:	43 00 00 00 01 02 04 00 	addiu $4,$0,513
  4023a8:	43 00 00 00 01 00 02 0b 	addiu $2,$11,1
  4023b0:	4f 00 00 00 01 00 03 0b 	andi $3,$11,1
  4023b8:	5b 00 00 00 00 02 02 0a 	slt $2,$10,$2
  4023c0:	05 00 00 00 02 00 00 02 	beq $2,$0,4023d0 <calc1_+0x480>
  4023c8:	05 00 00 00 38 00 00 03 	beq $3,$0,4024b0 <calc1_+0x560>
  4023d0:	a2 00 00 00 e1 10 02 00 	lui $2,4321
  4023d8:	28 00 00 00 00 2a 02 02 	lw $2,10752($2)
  4023e0:	43 00 00 00 08 10 09 0f 	addiu $9,$15,4104
  4023e8:	2a 00 00 00 04 08 02 0d 	l.s $f2,2052($13)
  4023f0:	43 00 00 00 08 10 08 0e 	addiu $8,$14,4104
  4023f8:	43 00 00 00 08 10 07 0d 	addiu $7,$13,4104
  402400:	43 00 00 00 08 10 06 0c 	addiu $6,$12,4104
  402408:	43 00 00 00 01 02 02 02 	addiu $2,$2,513
  402410:	55 00 00 00 02 02 02 00 	sll $2,$2,0x2
  402418:	42 00 00 00 00 03 0c 02 	addu $3,$2,$12
  402420:	2a 00 00 00 00 00 00 03 	l.s $f0,0($3)
  402428:	43 00 00 00 02 04 04 00 	addiu $4,$0,1026
  402430:	42 00 00 00 00 02 0d 02 	addu $2,$2,$13
  402438:	36 00 00 00 04 08 00 0c 	s.s $f0,2052($12)
  402440:	36 00 00 00 00 00 02 02 	s.s $f2,0($2)
  402448:	a2 00 00 00 e1 10 02 00 	lui $2,4321
  402450:	28 00 00 00 00 2a 02 02 	lw $2,10752($2)
  402458:	43 00 00 00 02 00 0a 00 	addiu $10,$0,2
  402460:	2a 00 00 00 04 08 02 0f 	l.s $f2,2052($15)
  402468:	43 00 00 00 01 02 02 02 	addiu $2,$2,513
  402470:	55 00 00 00 02 02 02 00 	sll $2,$2,0x2
  402478:	42 00 00 00 00 03 0e 02 	addu $3,$2,$14
  402480:	2a 00 00 00 00 00 00 03 	l.s $f0,0($3)
  402488:	5c 00 00 00 02 00 05 0b 	slti $5,$11,2
  402490:	42 00 00 00 00 02 0f 02 	addu $2,$2,$15
  402498:	36 00 00 00 04 08 00 0e 	s.s $f0,2052($14)
  4024a0:	36 00 00 00 00 00 02 02 	s.s $f2,0($2)
  4024a8:	06 00 00 00 82 00 00 05 	bne $5,$0,4026b8 <calc1_+0x768>
  4024b0:	a2 00 00 00 e1 10 02 00 	lui $2,4321
  4024b8:	28 00 00 00 00 2a 02 02 	lw $2,10752($2)
  4024c0:	42 00 00 00 00 02 02 04 	addu $2,$4,$2
  4024c8:	55 00 00 00 02 02 02 00 	sll $2,$2,0x2
  4024d0:	42 00 00 00 00 02 0c 02 	addu $2,$2,$12
  4024d8:	2a 00 00 00 00 00 00 02 	l.s $f0,0($2)
  4024e0:	36 00 00 00 00 00 00 06 	s.s $f0,0($6)
  4024e8:	a2 00 00 00 e1 10 02 00 	lui $2,4321
  4024f0:	28 00 00 00 00 2a 02 02 	lw $2,10752($2)
  4024f8:	2a 00 00 00 00 00 00 07 	l.s $f0,0($7)
  402500:	42 00 00 00 00 02 02 04 	addu $2,$4,$2
  402508:	55 00 00 00 02 02 02 00 	sll $2,$2,0x2
  402510:	42 00 00 00 00 02 0d 02 	addu $2,$2,$13
  402518:	36 00 00 00 00 00 00 02 	s.s $f0,0($2)
  402520:	a2 00 00 00 e1 10 02 00 	lui $2,4321
  402528:	28 00 00 00 00 2a 02 02 	lw $2,10752($2)
  402530:	42 00 00 00 00 02 02 04 	addu $2,$4,$2
  402538:	55 00 00 00 02 02 02 00 	sll $2,$2,0x2
  402540:	42 00 00 00 00 02 0e 02 	addu $2,$2,$14
  402548:	2a 00 00 00 00 00 00 02 	l.s $f0,0($2)
  402550:	36 00 00 00 00 00 00 08 	s.s $f0,0($8)
  402558:	a2 00 00 00 e1 10 02 00 	lui $2,4321
  402560:	28 00 00 00 00 2a 02 02 	lw $2,10752($2)
  402568:	2a 00 00 00 00 00 00 09 	l.s $f0,0($9)
  402570:	42 00 00 00 00 02 02 04 	addu $2,$4,$2
  402578:	55 00 00 00 02 02 02 00 	sll $2,$2,0x2
  402580:	42 00 00 00 00 02 0f 02 	addu $2,$2,$15
  402588:	36 00 00 00 00 00 00 02 	s.s $f0,0($2)
  402590:	a2 00 00 00 e1 10 02 00 	lui $2,4321
  402598:	28 00 00 00 00 2a 02 02 	lw $2,10752($2)
  4025a0:	43 00 00 00 01 02 03 04 	addiu $3,$4,513
  4025a8:	42 00 00 00 00 02 02 03 	addu $2,$3,$2
  4025b0:	55 00 00 00 02 02 02 00 	sll $2,$2,0x2
  4025b8:	42 00 00 00 00 02 0c 02 	addu $2,$2,$12
  4025c0:	2a 00 00 00 00 00 00 02 	l.s $f0,0($2)
  4025c8:	36 00 00 00 04 08 00 06 	s.s $f0,2052($6)
  4025d0:	a2 00 00 00 e1 10 02 00 	lui $2,4321
  4025d8:	28 00 00 00 00 2a 02 02 	lw $2,10752($2)
  4025e0:	43 00 00 00 02 00 0a 0a 	addiu $10,$10,2
  4025e8:	2a 00 00 00 04 08 00 07 	l.s $f0,2052($7)
  4025f0:	42 00 00 00 00 02 02 03 	addu $2,$3,$2
  4025f8:	55 00 00 00 02 02 02 00 	sll $2,$2,0x2
  402600:	42 00 00 00 00 02 0d 02 	addu $2,$2,$13
  402608:	36 00 00 00 00 00 00 02 	s.s $f0,0($2)
  402610:	a2 00 00 00 e1 10 02 00 	lui $2,4321
  402618:	28 00 00 00 00 2a 02 02 	lw $2,10752($2)
  402620:	5b 00 00 00 00 05 0a 0b 	slt $5,$11,$10
  402628:	43 00 00 00 02 04 04 04 	addiu $4,$4,1026
  402630:	42 00 00 00 00 02 02 03 	addu $2,$3,$2
  402638:	55 00 00 00 02 02 02 00 	sll $2,$2,0x2
  402640:	42 00 00 00 00 02 0e 02 	addu $2,$2,$14
  402648:	2a 00 00 00 00 00 00 02 	l.s $f0,0($2)
  402650:	43 00 00 00 08 10 06 06 	addiu $6,$6,4104
  402658:	43 00 00 00 08 10 07 07 	addiu $7,$7,4104
  402660:	36 00 00 00 04 08 00 08 	s.s $f0,2052($8)
  402668:	2a 00 00 00 04 08 00 09 	l.s $f0,2052($9)
  402670:	a2 00 00 00 e1 10 02 00 	lui $2,4321
  402678:	28 00 00 00 00 2a 02 02 	lw $2,10752($2)
  402680:	43 00 00 00 08 10 08 08 	addiu $8,$8,4104
  402688:	43 00 00 00 08 10 09 09 	addiu $9,$9,4104
  402690:	42 00 00 00 00 03 02 03 	addu $3,$3,$2
  402698:	55 00 00 00 02 03 03 00 	sll $3,$3,0x2
  4026a0:	42 00 00 00 00 03 0f 03 	addu $3,$3,$15
  4026a8:	36 00 00 00 00 00 00 03 	s.s $f0,0($3)
  4026b0:	05 00 00 00 7e ff 00 05 	beq $5,$0,4024b0 <calc1_+0x560>
  4026b8:	a2 00 00 00 e1 10 0b 00 	lui $11,4321
  4026c0:	28 00 00 00 00 2a 0b 0b 	lw $11,10752($11)
  4026c8:	43 00 00 00 01 00 09 00 	addiu $9,$0,1
  4026d0:	07 00 00 00 08 01 00 0b 	blez $11,402af8 <calc1_+0xba8>
  4026d8:	a2 00 00 00 c1 10 0f 00 	lui $15,4289
  4026e0:	43 00 00 00 cc 09 0f 0f 	addiu $15,$15,2508
  4026e8:	43 00 00 00 04 00 08 0f 	addiu $8,$15,4
  4026f0:	a2 00 00 00 b1 10 0e 00 	lui $14,4273
  4026f8:	43 00 00 00 cc f9 0e 0e 	addiu $14,$14,-1588
  402700:	43 00 00 00 04 00 07 0e 	addiu $7,$14,4
  402708:	a2 00 00 00 a1 10 0d 00 	lui $13,4257
  402710:	43 00 00 00 c4 e9 0d 0d 	addiu $13,$13,-5692
  402718:	43 00 00 00 04 00 06 0d 	addiu $6,$13,4
  402720:	a2 00 00 00 91 10 0c 00 	lui $12,4241
  402728:	43 00 00 00 c4 d9 0c 0c 	addiu $12,$12,-9788
  402730:	43 00 00 00 04 00 04 0c 	addiu $4,$12,4
  402738:	43 00 00 00 01 00 02 0b 	addiu $2,$11,1
  402740:	4f 00 00 00 01 00 03 0b 	andi $3,$11,1
  402748:	5b 00 00 00 00 02 02 09 	slt $2,$9,$2
  402750:	05 00 00 00 02 00 00 02 	beq $2,$0,402760 <calc1_+0x810>
  402758:	05 00 00 00 3e 00 00 03 	beq $3,$0,402858 <calc1_+0x908>
  402760:	a2 00 00 00 e1 10 03 00 	lui $3,4321
  402768:	28 00 00 00 04 2a 03 03 	lw $3,10756($3)
  402770:	2a 00 00 00 04 00 00 0c 	l.s $f0,4($12)
  402778:	43 00 00 00 04 00 08 08 	addiu $8,$8,4
  402780:	55 00 00 00 09 02 03 00 	sll $2,$3,0x9
  402788:	42 00 00 00 00 02 03 02 	addu $2,$2,$3
  402790:	43 00 00 00 01 00 02 02 	addiu $2,$2,1
  402798:	55 00 00 00 02 02 02 00 	sll $2,$2,0x2
  4027a0:	42 00 00 00 00 02 0c 02 	addu $2,$2,$12
  4027a8:	36 00 00 00 00 00 00 02 	s.s $f0,0($2)
  4027b0:	a2 00 00 00 e1 10 03 00 	lui $3,4321
  4027b8:	28 00 00 00 04 2a 03 03 	lw $3,10756($3)
  4027c0:	43 00 00 00 04 00 07 07 	addiu $7,$7,4
  4027c8:	43 00 00 00 04 00 06 06 	addiu $6,$6,4
  4027d0:	55 00 00 00 09 02 03 00 	sll $2,$3,0x9
  4027d8:	42 00 00 00 00 02 03 02 	addu $2,$2,$3
  4027e0:	43 00 00 00 01 00 02 02 	addiu $2,$2,1
  4027e8:	55 00 00 00 02 02 02 00 	sll $2,$2,0x2
  4027f0:	42 00 00 00 00 03 0d 02 	addu $3,$2,$13
  4027f8:	2a 00 00 00 00 00 00 03 	l.s $f0,0($3)
  402800:	43 00 00 00 04 00 04 04 	addiu $4,$4,4
  402808:	43 00 00 00 02 00 09 00 	addiu $9,$0,2
  402810:	42 00 00 00 00 03 0e 02 	addu $3,$2,$14
  402818:	36 00 00 00 04 00 00 0d 	s.s $f0,4($13)
  402820:	2a 00 00 00 00 00 00 03 	l.s $f0,0($3)
  402828:	2a 00 00 00 04 00 02 0f 	l.s $f2,4($15)
  402830:	5c 00 00 00 02 00 05 0b 	slti $5,$11,2
  402838:	42 00 00 00 00 02 0f 02 	addu $2,$2,$15
  402840:	36 00 00 00 04 00 00 0e 	s.s $f0,4($14)
  402848:	36 00 00 00 00 00 02 02 	s.s $f2,0($2)
  402850:	06 00 00 00 a8 00 00 05 	bne $5,$0,402af8 <calc1_+0xba8>
  402858:	42 00 00 00 00 0a 08 00 	addu $10,$0,$8
  402860:	42 00 00 00 00 08 07 00 	addu $8,$0,$7
  402868:	42 00 00 00 00 07 06 00 	addu $7,$0,$6
  402870:	42 00 00 00 00 06 04 00 	addu $6,$0,$4
  402878:	a2 00 00 00 e1 10 03 00 	lui $3,4321
  402880:	28 00 00 00 04 2a 03 03 	lw $3,10756($3)
  402888:	2a 00 00 00 00 00 00 06 	l.s $f0,0($6)
  402890:	55 00 00 00 09 02 03 00 	sll $2,$3,0x9
  402898:	42 00 00 00 00 02 03 02 	addu $2,$2,$3
  4028a0:	42 00 00 00 00 02 09 02 	addu $2,$2,$9
  4028a8:	55 00 00 00 02 02 02 00 	sll $2,$2,0x2
  4028b0:	42 00 00 00 00 02 0c 02 	addu $2,$2,$12
  4028b8:	36 00 00 00 00 00 00 02 	s.s $f0,0($2)
  4028c0:	a2 00 00 00 e1 10 03 00 	lui $3,4321
  4028c8:	28 00 00 00 04 2a 03 03 	lw $3,10756($3)
  4028d0:	55 00 00 00 09 02 03 00 	sll $2,$3,0x9
  4028d8:	42 00 00 00 00 02 03 02 	addu $2,$2,$3
  4028e0:	42 00 00 00 00 02 09 02 	addu $2,$2,$9
  4028e8:	55 00 00 00 02 02 02 00 	sll $2,$2,0x2
  4028f0:	42 00 00 00 00 02 0d 02 	addu $2,$2,$13
  4028f8:	2a 00 00 00 00 00 00 02 	l.s $f0,0($2)
  402900:	36 00 00 00 00 00 00 07 	s.s $f0,0($7)
  402908:	a2 00 00 00 e1 10 03 00 	lui $3,4321
  402910:	28 00 00 00 04 2a 03 03 	lw $3,10756($3)
  402918:	55 00 00 00 09 02 03 00 	sll $2,$3,0x9
  402920:	42 00 00 00 00 02 03 02 	addu $2,$2,$3
  402928:	42 00 00 00 00 02 09 02 	addu $2,$2,$9
  402930:	55 00 00 00 02 02 02 00 	sll $2,$2,0x2
  402938:	42 00 00 00 00 02 0e 02 	addu $2,$2,$14
  402940:	2a 00 00 00 00 00 00 02 	l.s $f0,0($2)
  402948:	36 00 00 00 00 00 00 08 	s.s $f0,0($8)
  402950:	a2 00 00 00 e1 10 03 00 	lui $3,4321
  402958:	28 00 00 00 04 2a 03 03 	lw $3,10756($3)
  402960:	2a 00 00 00 00 00 00 0a 	l.s $f0,0($10)
  402968:	55 00 00 00 09 02 03 00 	sll $2,$3,0x9
  402970:	42 00 00 00 00 02 03 02 	addu $2,$2,$3
  402978:	42 00 00 00 00 02 09 02 	addu $2,$2,$9
  402980:	55 00 00 00 02 02 02 00 	sll $2,$2,0x2
  402988:	42 00 00 00 00 02 0f 02 	addu $2,$2,$15
  402990:	36 00 00 00 00 00 00 02 	s.s $f0,0($2)
  402998:	a2 00 00 00 e1 10 03 00 	lui $3,4321
  4029a0:	28 00 00 00 04 2a 03 03 	lw $3,10756($3)
  4029a8:	43 00 00 00 01 00 04 09 	addiu $4,$9,1
  4029b0:	2a 00 00 00 04 00 00 06 	l.s $f0,4($6)
  4029b8:	55 00 00 00 09 02 03 00 	sll $2,$3,0x9
  4029c0:	42 00 00 00 00 02 03 02 	addu $2,$2,$3
  4029c8:	42 00 00 00 00 02 04 02 	addu $2,$2,$4
  4029d0:	55 00 00 00 02 02 02 00 	sll $2,$2,0x2
  4029d8:	42 00 00 00 00 02 0c 02 	addu $2,$2,$12
  4029e0:	36 00 00 00 00 00 00 02 	s.s $f0,0($2)
  4029e8:	a2 00 00 00 e1 10 03 00 	lui $3,4321
  4029f0:	28 00 00 00 04 2a 03 03 	lw $3,10756($3)
  4029f8:	55 00 00 00 09 02 03 00 	sll $2,$3,0x9
  402a00:	42 00 00 00 00 02 03 02 	addu $2,$2,$3
  402a08:	42 00 00 00 00 02 04 02 	addu $2,$2,$4
  402a10:	55 00 00 00 02 02 02 00 	sll $2,$2,0x2
  402a18:	42 00 00 00 00 02 0d 02 	addu $2,$2,$13
  402a20:	2a 00 00 00 00 00 00 02 	l.s $f0,0($2)
  402a28:	36 00 00 00 04 00 00 07 	s.s $f0,4($7)
  402a30:	a2 00 00 00 e1 10 03 00 	lui $3,4321
  402a38:	28 00 00 00 04 2a 03 03 	lw $3,10756($3)
  402a40:	43 00 00 00 02 00 09 09 	addiu $9,$9,2
  402a48:	5b 00 00 00 00 05 09 0b 	slt $5,$11,$9
  402a50:	55 00 00 00 09 02 03 00 	sll $2,$3,0x9
  402a58:	42 00 00 00 00 02 03 02 	addu $2,$2,$3
  402a60:	42 00 00 00 00 02 04 02 	addu $2,$2,$4
  402a68:	55 00 00 00 02 02 02 00 	sll $2,$2,0x2
  402a70:	42 00 00 00 00 02 0e 02 	addu $2,$2,$14
  402a78:	2a 00 00 00 00 00 00 02 	l.s $f0,0($2)
  402a80:	43 00 00 00 08 00 06 06 	addiu $6,$6,8
  402a88:	43 00 00 00 08 00 07 07 	addiu $7,$7,8
  402a90:	36 00 00 00 04 00 00 08 	s.s $f0,4($8)
  402a98:	2a 00 00 00 04 00 00 0a 	l.s $f0,4($10)
  402aa0:	a2 00 00 00 e1 10 03 00 	lui $3,4321
  402aa8:	28 00 00 00 04 2a 03 03 	lw $3,10756($3)
  402ab0:	43 00 00 00 08 00 08 08 	addiu $8,$8,8
  402ab8:	43 00 00 00 08 00 0a 0a 	addiu $10,$10,8
  402ac0:	55 00 00 00 09 02 03 00 	sll $2,$3,0x9
  402ac8:	42 00 00 00 00 02 03 02 	addu $2,$2,$3
  402ad0:	42 00 00 00 00 02 04 02 	addu $2,$2,$4
  402ad8:	55 00 00 00 02 02 02 00 	sll $2,$2,0x2
  402ae0:	42 00 00 00 00 02 0f 02 	addu $2,$2,$15
  402ae8:	36 00 00 00 00 00 00 02 	s.s $f0,0($2)
  402af0:	05 00 00 00 60 ff 00 05 	beq $5,$0,402878 <calc1_+0x928>
  402af8:	a2 00 00 00 e1 10 04 00 	lui $4,4321
  402b00:	28 00 00 00 04 2a 04 04 	lw $4,10756($4)
  402b08:	a2 00 00 00 e1 10 03 00 	lui $3,4321
  402b10:	28 00 00 00 00 2a 03 03 	lw $3,10752($3)
  402b18:	55 00 00 00 09 02 04 00 	sll $2,$4,0x9
  402b20:	42 00 00 00 00 02 04 02 	addu $2,$2,$4
  402b28:	a2 00 00 00 91 10 04 00 	lui $4,4241
  402b30:	43 00 00 00 c4 d9 04 04 	addiu $4,$4,-9788
  402b38:	55 00 00 00 02 03 03 00 	sll $3,$3,0x2
  402b40:	42 00 00 00 00 03 04 03 	addu $3,$3,$4
  402b48:	2a 00 00 00 00 00 00 03 	l.s $f0,0($3)
  402b50:	55 00 00 00 02 02 02 00 	sll $2,$2,0x2
  402b58:	42 00 00 00 00 02 04 02 	addu $2,$2,$4
  402b60:	36 00 00 00 00 00 00 02 	s.s $f0,0($2)
  402b68:	a2 00 00 00 e1 10 04 00 	lui $4,4321
  402b70:	28 00 00 00 04 2a 04 04 	lw $4,10756($4)
  402b78:	a2 00 00 00 a1 10 05 00 	lui $5,4257
  402b80:	43 00 00 00 c8 e9 05 05 	addiu $5,$5,-5688
  402b88:	a2 00 00 00 e1 10 03 00 	lui $3,4321
  402b90:	28 00 00 00 00 2a 03 03 	lw $3,10752($3)
  402b98:	55 00 00 00 09 02 04 00 	sll $2,$4,0x9
  402ba0:	42 00 00 00 00 02 04 02 	addu $2,$2,$4
  402ba8:	55 00 00 00 02 02 02 00 	sll $2,$2,0x2
  402bb0:	42 00 00 00 00 02 05 02 	addu $2,$2,$5
  402bb8:	2a 00 00 00 00 00 00 02 	l.s $f0,0($2)
  402bc0:	55 00 00 00 02 03 03 00 	sll $3,$3,0x2
  402bc8:	42 00 00 00 00 03 05 03 	addu $3,$3,$5
  402bd0:	36 00 00 00 00 00 00 03 	s.s $f0,0($3)
  402bd8:	a2 00 00 00 e1 10 03 00 	lui $3,4321
  402be0:	28 00 00 00 04 2a 03 03 	lw $3,10756($3)
  402be8:	a2 00 00 00 e1 10 04 00 	lui $4,4321
  402bf0:	28 00 00 00 00 2a 04 04 	lw $4,10752($4)
  402bf8:	55 00 00 00 09 02 03 00 	sll $2,$3,0x9
  402c00:	42 00 00 00 00 02 03 02 	addu $2,$2,$3
  402c08:	42 00 00 00 00 02 04 02 	addu $2,$2,$4
  402c10:	55 00 00 00 02 02 02 00 	sll $2,$2,0x2
  402c18:	a2 00 00 00 b1 10 01 00 	lui $1,4273
  402c20:	42 00 00 00 00 01 02 01 	addu $1,$1,$2
  402c28:	2a 00 00 00 cc f9 00 01 	l.s $f0,-1588($1)
  402c30:	a2 00 00 00 c1 10 03 00 	lui $3,4289
  402c38:	43 00 00 00 d0 09 03 03 	addiu $3,$3,2512
  402c40:	2a 00 00 00 00 00 02 03 	l.s $f2,0($3)
  402c48:	42 00 00 00 00 02 03 02 	addu $2,$2,$3
  402c50:	a2 00 00 00 b1 10 01 00 	lui $1,4273
  402c58:	36 00 00 00 cc f9 00 01 	s.s $f0,-1588($1)
  402c60:	36 00 00 00 00 00 02 02 	s.s $f2,0($2)
  402c68:	42 00 00 00 00 02 00 00 	addu $2,$0,$0
  402c70:	28 00 00 00 2c 00 17 1d 	lw $23,44($29)
  402c78:	28 00 00 00 28 00 16 1d 	lw $22,40($29)
  402c80:	28 00 00 00 24 00 15 1d 	lw $21,36($29)
  402c88:	28 00 00 00 20 00 14 1d 	lw $20,32($29)
  402c90:	28 00 00 00 1c 00 13 1d 	lw $19,28($29)
  402c98:	28 00 00 00 18 00 12 1d 	lw $18,24($29)
  402ca0:	28 00 00 00 14 00 11 1d 	lw $17,20($29)
  402ca8:	28 00 00 00 10 00 10 1d 	lw $16,16($29)
  402cb0:	43 00 00 00 30 00 1d 1d 	addiu $29,$29,48
  402cb8:	03 00 00 00 00 00 00 1f 	jr $31

00402cc0 <calc2_>:
  402cc0:	43 00 00 00 f8 ff 1d 1d 	addiu $29,$29,-8
  402cc8:	a2 00 00 00 e1 10 02 00 	lui $2,4321
  402cd0:	43 00 00 00 e4 29 02 02 	addiu $2,$2,10724
  402cd8:	34 00 00 00 04 00 11 1d 	sw $17,4($29)
  402ce0:	34 00 00 00 00 00 10 1d 	sw $16,0($29)
  402ce8:	2a 00 00 00 00 00 02 02 	l.s $f2,0($2)
  402cf0:	2a 00 00 00 4c 80 00 1c 	l.s $f0,-32692($28)
  402cf8:	76 00 00 00 00 0e 00 02 	div.s $f14,$f2,$f0
  402d00:	a2 00 00 00 e1 10 01 00 	lui $1,4321
  402d08:	2a 00 00 00 e8 29 00 01 	l.s $f0,10728($1)
  402d10:	76 00 00 00 00 0c 00 02 	div.s $f12,$f2,$f0
  402d18:	a2 00 00 00 e1 10 01 00 	lui $1,4321
  402d20:	2a 00 00 00 ec 29 00 01 	l.s $f0,10732($1)
  402d28:	76 00 00 00 00 0a 00 02 	div.s $f10,$f2,$f0
  402d30:	a2 00 00 00 e1 10 0e 00 	lui $14,4321
  402d38:	28 00 00 00 04 2a 0e 0e 	lw $14,10756($14)
  402d40:	43 00 00 00 01 00 0a 00 	addiu $10,$0,1
  402d48:	07 00 00 00 e4 00 00 0e 	blez $14,4030e0 <calc2_+0x420>
  402d50:	43 00 00 00 1c 00 11 02 	addiu $17,$2,28
  402d58:	a2 00 00 00 30 10 10 00 	lui $16,4144
  402d60:	43 00 00 00 a8 71 10 10 	addiu $16,$16,29096
  402d68:	a2 00 00 00 61 10 19 00 	lui $25,4193
  402d70:	43 00 00 00 b4 a1 19 19 	addiu $25,$25,-24140
  402d78:	a2 00 00 00 b1 10 18 00 	lui $24,4273
  402d80:	43 00 00 00 cc f9 18 18 	addiu $24,$24,-1588
  402d88:	a2 00 00 00 b1 10 0f 00 	lui $15,4273
  402d90:	43 00 00 00 c8 f1 0f 0f 	addiu $15,$15,-3640
  402d98:	43 00 00 00 01 02 0c 00 	addiu $12,$0,513
  402da0:	28 00 00 00 00 00 0b 11 	lw $11,0($17)
  402da8:	43 00 00 00 01 00 09 00 	addiu $9,$0,1
  402db0:	07 00 00 00 c2 00 00 0b 	blez $11,4030c0 <calc2_+0x400>
  402db8:	42 00 00 00 00 0d 0c 00 	addu $13,$0,$12
  402dc0:	42 00 00 00 00 03 09 0d 	addu $3,$13,$9
  402dc8:	55 00 00 00 02 03 03 00 	sll $3,$3,0x2
  402dd0:	42 00 00 00 00 02 0f 03 	addu $2,$3,$15
  402dd8:	2a 00 00 00 00 00 02 02 	l.s $f2,0($2)
  402de0:	42 00 00 00 00 08 18 03 	addu $8,$3,$24
  402de8:	2a 00 00 00 00 00 06 08 	l.s $f6,0($8)
  402df0:	a2 00 00 00 a1 10 02 00 	lui $2,4257
  402df8:	43 00 00 00 c8 e9 02 02 	addiu $2,$2,-5688
  402e00:	42 00 00 00 00 04 02 03 	addu $4,$3,$2
  402e08:	70 00 00 00 00 06 02 06 	add.s $f6,$f6,$f2
  402e10:	43 00 00 00 fc ff 07 02 	addiu $7,$2,-4
  402e18:	42 00 00 00 00 07 07 03 	addu $7,$3,$7
  402e20:	2a 00 00 00 00 00 00 04 	l.s $f0,0($4)
  402e28:	2a 00 00 00 00 00 02 07 	l.s $f2,0($7)
  402e30:	70 00 00 00 00 00 02 00 	add.s $f0,$f0,$f2
  402e38:	43 00 00 00 f8 f7 06 02 	addiu $6,$2,-2056
  402e40:	42 00 00 00 00 06 06 03 	addu $6,$3,$6
  402e48:	2a 00 00 00 00 00 02 06 	l.s $f2,0($6)
  402e50:	42 00 00 00 00 02 03 02 	addu $2,$2,$3
  402e58:	70 00 00 00 00 00 02 00 	add.s $f0,$f0,$f2
  402e60:	2a 00 00 00 fc f7 04 02 	l.s $f4,-2052($2)
  402e68:	74 00 00 00 00 06 06 0e 	mul.s $f6,$f14,$f6
  402e70:	70 00 00 00 00 00 04 00 	add.s $f0,$f0,$f4
  402e78:	a2 00 00 00 c1 10 05 00 	lui $5,4289
  402e80:	43 00 00 00 c8 01 05 05 	addiu $5,$5,456
  402e88:	42 00 00 00 00 05 05 03 	addu $5,$3,$5
  402e90:	a2 00 00 00 c1 10 01 00 	lui $1,4289
  402e98:	42 00 00 00 00 01 03 01 	addu $1,$1,$3
  402ea0:	2a 00 00 00 cc 01 02 01 	l.s $f2,460($1)
  402ea8:	2a 00 00 00 00 00 04 05 	l.s $f4,0($5)
  402eb0:	74 00 00 00 00 06 00 06 	mul.s $f6,$f6,$f0
  402eb8:	72 00 00 00 00 02 04 02 	sub.s $f2,$f2,$f4
  402ec0:	42 00 00 00 00 02 19 03 	addu $2,$3,$25
  402ec8:	74 00 00 00 00 02 02 0c 	mul.s $f2,$f12,$f2
  402ed0:	2a 00 00 00 00 00 00 02 	l.s $f0,0($2)
  402ed8:	70 00 00 00 00 00 06 00 	add.s $f0,$f0,$f6
  402ee0:	72 00 00 00 00 00 02 00 	sub.s $f0,$f0,$f2
  402ee8:	42 00 00 00 00 02 10 03 	addu $2,$3,$16
  402ef0:	36 00 00 00 00 00 00 02 	s.s $f0,0($2)
  402ef8:	2a 00 00 00 00 00 06 08 	l.s $f6,0($8)
  402f00:	a2 00 00 00 b1 10 01 00 	lui $1,4273
  402f08:	42 00 00 00 00 01 03 01 	addu $1,$1,$3
  402f10:	2a 00 00 00 c8 f9 02 01 	l.s $f2,-1592($1)
  402f18:	a2 00 00 00 91 10 01 00 	lui $1,4241
  402f20:	42 00 00 00 00 01 03 01 	addu $1,$1,$3
  402f28:	2a 00 00 00 c4 d9 00 01 	l.s $f0,-9788($1)
  402f30:	70 00 00 00 00 06 02 06 	add.s $f6,$f6,$f2
  402f38:	a2 00 00 00 91 10 01 00 	lui $1,4241
  402f40:	42 00 00 00 00 01 03 01 	addu $1,$1,$3
  402f48:	2a 00 00 00 c0 d9 04 01 	l.s $f4,-9792($1)
  402f50:	a2 00 00 00 91 10 04 00 	lui $4,4241
  402f58:	43 00 00 00 bc d1 04 04 	addiu $4,$4,-11844
  402f60:	42 00 00 00 00 04 04 03 	addu $4,$3,$4
  402f68:	70 00 00 00 00 00 04 00 	add.s $f0,$f0,$f4
  402f70:	2a 00 00 00 00 00 08 04 	l.s $f8,0($4)
  402f78:	a2 00 00 00 91 10 02 00 	lui $2,4241
  402f80:	43 00 00 00 c0 d1 02 02 	addiu $2,$2,-11840
  402f88:	42 00 00 00 00 02 02 03 	addu $2,$3,$2
  402f90:	70 00 00 00 00 00 08 00 	add.s $f0,$f0,$f8
  402f98:	2a 00 00 00 00 00 02 02 	l.s $f2,0($2)
  402fa0:	74 00 00 00 00 06 06 0e 	mul.s $f6,$f14,$f6
  402fa8:	70 00 00 00 00 00 02 00 	add.s $f0,$f0,$f2
  402fb0:	2a 00 00 00 00 00 04 05 	l.s $f4,0($5)
  402fb8:	a2 00 00 00 c1 10 01 00 	lui $1,4289
  402fc0:	42 00 00 00 00 01 03 01 	addu $1,$1,$3
  402fc8:	2a 00 00 00 cc 09 02 01 	l.s $f2,2508($1)
  402fd0:	74 00 00 00 00 06 00 06 	mul.s $f6,$f6,$f0
  402fd8:	72 00 00 00 00 02 04 02 	sub.s $f2,$f2,$f4
  402fe0:	74 00 00 00 00 02 02 0a 	mul.s $f2,$f10,$f2
  402fe8:	a2 00 00 00 71 10 01 00 	lui $1,4209
  402ff0:	42 00 00 00 00 01 03 01 	addu $1,$1,$3
  402ff8:	2a 00 00 00 b8 b9 00 01 	l.s $f0,-17992($1)
  403000:	72 00 00 00 00 00 06 00 	sub.s $f0,$f0,$f6
  403008:	72 00 00 00 00 00 02 00 	sub.s $f0,$f0,$f2
  403010:	a2 00 00 00 41 10 01 00 	lui $1,4161
  403018:	42 00 00 00 00 01 03 01 	addu $1,$1,$3
  403020:	36 00 00 00 ac 89 00 01 	s.s $f0,-30292($1)
  403028:	2a 00 00 00 00 00 04 02 	l.s $f4,0($2)
  403030:	2a 00 00 00 00 00 00 04 	l.s $f0,0($4)
  403038:	72 00 00 00 00 04 00 04 	sub.s $f4,$f4,$f0
  403040:	2a 00 00 00 00 00 02 07 	l.s $f2,0($7)
  403048:	2a 00 00 00 00 00 00 06 	l.s $f0,0($6)
  403050:	74 00 00 00 00 04 04 0c 	mul.s $f4,$f12,$f4
  403058:	72 00 00 00 00 02 00 02 	sub.s $f2,$f2,$f0
  403060:	a2 00 00 00 81 10 01 00 	lui $1,4225
  403068:	42 00 00 00 00 01 03 01 	addu $1,$1,$3
  403070:	2a 00 00 00 b8 c1 00 01 	l.s $f0,-15944($1)
  403078:	74 00 00 00 00 02 02 0a 	mul.s $f2,$f10,$f2
  403080:	72 00 00 00 00 00 04 00 	sub.s $f0,$f0,$f4
  403088:	72 00 00 00 00 00 02 00 	sub.s $f0,$f0,$f2
  403090:	43 00 00 00 01 00 09 09 	addiu $9,$9,1
  403098:	5b 00 00 00 00 02 09 0b 	slt $2,$11,$9
  4030a0:	a2 00 00 00 51 10 01 00 	lui $1,4177
  4030a8:	42 00 00 00 00 01 03 01 	addu $1,$1,$3
  4030b0:	36 00 00 00 ac 91 00 01 	s.s $f0,-28244($1)
  4030b8:	05 00 00 00 40 ff 00 02 	beq $2,$0,402dc0 <calc2_+0x100>
  4030c0:	43 00 00 00 01 02 0c 0c 	addiu $12,$12,513
  4030c8:	43 00 00 00 01 00 0a 0a 	addiu $10,$10,1
  4030d0:	5b 00 00 00 00 02 0a 0e 	slt $2,$14,$10
  4030d8:	05 00 00 00 30 ff 00 02 	beq $2,$0,402da0 <calc2_+0xe0>
  4030e0:	a2 00 00 00 e1 10 0b 00 	lui $11,4321
  4030e8:	28 00 00 00 04 2a 0b 0b 	lw $11,10756($11)
  4030f0:	43 00 00 00 01 00 0a 00 	addiu $10,$0,1
  4030f8:	07 00 00 00 b2 00 00 0b 	blez $11,4033c8 <calc2_+0x708>
  403100:	a2 00 00 00 51 10 0d 00 	lui $13,4177
  403108:	43 00 00 00 b0 91 0d 0d 	addiu $13,$13,-28240
  403110:	43 00 00 00 04 08 07 0d 	addiu $7,$13,2052
  403118:	a2 00 00 00 41 10 0c 00 	lui $12,4161
  403120:	43 00 00 00 b0 89 0c 0c 	addiu $12,$12,-30288
  403128:	43 00 00 00 04 08 06 0c 	addiu $6,$12,2052
  403130:	a2 00 00 00 30 10 09 00 	lui $9,4144
  403138:	43 00 00 00 a8 71 09 09 	addiu $9,$9,29096
  403140:	43 00 00 00 04 08 05 09 	addiu $5,$9,2052
  403148:	43 00 00 00 01 02 04 00 	addiu $4,$0,513
  403150:	43 00 00 00 01 00 02 0b 	addiu $2,$11,1
  403158:	4f 00 00 00 01 00 03 0b 	andi $3,$11,1
  403160:	5b 00 00 00 00 02 02 0a 	slt $2,$10,$2
  403168:	05 00 00 00 02 00 00 02 	beq $2,$0,403178 <calc2_+0x4b8>
  403170:	05 00 00 00 30 00 00 03 	beq $3,$0,403238 <calc2_+0x578>
  403178:	a2 00 00 00 e1 10 02 00 	lui $2,4321
  403180:	28 00 00 00 00 2a 02 02 	lw $2,10752($2)
  403188:	43 00 00 00 08 10 07 0d 	addiu $7,$13,4104
  403190:	43 00 00 00 08 10 06 0c 	addiu $6,$12,4104
  403198:	2a 00 00 00 04 08 02 0c 	l.s $f2,2052($12)
  4031a0:	43 00 00 00 08 10 05 09 	addiu $5,$9,4104
  4031a8:	43 00 00 00 02 04 04 00 	addiu $4,$0,1026
  4031b0:	43 00 00 00 01 02 02 02 	addiu $2,$2,513
  4031b8:	55 00 00 00 02 02 02 00 	sll $2,$2,0x2
  4031c0:	42 00 00 00 00 03 09 02 	addu $3,$2,$9
  4031c8:	2a 00 00 00 00 00 00 03 	l.s $f0,0($3)
  4031d0:	43 00 00 00 02 00 0a 00 	addiu $10,$0,2
  4031d8:	42 00 00 00 00 02 0c 02 	addu $2,$2,$12
  4031e0:	36 00 00 00 04 08 00 09 	s.s $f0,2052($9)
  4031e8:	36 00 00 00 00 00 02 02 	s.s $f2,0($2)
  4031f0:	a2 00 00 00 e1 10 02 00 	lui $2,4321
  4031f8:	28 00 00 00 00 2a 02 02 	lw $2,10752($2)
  403200:	5c 00 00 00 02 00 08 0b 	slti $8,$11,2
  403208:	2a 00 00 00 04 08 00 0d 	l.s $f0,2052($13)
  403210:	43 00 00 00 01 02 02 02 	addiu $2,$2,513
  403218:	55 00 00 00 02 02 02 00 	sll $2,$2,0x2
  403220:	42 00 00 00 00 02 0d 02 	addu $2,$2,$13
  403228:	36 00 00 00 00 00 00 02 	s.s $f0,0($2)
  403230:	06 00 00 00 64 00 00 08 	bne $8,$0,4033c8 <calc2_+0x708>
  403238:	a2 00 00 00 e1 10 02 00 	lui $2,4321
  403240:	28 00 00 00 00 2a 02 02 	lw $2,10752($2)
  403248:	42 00 00 00 00 02 02 04 	addu $2,$4,$2
  403250:	55 00 00 00 02 02 02 00 	sll $2,$2,0x2
  403258:	42 00 00 00 00 02 09 02 	addu $2,$2,$9
  403260:	2a 00 00 00 00 00 00 02 	l.s $f0,0($2)
  403268:	36 00 00 00 00 00 00 05 	s.s $f0,0($5)
  403270:	a2 00 00 00 e1 10 02 00 	lui $2,4321
  403278:	28 00 00 00 00 2a 02 02 	lw $2,10752($2)
  403280:	2a 00 00 00 00 00 00 06 	l.s $f0,0($6)
  403288:	42 00 00 00 00 02 02 04 	addu $2,$4,$2
  403290:	55 00 00 00 02 02 02 00 	sll $2,$2,0x2
  403298:	42 00 00 00 00 02 0c 02 	addu $2,$2,$12
  4032a0:	36 00 00 00 00 00 00 02 	s.s $f0,0($2)
  4032a8:	a2 00 00 00 e1 10 02 00 	lui $2,4321
  4032b0:	28 00 00 00 00 2a 02 02 	lw $2,10752($2)
  4032b8:	2a 00 00 00 00 00 00 07 	l.s $f0,0($7)
  4032c0:	42 00 00 00 00 02 02 04 	addu $2,$4,$2
  4032c8:	55 00 00 00 02 02 02 00 	sll $2,$2,0x2
  4032d0:	42 00 00 00 00 02 0d 02 	addu $2,$2,$13
  4032d8:	36 00 00 00 00 00 00 02 	s.s $f0,0($2)
  4032e0:	a2 00 00 00 e1 10 02 00 	lui $2,4321
  4032e8:	28 00 00 00 00 2a 02 02 	lw $2,10752($2)
  4032f0:	43 00 00 00 01 02 03 04 	addiu $3,$4,513
  4032f8:	43 00 00 00 02 00 0a 0a 	addiu $10,$10,2
  403300:	42 00 00 00 00 02 02 03 	addu $2,$3,$2
  403308:	55 00 00 00 02 02 02 00 	sll $2,$2,0x2
  403310:	42 00 00 00 00 02 09 02 	addu $2,$2,$9
  403318:	2a 00 00 00 00 00 00 02 	l.s $f0,0($2)
  403320:	5b 00 00 00 00 08 0a 0b 	slt $8,$11,$10
  403328:	43 00 00 00 02 04 04 04 	addiu $4,$4,1026
  403330:	36 00 00 00 04 08 00 05 	s.s $f0,2052($5)
  403338:	a2 00 00 00 e1 10 02 00 	lui $2,4321
  403340:	28 00 00 00 00 2a 02 02 	lw $2,10752($2)
  403348:	43 00 00 00 08 10 05 05 	addiu $5,$5,4104
  403350:	2a 00 00 00 04 08 00 06 	l.s $f0,2052($6)
  403358:	42 00 00 00 00 02 02 03 	addu $2,$3,$2
  403360:	55 00 00 00 02 02 02 00 	sll $2,$2,0x2
  403368:	42 00 00 00 00 02 0c 02 	addu $2,$2,$12
  403370:	36 00 00 00 00 00 00 02 	s.s $f0,0($2)
  403378:	2a 00 00 00 04 08 00 07 	l.s $f0,2052($7)
  403380:	a2 00 00 00 e1 10 02 00 	lui $2,4321
  403388:	28 00 00 00 00 2a 02 02 	lw $2,10752($2)
  403390:	43 00 00 00 08 10 06 06 	addiu $6,$6,4104
  403398:	43 00 00 00 08 10 07 07 	addiu $7,$7,4104
  4033a0:	42 00 00 00 00 03 02 03 	addu $3,$3,$2
  4033a8:	55 00 00 00 02 03 03 00 	sll $3,$3,0x2
  4033b0:	42 00 00 00 00 03 0d 03 	addu $3,$3,$13
  4033b8:	36 00 00 00 00 00 00 03 	s.s $f0,0($3)
  4033c0:	05 00 00 00 9c ff 00 08 	beq $8,$0,403238 <calc2_+0x578>
  4033c8:	a2 00 00 00 e1 10 0b 00 	lui $11,4321
  4033d0:	28 00 00 00 00 2a 0b 0b 	lw $11,10752($11)
  4033d8:	43 00 00 00 01 00 09 00 	addiu $9,$0,1
  4033e0:	07 00 00 00 d2 00 00 0b 	blez $11,403730 <calc2_+0xa70>
  4033e8:	a2 00 00 00 51 10 0d 00 	lui $13,4177
  4033f0:	43 00 00 00 b0 99 0d 0d 	addiu $13,$13,-26192
  4033f8:	43 00 00 00 04 00 07 0d 	addiu $7,$13,4
  403400:	a2 00 00 00 41 10 0c 00 	lui $12,4161
  403408:	43 00 00 00 ac 89 0c 0c 	addiu $12,$12,-30292
  403410:	43 00 00 00 04 00 06 0c 	addiu $6,$12,4
  403418:	a2 00 00 00 30 10 0a 00 	lui $10,4144
  403420:	43 00 00 00 ac 79 0a 0a 	addiu $10,$10,31148
  403428:	43 00 00 00 04 00 04 0a 	addiu $4,$10,4
  403430:	43 00 00 00 01 00 02 0b 	addiu $2,$11,1
  403438:	4f 00 00 00 01 00 03 0b 	andi $3,$11,1
  403440:	5b 00 00 00 00 02 02 09 	slt $2,$9,$2
  403448:	05 00 00 00 02 00 00 02 	beq $2,$0,403458 <calc2_+0x798>
  403450:	05 00 00 00 36 00 00 03 	beq $3,$0,403530 <calc2_+0x870>
  403458:	a2 00 00 00 e1 10 03 00 	lui $3,4321
  403460:	28 00 00 00 04 2a 03 03 	lw $3,10756($3)
  403468:	43 00 00 00 04 00 07 07 	addiu $7,$7,4
  403470:	2a 00 00 00 04 00 00 0a 	l.s $f0,4($10)
  403478:	43 00 00 00 04 00 06 06 	addiu $6,$6,4
  403480:	43 00 00 00 04 00 04 04 	addiu $4,$4,4
  403488:	55 00 00 00 09 02 03 00 	sll $2,$3,0x9
  403490:	42 00 00 00 00 02 03 02 	addu $2,$2,$3
  403498:	43 00 00 00 01 00 02 02 	addiu $2,$2,1
  4034a0:	55 00 00 00 02 02 02 00 	sll $2,$2,0x2
  4034a8:	42 00 00 00 00 02 0a 02 	addu $2,$2,$10
  4034b0:	36 00 00 00 00 00 00 02 	s.s $f0,0($2)
  4034b8:	a2 00 00 00 e1 10 03 00 	lui $3,4321
  4034c0:	28 00 00 00 04 2a 03 03 	lw $3,10756($3)
  4034c8:	43 00 00 00 02 00 09 00 	addiu $9,$0,2
  4034d0:	2a 00 00 00 04 00 02 0d 	l.s $f2,4($13)
  4034d8:	55 00 00 00 09 02 03 00 	sll $2,$3,0x9
  4034e0:	42 00 00 00 00 02 03 02 	addu $2,$2,$3
  4034e8:	43 00 00 00 01 00 02 02 	addiu $2,$2,1
  4034f0:	55 00 00 00 02 02 02 00 	sll $2,$2,0x2
  4034f8:	42 00 00 00 00 03 0c 02 	addu $3,$2,$12
  403500:	2a 00 00 00 00 00 00 03 	l.s $f0,0($3)
  403508:	5c 00 00 00 02 00 05 0b 	slti $5,$11,2
  403510:	42 00 00 00 00 02 0d 02 	addu $2,$2,$13
  403518:	36 00 00 00 04 00 00 0c 	s.s $f0,4($12)
  403520:	36 00 00 00 00 00 02 02 	s.s $f2,0($2)
  403528:	06 00 00 00 80 00 00 05 	bne $5,$0,403730 <calc2_+0xa70>
  403530:	42 00 00 00 00 08 07 00 	addu $8,$0,$7
  403538:	42 00 00 00 00 07 06 00 	addu $7,$0,$6
  403540:	42 00 00 00 00 06 04 00 	addu $6,$0,$4
  403548:	a2 00 00 00 e1 10 03 00 	lui $3,4321
  403550:	28 00 00 00 04 2a 03 03 	lw $3,10756($3)
  403558:	2a 00 00 00 00 00 00 06 	l.s $f0,0($6)
  403560:	55 00 00 00 09 02 03 00 	sll $2,$3,0x9
  403568:	42 00 00 00 00 02 03 02 	addu $2,$2,$3
  403570:	42 00 00 00 00 02 09 02 	addu $2,$2,$9
  403578:	55 00 00 00 02 02 02 00 	sll $2,$2,0x2
  403580:	42 00 00 00 00 02 0a 02 	addu $2,$2,$10
  403588:	36 00 00 00 00 00 00 02 	s.s $f0,0($2)
  403590:	a2 00 00 00 e1 10 03 00 	lui $3,4321
  403598:	28 00 00 00 04 2a 03 03 	lw $3,10756($3)
  4035a0:	55 00 00 00 09 02 03 00 	sll $2,$3,0x9
  4035a8:	42 00 00 00 00 02 03 02 	addu $2,$2,$3
  4035b0:	42 00 00 00 00 02 09 02 	addu $2,$2,$9
  4035b8:	55 00 00 00 02 02 02 00 	sll $2,$2,0x2
  4035c0:	42 00 00 00 00 02 0c 02 	addu $2,$2,$12
  4035c8:	2a 00 00 00 00 00 00 02 	l.s $f0,0($2)
  4035d0:	36 00 00 00 00 00 00 07 	s.s $f0,0($7)
  4035d8:	a2 00 00 00 e1 10 03 00 	lui $3,4321
  4035e0:	28 00 00 00 04 2a 03 03 	lw $3,10756($3)
  4035e8:	2a 00 00 00 00 00 00 08 	l.s $f0,0($8)
  4035f0:	55 00 00 00 09 02 03 00 	sll $2,$3,0x9
  4035f8:	42 00 00 00 00 02 03 02 	addu $2,$2,$3
  403600:	42 00 00 00 00 02 09 02 	addu $2,$2,$9
  403608:	55 00 00 00 02 02 02 00 	sll $2,$2,0x2
  403610:	42 00 00 00 00 02 0d 02 	addu $2,$2,$13
  403618:	36 00 00 00 00 00 00 02 	s.s $f0,0($2)
  403620:	a2 00 00 00 e1 10 03 00 	lui $3,4321
  403628:	28 00 00 00 04 2a 03 03 	lw $3,10756($3)
  403630:	43 00 00 00 01 00 04 09 	addiu $4,$9,1
  403638:	2a 00 00 00 04 00 00 06 	l.s $f0,4($6)
  403640:	55 00 00 00 09 02 03 00 	sll $2,$3,0x9
  403648:	42 00 00 00 00 02 03 02 	addu $2,$2,$3
  403650:	42 00 00 00 00 02 04 02 	addu $2,$2,$4
  403658:	55 00 00 00 02 02 02 00 	sll $2,$2,0x2
  403660:	42 00 00 00 00 02 0a 02 	addu $2,$2,$10
  403668:	36 00 00 00 00 00 00 02 	s.s $f0,0($2)
  403670:	a2 00 00 00 e1 10 03 00 	lui $3,4321
  403678:	28 00 00 00 04 2a 03 03 	lw $3,10756($3)
  403680:	43 00 00 00 02 00 09 09 	addiu $9,$9,2
  403688:	55 00 00 00 09 02 03 00 	sll $2,$3,0x9
  403690:	42 00 00 00 00 02 03 02 	addu $2,$2,$3
  403698:	42 00 00 00 00 02 04 02 	addu $2,$2,$4
  4036a0:	55 00 00 00 02 02 02 00 	sll $2,$2,0x2
  4036a8:	42 00 00 00 00 02 0c 02 	addu $2,$2,$12
  4036b0:	2a 00 00 00 00 00 00 02 	l.s $f0,0($2)
  4036b8:	5b 00 00 00 00 05 09 0b 	slt $5,$11,$9
  4036c0:	43 00 00 00 08 00 06 06 	addiu $6,$6,8
  4036c8:	36 00 00 00 04 00 00 07 	s.s $f0,4($7)
  4036d0:	2a 00 00 00 04 00 00 08 	l.s $f0,4($8)
  4036d8:	a2 00 00 00 e1 10 03 00 	lui $3,4321
  4036e0:	28 00 00 00 04 2a 03 03 	lw $3,10756($3)
  4036e8:	43 00 00 00 08 00 07 07 	addiu $7,$7,8
  4036f0:	43 00 00 00 08 00 08 08 	addiu $8,$8,8
  4036f8:	55 00 00 00 09 02 03 00 	sll $2,$3,0x9
  403700:	42 00 00 00 00 02 03 02 	addu $2,$2,$3
  403708:	42 00 00 00 00 02 04 02 	addu $2,$2,$4
  403710:	55 00 00 00 02 02 02 00 	sll $2,$2,0x2
  403718:	42 00 00 00 00 02 0d 02 	addu $2,$2,$13
  403720:	36 00 00 00 00 00 00 02 	s.s $f0,0($2)
  403728:	05 00 00 00 86 ff 00 05 	beq $5,$0,403548 <calc2_+0x888>
  403730:	a2 00 00 00 e1 10 04 00 	lui $4,4321
  403738:	28 00 00 00 04 2a 04 04 	lw $4,10756($4)
  403740:	a2 00 00 00 e1 10 03 00 	lui $3,4321
  403748:	28 00 00 00 00 2a 03 03 	lw $3,10752($3)
  403750:	55 00 00 00 09 02 04 00 	sll $2,$4,0x9
  403758:	42 00 00 00 00 02 04 02 	addu $2,$2,$4
  403760:	a2 00 00 00 30 10 04 00 	lui $4,4144
  403768:	43 00 00 00 ac 79 04 04 	addiu $4,$4,31148
  403770:	55 00 00 00 02 03 03 00 	sll $3,$3,0x2
  403778:	42 00 00 00 00 03 04 03 	addu $3,$3,$4
  403780:	2a 00 00 00 00 00 00 03 	l.s $f0,0($3)
  403788:	55 00 00 00 02 02 02 00 	sll $2,$2,0x2
  403790:	42 00 00 00 00 02 04 02 	addu $2,$2,$4
  403798:	36 00 00 00 00 00 00 02 	s.s $f0,0($2)
  4037a0:	a2 00 00 00 e1 10 04 00 	lui $4,4321
  4037a8:	28 00 00 00 04 2a 04 04 	lw $4,10756($4)
  4037b0:	a2 00 00 00 41 10 05 00 	lui $5,4161
  4037b8:	43 00 00 00 b0 89 05 05 	addiu $5,$5,-30288
  4037c0:	a2 00 00 00 e1 10 03 00 	lui $3,4321
  4037c8:	28 00 00 00 00 2a 03 03 	lw $3,10752($3)
  4037d0:	55 00 00 00 09 02 04 00 	sll $2,$4,0x9
  4037d8:	42 00 00 00 00 02 04 02 	addu $2,$2,$4
  4037e0:	55 00 00 00 02 02 02 00 	sll $2,$2,0x2
  4037e8:	42 00 00 00 00 02 05 02 	addu $2,$2,$5
  4037f0:	2a 00 00 00 00 00 00 02 	l.s $f0,0($2)
  4037f8:	55 00 00 00 02 03 03 00 	sll $3,$3,0x2
  403800:	42 00 00 00 00 03 05 03 	addu $3,$3,$5
  403808:	36 00 00 00 00 00 00 03 	s.s $f0,0($3)
  403810:	a2 00 00 00 e1 10 03 00 	lui $3,4321
  403818:	28 00 00 00 04 2a 03 03 	lw $3,10756($3)
  403820:	a2 00 00 00 e1 10 04 00 	lui $4,4321
  403828:	28 00 00 00 00 2a 04 04 	lw $4,10752($4)
  403830:	55 00 00 00 09 02 03 00 	sll $2,$3,0x9
  403838:	42 00 00 00 00 02 03 02 	addu $2,$2,$3
  403840:	42 00 00 00 00 02 04 02 	addu $2,$2,$4
  403848:	a2 00 00 00 51 10 03 00 	lui $3,4177
  403850:	43 00 00 00 b4 99 03 03 	addiu $3,$3,-26188
  403858:	2a 00 00 00 00 00 00 03 	l.s $f0,0($3)
  403860:	55 00 00 00 02 02 02 00 	sll $2,$2,0x2
  403868:	42 00 00 00 00 02 03 02 	addu $2,$2,$3
  403870:	36 00 00 00 00 00 00 02 	s.s $f0,0($2)
  403878:	42 00 00 00 00 02 00 00 	addu $2,$0,$0
  403880:	28 00 00 00 04 00 11 1d 	lw $17,4($29)
  403888:	28 00 00 00 00 00 10 1d 	lw $16,0($29)
  403890:	43 00 00 00 08 00 1d 1d 	addiu $29,$29,8
  403898:	03 00 00 00 00 00 00 1f 	jr $31

004038a0 <calc3z_>:
  4038a0:	43 00 00 00 e8 ff 1d 1d 	addiu $29,$29,-24
  4038a8:	a2 00 00 00 e1 10 02 00 	lui $2,4321
  4038b0:	43 00 00 00 e4 29 02 02 	addiu $2,$2,10724
  4038b8:	34 00 00 00 10 00 14 1d 	sw $20,16($29)
  4038c0:	34 00 00 00 0c 00 13 1d 	sw $19,12($29)
  4038c8:	34 00 00 00 08 00 12 1d 	sw $18,8($29)
  4038d0:	34 00 00 00 04 00 11 1d 	sw $17,4($29)
  4038d8:	34 00 00 00 00 00 10 1d 	sw $16,0($29)
  4038e0:	2a 00 00 00 00 00 00 02 	l.s $f0,0($2)
  4038e8:	70 00 00 00 00 00 00 00 	add.s $f0,$f0,$f0
  4038f0:	a2 00 00 00 e1 10 13 00 	lui $19,4321
  4038f8:	28 00 00 00 0c 2a 13 13 	lw $19,10764($19)
  403900:	43 00 00 00 01 00 12 00 	addiu $18,$0,1
  403908:	36 00 00 00 00 00 00 02 	s.s $f0,0($2)
  403910:	07 00 00 00 da 00 00 13 	blez $19,403c80 <calc3z_+0x3e0>
  403918:	43 00 00 00 24 00 14 02 	addiu $20,$2,36
  403920:	a2 00 00 00 61 10 11 00 	lui $17,4193
  403928:	43 00 00 00 b0 a1 11 11 	addiu $17,$17,-24144
  403930:	a2 00 00 00 00 10 10 00 	lui $16,4096
  403938:	43 00 00 00 98 41 10 10 	addiu $16,$16,16792
  403940:	a2 00 00 00 71 10 19 00 	lui $25,4209
  403948:	43 00 00 00 b4 b1 19 19 	addiu $25,$25,-20044
  403950:	a2 00 00 00 10 10 18 00 	lui $24,4112
  403958:	43 00 00 00 9c 51 18 18 	addiu $24,$24,20892
  403960:	a2 00 00 00 81 10 0f 00 	lui $15,4225
  403968:	43 00 00 00 b8 c1 0f 0f 	addiu $15,$15,-15944
  403970:	43 00 00 00 01 02 09 00 	addiu $9,$0,513
  403978:	28 00 00 00 00 00 08 14 	lw $8,0($20)
  403980:	43 00 00 00 01 00 07 00 	addiu $7,$0,1
  403988:	07 00 00 00 b4 00 00 08 	blez $8,403c60 <calc3z_+0x3c0>
  403990:	42 00 00 00 00 0a 09 00 	addu $10,$0,$9
  403998:	a2 00 00 00 20 10 0e 00 	lui $14,4128
  4039a0:	43 00 00 00 a0 61 0e 0e 	addiu $14,$14,24992
  4039a8:	a2 00 00 00 30 10 0d 00 	lui $13,4144
  4039b0:	43 00 00 00 a4 71 0d 0d 	addiu $13,$13,29092
  4039b8:	a2 00 00 00 41 10 0c 00 	lui $12,4161
  4039c0:	43 00 00 00 a8 81 0c 0c 	addiu $12,$12,-32344
  4039c8:	a2 00 00 00 51 10 0b 00 	lui $11,4177
  4039d0:	43 00 00 00 ac 91 0b 0b 	addiu $11,$11,-28244
  4039d8:	43 00 00 00 01 00 02 08 	addiu $2,$8,1
  4039e0:	4f 00 00 00 01 00 03 08 	andi $3,$8,1
  4039e8:	5b 00 00 00 00 02 02 07 	slt $2,$7,$2
  4039f0:	05 00 00 00 02 00 00 02 	beq $2,$0,403a00 <calc3z_+0x160>
  4039f8:	05 00 00 00 34 00 00 03 	beq $3,$0,403ad0 <calc3z_+0x230>
  403a00:	43 00 00 00 01 00 03 09 	addiu $3,$9,1
  403a08:	55 00 00 00 02 03 03 00 	sll $3,$3,0x2
  403a10:	42 00 00 00 00 05 10 03 	addu $5,$3,$16
  403a18:	2a 00 00 00 00 00 00 05 	l.s $f0,0($5)
  403a20:	42 00 00 00 00 02 11 03 	addu $2,$3,$17
  403a28:	42 00 00 00 00 04 18 03 	addu $4,$3,$24
  403a30:	36 00 00 00 00 00 00 02 	s.s $f0,0($2)
  403a38:	2a 00 00 00 00 00 00 04 	l.s $f0,0($4)
  403a40:	42 00 00 00 00 06 0e 03 	addu $6,$3,$14
  403a48:	42 00 00 00 00 02 19 03 	addu $2,$3,$25
  403a50:	36 00 00 00 00 00 00 02 	s.s $f0,0($2)
  403a58:	2a 00 00 00 00 00 00 06 	l.s $f0,0($6)
  403a60:	42 00 00 00 00 02 0f 03 	addu $2,$3,$15
  403a68:	36 00 00 00 00 00 00 02 	s.s $f0,0($2)
  403a70:	42 00 00 00 00 02 0d 03 	addu $2,$3,$13
  403a78:	2a 00 00 00 00 00 00 02 	l.s $f0,0($2)
  403a80:	42 00 00 00 00 02 0c 03 	addu $2,$3,$12
  403a88:	36 00 00 00 00 00 00 05 	s.s $f0,0($5)
  403a90:	2a 00 00 00 00 00 00 02 	l.s $f0,0($2)
  403a98:	42 00 00 00 00 03 0b 03 	addu $3,$3,$11
  403aa0:	36 00 00 00 00 00 00 04 	s.s $f0,0($4)
  403aa8:	2a 00 00 00 00 00 00 03 	l.s $f0,0($3)
  403ab0:	43 00 00 00 02 00 07 00 	addiu $7,$0,2
  403ab8:	5c 00 00 00 02 00 02 08 	slti $2,$8,2
  403ac0:	36 00 00 00 00 00 00 06 	s.s $f0,0($6)
  403ac8:	06 00 00 00 64 00 00 02 	bne $2,$0,403c60 <calc3z_+0x3c0>
  403ad0:	42 00 00 00 00 03 07 0a 	addu $3,$10,$7
  403ad8:	55 00 00 00 02 03 03 00 	sll $3,$3,0x2
  403ae0:	42 00 00 00 00 06 10 03 	addu $6,$3,$16
  403ae8:	2a 00 00 00 00 00 00 06 	l.s $f0,0($6)
  403af0:	42 00 00 00 00 02 11 03 	addu $2,$3,$17
  403af8:	42 00 00 00 00 05 18 03 	addu $5,$3,$24
  403b00:	36 00 00 00 00 00 00 02 	s.s $f0,0($2)
  403b08:	2a 00 00 00 00 00 00 05 	l.s $f0,0($5)
  403b10:	42 00 00 00 00 04 0e 03 	addu $4,$3,$14
  403b18:	42 00 00 00 00 02 19 03 	addu $2,$3,$25
  403b20:	36 00 00 00 00 00 00 02 	s.s $f0,0($2)
  403b28:	2a 00 00 00 00 00 00 04 	l.s $f0,0($4)
  403b30:	42 00 00 00 00 02 0f 03 	addu $2,$3,$15
  403b38:	36 00 00 00 00 00 00 02 	s.s $f0,0($2)
  403b40:	42 00 00 00 00 02 0d 03 	addu $2,$3,$13
  403b48:	2a 00 00 00 00 00 00 02 	l.s $f0,0($2)
  403b50:	42 00 00 00 00 02 0c 03 	addu $2,$3,$12
  403b58:	36 00 00 00 00 00 00 06 	s.s $f0,0($6)
  403b60:	2a 00 00 00 00 00 00 02 	l.s $f0,0($2)
  403b68:	42 00 00 00 00 03 0b 03 	addu $3,$3,$11
  403b70:	36 00 00 00 00 00 00 05 	s.s $f0,0($5)
  403b78:	2a 00 00 00 00 00 00 03 	l.s $f0,0($3)
  403b80:	43 00 00 00 01 00 03 07 	addiu $3,$7,1
  403b88:	42 00 00 00 00 03 03 0a 	addu $3,$10,$3
  403b90:	55 00 00 00 02 03 03 00 	sll $3,$3,0x2
  403b98:	42 00 00 00 00 05 10 03 	addu $5,$3,$16
  403ba0:	36 00 00 00 00 00 00 04 	s.s $f0,0($4)
  403ba8:	2a 00 00 00 00 00 00 05 	l.s $f0,0($5)
  403bb0:	42 00 00 00 00 02 11 03 	addu $2,$3,$17
  403bb8:	42 00 00 00 00 04 18 03 	addu $4,$3,$24
  403bc0:	36 00 00 00 00 00 00 02 	s.s $f0,0($2)
  403bc8:	2a 00 00 00 00 00 00 04 	l.s $f0,0($4)
  403bd0:	42 00 00 00 00 06 0e 03 	addu $6,$3,$14
  403bd8:	42 00 00 00 00 02 19 03 	addu $2,$3,$25
  403be0:	36 00 00 00 00 00 00 02 	s.s $f0,0($2)
  403be8:	2a 00 00 00 00 00 00 06 	l.s $f0,0($6)
  403bf0:	42 00 00 00 00 02 0f 03 	addu $2,$3,$15
  403bf8:	36 00 00 00 00 00 00 02 	s.s $f0,0($2)
  403c00:	42 00 00 00 00 02 0d 03 	addu $2,$3,$13
  403c08:	2a 00 00 00 00 00 00 02 	l.s $f0,0($2)
  403c10:	42 00 00 00 00 02 0c 03 	addu $2,$3,$12
  403c18:	36 00 00 00 00 00 00 05 	s.s $f0,0($5)
  403c20:	2a 00 00 00 00 00 00 02 	l.s $f0,0($2)
  403c28:	42 00 00 00 00 03 0b 03 	addu $3,$3,$11
  403c30:	36 00 00 00 00 00 00 04 	s.s $f0,0($4)
  403c38:	2a 00 00 00 00 00 00 03 	l.s $f0,0($3)
  403c40:	43 00 00 00 02 00 07 07 	addiu $7,$7,2
  403c48:	5b 00 00 00 00 02 07 08 	slt $2,$8,$7
  403c50:	36 00 00 00 00 00 00 06 	s.s $f0,0($6)
  403c58:	05 00 00 00 9c ff 00 02 	beq $2,$0,403ad0 <calc3z_+0x230>
  403c60:	43 00 00 00 01 02 09 09 	addiu $9,$9,513
  403c68:	43 00 00 00 01 00 12 12 	addiu $18,$18,1
  403c70:	5b 00 00 00 00 02 12 13 	slt $2,$19,$18
  403c78:	05 00 00 00 3e ff 00 02 	beq $2,$0,403978 <calc3z_+0xd8>
  403c80:	42 00 00 00 00 02 00 00 	addu $2,$0,$0
  403c88:	28 00 00 00 10 00 14 1d 	lw $20,16($29)
  403c90:	28 00 00 00 0c 00 13 1d 	lw $19,12($29)
  403c98:	28 00 00 00 08 00 12 1d 	lw $18,8($29)
  403ca0:	28 00 00 00 04 00 11 1d 	lw $17,4($29)
  403ca8:	28 00 00 00 00 00 10 1d 	lw $16,0($29)
  403cb0:	43 00 00 00 18 00 1d 1d 	addiu $29,$29,24
  403cb8:	03 00 00 00 00 00 00 1f 	jr $31

00403cc0 <calc3_>:
  403cc0:	43 00 00 00 e0 ff 1d 1d 	addiu $29,$29,-32
  403cc8:	a2 00 00 00 e1 10 02 00 	lui $2,4321
  403cd0:	43 00 00 00 04 2a 02 02 	addiu $2,$2,10756
  403cd8:	34 00 00 00 1c 00 17 1d 	sw $23,28($29)
  403ce0:	34 00 00 00 18 00 16 1d 	sw $22,24($29)
  403ce8:	34 00 00 00 14 00 15 1d 	sw $21,20($29)
  403cf0:	34 00 00 00 10 00 14 1d 	sw $20,16($29)
  403cf8:	34 00 00 00 0c 00 13 1d 	sw $19,12($29)
  403d00:	34 00 00 00 08 00 12 1d 	sw $18,8($29)
  403d08:	34 00 00 00 04 00 11 1d 	sw $17,4($29)
  403d10:	34 00 00 00 00 00 10 1d 	sw $16,0($29)
  403d18:	28 00 00 00 00 00 0f 02 	lw $15,0($2)
  403d20:	43 00 00 00 01 00 0a 00 	addiu $10,$0,1
  403d28:	07 00 00 00 9e 00 00 0f 	blez $15,403fa8 <calc3_+0x2e8>
  403d30:	43 00 00 00 fc ff 17 02 	addiu $23,$2,-4
  403d38:	a2 00 00 00 61 10 16 00 	lui $22,4193
  403d40:	43 00 00 00 b0 a1 16 16 	addiu $22,$22,-24144
  403d48:	a2 00 00 00 00 10 15 00 	lui $21,4096
  403d50:	43 00 00 00 98 41 15 15 	addiu $21,$21,16792
  403d58:	43 00 00 00 f0 ff 0c 02 	addiu $12,$2,-16
  403d60:	a2 00 00 00 30 10 14 00 	lui $20,4144
  403d68:	43 00 00 00 a4 71 14 14 	addiu $20,$20,29092
  403d70:	a2 00 00 00 71 10 13 00 	lui $19,4209
  403d78:	43 00 00 00 b4 b1 13 13 	addiu $19,$19,-20044
  403d80:	a2 00 00 00 10 10 12 00 	lui $18,4112
  403d88:	43 00 00 00 9c 51 12 12 	addiu $18,$18,20892
  403d90:	43 00 00 00 01 02 0d 00 	addiu $13,$0,513
  403d98:	28 00 00 00 00 00 0b 17 	lw $11,0($23)
  403da0:	43 00 00 00 01 00 09 00 	addiu $9,$0,1
  403da8:	07 00 00 00 76 00 00 0b 	blez $11,403f88 <calc3_+0x2c8>
  403db0:	42 00 00 00 00 0e 0d 00 	addu $14,$0,$13
  403db8:	a2 00 00 00 41 10 11 00 	lui $17,4161
  403dc0:	43 00 00 00 a8 81 11 11 	addiu $17,$17,-32344
  403dc8:	a2 00 00 00 81 10 10 00 	lui $16,4225
  403dd0:	43 00 00 00 b8 c1 10 10 	addiu $16,$16,-15944
  403dd8:	a2 00 00 00 20 10 19 00 	lui $25,4128
  403de0:	43 00 00 00 a0 61 19 19 	addiu $25,$25,24992
  403de8:	a2 00 00 00 51 10 18 00 	lui $24,4177
  403df0:	43 00 00 00 ac 91 18 18 	addiu $24,$24,-28244
  403df8:	42 00 00 00 00 02 09 0e 	addu $2,$14,$9
  403e00:	55 00 00 00 02 02 02 00 	sll $2,$2,0x2
  403e08:	42 00 00 00 00 08 15 02 	addu $8,$2,$21
  403e10:	2a 00 00 00 00 00 04 08 	l.s $f4,0($8)
  403e18:	42 00 00 00 00 07 14 02 	addu $7,$2,$20
  403e20:	70 00 00 00 00 00 04 04 	add.s $f0,$f4,$f4
  403e28:	2a 00 00 00 00 00 02 07 	l.s $f2,0($7)
  403e30:	72 00 00 00 00 02 00 02 	sub.s $f2,$f2,$f0
  403e38:	42 00 00 00 00 03 16 02 	addu $3,$2,$22
  403e40:	2a 00 00 00 00 00 00 03 	l.s $f0,0($3)
  403e48:	70 00 00 00 00 02 00 02 	add.s $f2,$f2,$f0
  403e50:	2a 00 00 00 00 00 00 0c 	l.s $f0,0($12)
  403e58:	74 00 00 00 00 00 02 00 	mul.s $f0,$f0,$f2
  403e60:	70 00 00 00 00 04 00 04 	add.s $f4,$f4,$f0
  403e68:	42 00 00 00 00 06 12 02 	addu $6,$2,$18
  403e70:	36 00 00 00 00 00 04 03 	s.s $f4,0($3)
  403e78:	2a 00 00 00 00 00 04 06 	l.s $f4,0($6)
  403e80:	42 00 00 00 00 05 11 02 	addu $5,$2,$17
  403e88:	70 00 00 00 00 00 04 04 	add.s $f0,$f4,$f4
  403e90:	2a 00 00 00 00 00 02 05 	l.s $f2,0($5)
  403e98:	72 00 00 00 00 02 00 02 	sub.s $f2,$f2,$f0
  403ea0:	42 00 00 00 00 03 13 02 	addu $3,$2,$19
  403ea8:	2a 00 00 00 00 00 00 03 	l.s $f0,0($3)
  403eb0:	70 00 00 00 00 02 00 02 	add.s $f2,$f2,$f0
  403eb8:	2a 00 00 00 00 00 00 0c 	l.s $f0,0($12)
  403ec0:	74 00 00 00 00 00 02 00 	mul.s $f0,$f0,$f2
  403ec8:	70 00 00 00 00 04 00 04 	add.s $f4,$f4,$f0
  403ed0:	42 00 00 00 00 04 19 02 	addu $4,$2,$25
  403ed8:	36 00 00 00 00 00 04 03 	s.s $f4,0($3)
  403ee0:	2a 00 00 00 00 00 04 04 	l.s $f4,0($4)
  403ee8:	42 00 00 00 00 03 18 02 	addu $3,$2,$24
  403ef0:	70 00 00 00 00 00 04 04 	add.s $f0,$f4,$f4
  403ef8:	2a 00 00 00 00 00 02 03 	l.s $f2,0($3)
  403f00:	72 00 00 00 00 02 00 02 	sub.s $f2,$f2,$f0
  403f08:	42 00 00 00 00 02 10 02 	addu $2,$2,$16
  403f10:	2a 00 00 00 00 00 00 02 	l.s $f0,0($2)
  403f18:	70 00 00 00 00 02 00 02 	add.s $f2,$f2,$f0
  403f20:	2a 00 00 00 00 00 00 0c 	l.s $f0,0($12)
  403f28:	74 00 00 00 00 00 02 00 	mul.s $f0,$f0,$f2
  403f30:	70 00 00 00 00 04 00 04 	add.s $f4,$f4,$f0
  403f38:	36 00 00 00 00 00 04 02 	s.s $f4,0($2)
  403f40:	2a 00 00 00 00 00 00 07 	l.s $f0,0($7)
  403f48:	36 00 00 00 00 00 00 08 	s.s $f0,0($8)
  403f50:	2a 00 00 00 00 00 00 05 	l.s $f0,0($5)
  403f58:	36 00 00 00 00 00 00 06 	s.s $f0,0($6)
  403f60:	2a 00 00 00 00 00 00 03 	l.s $f0,0($3)
  403f68:	43 00 00 00 01 00 09 09 	addiu $9,$9,1
  403f70:	5b 00 00 00 00 02 09 0b 	slt $2,$11,$9
  403f78:	36 00 00 00 00 00 00 04 	s.s $f0,0($4)
  403f80:	05 00 00 00 9c ff 00 02 	beq $2,$0,403df8 <calc3_+0x138>
  403f88:	43 00 00 00 01 02 0d 0d 	addiu $13,$13,513
  403f90:	43 00 00 00 01 00 0a 0a 	addiu $10,$10,1
  403f98:	5b 00 00 00 00 02 0a 0f 	slt $2,$15,$10
  403fa0:	05 00 00 00 7c ff 00 02 	beq $2,$0,403d98 <calc3_+0xd8>
  403fa8:	a2 00 00 00 e1 10 0b 00 	lui $11,4321
  403fb0:	28 00 00 00 04 2a 0b 0b 	lw $11,10756($11)
  403fb8:	43 00 00 00 01 00 0a 00 	addiu $10,$0,1
  403fc0:	07 00 00 00 8e 00 00 0b 	blez $11,404200 <calc3_+0x540>
  403fc8:	a2 00 00 00 20 10 11 00 	lui $17,4128
  403fd0:	43 00 00 00 a4 61 11 11 	addiu $17,$17,24996
  403fd8:	43 00 00 00 04 08 09 11 	addiu $9,$17,2052
  403fe0:	a2 00 00 00 10 10 10 00 	lui $16,4112
  403fe8:	43 00 00 00 a0 51 10 10 	addiu $16,$16,20896
  403ff0:	43 00 00 00 04 08 08 10 	addiu $8,$16,2052
  403ff8:	a2 00 00 00 00 10 0f 00 	lui $15,4096
  404000:	43 00 00 00 9c 41 0f 0f 	addiu $15,$15,16796
  404008:	43 00 00 00 04 08 07 0f 	addiu $7,$15,2052
  404010:	a2 00 00 00 81 10 0e 00 	lui $14,4225
  404018:	43 00 00 00 bc c1 0e 0e 	addiu $14,$14,-15940
  404020:	43 00 00 00 04 08 06 0e 	addiu $6,$14,2052
  404028:	a2 00 00 00 71 10 0d 00 	lui $13,4209
  404030:	43 00 00 00 b8 b1 0d 0d 	addiu $13,$13,-20040
  404038:	43 00 00 00 04 08 05 0d 	addiu $5,$13,2052
  404040:	a2 00 00 00 61 10 0c 00 	lui $12,4193
  404048:	43 00 00 00 b4 a1 0c 0c 	addiu $12,$12,-24140
  404050:	43 00 00 00 04 08 04 0c 	addiu $4,$12,2052
  404058:	43 00 00 00 01 02 03 00 	addiu $3,$0,513
  404060:	a2 00 00 00 e1 10 02 00 	lui $2,4321
  404068:	28 00 00 00 00 2a 02 02 	lw $2,10752($2)
  404070:	2a 00 00 00 00 00 00 04 	l.s $f0,0($4)
  404078:	43 00 00 00 01 00 0a 0a 	addiu $10,$10,1
  404080:	42 00 00 00 00 02 02 03 	addu $2,$3,$2
  404088:	55 00 00 00 02 02 02 00 	sll $2,$2,0x2
  404090:	42 00 00 00 00 02 0c 02 	addu $2,$2,$12
  404098:	36 00 00 00 00 00 00 02 	s.s $f0,0($2)
  4040a0:	a2 00 00 00 e1 10 02 00 	lui $2,4321
  4040a8:	28 00 00 00 00 2a 02 02 	lw $2,10752($2)
  4040b0:	2a 00 00 00 00 00 00 05 	l.s $f0,0($5)
  4040b8:	43 00 00 00 04 08 04 04 	addiu $4,$4,2052
  4040c0:	42 00 00 00 00 02 02 03 	addu $2,$3,$2
  4040c8:	55 00 00 00 02 02 02 00 	sll $2,$2,0x2
  4040d0:	42 00 00 00 00 02 0d 02 	addu $2,$2,$13
  4040d8:	36 00 00 00 00 00 00 02 	s.s $f0,0($2)
  4040e0:	a2 00 00 00 e1 10 02 00 	lui $2,4321
  4040e8:	28 00 00 00 00 2a 02 02 	lw $2,10752($2)
  4040f0:	2a 00 00 00 00 00 00 06 	l.s $f0,0($6)
  4040f8:	43 00 00 00 04 08 05 05 	addiu $5,$5,2052
  404100:	42 00 00 00 00 02 02 03 	addu $2,$3,$2
  404108:	55 00 00 00 02 02 02 00 	sll $2,$2,0x2
  404110:	42 00 00 00 00 02 0e 02 	addu $2,$2,$14
  404118:	36 00 00 00 00 00 00 02 	s.s $f0,0($2)
  404120:	a2 00 00 00 e1 10 02 00 	lui $2,4321
  404128:	28 00 00 00 00 2a 02 02 	lw $2,10752($2)
  404130:	2a 00 00 00 00 00 00 07 	l.s $f0,0($7)
  404138:	43 00 00 00 04 08 06 06 	addiu $6,$6,2052
  404140:	42 00 00 00 00 02 02 03 	addu $2,$3,$2
  404148:	55 00 00 00 02 02 02 00 	sll $2,$2,0x2
  404150:	42 00 00 00 00 02 0f 02 	addu $2,$2,$15
  404158:	36 00 00 00 00 00 00 02 	s.s $f0,0($2)
  404160:	a2 00 00 00 e1 10 02 00 	lui $2,4321
  404168:	28 00 00 00 00 2a 02 02 	lw $2,10752($2)
  404170:	43 00 00 00 04 08 07 07 	addiu $7,$7,2052
  404178:	2a 00 00 00 00 00 00 08 	l.s $f0,0($8)
  404180:	42 00 00 00 00 02 02 03 	addu $2,$3,$2
  404188:	55 00 00 00 02 02 02 00 	sll $2,$2,0x2
  404190:	42 00 00 00 00 02 10 02 	addu $2,$2,$16
  404198:	36 00 00 00 00 00 00 02 	s.s $f0,0($2)
  4041a0:	2a 00 00 00 00 00 00 09 	l.s $f0,0($9)
  4041a8:	a2 00 00 00 e1 10 02 00 	lui $2,4321
  4041b0:	28 00 00 00 00 2a 02 02 	lw $2,10752($2)
  4041b8:	43 00 00 00 04 08 08 08 	addiu $8,$8,2052
  4041c0:	43 00 00 00 04 08 09 09 	addiu $9,$9,2052
  4041c8:	42 00 00 00 00 02 02 03 	addu $2,$3,$2
  4041d0:	43 00 00 00 01 02 03 03 	addiu $3,$3,513
  4041d8:	55 00 00 00 02 02 02 00 	sll $2,$2,0x2
  4041e0:	42 00 00 00 00 02 11 02 	addu $2,$2,$17
  4041e8:	36 00 00 00 00 00 00 02 	s.s $f0,0($2)
  4041f0:	5b 00 00 00 00 02 0a 0b 	slt $2,$11,$10
  4041f8:	05 00 00 00 98 ff 00 02 	beq $2,$0,404060 <calc3_+0x3a0>
  404200:	a2 00 00 00 e1 10 0b 00 	lui $11,4321
  404208:	28 00 00 00 00 2a 0b 0b 	lw $11,10752($11)
  404210:	43 00 00 00 01 00 09 00 	addiu $9,$0,1
  404218:	07 00 00 00 a2 00 00 0b 	blez $11,4044a8 <calc3_+0x7e8>
  404220:	a2 00 00 00 20 10 11 00 	lui $17,4128
  404228:	43 00 00 00 a4 69 11 11 	addiu $17,$17,27044
  404230:	43 00 00 00 04 00 0a 11 	addiu $10,$17,4
  404238:	a2 00 00 00 10 10 10 00 	lui $16,4112
  404240:	43 00 00 00 a0 59 10 10 	addiu $16,$16,22944
  404248:	43 00 00 00 04 00 08 10 	addiu $8,$16,4
  404250:	a2 00 00 00 00 10 0f 00 	lui $15,4096
  404258:	43 00 00 00 9c 49 0f 0f 	addiu $15,$15,18844
  404260:	43 00 00 00 04 00 07 0f 	addiu $7,$15,4
  404268:	a2 00 00 00 81 10 0e 00 	lui $14,4225
  404270:	43 00 00 00 bc c9 0e 0e 	addiu $14,$14,-13892
  404278:	43 00 00 00 04 00 06 0e 	addiu $6,$14,4
  404280:	a2 00 00 00 71 10 0d 00 	lui $13,4209
  404288:	43 00 00 00 b8 b9 0d 0d 	addiu $13,$13,-17992
  404290:	43 00 00 00 04 00 05 0d 	addiu $5,$13,4
  404298:	a2 00 00 00 61 10 0c 00 	lui $12,4193
  4042a0:	43 00 00 00 b4 a9 0c 0c 	addiu $12,$12,-22092
  4042a8:	43 00 00 00 04 00 04 0c 	addiu $4,$12,4
  4042b0:	a2 00 00 00 e1 10 03 00 	lui $3,4321
  4042b8:	28 00 00 00 04 2a 03 03 	lw $3,10756($3)
  4042c0:	2a 00 00 00 00 00 00 04 	l.s $f0,0($4)
  4042c8:	55 00 00 00 09 02 03 00 	sll $2,$3,0x9
  4042d0:	42 00 00 00 00 02 03 02 	addu $2,$2,$3
  4042d8:	42 00 00 00 00 02 09 02 	addu $2,$2,$9
  4042e0:	55 00 00 00 02 02 02 00 	sll $2,$2,0x2
  4042e8:	42 00 00 00 00 02 0c 02 	addu $2,$2,$12
  4042f0:	36 00 00 00 00 00 00 02 	s.s $f0,0($2)
  4042f8:	a2 00 00 00 e1 10 03 00 	lui $3,4321
  404300:	28 00 00 00 04 2a 03 03 	lw $3,10756($3)
  404308:	2a 00 00 00 00 00 00 05 	l.s $f0,0($5)
  404310:	43 00 00 00 04 00 04 04 	addiu $4,$4,4
  404318:	55 00 00 00 09 02 03 00 	sll $2,$3,0x9
  404320:	42 00 00 00 00 02 03 02 	addu $2,$2,$3
  404328:	42 00 00 00 00 02 09 02 	addu $2,$2,$9
  404330:	55 00 00 00 02 02 02 00 	sll $2,$2,0x2
  404338:	42 00 00 00 00 02 0d 02 	addu $2,$2,$13
  404340:	36 00 00 00 00 00 00 02 	s.s $f0,0($2)
  404348:	a2 00 00 00 e1 10 03 00 	lui $3,4321
  404350:	28 00 00 00 04 2a 03 03 	lw $3,10756($3)
  404358:	2a 00 00 00 00 00 00 06 	l.s $f0,0($6)
  404360:	43 00 00 00 04 00 05 05 	addiu $5,$5,4
  404368:	55 00 00 00 09 02 03 00 	sll $2,$3,0x9
  404370:	42 00 00 00 00 02 03 02 	addu $2,$2,$3
  404378:	42 00 00 00 00 02 09 02 	addu $2,$2,$9
  404380:	55 00 00 00 02 02 02 00 	sll $2,$2,0x2
  404388:	42 00 00 00 00 02 0e 02 	addu $2,$2,$14
  404390:	36 00 00 00 00 00 00 02 	s.s $f0,0($2)
  404398:	a2 00 00 00 e1 10 03 00 	lui $3,4321
  4043a0:	28 00 00 00 04 2a 03 03 	lw $3,10756($3)
  4043a8:	2a 00 00 00 00 00 00 07 	l.s $f0,0($7)
  4043b0:	43 00 00 00 04 00 06 06 	addiu $6,$6,4
  4043b8:	55 00 00 00 09 02 03 00 	sll $2,$3,0x9
  4043c0:	42 00 00 00 00 02 03 02 	addu $2,$2,$3
  4043c8:	42 00 00 00 00 02 09 02 	addu $2,$2,$9
  4043d0:	55 00 00 00 02 02 02 00 	sll $2,$2,0x2
  4043d8:	42 00 00 00 00 02 0f 02 	addu $2,$2,$15
  4043e0:	36 00 00 00 00 00 00 02 	s.s $f0,0($2)
  4043e8:	a2 00 00 00 e1 10 03 00 	lui $3,4321
  4043f0:	28 00 00 00 04 2a 03 03 	lw $3,10756($3)
  4043f8:	43 00 00 00 04 00 07 07 	addiu $7,$7,4
  404400:	2a 00 00 00 00 00 00 08 	l.s $f0,0($8)
  404408:	55 00 00 00 09 02 03 00 	sll $2,$3,0x9
  404410:	42 00 00 00 00 02 03 02 	addu $2,$2,$3
  404418:	42 00 00 00 00 02 09 02 	addu $2,$2,$9
  404420:	55 00 00 00 02 02 02 00 	sll $2,$2,0x2
  404428:	42 00 00 00 00 02 10 02 	addu $2,$2,$16
  404430:	36 00 00 00 00 00 00 02 	s.s $f0,0($2)
  404438:	2a 00 00 00 00 00 00 0a 	l.s $f0,0($10)
  404440:	a2 00 00 00 e1 10 03 00 	lui $3,4321
  404448:	28 00 00 00 04 2a 03 03 	lw $3,10756($3)
  404450:	43 00 00 00 04 00 08 08 	addiu $8,$8,4
  404458:	43 00 00 00 04 00 0a 0a 	addiu $10,$10,4
  404460:	55 00 00 00 09 02 03 00 	sll $2,$3,0x9
  404468:	42 00 00 00 00 02 03 02 	addu $2,$2,$3
  404470:	42 00 00 00 00 02 09 02 	addu $2,$2,$9
  404478:	43 00 00 00 01 00 09 09 	addiu $9,$9,1
  404480:	55 00 00 00 02 02 02 00 	sll $2,$2,0x2
  404488:	42 00 00 00 00 02 11 02 	addu $2,$2,$17
  404490:	36 00 00 00 00 00 00 02 	s.s $f0,0($2)
  404498:	5b 00 00 00 00 02 09 0b 	slt $2,$11,$9
  4044a0:	05 00 00 00 82 ff 00 02 	beq $2,$0,4042b0 <calc3_+0x5f0>
  4044a8:	a2 00 00 00 e1 10 03 00 	lui $3,4321
  4044b0:	28 00 00 00 04 2a 03 03 	lw $3,10756($3)
  4044b8:	a2 00 00 00 e1 10 04 00 	lui $4,4321
  4044c0:	28 00 00 00 00 2a 04 04 	lw $4,10752($4)
  4044c8:	55 00 00 00 09 02 03 00 	sll $2,$3,0x9
  4044d0:	42 00 00 00 00 02 03 02 	addu $2,$2,$3
  4044d8:	42 00 00 00 00 02 04 02 	addu $2,$2,$4
  4044e0:	a2 00 00 00 61 10 03 00 	lui $3,4193
  4044e8:	43 00 00 00 b8 a9 03 03 	addiu $3,$3,-22088
  4044f0:	2a 00 00 00 00 00 00 03 	l.s $f0,0($3)
  4044f8:	55 00 00 00 02 02 02 00 	sll $2,$2,0x2
  404500:	42 00 00 00 00 02 03 02 	addu $2,$2,$3
  404508:	36 00 00 00 00 00 00 02 	s.s $f0,0($2)
  404510:	a2 00 00 00 e1 10 03 00 	lui $3,4321
  404518:	28 00 00 00 04 2a 03 03 	lw $3,10756($3)
  404520:	a2 00 00 00 e1 10 04 00 	lui $4,4321
  404528:	28 00 00 00 00 2a 04 04 	lw $4,10752($4)
  404530:	55 00 00 00 09 02 03 00 	sll $2,$3,0x9
  404538:	42 00 00 00 00 02 03 02 	addu $2,$2,$3
  404540:	42 00 00 00 00 02 04 02 	addu $2,$2,$4
  404548:	a2 00 00 00 71 10 03 00 	lui $3,4209
  404550:	43 00 00 00 bc b9 03 03 	addiu $3,$3,-17988
  404558:	2a 00 00 00 00 00 00 03 	l.s $f0,0($3)
  404560:	55 00 00 00 02 02 02 00 	sll $2,$2,0x2
  404568:	42 00 00 00 00 02 03 02 	addu $2,$2,$3
  404570:	36 00 00 00 00 00 00 02 	s.s $f0,0($2)
  404578:	a2 00 00 00 e1 10 03 00 	lui $3,4321
  404580:	28 00 00 00 04 2a 03 03 	lw $3,10756($3)
  404588:	a2 00 00 00 e1 10 04 00 	lui $4,4321
  404590:	28 00 00 00 00 2a 04 04 	lw $4,10752($4)
  404598:	55 00 00 00 09 02 03 00 	sll $2,$3,0x9
  4045a0:	42 00 00 00 00 02 03 02 	addu $2,$2,$3
  4045a8:	42 00 00 00 00 02 04 02 	addu $2,$2,$4
  4045b0:	a2 00 00 00 81 10 03 00 	lui $3,4225
  4045b8:	43 00 00 00 c0 c9 03 03 	addiu $3,$3,-13888
  4045c0:	2a 00 00 00 00 00 00 03 	l.s $f0,0($3)
  4045c8:	55 00 00 00 02 02 02 00 	sll $2,$2,0x2
  4045d0:	42 00 00 00 00 02 03 02 	addu $2,$2,$3
  4045d8:	36 00 00 00 00 00 00 02 	s.s $f0,0($2)
  4045e0:	a2 00 00 00 e1 10 03 00 	lui $3,4321
  4045e8:	28 00 00 00 04 2a 03 03 	lw $3,10756($3)
  4045f0:	a2 00 00 00 e1 10 04 00 	lui $4,4321
  4045f8:	28 00 00 00 00 2a 04 04 	lw $4,10752($4)
  404600:	55 00 00 00 09 02 03 00 	sll $2,$3,0x9
  404608:	42 00 00 00 00 02 03 02 	addu $2,$2,$3
  404610:	42 00 00 00 00 02 04 02 	addu $2,$2,$4
  404618:	a2 00 00 00 00 10 03 00 	lui $3,4096
  404620:	43 00 00 00 a0 49 03 03 	addiu $3,$3,18848
  404628:	2a 00 00 00 00 00 00 03 	l.s $f0,0($3)
  404630:	55 00 00 00 02 02 02 00 	sll $2,$2,0x2
  404638:	42 00 00 00 00 02 03 02 	addu $2,$2,$3
  404640:	36 00 00 00 00 00 00 02 	s.s $f0,0($2)
  404648:	a2 00 00 00 e1 10 03 00 	lui $3,4321
  404650:	28 00 00 00 04 2a 03 03 	lw $3,10756($3)
  404658:	a2 00 00 00 e1 10 04 00 	lui $4,4321
  404660:	28 00 00 00 00 2a 04 04 	lw $4,10752($4)
  404668:	55 00 00 00 09 02 03 00 	sll $2,$3,0x9
  404670:	42 00 00 00 00 02 03 02 	addu $2,$2,$3
  404678:	42 00 00 00 00 02 04 02 	addu $2,$2,$4
  404680:	a2 00 00 00 10 10 03 00 	lui $3,4112
  404688:	43 00 00 00 a4 59 03 03 	addiu $3,$3,22948
  404690:	2a 00 00 00 00 00 00 03 	l.s $f0,0($3)
  404698:	55 00 00 00 02 02 02 00 	sll $2,$2,0x2
  4046a0:	42 00 00 00 00 02 03 02 	addu $2,$2,$3
  4046a8:	36 00 00 00 00 00 00 02 	s.s $f0,0($2)
  4046b0:	a2 00 00 00 e1 10 03 00 	lui $3,4321
  4046b8:	28 00 00 00 04 2a 03 03 	lw $3,10756($3)
  4046c0:	a2 00 00 00 e1 10 04 00 	lui $4,4321
  4046c8:	28 00 00 00 00 2a 04 04 	lw $4,10752($4)
  4046d0:	55 00 00 00 09 02 03 00 	sll $2,$3,0x9
  4046d8:	42 00 00 00 00 02 03 02 	addu $2,$2,$3
  4046e0:	42 00 00 00 00 02 04 02 	addu $2,$2,$4
  4046e8:	a2 00 00 00 20 10 03 00 	lui $3,4128
  4046f0:	43 00 00 00 a8 69 03 03 	addiu $3,$3,27048
  4046f8:	2a 00 00 00 00 00 00 03 	l.s $f0,0($3)
  404700:	55 00 00 00 02 02 02 00 	sll $2,$2,0x2
  404708:	42 00 00 00 00 02 03 02 	addu $2,$2,$3
  404710:	36 00 00 00 00 00 00 02 	s.s $f0,0($2)
  404718:	42 00 00 00 00 02 00 00 	addu $2,$0,$0
  404720:	28 00 00 00 1c 00 17 1d 	lw $23,28($29)
  404728:	28 00 00 00 18 00 16 1d 	lw $22,24($29)
  404730:	28 00 00 00 14 00 15 1d 	lw $21,20($29)
  404738:	28 00 00 00 10 00 14 1d 	lw $20,16($29)
  404740:	28 00 00 00 0c 00 13 1d 	lw $19,12($29)
  404748:	28 00 00 00 08 00 12 1d 	lw $18,8($29)
  404750:	28 00 00 00 04 00 11 1d 	lw $17,4($29)
  404758:	28 00 00 00 00 00 10 1d 	lw $16,0($29)
  404760:	43 00 00 00 20 00 1d 1d 	addiu $29,$29,32
  404768:	03 00 00 00 00 00 00 1f 	jr $31

00404770 <shalow_>:
  404770:	43 00 00 00 e8 ff 1d 1d 	addiu $29,$29,-24
  404778:	34 00 00 00 10 00 1f 1d 	sw $31,16($29)
  404780:	02 00 00 00 7c 00 10 00 	jal 4001f0 <MAIN__>
  404788:	42 00 00 00 00 02 00 00 	addu $2,$0,$0
  404790:	28 00 00 00 10 00 1f 1d 	lw $31,16($29)
  404798:	43 00 00 00 18 00 1d 1d 	addiu $29,$29,24
  4047a0:	03 00 00 00 00 00 00 1f 	jr $31
	...

004047b0 <__libc_init>:
  4047b0:	43 00 00 00 e8 ff 1d 1d 	addiu $29,$29,-24
  4047b8:	34 00 00 00 10 00 1f 1d 	sw $31,16($29)
  4047c0:	02 00 00 00 f0 2f 10 00 	jal 40bfc0 <__init_misc>
  4047c8:	28 00 00 00 10 00 1f 1d 	lw $31,16($29)
  4047d0:	43 00 00 00 18 00 1d 1d 	addiu $29,$29,24
  4047d8:	03 00 00 00 00 00 00 1f 	jr $31

004047e0 <main>:
  4047e0:	43 00 00 00 e0 ff 1d 1d 	addiu $29,$29,-32
  4047e8:	34 00 00 00 10 00 10 1d 	sw $16,16($29)
  4047f0:	42 00 00 00 00 10 04 00 	addu $16,$0,$4
  4047f8:	34 00 00 00 14 00 11 1d 	sw $17,20($29)
  404800:	42 00 00 00 00 11 05 00 	addu $17,$0,$5
  404808:	34 00 00 00 18 00 1f 1d 	sw $31,24($29)
  404810:	02 00 00 00 ae a8 10 00 	jal 42a2b8 <__main>
  404818:	43 00 00 00 08 00 04 00 	addiu $4,$0,8
  404820:	a2 00 00 00 40 00 05 00 	lui $5,64
  404828:	43 00 00 00 90 49 05 05 	addiu $5,$5,18832
  404830:	34 00 00 00 24 8a 10 1c 	sw $16,-30172($28)
  404838:	34 00 00 00 20 8a 11 1c 	sw $17,-30176($28)
  404840:	02 00 00 00 24 30 10 00 	jal 40c090 <signal>
  404848:	43 00 00 00 06 00 04 00 	addiu $4,$0,6
  404850:	a2 00 00 00 40 00 05 00 	lui $5,64
  404858:	43 00 00 00 d8 49 05 05 	addiu $5,$5,18904
  404860:	02 00 00 00 24 30 10 00 	jal 40c090 <signal>
  404868:	43 00 00 00 05 00 04 00 	addiu $4,$0,5
  404870:	a2 00 00 00 40 00 05 00 	lui $5,64
  404878:	43 00 00 00 f0 4a 05 05 	addiu $5,$5,19184
  404880:	02 00 00 00 24 30 10 00 	jal 40c090 <signal>
  404888:	43 00 00 00 03 00 04 00 	addiu $4,$0,3
  404890:	a2 00 00 00 40 00 05 00 	lui $5,64
  404898:	43 00 00 00 20 4a 05 05 	addiu $5,$5,18976
  4048a0:	02 00 00 00 24 30 10 00 	jal 40c090 <signal>
  4048a8:	43 00 00 00 01 00 10 00 	addiu $16,$0,1
  4048b0:	06 00 00 00 06 00 10 02 	bne $2,$16,4048d0 <main+0xf0>
  4048b8:	43 00 00 00 03 00 04 00 	addiu $4,$0,3
  4048c0:	43 00 00 00 01 00 05 00 	addiu $5,$0,1
  4048c8:	02 00 00 00 24 30 10 00 	jal 40c090 <signal>
  4048d0:	43 00 00 00 02 00 04 00 	addiu $4,$0,2
  4048d8:	a2 00 00 00 40 00 05 00 	lui $5,64
  4048e0:	43 00 00 00 68 4a 05 05 	addiu $5,$5,19048
  4048e8:	02 00 00 00 24 30 10 00 	jal 40c090 <signal>
  4048f0:	06 00 00 00 06 00 10 02 	bne $2,$16,404910 <main+0x130>
  4048f8:	43 00 00 00 02 00 04 00 	addiu $4,$0,2
  404900:	43 00 00 00 01 00 05 00 	addiu $5,$0,1
  404908:	02 00 00 00 24 30 10 00 	jal 40c090 <signal>
  404910:	43 00 00 00 0f 00 04 00 	addiu $4,$0,15
  404918:	a2 00 00 00 40 00 05 00 	lui $5,64
  404920:	43 00 00 00 b0 4a 05 05 	addiu $5,$5,19120
  404928:	02 00 00 00 24 30 10 00 	jal 40c090 <signal>
  404930:	02 00 00 00 56 31 10 00 	jal 40c558 <f_init>
  404938:	a2 00 00 00 41 00 04 00 	lui $4,65
  404940:	43 00 00 00 08 cc 04 04 	addiu $4,$4,-13304
  404948:	02 00 00 00 c8 33 10 00 	jal 40cf20 <atexit>
  404950:	02 00 00 00 7c 00 10 00 	jal 4001f0 <MAIN__>
  404958:	42 00 00 00 00 04 00 00 	addu $4,$0,$0
  404960:	02 00 00 00 d0 12 10 00 	jal 404b40 <exit>
  404968:	28 00 00 00 18 00 1f 1d 	lw $31,24($29)
  404970:	28 00 00 00 14 00 11 1d 	lw $17,20($29)
  404978:	28 00 00 00 10 00 10 1d 	lw $16,16($29)
  404980:	43 00 00 00 20 00 1d 1d 	addiu $29,$29,32
  404988:	03 00 00 00 00 00 00 1f 	jr $31

00404990 <sigfdie>:
  404990:	43 00 00 00 e8 ff 1d 1d 	addiu $29,$29,-24
  404998:	34 00 00 00 10 00 1f 1d 	sw $31,16($29)
  4049a0:	a2 00 00 00 00 10 04 00 	lui $4,4096
  4049a8:	43 00 00 00 20 00 04 04 	addiu $4,$4,32
  4049b0:	43 00 00 00 01 00 05 00 	addiu $5,$0,1
  4049b8:	02 00 00 00 4c 34 10 00 	jal 40d130 <sig_die>
  4049c0:	28 00 00 00 10 00 1f 1d 	lw $31,16($29)
  4049c8:	43 00 00 00 18 00 1d 1d 	addiu $29,$29,24
  4049d0:	03 00 00 00 00 00 00 1f 	jr $31

004049d8 <sigidie>:
  4049d8:	43 00 00 00 e8 ff 1d 1d 	addiu $29,$29,-24
  4049e0:	34 00 00 00 10 00 1f 1d 	sw $31,16($29)
  4049e8:	a2 00 00 00 00 10 04 00 	lui $4,4096
  4049f0:	43 00 00 00 34 00 04 04 	addiu $4,$4,52
  4049f8:	43 00 00 00 01 00 05 00 	addiu $5,$0,1
  404a00:	02 00 00 00 4c 34 10 00 	jal 40d130 <sig_die>
  404a08:	28 00 00 00 10 00 1f 1d 	lw $31,16($29)
  404a10:	43 00 00 00 18 00 1d 1d 	addiu $29,$29,24
  404a18:	03 00 00 00 00 00 00 1f 	jr $31

00404a20 <sigqdie>:
  404a20:	43 00 00 00 e8 ff 1d 1d 	addiu $29,$29,-24
  404a28:	34 00 00 00 10 00 1f 1d 	sw $31,16($29)
  404a30:	a2 00 00 00 00 10 04 00 	lui $4,4096
  404a38:	43 00 00 00 40 00 04 04 	addiu $4,$4,64
  404a40:	43 00 00 00 01 00 05 00 	addiu $5,$0,1
  404a48:	02 00 00 00 4c 34 10 00 	jal 40d130 <sig_die>
  404a50:	28 00 00 00 10 00 1f 1d 	lw $31,16($29)
  404a58:	43 00 00 00 18 00 1d 1d 	addiu $29,$29,24
  404a60:	03 00 00 00 00 00 00 1f 	jr $31

00404a68 <sigindie>:
  404a68:	43 00 00 00 e8 ff 1d 1d 	addiu $29,$29,-24
  404a70:	34 00 00 00 10 00 1f 1d 	sw $31,16($29)
  404a78:	a2 00 00 00 00 10 04 00 	lui $4,4096
  404a80:	43 00 00 00 4c 00 04 04 	addiu $4,$4,76
  404a88:	42 00 00 00 00 05 00 00 	addu $5,$0,$0
  404a90:	02 00 00 00 4c 34 10 00 	jal 40d130 <sig_die>
  404a98:	28 00 00 00 10 00 1f 1d 	lw $31,16($29)
  404aa0:	43 00 00 00 18 00 1d 1d 	addiu $29,$29,24
  404aa8:	03 00 00 00 00 00 00 1f 	jr $31

00404ab0 <sigtdie>:
  404ab0:	43 00 00 00 e8 ff 1d 1d 	addiu $29,$29,-24
  404ab8:	34 00 00 00 10 00 1f 1d 	sw $31,16($29)
  404ac0:	43 00 00 00 50 80 04 1c 	addiu $4,$28,-32688
  404ac8:	42 00 00 00 00 05 00 00 	addu $5,$0,$0
  404ad0:	02 00 00 00 4c 34 10 00 	jal 40d130 <sig_die>
  404ad8:	28 00 00 00 10 00 1f 1d 	lw $31,16($29)
  404ae0:	43 00 00 00 18 00 1d 1d 	addiu $29,$29,24
  404ae8:	03 00 00 00 00 00 00 1f 	jr $31

00404af0 <sigtrdie>:
  404af0:	43 00 00 00 e8 ff 1d 1d 	addiu $29,$29,-24
  404af8:	34 00 00 00 10 00 1f 1d 	sw $31,16($29)
  404b00:	a2 00 00 00 00 10 04 00 	lui $4,4096
  404b08:	43 00 00 00 58 00 04 04 	addiu $4,$4,88
  404b10:	43 00 00 00 01 00 05 00 	addiu $5,$0,1
  404b18:	02 00 00 00 4c 34 10 00 	jal 40d130 <sig_die>
  404b20:	28 00 00 00 10 00 1f 1d 	lw $31,16($29)
  404b28:	43 00 00 00 18 00 1d 1d 	addiu $29,$29,24
  404b30:	03 00 00 00 00 00 00 1f 	jr $31
	...

00404b40 <exit>:
  404b40:	43 00 00 00 d0 ff 1d 1d 	addiu $29,$29,-48
  404b48:	34 00 00 00 18 00 12 1d 	sw $18,24($29)
  404b50:	28 00 00 00 70 83 12 1c 	lw $18,-31888($28)
  404b58:	34 00 00 00 1c 00 13 1d 	sw $19,28($29)
  404b60:	42 00 00 00 00 13 04 00 	addu $19,$0,$4
  404b68:	34 00 00 00 28 00 1f 1d 	sw $31,40($29)
  404b70:	34 00 00 00 24 00 15 1d 	sw $21,36($29)
  404b78:	34 00 00 00 20 00 14 1d 	sw $20,32($29)
  404b80:	34 00 00 00 14 00 11 1d 	sw $17,20($29)
  404b88:	34 00 00 00 10 00 10 1d 	sw $16,16($29)
  404b90:	05 00 00 00 3a 00 00 12 	beq $18,$0,404c80 <exit+0x140>
  404b98:	43 00 00 00 01 00 15 00 	addiu $21,$0,1
  404ba0:	43 00 00 00 02 00 14 00 	addiu $20,$0,2
  404ba8:	28 00 00 00 04 00 10 12 	lw $16,4($18)
  404bb0:	42 00 00 00 00 02 10 00 	addu $2,$0,$16
  404bb8:	43 00 00 00 ff ff 10 10 	addiu $16,$16,-1
  404bc0:	05 00 00 00 2a 00 00 02 	beq $2,$0,404c70 <exit+0x130>
  404bc8:	55 00 00 00 01 02 10 00 	sll $2,$16,0x1
  404bd0:	42 00 00 00 00 02 10 02 	addu $2,$2,$16
  404bd8:	55 00 00 00 02 02 02 00 	sll $2,$2,0x2
  404be0:	43 00 00 00 08 00 11 02 	addiu $17,$2,8
  404be8:	42 00 00 00 00 03 11 12 	addu $3,$18,$17
  404bf0:	28 00 00 00 00 00 02 03 	lw $2,0($3)
  404bf8:	05 00 00 00 06 00 15 02 	beq $2,$21,404c18 <exit+0xd8>
  404c00:	05 00 00 00 12 00 00 02 	beq $2,$0,404c50 <exit+0x110>
  404c08:	05 00 00 00 0c 00 14 02 	beq $2,$20,404c40 <exit+0x100>
  404c10:	01 00 00 00 14 13 10 00 	j 404c50 <exit+0x110>
  404c18:	28 00 00 00 04 00 02 03 	lw $2,4($3)
  404c20:	28 00 00 00 08 00 05 03 	lw $5,8($3)
  404c28:	42 00 00 00 00 04 13 00 	addu $4,$0,$19
  404c30:	04 00 00 00 00 1f 00 02 	jalr $31,$2
  404c38:	01 00 00 00 14 13 10 00 	j 404c50 <exit+0x110>
  404c40:	28 00 00 00 04 00 02 03 	lw $2,4($3)
  404c48:	04 00 00 00 00 1f 00 02 	jalr $31,$2
  404c50:	43 00 00 00 f4 ff 11 11 	addiu $17,$17,-12
  404c58:	42 00 00 00 00 02 10 00 	addu $2,$0,$16
  404c60:	43 00 00 00 ff ff 10 10 	addiu $16,$16,-1
  404c68:	06 00 00 00 de ff 00 02 	bne $2,$0,404be8 <exit+0xa8>
  404c70:	28 00 00 00 00 00 12 12 	lw $18,0($18)
  404c78:	06 00 00 00 ca ff 00 12 	bne $18,$0,404ba8 <exit+0x68>
  404c80:	02 00 00 00 14 30 10 00 	jal 40c050 <_cleanup>
  404c88:	42 00 00 00 00 04 13 00 	addu $4,$0,$19
  404c90:	02 00 00 00 68 34 10 00 	jal 40d1a0 <_exit>
  404c98:	28 00 00 00 28 00 1f 1d 	lw $31,40($29)
  404ca0:	28 00 00 00 24 00 15 1d 	lw $21,36($29)
  404ca8:	28 00 00 00 20 00 14 1d 	lw $20,32($29)
  404cb0:	28 00 00 00 1c 00 13 1d 	lw $19,28($29)
  404cb8:	28 00 00 00 18 00 12 1d 	lw $18,24($29)
  404cc0:	28 00 00 00 14 00 11 1d 	lw $17,20($29)
  404cc8:	28 00 00 00 10 00 10 1d 	lw $16,16($29)
  404cd0:	43 00 00 00 30 00 1d 1d 	addiu $29,$29,48
  404cd8:	03 00 00 00 00 00 00 1f 	jr $31

00404ce0 <s_wsle>:
  404ce0:	28 00 00 00 cc 8a 02 1c 	lw $2,-30004($28)
  404ce8:	43 00 00 00 e8 ff 1d 1d 	addiu $29,$29,-24
  404cf0:	34 00 00 00 10 00 10 1d 	sw $16,16($29)
  404cf8:	42 00 00 00 00 10 04 00 	addu $16,$0,$4
  404d00:	34 00 00 00 14 00 1f 1d 	sw $31,20($29)
  404d08:	06 00 00 00 02 00 00 02 	bne $2,$0,404d18 <s_wsle+0x38>
  404d10:	02 00 00 00 56 31 10 00 	jal 40c558 <f_init>
  404d18:	42 00 00 00 00 04 10 00 	addu $4,$0,$16
  404d20:	02 00 00 00 14 2b 10 00 	jal 40ac50 <c_le>
  404d28:	06 00 00 00 3c 00 00 02 	bne $2,$0,404e20 <s_wsle+0x140>
  404d30:	28 00 00 00 b4 8a 05 1c 	lw $5,-30028($28)
  404d38:	28 00 00 00 28 00 04 05 	lw $4,40($5)
  404d40:	43 00 00 00 01 00 03 00 	addiu $3,$0,1
  404d48:	a2 00 00 00 41 00 02 00 	lui $2,65
  404d50:	43 00 00 00 c0 d1 02 02 	addiu $2,$2,-11840
  404d58:	34 00 00 00 a0 8a 02 1c 	sw $2,-30048($28)
  404d60:	a2 00 00 00 41 00 02 00 	lui $2,65
  404d68:	43 00 00 00 98 d8 02 02 	addiu $2,$2,-10088
  404d70:	34 00 00 00 58 8a 02 1c 	sw $2,-30120($28)
  404d78:	43 00 00 00 50 00 02 00 	addiu $2,$0,80
  404d80:	34 00 00 00 00 8b 02 1c 	sw $2,-29952($28)
  404d88:	a2 00 00 00 40 00 02 00 	lui $2,64
  404d90:	43 00 00 00 38 50 02 02 	addiu $2,$2,20536
  404d98:	34 00 00 00 c4 8a 00 1c 	sw $0,-30012($28)
  404da0:	34 00 00 00 c0 8a 03 1c 	sw $3,-30016($28)
  404da8:	34 00 00 00 ec 8a 03 1c 	sw $3,-29972($28)
  404db0:	34 00 00 00 c8 8a 02 1c 	sw $2,-30008($28)
  404db8:	05 00 00 00 16 00 03 04 	beq $4,$3,404e18 <s_wsle+0x138>
  404dc0:	42 00 00 00 00 04 05 00 	addu $4,$0,$5
  404dc8:	02 00 00 00 08 32 10 00 	jal 40c820 <f__nowwriting>
  404dd0:	05 00 00 00 10 00 00 02 	beq $2,$0,404e18 <s_wsle+0x138>
  404dd8:	28 00 00 00 00 00 02 10 	lw $2,0($16)
  404de0:	06 00 00 00 08 00 00 02 	bne $2,$0,404e08 <s_wsle+0x128>
  404de8:	28 00 00 00 10 8a 04 1c 	lw $4,-30192($28)
  404df0:	a2 00 00 00 00 10 05 00 	lui $5,4096
  404df8:	43 00 00 00 70 00 05 05 	addiu $5,$5,112
  404e00:	02 00 00 00 86 30 10 00 	jal 40c218 <f__fatal>
  404e08:	28 00 00 00 10 8a 02 1c 	lw $2,-30192($28)
  404e10:	01 00 00 00 88 13 10 00 	j 404e20 <s_wsle+0x140>
  404e18:	42 00 00 00 00 02 00 00 	addu $2,$0,$0
  404e20:	28 00 00 00 14 00 1f 1d 	lw $31,20($29)
  404e28:	28 00 00 00 10 00 10 1d 	lw $16,16($29)
  404e30:	43 00 00 00 18 00 1d 1d 	addiu $29,$29,24
  404e38:	03 00 00 00 00 00 00 1f 	jr $31

00404e40 <e_wsle>:
  404e40:	43 00 00 00 e8 ff 1d 1d 	addiu $29,$29,-24
  404e48:	43 00 00 00 0a 00 04 00 	addiu $4,$0,10
  404e50:	34 00 00 00 10 00 1f 1d 	sw $31,16($29)
  404e58:	02 00 00 00 70 34 10 00 	jal 40d1c0 <t_putc>
  404e60:	28 00 00 00 bc 8a 04 1c 	lw $4,-30020($28)
  404e68:	28 00 00 00 34 83 02 1c 	lw $2,-31948($28)
  404e70:	34 00 00 00 e4 8a 00 1c 	sw $0,-29980($28)
  404e78:	05 00 00 00 04 00 02 04 	beq $4,$2,404e90 <e_wsle+0x50>
  404e80:	28 00 00 00 38 83 02 1c 	lw $2,-31944($28)
  404e88:	06 00 00 00 02 00 02 04 	bne $4,$2,404e98 <e_wsle+0x58>
  404e90:	02 00 00 00 54 37 10 00 	jal 40dd50 <fflush>
  404e98:	42 00 00 00 00 02 00 00 	addu $2,$0,$0
  404ea0:	28 00 00 00 10 00 1f 1d 	lw $31,16($29)
  404ea8:	43 00 00 00 18 00 1d 1d 	addiu $29,$29,24
  404eb0:	03 00 00 00 00 00 00 1f 	jr $31
	...

00404ec0 <do_lio>:
  404ec0:	43 00 00 00 e8 ff 1d 1d 	addiu $29,$29,-24
  404ec8:	42 00 00 00 00 02 04 00 	addu $2,$0,$4
  404ed0:	28 00 00 00 58 8a 03 1c 	lw $3,-30120($28)
  404ed8:	42 00 00 00 00 04 05 00 	addu $4,$0,$5
  404ee0:	42 00 00 00 00 05 06 00 	addu $5,$0,$6
  404ee8:	42 00 00 00 00 06 07 00 	addu $6,$0,$7
  404ef0:	34 00 00 00 10 00 1f 1d 	sw $31,16($29)
  404ef8:	28 00 00 00 00 00 07 02 	lw $7,0($2)
  404f00:	04 00 00 00 00 1f 00 03 	jalr $31,$3
  404f08:	28 00 00 00 10 00 1f 1d 	lw $31,16($29)
  404f10:	43 00 00 00 18 00 1d 1d 	addiu $29,$29,24
  404f18:	03 00 00 00 00 00 00 1f 	jr $31

00404f20 <x_putc>:
  404f20:	43 00 00 00 e8 ff 1d 1d 	addiu $29,$29,-24
  404f28:	34 00 00 00 10 00 10 1d 	sw $16,16($29)
  404f30:	42 00 00 00 00 10 04 00 	addu $16,$0,$4
  404f38:	43 00 00 00 0a 00 02 00 	addiu $2,$0,10
  404f40:	34 00 00 00 14 00 1f 1d 	sw $31,20($29)
  404f48:	06 00 00 00 10 00 02 10 	bne $16,$2,404f90 <x_putc+0x70>
  404f50:	28 00 00 00 e4 8a 03 1c 	lw $3,-29980($28)
  404f58:	28 00 00 00 14 8b 05 1c 	lw $5,-29932($28)
  404f60:	5b 00 00 00 00 02 05 03 	slt $2,$3,$5
  404f68:	05 00 00 00 08 00 00 02 	beq $2,$0,404f90 <x_putc+0x70>
  404f70:	28 00 00 00 bc 8a 04 1c 	lw $4,-30020($28)
  404f78:	45 00 00 00 00 05 03 05 	subu $5,$5,$3
  404f80:	43 00 00 00 01 00 06 00 	addiu $6,$0,1
  404f88:	02 00 00 00 50 3e 10 00 	jal 40f940 <fseek>
  404f90:	28 00 00 00 bc 8a 05 1c 	lw $5,-30020($28)
  404f98:	28 00 00 00 e4 8a 02 1c 	lw $2,-29980($28)
  404fa0:	28 00 00 00 04 00 06 05 	lw $6,4($5)
  404fa8:	28 00 00 00 0c 00 03 05 	lw $3,12($5)
  404fb0:	43 00 00 00 01 00 02 02 	addiu $2,$2,1
  404fb8:	34 00 00 00 e4 8a 02 1c 	sw $2,-29980($28)
  404fc0:	5d 00 00 00 00 03 03 06 	sltu $3,$6,$3
  404fc8:	06 00 00 00 08 00 00 03 	bne $3,$0,404ff0 <x_putc+0xd0>
  404fd0:	42 00 00 00 00 04 05 00 	addu $4,$0,$5
  404fd8:	4f 00 00 00 ff 00 05 10 	andi $5,$16,255
  404fe0:	02 00 00 00 60 43 10 00 	jal 410d80 <__flshfp>
  404fe8:	01 00 00 00 06 14 10 00 	j 405018 <x_putc+0xf8>
  404ff0:	42 00 00 00 00 04 10 00 	addu $4,$0,$16
  404ff8:	4f 00 00 00 ff 00 02 04 	andi $2,$4,255
  405000:	43 00 00 00 01 00 03 06 	addiu $3,$6,1
  405008:	34 00 00 00 04 00 03 05 	sw $3,4($5)
  405010:	30 00 00 00 00 00 04 06 	sb $4,0($6)
  405018:	28 00 00 00 14 00 1f 1d 	lw $31,20($29)
  405020:	28 00 00 00 10 00 10 1d 	lw $16,16($29)
  405028:	43 00 00 00 18 00 1d 1d 	addiu $29,$29,24
  405030:	03 00 00 00 00 00 00 1f 	jr $31

00405038 <x_wSL>:
  405038:	28 00 00 00 a0 8a 02 1c 	lw $2,-30048($28)
  405040:	43 00 00 00 e8 ff 1d 1d 	addiu $29,$29,-24
  405048:	43 00 00 00 0a 00 04 00 	addiu $4,$0,10
  405050:	34 00 00 00 10 00 1f 1d 	sw $31,16($29)
  405058:	04 00 00 00 00 1f 00 02 	jalr $31,$2
  405060:	43 00 00 00 01 00 02 00 	addiu $2,$0,1
  405068:	34 00 00 00 e4 8a 00 1c 	sw $0,-29980($28)
  405070:	34 00 00 00 f0 8a 00 1c 	sw $0,-29968($28)
  405078:	34 00 00 00 14 8b 00 1c 	sw $0,-29932($28)
  405080:	28 00 00 00 10 00 1f 1d 	lw $31,16($29)
  405088:	43 00 00 00 18 00 1d 1d 	addiu $29,$29,24
  405090:	03 00 00 00 00 00 00 1f 	jr $31

00405098 <xw_end>:
  405098:	28 00 00 00 34 8a 02 1c 	lw $2,-30156($28)
  4050a0:	43 00 00 00 e8 ff 1d 1d 	addiu $29,$29,-24
  4050a8:	34 00 00 00 10 00 1f 1d 	sw $31,16($29)
  4050b0:	06 00 00 00 06 00 00 02 	bne $2,$0,4050d0 <xw_end+0x38>
  4050b8:	28 00 00 00 a0 8a 02 1c 	lw $2,-30048($28)
  4050c0:	43 00 00 00 0a 00 04 00 	addiu $4,$0,10
  4050c8:	04 00 00 00 00 1f 00 02 	jalr $31,$2
  4050d0:	42 00 00 00 00 02 00 00 	addu $2,$0,$0
  4050d8:	34 00 00 00 f0 8a 00 1c 	sw $0,-29968($28)
  4050e0:	34 00 00 00 e4 8a 00 1c 	sw $0,-29980($28)
  4050e8:	34 00 00 00 14 8b 00 1c 	sw $0,-29932($28)
  4050f0:	28 00 00 00 10 00 1f 1d 	lw $31,16($29)
  4050f8:	43 00 00 00 18 00 1d 1d 	addiu $29,$29,24
  405100:	03 00 00 00 00 00 00 1f 	jr $31

00405108 <xw_rev>:
  405108:	28 00 00 00 3c 8a 02 1c 	lw $2,-30148($28)
  405110:	43 00 00 00 e8 ff 1d 1d 	addiu $29,$29,-24
  405118:	34 00 00 00 10 00 1f 1d 	sw $31,16($29)
  405120:	05 00 00 00 06 00 00 02 	beq $2,$0,405140 <xw_rev+0x38>
  405128:	28 00 00 00 a0 8a 02 1c 	lw $2,-30048($28)
  405130:	43 00 00 00 0a 00 04 00 	addiu $4,$0,10
  405138:	04 00 00 00 00 1f 00 02 	jalr $31,$2
  405140:	42 00 00 00 00 02 00 00 	addu $2,$0,$0
  405148:	34 00 00 00 f0 8a 00 1c 	sw $0,-29968($28)
  405150:	34 00 00 00 e4 8a 00 1c 	sw $0,-29980($28)
  405158:	34 00 00 00 14 8b 00 1c 	sw $0,-29932($28)
  405160:	34 00 00 00 3c 8a 00 1c 	sw $0,-30148($28)
  405168:	28 00 00 00 10 00 1f 1d 	lw $31,16($29)
  405170:	43 00 00 00 18 00 1d 1d 	addiu $29,$29,24
  405178:	03 00 00 00 00 00 00 1f 	jr $31

00405180 <s_wsfe>:
  405180:	28 00 00 00 cc 8a 02 1c 	lw $2,-30004($28)
  405188:	43 00 00 00 e0 ff 1d 1d 	addiu $29,$29,-32
  405190:	34 00 00 00 10 00 10 1d 	sw $16,16($29)
  405198:	42 00 00 00 00 10 04 00 	addu $16,$0,$4
  4051a0:	34 00 00 00 18 00 1f 1d 	sw $31,24($29)
  4051a8:	34 00 00 00 14 00 11 1d 	sw $17,20($29)
  4051b0:	06 00 00 00 02 00 00 02 	bne $2,$0,4051c0 <s_wsfe+0x40>
  4051b8:	02 00 00 00 56 31 10 00 	jal 40c558 <f_init>
  4051c0:	42 00 00 00 00 04 10 00 	addu $4,$0,$16
  4051c8:	02 00 00 00 fe 22 10 00 	jal 408bf8 <c_sfe>
  4051d0:	06 00 00 00 8e 00 00 02 	bne $2,$0,405410 <s_wsfe+0x290>
  4051d8:	28 00 00 00 04 00 02 10 	lw $2,4($16)
  4051e0:	28 00 00 00 0c 00 04 10 	lw $4,12($16)
  4051e8:	55 00 00 00 01 03 02 00 	sll $3,$2,0x1
  4051f0:	42 00 00 00 00 03 02 03 	addu $3,$3,$2
  4051f8:	55 00 00 00 04 03 03 00 	sll $3,$3,0x4
  405200:	a2 00 00 00 e1 10 02 00 	lui $2,4321
  405208:	43 00 00 00 50 3d 02 02 	addiu $2,$2,15696
  405210:	42 00 00 00 00 03 02 03 	addu $3,$3,$2
  405218:	28 00 00 00 00 00 02 03 	lw $2,0($3)
  405220:	43 00 00 00 01 00 11 00 	addiu $17,$0,1
  405228:	34 00 00 00 c4 8a 00 1c 	sw $0,-30012($28)
  405230:	34 00 00 00 a8 8a 11 1c 	sw $17,-30040($28)
  405238:	34 00 00 00 ec 8a 11 1c 	sw $17,-29972($28)
  405240:	34 00 00 00 c0 8a 11 1c 	sw $17,-30016($28)
  405248:	34 00 00 00 a4 8a 10 1c 	sw $16,-30044($28)
  405250:	34 00 00 00 e4 8a 00 1c 	sw $0,-29980($28)
  405258:	34 00 00 00 f0 8a 00 1c 	sw $0,-29968($28)
  405260:	34 00 00 00 14 8b 00 1c 	sw $0,-29932($28)
  405268:	34 00 00 00 34 8a 00 1c 	sw $0,-30156($28)
  405270:	34 00 00 00 e0 8a 00 1c 	sw $0,-29984($28)
  405278:	34 00 00 00 ac 8a 04 1c 	sw $4,-30036($28)
  405280:	34 00 00 00 b4 8a 03 1c 	sw $3,-30028($28)
  405288:	34 00 00 00 bc 8a 02 1c 	sw $2,-30020($28)
  405290:	02 00 00 00 42 20 10 00 	jal 408108 <pars_f>
  405298:	0a 00 00 00 14 00 00 02 	bgez $2,4052f0 <s_wsfe+0x170>
  4052a0:	28 00 00 00 00 00 02 10 	lw $2,0($16)
  4052a8:	05 00 00 00 06 00 00 02 	beq $2,$0,4052c8 <s_wsfe+0x148>
  4052b0:	43 00 00 00 64 00 02 00 	addiu $2,$0,100
  4052b8:	34 00 00 00 10 8a 02 1c 	sw $2,-30192($28)
  4052c0:	01 00 00 00 b8 14 10 00 	j 4052e0 <s_wsfe+0x160>
  4052c8:	43 00 00 00 64 00 04 00 	addiu $4,$0,100
  4052d0:	43 00 00 00 60 80 05 1c 	addiu $5,$28,-32672
  4052d8:	02 00 00 00 86 30 10 00 	jal 40c218 <f__fatal>
  4052e0:	43 00 00 00 64 00 02 00 	addiu $2,$0,100
  4052e8:	01 00 00 00 04 15 10 00 	j 405410 <s_wsfe+0x290>
  4052f0:	a2 00 00 00 40 00 02 00 	lui $2,64
  4052f8:	43 00 00 00 20 4f 02 02 	addiu $2,$2,20256
  405300:	34 00 00 00 a0 8a 02 1c 	sw $2,-30048($28)
  405308:	a2 00 00 00 41 00 02 00 	lui $2,65
  405310:	43 00 00 00 20 ec 02 02 	addiu $2,$2,-5088
  405318:	34 00 00 00 d0 8a 02 1c 	sw $2,-30000($28)
  405320:	a2 00 00 00 41 00 02 00 	lui $2,65
  405328:	43 00 00 00 00 f6 02 02 	addiu $2,$2,-2560
  405330:	34 00 00 00 b8 8a 02 1c 	sw $2,-30024($28)
  405338:	a2 00 00 00 40 00 02 00 	lui $2,64
  405340:	43 00 00 00 98 50 02 02 	addiu $2,$2,20632
  405348:	34 00 00 00 d8 8a 02 1c 	sw $2,-29992($28)
  405350:	a2 00 00 00 40 00 02 00 	lui $2,64
  405358:	43 00 00 00 08 51 02 02 	addiu $2,$2,20744
  405360:	34 00 00 00 e8 8a 02 1c 	sw $2,-29976($28)
  405368:	a2 00 00 00 40 00 02 00 	lui $2,64
  405370:	43 00 00 00 38 50 02 02 	addiu $2,$2,20536
  405378:	34 00 00 00 c8 8a 02 1c 	sw $2,-30008($28)
  405380:	02 00 00 00 c8 22 10 00 	jal 408b20 <fmt_bg>
  405388:	28 00 00 00 b4 8a 04 1c 	lw $4,-30028($28)
  405390:	28 00 00 00 20 00 02 04 	lw $2,32($4)
  405398:	28 00 00 00 28 00 03 04 	lw $3,40($4)
  4053a0:	34 00 00 00 d4 8a 00 1c 	sw $0,-29996($28)
  4053a8:	34 00 00 00 dc 8a 02 1c 	sw $2,-29988($28)
  4053b0:	05 00 00 00 14 00 11 03 	beq $3,$17,405408 <s_wsfe+0x288>
  4053b8:	02 00 00 00 08 32 10 00 	jal 40c820 <f__nowwriting>
  4053c0:	05 00 00 00 10 00 00 02 	beq $2,$0,405408 <s_wsfe+0x288>
  4053c8:	28 00 00 00 00 00 02 10 	lw $2,0($16)
  4053d0:	06 00 00 00 08 00 00 02 	bne $2,$0,4053f8 <s_wsfe+0x278>
  4053d8:	28 00 00 00 10 8a 04 1c 	lw $4,-30192($28)
  4053e0:	a2 00 00 00 00 10 05 00 	lui $5,4096
  4053e8:	43 00 00 00 90 00 05 05 	addiu $5,$5,144
  4053f0:	02 00 00 00 86 30 10 00 	jal 40c218 <f__fatal>
  4053f8:	28 00 00 00 10 8a 02 1c 	lw $2,-30192($28)
  405400:	01 00 00 00 04 15 10 00 	j 405410 <s_wsfe+0x290>
  405408:	42 00 00 00 00 02 00 00 	addu $2,$0,$0
  405410:	28 00 00 00 18 00 1f 1d 	lw $31,24($29)
  405418:	28 00 00 00 14 00 11 1d 	lw $17,20($29)
  405420:	28 00 00 00 10 00 10 1d 	lw $16,16($29)
  405428:	43 00 00 00 20 00 1d 1d 	addiu $29,$29,32
  405430:	03 00 00 00 00 00 00 1f 	jr $31
	...

00405440 <ap_end>:
  405440:	43 00 00 00 d8 ff 1d 1d 	addiu $29,$29,-40
  405448:	34 00 00 00 20 00 1f 1d 	sw $31,32($29)
  405450:	22 00 00 00 00 00 05 04 	lbu $5,0($4)
  405458:	43 00 00 00 01 00 04 04 	addiu $4,$4,1
  405460:	20 00 00 00 00 00 02 04 	lb $2,0($4)
  405468:	22 00 00 00 00 00 03 04 	lbu $3,0($4)
  405470:	05 00 00 00 18 00 00 02 	beq $2,$0,4054d8 <ap_end+0x98>
  405478:	55 00 00 00 18 02 05 00 	sll $2,$5,0x18
  405480:	59 00 00 00 18 05 02 00 	sra $5,$2,0x18
  405488:	55 00 00 00 18 02 03 00 	sll $2,$3,0x18
  405490:	59 00 00 00 18 03 02 00 	sra $3,$2,0x18
  405498:	06 00 00 00 06 00 05 03 	bne $3,$5,4054b8 <ap_end+0x78>
  4054a0:	43 00 00 00 01 00 04 04 	addiu $4,$4,1
  4054a8:	20 00 00 00 00 00 02 04 	lb $2,0($4)
  4054b0:	06 00 00 00 18 00 03 02 	bne $2,$3,405518 <ap_end+0xd8>
  4054b8:	43 00 00 00 01 00 04 04 	addiu $4,$4,1
  4054c0:	20 00 00 00 00 00 02 04 	lb $2,0($4)
  4054c8:	22 00 00 00 00 00 03 04 	lbu $3,0($4)
  4054d0:	06 00 00 00 ec ff 00 02 	bne $2,$0,405488 <ap_end+0x48>
  4054d8:	28 00 00 00 a4 8a 02 1c 	lw $2,-30044($28)
  4054e0:	28 00 00 00 00 00 02 02 	lw $2,0($2)
  4054e8:	06 00 00 00 0e 00 00 02 	bne $2,$0,405528 <ap_end+0xe8>
  4054f0:	43 00 00 00 64 00 04 00 	addiu $4,$0,100
  4054f8:	a2 00 00 00 00 10 05 00 	lui $5,4096
  405500:	43 00 00 00 a0 00 05 05 	addiu $5,$5,160
  405508:	02 00 00 00 86 30 10 00 	jal 40c218 <f__fatal>
  405510:	01 00 00 00 4e 15 10 00 	j 405538 <ap_end+0xf8>
  405518:	42 00 00 00 00 02 04 00 	addu $2,$0,$4
  405520:	01 00 00 00 50 15 10 00 	j 405540 <ap_end+0x100>
  405528:	43 00 00 00 64 00 02 00 	addiu $2,$0,100
  405530:	34 00 00 00 10 8a 02 1c 	sw $2,-30192($28)
  405538:	42 00 00 00 00 02 00 00 	addu $2,$0,$0
  405540:	28 00 00 00 20 00 1f 1d 	lw $31,32($29)
  405548:	43 00 00 00 28 00 1d 1d 	addiu $29,$29,40
  405550:	03 00 00 00 00 00 00 1f 	jr $31

00405558 <op_gen>:
  405558:	28 00 00 00 44 8a 02 1c 	lw $2,-30140($28)
  405560:	43 00 00 00 d8 ff 1d 1d 	addiu $29,$29,-40
  405568:	34 00 00 00 14 00 11 1d 	sw $17,20($29)
  405570:	42 00 00 00 00 11 04 00 	addu $17,$0,$4
  405578:	34 00 00 00 18 00 12 1d 	sw $18,24($29)
  405580:	42 00 00 00 00 12 05 00 	addu $18,$0,$5
  405588:	34 00 00 00 1c 00 13 1d 	sw $19,28($29)
  405590:	42 00 00 00 00 13 06 00 	addu $19,$0,$6
  405598:	34 00 00 00 20 00 14 1d 	sw $20,32($29)
  4055a0:	42 00 00 00 00 14 07 00 	addu $20,$0,$7
  4055a8:	a2 00 00 00 e1 10 03 00 	lui $3,4321
  4055b0:	43 00 00 00 30 2a 03 03 	addiu $3,$3,10800
  4055b8:	34 00 00 00 24 00 1f 1d 	sw $31,36($29)
  4055c0:	34 00 00 00 10 00 10 1d 	sw $16,16($29)
  4055c8:	55 00 00 00 04 04 02 00 	sll $4,$2,0x4
  4055d0:	42 00 00 00 00 10 03 04 	addu $16,$4,$3
  4055d8:	5c 00 00 00 2c 01 02 02 	slti $2,$2,300
  4055e0:	06 00 00 00 0e 00 00 02 	bne $2,$0,405620 <op_gen+0xc8>
  4055e8:	28 00 00 00 38 83 04 1c 	lw $4,-31944($28)
  4055f0:	a2 00 00 00 00 10 05 00 	lui $5,4096
  4055f8:	43 00 00 00 ac 00 05 05 	addiu $5,$5,172
  405600:	02 00 00 00 30 46 10 00 	jal 4118c0 <fprintf>
  405608:	28 00 00 00 ac 8a 04 1c 	lw $4,-30036($28)
  405610:	43 00 00 00 01 00 05 00 	addiu $5,$0,1
  405618:	02 00 00 00 4c 34 10 00 	jal 40d130 <sig_die>
  405620:	28 00 00 00 44 8a 02 1c 	lw $2,-30140($28)
  405628:	34 00 00 00 00 00 11 10 	sw $17,0($16)
  405630:	34 00 00 00 04 00 12 10 	sw $18,4($16)
  405638:	34 00 00 00 08 00 13 10 	sw $19,8($16)
  405640:	34 00 00 00 0c 00 14 10 	sw $20,12($16)
  405648:	43 00 00 00 01 00 03 02 	addiu $3,$2,1
  405650:	34 00 00 00 44 8a 03 1c 	sw $3,-30140($28)
  405658:	28 00 00 00 24 00 1f 1d 	lw $31,36($29)
  405660:	28 00 00 00 20 00 14 1d 	lw $20,32($29)
  405668:	28 00 00 00 1c 00 13 1d 	lw $19,28($29)
  405670:	28 00 00 00 18 00 12 1d 	lw $18,24($29)
  405678:	28 00 00 00 14 00 11 1d 	lw $17,20($29)
  405680:	28 00 00 00 10 00 10 1d 	lw $16,16($29)
  405688:	43 00 00 00 28 00 1d 1d 	addiu $29,$29,40
  405690:	03 00 00 00 00 00 00 1f 	jr $31

00405698 <gt_num>:
  405698:	42 00 00 00 00 07 00 00 	addu $7,$0,$0
  4056a0:	42 00 00 00 00 08 00 00 	addu $8,$0,$0
  4056a8:	22 00 00 00 00 00 03 04 	lbu $3,0($4)
  4056b0:	43 00 00 00 20 00 09 00 	addiu $9,$0,32
  4056b8:	55 00 00 00 18 02 03 00 	sll $2,$3,0x18
  4056c0:	59 00 00 00 18 06 02 00 	sra $6,$2,0x18
  4056c8:	05 00 00 00 12 00 09 06 	beq $6,$9,405718 <gt_num+0x80>
  4056d0:	43 00 00 00 d0 ff 02 03 	addiu $2,$3,-48
  4056d8:	5e 00 00 00 0a 00 02 02 	sltiu $2,$2,10
  4056e0:	05 00 00 00 12 00 00 02 	beq $2,$0,405730 <gt_num+0x98>
  4056e8:	55 00 00 00 02 02 07 00 	sll $2,$7,0x2
  4056f0:	42 00 00 00 00 02 07 02 	addu $2,$2,$7
  4056f8:	55 00 00 00 01 02 02 00 	sll $2,$2,0x1
  405700:	42 00 00 00 00 02 06 02 	addu $2,$2,$6
  405708:	43 00 00 00 d0 ff 07 02 	addiu $7,$2,-48
  405710:	43 00 00 00 01 00 08 08 	addiu $8,$8,1
  405718:	43 00 00 00 01 00 04 04 	addiu $4,$4,1
  405720:	22 00 00 00 00 00 03 04 	lbu $3,0($4)
  405728:	01 00 00 00 ae 15 10 00 	j 4056b8 <gt_num+0x20>
  405730:	06 00 00 00 06 00 00 08 	bne $8,$0,405750 <gt_num+0xb8>
  405738:	43 00 00 00 01 00 02 00 	addiu $2,$0,1
  405740:	34 00 00 00 00 00 02 05 	sw $2,0($5)
  405748:	01 00 00 00 d6 15 10 00 	j 405758 <gt_num+0xc0>
  405750:	34 00 00 00 00 00 07 05 	sw $7,0($5)
  405758:	42 00 00 00 00 02 04 00 	addu $2,$0,$4
  405760:	03 00 00 00 00 00 00 1f 	jr $31

00405768 <f_s>:
  405768:	43 00 00 00 d8 ff 1d 1d 	addiu $29,$29,-40
  405770:	34 00 00 00 10 00 10 1d 	sw $16,16($29)
  405778:	42 00 00 00 00 10 04 00 	addu $16,$0,$4
  405780:	34 00 00 00 20 00 1f 1d 	sw $31,32($29)
  405788:	34 00 00 00 1c 00 13 1d 	sw $19,28($29)
  405790:	34 00 00 00 18 00 12 1d 	sw $18,24($29)
  405798:	34 00 00 00 14 00 11 1d 	sw $17,20($29)
  4057a0:	20 00 00 00 00 00 03 10 	lb $3,0($16)
  4057a8:	42 00 00 00 00 12 05 00 	addu $18,$0,$5
  4057b0:	43 00 00 00 20 00 02 00 	addiu $2,$0,32
  4057b8:	06 00 00 00 08 00 02 03 	bne $3,$2,4057e0 <f_s+0x78>
  4057c0:	43 00 00 00 20 00 03 00 	addiu $3,$0,32
  4057c8:	43 00 00 00 01 00 10 10 	addiu $16,$16,1
  4057d0:	20 00 00 00 00 00 02 10 	lb $2,0($16)
  4057d8:	05 00 00 00 fa ff 03 02 	beq $2,$3,4057c8 <f_s+0x60>
  4057e0:	20 00 00 00 00 00 03 10 	lb $3,0($16)
  4057e8:	43 00 00 00 28 00 02 00 	addiu $2,$0,40
  4057f0:	43 00 00 00 01 00 10 10 	addiu $16,$16,1
  4057f8:	06 00 00 00 42 00 02 03 	bne $3,$2,405908 <f_s+0x1a0>
  405800:	28 00 00 00 38 8a 02 1c 	lw $2,-30152($28)
  405808:	43 00 00 00 02 00 03 00 	addiu $3,$0,2
  405810:	43 00 00 00 01 00 02 02 	addiu $2,$2,1
  405818:	34 00 00 00 38 8a 02 1c 	sw $2,-30152($28)
  405820:	06 00 00 00 02 00 03 02 	bne $2,$3,405830 <f_s+0xc8>
  405828:	34 00 00 00 40 8a 12 1c 	sw $18,-30144($28)
  405830:	28 00 00 00 44 8a 02 1c 	lw $2,-30140($28)
  405838:	43 00 00 00 01 00 13 00 	addiu $19,$0,1
  405840:	a2 00 00 00 e1 10 03 00 	lui $3,4321
  405848:	43 00 00 00 30 2a 03 03 	addiu $3,$3,10800
  405850:	55 00 00 00 04 04 02 00 	sll $4,$2,0x4
  405858:	42 00 00 00 00 11 03 04 	addu $17,$4,$3
  405860:	5c 00 00 00 2c 01 02 02 	slti $2,$2,300
  405868:	06 00 00 00 0e 00 00 02 	bne $2,$0,4058a8 <f_s+0x140>
  405870:	28 00 00 00 38 83 04 1c 	lw $4,-31944($28)
  405878:	a2 00 00 00 00 10 05 00 	lui $5,4096
  405880:	43 00 00 00 ac 00 05 05 	addiu $5,$5,172
  405888:	02 00 00 00 30 46 10 00 	jal 4118c0 <fprintf>
  405890:	28 00 00 00 ac 8a 04 1c 	lw $4,-30036($28)
  405898:	43 00 00 00 01 00 05 00 	addiu $5,$0,1
  4058a0:	02 00 00 00 4c 34 10 00 	jal 40d130 <sig_die>
  4058a8:	28 00 00 00 44 8a 03 1c 	lw $3,-30140($28)
  4058b0:	34 00 00 00 00 00 13 11 	sw $19,0($17)
  4058b8:	34 00 00 00 04 00 12 11 	sw $18,4($17)
  4058c0:	34 00 00 00 08 00 00 11 	sw $0,8($17)
  4058c8:	34 00 00 00 0c 00 00 11 	sw $0,12($17)
  4058d0:	43 00 00 00 01 00 02 03 	addiu $2,$3,1
  4058d8:	34 00 00 00 44 8a 02 1c 	sw $2,-30140($28)
  4058e0:	09 00 00 00 08 00 00 03 	bltz $3,405908 <f_s+0x1a0>
  4058e8:	42 00 00 00 00 04 10 00 	addu $4,$0,$16
  4058f0:	02 00 00 00 84 1f 10 00 	jal 407e10 <f_list>
  4058f8:	42 00 00 00 00 10 02 00 	addu $16,$0,$2
  405900:	06 00 00 00 04 00 00 10 	bne $16,$0,405918 <f_s+0x1b0>
  405908:	42 00 00 00 00 02 00 00 	addu $2,$0,$0
  405910:	01 00 00 00 56 16 10 00 	j 405958 <f_s+0x1f0>
  405918:	20 00 00 00 00 00 03 10 	lb $3,0($16)
  405920:	43 00 00 00 20 00 02 00 	addiu $2,$0,32
  405928:	06 00 00 00 08 00 02 03 	bne $3,$2,405950 <f_s+0x1e8>
  405930:	43 00 00 00 20 00 03 00 	addiu $3,$0,32
  405938:	43 00 00 00 01 00 10 10 	addiu $16,$16,1
  405940:	20 00 00 00 00 00 02 10 	lb $2,0($16)
  405948:	05 00 00 00 fa ff 03 02 	beq $2,$3,405938 <f_s+0x1d0>
  405950:	42 00 00 00 00 02 10 00 	addu $2,$0,$16
  405958:	28 00 00 00 20 00 1f 1d 	lw $31,32($29)
  405960:	28 00 00 00 1c 00 13 1d 	lw $19,28($29)
  405968:	28 00 00 00 18 00 12 1d 	lw $18,24($29)
  405970:	28 00 00 00 14 00 11 1d 	lw $17,20($29)
  405978:	28 00 00 00 10 00 10 1d 	lw $16,16($29)
  405980:	43 00 00 00 28 00 1d 1d 	addiu $29,$29,40
  405988:	03 00 00 00 00 00 00 1f 	jr $31

00405990 <ne_d>:
  405990:	43 00 00 00 c8 ff 1d 1d 	addiu $29,$29,-56
  405998:	34 00 00 00 1c 00 11 1d 	sw $17,28($29)
  4059a0:	42 00 00 00 00 11 04 00 	addu $17,$0,$4
  4059a8:	34 00 00 00 30 00 1f 1d 	sw $31,48($29)
  4059b0:	34 00 00 00 2c 00 15 1d 	sw $21,44($29)
  4059b8:	34 00 00 00 28 00 14 1d 	sw $20,40($29)
  4059c0:	34 00 00 00 24 00 13 1d 	sw $19,36($29)
  4059c8:	34 00 00 00 20 00 12 1d 	sw $18,32($29)
  4059d0:	34 00 00 00 18 00 10 1d 	sw $16,24($29)
  4059d8:	22 00 00 00 00 00 02 11 	lbu $2,0($17)
  4059e0:	42 00 00 00 00 15 05 00 	addu $21,$0,$5
  4059e8:	42 00 00 00 00 0a 00 00 	addu $10,$0,$0
  4059f0:	43 00 00 00 fe ff 02 02 	addiu $2,$2,-2
  4059f8:	55 00 00 00 18 02 02 00 	sll $2,$2,0x18
  405a00:	59 00 00 00 18 03 02 00 	sra $3,$2,0x18
  405a08:	5e 00 00 00 77 00 02 03 	sltiu $2,$3,119
  405a10:	05 00 00 00 68 01 00 02 	beq $2,$0,405fb8 <ne_d+0x628>
  405a18:	55 00 00 00 02 02 03 00 	sll $2,$3,0x2
  405a20:	a2 00 00 00 00 10 01 00 	lui $1,4096
  405a28:	42 00 00 00 00 01 02 01 	addu $1,$1,$2
  405a30:	28 00 00 00 e8 00 02 01 	lw $2,232($1)
  405a38:	03 00 00 00 00 00 00 02 	jr $2
  405a40:	28 00 00 00 44 8a 02 1c 	lw $2,-30140($28)
  405a48:	43 00 00 00 10 00 12 00 	addiu $18,$0,16
  405a50:	a2 00 00 00 e1 10 03 00 	lui $3,4321
  405a58:	43 00 00 00 30 2a 03 03 	addiu $3,$3,10800
  405a60:	55 00 00 00 04 04 02 00 	sll $4,$2,0x4
  405a68:	42 00 00 00 00 10 03 04 	addu $16,$4,$3
  405a70:	5c 00 00 00 2c 01 02 02 	slti $2,$2,300
  405a78:	06 00 00 00 0e 00 00 02 	bne $2,$0,405ab8 <ne_d+0x128>
  405a80:	28 00 00 00 38 83 04 1c 	lw $4,-31944($28)
  405a88:	a2 00 00 00 00 10 05 00 	lui $5,4096
  405a90:	43 00 00 00 ac 00 05 05 	addiu $5,$5,172
  405a98:	02 00 00 00 30 46 10 00 	jal 4118c0 <fprintf>
  405aa0:	28 00 00 00 ac 8a 04 1c 	lw $4,-30036($28)
  405aa8:	43 00 00 00 01 00 05 00 	addiu $5,$0,1
  405ab0:	02 00 00 00 4c 34 10 00 	jal 40d130 <sig_die>
  405ab8:	28 00 00 00 44 8a 02 1c 	lw $2,-30140($28)
  405ac0:	34 00 00 00 00 00 12 10 	sw $18,0($16)
  405ac8:	34 00 00 00 04 00 00 10 	sw $0,4($16)
  405ad0:	01 00 00 00 7c 19 10 00 	j 4065f0 <ne_d+0xc60>
  405ad8:	28 00 00 00 44 8a 02 1c 	lw $2,-30140($28)
  405ae0:	43 00 00 00 21 00 12 00 	addiu $18,$0,33
  405ae8:	a2 00 00 00 e1 10 03 00 	lui $3,4321
  405af0:	43 00 00 00 30 2a 03 03 	addiu $3,$3,10800
  405af8:	55 00 00 00 04 04 02 00 	sll $4,$2,0x4
  405b00:	42 00 00 00 00 10 03 04 	addu $16,$4,$3
  405b08:	5c 00 00 00 2c 01 02 02 	slti $2,$2,300
  405b10:	06 00 00 00 0e 00 00 02 	bne $2,$0,405b50 <ne_d+0x1c0>
  405b18:	28 00 00 00 38 83 04 1c 	lw $4,-31944($28)
  405b20:	a2 00 00 00 00 10 05 00 	lui $5,4096
  405b28:	43 00 00 00 ac 00 05 05 	addiu $5,$5,172
  405b30:	02 00 00 00 30 46 10 00 	jal 4118c0 <fprintf>
  405b38:	28 00 00 00 ac 8a 04 1c 	lw $4,-30036($28)
  405b40:	43 00 00 00 01 00 05 00 	addiu $5,$0,1
  405b48:	02 00 00 00 4c 34 10 00 	jal 40d130 <sig_die>
  405b50:	28 00 00 00 44 8a 02 1c 	lw $2,-30140($28)
  405b58:	34 00 00 00 00 00 12 10 	sw $18,0($16)
  405b60:	34 00 00 00 04 00 00 10 	sw $0,4($16)
  405b68:	01 00 00 00 7c 19 10 00 	j 4065f0 <ne_d+0xc60>
  405b70:	43 00 00 00 01 00 11 11 	addiu $17,$17,1
  405b78:	20 00 00 00 00 00 03 11 	lb $3,0($17)
  405b80:	43 00 00 00 7a 00 02 00 	addiu $2,$0,122
  405b88:	05 00 00 00 04 00 02 03 	beq $3,$2,405ba0 <ne_d+0x210>
  405b90:	43 00 00 00 5a 00 02 00 	addiu $2,$0,90
  405b98:	06 00 00 00 26 00 02 03 	bne $3,$2,405c38 <ne_d+0x2a8>
  405ba0:	28 00 00 00 44 8a 02 1c 	lw $2,-30140($28)
  405ba8:	43 00 00 00 16 00 12 00 	addiu $18,$0,22
  405bb0:	a2 00 00 00 e1 10 03 00 	lui $3,4321
  405bb8:	43 00 00 00 30 2a 03 03 	addiu $3,$3,10800
  405bc0:	55 00 00 00 04 04 02 00 	sll $4,$2,0x4
  405bc8:	42 00 00 00 00 10 03 04 	addu $16,$4,$3
  405bd0:	5c 00 00 00 2c 01 02 02 	slti $2,$2,300
  405bd8:	06 00 00 00 0e 00 00 02 	bne $2,$0,405c18 <ne_d+0x288>
  405be0:	28 00 00 00 38 83 04 1c 	lw $4,-31944($28)
  405be8:	a2 00 00 00 00 10 05 00 	lui $5,4096
  405bf0:	43 00 00 00 ac 00 05 05 	addiu $5,$5,172
  405bf8:	02 00 00 00 30 46 10 00 	jal 4118c0 <fprintf>
  405c00:	28 00 00 00 ac 8a 04 1c 	lw $4,-30036($28)
  405c08:	43 00 00 00 01 00 05 00 	addiu $5,$0,1
  405c10:	02 00 00 00 4c 34 10 00 	jal 40d130 <sig_die>
  405c18:	28 00 00 00 44 8a 02 1c 	lw $2,-30140($28)
  405c20:	34 00 00 00 00 00 12 10 	sw $18,0($16)
  405c28:	34 00 00 00 04 00 00 10 	sw $0,4($16)
  405c30:	01 00 00 00 7c 19 10 00 	j 4065f0 <ne_d+0xc60>
  405c38:	28 00 00 00 44 8a 02 1c 	lw $2,-30140($28)
  405c40:	43 00 00 00 15 00 12 00 	addiu $18,$0,21
  405c48:	a2 00 00 00 e1 10 03 00 	lui $3,4321
  405c50:	43 00 00 00 30 2a 03 03 	addiu $3,$3,10800
  405c58:	55 00 00 00 04 04 02 00 	sll $4,$2,0x4
  405c60:	42 00 00 00 00 10 03 04 	addu $16,$4,$3
  405c68:	5c 00 00 00 2c 01 02 02 	slti $2,$2,300
  405c70:	06 00 00 00 0e 00 00 02 	bne $2,$0,405cb0 <ne_d+0x320>
  405c78:	28 00 00 00 38 83 04 1c 	lw $4,-31944($28)
  405c80:	a2 00 00 00 00 10 05 00 	lui $5,4096
  405c88:	43 00 00 00 ac 00 05 05 	addiu $5,$5,172
  405c90:	02 00 00 00 30 46 10 00 	jal 4118c0 <fprintf>
  405c98:	28 00 00 00 ac 8a 04 1c 	lw $4,-30036($28)
  405ca0:	43 00 00 00 01 00 05 00 	addiu $5,$0,1
  405ca8:	02 00 00 00 4c 34 10 00 	jal 40d130 <sig_die>
  405cb0:	28 00 00 00 44 8a 02 1c 	lw $2,-30140($28)
  405cb8:	34 00 00 00 00 00 12 10 	sw $18,0($16)
  405cc0:	34 00 00 00 04 00 00 10 	sw $0,4($16)
  405cc8:	01 00 00 00 7c 19 10 00 	j 4065f0 <ne_d+0xc60>
  405cd0:	20 00 00 00 01 00 03 11 	lb $3,1($17)
  405cd8:	43 00 00 00 73 00 02 00 	addiu $2,$0,115
  405ce0:	05 00 00 00 04 00 02 03 	beq $3,$2,405cf8 <ne_d+0x368>
  405ce8:	43 00 00 00 53 00 02 00 	addiu $2,$0,83
  405cf0:	06 00 00 00 06 00 02 03 	bne $3,$2,405d10 <ne_d+0x380>
  405cf8:	43 00 00 00 13 00 12 00 	addiu $18,$0,19
  405d00:	43 00 00 00 01 00 11 11 	addiu $17,$17,1
  405d08:	01 00 00 00 54 17 10 00 	j 405d50 <ne_d+0x3c0>
  405d10:	43 00 00 00 70 00 02 00 	addiu $2,$0,112
  405d18:	05 00 00 00 04 00 02 03 	beq $3,$2,405d30 <ne_d+0x3a0>
  405d20:	43 00 00 00 50 00 02 00 	addiu $2,$0,80
  405d28:	06 00 00 00 06 00 02 03 	bne $3,$2,405d48 <ne_d+0x3b8>
  405d30:	43 00 00 00 12 00 12 00 	addiu $18,$0,18
  405d38:	43 00 00 00 01 00 11 11 	addiu $17,$17,1
  405d40:	01 00 00 00 54 17 10 00 	j 405d50 <ne_d+0x3c0>
  405d48:	43 00 00 00 11 00 12 00 	addiu $18,$0,17
  405d50:	28 00 00 00 44 8a 02 1c 	lw $2,-30140($28)
  405d58:	a2 00 00 00 e1 10 03 00 	lui $3,4321
  405d60:	43 00 00 00 30 2a 03 03 	addiu $3,$3,10800
  405d68:	55 00 00 00 04 04 02 00 	sll $4,$2,0x4
  405d70:	42 00 00 00 00 10 03 04 	addu $16,$4,$3
  405d78:	5c 00 00 00 2c 01 02 02 	slti $2,$2,300
  405d80:	06 00 00 00 0e 00 00 02 	bne $2,$0,405dc0 <ne_d+0x430>
  405d88:	28 00 00 00 38 83 04 1c 	lw $4,-31944($28)
  405d90:	a2 00 00 00 00 10 05 00 	lui $5,4096
  405d98:	43 00 00 00 ac 00 05 05 	addiu $5,$5,172
  405da0:	02 00 00 00 30 46 10 00 	jal 4118c0 <fprintf>
  405da8:	28 00 00 00 ac 8a 04 1c 	lw $4,-30036($28)
  405db0:	43 00 00 00 01 00 05 00 	addiu $5,$0,1
  405db8:	02 00 00 00 4c 34 10 00 	jal 40d130 <sig_die>
  405dc0:	28 00 00 00 44 8a 02 1c 	lw $2,-30140($28)
  405dc8:	34 00 00 00 00 00 12 10 	sw $18,0($16)
  405dd0:	34 00 00 00 04 00 00 10 	sw $0,4($16)
  405dd8:	01 00 00 00 7c 19 10 00 	j 4065f0 <ne_d+0xc60>
  405de0:	28 00 00 00 44 8a 02 1c 	lw $2,-30140($28)
  405de8:	43 00 00 00 05 00 12 00 	addiu $18,$0,5
  405df0:	a2 00 00 00 e1 10 03 00 	lui $3,4321
  405df8:	43 00 00 00 30 2a 03 03 	addiu $3,$3,10800
  405e00:	55 00 00 00 04 04 02 00 	sll $4,$2,0x4
  405e08:	42 00 00 00 00 10 03 04 	addu $16,$4,$3
  405e10:	5c 00 00 00 2c 01 02 02 	slti $2,$2,300
  405e18:	06 00 00 00 0e 00 00 02 	bne $2,$0,405e58 <ne_d+0x4c8>
  405e20:	28 00 00 00 38 83 04 1c 	lw $4,-31944($28)
  405e28:	a2 00 00 00 00 10 05 00 	lui $5,4096
  405e30:	43 00 00 00 ac 00 05 05 	addiu $5,$5,172
  405e38:	02 00 00 00 30 46 10 00 	jal 4118c0 <fprintf>
  405e40:	28 00 00 00 ac 8a 04 1c 	lw $4,-30036($28)
  405e48:	43 00 00 00 01 00 05 00 	addiu $5,$0,1
  405e50:	02 00 00 00 4c 34 10 00 	jal 40d130 <sig_die>
  405e58:	28 00 00 00 44 8a 02 1c 	lw $2,-30140($28)
  405e60:	34 00 00 00 00 00 12 10 	sw $18,0($16)
  405e68:	34 00 00 00 04 00 00 10 	sw $0,4($16)
  405e70:	01 00 00 00 7c 19 10 00 	j 4065f0 <ne_d+0xc60>
  405e78:	43 00 00 00 01 00 0a 00 	addiu $10,$0,1
  405e80:	43 00 00 00 01 00 11 11 	addiu $17,$17,1
  405e88:	42 00 00 00 00 04 11 00 	addu $4,$0,$17
  405e90:	43 00 00 00 10 00 08 1d 	addiu $8,$29,16
  405e98:	42 00 00 00 00 06 00 00 	addu $6,$0,$0
  405ea0:	42 00 00 00 00 07 00 00 	addu $7,$0,$0
  405ea8:	22 00 00 00 00 00 03 04 	lbu $3,0($4)
  405eb0:	43 00 00 00 20 00 09 00 	addiu $9,$0,32
  405eb8:	55 00 00 00 18 02 03 00 	sll $2,$3,0x18
  405ec0:	59 00 00 00 18 05 02 00 	sra $5,$2,0x18
  405ec8:	05 00 00 00 12 00 09 05 	beq $5,$9,405f18 <ne_d+0x588>
  405ed0:	43 00 00 00 d0 ff 02 03 	addiu $2,$3,-48
  405ed8:	5e 00 00 00 0a 00 02 02 	sltiu $2,$2,10
  405ee0:	05 00 00 00 12 00 00 02 	beq $2,$0,405f30 <ne_d+0x5a0>
  405ee8:	55 00 00 00 02 02 06 00 	sll $2,$6,0x2
  405ef0:	42 00 00 00 00 02 06 02 	addu $2,$2,$6
  405ef8:	55 00 00 00 01 02 02 00 	sll $2,$2,0x1
  405f00:	42 00 00 00 00 02 05 02 	addu $2,$2,$5
  405f08:	43 00 00 00 d0 ff 06 02 	addiu $6,$2,-48
  405f10:	43 00 00 00 01 00 07 07 	addiu $7,$7,1
  405f18:	43 00 00 00 01 00 04 04 	addiu $4,$4,1
  405f20:	22 00 00 00 00 00 03 04 	lbu $3,0($4)
  405f28:	01 00 00 00 ae 17 10 00 	j 405eb8 <ne_d+0x528>
  405f30:	06 00 00 00 06 00 00 07 	bne $7,$0,405f50 <ne_d+0x5c0>
  405f38:	43 00 00 00 01 00 02 00 	addiu $2,$0,1
  405f40:	34 00 00 00 00 00 02 08 	sw $2,0($8)
  405f48:	01 00 00 00 d6 17 10 00 	j 405f58 <ne_d+0x5c8>
  405f50:	34 00 00 00 00 00 06 08 	sw $6,0($8)
  405f58:	42 00 00 00 00 11 04 00 	addu $17,$0,$4
  405f60:	22 00 00 00 00 00 02 11 	lbu $2,0($17)
  405f68:	43 00 00 00 b8 ff 02 02 	addiu $2,$2,-72
  405f70:	55 00 00 00 18 02 02 00 	sll $2,$2,0x18
  405f78:	59 00 00 00 18 03 02 00 	sra $3,$2,0x18
  405f80:	5e 00 00 00 31 00 02 03 	sltiu $2,$3,49
  405f88:	05 00 00 00 0a 00 00 02 	beq $2,$0,405fb8 <ne_d+0x628>
  405f90:	55 00 00 00 02 02 03 00 	sll $2,$3,0x2
  405f98:	a2 00 00 00 00 10 01 00 	lui $1,4096
  405fa0:	42 00 00 00 00 01 02 01 	addu $1,$1,$2
  405fa8:	28 00 00 00 c8 02 02 01 	lw $2,712($1)
  405fb0:	03 00 00 00 00 00 00 02 	jr $2
  405fb8:	42 00 00 00 00 02 00 00 	addu $2,$0,$0
  405fc0:	01 00 00 00 8a 19 10 00 	j 406628 <ne_d+0xc98>
  405fc8:	05 00 00 00 06 00 00 0a 	beq $10,$0,405fe8 <ne_d+0x658>
  405fd0:	28 00 00 00 10 00 02 1d 	lw $2,16($29)
  405fd8:	45 00 00 00 00 02 02 00 	subu $2,$0,$2
  405fe0:	34 00 00 00 10 00 02 1d 	sw $2,16($29)
  405fe8:	28 00 00 00 44 8a 02 1c 	lw $2,-30140($28)
  405ff0:	43 00 00 00 14 00 13 00 	addiu $19,$0,20
  405ff8:	28 00 00 00 10 00 12 1d 	lw $18,16($29)
  406000:	a2 00 00 00 e1 10 03 00 	lui $3,4321
  406008:	43 00 00 00 30 2a 03 03 	addiu $3,$3,10800
  406010:	55 00 00 00 04 04 02 00 	sll $4,$2,0x4
  406018:	42 00 00 00 00 10 03 04 	addu $16,$4,$3
  406020:	5c 00 00 00 2c 01 02 02 	slti $2,$2,300
  406028:	06 00 00 00 0e 00 00 02 	bne $2,$0,406068 <ne_d+0x6d8>
  406030:	28 00 00 00 38 83 04 1c 	lw $4,-31944($28)
  406038:	a2 00 00 00 00 10 05 00 	lui $5,4096
  406040:	43 00 00 00 ac 00 05 05 	addiu $5,$5,172
  406048:	02 00 00 00 30 46 10 00 	jal 4118c0 <fprintf>
  406050:	28 00 00 00 ac 8a 04 1c 	lw $4,-30036($28)
  406058:	43 00 00 00 01 00 05 00 	addiu $5,$0,1
  406060:	02 00 00 00 4c 34 10 00 	jal 40d130 <sig_die>
  406068:	28 00 00 00 44 8a 02 1c 	lw $2,-30140($28)
  406070:	34 00 00 00 00 00 13 10 	sw $19,0($16)
  406078:	34 00 00 00 04 00 12 10 	sw $18,4($16)
  406080:	01 00 00 00 7c 19 10 00 	j 4065f0 <ne_d+0xc60>
  406088:	28 00 00 00 44 8a 02 1c 	lw $2,-30140($28)
  406090:	43 00 00 00 04 00 13 00 	addiu $19,$0,4
  406098:	28 00 00 00 10 00 12 1d 	lw $18,16($29)
  4060a0:	a2 00 00 00 e1 10 03 00 	lui $3,4321
  4060a8:	43 00 00 00 30 2a 03 03 	addiu $3,$3,10800
  4060b0:	55 00 00 00 04 04 02 00 	sll $4,$2,0x4
  4060b8:	42 00 00 00 00 10 03 04 	addu $16,$4,$3
  4060c0:	5c 00 00 00 2c 01 02 02 	slti $2,$2,300
  4060c8:	06 00 00 00 0e 00 00 02 	bne $2,$0,406108 <ne_d+0x778>
  4060d0:	28 00 00 00 38 83 04 1c 	lw $4,-31944($28)
  4060d8:	a2 00 00 00 00 10 05 00 	lui $5,4096
  4060e0:	43 00 00 00 ac 00 05 05 	addiu $5,$5,172
  4060e8:	02 00 00 00 30 46 10 00 	jal 4118c0 <fprintf>
  4060f0:	28 00 00 00 ac 8a 04 1c 	lw $4,-30036($28)
  4060f8:	43 00 00 00 01 00 05 00 	addiu $5,$0,1
  406100:	02 00 00 00 4c 34 10 00 	jal 40d130 <sig_die>
  406108:	28 00 00 00 44 8a 02 1c 	lw $2,-30140($28)
  406110:	34 00 00 00 00 00 13 10 	sw $19,0($16)
  406118:	34 00 00 00 04 00 12 10 	sw $18,4($16)
  406120:	01 00 00 00 7c 19 10 00 	j 4065f0 <ne_d+0xc60>
  406128:	28 00 00 00 44 8a 02 1c 	lw $2,-30140($28)
  406130:	43 00 00 00 0c 00 14 00 	addiu $20,$0,12
  406138:	28 00 00 00 10 00 12 1d 	lw $18,16($29)
  406140:	a2 00 00 00 e1 10 13 00 	lui $19,4321
  406148:	43 00 00 00 30 2a 13 13 	addiu $19,$19,10800
  406150:	55 00 00 00 04 03 02 00 	sll $3,$2,0x4
  406158:	42 00 00 00 00 10 13 03 	addu $16,$3,$19
  406160:	5c 00 00 00 2c 01 02 02 	slti $2,$2,300
  406168:	06 00 00 00 0e 00 00 02 	bne $2,$0,4061a8 <ne_d+0x818>
  406170:	28 00 00 00 38 83 04 1c 	lw $4,-31944($28)
  406178:	a2 00 00 00 00 10 05 00 	lui $5,4096
  406180:	43 00 00 00 ac 00 05 05 	addiu $5,$5,172
  406188:	02 00 00 00 30 46 10 00 	jal 4118c0 <fprintf>
  406190:	28 00 00 00 ac 8a 04 1c 	lw $4,-30036($28)
  406198:	43 00 00 00 01 00 05 00 	addiu $5,$0,1
  4061a0:	02 00 00 00 4c 34 10 00 	jal 40d130 <sig_die>
  4061a8:	28 00 00 00 44 8a 03 1c 	lw $3,-30140($28)
  4061b0:	34 00 00 00 00 00 14 10 	sw $20,0($16)
  4061b8:	34 00 00 00 04 00 12 10 	sw $18,4($16)
  4061c0:	34 00 00 00 08 00 00 10 	sw $0,8($16)
  4061c8:	34 00 00 00 0c 00 00 10 	sw $0,12($16)
  4061d0:	55 00 00 00 04 02 03 00 	sll $2,$3,0x4
  4061d8:	42 00 00 00 00 04 13 02 	addu $4,$2,$19
  4061e0:	43 00 00 00 01 00 03 03 	addiu $3,$3,1
  4061e8:	43 00 00 00 01 00 02 11 	addiu $2,$17,1
  4061f0:	34 00 00 00 44 8a 03 1c 	sw $3,-30140($28)
  4061f8:	34 00 00 00 08 00 02 04 	sw $2,8($4)
  406200:	28 00 00 00 10 00 02 1d 	lw $2,16($29)
  406208:	42 00 00 00 00 11 02 11 	addu $17,$17,$2
  406210:	01 00 00 00 84 19 10 00 	j 406610 <ne_d+0xc80>
  406218:	28 00 00 00 44 8a 02 1c 	lw $2,-30140($28)
  406220:	43 00 00 00 0b 00 13 00 	addiu $19,$0,11
  406228:	a2 00 00 00 e1 10 12 00 	lui $18,4321
  406230:	43 00 00 00 30 2a 12 12 	addiu $18,$18,10800
  406238:	55 00 00 00 04 03 02 00 	sll $3,$2,0x4
  406240:	42 00 00 00 00 10 12 03 	addu $16,$3,$18
  406248:	5c 00 00 00 2c 01 02 02 	slti $2,$2,300
  406250:	06 00 00 00 0e 00 00 02 	bne $2,$0,406290 <ne_d+0x900>
  406258:	28 00 00 00 38 83 04 1c 	lw $4,-31944($28)
  406260:	a2 00 00 00 00 10 05 00 	lui $5,4096
  406268:	43 00 00 00 ac 00 05 05 	addiu $5,$5,172
  406270:	02 00 00 00 30 46 10 00 	jal 4118c0 <fprintf>
  406278:	28 00 00 00 ac 8a 04 1c 	lw $4,-30036($28)
  406280:	43 00 00 00 01 00 05 00 	addiu $5,$0,1
  406288:	02 00 00 00 4c 34 10 00 	jal 40d130 <sig_die>
  406290:	28 00 00 00 44 8a 02 1c 	lw $2,-30140($28)
  406298:	34 00 00 00 00 00 13 10 	sw $19,0($16)
  4062a0:	34 00 00 00 04 00 00 10 	sw $0,4($16)
  4062a8:	34 00 00 00 08 00 00 10 	sw $0,8($16)
  4062b0:	34 00 00 00 0c 00 00 10 	sw $0,12($16)
  4062b8:	55 00 00 00 04 03 02 00 	sll $3,$2,0x4
  4062c0:	42 00 00 00 00 04 12 03 	addu $4,$3,$18
  4062c8:	43 00 00 00 01 00 02 02 	addiu $2,$2,1
  4062d0:	34 00 00 00 44 8a 02 1c 	sw $2,-30140($28)
  4062d8:	34 00 00 00 08 00 11 04 	sw $17,8($4)
  4062e0:	22 00 00 00 00 00 03 11 	lbu $3,0($17)
  4062e8:	20 00 00 00 01 00 02 11 	lb $2,1($17)
  4062f0:	43 00 00 00 01 00 04 11 	addiu $4,$17,1
  4062f8:	05 00 00 00 14 00 00 02 	beq $2,$0,406350 <ne_d+0x9c0>
  406300:	55 00 00 00 18 02 03 00 	sll $2,$3,0x18
  406308:	59 00 00 00 18 05 02 00 	sra $5,$2,0x18
  406310:	20 00 00 00 00 00 03 04 	lb $3,0($4)
  406318:	06 00 00 00 06 00 05 03 	bne $3,$5,406338 <ne_d+0x9a8>
  406320:	43 00 00 00 01 00 04 04 	addiu $4,$4,1
  406328:	20 00 00 00 00 00 02 04 	lb $2,0($4)
  406330:	06 00 00 00 12 00 03 02 	bne $2,$3,406380 <ne_d+0x9f0>
  406338:	43 00 00 00 01 00 04 04 	addiu $4,$4,1
  406340:	20 00 00 00 00 00 02 04 	lb $2,0($4)
  406348:	06 00 00 00 f0 ff 00 02 	bne $2,$0,406310 <ne_d+0x980>
  406350:	28 00 00 00 a4 8a 02 1c 	lw $2,-30044($28)
  406358:	28 00 00 00 00 00 02 02 	lw $2,0($2)
  406360:	05 00 00 00 0a 00 00 02 	beq $2,$0,406390 <ne_d+0xa00>
  406368:	43 00 00 00 64 00 02 00 	addiu $2,$0,100
  406370:	34 00 00 00 10 8a 02 1c 	sw $2,-30192($28)
  406378:	01 00 00 00 ec 18 10 00 	j 4063b0 <ne_d+0xa20>
  406380:	42 00 00 00 00 02 04 00 	addu $2,$0,$4
  406388:	01 00 00 00 ee 18 10 00 	j 4063b8 <ne_d+0xa28>
  406390:	43 00 00 00 64 00 04 00 	addiu $4,$0,100
  406398:	a2 00 00 00 00 10 05 00 	lui $5,4096
  4063a0:	43 00 00 00 a0 00 05 05 	addiu $5,$5,160
  4063a8:	02 00 00 00 86 30 10 00 	jal 40c218 <f__fatal>
  4063b0:	42 00 00 00 00 02 00 00 	addu $2,$0,$0
  4063b8:	34 00 00 00 00 00 02 15 	sw $2,0($21)
  4063c0:	5d 00 00 00 00 02 02 00 	sltu $2,$0,$2
  4063c8:	01 00 00 00 8a 19 10 00 	j 406628 <ne_d+0xc98>
  4063d0:	20 00 00 00 01 00 03 11 	lb $3,1($17)
  4063d8:	43 00 00 00 6c 00 02 00 	addiu $2,$0,108
  4063e0:	05 00 00 00 04 00 02 03 	beq $3,$2,4063f8 <ne_d+0xa68>
  4063e8:	43 00 00 00 4c 00 02 00 	addiu $2,$0,76
  4063f0:	06 00 00 00 06 00 02 03 	bne $3,$2,406410 <ne_d+0xa80>
  4063f8:	43 00 00 00 0d 00 12 00 	addiu $18,$0,13
  406400:	43 00 00 00 01 00 11 11 	addiu $17,$17,1
  406408:	01 00 00 00 14 19 10 00 	j 406450 <ne_d+0xac0>
  406410:	43 00 00 00 72 00 02 00 	addiu $2,$0,114
  406418:	05 00 00 00 04 00 02 03 	beq $3,$2,406430 <ne_d+0xaa0>
  406420:	43 00 00 00 52 00 02 00 	addiu $2,$0,82
  406428:	06 00 00 00 06 00 02 03 	bne $3,$2,406448 <ne_d+0xab8>
  406430:	43 00 00 00 0e 00 12 00 	addiu $18,$0,14
  406438:	43 00 00 00 01 00 11 11 	addiu $17,$17,1
  406440:	01 00 00 00 14 19 10 00 	j 406450 <ne_d+0xac0>
  406448:	43 00 00 00 0f 00 12 00 	addiu $18,$0,15
  406450:	43 00 00 00 01 00 05 11 	addiu $5,$17,1
  406458:	43 00 00 00 10 00 08 1d 	addiu $8,$29,16
  406460:	42 00 00 00 00 06 00 00 	addu $6,$0,$0
  406468:	42 00 00 00 00 07 00 00 	addu $7,$0,$0
  406470:	22 00 00 00 01 00 04 11 	lbu $4,1($17)
  406478:	43 00 00 00 20 00 09 00 	addiu $9,$0,32
  406480:	55 00 00 00 18 02 04 00 	sll $2,$4,0x18
  406488:	59 00 00 00 18 03 02 00 	sra $3,$2,0x18
  406490:	05 00 00 00 12 00 09 03 	beq $3,$9,4064e0 <ne_d+0xb50>
  406498:	43 00 00 00 d0 ff 02 04 	addiu $2,$4,-48
  4064a0:	5e 00 00 00 0a 00 02 02 	sltiu $2,$2,10
  4064a8:	05 00 00 00 12 00 00 02 	beq $2,$0,4064f8 <ne_d+0xb68>
  4064b0:	55 00 00 00 02 02 06 00 	sll $2,$6,0x2
  4064b8:	42 00 00 00 00 02 06 02 	addu $2,$2,$6
  4064c0:	55 00 00 00 01 02 02 00 	sll $2,$2,0x1
  4064c8:	42 00 00 00 00 02 03 02 	addu $2,$2,$3
  4064d0:	43 00 00 00 d0 ff 06 02 	addiu $6,$2,-48
  4064d8:	43 00 00 00 01 00 07 07 	addiu $7,$7,1
  4064e0:	43 00 00 00 01 00 05 05 	addiu $5,$5,1
  4064e8:	22 00 00 00 00 00 04 05 	lbu $4,0($5)
  4064f0:	01 00 00 00 20 19 10 00 	j 406480 <ne_d+0xaf0>
  4064f8:	06 00 00 00 06 00 00 07 	bne $7,$0,406518 <ne_d+0xb88>
  406500:	43 00 00 00 01 00 02 00 	addiu $2,$0,1
  406508:	34 00 00 00 00 00 02 08 	sw $2,0($8)
  406510:	01 00 00 00 48 19 10 00 	j 406520 <ne_d+0xb90>
  406518:	34 00 00 00 00 00 06 08 	sw $6,0($8)
  406520:	28 00 00 00 44 8a 02 1c 	lw $2,-30140($28)
  406528:	43 00 00 00 ff ff 11 05 	addiu $17,$5,-1
  406530:	28 00 00 00 10 00 13 1d 	lw $19,16($29)
  406538:	01 00 00 00 5c 19 10 00 	j 406570 <ne_d+0xbe0>
  406540:	28 00 00 00 44 8a 02 1c 	lw $2,-30140($28)
  406548:	43 00 00 00 04 00 12 00 	addiu $18,$0,4
  406550:	01 00 00 00 5a 19 10 00 	j 406568 <ne_d+0xbd8>
  406558:	28 00 00 00 44 8a 02 1c 	lw $2,-30140($28)
  406560:	43 00 00 00 14 00 12 00 	addiu $18,$0,20
  406568:	43 00 00 00 01 00 13 00 	addiu $19,$0,1
  406570:	a2 00 00 00 e1 10 03 00 	lui $3,4321
  406578:	43 00 00 00 30 2a 03 03 	addiu $3,$3,10800
  406580:	55 00 00 00 04 04 02 00 	sll $4,$2,0x4
  406588:	42 00 00 00 00 10 03 04 	addu $16,$4,$3
  406590:	5c 00 00 00 2c 01 02 02 	slti $2,$2,300
  406598:	06 00 00 00 0e 00 00 02 	bne $2,$0,4065d8 <ne_d+0xc48>
  4065a0:	28 00 00 00 38 83 04 1c 	lw $4,-31944($28)
  4065a8:	a2 00 00 00 00 10 05 00 	lui $5,4096
  4065b0:	43 00 00 00 ac 00 05 05 	addiu $5,$5,172
  4065b8:	02 00 00 00 30 46 10 00 	jal 4118c0 <fprintf>
  4065c0:	28 00 00 00 ac 8a 04 1c 	lw $4,-30036($28)
  4065c8:	43 00 00 00 01 00 05 00 	addiu $5,$0,1
  4065d0:	02 00 00 00 4c 34 10 00 	jal 40d130 <sig_die>
  4065d8:	28 00 00 00 44 8a 02 1c 	lw $2,-30140($28)
  4065e0:	34 00 00 00 00 00 12 10 	sw $18,0($16)
  4065e8:	34 00 00 00 04 00 13 10 	sw $19,4($16)
  4065f0:	34 00 00 00 08 00 00 10 	sw $0,8($16)
  4065f8:	34 00 00 00 0c 00 00 10 	sw $0,12($16)
  406600:	43 00 00 00 01 00 02 02 	addiu $2,$2,1
  406608:	34 00 00 00 44 8a 02 1c 	sw $2,-30140($28)
  406610:	43 00 00 00 01 00 11 11 	addiu $17,$17,1
  406618:	34 00 00 00 00 00 11 15 	sw $17,0($21)
  406620:	43 00 00 00 01 00 02 00 	addiu $2,$0,1
  406628:	28 00 00 00 30 00 1f 1d 	lw $31,48($29)
  406630:	28 00 00 00 2c 00 15 1d 	lw $21,44($29)
  406638:	28 00 00 00 28 00 14 1d 	lw $20,40($29)
  406640:	28 00 00 00 24 00 13 1d 	lw $19,36($29)
  406648:	28 00 00 00 20 00 12 1d 	lw $18,32($29)
  406650:	28 00 00 00 1c 00 11 1d 	lw $17,28($29)
  406658:	28 00 00 00 18 00 10 1d 	lw $16,24($29)
  406660:	43 00 00 00 38 00 1d 1d 	addiu $29,$29,56
  406668:	03 00 00 00 00 00 00 1f 	jr $31

00406670 <e_d>:
  406670:	43 00 00 00 b8 ff 1d 1d 	addiu $29,$29,-72
  406678:	34 00 00 00 40 00 1e 1d 	sw $30,64($29)
  406680:	42 00 00 00 00 1e 05 00 	addu $30,$0,$5
  406688:	34 00 00 00 38 00 16 1d 	sw $22,56($29)
  406690:	42 00 00 00 00 16 00 00 	addu $22,$0,$0
  406698:	34 00 00 00 30 00 14 1d 	sw $20,48($29)
  4066a0:	42 00 00 00 00 14 00 00 	addu $20,$0,$0
  4066a8:	34 00 00 00 3c 00 17 1d 	sw $23,60($29)
  4066b0:	42 00 00 00 00 17 04 00 	addu $23,$0,$4
  4066b8:	42 00 00 00 00 05 17 00 	addu $5,$0,$23
  4066c0:	43 00 00 00 10 00 08 1d 	addiu $8,$29,16
  4066c8:	42 00 00 00 00 06 00 00 	addu $6,$0,$0
  4066d0:	42 00 00 00 00 07 00 00 	addu $7,$0,$0
  4066d8:	34 00 00 00 44 00 1f 1d 	sw $31,68($29)
  4066e0:	34 00 00 00 34 00 15 1d 	sw $21,52($29)
  4066e8:	34 00 00 00 2c 00 13 1d 	sw $19,44($29)
  4066f0:	34 00 00 00 28 00 12 1d 	sw $18,40($29)
  4066f8:	34 00 00 00 24 00 11 1d 	sw $17,36($29)
  406700:	34 00 00 00 20 00 10 1d 	sw $16,32($29)
  406708:	22 00 00 00 00 00 03 17 	lbu $3,0($23)
  406710:	43 00 00 00 20 00 09 00 	addiu $9,$0,32
  406718:	55 00 00 00 18 02 03 00 	sll $2,$3,0x18
  406720:	59 00 00 00 18 04 02 00 	sra $4,$2,0x18
  406728:	05 00 00 00 12 00 09 04 	beq $4,$9,406778 <e_d+0x108>
  406730:	43 00 00 00 d0 ff 02 03 	addiu $2,$3,-48
  406738:	5e 00 00 00 0a 00 02 02 	sltiu $2,$2,10
  406740:	05 00 00 00 12 00 00 02 	beq $2,$0,406790 <e_d+0x120>
  406748:	55 00 00 00 02 02 06 00 	sll $2,$6,0x2
  406750:	42 00 00 00 00 02 06 02 	addu $2,$2,$6
  406758:	55 00 00 00 01 02 02 00 	sll $2,$2,0x1
  406760:	42 00 00 00 00 02 04 02 	addu $2,$2,$4
  406768:	43 00 00 00 d0 ff 06 02 	addiu $6,$2,-48
  406770:	43 00 00 00 01 00 07 07 	addiu $7,$7,1
  406778:	43 00 00 00 01 00 05 05 	addiu $5,$5,1
  406780:	22 00 00 00 00 00 03 05 	lbu $3,0($5)
  406788:	01 00 00 00 c6 19 10 00 	j 406718 <e_d+0xa8>
  406790:	06 00 00 00 06 00 00 07 	bne $7,$0,4067b0 <e_d+0x140>
  406798:	43 00 00 00 01 00 02 00 	addiu $2,$0,1
  4067a0:	34 00 00 00 00 00 02 08 	sw $2,0($8)
  4067a8:	01 00 00 00 ee 19 10 00 	j 4067b8 <e_d+0x148>
  4067b0:	34 00 00 00 00 00 06 08 	sw $6,0($8)
  4067b8:	42 00 00 00 00 10 05 00 	addu $16,$0,$5
  4067c0:	28 00 00 00 44 8a 02 1c 	lw $2,-30140($28)
  4067c8:	43 00 00 00 06 00 13 00 	addiu $19,$0,6
  4067d0:	28 00 00 00 10 00 12 1d 	lw $18,16($29)
  4067d8:	a2 00 00 00 e1 10 03 00 	lui $3,4321
  4067e0:	43 00 00 00 30 2a 03 03 	addiu $3,$3,10800
  4067e8:	55 00 00 00 04 04 02 00 	sll $4,$2,0x4
  4067f0:	42 00 00 00 00 11 03 04 	addu $17,$4,$3
  4067f8:	5c 00 00 00 2c 01 02 02 	slti $2,$2,300
  406800:	06 00 00 00 0e 00 00 02 	bne $2,$0,406840 <e_d+0x1d0>
  406808:	28 00 00 00 38 83 04 1c 	lw $4,-31944($28)
  406810:	a2 00 00 00 00 10 05 00 	lui $5,4096
  406818:	43 00 00 00 ac 00 05 05 	addiu $5,$5,172
  406820:	02 00 00 00 30 46 10 00 	jal 4118c0 <fprintf>
  406828:	28 00 00 00 ac 8a 04 1c 	lw $4,-30036($28)
  406830:	43 00 00 00 01 00 05 00 	addiu $5,$0,1
  406838:	02 00 00 00 4c 34 10 00 	jal 40d130 <sig_die>
  406840:	28 00 00 00 44 8a 02 1c 	lw $2,-30140($28)
  406848:	34 00 00 00 00 00 13 11 	sw $19,0($17)
  406850:	34 00 00 00 04 00 12 11 	sw $18,4($17)
  406858:	34 00 00 00 08 00 00 11 	sw $0,8($17)
  406860:	34 00 00 00 0c 00 00 11 	sw $0,12($17)
  406868:	43 00 00 00 01 00 02 02 	addiu $2,$2,1
  406870:	34 00 00 00 44 8a 02 1c 	sw $2,-30140($28)
  406878:	22 00 00 00 00 00 02 10 	lbu $2,0($16)
  406880:	43 00 00 00 01 00 10 10 	addiu $16,$16,1
  406888:	43 00 00 00 bf ff 02 02 	addiu $2,$2,-65
  406890:	55 00 00 00 18 02 02 00 	sll $2,$2,0x18
  406898:	59 00 00 00 18 03 02 00 	sra $3,$2,0x18
  4068a0:	5e 00 00 00 3a 00 02 03 	sltiu $2,$3,58
  4068a8:	05 00 00 00 1a 04 00 02 	beq $2,$0,407918 <e_d+0x12a8>
  4068b0:	55 00 00 00 02 02 03 00 	sll $2,$3,0x2
  4068b8:	a2 00 00 00 00 10 01 00 	lui $1,4096
  4068c0:	42 00 00 00 00 01 02 01 	addu $1,$1,$2
  4068c8:	28 00 00 00 90 03 02 01 	lw $2,912($1)
  4068d0:	03 00 00 00 00 00 00 02 	jr $2
  4068d8:	43 00 00 00 01 00 14 00 	addiu $20,$0,1
  4068e0:	43 00 00 00 01 00 16 00 	addiu $22,$0,1
  4068e8:	42 00 00 00 00 05 10 00 	addu $5,$0,$16
  4068f0:	43 00 00 00 14 00 09 1d 	addiu $9,$29,20
  4068f8:	42 00 00 00 00 06 00 00 	addu $6,$0,$0
  406900:	42 00 00 00 00 07 00 00 	addu $7,$0,$0
  406908:	22 00 00 00 00 00 03 05 	lbu $3,0($5)
  406910:	43 00 00 00 20 00 08 00 	addiu $8,$0,32
  406918:	55 00 00 00 18 02 03 00 	sll $2,$3,0x18
  406920:	59 00 00 00 18 04 02 00 	sra $4,$2,0x18
  406928:	05 00 00 00 12 00 08 04 	beq $4,$8,406978 <e_d+0x308>
  406930:	43 00 00 00 d0 ff 02 03 	addiu $2,$3,-48
  406938:	5e 00 00 00 0a 00 02 02 	sltiu $2,$2,10
  406940:	05 00 00 00 12 00 00 02 	beq $2,$0,406990 <e_d+0x320>
  406948:	55 00 00 00 02 02 06 00 	sll $2,$6,0x2
  406950:	42 00 00 00 00 02 06 02 	addu $2,$2,$6
  406958:	55 00 00 00 01 02 02 00 	sll $2,$2,0x1
  406960:	42 00 00 00 00 02 04 02 	addu $2,$2,$4
  406968:	43 00 00 00 d0 ff 06 02 	addiu $6,$2,-48
  406970:	43 00 00 00 01 00 07 07 	addiu $7,$7,1
  406978:	43 00 00 00 01 00 05 05 	addiu $5,$5,1
  406980:	22 00 00 00 00 00 03 05 	lbu $3,0($5)
  406988:	01 00 00 00 46 1a 10 00 	j 406918 <e_d+0x2a8>
  406990:	06 00 00 00 06 00 00 07 	bne $7,$0,4069b0 <e_d+0x340>
  406998:	43 00 00 00 01 00 02 00 	addiu $2,$0,1
  4069a0:	34 00 00 00 00 00 02 09 	sw $2,0($9)
  4069a8:	01 00 00 00 6e 1a 10 00 	j 4069b8 <e_d+0x348>
  4069b0:	34 00 00 00 14 00 06 1d 	sw $6,20($29)
  4069b8:	28 00 00 00 14 00 02 1d 	lw $2,20($29)
  4069c0:	42 00 00 00 00 10 05 00 	addu $16,$0,$5
  4069c8:	05 00 00 00 d2 03 00 02 	beq $2,$0,407918 <e_d+0x12a8>
  4069d0:	20 00 00 00 00 00 03 10 	lb $3,0($16)
  4069d8:	43 00 00 00 2e 00 02 00 	addiu $2,$0,46
  4069e0:	06 00 00 00 3a 00 02 03 	bne $3,$2,406ad0 <e_d+0x460>
  4069e8:	43 00 00 00 01 00 10 10 	addiu $16,$16,1
  4069f0:	42 00 00 00 00 04 10 00 	addu $4,$0,$16
  4069f8:	43 00 00 00 18 00 09 1d 	addiu $9,$29,24
  406a00:	42 00 00 00 00 06 00 00 	addu $6,$0,$0
  406a08:	42 00 00 00 00 07 00 00 	addu $7,$0,$0
  406a10:	22 00 00 00 00 00 03 04 	lbu $3,0($4)
  406a18:	43 00 00 00 20 00 08 00 	addiu $8,$0,32
  406a20:	55 00 00 00 18 02 03 00 	sll $2,$3,0x18
  406a28:	59 00 00 00 18 05 02 00 	sra $5,$2,0x18
  406a30:	05 00 00 00 12 00 08 05 	beq $5,$8,406a80 <e_d+0x410>
  406a38:	43 00 00 00 d0 ff 02 03 	addiu $2,$3,-48
  406a40:	5e 00 00 00 0a 00 02 02 	sltiu $2,$2,10
  406a48:	05 00 00 00 12 00 00 02 	beq $2,$0,406a98 <e_d+0x428>
  406a50:	55 00 00 00 02 02 06 00 	sll $2,$6,0x2
  406a58:	42 00 00 00 00 02 06 02 	addu $2,$2,$6
  406a60:	55 00 00 00 01 02 02 00 	sll $2,$2,0x1
  406a68:	42 00 00 00 00 02 05 02 	addu $2,$2,$5
  406a70:	43 00 00 00 d0 ff 06 02 	addiu $6,$2,-48
  406a78:	43 00 00 00 01 00 07 07 	addiu $7,$7,1
  406a80:	43 00 00 00 01 00 04 04 	addiu $4,$4,1
  406a88:	22 00 00 00 00 00 03 04 	lbu $3,0($4)
  406a90:	01 00 00 00 88 1a 10 00 	j 406a20 <e_d+0x3b0>
  406a98:	06 00 00 00 06 00 00 07 	bne $7,$0,406ab8 <e_d+0x448>
  406aa0:	43 00 00 00 01 00 02 00 	addiu $2,$0,1
  406aa8:	34 00 00 00 00 00 02 09 	sw $2,0($9)
  406ab0:	01 00 00 00 b0 1a 10 00 	j 406ac0 <e_d+0x450>
  406ab8:	34 00 00 00 18 00 06 1d 	sw $6,24($29)
  406ac0:	42 00 00 00 00 10 04 00 	addu $16,$0,$4
  406ac8:	01 00 00 00 b6 1a 10 00 	j 406ad8 <e_d+0x468>
  406ad0:	34 00 00 00 18 00 00 1d 	sw $0,24($29)
  406ad8:	20 00 00 00 00 00 03 10 	lb $3,0($16)
  406ae0:	43 00 00 00 45 00 02 00 	addiu $2,$0,69
  406ae8:	05 00 00 00 36 00 02 03 	beq $3,$2,406bc8 <e_d+0x558>
  406af0:	43 00 00 00 65 00 02 00 	addiu $2,$0,101
  406af8:	05 00 00 00 32 00 02 03 	beq $3,$2,406bc8 <e_d+0x558>
  406b00:	43 00 00 00 1b 00 12 00 	addiu $18,$0,27
  406b08:	43 00 00 00 01 00 02 00 	addiu $2,$0,1
  406b10:	06 00 00 00 02 00 02 14 	bne $20,$2,406b20 <e_d+0x4b0>
  406b18:	43 00 00 00 18 00 12 00 	addiu $18,$0,24
  406b20:	28 00 00 00 44 8a 02 1c 	lw $2,-30140($28)
  406b28:	28 00 00 00 14 00 13 1d 	lw $19,20($29)
  406b30:	28 00 00 00 18 00 14 1d 	lw $20,24($29)
  406b38:	a2 00 00 00 e1 10 03 00 	lui $3,4321
  406b40:	43 00 00 00 30 2a 03 03 	addiu $3,$3,10800
  406b48:	55 00 00 00 04 04 02 00 	sll $4,$2,0x4
  406b50:	42 00 00 00 00 11 03 04 	addu $17,$4,$3
  406b58:	5c 00 00 00 2c 01 02 02 	slti $2,$2,300
  406b60:	06 00 00 00 0e 00 00 02 	bne $2,$0,406ba0 <e_d+0x530>
  406b68:	28 00 00 00 38 83 04 1c 	lw $4,-31944($28)
  406b70:	a2 00 00 00 00 10 05 00 	lui $5,4096
  406b78:	43 00 00 00 ac 00 05 05 	addiu $5,$5,172
  406b80:	02 00 00 00 30 46 10 00 	jal 4118c0 <fprintf>
  406b88:	28 00 00 00 ac 8a 04 1c 	lw $4,-30036($28)
  406b90:	43 00 00 00 01 00 05 00 	addiu $5,$0,1
  406b98:	02 00 00 00 4c 34 10 00 	jal 40d130 <sig_die>
  406ba0:	28 00 00 00 44 8a 02 1c 	lw $2,-30140($28)
  406ba8:	34 00 00 00 00 00 12 11 	sw $18,0($17)
  406bb0:	34 00 00 00 04 00 13 11 	sw $19,4($17)
  406bb8:	34 00 00 00 08 00 14 11 	sw $20,8($17)
  406bc0:	01 00 00 00 40 1e 10 00 	j 407900 <e_d+0x1290>
  406bc8:	43 00 00 00 01 00 10 10 	addiu $16,$16,1
  406bd0:	42 00 00 00 00 04 10 00 	addu $4,$0,$16
  406bd8:	43 00 00 00 1c 00 09 1d 	addiu $9,$29,28
  406be0:	42 00 00 00 00 06 00 00 	addu $6,$0,$0
  406be8:	42 00 00 00 00 07 00 00 	addu $7,$0,$0
  406bf0:	22 00 00 00 00 00 03 04 	lbu $3,0($4)
  406bf8:	43 00 00 00 20 00 08 00 	addiu $8,$0,32
  406c00:	55 00 00 00 18 02 03 00 	sll $2,$3,0x18
  406c08:	59 00 00 00 18 05 02 00 	sra $5,$2,0x18
  406c10:	05 00 00 00 12 00 08 05 	beq $5,$8,406c60 <e_d+0x5f0>
  406c18:	43 00 00 00 d0 ff 02 03 	addiu $2,$3,-48
  406c20:	5e 00 00 00 0a 00 02 02 	sltiu $2,$2,10
  406c28:	05 00 00 00 12 00 00 02 	beq $2,$0,406c78 <e_d+0x608>
  406c30:	55 00 00 00 02 02 06 00 	sll $2,$6,0x2
  406c38:	42 00 00 00 00 02 06 02 	addu $2,$2,$6
  406c40:	55 00 00 00 01 02 02 00 	sll $2,$2,0x1
  406c48:	42 00 00 00 00 02 05 02 	addu $2,$2,$5
  406c50:	43 00 00 00 d0 ff 06 02 	addiu $6,$2,-48
  406c58:	43 00 00 00 01 00 07 07 	addiu $7,$7,1
  406c60:	43 00 00 00 01 00 04 04 	addiu $4,$4,1
  406c68:	22 00 00 00 00 00 03 04 	lbu $3,0($4)
  406c70:	01 00 00 00 00 1b 10 00 	j 406c00 <e_d+0x590>
  406c78:	06 00 00 00 06 00 00 07 	bne $7,$0,406c98 <e_d+0x628>
  406c80:	43 00 00 00 01 00 02 00 	addiu $2,$0,1
  406c88:	34 00 00 00 00 00 02 09 	sw $2,0($9)
  406c90:	01 00 00 00 28 1b 10 00 	j 406ca0 <e_d+0x630>
  406c98:	34 00 00 00 1c 00 06 1d 	sw $6,28($29)
  406ca0:	42 00 00 00 00 10 04 00 	addu $16,$0,$4
  406ca8:	43 00 00 00 1c 00 12 00 	addiu $18,$0,28
  406cb0:	43 00 00 00 01 00 02 00 	addiu $2,$0,1
  406cb8:	06 00 00 00 02 00 02 14 	bne $20,$2,406cc8 <e_d+0x658>
  406cc0:	43 00 00 00 19 00 12 00 	addiu $18,$0,25
  406cc8:	28 00 00 00 14 00 15 1d 	lw $21,20($29)
  406cd0:	28 00 00 00 44 8a 02 1c 	lw $2,-30140($28)
  406cd8:	28 00 00 00 18 00 13 1d 	lw $19,24($29)
  406ce0:	28 00 00 00 1c 00 14 1d 	lw $20,28($29)
  406ce8:	a2 00 00 00 e1 10 03 00 	lui $3,4321
  406cf0:	43 00 00 00 30 2a 03 03 	addiu $3,$3,10800
  406cf8:	55 00 00 00 04 04 02 00 	sll $4,$2,0x4
  406d00:	42 00 00 00 00 11 03 04 	addu $17,$4,$3
  406d08:	5c 00 00 00 2c 01 02 02 	slti $2,$2,300
  406d10:	06 00 00 00 0e 00 00 02 	bne $2,$0,406d50 <e_d+0x6e0>
  406d18:	28 00 00 00 38 83 04 1c 	lw $4,-31944($28)
  406d20:	a2 00 00 00 00 10 05 00 	lui $5,4096
  406d28:	43 00 00 00 ac 00 05 05 	addiu $5,$5,172
  406d30:	02 00 00 00 30 46 10 00 	jal 4118c0 <fprintf>
  406d38:	28 00 00 00 ac 8a 04 1c 	lw $4,-30036($28)
  406d40:	43 00 00 00 01 00 05 00 	addiu $5,$0,1
  406d48:	02 00 00 00 4c 34 10 00 	jal 40d130 <sig_die>
  406d50:	28 00 00 00 44 8a 02 1c 	lw $2,-30140($28)
  406d58:	34 00 00 00 00 00 12 11 	sw $18,0($17)
  406d60:	34 00 00 00 04 00 15 11 	sw $21,4($17)
  406d68:	34 00 00 00 08 00 13 11 	sw $19,8($17)
  406d70:	34 00 00 00 0c 00 14 11 	sw $20,12($17)
  406d78:	01 00 00 00 42 1e 10 00 	j 407908 <e_d+0x1298>
  406d80:	43 00 00 00 20 00 13 00 	addiu $19,$0,32
  406d88:	43 00 00 00 22 00 14 00 	addiu $20,$0,34
  406d90:	01 00 00 00 78 1d 10 00 	j 4075e0 <e_d+0xf70>
  406d98:	43 00 00 00 23 00 13 00 	addiu $19,$0,35
  406da0:	43 00 00 00 24 00 14 00 	addiu $20,$0,36
  406da8:	01 00 00 00 78 1d 10 00 	j 4075e0 <e_d+0xf70>
  406db0:	43 00 00 00 01 00 16 00 	addiu $22,$0,1
  406db8:	42 00 00 00 00 05 10 00 	addu $5,$0,$16
  406dc0:	43 00 00 00 14 00 09 1d 	addiu $9,$29,20
  406dc8:	42 00 00 00 00 06 00 00 	addu $6,$0,$0
  406dd0:	42 00 00 00 00 07 00 00 	addu $7,$0,$0
  406dd8:	22 00 00 00 00 00 03 05 	lbu $3,0($5)
  406de0:	43 00 00 00 20 00 08 00 	addiu $8,$0,32
  406de8:	55 00 00 00 18 02 03 00 	sll $2,$3,0x18
  406df0:	59 00 00 00 18 04 02 00 	sra $4,$2,0x18
  406df8:	05 00 00 00 12 00 08 04 	beq $4,$8,406e48 <e_d+0x7d8>
  406e00:	43 00 00 00 d0 ff 02 03 	addiu $2,$3,-48
  406e08:	5e 00 00 00 0a 00 02 02 	sltiu $2,$2,10
  406e10:	05 00 00 00 12 00 00 02 	beq $2,$0,406e60 <e_d+0x7f0>
  406e18:	55 00 00 00 02 02 06 00 	sll $2,$6,0x2
  406e20:	42 00 00 00 00 02 06 02 	addu $2,$2,$6
  406e28:	55 00 00 00 01 02 02 00 	sll $2,$2,0x1
  406e30:	42 00 00 00 00 02 04 02 	addu $2,$2,$4
  406e38:	43 00 00 00 d0 ff 06 02 	addiu $6,$2,-48
  406e40:	43 00 00 00 01 00 07 07 	addiu $7,$7,1
  406e48:	43 00 00 00 01 00 05 05 	addiu $5,$5,1
  406e50:	22 00 00 00 00 00 03 05 	lbu $3,0($5)
  406e58:	01 00 00 00 7a 1b 10 00 	j 406de8 <e_d+0x778>
  406e60:	06 00 00 00 06 00 00 07 	bne $7,$0,406e80 <e_d+0x810>
  406e68:	43 00 00 00 01 00 02 00 	addiu $2,$0,1
  406e70:	34 00 00 00 00 00 02 09 	sw $2,0($9)
  406e78:	01 00 00 00 a2 1b 10 00 	j 406e88 <e_d+0x818>
  406e80:	34 00 00 00 14 00 06 1d 	sw $6,20($29)
  406e88:	28 00 00 00 14 00 12 1d 	lw $18,20($29)
  406e90:	42 00 00 00 00 10 05 00 	addu $16,$0,$5
  406e98:	05 00 00 00 9e 02 00 12 	beq $18,$0,407918 <e_d+0x12a8>
  406ea0:	28 00 00 00 44 8a 02 1c 	lw $2,-30140($28)
  406ea8:	43 00 00 00 1d 00 13 00 	addiu $19,$0,29
  406eb0:	a2 00 00 00 e1 10 03 00 	lui $3,4321
  406eb8:	43 00 00 00 30 2a 03 03 	addiu $3,$3,10800
  406ec0:	55 00 00 00 04 04 02 00 	sll $4,$2,0x4
  406ec8:	42 00 00 00 00 11 03 04 	addu $17,$4,$3
  406ed0:	5c 00 00 00 2c 01 02 02 	slti $2,$2,300
  406ed8:	06 00 00 00 0e 00 00 02 	bne $2,$0,406f18 <e_d+0x8a8>
  406ee0:	28 00 00 00 38 83 04 1c 	lw $4,-31944($28)
  406ee8:	a2 00 00 00 00 10 05 00 	lui $5,4096
  406ef0:	43 00 00 00 ac 00 05 05 	addiu $5,$5,172
  406ef8:	02 00 00 00 30 46 10 00 	jal 4118c0 <fprintf>
  406f00:	28 00 00 00 ac 8a 04 1c 	lw $4,-30036($28)
  406f08:	43 00 00 00 01 00 05 00 	addiu $5,$0,1
  406f10:	02 00 00 00 4c 34 10 00 	jal 40d130 <sig_die>
  406f18:	28 00 00 00 44 8a 02 1c 	lw $2,-30140($28)
  406f20:	34 00 00 00 00 00 13 11 	sw $19,0($17)
  406f28:	34 00 00 00 04 00 12 11 	sw $18,4($17)
  406f30:	34 00 00 00 08 00 00 11 	sw $0,8($17)
  406f38:	01 00 00 00 40 1e 10 00 	j 407900 <e_d+0x1290>
  406f40:	20 00 00 00 00 00 03 10 	lb $3,0($16)
  406f48:	43 00 00 00 01 00 16 00 	addiu $22,$0,1
  406f50:	43 00 00 00 20 00 02 00 	addiu $2,$0,32
  406f58:	06 00 00 00 08 00 02 03 	bne $3,$2,406f80 <e_d+0x910>
  406f60:	43 00 00 00 20 00 03 00 	addiu $3,$0,32
  406f68:	43 00 00 00 01 00 10 10 	addiu $16,$16,1
  406f70:	20 00 00 00 00 00 02 10 	lb $2,0($16)
  406f78:	05 00 00 00 fa ff 03 02 	beq $2,$3,406f68 <e_d+0x8f8>
  406f80:	22 00 00 00 00 00 03 10 	lbu $3,0($16)
  406f88:	43 00 00 00 d0 ff 02 03 	addiu $2,$3,-48
  406f90:	5e 00 00 00 0a 00 02 02 	sltiu $2,$2,10
  406f98:	05 00 00 00 60 00 00 02 	beq $2,$0,407120 <e_d+0xab0>
  406fa0:	42 00 00 00 00 05 10 00 	addu $5,$0,$16
  406fa8:	43 00 00 00 14 00 09 1d 	addiu $9,$29,20
  406fb0:	42 00 00 00 00 06 00 00 	addu $6,$0,$0
  406fb8:	42 00 00 00 00 07 00 00 	addu $7,$0,$0
  406fc0:	43 00 00 00 20 00 08 00 	addiu $8,$0,32
  406fc8:	55 00 00 00 18 02 03 00 	sll $2,$3,0x18
  406fd0:	59 00 00 00 18 04 02 00 	sra $4,$2,0x18
  406fd8:	05 00 00 00 12 00 08 04 	beq $4,$8,407028 <e_d+0x9b8>
  406fe0:	43 00 00 00 d0 ff 02 03 	addiu $2,$3,-48
  406fe8:	5e 00 00 00 0a 00 02 02 	sltiu $2,$2,10
  406ff0:	05 00 00 00 12 00 00 02 	beq $2,$0,407040 <e_d+0x9d0>
  406ff8:	55 00 00 00 02 02 06 00 	sll $2,$6,0x2
  407000:	42 00 00 00 00 02 06 02 	addu $2,$2,$6
  407008:	55 00 00 00 01 02 02 00 	sll $2,$2,0x1
  407010:	42 00 00 00 00 02 04 02 	addu $2,$2,$4
  407018:	43 00 00 00 d0 ff 06 02 	addiu $6,$2,-48
  407020:	43 00 00 00 01 00 07 07 	addiu $7,$7,1
  407028:	43 00 00 00 01 00 05 05 	addiu $5,$5,1
  407030:	22 00 00 00 00 00 03 05 	lbu $3,0($5)
  407038:	01 00 00 00 f2 1b 10 00 	j 406fc8 <e_d+0x958>
  407040:	06 00 00 00 06 00 00 07 	bne $7,$0,407060 <e_d+0x9f0>
  407048:	43 00 00 00 01 00 02 00 	addiu $2,$0,1
  407050:	34 00 00 00 00 00 02 09 	sw $2,0($9)
  407058:	01 00 00 00 1a 1c 10 00 	j 407068 <e_d+0x9f8>
  407060:	34 00 00 00 14 00 06 1d 	sw $6,20($29)
  407068:	28 00 00 00 14 00 12 1d 	lw $18,20($29)
  407070:	42 00 00 00 00 10 05 00 	addu $16,$0,$5
  407078:	05 00 00 00 26 02 00 12 	beq $18,$0,407918 <e_d+0x12a8>
  407080:	28 00 00 00 44 8a 02 1c 	lw $2,-30140($28)
  407088:	43 00 00 00 1f 00 13 00 	addiu $19,$0,31
  407090:	a2 00 00 00 e1 10 03 00 	lui $3,4321
  407098:	43 00 00 00 30 2a 03 03 	addiu $3,$3,10800
  4070a0:	55 00 00 00 04 04 02 00 	sll $4,$2,0x4
  4070a8:	42 00 00 00 00 11 03 04 	addu $17,$4,$3
  4070b0:	5c 00 00 00 2c 01 02 02 	slti $2,$2,300
  4070b8:	06 00 00 00 0e 00 00 02 	bne $2,$0,4070f8 <e_d+0xa88>
  4070c0:	28 00 00 00 38 83 04 1c 	lw $4,-31944($28)
  4070c8:	a2 00 00 00 00 10 05 00 	lui $5,4096
  4070d0:	43 00 00 00 ac 00 05 05 	addiu $5,$5,172
  4070d8:	02 00 00 00 30 46 10 00 	jal 4118c0 <fprintf>
  4070e0:	28 00 00 00 ac 8a 04 1c 	lw $4,-30036($28)
  4070e8:	43 00 00 00 01 00 05 00 	addiu $5,$0,1
  4070f0:	02 00 00 00 4c 34 10 00 	jal 40d130 <sig_die>
  4070f8:	28 00 00 00 44 8a 02 1c 	lw $2,-30140($28)
  407100:	34 00 00 00 00 00 13 11 	sw $19,0($17)
  407108:	34 00 00 00 04 00 12 11 	sw $18,4($17)
  407110:	34 00 00 00 08 00 00 11 	sw $0,8($17)
  407118:	01 00 00 00 40 1e 10 00 	j 407900 <e_d+0x1290>
  407120:	28 00 00 00 44 8a 02 1c 	lw $2,-30140($28)
  407128:	43 00 00 00 1e 00 12 00 	addiu $18,$0,30
  407130:	a2 00 00 00 e1 10 03 00 	lui $3,4321
  407138:	43 00 00 00 30 2a 03 03 	addiu $3,$3,10800
  407140:	55 00 00 00 04 04 02 00 	sll $4,$2,0x4
  407148:	42 00 00 00 00 11 03 04 	addu $17,$4,$3
  407150:	5c 00 00 00 2c 01 02 02 	slti $2,$2,300
  407158:	06 00 00 00 0e 00 00 02 	bne $2,$0,407198 <e_d+0xb28>
  407160:	28 00 00 00 38 83 04 1c 	lw $4,-31944($28)
  407168:	a2 00 00 00 00 10 05 00 	lui $5,4096
  407170:	43 00 00 00 ac 00 05 05 	addiu $5,$5,172
  407178:	02 00 00 00 30 46 10 00 	jal 4118c0 <fprintf>
  407180:	28 00 00 00 ac 8a 04 1c 	lw $4,-30036($28)
  407188:	43 00 00 00 01 00 05 00 	addiu $5,$0,1
  407190:	02 00 00 00 4c 34 10 00 	jal 40d130 <sig_die>
  407198:	28 00 00 00 44 8a 02 1c 	lw $2,-30140($28)
  4071a0:	34 00 00 00 00 00 12 11 	sw $18,0($17)
  4071a8:	34 00 00 00 04 00 00 11 	sw $0,4($17)
  4071b0:	34 00 00 00 08 00 00 11 	sw $0,8($17)
  4071b8:	01 00 00 00 40 1e 10 00 	j 407900 <e_d+0x1290>
  4071c0:	43 00 00 00 01 00 16 00 	addiu $22,$0,1
  4071c8:	42 00 00 00 00 05 10 00 	addu $5,$0,$16
  4071d0:	43 00 00 00 14 00 09 1d 	addiu $9,$29,20
  4071d8:	42 00 00 00 00 06 00 00 	addu $6,$0,$0
  4071e0:	42 00 00 00 00 07 00 00 	addu $7,$0,$0
  4071e8:	22 00 00 00 00 00 03 05 	lbu $3,0($5)
  4071f0:	43 00 00 00 20 00 08 00 	addiu $8,$0,32
  4071f8:	55 00 00 00 18 02 03 00 	sll $2,$3,0x18
  407200:	59 00 00 00 18 04 02 00 	sra $4,$2,0x18
  407208:	05 00 00 00 12 00 08 04 	beq $4,$8,407258 <e_d+0xbe8>
  407210:	43 00 00 00 d0 ff 02 03 	addiu $2,$3,-48
  407218:	5e 00 00 00 0a 00 02 02 	sltiu $2,$2,10
  407220:	05 00 00 00 12 00 00 02 	beq $2,$0,407270 <e_d+0xc00>
  407228:	55 00 00 00 02 02 06 00 	sll $2,$6,0x2
  407230:	42 00 00 00 00 02 06 02 	addu $2,$2,$6
  407238:	55 00 00 00 01 02 02 00 	sll $2,$2,0x1
  407240:	42 00 00 00 00 02 04 02 	addu $2,$2,$4
  407248:	43 00 00 00 d0 ff 06 02 	addiu $6,$2,-48
  407250:	43 00 00 00 01 00 07 07 	addiu $7,$7,1
  407258:	43 00 00 00 01 00 05 05 	addiu $5,$5,1
  407260:	22 00 00 00 00 00 03 05 	lbu $3,0($5)
  407268:	01 00 00 00 7e 1c 10 00 	j 4071f8 <e_d+0xb88>
  407270:	06 00 00 00 06 00 00 07 	bne $7,$0,407290 <e_d+0xc20>
  407278:	43 00 00 00 01 00 02 00 	addiu $2,$0,1
  407280:	34 00 00 00 00 00 02 09 	sw $2,0($9)
  407288:	01 00 00 00 a6 1c 10 00 	j 407298 <e_d+0xc28>
  407290:	34 00 00 00 14 00 06 1d 	sw $6,20($29)
  407298:	28 00 00 00 14 00 02 1d 	lw $2,20($29)
  4072a0:	42 00 00 00 00 10 05 00 	addu $16,$0,$5
  4072a8:	05 00 00 00 9a 01 00 02 	beq $2,$0,407918 <e_d+0x12a8>
  4072b0:	20 00 00 00 00 00 03 10 	lb $3,0($16)
  4072b8:	43 00 00 00 2e 00 02 00 	addiu $2,$0,46
  4072c0:	06 00 00 00 3a 00 02 03 	bne $3,$2,4073b0 <e_d+0xd40>
  4072c8:	43 00 00 00 01 00 10 10 	addiu $16,$16,1
  4072d0:	42 00 00 00 00 04 10 00 	addu $4,$0,$16
  4072d8:	43 00 00 00 18 00 09 1d 	addiu $9,$29,24
  4072e0:	42 00 00 00 00 06 00 00 	addu $6,$0,$0
  4072e8:	42 00 00 00 00 07 00 00 	addu $7,$0,$0
  4072f0:	22 00 00 00 00 00 03 04 	lbu $3,0($4)
  4072f8:	43 00 00 00 20 00 08 00 	addiu $8,$0,32
  407300:	55 00 00 00 18 02 03 00 	sll $2,$3,0x18
  407308:	59 00 00 00 18 05 02 00 	sra $5,$2,0x18
  407310:	05 00 00 00 12 00 08 05 	beq $5,$8,407360 <e_d+0xcf0>
  407318:	43 00 00 00 d0 ff 02 03 	addiu $2,$3,-48
  407320:	5e 00 00 00 0a 00 02 02 	sltiu $2,$2,10
  407328:	05 00 00 00 12 00 00 02 	beq $2,$0,407378 <e_d+0xd08>
  407330:	55 00 00 00 02 02 06 00 	sll $2,$6,0x2
  407338:	42 00 00 00 00 02 06 02 	addu $2,$2,$6
  407340:	55 00 00 00 01 02 02 00 	sll $2,$2,0x1
  407348:	42 00 00 00 00 02 05 02 	addu $2,$2,$5
  407350:	43 00 00 00 d0 ff 06 02 	addiu $6,$2,-48
  407358:	43 00 00 00 01 00 07 07 	addiu $7,$7,1
  407360:	43 00 00 00 01 00 04 04 	addiu $4,$4,1
  407368:	22 00 00 00 00 00 03 04 	lbu $3,0($4)
  407370:	01 00 00 00 c0 1c 10 00 	j 407300 <e_d+0xc90>
  407378:	06 00 00 00 06 00 00 07 	bne $7,$0,407398 <e_d+0xd28>
  407380:	43 00 00 00 01 00 02 00 	addiu $2,$0,1
  407388:	34 00 00 00 00 00 02 09 	sw $2,0($9)
  407390:	01 00 00 00 e8 1c 10 00 	j 4073a0 <e_d+0xd30>
  407398:	34 00 00 00 18 00 06 1d 	sw $6,24($29)
  4073a0:	42 00 00 00 00 10 04 00 	addu $16,$0,$4
  4073a8:	01 00 00 00 ee 1c 10 00 	j 4073b8 <e_d+0xd48>
  4073b0:	34 00 00 00 18 00 00 1d 	sw $0,24($29)
  4073b8:	43 00 00 00 17 00 14 00 	addiu $20,$0,23
  4073c0:	01 00 00 00 18 1e 10 00 	j 407860 <e_d+0x11f0>
  4073c8:	43 00 00 00 01 00 16 00 	addiu $22,$0,1
  4073d0:	42 00 00 00 00 05 10 00 	addu $5,$0,$16
  4073d8:	43 00 00 00 14 00 09 1d 	addiu $9,$29,20
  4073e0:	42 00 00 00 00 06 00 00 	addu $6,$0,$0
  4073e8:	42 00 00 00 00 07 00 00 	addu $7,$0,$0
  4073f0:	22 00 00 00 00 00 03 05 	lbu $3,0($5)
  4073f8:	43 00 00 00 20 00 08 00 	addiu $8,$0,32
  407400:	55 00 00 00 18 02 03 00 	sll $2,$3,0x18
  407408:	59 00 00 00 18 04 02 00 	sra $4,$2,0x18
  407410:	05 00 00 00 12 00 08 04 	beq $4,$8,407460 <e_d+0xdf0>
  407418:	43 00 00 00 d0 ff 02 03 	addiu $2,$3,-48
  407420:	5e 00 00 00 0a 00 02 02 	sltiu $2,$2,10
  407428:	05 00 00 00 12 00 00 02 	beq $2,$0,407478 <e_d+0xe08>
  407430:	55 00 00 00 02 02 06 00 	sll $2,$6,0x2
  407438:	42 00 00 00 00 02 06 02 	addu $2,$2,$6
  407440:	55 00 00 00 01 02 02 00 	sll $2,$2,0x1
  407448:	42 00 00 00 00 02 04 02 	addu $2,$2,$4
  407450:	43 00 00 00 d0 ff 06 02 	addiu $6,$2,-48
  407458:	43 00 00 00 01 00 07 07 	addiu $7,$7,1
  407460:	43 00 00 00 01 00 05 05 	addiu $5,$5,1
  407468:	22 00 00 00 00 00 03 05 	lbu $3,0($5)
  407470:	01 00 00 00 00 1d 10 00 	j 407400 <e_d+0xd90>
  407478:	06 00 00 00 06 00 00 07 	bne $7,$0,407498 <e_d+0xe28>
  407480:	43 00 00 00 01 00 02 00 	addiu $2,$0,1
  407488:	34 00 00 00 00 00 02 09 	sw $2,0($9)
  407490:	01 00 00 00 28 1d 10 00 	j 4074a0 <e_d+0xe30>
  407498:	34 00 00 00 14 00 06 1d 	sw $6,20($29)
  4074a0:	28 00 00 00 14 00 02 1d 	lw $2,20($29)
  4074a8:	42 00 00 00 00 10 05 00 	addu $16,$0,$5
  4074b0:	05 00 00 00 18 01 00 02 	beq $2,$0,407918 <e_d+0x12a8>
  4074b8:	20 00 00 00 00 00 03 10 	lb $3,0($16)
  4074c0:	43 00 00 00 2e 00 02 00 	addiu $2,$0,46
  4074c8:	06 00 00 00 3a 00 02 03 	bne $3,$2,4075b8 <e_d+0xf48>
  4074d0:	43 00 00 00 01 00 10 10 	addiu $16,$16,1
  4074d8:	42 00 00 00 00 04 10 00 	addu $4,$0,$16
  4074e0:	43 00 00 00 18 00 09 1d 	addiu $9,$29,24
  4074e8:	42 00 00 00 00 06 00 00 	addu $6,$0,$0
  4074f0:	42 00 00 00 00 07 00 00 	addu $7,$0,$0
  4074f8:	22 00 00 00 00 00 03 04 	lbu $3,0($4)
  407500:	43 00 00 00 20 00 08 00 	addiu $8,$0,32
  407508:	55 00 00 00 18 02 03 00 	sll $2,$3,0x18
  407510:	59 00 00 00 18 05 02 00 	sra $5,$2,0x18
  407518:	05 00 00 00 12 00 08 05 	beq $5,$8,407568 <e_d+0xef8>
  407520:	43 00 00 00 d0 ff 02 03 	addiu $2,$3,-48
  407528:	5e 00 00 00 0a 00 02 02 	sltiu $2,$2,10
  407530:	05 00 00 00 12 00 00 02 	beq $2,$0,407580 <e_d+0xf10>
  407538:	55 00 00 00 02 02 06 00 	sll $2,$6,0x2
  407540:	42 00 00 00 00 02 06 02 	addu $2,$2,$6
  407548:	55 00 00 00 01 02 02 00 	sll $2,$2,0x1
  407550:	42 00 00 00 00 02 05 02 	addu $2,$2,$5
  407558:	43 00 00 00 d0 ff 06 02 	addiu $6,$2,-48
  407560:	43 00 00 00 01 00 07 07 	addiu $7,$7,1
  407568:	43 00 00 00 01 00 04 04 	addiu $4,$4,1
  407570:	22 00 00 00 00 00 03 04 	lbu $3,0($4)
  407578:	01 00 00 00 42 1d 10 00 	j 407508 <e_d+0xe98>
  407580:	06 00 00 00 06 00 00 07 	bne $7,$0,4075a0 <e_d+0xf30>
  407588:	43 00 00 00 01 00 02 00 	addiu $2,$0,1
  407590:	34 00 00 00 00 00 02 09 	sw $2,0($9)
  407598:	01 00 00 00 6a 1d 10 00 	j 4075a8 <e_d+0xf38>
  4075a0:	34 00 00 00 18 00 06 1d 	sw $6,24($29)
  4075a8:	42 00 00 00 00 10 04 00 	addu $16,$0,$4
  4075b0:	01 00 00 00 70 1d 10 00 	j 4075c0 <e_d+0xf50>
  4075b8:	34 00 00 00 18 00 00 1d 	sw $0,24($29)
  4075c0:	43 00 00 00 1a 00 14 00 	addiu $20,$0,26
  4075c8:	01 00 00 00 18 1e 10 00 	j 407860 <e_d+0x11f0>
  4075d0:	43 00 00 00 07 00 13 00 	addiu $19,$0,7
  4075d8:	43 00 00 00 0a 00 14 00 	addiu $20,$0,10
  4075e0:	43 00 00 00 01 00 16 00 	addiu $22,$0,1
  4075e8:	42 00 00 00 00 05 10 00 	addu $5,$0,$16
  4075f0:	43 00 00 00 14 00 09 1d 	addiu $9,$29,20
  4075f8:	42 00 00 00 00 06 00 00 	addu $6,$0,$0
  407600:	42 00 00 00 00 07 00 00 	addu $7,$0,$0
  407608:	22 00 00 00 00 00 03 05 	lbu $3,0($5)
  407610:	43 00 00 00 20 00 08 00 	addiu $8,$0,32
  407618:	55 00 00 00 18 02 03 00 	sll $2,$3,0x18
  407620:	59 00 00 00 18 04 02 00 	sra $4,$2,0x18
  407628:	05 00 00 00 12 00 08 04 	beq $4,$8,407678 <e_d+0x1008>
  407630:	43 00 00 00 d0 ff 02 03 	addiu $2,$3,-48
  407638:	5e 00 00 00 0a 00 02 02 	sltiu $2,$2,10
  407640:	05 00 00 00 12 00 00 02 	beq $2,$0,407690 <e_d+0x1020>
  407648:	55 00 00 00 02 02 06 00 	sll $2,$6,0x2
  407650:	42 00 00 00 00 02 06 02 	addu $2,$2,$6
  407658:	55 00 00 00 01 02 02 00 	sll $2,$2,0x1
  407660:	42 00 00 00 00 02 04 02 	addu $2,$2,$4
  407668:	43 00 00 00 d0 ff 06 02 	addiu $6,$2,-48
  407670:	43 00 00 00 01 00 07 07 	addiu $7,$7,1
  407678:	43 00 00 00 01 00 05 05 	addiu $5,$5,1
  407680:	22 00 00 00 00 00 03 05 	lbu $3,0($5)
  407688:	01 00 00 00 86 1d 10 00 	j 407618 <e_d+0xfa8>
  407690:	06 00 00 00 06 00 00 07 	bne $7,$0,4076b0 <e_d+0x1040>
  407698:	43 00 00 00 01 00 02 00 	addiu $2,$0,1
  4076a0:	34 00 00 00 00 00 02 09 	sw $2,0($9)
  4076a8:	01 00 00 00 ae 1d 10 00 	j 4076b8 <e_d+0x1048>
  4076b0:	34 00 00 00 14 00 06 1d 	sw $6,20($29)
  4076b8:	28 00 00 00 14 00 12 1d 	lw $18,20($29)
  4076c0:	42 00 00 00 00 10 05 00 	addu $16,$0,$5
  4076c8:	05 00 00 00 92 00 00 12 	beq $18,$0,407918 <e_d+0x12a8>
  4076d0:	20 00 00 00 00 00 03 10 	lb $3,0($16)
  4076d8:	43 00 00 00 2e 00 02 00 	addiu $2,$0,46
  4076e0:	05 00 00 00 26 00 02 03 	beq $3,$2,407780 <e_d+0x1110>
  4076e8:	28 00 00 00 44 8a 02 1c 	lw $2,-30140($28)
  4076f0:	a2 00 00 00 e1 10 03 00 	lui $3,4321
  4076f8:	43 00 00 00 30 2a 03 03 	addiu $3,$3,10800
  407700:	55 00 00 00 04 04 02 00 	sll $4,$2,0x4
  407708:	42 00 00 00 00 11 03 04 	addu $17,$4,$3
  407710:	5c 00 00 00 2c 01 02 02 	slti $2,$2,300
  407718:	06 00 00 00 0e 00 00 02 	bne $2,$0,407758 <e_d+0x10e8>
  407720:	28 00 00 00 38 83 04 1c 	lw $4,-31944($28)
  407728:	a2 00 00 00 00 10 05 00 	lui $5,4096
  407730:	43 00 00 00 ac 00 05 05 	addiu $5,$5,172
  407738:	02 00 00 00 30 46 10 00 	jal 4118c0 <fprintf>
  407740:	28 00 00 00 ac 8a 04 1c 	lw $4,-30036($28)
  407748:	43 00 00 00 01 00 05 00 	addiu $5,$0,1
  407750:	02 00 00 00 4c 34 10 00 	jal 40d130 <sig_die>
  407758:	28 00 00 00 44 8a 02 1c 	lw $2,-30140($28)
  407760:	34 00 00 00 00 00 13 11 	sw $19,0($17)
  407768:	34 00 00 00 04 00 12 11 	sw $18,4($17)
  407770:	34 00 00 00 08 00 00 11 	sw $0,8($17)
  407778:	01 00 00 00 40 1e 10 00 	j 407900 <e_d+0x1290>
  407780:	43 00 00 00 01 00 10 10 	addiu $16,$16,1
  407788:	42 00 00 00 00 04 10 00 	addu $4,$0,$16
  407790:	43 00 00 00 18 00 09 1d 	addiu $9,$29,24
  407798:	42 00 00 00 00 06 00 00 	addu $6,$0,$0
  4077a0:	42 00 00 00 00 07 00 00 	addu $7,$0,$0
  4077a8:	22 00 00 00 00 00 03 04 	lbu $3,0($4)
  4077b0:	43 00 00 00 20 00 08 00 	addiu $8,$0,32
  4077b8:	55 00 00 00 18 02 03 00 	sll $2,$3,0x18
  4077c0:	59 00 00 00 18 05 02 00 	sra $5,$2,0x18
  4077c8:	05 00 00 00 12 00 08 05 	beq $5,$8,407818 <e_d+0x11a8>
  4077d0:	43 00 00 00 d0 ff 02 03 	addiu $2,$3,-48
  4077d8:	5e 00 00 00 0a 00 02 02 	sltiu $2,$2,10
  4077e0:	05 00 00 00 12 00 00 02 	beq $2,$0,407830 <e_d+0x11c0>
  4077e8:	55 00 00 00 02 02 06 00 	sll $2,$6,0x2
  4077f0:	42 00 00 00 00 02 06 02 	addu $2,$2,$6
  4077f8:	55 00 00 00 01 02 02 00 	sll $2,$2,0x1
  407800:	42 00 00 00 00 02 05 02 	addu $2,$2,$5
  407808:	43 00 00 00 d0 ff 06 02 	addiu $6,$2,-48
  407810:	43 00 00 00 01 00 07 07 	addiu $7,$7,1
  407818:	43 00 00 00 01 00 04 04 	addiu $4,$4,1
  407820:	22 00 00 00 00 00 03 04 	lbu $3,0($4)
  407828:	01 00 00 00 ee 1d 10 00 	j 4077b8 <e_d+0x1148>
  407830:	06 00 00 00 06 00 00 07 	bne $7,$0,407850 <e_d+0x11e0>
  407838:	43 00 00 00 01 00 02 00 	addiu $2,$0,1
  407840:	34 00 00 00 00 00 02 09 	sw $2,0($9)
  407848:	01 00 00 00 16 1e 10 00 	j 407858 <e_d+0x11e8>
  407850:	34 00 00 00 18 00 06 1d 	sw $6,24($29)
  407858:	42 00 00 00 00 10 04 00 	addu $16,$0,$4
  407860:	28 00 00 00 44 8a 02 1c 	lw $2,-30140($28)
  407868:	28 00 00 00 14 00 12 1d 	lw $18,20($29)
  407870:	28 00 00 00 18 00 13 1d 	lw $19,24($29)
  407878:	a2 00 00 00 e1 10 03 00 	lui $3,4321
  407880:	43 00 00 00 30 2a 03 03 	addiu $3,$3,10800
  407888:	55 00 00 00 04 04 02 00 	sll $4,$2,0x4
  407890:	42 00 00 00 00 11 03 04 	addu $17,$4,$3
  407898:	5c 00 00 00 2c 01 02 02 	slti $2,$2,300
  4078a0:	06 00 00 00 0e 00 00 02 	bne $2,$0,4078e0 <e_d+0x1270>
  4078a8:	28 00 00 00 38 83 04 1c 	lw $4,-31944($28)
  4078b0:	a2 00 00 00 00 10 05 00 	lui $5,4096
  4078b8:	43 00 00 00 ac 00 05 05 	addiu $5,$5,172
  4078c0:	02 00 00 00 30 46 10 00 	jal 4118c0 <fprintf>
  4078c8:	28 00 00 00 ac 8a 04 1c 	lw $4,-30036($28)
  4078d0:	43 00 00 00 01 00 05 00 	addiu $5,$0,1
  4078d8:	02 00 00 00 4c 34 10 00 	jal 40d130 <sig_die>
  4078e0:	28 00 00 00 44 8a 02 1c 	lw $2,-30140($28)
  4078e8:	34 00 00 00 00 00 14 11 	sw $20,0($17)
  4078f0:	34 00 00 00 04 00 12 11 	sw $18,4($17)
  4078f8:	34 00 00 00 08 00 13 11 	sw $19,8($17)
  407900:	34 00 00 00 0c 00 00 11 	sw $0,12($17)
  407908:	43 00 00 00 01 00 02 02 	addiu $2,$2,1
  407910:	34 00 00 00 44 8a 02 1c 	sw $2,-30140($28)
  407918:	05 00 00 00 06 00 00 16 	beq $22,$0,407938 <e_d+0x12c8>
  407920:	34 00 00 00 00 00 10 1e 	sw $16,0($30)
  407928:	43 00 00 00 01 00 02 00 	addiu $2,$0,1
  407930:	01 00 00 00 58 1e 10 00 	j 407960 <e_d+0x12f0>
  407938:	28 00 00 00 44 8a 03 1c 	lw $3,-30140($28)
  407940:	42 00 00 00 00 02 00 00 	addu $2,$0,$0
  407948:	43 00 00 00 ff ff 03 03 	addiu $3,$3,-1
  407950:	34 00 00 00 44 8a 03 1c 	sw $3,-30140($28)
  407958:	34 00 00 00 00 00 17 1e 	sw $23,0($30)
  407960:	28 00 00 00 44 00 1f 1d 	lw $31,68($29)
  407968:	28 00 00 00 40 00 1e 1d 	lw $30,64($29)
  407970:	28 00 00 00 3c 00 17 1d 	lw $23,60($29)
  407978:	28 00 00 00 38 00 16 1d 	lw $22,56($29)
  407980:	28 00 00 00 34 00 15 1d 	lw $21,52($29)
  407988:	28 00 00 00 30 00 14 1d 	lw $20,48($29)
  407990:	28 00 00 00 2c 00 13 1d 	lw $19,44($29)
  407998:	28 00 00 00 28 00 12 1d 	lw $18,40($29)
  4079a0:	28 00 00 00 24 00 11 1d 	lw $17,36($29)
  4079a8:	28 00 00 00 20 00 10 1d 	lw $16,32($29)
  4079b0:	43 00 00 00 48 00 1d 1d 	addiu $29,$29,72
  4079b8:	03 00 00 00 00 00 00 1f 	jr $31

004079c0 <i_tem>:
  4079c0:	43 00 00 00 d0 ff 1d 1d 	addiu $29,$29,-48
  4079c8:	34 00 00 00 1c 00 11 1d 	sw $17,28($29)
  4079d0:	42 00 00 00 00 11 04 00 	addu $17,$0,$4
  4079d8:	34 00 00 00 28 00 1f 1d 	sw $31,40($29)
  4079e0:	34 00 00 00 24 00 13 1d 	sw $19,36($29)
  4079e8:	34 00 00 00 20 00 12 1d 	sw $18,32($29)
  4079f0:	34 00 00 00 18 00 10 1d 	sw $16,24($29)
  4079f8:	20 00 00 00 00 00 03 11 	lb $3,0($17)
  407a00:	43 00 00 00 29 00 02 00 	addiu $2,$0,41
  407a08:	06 00 00 00 04 00 02 03 	bne $3,$2,407a20 <i_tem+0x60>
  407a10:	42 00 00 00 00 02 11 00 	addu $2,$0,$17
  407a18:	01 00 00 00 76 1f 10 00 	j 407dd8 <i_tem+0x418>
  407a20:	42 00 00 00 00 04 11 00 	addu $4,$0,$17
  407a28:	43 00 00 00 10 00 05 1d 	addiu $5,$29,16
  407a30:	02 00 00 00 64 16 10 00 	jal 405990 <ne_d>
  407a38:	06 00 00 00 08 00 00 02 	bne $2,$0,407a60 <i_tem+0xa0>
  407a40:	42 00 00 00 00 04 11 00 	addu $4,$0,$17
  407a48:	43 00 00 00 10 00 05 1d 	addiu $5,$29,16
  407a50:	02 00 00 00 9c 19 10 00 	jal 406670 <e_d>
  407a58:	05 00 00 00 04 00 00 02 	beq $2,$0,407a70 <i_tem+0xb0>
  407a60:	28 00 00 00 10 00 02 1d 	lw $2,16($29)
  407a68:	01 00 00 00 76 1f 10 00 	j 407dd8 <i_tem+0x418>
  407a70:	42 00 00 00 00 04 11 00 	addu $4,$0,$17
  407a78:	43 00 00 00 14 00 09 1d 	addiu $9,$29,20
  407a80:	42 00 00 00 00 06 00 00 	addu $6,$0,$0
  407a88:	42 00 00 00 00 07 00 00 	addu $7,$0,$0
  407a90:	22 00 00 00 00 00 03 04 	lbu $3,0($4)
  407a98:	43 00 00 00 20 00 08 00 	addiu $8,$0,32
  407aa0:	55 00 00 00 18 02 03 00 	sll $2,$3,0x18
  407aa8:	59 00 00 00 18 05 02 00 	sra $5,$2,0x18
  407ab0:	05 00 00 00 12 00 08 05 	beq $5,$8,407b00 <i_tem+0x140>
  407ab8:	43 00 00 00 d0 ff 02 03 	addiu $2,$3,-48
  407ac0:	5e 00 00 00 0a 00 02 02 	sltiu $2,$2,10
  407ac8:	05 00 00 00 12 00 00 02 	beq $2,$0,407b18 <i_tem+0x158>
  407ad0:	55 00 00 00 02 02 06 00 	sll $2,$6,0x2
  407ad8:	42 00 00 00 00 02 06 02 	addu $2,$2,$6
  407ae0:	55 00 00 00 01 02 02 00 	sll $2,$2,0x1
  407ae8:	42 00 00 00 00 02 05 02 	addu $2,$2,$5
  407af0:	43 00 00 00 d0 ff 06 02 	addiu $6,$2,-48
  407af8:	43 00 00 00 01 00 07 07 	addiu $7,$7,1
  407b00:	43 00 00 00 01 00 04 04 	addiu $4,$4,1
  407b08:	22 00 00 00 00 00 03 04 	lbu $3,0($4)
  407b10:	01 00 00 00 a8 1e 10 00 	j 407aa0 <i_tem+0xe0>
  407b18:	06 00 00 00 06 00 00 07 	bne $7,$0,407b38 <i_tem+0x178>
  407b20:	43 00 00 00 01 00 02 00 	addiu $2,$0,1
  407b28:	34 00 00 00 00 00 02 09 	sw $2,0($9)
  407b30:	01 00 00 00 d0 1e 10 00 	j 407b40 <i_tem+0x180>
  407b38:	34 00 00 00 14 00 06 1d 	sw $6,20($29)
  407b40:	42 00 00 00 00 11 04 00 	addu $17,$0,$4
  407b48:	28 00 00 00 44 8a 02 1c 	lw $2,-30140($28)
  407b50:	43 00 00 00 06 00 13 00 	addiu $19,$0,6
  407b58:	28 00 00 00 14 00 12 1d 	lw $18,20($29)
  407b60:	a2 00 00 00 e1 10 03 00 	lui $3,4321
  407b68:	43 00 00 00 30 2a 03 03 	addiu $3,$3,10800
  407b70:	55 00 00 00 04 04 02 00 	sll $4,$2,0x4
  407b78:	42 00 00 00 00 10 03 04 	addu $16,$4,$3
  407b80:	5c 00 00 00 2c 01 02 02 	slti $2,$2,300
  407b88:	06 00 00 00 0e 00 00 02 	bne $2,$0,407bc8 <i_tem+0x208>
  407b90:	28 00 00 00 38 83 04 1c 	lw $4,-31944($28)
  407b98:	a2 00 00 00 00 10 05 00 	lui $5,4096
  407ba0:	43 00 00 00 ac 00 05 05 	addiu $5,$5,172
  407ba8:	02 00 00 00 30 46 10 00 	jal 4118c0 <fprintf>
  407bb0:	28 00 00 00 ac 8a 04 1c 	lw $4,-30036($28)
  407bb8:	43 00 00 00 01 00 05 00 	addiu $5,$0,1
  407bc0:	02 00 00 00 4c 34 10 00 	jal 40d130 <sig_die>
  407bc8:	28 00 00 00 44 8a 03 1c 	lw $3,-30140($28)
  407bd0:	34 00 00 00 00 00 13 10 	sw $19,0($16)
  407bd8:	34 00 00 00 04 00 12 10 	sw $18,4($16)
  407be0:	34 00 00 00 08 00 00 10 	sw $0,8($16)
  407be8:	34 00 00 00 0c 00 00 10 	sw $0,12($16)
  407bf0:	43 00 00 00 01 00 02 03 	addiu $2,$3,1
  407bf8:	42 00 00 00 00 12 03 00 	addu $18,$0,$3
  407c00:	34 00 00 00 44 8a 02 1c 	sw $2,-30140($28)
  407c08:	0a 00 00 00 04 00 00 12 	bgez $18,407c20 <i_tem+0x260>
  407c10:	42 00 00 00 00 02 00 00 	addu $2,$0,$0
  407c18:	01 00 00 00 76 1f 10 00 	j 407dd8 <i_tem+0x418>
  407c20:	42 00 00 00 00 10 11 00 	addu $16,$0,$17
  407c28:	20 00 00 00 00 00 03 10 	lb $3,0($16)
  407c30:	43 00 00 00 20 00 02 00 	addiu $2,$0,32
  407c38:	06 00 00 00 08 00 02 03 	bne $3,$2,407c60 <i_tem+0x2a0>
  407c40:	43 00 00 00 20 00 03 00 	addiu $3,$0,32
  407c48:	43 00 00 00 01 00 10 10 	addiu $16,$16,1
  407c50:	20 00 00 00 00 00 02 10 	lb $2,0($16)
  407c58:	05 00 00 00 fa ff 03 02 	beq $2,$3,407c48 <i_tem+0x288>
  407c60:	20 00 00 00 00 00 03 10 	lb $3,0($16)
  407c68:	43 00 00 00 28 00 02 00 	addiu $2,$0,40
  407c70:	43 00 00 00 01 00 10 10 	addiu $16,$16,1
  407c78:	06 00 00 00 42 00 02 03 	bne $3,$2,407d88 <i_tem+0x3c8>
  407c80:	28 00 00 00 38 8a 02 1c 	lw $2,-30152($28)
  407c88:	43 00 00 00 02 00 03 00 	addiu $3,$0,2
  407c90:	43 00 00 00 01 00 02 02 	addiu $2,$2,1
  407c98:	34 00 00 00 38 8a 02 1c 	sw $2,-30152($28)
  407ca0:	06 00 00 00 02 00 03 02 	bne $2,$3,407cb0 <i_tem+0x2f0>
  407ca8:	34 00 00 00 40 8a 12 1c 	sw $18,-30144($28)
  407cb0:	28 00 00 00 44 8a 02 1c 	lw $2,-30140($28)
  407cb8:	43 00 00 00 01 00 13 00 	addiu $19,$0,1
  407cc0:	a2 00 00 00 e1 10 03 00 	lui $3,4321
  407cc8:	43 00 00 00 30 2a 03 03 	addiu $3,$3,10800
  407cd0:	55 00 00 00 04 04 02 00 	sll $4,$2,0x4
  407cd8:	42 00 00 00 00 11 03 04 	addu $17,$4,$3
  407ce0:	5c 00 00 00 2c 01 02 02 	slti $2,$2,300
  407ce8:	06 00 00 00 0e 00 00 02 	bne $2,$0,407d28 <i_tem+0x368>
  407cf0:	28 00 00 00 38 83 04 1c 	lw $4,-31944($28)
  407cf8:	a2 00 00 00 00 10 05 00 	lui $5,4096
  407d00:	43 00 00 00 ac 00 05 05 	addiu $5,$5,172
  407d08:	02 00 00 00 30 46 10 00 	jal 4118c0 <fprintf>
  407d10:	28 00 00 00 ac 8a 04 1c 	lw $4,-30036($28)
  407d18:	43 00 00 00 01 00 05 00 	addiu $5,$0,1
  407d20:	02 00 00 00 4c 34 10 00 	jal 40d130 <sig_die>
  407d28:	28 00 00 00 44 8a 03 1c 	lw $3,-30140($28)
  407d30:	34 00 00 00 00 00 13 11 	sw $19,0($17)
  407d38:	34 00 00 00 04 00 12 11 	sw $18,4($17)
  407d40:	34 00 00 00 08 00 00 11 	sw $0,8($17)
  407d48:	34 00 00 00 0c 00 00 11 	sw $0,12($17)
  407d50:	43 00 00 00 01 00 02 03 	addiu $2,$3,1
  407d58:	34 00 00 00 44 8a 02 1c 	sw $2,-30140($28)
  407d60:	09 00 00 00 08 00 00 03 	bltz $3,407d88 <i_tem+0x3c8>
  407d68:	42 00 00 00 00 04 10 00 	addu $4,$0,$16
  407d70:	02 00 00 00 84 1f 10 00 	jal 407e10 <f_list>
  407d78:	42 00 00 00 00 10 02 00 	addu $16,$0,$2
  407d80:	06 00 00 00 04 00 00 10 	bne $16,$0,407d98 <i_tem+0x3d8>
  407d88:	42 00 00 00 00 02 00 00 	addu $2,$0,$0
  407d90:	01 00 00 00 76 1f 10 00 	j 407dd8 <i_tem+0x418>
  407d98:	20 00 00 00 00 00 03 10 	lb $3,0($16)
  407da0:	43 00 00 00 20 00 02 00 	addiu $2,$0,32
  407da8:	06 00 00 00 08 00 02 03 	bne $3,$2,407dd0 <i_tem+0x410>
  407db0:	43 00 00 00 20 00 03 00 	addiu $3,$0,32
  407db8:	43 00 00 00 01 00 10 10 	addiu $16,$16,1
  407dc0:	20 00 00 00 00 00 02 10 	lb $2,0($16)
  407dc8:	05 00 00 00 fa ff 03 02 	beq $2,$3,407db8 <i_tem+0x3f8>
  407dd0:	42 00 00 00 00 02 10 00 	addu $2,$0,$16
  407dd8:	28 00 00 00 28 00 1f 1d 	lw $31,40($29)
  407de0:	28 00 00 00 24 00 13 1d 	lw $19,36($29)
  407de8:	28 00 00 00 20 00 12 1d 	lw $18,32($29)
  407df0:	28 00 00 00 1c 00 11 1d 	lw $17,28($29)
  407df8:	28 00 00 00 18 00 10 1d 	lw $16,24($29)
  407e00:	43 00 00 00 30 00 1d 1d 	addiu $29,$29,48
  407e08:	03 00 00 00 00 00 00 1f 	jr $31

00407e10 <f_list>:
  407e10:	43 00 00 00 c8 ff 1d 1d 	addiu $29,$29,-56
  407e18:	34 00 00 00 20 00 10 1d 	sw $16,32($29)
  407e20:	42 00 00 00 00 10 04 00 	addu $16,$0,$4
  407e28:	34 00 00 00 34 00 1f 1d 	sw $31,52($29)
  407e30:	34 00 00 00 30 00 14 1d 	sw $20,48($29)
  407e38:	34 00 00 00 2c 00 13 1d 	sw $19,44($29)
  407e40:	34 00 00 00 28 00 12 1d 	sw $18,40($29)
  407e48:	34 00 00 00 24 00 11 1d 	sw $17,36($29)
  407e50:	20 00 00 00 00 00 02 10 	lb $2,0($16)
  407e58:	22 00 00 00 00 00 03 10 	lbu $3,0($16)
  407e60:	05 00 00 00 96 00 00 02 	beq $2,$0,4080c0 <f_list+0x2b0>
  407e68:	43 00 00 00 20 00 11 00 	addiu $17,$0,32
  407e70:	a2 00 00 00 e1 10 14 00 	lui $20,4321
  407e78:	43 00 00 00 30 2a 14 14 	addiu $20,$20,10800
  407e80:	55 00 00 00 18 02 03 00 	sll $2,$3,0x18
  407e88:	59 00 00 00 18 02 02 00 	sra $2,$2,0x18
  407e90:	06 00 00 00 08 00 11 02 	bne $2,$17,407eb8 <f_list+0xa8>
  407e98:	43 00 00 00 20 00 03 00 	addiu $3,$0,32
  407ea0:	43 00 00 00 01 00 10 10 	addiu $16,$16,1
  407ea8:	20 00 00 00 00 00 02 10 	lb $2,0($16)
  407eb0:	05 00 00 00 fa ff 03 02 	beq $2,$3,407ea0 <f_list+0x90>
  407eb8:	42 00 00 00 00 04 10 00 	addu $4,$0,$16
  407ec0:	02 00 00 00 70 1e 10 00 	jal 4079c0 <i_tem>
  407ec8:	42 00 00 00 00 10 02 00 	addu $16,$0,$2
  407ed0:	05 00 00 00 7a 00 00 10 	beq $16,$0,4080c0 <f_list+0x2b0>
  407ed8:	20 00 00 00 00 00 02 10 	lb $2,0($16)
  407ee0:	06 00 00 00 08 00 11 02 	bne $2,$17,407f08 <f_list+0xf8>
  407ee8:	43 00 00 00 20 00 03 00 	addiu $3,$0,32
  407ef0:	43 00 00 00 01 00 10 10 	addiu $16,$16,1
  407ef8:	20 00 00 00 00 00 02 10 	lb $2,0($16)
  407f00:	05 00 00 00 fa ff 03 02 	beq $2,$3,407ef0 <f_list+0xe0>
  407f08:	20 00 00 00 00 00 03 10 	lb $3,0($16)
  407f10:	43 00 00 00 2c 00 02 00 	addiu $2,$0,44
  407f18:	06 00 00 00 04 00 02 03 	bne $3,$2,407f30 <f_list+0x120>
  407f20:	43 00 00 00 01 00 10 10 	addiu $16,$16,1
  407f28:	01 00 00 00 2a 20 10 00 	j 4080a8 <f_list+0x298>
  407f30:	43 00 00 00 29 00 02 00 	addiu $2,$0,41
  407f38:	06 00 00 00 5a 00 02 03 	bne $3,$2,4080a8 <f_list+0x298>
  407f40:	28 00 00 00 38 8a 02 1c 	lw $2,-30152($28)
  407f48:	43 00 00 00 ff ff 02 02 	addiu $2,$2,-1
  407f50:	34 00 00 00 38 8a 02 1c 	sw $2,-30152($28)
  407f58:	06 00 00 00 26 00 00 02 	bne $2,$0,407ff8 <f_list+0x1e8>
  407f60:	28 00 00 00 44 8a 03 1c 	lw $3,-30140($28)
  407f68:	43 00 00 00 02 00 13 00 	addiu $19,$0,2
  407f70:	28 00 00 00 40 8a 12 1c 	lw $18,-30144($28)
  407f78:	55 00 00 00 04 02 03 00 	sll $2,$3,0x4
  407f80:	42 00 00 00 00 11 14 02 	addu $17,$2,$20
  407f88:	5c 00 00 00 2c 01 03 03 	slti $3,$3,300
  407f90:	06 00 00 00 0e 00 00 03 	bne $3,$0,407fd0 <f_list+0x1c0>
  407f98:	28 00 00 00 38 83 04 1c 	lw $4,-31944($28)
  407fa0:	a2 00 00 00 00 10 05 00 	lui $5,4096
  407fa8:	43 00 00 00 ac 00 05 05 	addiu $5,$5,172
  407fb0:	02 00 00 00 30 46 10 00 	jal 4118c0 <fprintf>
  407fb8:	28 00 00 00 ac 8a 04 1c 	lw $4,-30036($28)
  407fc0:	43 00 00 00 01 00 05 00 	addiu $5,$0,1
  407fc8:	02 00 00 00 4c 34 10 00 	jal 40d130 <sig_die>
  407fd0:	28 00 00 00 44 8a 03 1c 	lw $3,-30140($28)
  407fd8:	43 00 00 00 01 00 02 10 	addiu $2,$16,1
  407fe0:	34 00 00 00 00 00 13 11 	sw $19,0($17)
  407fe8:	34 00 00 00 04 00 12 11 	sw $18,4($17)
  407ff0:	01 00 00 00 20 20 10 00 	j 408080 <f_list+0x270>
  407ff8:	28 00 00 00 44 8a 03 1c 	lw $3,-30140($28)
  408000:	43 00 00 00 03 00 12 00 	addiu $18,$0,3
  408008:	55 00 00 00 04 02 03 00 	sll $2,$3,0x4
  408010:	42 00 00 00 00 11 14 02 	addu $17,$2,$20
  408018:	5c 00 00 00 2c 01 03 03 	slti $3,$3,300
  408020:	06 00 00 00 0e 00 00 03 	bne $3,$0,408060 <f_list+0x250>
  408028:	28 00 00 00 38 83 04 1c 	lw $4,-31944($28)
  408030:	a2 00 00 00 00 10 05 00 	lui $5,4096
  408038:	43 00 00 00 ac 00 05 05 	addiu $5,$5,172
  408040:	02 00 00 00 30 46 10 00 	jal 4118c0 <fprintf>
  408048:	28 00 00 00 ac 8a 04 1c 	lw $4,-30036($28)
  408050:	43 00 00 00 01 00 05 00 	addiu $5,$0,1
  408058:	02 00 00 00 4c 34 10 00 	jal 40d130 <sig_die>
  408060:	28 00 00 00 44 8a 03 1c 	lw $3,-30140($28)
  408068:	43 00 00 00 01 00 02 10 	addiu $2,$16,1
  408070:	34 00 00 00 00 00 12 11 	sw $18,0($17)
  408078:	34 00 00 00 04 00 00 11 	sw $0,4($17)
  408080:	34 00 00 00 08 00 00 11 	sw $0,8($17)
  408088:	34 00 00 00 0c 00 00 11 	sw $0,12($17)
  408090:	43 00 00 00 01 00 03 03 	addiu $3,$3,1
  408098:	34 00 00 00 44 8a 03 1c 	sw $3,-30140($28)
  4080a0:	01 00 00 00 32 20 10 00 	j 4080c8 <f_list+0x2b8>
  4080a8:	20 00 00 00 00 00 02 10 	lb $2,0($16)
  4080b0:	22 00 00 00 00 00 03 10 	lbu $3,0($16)
  4080b8:	06 00 00 00 70 ff 00 02 	bne $2,$0,407e80 <f_list+0x70>
  4080c0:	42 00 00 00 00 02 00 00 	addu $2,$0,$0
  4080c8:	28 00 00 00 34 00 1f 1d 	lw $31,52($29)
  4080d0:	28 00 00 00 30 00 14 1d 	lw $20,48($29)
  4080d8:	28 00 00 00 2c 00 13 1d 	lw $19,44($29)
  4080e0:	28 00 00 00 28 00 12 1d 	lw $18,40($29)
  4080e8:	28 00 00 00 24 00 11 1d 	lw $17,36($29)
  4080f0:	28 00 00 00 20 00 10 1d 	lw $16,32($29)
  4080f8:	43 00 00 00 38 00 1d 1d 	addiu $29,$29,56
  408100:	03 00 00 00 00 00 00 1f 	jr $31

00408108 <pars_f>:
  408108:	43 00 00 00 e0 ff 1d 1d 	addiu $29,$29,-32
  408110:	34 00 00 00 10 00 10 1d 	sw $16,16($29)
  408118:	42 00 00 00 00 10 04 00 	addu $16,$0,$4
  408120:	34 00 00 00 1c 00 1f 1d 	sw $31,28($29)
  408128:	34 00 00 00 18 00 12 1d 	sw $18,24($29)
  408130:	34 00 00 00 14 00 11 1d 	sw $17,20($29)
  408138:	34 00 00 00 44 8a 00 1c 	sw $0,-30140($28)
  408140:	34 00 00 00 40 8a 00 1c 	sw $0,-30144($28)
  408148:	34 00 00 00 38 8a 00 1c 	sw $0,-30152($28)
  408150:	20 00 00 00 00 00 03 10 	lb $3,0($16)
  408158:	43 00 00 00 20 00 02 00 	addiu $2,$0,32
  408160:	06 00 00 00 08 00 02 03 	bne $3,$2,408188 <pars_f+0x80>
  408168:	43 00 00 00 20 00 03 00 	addiu $3,$0,32
  408170:	43 00 00 00 01 00 10 10 	addiu $16,$16,1
  408178:	20 00 00 00 00 00 02 10 	lb $2,0($16)
  408180:	05 00 00 00 fa ff 03 02 	beq $2,$3,408170 <pars_f+0x68>
  408188:	20 00 00 00 00 00 03 10 	lb $3,0($16)
  408190:	43 00 00 00 28 00 02 00 	addiu $2,$0,40
  408198:	43 00 00 00 01 00 10 10 	addiu $16,$16,1
  4081a0:	06 00 00 00 42 00 02 03 	bne $3,$2,4082b0 <pars_f+0x1a8>
  4081a8:	28 00 00 00 38 8a 02 1c 	lw $2,-30152($28)
  4081b0:	43 00 00 00 02 00 03 00 	addiu $3,$0,2
  4081b8:	43 00 00 00 01 00 02 02 	addiu $2,$2,1
  4081c0:	34 00 00 00 38 8a 02 1c 	sw $2,-30152($28)
  4081c8:	06 00 00 00 02 00 03 02 	bne $2,$3,4081d8 <pars_f+0xd0>
  4081d0:	34 00 00 00 40 8a 00 1c 	sw $0,-30144($28)
  4081d8:	28 00 00 00 44 8a 02 1c 	lw $2,-30140($28)
  4081e0:	43 00 00 00 01 00 12 00 	addiu $18,$0,1
  4081e8:	a2 00 00 00 e1 10 03 00 	lui $3,4321
  4081f0:	43 00 00 00 30 2a 03 03 	addiu $3,$3,10800
  4081f8:	55 00 00 00 04 04 02 00 	sll $4,$2,0x4
  408200:	42 00 00 00 00 11 03 04 	addu $17,$4,$3
  408208:	5c 00 00 00 2c 01 02 02 	slti $2,$2,300
  408210:	06 00 00 00 0e 00 00 02 	bne $2,$0,408250 <pars_f+0x148>
  408218:	28 00 00 00 38 83 04 1c 	lw $4,-31944($28)
  408220:	a2 00 00 00 00 10 05 00 	lui $5,4096
  408228:	43 00 00 00 ac 00 05 05 	addiu $5,$5,172
  408230:	02 00 00 00 30 46 10 00 	jal 4118c0 <fprintf>
  408238:	28 00 00 00 ac 8a 04 1c 	lw $4,-30036($28)
  408240:	43 00 00 00 01 00 05 00 	addiu $5,$0,1
  408248:	02 00 00 00 4c 34 10 00 	jal 40d130 <sig_die>
  408250:	28 00 00 00 44 8a 03 1c 	lw $3,-30140($28)
  408258:	34 00 00 00 00 00 12 11 	sw $18,0($17)
  408260:	34 00 00 00 04 00 00 11 	sw $0,4($17)
  408268:	34 00 00 00 08 00 00 11 	sw $0,8($17)
  408270:	34 00 00 00 0c 00 00 11 	sw $0,12($17)
  408278:	43 00 00 00 01 00 02 03 	addiu $2,$3,1
  408280:	34 00 00 00 44 8a 02 1c 	sw $2,-30140($28)
  408288:	09 00 00 00 08 00 00 03 	bltz $3,4082b0 <pars_f+0x1a8>
  408290:	42 00 00 00 00 04 10 00 	addu $4,$0,$16
  408298:	02 00 00 00 84 1f 10 00 	jal 407e10 <f_list>
  4082a0:	42 00 00 00 00 10 02 00 	addu $16,$0,$2
  4082a8:	06 00 00 00 04 00 00 10 	bne $16,$0,4082c0 <pars_f+0x1b8>
  4082b0:	42 00 00 00 00 02 00 00 	addu $2,$0,$0
  4082b8:	01 00 00 00 c0 20 10 00 	j 408300 <pars_f+0x1f8>
  4082c0:	20 00 00 00 00 00 03 10 	lb $3,0($16)
  4082c8:	43 00 00 00 20 00 02 00 	addiu $2,$0,32
  4082d0:	06 00 00 00 08 00 02 03 	bne $3,$2,4082f8 <pars_f+0x1f0>
  4082d8:	43 00 00 00 20 00 03 00 	addiu $3,$0,32
  4082e0:	43 00 00 00 01 00 10 10 	addiu $16,$16,1
  4082e8:	20 00 00 00 00 00 02 10 	lb $2,0($16)
  4082f0:	05 00 00 00 fa ff 03 02 	beq $2,$3,4082e0 <pars_f+0x1d8>
  4082f8:	42 00 00 00 00 02 10 00 	addu $2,$0,$16
  408300:	5e 00 00 00 01 00 02 02 	sltiu $2,$2,1
  408308:	45 00 00 00 00 02 02 00 	subu $2,$0,$2
  408310:	28 00 00 00 1c 00 1f 1d 	lw $31,28($29)
  408318:	28 00 00 00 18 00 12 1d 	lw $18,24($29)
  408320:	28 00 00 00 14 00 11 1d 	lw $17,20($29)
  408328:	28 00 00 00 10 00 10 1d 	lw $16,16($29)
  408330:	43 00 00 00 20 00 1d 1d 	addiu $29,$29,32
  408338:	03 00 00 00 00 00 00 1f 	jr $31

00408340 <type_f>:
  408340:	43 00 00 00 ff ff 03 04 	addiu $3,$4,-1
  408348:	5e 00 00 00 24 00 02 03 	sltiu $2,$3,36
  408350:	05 00 00 00 0a 00 00 02 	beq $2,$0,408380 <type_f+0x40>
  408358:	55 00 00 00 02 02 03 00 	sll $2,$3,0x2
  408360:	a2 00 00 00 00 10 01 00 	lui $1,4096
  408368:	42 00 00 00 00 01 02 01 	addu $1,$1,$2
  408370:	28 00 00 00 78 04 02 01 	lw $2,1144($1)
  408378:	03 00 00 00 00 00 00 02 	jr $2
  408380:	42 00 00 00 00 02 04 00 	addu $2,$0,$4
  408388:	01 00 00 00 fa 20 10 00 	j 4083e8 <type_f+0xa8>
  408390:	43 00 00 00 01 00 02 00 	addiu $2,$0,1
  408398:	01 00 00 00 fa 20 10 00 	j 4083e8 <type_f+0xa8>
  4083a0:	43 00 00 00 02 00 02 00 	addiu $2,$0,2
  4083a8:	01 00 00 00 fa 20 10 00 	j 4083e8 <type_f+0xa8>
  4083b0:	43 00 00 00 03 00 02 00 	addiu $2,$0,3
  4083b8:	01 00 00 00 fa 20 10 00 	j 4083e8 <type_f+0xa8>
  4083c0:	43 00 00 00 06 00 02 00 	addiu $2,$0,6
  4083c8:	01 00 00 00 fa 20 10 00 	j 4083e8 <type_f+0xa8>
  4083d0:	43 00 00 00 09 00 02 00 	addiu $2,$0,9
  4083d8:	01 00 00 00 fa 20 10 00 	j 4083e8 <type_f+0xa8>
  4083e0:	43 00 00 00 08 00 02 00 	addiu $2,$0,8
  4083e8:	03 00 00 00 00 00 00 1f 	jr $31

004083f0 <do_fio>:
  4083f0:	43 00 00 00 c8 ff 1d 1d 	addiu $29,$29,-56
  4083f8:	34 00 00 00 28 00 14 1d 	sw $20,40($29)
  408400:	42 00 00 00 00 14 04 00 	addu $20,$0,$4
  408408:	34 00 00 00 18 00 10 1d 	sw $16,24($29)
  408410:	42 00 00 00 00 10 05 00 	addu $16,$0,$5
  408418:	34 00 00 00 34 00 1f 1d 	sw $31,52($29)
  408420:	34 00 00 00 30 00 16 1d 	sw $22,48($29)
  408428:	34 00 00 00 2c 00 15 1d 	sw $21,44($29)
  408430:	34 00 00 00 24 00 13 1d 	sw $19,36($29)
  408438:	34 00 00 00 20 00 12 1d 	sw $18,32($29)
  408440:	34 00 00 00 1c 00 11 1d 	sw $17,28($29)
  408448:	28 00 00 00 00 00 02 14 	lw $2,0($20)
  408450:	42 00 00 00 00 13 06 00 	addu $19,$0,$6
  408458:	42 00 00 00 00 11 00 00 	addu $17,$0,$0
  408460:	07 00 00 00 82 01 00 02 	blez $2,408a70 <do_fio+0x680>
  408468:	a2 00 00 00 e1 10 15 00 	lui $21,4321
  408470:	43 00 00 00 20 3d 15 15 	addiu $21,$21,15648
  408478:	43 00 00 00 01 00 12 00 	addiu $18,$0,1
  408480:	a2 00 00 00 e1 10 16 00 	lui $22,4321
  408488:	43 00 00 00 f0 3c 16 16 	addiu $22,$22,15600
  408490:	28 00 00 00 44 8a 02 1c 	lw $2,-30140($28)
  408498:	a2 00 00 00 e1 10 03 00 	lui $3,4321
  4084a0:	43 00 00 00 30 2a 03 03 	addiu $3,$3,10800
  4084a8:	55 00 00 00 04 02 02 00 	sll $2,$2,0x4
  4084b0:	42 00 00 00 00 06 03 02 	addu $6,$2,$3
  4084b8:	28 00 00 00 00 00 04 06 	lw $4,0($6)
  4084c0:	43 00 00 00 ff ff 03 04 	addiu $3,$4,-1
  4084c8:	5e 00 00 00 24 00 02 03 	sltiu $2,$3,36
  4084d0:	05 00 00 00 0a 00 00 02 	beq $2,$0,408500 <do_fio+0x110>
  4084d8:	55 00 00 00 02 02 03 00 	sll $2,$3,0x2
  4084e0:	a2 00 00 00 00 10 01 00 	lui $1,4096
  4084e8:	42 00 00 00 00 01 02 01 	addu $1,$1,$2
  4084f0:	28 00 00 00 08 05 02 01 	lw $2,1288($1)
  4084f8:	03 00 00 00 00 00 00 02 	jr $2
  408500:	42 00 00 00 00 02 04 00 	addu $2,$0,$4
  408508:	01 00 00 00 5a 21 10 00 	j 408568 <do_fio+0x178>
  408510:	43 00 00 00 01 00 02 00 	addiu $2,$0,1
  408518:	01 00 00 00 5a 21 10 00 	j 408568 <do_fio+0x178>
  408520:	43 00 00 00 02 00 02 00 	addiu $2,$0,2
  408528:	01 00 00 00 5a 21 10 00 	j 408568 <do_fio+0x178>
  408530:	43 00 00 00 03 00 02 00 	addiu $2,$0,3
  408538:	01 00 00 00 5a 21 10 00 	j 408568 <do_fio+0x178>
  408540:	43 00 00 00 06 00 02 00 	addiu $2,$0,6
  408548:	01 00 00 00 5a 21 10 00 	j 408568 <do_fio+0x178>
  408550:	43 00 00 00 09 00 02 00 	addiu $2,$0,9
  408558:	01 00 00 00 5a 21 10 00 	j 408568 <do_fio+0x178>
  408560:	43 00 00 00 08 00 02 00 	addiu $2,$0,8
  408568:	43 00 00 00 ff ff 03 02 	addiu $3,$2,-1
  408570:	5e 00 00 00 21 00 02 03 	sltiu $2,$3,33
  408578:	05 00 00 00 0a 00 00 02 	beq $2,$0,4085a8 <do_fio+0x1b8>
  408580:	55 00 00 00 02 02 03 00 	sll $2,$3,0x2
  408588:	a2 00 00 00 00 10 01 00 	lui $1,4096
  408590:	42 00 00 00 00 01 02 01 	addu $1,$1,$2
  408598:	28 00 00 00 98 05 02 01 	lw $2,1432($1)
  4085a0:	03 00 00 00 00 00 00 02 	jr $2
  4085a8:	28 00 00 00 38 83 04 1c 	lw $4,-31944($28)
  4085b0:	28 00 00 00 00 00 06 06 	lw $6,0($6)
  4085b8:	28 00 00 00 ac 8a 07 1c 	lw $7,-30036($28)
  4085c0:	a2 00 00 00 00 10 05 00 	lui $5,4096
  4085c8:	43 00 00 00 c8 00 05 05 	addiu $5,$5,200
  4085d0:	02 00 00 00 30 46 10 00 	jal 4118c0 <fprintf>
  4085d8:	28 00 00 00 a4 8a 02 1c 	lw $2,-30044($28)
  4085e0:	28 00 00 00 00 00 02 02 	lw $2,0($2)
  4085e8:	05 00 00 00 06 00 00 02 	beq $2,$0,408608 <do_fio+0x218>
  4085f0:	43 00 00 00 64 00 02 00 	addiu $2,$0,100
  4085f8:	34 00 00 00 10 8a 02 1c 	sw $2,-30192($28)
  408600:	01 00 00 00 88 21 10 00 	j 408620 <do_fio+0x230>
  408608:	43 00 00 00 64 00 04 00 	addiu $4,$0,100
  408610:	43 00 00 00 70 80 05 1c 	addiu $5,$28,-32656
  408618:	02 00 00 00 86 30 10 00 	jal 40c218 <f__fatal>
  408620:	43 00 00 00 64 00 02 00 	addiu $2,$0,100
  408628:	01 00 00 00 9e 22 10 00 	j 408a78 <do_fio+0x688>
  408630:	28 00 00 00 b8 8a 02 1c 	lw $2,-30024($28)
  408638:	42 00 00 00 00 04 06 00 	addu $4,$0,$6
  408640:	04 00 00 00 00 1f 00 02 	jalr $31,$2
  408648:	05 00 00 00 04 00 00 02 	beq $2,$0,408660 <do_fio+0x270>
  408650:	28 00 00 00 44 8a 02 1c 	lw $2,-30140($28)
  408658:	01 00 00 00 8c 22 10 00 	j 408a30 <do_fio+0x640>
  408660:	28 00 00 00 44 8a 02 1c 	lw $2,-30140($28)
  408668:	43 00 00 00 01 00 02 02 	addiu $2,$2,1
  408670:	34 00 00 00 44 8a 02 1c 	sw $2,-30140($28)
  408678:	01 00 00 00 92 22 10 00 	j 408a48 <do_fio+0x658>
  408680:	28 00 00 00 48 8a 04 1c 	lw $4,-30136($28)
  408688:	55 00 00 00 02 02 04 00 	sll $2,$4,0x2
  408690:	42 00 00 00 00 07 15 02 	addu $7,$2,$21
  408698:	28 00 00 00 00 00 02 07 	lw $2,0($7)
  4086a0:	08 00 00 00 08 00 00 02 	bgtz $2,4086c8 <do_fio+0x2d8>
  4086a8:	28 00 00 00 44 8a 03 1c 	lw $3,-30140($28)
  4086b0:	43 00 00 00 ff ff 02 04 	addiu $2,$4,-1
  4086b8:	34 00 00 00 48 8a 02 1c 	sw $2,-30136($28)
  4086c0:	01 00 00 00 3c 22 10 00 	j 4088f0 <do_fio+0x500>
  4086c8:	05 00 00 00 a6 00 00 10 	beq $16,$0,408968 <do_fio+0x578>
  4086d0:	42 00 00 00 00 04 06 00 	addu $4,$0,$6
  4086d8:	42 00 00 00 00 05 10 00 	addu $5,$0,$16
  4086e0:	28 00 00 00 d0 8a 03 1c 	lw $3,-30000($28)
  4086e8:	42 00 00 00 00 06 13 00 	addu $6,$0,$19
  4086f0:	43 00 00 00 ff ff 02 02 	addiu $2,$2,-1
  4086f8:	34 00 00 00 00 00 02 07 	sw $2,0($7)
  408700:	34 00 00 00 3c 8a 12 1c 	sw $18,-30148($28)
  408708:	04 00 00 00 00 1f 00 03 	jalr $31,$3
  408710:	07 00 00 00 0c 00 00 02 	blez $2,408748 <do_fio+0x358>
  408718:	28 00 00 00 a4 8a 02 1c 	lw $2,-30044($28)
  408720:	28 00 00 00 10 8a 05 1c 	lw $5,-30192($28)
  408728:	28 00 00 00 00 00 04 02 	lw $4,0($2)
  408730:	43 00 00 00 78 80 06 1c 	addiu $6,$28,-32648
  408738:	02 00 00 00 70 32 10 00 	jal 40c9c0 <err__fl>
  408740:	01 00 00 00 9e 22 10 00 	j 408a78 <do_fio+0x688>
  408748:	0a 00 00 00 be 00 00 02 	bgez $2,408a48 <do_fio+0x658>
  408750:	28 00 00 00 a4 8a 02 1c 	lw $2,-30044($28)
  408758:	28 00 00 00 08 00 02 02 	lw $2,8($2)
  408760:	05 00 00 00 06 00 00 02 	beq $2,$0,408780 <do_fio+0x390>
  408768:	43 00 00 00 ff ff 02 00 	addiu $2,$0,-1
  408770:	34 00 00 00 10 8a 02 1c 	sw $2,-30192($28)
  408778:	01 00 00 00 e6 21 10 00 	j 408798 <do_fio+0x3a8>
  408780:	43 00 00 00 ff ff 04 00 	addiu $4,$0,-1
  408788:	43 00 00 00 78 80 05 1c 	addiu $5,$28,-32648
  408790:	02 00 00 00 86 30 10 00 	jal 40c218 <f__fatal>
  408798:	43 00 00 00 ff ff 02 00 	addiu $2,$0,-1
  4087a0:	01 00 00 00 9e 22 10 00 	j 408a78 <do_fio+0x688>
  4087a8:	28 00 00 00 48 8a 02 1c 	lw $2,-30136($28)
  4087b0:	28 00 00 00 04 00 04 06 	lw $4,4($6)
  4087b8:	28 00 00 00 44 8a 03 1c 	lw $3,-30140($28)
  4087c0:	43 00 00 00 01 00 02 02 	addiu $2,$2,1
  4087c8:	34 00 00 00 48 8a 02 1c 	sw $2,-30136($28)
  4087d0:	55 00 00 00 02 02 02 00 	sll $2,$2,0x2
  4087d8:	42 00 00 00 00 02 15 02 	addu $2,$2,$21
  4087e0:	01 00 00 00 08 22 10 00 	j 408820 <do_fio+0x430>
  4087e8:	28 00 00 00 30 8a 02 1c 	lw $2,-30160($28)
  4087f0:	28 00 00 00 04 00 04 06 	lw $4,4($6)
  4087f8:	28 00 00 00 44 8a 03 1c 	lw $3,-30140($28)
  408800:	43 00 00 00 01 00 02 02 	addiu $2,$2,1
  408808:	34 00 00 00 30 8a 02 1c 	sw $2,-30160($28)
  408810:	55 00 00 00 02 02 02 00 	sll $2,$2,0x2
  408818:	42 00 00 00 00 02 16 02 	addu $2,$2,$22
  408820:	43 00 00 00 01 00 03 03 	addiu $3,$3,1
  408828:	34 00 00 00 00 00 04 02 	sw $4,0($2)
  408830:	34 00 00 00 44 8a 03 1c 	sw $3,-30140($28)
  408838:	01 00 00 00 24 21 10 00 	j 408490 <do_fio+0xa0>
  408840:	28 00 00 00 48 8a 05 1c 	lw $5,-30136($28)
  408848:	55 00 00 00 02 03 05 00 	sll $3,$5,0x2
  408850:	42 00 00 00 00 03 15 03 	addu $3,$3,$21
  408858:	28 00 00 00 00 00 02 03 	lw $2,0($3)
  408860:	43 00 00 00 ff ff 02 02 	addiu $2,$2,-1
  408868:	34 00 00 00 00 00 02 03 	sw $2,0($3)
  408870:	08 00 00 00 12 00 00 02 	bgtz $2,4088c0 <do_fio+0x4d0>
  408878:	28 00 00 00 30 8a 02 1c 	lw $2,-30160($28)
  408880:	28 00 00 00 44 8a 04 1c 	lw $4,-30140($28)
  408888:	43 00 00 00 ff ff 03 05 	addiu $3,$5,-1
  408890:	34 00 00 00 48 8a 03 1c 	sw $3,-30136($28)
  408898:	43 00 00 00 ff ff 02 02 	addiu $2,$2,-1
  4088a0:	43 00 00 00 01 00 04 04 	addiu $4,$4,1
  4088a8:	34 00 00 00 30 8a 02 1c 	sw $2,-30160($28)
  4088b0:	34 00 00 00 44 8a 04 1c 	sw $4,-30140($28)
  4088b8:	01 00 00 00 24 21 10 00 	j 408490 <do_fio+0xa0>
  4088c0:	28 00 00 00 30 8a 02 1c 	lw $2,-30160($28)
  4088c8:	55 00 00 00 02 03 02 00 	sll $3,$2,0x2
  4088d0:	42 00 00 00 00 03 16 03 	addu $3,$3,$22
  4088d8:	28 00 00 00 00 00 03 03 	lw $3,0($3)
  4088e0:	43 00 00 00 ff ff 02 02 	addiu $2,$2,-1
  4088e8:	34 00 00 00 30 8a 02 1c 	sw $2,-30160($28)
  4088f0:	43 00 00 00 01 00 03 03 	addiu $3,$3,1
  4088f8:	34 00 00 00 44 8a 03 1c 	sw $3,-30140($28)
  408900:	01 00 00 00 24 21 10 00 	j 408490 <do_fio+0xa0>
  408908:	28 00 00 00 04 00 02 06 	lw $2,4($6)
  408910:	34 00 00 00 48 8a 00 1c 	sw $0,-30136($28)
  408918:	34 00 00 00 30 8a 00 1c 	sw $0,-30160($28)
  408920:	34 00 00 00 44 8a 02 1c 	sw $2,-30140($28)
  408928:	05 00 00 00 0e 00 00 10 	beq $16,$0,408968 <do_fio+0x578>
  408930:	28 00 00 00 3c 8a 02 1c 	lw $2,-30148($28)
  408938:	05 00 00 00 4c 00 00 02 	beq $2,$0,408a70 <do_fio+0x680>
  408940:	28 00 00 00 e8 8a 02 1c 	lw $2,-29976($28)
  408948:	04 00 00 00 00 1f 00 02 	jalr $31,$2
  408950:	05 00 00 00 ce fe 00 02 	beq $2,$0,408490 <do_fio+0xa0>
  408958:	01 00 00 00 9e 22 10 00 	j 408a78 <do_fio+0x688>
  408960:	06 00 00 00 06 00 00 10 	bne $16,$0,408980 <do_fio+0x590>
  408968:	28 00 00 00 d8 8a 02 1c 	lw $2,-29992($28)
  408970:	04 00 00 00 00 1f 00 02 	jalr $31,$2
  408978:	01 00 00 00 9e 22 10 00 	j 408a78 <do_fio+0x688>
  408980:	28 00 00 00 44 8a 02 1c 	lw $2,-30140($28)
  408988:	01 00 00 00 8c 22 10 00 	j 408a30 <do_fio+0x640>
  408990:	28 00 00 00 44 8a 02 1c 	lw $2,-30140($28)
  408998:	34 00 00 00 34 8a 12 1c 	sw $18,-30156($28)
  4089a0:	01 00 00 00 8c 22 10 00 	j 408a30 <do_fio+0x640>
  4089a8:	28 00 00 00 44 8a 02 1c 	lw $2,-30140($28)
  4089b0:	34 00 00 00 d4 8a 00 1c 	sw $0,-29996($28)
  4089b8:	01 00 00 00 8c 22 10 00 	j 408a30 <do_fio+0x640>
  4089c0:	28 00 00 00 44 8a 02 1c 	lw $2,-30140($28)
  4089c8:	34 00 00 00 d4 8a 12 1c 	sw $18,-29996($28)
  4089d0:	01 00 00 00 8c 22 10 00 	j 408a30 <do_fio+0x640>
  4089d8:	28 00 00 00 44 8a 02 1c 	lw $2,-30140($28)
  4089e0:	28 00 00 00 04 00 03 06 	lw $3,4($6)
  4089e8:	43 00 00 00 01 00 02 02 	addiu $2,$2,1
  4089f0:	34 00 00 00 e0 8a 03 1c 	sw $3,-29984($28)
  4089f8:	34 00 00 00 44 8a 02 1c 	sw $2,-30140($28)
  408a00:	01 00 00 00 24 21 10 00 	j 408490 <do_fio+0xa0>
  408a08:	28 00 00 00 44 8a 02 1c 	lw $2,-30140($28)
  408a10:	34 00 00 00 dc 8a 00 1c 	sw $0,-29988($28)
  408a18:	01 00 00 00 8c 22 10 00 	j 408a30 <do_fio+0x640>
  408a20:	28 00 00 00 44 8a 02 1c 	lw $2,-30140($28)
  408a28:	34 00 00 00 dc 8a 12 1c 	sw $18,-29988($28)
  408a30:	43 00 00 00 01 00 02 02 	addiu $2,$2,1
  408a38:	34 00 00 00 44 8a 02 1c 	sw $2,-30140($28)
  408a40:	01 00 00 00 24 21 10 00 	j 408490 <do_fio+0xa0>
  408a48:	28 00 00 00 00 00 02 14 	lw $2,0($20)
  408a50:	43 00 00 00 01 00 11 11 	addiu $17,$17,1
  408a58:	42 00 00 00 00 10 13 10 	addu $16,$16,$19
  408a60:	5b 00 00 00 00 02 02 11 	slt $2,$17,$2
  408a68:	06 00 00 00 88 fe 00 02 	bne $2,$0,408490 <do_fio+0xa0>
  408a70:	42 00 00 00 00 02 00 00 	addu $2,$0,$0
  408a78:	28 00 00 00 34 00 1f 1d 	lw $31,52($29)
  408a80:	28 00 00 00 30 00 16 1d 	lw $22,48($29)
  408a88:	28 00 00 00 2c 00 15 1d 	lw $21,44($29)
  408a90:	28 00 00 00 28 00 14 1d 	lw $20,40($29)
  408a98:	28 00 00 00 24 00 13 1d 	lw $19,36($29)
  408aa0:	28 00 00 00 20 00 12 1d 	lw $18,32($29)
  408aa8:	28 00 00 00 1c 00 11 1d 	lw $17,28($29)
  408ab0:	28 00 00 00 18 00 10 1d 	lw $16,24($29)
  408ab8:	43 00 00 00 38 00 1d 1d 	addiu $29,$29,56
  408ac0:	03 00 00 00 00 00 00 1f 	jr $31

00408ac8 <en_fio>:
  408ac8:	43 00 00 00 e0 ff 1d 1d 	addiu $29,$29,-32
  408ad0:	43 00 00 00 01 00 02 00 	addiu $2,$0,1
  408ad8:	43 00 00 00 10 00 04 1d 	addiu $4,$29,16
  408ae0:	42 00 00 00 00 05 00 00 	addu $5,$0,$0
  408ae8:	42 00 00 00 00 06 00 00 	addu $6,$0,$0
  408af0:	34 00 00 00 18 00 1f 1d 	sw $31,24($29)
  408af8:	34 00 00 00 10 00 02 1d 	sw $2,16($29)
  408b00:	02 00 00 00 fc 20 10 00 	jal 4083f0 <do_fio>
  408b08:	28 00 00 00 18 00 1f 1d 	lw $31,24($29)
  408b10:	43 00 00 00 20 00 1d 1d 	addiu $29,$29,32
  408b18:	03 00 00 00 00 00 00 1f 	jr $31

00408b20 <fmt_bg>:
  408b20:	34 00 00 00 f0 8a 00 1c 	sw $0,-29968($28)
  408b28:	34 00 00 00 44 8a 00 1c 	sw $0,-30140($28)
  408b30:	34 00 00 00 30 8a 00 1c 	sw $0,-30160($28)
  408b38:	34 00 00 00 48 8a 00 1c 	sw $0,-30136($28)
  408b40:	34 00 00 00 3c 8a 00 1c 	sw $0,-30148($28)
  408b48:	a2 00 00 00 e1 10 01 00 	lui $1,4321
  408b50:	34 00 00 00 f0 3c 00 01 	sw $0,15600($1)
  408b58:	a2 00 00 00 e1 10 01 00 	lui $1,4321
  408b60:	34 00 00 00 20 3d 00 01 	sw $0,15648($1)
  408b68:	03 00 00 00 00 00 00 1f 	jr $31

00408b70 <e_rsfe>:
  408b70:	43 00 00 00 e8 ff 1d 1d 	addiu $29,$29,-24
  408b78:	34 00 00 00 14 00 1f 1d 	sw $31,20($29)
  408b80:	34 00 00 00 10 00 10 1d 	sw $16,16($29)
  408b88:	02 00 00 00 b2 22 10 00 	jal 408ac8 <en_fio>
  408b90:	28 00 00 00 bc 8a 04 1c 	lw $4,-30020($28)
  408b98:	28 00 00 00 34 83 03 1c 	lw $3,-31948($28)
  408ba0:	42 00 00 00 00 10 02 00 	addu $16,$0,$2
  408ba8:	05 00 00 00 04 00 03 04 	beq $4,$3,408bc0 <e_rsfe+0x50>
  408bb0:	28 00 00 00 38 83 02 1c 	lw $2,-31944($28)
  408bb8:	06 00 00 00 02 00 02 04 	bne $4,$2,408bc8 <e_rsfe+0x58>
  408bc0:	02 00 00 00 54 37 10 00 	jal 40dd50 <fflush>
  408bc8:	34 00 00 00 ac 8a 00 1c 	sw $0,-30036($28)
  408bd0:	42 00 00 00 00 02 10 00 	addu $2,$0,$16
  408bd8:	28 00 00 00 14 00 1f 1d 	lw $31,20($29)
  408be0:	28 00 00 00 10 00 10 1d 	lw $16,16($29)
  408be8:	43 00 00 00 18 00 1d 1d 	addiu $29,$29,24
  408bf0:	03 00 00 00 00 00 00 1f 	jr $31

00408bf8 <c_sfe>:
  408bf8:	43 00 00 00 e0 ff 1d 1d 	addiu $29,$29,-32
  408c00:	34 00 00 00 10 00 10 1d 	sw $16,16($29)
  408c08:	42 00 00 00 00 10 04 00 	addu $16,$0,$4
  408c10:	34 00 00 00 18 00 1f 1d 	sw $31,24($29)
  408c18:	34 00 00 00 14 00 11 1d 	sw $17,20($29)
  408c20:	28 00 00 00 04 00 06 10 	lw $6,4($16)
  408c28:	5e 00 00 00 64 00 02 06 	sltiu $2,$6,100
  408c30:	06 00 00 00 14 00 00 02 	bne $2,$0,408c88 <c_sfe+0x90>
  408c38:	28 00 00 00 00 00 02 10 	lw $2,0($16)
  408c40:	05 00 00 00 06 00 00 02 	beq $2,$0,408c60 <c_sfe+0x68>
  408c48:	43 00 00 00 65 00 02 00 	addiu $2,$0,101
  408c50:	34 00 00 00 10 8a 02 1c 	sw $2,-30192($28)
  408c58:	01 00 00 00 1e 23 10 00 	j 408c78 <c_sfe+0x80>
  408c60:	43 00 00 00 65 00 04 00 	addiu $4,$0,101
  408c68:	43 00 00 00 80 80 05 1c 	addiu $5,$28,-32640
  408c70:	02 00 00 00 86 30 10 00 	jal 40c218 <f__fatal>
  408c78:	43 00 00 00 65 00 02 00 	addiu $2,$0,101
  408c80:	01 00 00 00 68 23 10 00 	j 408da0 <c_sfe+0x1a8>
  408c88:	55 00 00 00 01 02 06 00 	sll $2,$6,0x1
  408c90:	42 00 00 00 00 02 06 02 	addu $2,$2,$6
  408c98:	55 00 00 00 04 02 02 00 	sll $2,$2,0x4
  408ca0:	a2 00 00 00 e1 10 03 00 	lui $3,4321
  408ca8:	43 00 00 00 50 3d 03 03 	addiu $3,$3,15696
  408cb0:	42 00 00 00 00 11 03 02 	addu $17,$2,$3
  408cb8:	28 00 00 00 00 00 02 11 	lw $2,0($17)
  408cc0:	06 00 00 00 1c 00 00 02 	bne $2,$0,408d38 <c_sfe+0x140>
  408cc8:	43 00 00 00 03 00 04 00 	addiu $4,$0,3
  408cd0:	43 00 00 00 05 00 05 00 	addiu $5,$0,5
  408cd8:	02 00 00 00 ac 48 10 00 	jal 4122b0 <fk_open>
  408ce0:	05 00 00 00 14 00 00 02 	beq $2,$0,408d38 <c_sfe+0x140>
  408ce8:	28 00 00 00 00 00 02 10 	lw $2,0($16)
  408cf0:	05 00 00 00 06 00 00 02 	beq $2,$0,408d10 <c_sfe+0x118>
  408cf8:	43 00 00 00 72 00 02 00 	addiu $2,$0,114
  408d00:	34 00 00 00 10 8a 02 1c 	sw $2,-30192($28)
  408d08:	01 00 00 00 4a 23 10 00 	j 408d28 <c_sfe+0x130>
  408d10:	43 00 00 00 72 00 04 00 	addiu $4,$0,114
  408d18:	43 00 00 00 88 80 05 1c 	addiu $5,$28,-32632
  408d20:	02 00 00 00 86 30 10 00 	jal 40c218 <f__fatal>
  408d28:	43 00 00 00 72 00 02 00 	addiu $2,$0,114
  408d30:	01 00 00 00 68 23 10 00 	j 408da0 <c_sfe+0x1a8>
  408d38:	28 00 00 00 18 00 02 11 	lw $2,24($17)
  408d40:	06 00 00 00 14 00 00 02 	bne $2,$0,408d98 <c_sfe+0x1a0>
  408d48:	28 00 00 00 00 00 02 10 	lw $2,0($16)
  408d50:	05 00 00 00 06 00 00 02 	beq $2,$0,408d70 <c_sfe+0x178>
  408d58:	43 00 00 00 66 00 02 00 	addiu $2,$0,102
  408d60:	34 00 00 00 10 8a 02 1c 	sw $2,-30192($28)
  408d68:	01 00 00 00 62 23 10 00 	j 408d88 <c_sfe+0x190>
  408d70:	43 00 00 00 66 00 04 00 	addiu $4,$0,102
  408d78:	43 00 00 00 88 80 05 1c 	addiu $5,$28,-32632
  408d80:	02 00 00 00 86 30 10 00 	jal 40c218 <f__fatal>
  408d88:	43 00 00 00 66 00 02 00 	addiu $2,$0,102
  408d90:	01 00 00 00 68 23 10 00 	j 408da0 <c_sfe+0x1a8>
  408d98:	42 00 00 00 00 02 00 00 	addu $2,$0,$0
  408da0:	28 00 00 00 18 00 1f 1d 	lw $31,24($29)
  408da8:	28 00 00 00 14 00 11 1d 	lw $17,20($29)
  408db0:	28 00 00 00 10 00 10 1d 	lw $16,16($29)
  408db8:	43 00 00 00 20 00 1d 1d 	addiu $29,$29,32
  408dc0:	03 00 00 00 00 00 00 1f 	jr $31

00408dc8 <e_wsfe>:
  408dc8:	43 00 00 00 e8 ff 1d 1d 	addiu $29,$29,-24
  408dd0:	34 00 00 00 14 00 1f 1d 	sw $31,20($29)
  408dd8:	34 00 00 00 10 00 10 1d 	sw $16,16($29)
  408de0:	02 00 00 00 b2 22 10 00 	jal 408ac8 <en_fio>
  408de8:	28 00 00 00 bc 8a 04 1c 	lw $4,-30020($28)
  408df0:	28 00 00 00 34 83 03 1c 	lw $3,-31948($28)
  408df8:	42 00 00 00 00 10 02 00 	addu $16,$0,$2
  408e00:	05 00 00 00 04 00 03 04 	beq $4,$3,408e18 <e_wsfe+0x50>
  408e08:	28 00 00 00 38 83 02 1c 	lw $2,-31944($28)
  408e10:	06 00 00 00 02 00 02 04 	bne $4,$2,408e20 <e_wsfe+0x58>
  408e18:	02 00 00 00 54 37 10 00 	jal 40dd50 <fflush>
  408e20:	34 00 00 00 ac 8a 00 1c 	sw $0,-30036($28)
  408e28:	42 00 00 00 00 02 10 00 	addu $2,$0,$16
  408e30:	28 00 00 00 14 00 1f 1d 	lw $31,20($29)
  408e38:	28 00 00 00 10 00 10 1d 	lw $16,16($29)
  408e40:	43 00 00 00 18 00 1d 1d 	addiu $29,$29,24
  408e48:	03 00 00 00 00 00 00 1f 	jr $31

00408e50 <s_stop>:
  408e50:	43 00 00 00 d8 ff 1d 1d 	addiu $29,$29,-40
  408e58:	34 00 00 00 18 00 10 1d 	sw $16,24($29)
  408e60:	42 00 00 00 00 10 04 00 	addu $16,$0,$4
  408e68:	34 00 00 00 20 00 12 1d 	sw $18,32($29)
  408e70:	42 00 00 00 00 12 05 00 	addu $18,$0,$5
  408e78:	34 00 00 00 24 00 1f 1d 	sw $31,36($29)
  408e80:	34 00 00 00 1c 00 11 1d 	sw $17,28($29)
  408e88:	07 00 00 00 34 00 00 12 	blez $18,408f60 <s_stop+0x110>
  408e90:	28 00 00 00 38 83 04 1c 	lw $4,-31944($28)
  408e98:	43 00 00 00 90 80 05 1c 	addiu $5,$28,-32624
  408ea0:	42 00 00 00 00 11 00 00 	addu $17,$0,$0
  408ea8:	02 00 00 00 30 46 10 00 	jal 4118c0 <fprintf>
  408eb0:	07 00 00 00 22 00 00 12 	blez $18,408f40 <s_stop+0xf0>
  408eb8:	28 00 00 00 38 83 04 1c 	lw $4,-31944($28)
  408ec0:	28 00 00 00 04 00 03 04 	lw $3,4($4)
  408ec8:	28 00 00 00 0c 00 02 04 	lw $2,12($4)
  408ed0:	5d 00 00 00 00 02 02 03 	sltu $2,$3,$2
  408ed8:	05 00 00 00 0c 00 00 02 	beq $2,$0,408f10 <s_stop+0xc0>
  408ee0:	43 00 00 00 01 00 02 03 	addiu $2,$3,1
  408ee8:	34 00 00 00 04 00 02 04 	sw $2,4($4)
  408ef0:	22 00 00 00 00 00 02 10 	lbu $2,0($16)
  408ef8:	43 00 00 00 01 00 10 10 	addiu $16,$16,1
  408f00:	30 00 00 00 00 00 02 03 	sb $2,0($3)
  408f08:	01 00 00 00 ca 23 10 00 	j 408f28 <s_stop+0xd8>
  408f10:	22 00 00 00 00 00 05 10 	lbu $5,0($16)
  408f18:	43 00 00 00 01 00 10 10 	addiu $16,$16,1
  408f20:	02 00 00 00 60 43 10 00 	jal 410d80 <__flshfp>
  408f28:	43 00 00 00 01 00 11 11 	addiu $17,$17,1
  408f30:	5b 00 00 00 00 02 12 11 	slt $2,$17,$18
  408f38:	06 00 00 00 de ff 00 02 	bne $2,$0,408eb8 <s_stop+0x68>
  408f40:	28 00 00 00 38 83 04 1c 	lw $4,-31944($28)
  408f48:	a2 00 00 00 00 10 05 00 	lui $5,4096
  408f50:	43 00 00 00 20 06 05 05 	addiu $5,$5,1568
  408f58:	02 00 00 00 30 46 10 00 	jal 4118c0 <fprintf>
  408f60:	42 00 00 00 00 04 00 00 	addu $4,$0,$0
  408f68:	02 00 00 00 d0 12 10 00 	jal 404b40 <exit>
  408f70:	28 00 00 00 24 00 1f 1d 	lw $31,36($29)
  408f78:	28 00 00 00 20 00 12 1d 	lw $18,32($29)
  408f80:	28 00 00 00 1c 00 11 1d 	lw $17,28($29)
  408f88:	28 00 00 00 18 00 10 1d 	lw $16,24($29)
  408f90:	43 00 00 00 28 00 1d 1d 	addiu $29,$29,40
  408f98:	03 00 00 00 00 00 00 1f 	jr $31

00408fa0 <t_getc>:
  408fa0:	28 00 00 00 b4 8a 02 1c 	lw $2,-30028($28)
  408fa8:	43 00 00 00 e8 ff 1d 1d 	addiu $29,$29,-24
  408fb0:	34 00 00 00 10 00 1f 1d 	sw $31,16($29)
  408fb8:	28 00 00 00 24 00 02 02 	lw $2,36($2)
  408fc0:	06 00 00 00 2e 00 00 02 	bne $2,$0,409080 <t_getc+0xe0>
  408fc8:	28 00 00 00 bc 8a 04 1c 	lw $4,-30020($28)
  408fd0:	28 00 00 00 04 00 03 04 	lw $3,4($4)
  408fd8:	28 00 00 00 08 00 02 04 	lw $2,8($4)
  408fe0:	5d 00 00 00 00 02 02 03 	sltu $2,$3,$2
  408fe8:	05 00 00 00 08 00 00 02 	beq $2,$0,409010 <t_getc+0x70>
  408ff0:	43 00 00 00 01 00 02 03 	addiu $2,$3,1
  408ff8:	34 00 00 00 04 00 02 04 	sw $2,4($4)
  409000:	22 00 00 00 00 00 03 03 	lbu $3,0($3)
  409008:	01 00 00 00 08 24 10 00 	j 409020 <t_getc+0x80>
  409010:	02 00 00 00 ae 44 10 00 	jal 4112b8 <__fillbf>
  409018:	42 00 00 00 00 03 02 00 	addu $3,$0,$2
  409020:	43 00 00 00 ff ff 02 00 	addiu $2,$0,-1
  409028:	05 00 00 00 04 00 02 03 	beq $3,$2,409040 <t_getc+0xa0>
  409030:	42 00 00 00 00 02 03 00 	addu $2,$0,$3
  409038:	01 00 00 00 22 24 10 00 	j 409088 <t_getc+0xe8>
  409040:	28 00 00 00 bc 8a 02 1c 	lw $2,-30020($28)
  409048:	28 00 00 00 4c 00 02 02 	lw $2,76($2)
  409050:	4f 00 00 00 00 02 02 02 	andi $2,$2,512
  409058:	05 00 00 00 08 00 00 02 	beq $2,$0,409080 <t_getc+0xe0>
  409060:	28 00 00 00 b4 8a 03 1c 	lw $3,-30028($28)
  409068:	43 00 00 00 01 00 02 00 	addiu $2,$0,1
  409070:	34 00 00 00 60 8a 02 1c 	sw $2,-30112($28)
  409078:	34 00 00 00 24 00 02 03 	sw $2,36($3)
  409080:	43 00 00 00 ff ff 02 00 	addiu $2,$0,-1
  409088:	28 00 00 00 10 00 1f 1d 	lw $31,16($29)
  409090:	43 00 00 00 18 00 1d 1d 	addiu $29,$29,24
  409098:	03 00 00 00 00 00 00 1f 	jr $31

004090a0 <e_rsle>:
  4090a0:	28 00 00 00 b4 8a 02 1c 	lw $2,-30028($28)
  4090a8:	43 00 00 00 e0 ff 1d 1d 	addiu $29,$29,-32
  4090b0:	34 00 00 00 1c 00 1f 1d 	sw $31,28($29)
  4090b8:	34 00 00 00 18 00 12 1d 	sw $18,24($29)
  4090c0:	34 00 00 00 14 00 11 1d 	sw $17,20($29)
  4090c8:	34 00 00 00 10 00 10 1d 	sw $16,16($29)
  4090d0:	28 00 00 00 24 00 02 02 	lw $2,36($2)
  4090d8:	06 00 00 00 36 00 00 02 	bne $2,$0,4091b8 <e_rsle+0x118>
  4090e0:	43 00 00 00 ff ff 11 00 	addiu $17,$0,-1
  4090e8:	43 00 00 00 01 00 10 00 	addiu $16,$0,1
  4090f0:	43 00 00 00 0a 00 12 00 	addiu $18,$0,10
  4090f8:	28 00 00 00 b4 8a 02 1c 	lw $2,-30028($28)
  409100:	28 00 00 00 24 00 02 02 	lw $2,36($2)
  409108:	06 00 00 00 24 00 00 02 	bne $2,$0,4091a0 <e_rsle+0x100>
  409110:	28 00 00 00 bc 8a 04 1c 	lw $4,-30020($28)
  409118:	28 00 00 00 04 00 03 04 	lw $3,4($4)
  409120:	28 00 00 00 08 00 02 04 	lw $2,8($4)
  409128:	5d 00 00 00 00 02 02 03 	sltu $2,$3,$2
  409130:	05 00 00 00 08 00 00 02 	beq $2,$0,409158 <e_rsle+0xb8>
  409138:	43 00 00 00 01 00 02 03 	addiu $2,$3,1
  409140:	34 00 00 00 04 00 02 04 	sw $2,4($4)
  409148:	22 00 00 00 00 00 02 03 	lbu $2,0($3)
  409150:	01 00 00 00 58 24 10 00 	j 409160 <e_rsle+0xc0>
  409158:	02 00 00 00 ae 44 10 00 	jal 4112b8 <__fillbf>
  409160:	06 00 00 00 10 00 11 02 	bne $2,$17,4091a8 <e_rsle+0x108>
  409168:	28 00 00 00 bc 8a 02 1c 	lw $2,-30020($28)
  409170:	28 00 00 00 4c 00 02 02 	lw $2,76($2)
  409178:	4f 00 00 00 00 02 02 02 	andi $2,$2,512
  409180:	05 00 00 00 06 00 00 02 	beq $2,$0,4091a0 <e_rsle+0x100>
  409188:	28 00 00 00 b4 8a 02 1c 	lw $2,-30028($28)
  409190:	34 00 00 00 60 8a 10 1c 	sw $16,-30112($28)
  409198:	34 00 00 00 24 00 10 02 	sw $16,36($2)
  4091a0:	43 00 00 00 ff ff 02 00 	addiu $2,$0,-1
  4091a8:	05 00 00 00 02 00 12 02 	beq $2,$18,4091b8 <e_rsle+0x118>
  4091b0:	06 00 00 00 d0 ff 11 02 	bne $2,$17,4090f8 <e_rsle+0x58>
  4091b8:	42 00 00 00 00 02 00 00 	addu $2,$0,$0
  4091c0:	28 00 00 00 1c 00 1f 1d 	lw $31,28($29)
  4091c8:	28 00 00 00 18 00 12 1d 	lw $18,24($29)
  4091d0:	28 00 00 00 14 00 11 1d 	lw $17,20($29)
  4091d8:	28 00 00 00 10 00 10 1d 	lw $16,16($29)
  4091e0:	43 00 00 00 20 00 1d 1d 	addiu $29,$29,32
  4091e8:	03 00 00 00 00 00 00 1f 	jr $31

004091f0 <l_R>:
  4091f0:	43 00 00 00 90 ff 1d 1d 	addiu $29,$29,-112
  4091f8:	34 00 00 00 60 00 16 1d 	sw $22,96($29)
  409200:	42 00 00 00 00 16 04 00 	addu $22,$0,$4
  409208:	34 00 00 00 6c 00 1f 1d 	sw $31,108($29)
  409210:	34 00 00 00 68 00 1e 1d 	sw $30,104($29)
  409218:	34 00 00 00 64 00 17 1d 	sw $23,100($29)
  409220:	34 00 00 00 5c 00 15 1d 	sw $21,92($29)
  409228:	34 00 00 00 58 00 14 1d 	sw $20,88($29)
  409230:	34 00 00 00 54 00 13 1d 	sw $19,84($29)
  409238:	34 00 00 00 50 00 12 1d 	sw $18,80($29)
  409240:	34 00 00 00 4c 00 11 1d 	sw $17,76($29)
  409248:	34 00 00 00 48 00 10 1d 	sw $16,72($29)
  409250:	06 00 00 00 08 00 00 16 	bne $22,$0,409278 <l_R+0x88>
  409258:	28 00 00 00 80 8a 02 1c 	lw $2,-30080($28)
  409260:	08 00 00 00 ce 01 00 02 	bgtz $2,4099a0 <l_R+0x7b0>
  409268:	43 00 00 00 01 00 02 00 	addiu $2,$0,1
  409270:	34 00 00 00 80 8a 02 1c 	sw $2,-30080($28)
  409278:	34 00 00 00 50 8a 00 1c 	sw $0,-30128($28)
  409280:	42 00 00 00 00 13 00 00 	addu $19,$0,$0
  409288:	42 00 00 00 00 1e 00 00 	addu $30,$0,$0
  409290:	43 00 00 00 10 00 12 1d 	addiu $18,$29,16
  409298:	42 00 00 00 00 17 12 00 	addu $23,$0,$18
  4092a0:	28 00 00 00 54 8a 02 1c 	lw $2,-30124($28)
  4092a8:	43 00 00 00 38 00 15 1d 	addiu $21,$29,56
  4092b0:	42 00 00 00 00 14 00 00 	addu $20,$0,$0
  4092b8:	04 00 00 00 00 1f 00 02 	jalr $31,$2
  4092c0:	42 00 00 00 00 10 02 00 	addu $16,$0,$2
  4092c8:	43 00 00 00 2b 00 02 00 	addiu $2,$0,43
  4092d0:	05 00 00 00 0e 00 02 10 	beq $16,$2,409310 <l_R+0x120>
  4092d8:	43 00 00 00 2d 00 02 00 	addiu $2,$0,45
  4092e0:	06 00 00 00 10 00 02 10 	bne $16,$2,409328 <l_R+0x138>
  4092e8:	43 00 00 00 2d 00 02 00 	addiu $2,$0,45
  4092f0:	30 00 00 00 10 00 02 1d 	sb $2,16($29)
  4092f8:	43 00 00 00 11 00 12 1d 	addiu $18,$29,17
  409300:	42 00 00 00 00 17 12 00 	addu $23,$0,$18
  409308:	43 00 00 00 39 00 15 1d 	addiu $21,$29,57
  409310:	28 00 00 00 54 8a 02 1c 	lw $2,-30124($28)
  409318:	04 00 00 00 00 1f 00 02 	jalr $31,$2
  409320:	42 00 00 00 00 10 02 00 	addu $16,$0,$2
  409328:	43 00 00 00 30 00 02 00 	addiu $2,$0,48
  409330:	06 00 00 00 0c 00 02 10 	bne $16,$2,409368 <l_R+0x178>
  409338:	43 00 00 00 30 00 11 00 	addiu $17,$0,48
  409340:	28 00 00 00 54 8a 02 1c 	lw $2,-30124($28)
  409348:	43 00 00 00 01 00 14 14 	addiu $20,$20,1
  409350:	04 00 00 00 00 1f 00 02 	jalr $31,$2
  409358:	42 00 00 00 00 10 02 00 	addu $16,$0,$2
  409360:	05 00 00 00 f6 ff 11 10 	beq $16,$17,409340 <l_R+0x150>
  409368:	28 00 00 00 20 84 02 1c 	lw $2,-31712($28)
  409370:	55 00 00 00 01 03 10 00 	sll $3,$16,0x1
  409378:	42 00 00 00 00 03 02 03 	addu $3,$3,$2
  409380:	26 00 00 00 00 00 02 03 	lhu $2,0($3)
  409388:	4f 00 00 00 08 00 02 02 	andi $2,$2,8
  409390:	05 00 00 00 1e 00 00 02 	beq $2,$0,409410 <l_R+0x220>
  409398:	5d 00 00 00 00 02 15 12 	sltu $2,$18,$21
  4093a0:	05 00 00 00 06 00 00 02 	beq $2,$0,4093c0 <l_R+0x1d0>
  4093a8:	30 00 00 00 00 00 10 12 	sb $16,0($18)
  4093b0:	43 00 00 00 01 00 12 12 	addiu $18,$18,1
  4093b8:	01 00 00 00 f2 24 10 00 	j 4093c8 <l_R+0x1d8>
  4093c0:	43 00 00 00 01 00 13 13 	addiu $19,$19,1
  4093c8:	28 00 00 00 54 8a 02 1c 	lw $2,-30124($28)
  4093d0:	04 00 00 00 00 1f 00 02 	jalr $31,$2
  4093d8:	28 00 00 00 20 84 03 1c 	lw $3,-31712($28)
  4093e0:	42 00 00 00 00 10 02 00 	addu $16,$0,$2
  4093e8:	55 00 00 00 01 02 10 00 	sll $2,$16,0x1
  4093f0:	42 00 00 00 00 02 03 02 	addu $2,$2,$3
  4093f8:	26 00 00 00 00 00 02 02 	lhu $2,0($2)
  409400:	4f 00 00 00 08 00 02 02 	andi $2,$2,8
  409408:	06 00 00 00 e2 ff 00 02 	bne $2,$0,409398 <l_R+0x1a8>
  409410:	43 00 00 00 2a 00 02 00 	addiu $2,$0,42
  409418:	06 00 00 00 2c 00 02 10 	bne $16,$2,4094d0 <l_R+0x2e0>
  409420:	06 00 00 00 2a 00 00 16 	bne $22,$0,4094d0 <l_R+0x2e0>
  409428:	05 00 00 00 08 00 17 12 	beq $18,$23,409450 <l_R+0x260>
  409430:	06 00 00 00 06 00 00 13 	bne $19,$0,409450 <l_R+0x260>
  409438:	20 00 00 00 10 00 03 1d 	lb $3,16($29)
  409440:	43 00 00 00 2d 00 02 00 	addiu $2,$0,45
  409448:	06 00 00 00 0e 00 02 03 	bne $3,$2,409488 <l_R+0x298>
  409450:	28 00 00 00 a4 8a 02 1c 	lw $2,-30044($28)
  409458:	28 00 00 00 00 00 04 02 	lw $4,0($2)
  409460:	43 00 00 00 70 00 05 00 	addiu $5,$0,112
  409468:	a2 00 00 00 00 10 06 00 	lui $6,4096
  409470:	43 00 00 00 40 06 06 06 	addiu $6,$6,1600
  409478:	02 00 00 00 70 32 10 00 	jal 40c9c0 <err__fl>
  409480:	01 00 00 00 6a 26 10 00 	j 4099a8 <l_R+0x7b8>
  409488:	43 00 00 00 01 00 1e 00 	addiu $30,$0,1
  409490:	43 00 00 00 01 00 16 00 	addiu $22,$0,1
  409498:	43 00 00 00 10 00 04 1d 	addiu $4,$29,16
  4094a0:	42 00 00 00 00 05 00 00 	addu $5,$0,$0
  4094a8:	43 00 00 00 0a 00 06 00 	addiu $6,$0,10
  4094b0:	30 00 00 00 00 00 00 12 	sb $0,0($18)
  4094b8:	02 00 00 00 04 49 10 00 	jal 412410 <strtol>
  4094c0:	34 00 00 00 80 8a 02 1c 	sw $2,-30080($28)
  4094c8:	01 00 00 00 a4 24 10 00 	j 409290 <l_R+0xa0>
  4094d0:	43 00 00 00 2e 00 02 00 	addiu $2,$0,46
  4094d8:	06 00 00 00 42 00 02 10 	bne $16,$2,4095e8 <l_R+0x3f8>
  4094e0:	28 00 00 00 54 8a 02 1c 	lw $2,-30124($28)
  4094e8:	04 00 00 00 00 1f 00 02 	jalr $31,$2
  4094f0:	42 00 00 00 00 10 02 00 	addu $16,$0,$2
  4094f8:	06 00 00 00 12 00 17 12 	bne $18,$23,409548 <l_R+0x358>
  409500:	43 00 00 00 30 00 02 00 	addiu $2,$0,48
  409508:	06 00 00 00 0e 00 02 10 	bne $16,$2,409548 <l_R+0x358>
  409510:	43 00 00 00 30 00 11 00 	addiu $17,$0,48
  409518:	28 00 00 00 54 8a 02 1c 	lw $2,-30124($28)
  409520:	43 00 00 00 01 00 14 14 	addiu $20,$20,1
  409528:	43 00 00 00 ff ff 13 13 	addiu $19,$19,-1
  409530:	04 00 00 00 00 1f 00 02 	jalr $31,$2
  409538:	42 00 00 00 00 10 02 00 	addu $16,$0,$2
  409540:	05 00 00 00 f4 ff 11 10 	beq $16,$17,409518 <l_R+0x328>
  409548:	28 00 00 00 20 84 02 1c 	lw $2,-31712($28)
  409550:	55 00 00 00 01 03 10 00 	sll $3,$16,0x1
  409558:	42 00 00 00 00 03 02 03 	addu $3,$3,$2
  409560:	26 00 00 00 00 00 02 03 	lhu $2,0($3)
  409568:	4f 00 00 00 08 00 02 02 	andi $2,$2,8
  409570:	05 00 00 00 1c 00 00 02 	beq $2,$0,4095e8 <l_R+0x3f8>
  409578:	5d 00 00 00 00 02 15 12 	sltu $2,$18,$21
  409580:	05 00 00 00 06 00 00 02 	beq $2,$0,4095a0 <l_R+0x3b0>
  409588:	30 00 00 00 00 00 10 12 	sb $16,0($18)
  409590:	43 00 00 00 01 00 12 12 	addiu $18,$18,1
  409598:	43 00 00 00 ff ff 13 13 	addiu $19,$19,-1
  4095a0:	28 00 00 00 54 8a 02 1c 	lw $2,-30124($28)
  4095a8:	04 00 00 00 00 1f 00 02 	jalr $31,$2
  4095b0:	28 00 00 00 20 84 03 1c 	lw $3,-31712($28)
  4095b8:	42 00 00 00 00 10 02 00 	addu $16,$0,$2
  4095c0:	55 00 00 00 01 02 10 00 	sll $2,$16,0x1
  4095c8:	42 00 00 00 00 02 03 02 	addu $2,$2,$3
  4095d0:	26 00 00 00 00 00 02 02 	lhu $2,0($2)
  4095d8:	4f 00 00 00 08 00 02 02 	andi $2,$2,8
  4095e0:	06 00 00 00 e4 ff 00 02 	bne $2,$0,409578 <l_R+0x388>
  4095e8:	45 00 00 00 00 02 17 12 	subu $2,$18,$23
  4095f0:	a2 00 00 00 00 10 03 00 	lui $3,4096
  4095f8:	42 00 00 00 00 03 10 03 	addu $3,$3,$16
  409600:	22 00 00 00 11 27 03 03 	lbu $3,10001($3)
  409608:	42 00 00 00 00 14 02 14 	addu $20,$20,$2
  409610:	42 00 00 00 00 16 00 00 	addu $22,$0,$0
  409618:	4f 00 00 00 10 00 02 03 	andi $2,$3,16
  409620:	06 00 00 00 16 00 00 02 	bne $2,$0,409680 <l_R+0x490>
  409628:	05 00 00 00 6a 00 00 14 	beq $20,$0,4097d8 <l_R+0x5e8>
  409630:	4f 00 00 00 08 00 02 03 	andi $2,$3,8
  409638:	05 00 00 00 66 00 00 02 	beq $2,$0,4097d8 <l_R+0x5e8>
  409640:	28 00 00 00 54 8a 02 1c 	lw $2,-30124($28)
  409648:	04 00 00 00 00 1f 00 02 	jalr $31,$2
  409650:	42 00 00 00 00 10 02 00 	addu $16,$0,$2
  409658:	a2 00 00 00 00 10 02 00 	lui $2,4096
  409660:	42 00 00 00 00 02 10 02 	addu $2,$2,$16
  409668:	22 00 00 00 11 27 02 02 	lbu $2,10001($2)
  409670:	4f 00 00 00 10 00 02 02 	andi $2,$2,16
  409678:	05 00 00 00 0c 00 00 02 	beq $2,$0,4096b0 <l_R+0x4c0>
  409680:	43 00 00 00 2d 00 02 00 	addiu $2,$0,45
  409688:	06 00 00 00 02 00 02 10 	bne $16,$2,409698 <l_R+0x4a8>
  409690:	43 00 00 00 01 00 16 00 	addiu $22,$0,1
  409698:	28 00 00 00 54 8a 02 1c 	lw $2,-30124($28)
  4096a0:	04 00 00 00 00 1f 00 02 	jalr $31,$2
  4096a8:	42 00 00 00 00 10 02 00 	addu $16,$0,$2
  4096b0:	28 00 00 00 20 84 02 1c 	lw $2,-31712($28)
  4096b8:	55 00 00 00 01 03 10 00 	sll $3,$16,0x1
  4096c0:	42 00 00 00 00 03 02 03 	addu $3,$3,$2
  4096c8:	26 00 00 00 00 00 02 03 	lhu $2,0($3)
  4096d0:	4f 00 00 00 08 00 02 02 	andi $2,$2,8
  4096d8:	06 00 00 00 0e 00 00 02 	bne $2,$0,409718 <l_R+0x528>
  4096e0:	28 00 00 00 a4 8a 02 1c 	lw $2,-30044($28)
  4096e8:	28 00 00 00 00 00 04 02 	lw $4,0($2)
  4096f0:	43 00 00 00 70 00 05 00 	addiu $5,$0,112
  4096f8:	a2 00 00 00 00 10 06 00 	lui $6,4096
  409700:	43 00 00 00 58 06 06 06 	addiu $6,$6,1624
  409708:	02 00 00 00 70 32 10 00 	jal 40c9c0 <err__fl>
  409710:	01 00 00 00 6a 26 10 00 	j 4099a8 <l_R+0x7b8>
  409718:	43 00 00 00 d0 ff 11 10 	addiu $17,$16,-48
  409720:	a2 00 00 00 f5 05 15 00 	lui $21,1525
  409728:	51 00 00 00 ff e0 15 15 	ori $21,$21,57599
  409730:	28 00 00 00 54 8a 02 1c 	lw $2,-30124($28)
  409738:	04 00 00 00 00 1f 00 02 	jalr $31,$2
  409740:	28 00 00 00 20 84 03 1c 	lw $3,-31712($28)
  409748:	42 00 00 00 00 10 02 00 	addu $16,$0,$2
  409750:	55 00 00 00 01 02 10 00 	sll $2,$16,0x1
  409758:	42 00 00 00 00 02 03 02 	addu $2,$2,$3
  409760:	26 00 00 00 00 00 02 02 	lhu $2,0($2)
  409768:	4f 00 00 00 08 00 02 02 	andi $2,$2,8
  409770:	05 00 00 00 10 00 00 02 	beq $2,$0,4097b8 <l_R+0x5c8>
  409778:	55 00 00 00 02 02 11 00 	sll $2,$17,0x2
  409780:	42 00 00 00 00 02 11 02 	addu $2,$2,$17
  409788:	55 00 00 00 01 02 02 00 	sll $2,$2,0x1
  409790:	42 00 00 00 00 02 10 02 	addu $2,$2,$16
  409798:	43 00 00 00 d0 ff 11 02 	addiu $17,$2,-48
  4097a0:	5b 00 00 00 00 02 11 15 	slt $2,$21,$17
  4097a8:	06 00 00 00 cc ff 00 02 	bne $2,$0,4096e0 <l_R+0x4f0>
  4097b0:	01 00 00 00 cc 25 10 00 	j 409730 <l_R+0x540>
  4097b8:	05 00 00 00 04 00 00 16 	beq $22,$0,4097d0 <l_R+0x5e0>
  4097c0:	45 00 00 00 00 13 11 13 	subu $19,$19,$17
  4097c8:	01 00 00 00 f6 25 10 00 	j 4097d8 <l_R+0x5e8>
  4097d0:	42 00 00 00 00 13 11 13 	addu $19,$19,$17
  4097d8:	28 00 00 00 bc 8a 05 1c 	lw $5,-30020($28)
  4097e0:	28 00 00 00 5c 8a 02 1c 	lw $2,-30116($28)
  4097e8:	42 00 00 00 00 04 10 00 	addu $4,$0,$16
  4097f0:	04 00 00 00 00 1f 00 02 	jalr $31,$2
  4097f8:	5d 00 00 00 00 02 12 17 	sltu $2,$23,$18
  409800:	05 00 00 00 2e 00 00 02 	beq $2,$0,4098c0 <l_R+0x6d0>
  409808:	43 00 00 00 ff ff 12 12 	addiu $18,$18,-1
  409810:	20 00 00 00 00 00 03 12 	lb $3,0($18)
  409818:	43 00 00 00 01 00 14 14 	addiu $20,$20,1
  409820:	43 00 00 00 30 00 02 00 	addiu $2,$0,48
  409828:	06 00 00 00 0a 00 02 03 	bne $3,$2,409858 <l_R+0x668>
  409830:	43 00 00 00 30 00 03 00 	addiu $3,$0,48
  409838:	43 00 00 00 ff ff 12 12 	addiu $18,$18,-1
  409840:	20 00 00 00 00 00 02 12 	lb $2,0($18)
