
/export/capc5/SPEC_TRACE/SimpleScalar/bin/applu.ss:     file format ss-coff-little

Disassembly of section .text:

00400140 <__start>:
  400140:	28 00 00 00 00 00 10 1d 	lw $16,0($29)
  400148:	a2 00 00 00 01 10 1c 00 	lui $28,4097
  400150:	43 00 00 00 00 c9 1c 1c 	addiu $28,$28,-14080
  400158:	43 00 00 00 04 00 11 1d 	addiu $17,$29,4
  400160:	43 00 00 00 04 00 03 11 	addiu $3,$17,4
  400168:	55 00 00 00 02 02 10 00 	sll $2,$16,0x2
  400170:	42 00 00 00 00 03 02 03 	addu $3,$3,$2
  400178:	42 00 00 00 00 12 03 00 	addu $18,$0,$3
  400180:	34 00 00 00 b4 89 12 1c 	sw $18,-30284($28)
  400188:	43 00 00 00 e8 ff 1d 1d 	addiu $29,$29,-24
  400190:	42 00 00 00 00 04 10 00 	addu $4,$0,$16
  400198:	42 00 00 00 00 05 11 00 	addu $5,$0,$17
  4001a0:	42 00 00 00 00 06 12 00 	addu $6,$0,$18
  4001a8:	02 00 00 00 f0 5c 10 00 	jal 4173c0 <__libc_init>
  4001b0:	34 00 00 00 b0 89 00 1c 	sw $0,-30288($28)
  4001b8:	42 00 00 00 00 04 10 00 	addu $4,$0,$16
  4001c0:	42 00 00 00 00 05 11 00 	addu $5,$0,$17
  4001c8:	42 00 00 00 00 06 12 00 	addu $6,$0,$18
  4001d0:	02 00 00 00 fc 5c 10 00 	jal 4173f0 <main>
  4001d8:	42 00 00 00 00 04 02 00 	addu $4,$0,$2
  4001e0:	02 00 00 00 d4 5d 10 00 	jal 417750 <exit>
	...

004001f0 <MAIN__>:
  4001f0:	43 00 00 00 c8 ff 1d 1d 	addiu $29,$29,-56
  4001f8:	a2 00 00 00 00 10 04 00 	lui $4,4096
  400200:	43 00 00 00 2c 25 04 04 	addiu $4,$4,9516
  400208:	34 00 00 00 14 00 1f 1d 	sw $31,20($29)
  400210:	34 00 00 00 10 00 10 1d 	sw $16,16($29)
  400218:	37 00 00 00 30 00 1a 1d 	s.d $f26,48($29)
  400220:	37 00 00 00 28 00 18 1d 	s.d $f24,40($29)
  400228:	37 00 00 00 20 00 16 1d 	s.d $f22,32($29)
  400230:	37 00 00 00 18 00 14 1d 	s.d $f20,24($29)
  400238:	02 00 00 00 3c 5e 10 00 	jal 4178f0 <s_wsle>
  400240:	43 00 00 00 00 80 04 1c 	addiu $4,$28,-32768
  400248:	43 00 00 00 04 80 05 1c 	addiu $5,$28,-32764
  400250:	a2 00 00 00 00 10 06 00 	lui $6,4096
  400258:	43 00 00 00 00 00 06 06 	addiu $6,$6,0
  400260:	43 00 00 00 0c 00 07 00 	addiu $7,$0,12
  400268:	02 00 00 00 b4 5e 10 00 	jal 417ad0 <do_lio>
  400270:	02 00 00 00 94 5e 10 00 	jal 417a50 <e_wsle>
  400278:	a2 00 00 00 00 10 04 00 	lui $4,4096
  400280:	43 00 00 00 40 25 04 04 	addiu $4,$4,9536
  400288:	02 00 00 00 06 68 10 00 	jal 41a018 <s_rsle>
  400290:	02 00 00 00 0c 5f 10 00 	jal 417c30 <e_rsle>
  400298:	a2 00 00 00 00 10 04 00 	lui $4,4096
  4002a0:	43 00 00 00 54 25 04 04 	addiu $4,$4,9556
  4002a8:	02 00 00 00 06 68 10 00 	jal 41a018 <s_rsle>
  4002b0:	02 00 00 00 0c 5f 10 00 	jal 417c30 <e_rsle>
  4002b8:	a2 00 00 00 00 10 04 00 	lui $4,4096
  4002c0:	43 00 00 00 68 25 04 04 	addiu $4,$4,9576
  4002c8:	02 00 00 00 06 68 10 00 	jal 41a018 <s_rsle>
  4002d0:	43 00 00 00 08 80 04 1c 	addiu $4,$28,-32760
  4002d8:	43 00 00 00 04 80 05 1c 	addiu $5,$28,-32764
  4002e0:	a2 00 00 00 f9 11 10 00 	lui $16,4601
  4002e8:	43 00 00 00 c4 dd 10 10 	addiu $16,$16,-8764
  4002f0:	42 00 00 00 00 06 10 00 	addu $6,$0,$16
  4002f8:	43 00 00 00 04 00 07 00 	addiu $7,$0,4
  400300:	02 00 00 00 b4 5e 10 00 	jal 417ad0 <do_lio>
  400308:	02 00 00 00 0c 5f 10 00 	jal 417c30 <e_rsle>
  400310:	a2 00 00 00 00 10 04 00 	lui $4,4096
  400318:	43 00 00 00 7c 25 04 04 	addiu $4,$4,9596
  400320:	02 00 00 00 06 68 10 00 	jal 41a018 <s_rsle>
  400328:	02 00 00 00 0c 5f 10 00 	jal 417c30 <e_rsle>
  400330:	a2 00 00 00 00 10 04 00 	lui $4,4096
  400338:	43 00 00 00 90 25 04 04 	addiu $4,$4,9616
  400340:	02 00 00 00 06 68 10 00 	jal 41a018 <s_rsle>
  400348:	02 00 00 00 0c 5f 10 00 	jal 417c30 <e_rsle>
  400350:	a2 00 00 00 00 10 04 00 	lui $4,4096
  400358:	43 00 00 00 a4 25 04 04 	addiu $4,$4,9636
  400360:	02 00 00 00 06 68 10 00 	jal 41a018 <s_rsle>
  400368:	43 00 00 00 08 80 04 1c 	addiu $4,$28,-32760
  400370:	43 00 00 00 04 80 05 1c 	addiu $5,$28,-32764
  400378:	43 00 00 00 fc ff 06 10 	addiu $6,$16,-4
  400380:	43 00 00 00 04 00 07 00 	addiu $7,$0,4
  400388:	02 00 00 00 b4 5e 10 00 	jal 417ad0 <do_lio>
  400390:	43 00 00 00 08 80 04 1c 	addiu $4,$28,-32760
  400398:	43 00 00 00 04 80 05 1c 	addiu $5,$28,-32764
  4003a0:	43 00 00 00 04 00 06 10 	addiu $6,$16,4
  4003a8:	43 00 00 00 04 00 07 00 	addiu $7,$0,4
  4003b0:	02 00 00 00 b4 5e 10 00 	jal 417ad0 <do_lio>
  4003b8:	02 00 00 00 0c 5f 10 00 	jal 417c30 <e_rsle>
  4003c0:	a2 00 00 00 00 10 04 00 	lui $4,4096
  4003c8:	43 00 00 00 b8 25 04 04 	addiu $4,$4,9656
  4003d0:	02 00 00 00 06 68 10 00 	jal 41a018 <s_rsle>
  4003d8:	02 00 00 00 0c 5f 10 00 	jal 417c30 <e_rsle>
  4003e0:	a2 00 00 00 00 10 04 00 	lui $4,4096
  4003e8:	43 00 00 00 cc 25 04 04 	addiu $4,$4,9676
  4003f0:	02 00 00 00 06 68 10 00 	jal 41a018 <s_rsle>
  4003f8:	02 00 00 00 0c 5f 10 00 	jal 417c30 <e_rsle>
  400400:	a2 00 00 00 00 10 04 00 	lui $4,4096
  400408:	43 00 00 00 e0 25 04 04 	addiu $4,$4,9696
  400410:	02 00 00 00 06 68 10 00 	jal 41a018 <s_rsle>
  400418:	43 00 00 00 08 80 04 1c 	addiu $4,$28,-32760
  400420:	43 00 00 00 04 80 05 1c 	addiu $5,$28,-32764
  400428:	a2 00 00 00 f9 11 10 00 	lui $16,4601
  400430:	43 00 00 00 a0 dc 10 10 	addiu $16,$16,-9056
  400438:	42 00 00 00 00 06 10 00 	addu $6,$0,$16
  400440:	43 00 00 00 04 00 07 00 	addiu $7,$0,4
  400448:	02 00 00 00 b4 5e 10 00 	jal 417ad0 <do_lio>
  400450:	02 00 00 00 0c 5f 10 00 	jal 417c30 <e_rsle>
  400458:	a2 00 00 00 00 10 04 00 	lui $4,4096
  400460:	43 00 00 00 f4 25 04 04 	addiu $4,$4,9716
  400468:	02 00 00 00 06 68 10 00 	jal 41a018 <s_rsle>
  400470:	02 00 00 00 0c 5f 10 00 	jal 417c30 <e_rsle>
  400478:	a2 00 00 00 00 10 04 00 	lui $4,4096
  400480:	43 00 00 00 08 26 04 04 	addiu $4,$4,9736
  400488:	02 00 00 00 06 68 10 00 	jal 41a018 <s_rsle>
  400490:	02 00 00 00 0c 5f 10 00 	jal 417c30 <e_rsle>
  400498:	a2 00 00 00 00 10 04 00 	lui $4,4096
  4004a0:	43 00 00 00 1c 26 04 04 	addiu $4,$4,9756
  4004a8:	02 00 00 00 06 68 10 00 	jal 41a018 <s_rsle>
  4004b0:	43 00 00 00 0c 80 04 1c 	addiu $4,$28,-32756
  4004b8:	43 00 00 00 04 80 05 1c 	addiu $5,$28,-32764
  4004c0:	43 00 00 00 08 00 06 10 	addiu $6,$16,8
  4004c8:	43 00 00 00 08 00 07 00 	addiu $7,$0,8
  4004d0:	02 00 00 00 b4 5e 10 00 	jal 417ad0 <do_lio>
  4004d8:	02 00 00 00 0c 5f 10 00 	jal 417c30 <e_rsle>
  4004e0:	a2 00 00 00 00 10 04 00 	lui $4,4096
  4004e8:	43 00 00 00 30 26 04 04 	addiu $4,$4,9776
  4004f0:	02 00 00 00 06 68 10 00 	jal 41a018 <s_rsle>
  4004f8:	02 00 00 00 0c 5f 10 00 	jal 417c30 <e_rsle>
  400500:	a2 00 00 00 00 10 04 00 	lui $4,4096
  400508:	43 00 00 00 44 26 04 04 	addiu $4,$4,9796
  400510:	02 00 00 00 06 68 10 00 	jal 41a018 <s_rsle>
  400518:	02 00 00 00 0c 5f 10 00 	jal 417c30 <e_rsle>
  400520:	a2 00 00 00 00 10 04 00 	lui $4,4096
  400528:	43 00 00 00 58 26 04 04 	addiu $4,$4,9816
  400530:	02 00 00 00 06 68 10 00 	jal 41a018 <s_rsle>
  400538:	43 00 00 00 08 80 04 1c 	addiu $4,$28,-32760
  400540:	43 00 00 00 04 80 05 1c 	addiu $5,$28,-32764
  400548:	43 00 00 00 04 00 06 10 	addiu $6,$16,4
  400550:	43 00 00 00 04 00 07 00 	addiu $7,$0,4
  400558:	02 00 00 00 b4 5e 10 00 	jal 417ad0 <do_lio>
  400560:	02 00 00 00 0c 5f 10 00 	jal 417c30 <e_rsle>
  400568:	a2 00 00 00 00 10 04 00 	lui $4,4096
  400570:	43 00 00 00 6c 26 04 04 	addiu $4,$4,9836
  400578:	02 00 00 00 06 68 10 00 	jal 41a018 <s_rsle>
  400580:	02 00 00 00 0c 5f 10 00 	jal 417c30 <e_rsle>
  400588:	a2 00 00 00 00 10 04 00 	lui $4,4096
  400590:	43 00 00 00 80 26 04 04 	addiu $4,$4,9856
  400598:	02 00 00 00 06 68 10 00 	jal 41a018 <s_rsle>
  4005a0:	02 00 00 00 0c 5f 10 00 	jal 417c30 <e_rsle>
  4005a8:	a2 00 00 00 00 10 04 00 	lui $4,4096
  4005b0:	43 00 00 00 94 26 04 04 	addiu $4,$4,9876
  4005b8:	02 00 00 00 06 68 10 00 	jal 41a018 <s_rsle>
  4005c0:	43 00 00 00 0c 80 04 1c 	addiu $4,$28,-32756
  4005c8:	43 00 00 00 04 80 05 1c 	addiu $5,$28,-32764
  4005d0:	43 00 00 00 10 00 06 10 	addiu $6,$16,16
  4005d8:	43 00 00 00 08 00 07 00 	addiu $7,$0,8
  4005e0:	02 00 00 00 b4 5e 10 00 	jal 417ad0 <do_lio>
  4005e8:	02 00 00 00 0c 5f 10 00 	jal 417c30 <e_rsle>
  4005f0:	a2 00 00 00 00 10 04 00 	lui $4,4096
  4005f8:	43 00 00 00 a8 26 04 04 	addiu $4,$4,9896
  400600:	02 00 00 00 06 68 10 00 	jal 41a018 <s_rsle>
  400608:	02 00 00 00 0c 5f 10 00 	jal 417c30 <e_rsle>
  400610:	a2 00 00 00 00 10 04 00 	lui $4,4096
  400618:	43 00 00 00 bc 26 04 04 	addiu $4,$4,9916
  400620:	02 00 00 00 06 68 10 00 	jal 41a018 <s_rsle>
  400628:	02 00 00 00 0c 5f 10 00 	jal 417c30 <e_rsle>
  400630:	a2 00 00 00 00 10 04 00 	lui $4,4096
  400638:	43 00 00 00 d0 26 04 04 	addiu $4,$4,9936
  400640:	02 00 00 00 06 68 10 00 	jal 41a018 <s_rsle>
  400648:	43 00 00 00 0c 80 04 1c 	addiu $4,$28,-32756
  400650:	43 00 00 00 04 80 05 1c 	addiu $5,$28,-32764
  400658:	43 00 00 00 18 00 06 10 	addiu $6,$16,24
  400660:	43 00 00 00 08 00 07 00 	addiu $7,$0,8
  400668:	02 00 00 00 b4 5e 10 00 	jal 417ad0 <do_lio>
  400670:	43 00 00 00 0c 80 04 1c 	addiu $4,$28,-32756
  400678:	43 00 00 00 04 80 05 1c 	addiu $5,$28,-32764
  400680:	43 00 00 00 20 00 06 10 	addiu $6,$16,32
  400688:	43 00 00 00 08 00 07 00 	addiu $7,$0,8
  400690:	02 00 00 00 b4 5e 10 00 	jal 417ad0 <do_lio>
  400698:	43 00 00 00 0c 80 04 1c 	addiu $4,$28,-32756
  4006a0:	43 00 00 00 04 80 05 1c 	addiu $5,$28,-32764
  4006a8:	43 00 00 00 28 00 06 10 	addiu $6,$16,40
  4006b0:	43 00 00 00 08 00 07 00 	addiu $7,$0,8
  4006b8:	02 00 00 00 b4 5e 10 00 	jal 417ad0 <do_lio>
  4006c0:	43 00 00 00 0c 80 04 1c 	addiu $4,$28,-32756
  4006c8:	43 00 00 00 04 80 05 1c 	addiu $5,$28,-32764
  4006d0:	43 00 00 00 30 00 06 10 	addiu $6,$16,48
  4006d8:	43 00 00 00 08 00 07 00 	addiu $7,$0,8
  4006e0:	02 00 00 00 b4 5e 10 00 	jal 417ad0 <do_lio>
  4006e8:	43 00 00 00 0c 80 04 1c 	addiu $4,$28,-32756
  4006f0:	43 00 00 00 04 80 05 1c 	addiu $5,$28,-32764
  4006f8:	43 00 00 00 38 00 06 10 	addiu $6,$16,56
  400700:	43 00 00 00 08 00 07 00 	addiu $7,$0,8
  400708:	02 00 00 00 b4 5e 10 00 	jal 417ad0 <do_lio>
  400710:	02 00 00 00 0c 5f 10 00 	jal 417c30 <e_rsle>
  400718:	a2 00 00 00 00 10 04 00 	lui $4,4096
  400720:	43 00 00 00 e4 26 04 04 	addiu $4,$4,9956
  400728:	02 00 00 00 06 68 10 00 	jal 41a018 <s_rsle>
  400730:	02 00 00 00 0c 5f 10 00 	jal 417c30 <e_rsle>
  400738:	a2 00 00 00 00 10 04 00 	lui $4,4096
  400740:	43 00 00 00 f8 26 04 04 	addiu $4,$4,9976
  400748:	02 00 00 00 06 68 10 00 	jal 41a018 <s_rsle>
  400750:	02 00 00 00 0c 5f 10 00 	jal 417c30 <e_rsle>
  400758:	a2 00 00 00 00 10 04 00 	lui $4,4096
  400760:	43 00 00 00 0c 27 04 04 	addiu $4,$4,9996
  400768:	02 00 00 00 06 68 10 00 	jal 41a018 <s_rsle>
  400770:	43 00 00 00 08 80 04 1c 	addiu $4,$28,-32760
  400778:	43 00 00 00 04 80 05 1c 	addiu $5,$28,-32764
  400780:	a2 00 00 00 42 10 10 00 	lui $16,4162
  400788:	43 00 00 00 f0 2c 10 10 	addiu $16,$16,11504
  400790:	42 00 00 00 00 06 10 00 	addu $6,$0,$16
  400798:	43 00 00 00 04 00 07 00 	addiu $7,$0,4
  4007a0:	02 00 00 00 b4 5e 10 00 	jal 417ad0 <do_lio>
  4007a8:	43 00 00 00 08 80 04 1c 	addiu $4,$28,-32760
  4007b0:	43 00 00 00 04 80 05 1c 	addiu $5,$28,-32764
  4007b8:	43 00 00 00 04 00 06 10 	addiu $6,$16,4
  4007c0:	43 00 00 00 04 00 07 00 	addiu $7,$0,4
  4007c8:	02 00 00 00 b4 5e 10 00 	jal 417ad0 <do_lio>
  4007d0:	43 00 00 00 08 80 04 1c 	addiu $4,$28,-32760
  4007d8:	43 00 00 00 04 80 05 1c 	addiu $5,$28,-32764
  4007e0:	43 00 00 00 08 00 06 10 	addiu $6,$16,8
  4007e8:	43 00 00 00 04 00 07 00 	addiu $7,$0,4
  4007f0:	02 00 00 00 b4 5e 10 00 	jal 417ad0 <do_lio>
  4007f8:	02 00 00 00 0c 5f 10 00 	jal 417c30 <e_rsle>
  400800:	28 00 00 00 00 00 02 10 	lw $2,0($16)
  400808:	5c 00 00 00 05 00 02 02 	slti $2,$2,5
  400810:	06 00 00 00 0c 00 00 02 	bne $2,$0,400848 <MAIN__+0x658>
  400818:	28 00 00 00 04 00 02 10 	lw $2,4($16)
  400820:	5c 00 00 00 05 00 02 02 	slti $2,$2,5
  400828:	06 00 00 00 06 00 00 02 	bne $2,$0,400848 <MAIN__+0x658>
  400830:	28 00 00 00 08 00 02 10 	lw $2,8($16)
  400838:	5c 00 00 00 05 00 02 02 	slti $2,$2,5
  400840:	05 00 00 00 0e 00 00 02 	beq $2,$0,400880 <MAIN__+0x690>
  400848:	a2 00 00 00 00 10 04 00 	lui $4,4096
  400850:	43 00 00 00 20 27 04 04 	addiu $4,$4,10016
  400858:	02 00 00 00 70 69 10 00 	jal 41a5c0 <s_wsfe>
  400860:	02 00 00 00 b6 6a 10 00 	jal 41aad8 <e_wsfe>
  400868:	43 00 00 00 14 80 04 1c 	addiu $4,$28,-32748
  400870:	42 00 00 00 00 05 00 00 	addu $5,$0,$0
  400878:	02 00 00 00 d8 6a 10 00 	jal 41ab60 <s_stop>
  400880:	a2 00 00 00 42 10 02 00 	lui $2,4162
  400888:	28 00 00 00 f0 2c 02 02 	lw $2,11504($2)
  400890:	5c 00 00 00 22 00 02 02 	slti $2,$2,34
  400898:	05 00 00 00 10 00 00 02 	beq $2,$0,4008e0 <MAIN__+0x6f0>
  4008a0:	a2 00 00 00 42 10 02 00 	lui $2,4162
  4008a8:	28 00 00 00 f4 2c 02 02 	lw $2,11508($2)
  4008b0:	5c 00 00 00 22 00 02 02 	slti $2,$2,34
  4008b8:	05 00 00 00 08 00 00 02 	beq $2,$0,4008e0 <MAIN__+0x6f0>
  4008c0:	a2 00 00 00 42 10 02 00 	lui $2,4162
  4008c8:	28 00 00 00 f8 2c 02 02 	lw $2,11512($2)
  4008d0:	5c 00 00 00 22 00 02 02 	slti $2,$2,34
  4008d8:	06 00 00 00 08 00 00 02 	bne $2,$0,400900 <MAIN__+0x710>
  4008e0:	a2 00 00 00 00 10 04 00 	lui $4,4096
  4008e8:	43 00 00 00 34 27 04 04 	addiu $4,$4,10036
  4008f0:	02 00 00 00 70 69 10 00 	jal 41a5c0 <s_wsfe>
  4008f8:	02 00 00 00 b6 6a 10 00 	jal 41aad8 <e_wsfe>
  400900:	a2 00 00 00 42 10 05 00 	lui $5,4162
  400908:	28 00 00 00 f0 2c 05 05 	lw $5,11504($5)
  400910:	2b 00 00 00 18 80 02 1c 	l.d $f2,-32744($28)
  400918:	43 00 00 00 ff ff 05 05 	addiu $5,$5,-1
  400920:	a5 00 00 00 00 00 05 08 	mtc1 $5,$f8
  400928:	83 00 00 00 00 08 00 08 	cvt.d.w $f8,$f8
  400930:	77 00 00 00 00 08 08 02 	div.d $f8,$f2,$f8
  400938:	a2 00 00 00 42 10 04 00 	lui $4,4162
  400940:	28 00 00 00 f4 2c 04 04 	lw $4,11508($4)
  400948:	43 00 00 00 ff ff 02 04 	addiu $2,$4,-1
  400950:	a5 00 00 00 00 00 02 06 	mtc1 $2,$f6
  400958:	83 00 00 00 00 06 00 06 	cvt.d.w $f6,$f6
  400960:	77 00 00 00 00 06 06 02 	div.d $f6,$f2,$f6
  400968:	a2 00 00 00 42 10 03 00 	lui $3,4162
  400970:	28 00 00 00 f8 2c 03 03 	lw $3,11512($3)
  400978:	43 00 00 00 ff ff 03 03 	addiu $3,$3,-1
  400980:	a5 00 00 00 00 00 03 04 	mtc1 $3,$f4
  400988:	83 00 00 00 00 04 00 04 	cvt.d.w $f4,$f4
  400990:	77 00 00 00 00 04 04 02 	div.d $f4,$f2,$f4
  400998:	77 00 00 00 00 1a 08 02 	div.d $f26,$f2,$f8
  4009a0:	77 00 00 00 00 18 06 02 	div.d $f24,$f2,$f6
  4009a8:	77 00 00 00 00 16 04 02 	div.d $f22,$f2,$f4
  4009b0:	71 00 00 00 00 10 08 08 	add.d $f16,$f8,$f8
  4009b8:	77 00 00 00 00 10 10 02 	div.d $f16,$f2,$f16
  4009c0:	71 00 00 00 00 0e 06 06 	add.d $f14,$f6,$f6
  4009c8:	77 00 00 00 00 0e 0e 02 	div.d $f14,$f2,$f14
  4009d0:	71 00 00 00 00 0a 04 04 	add.d $f10,$f4,$f4
  4009d8:	77 00 00 00 00 0a 0a 02 	div.d $f10,$f2,$f10
  4009e0:	75 00 00 00 00 14 08 08 	mul.d $f20,$f8,$f8
  4009e8:	77 00 00 00 00 14 14 02 	div.d $f20,$f2,$f20
  4009f0:	75 00 00 00 00 12 06 06 	mul.d $f18,$f6,$f6
  4009f8:	77 00 00 00 00 12 12 02 	div.d $f18,$f2,$f18
  400a00:	75 00 00 00 00 0c 04 04 	mul.d $f12,$f4,$f4
  400a08:	77 00 00 00 00 0c 0c 02 	div.d $f12,$f2,$f12
  400a10:	2b 00 00 00 20 80 00 1c 	l.d $f0,-32736($28)
  400a18:	a2 00 00 00 42 10 01 00 	lui $1,4162
  400a20:	34 00 00 00 14 2d 00 01 	sw $0,11540($1)
  400a28:	43 00 00 00 02 00 02 00 	addiu $2,$0,2
  400a30:	a2 00 00 00 42 10 01 00 	lui $1,4162
  400a38:	34 00 00 00 fc 2c 02 01 	sw $2,11516($1)
  400a40:	a2 00 00 00 42 10 01 00 	lui $1,4162
  400a48:	34 00 00 00 04 2d 02 01 	sw $2,11524($1)
  400a50:	43 00 00 00 03 00 02 00 	addiu $2,$0,3
  400a58:	43 00 00 00 fe ff 04 04 	addiu $4,$4,-2
  400a60:	a2 00 00 00 42 10 01 00 	lui $1,4162
  400a68:	34 00 00 00 0c 2d 02 01 	sw $2,11532($1)
  400a70:	a2 00 00 00 f9 11 02 00 	lui $2,4601
  400a78:	43 00 00 00 40 dd 02 02 	addiu $2,$2,-8896
  400a80:	a2 00 00 00 42 10 01 00 	lui $1,4162
  400a88:	34 00 00 00 00 2d 05 01 	sw $5,11520($1)
  400a90:	a2 00 00 00 42 10 01 00 	lui $1,4162
  400a98:	34 00 00 00 08 2d 04 01 	sw $4,11528($1)
  400aa0:	a2 00 00 00 42 10 01 00 	lui $1,4162
  400aa8:	34 00 00 00 10 2d 03 01 	sw $3,11536($1)
  400ab0:	37 00 00 00 00 00 00 02 	s.d $f0,0($2)
  400ab8:	a2 00 00 00 f9 11 01 00 	lui $1,4601
  400ac0:	37 00 00 00 48 dd 00 01 	s.d $f0,-8888($1)
  400ac8:	a2 00 00 00 f9 11 01 00 	lui $1,4601
  400ad0:	37 00 00 00 50 dd 00 01 	s.d $f0,-8880($1)
  400ad8:	a2 00 00 00 f9 11 01 00 	lui $1,4601
  400ae0:	37 00 00 00 58 dd 00 01 	s.d $f0,-8872($1)
  400ae8:	a2 00 00 00 f9 11 01 00 	lui $1,4601
  400af0:	37 00 00 00 60 dd 00 01 	s.d $f0,-8864($1)
  400af8:	a2 00 00 00 f9 11 01 00 	lui $1,4601
  400b00:	37 00 00 00 68 dd 00 01 	s.d $f0,-8856($1)
  400b08:	a2 00 00 00 f9 11 01 00 	lui $1,4601
  400b10:	37 00 00 00 70 dd 00 01 	s.d $f0,-8848($1)
  400b18:	a2 00 00 00 f9 11 01 00 	lui $1,4601
  400b20:	37 00 00 00 78 dd 00 01 	s.d $f0,-8840($1)
  400b28:	a2 00 00 00 f9 11 01 00 	lui $1,4601
  400b30:	37 00 00 00 80 dd 00 01 	s.d $f0,-8832($1)
  400b38:	a2 00 00 00 42 10 01 00 	lui $1,4162
  400b40:	37 00 00 00 18 2d 08 01 	s.d $f8,11544($1)
  400b48:	a2 00 00 00 42 10 01 00 	lui $1,4162
  400b50:	37 00 00 00 20 2d 06 01 	s.d $f6,11552($1)
  400b58:	a2 00 00 00 42 10 01 00 	lui $1,4162
  400b60:	37 00 00 00 28 2d 04 01 	s.d $f4,11560($1)
  400b68:	a2 00 00 00 42 10 01 00 	lui $1,4162
  400b70:	37 00 00 00 40 2d 1a 01 	s.d $f26,11584($1)
  400b78:	a2 00 00 00 42 10 01 00 	lui $1,4162
  400b80:	37 00 00 00 58 2d 18 01 	s.d $f24,11608($1)
  400b88:	a2 00 00 00 42 10 01 00 	lui $1,4162
  400b90:	37 00 00 00 70 2d 16 01 	s.d $f22,11632($1)
  400b98:	a2 00 00 00 42 10 01 00 	lui $1,4162
  400ba0:	37 00 00 00 38 2d 10 01 	s.d $f16,11576($1)
  400ba8:	a2 00 00 00 42 10 01 00 	lui $1,4162
  400bb0:	37 00 00 00 50 2d 0e 01 	s.d $f14,11600($1)
  400bb8:	a2 00 00 00 42 10 01 00 	lui $1,4162
  400bc0:	37 00 00 00 68 2d 0a 01 	s.d $f10,11624($1)
  400bc8:	a2 00 00 00 42 10 01 00 	lui $1,4162
  400bd0:	37 00 00 00 30 2d 14 01 	s.d $f20,11568($1)
  400bd8:	a2 00 00 00 42 10 01 00 	lui $1,4162
  400be0:	37 00 00 00 48 2d 12 01 	s.d $f18,11592($1)
  400be8:	a2 00 00 00 42 10 01 00 	lui $1,4162
  400bf0:	37 00 00 00 60 2d 0c 01 	s.d $f12,11616($1)
  400bf8:	a2 00 00 00 f9 11 01 00 	lui $1,4601
  400c00:	37 00 00 00 88 dd 00 01 	s.d $f0,-8824($1)
  400c08:	2b 00 00 00 28 80 12 1c 	l.d $f18,-32728($28)
  400c10:	77 00 00 00 00 08 12 02 	div.d $f8,$f2,$f18
  400c18:	2b 00 00 00 30 80 04 1c 	l.d $f4,-32720($28)
  400c20:	2b 00 00 00 38 80 18 1c 	l.d $f24,-32712($28)
  400c28:	2b 00 00 00 40 80 0c 1c 	l.d $f12,-32704($28)
  400c30:	2b 00 00 00 48 80 00 1c 	l.d $f0,-32696($28)
  400c38:	2b 00 00 00 50 80 16 1c 	l.d $f22,-32688($28)
  400c40:	2b 00 00 00 58 80 14 1c 	l.d $f20,-32680($28)
  400c48:	2b 00 00 00 60 80 0e 1c 	l.d $f14,-32672($28)
  400c50:	2b 00 00 00 68 80 10 1c 	l.d $f16,-32664($28)
  400c58:	2b 00 00 00 70 80 06 1c 	l.d $f6,-32656($28)
  400c60:	2b 00 00 00 18 80 0a 1c 	l.d $f10,-32744($28)
  400c68:	a2 00 00 00 f9 11 01 00 	lui $1,4601
  400c70:	37 00 00 00 90 dd 02 01 	s.d $f2,-8816($1)
  400c78:	a2 00 00 00 f9 11 01 00 	lui $1,4601
  400c80:	37 00 00 00 98 dd 02 01 	s.d $f2,-8808($1)
  400c88:	a2 00 00 00 f9 11 01 00 	lui $1,4601
  400c90:	37 00 00 00 a0 dd 02 01 	s.d $f2,-8800($1)
  400c98:	a2 00 00 00 f9 11 01 00 	lui $1,4601
  400ca0:	37 00 00 00 a8 dd 02 01 	s.d $f2,-8792($1)
  400ca8:	a2 00 00 00 f9 11 01 00 	lui $1,4601
  400cb0:	37 00 00 00 b0 dd 02 01 	s.d $f2,-8784($1)
  400cb8:	a2 00 00 00 42 10 01 00 	lui $1,4162
  400cc0:	38 00 00 00 08 2b 00 01 	dsz 11016($1)
  400cc8:	a2 00 00 00 42 10 01 00 	lui $1,4162
  400cd0:	38 00 00 00 30 2b 00 01 	dsz 11056($1)
  400cd8:	a2 00 00 00 42 10 01 00 	lui $1,4162
  400ce0:	38 00 00 00 10 2b 00 01 	dsz 11024($1)
  400ce8:	a2 00 00 00 42 10 01 00 	lui $1,4162
  400cf0:	38 00 00 00 38 2b 00 01 	dsz 11064($1)
  400cf8:	a2 00 00 00 42 10 01 00 	lui $1,4162
  400d00:	37 00 00 00 e0 2a 04 01 	s.d $f4,10976($1)
  400d08:	a2 00 00 00 42 10 01 00 	lui $1,4162
  400d10:	37 00 00 00 58 2b 12 01 	s.d $f18,11096($1)
  400d18:	a2 00 00 00 42 10 01 00 	lui $1,4162
  400d20:	37 00 00 00 80 2b 18 01 	s.d $f24,11136($1)
  400d28:	a2 00 00 00 42 10 01 00 	lui $1,4162
  400d30:	37 00 00 00 a8 2b 0c 01 	s.d $f12,11176($1)
  400d38:	a2 00 00 00 42 10 01 00 	lui $1,4162
  400d40:	37 00 00 00 d0 2b 00 01 	s.d $f0,11216($1)
  400d48:	a2 00 00 00 42 10 01 00 	lui $1,4162
  400d50:	37 00 00 00 f8 2b 16 01 	s.d $f22,11256($1)
  400d58:	a2 00 00 00 42 10 01 00 	lui $1,4162
  400d60:	37 00 00 00 20 2c 14 01 	s.d $f20,11296($1)
  400d68:	a2 00 00 00 42 10 01 00 	lui $1,4162
  400d70:	37 00 00 00 48 2c 0e 01 	s.d $f14,11336($1)
  400d78:	a2 00 00 00 42 10 01 00 	lui $1,4162
  400d80:	37 00 00 00 70 2c 00 01 	s.d $f0,11376($1)
  400d88:	a2 00 00 00 42 10 01 00 	lui $1,4162
  400d90:	37 00 00 00 98 2c 10 01 	s.d $f16,11416($1)
  400d98:	a2 00 00 00 42 10 01 00 	lui $1,4162
  400da0:	37 00 00 00 c0 2c 06 01 	s.d $f6,11456($1)
  400da8:	a2 00 00 00 42 10 01 00 	lui $1,4162
  400db0:	37 00 00 00 e8 2a 0a 01 	s.d $f10,10984($1)
  400db8:	37 00 00 00 78 00 08 02 	s.d $f8,120($2)
  400dc0:	a2 00 00 00 42 10 01 00 	lui $1,4162
  400dc8:	38 00 00 00 60 2b 00 01 	dsz 11104($1)
  400dd0:	2b 00 00 00 78 80 08 1c 	l.d $f8,-32648($28)
  400dd8:	2b 00 00 00 80 80 02 1c 	l.d $f2,-32640($28)
  400de0:	a2 00 00 00 42 10 01 00 	lui $1,4162
  400de8:	37 00 00 00 88 2b 0a 01 	s.d $f10,11144($1)
  400df0:	a2 00 00 00 42 10 01 00 	lui $1,4162
  400df8:	37 00 00 00 b0 2b 04 01 	s.d $f4,11184($1)
  400e00:	a2 00 00 00 42 10 01 00 	lui $1,4162
  400e08:	37 00 00 00 d8 2b 0c 01 	s.d $f12,11224($1)
  400e10:	a2 00 00 00 42 10 01 00 	lui $1,4162
  400e18:	37 00 00 00 00 2c 14 01 	s.d $f20,11264($1)
  400e20:	a2 00 00 00 42 10 01 00 	lui $1,4162
  400e28:	37 00 00 00 28 2c 0e 01 	s.d $f14,11304($1)
  400e30:	a2 00 00 00 42 10 01 00 	lui $1,4162
  400e38:	37 00 00 00 50 2c 16 01 	s.d $f22,11344($1)
  400e40:	a2 00 00 00 42 10 01 00 	lui $1,4162
  400e48:	37 00 00 00 78 2c 10 01 	s.d $f16,11384($1)
  400e50:	a2 00 00 00 42 10 01 00 	lui $1,4162
  400e58:	37 00 00 00 a0 2c 06 01 	s.d $f6,11424($1)
  400e60:	a2 00 00 00 42 10 01 00 	lui $1,4162
  400e68:	37 00 00 00 c8 2c 00 01 	s.d $f0,11464($1)
  400e70:	a2 00 00 00 42 10 01 00 	lui $1,4162
  400e78:	37 00 00 00 f0 2a 04 01 	s.d $f4,10992($1)
  400e80:	a2 00 00 00 42 10 01 00 	lui $1,4162
  400e88:	37 00 00 00 18 2b 04 01 	s.d $f4,11032($1)
  400e90:	a2 00 00 00 42 10 01 00 	lui $1,4162
  400e98:	38 00 00 00 40 2b 00 01 	dsz 11072($1)
  400ea0:	a2 00 00 00 42 10 01 00 	lui $1,4162
  400ea8:	38 00 00 00 68 2b 00 01 	dsz 11112($1)
  400eb0:	a2 00 00 00 42 10 01 00 	lui $1,4162
  400eb8:	38 00 00 00 90 2b 00 01 	dsz 11152($1)
  400ec0:	a2 00 00 00 42 10 01 00 	lui $1,4162
  400ec8:	37 00 00 00 b8 2b 04 01 	s.d $f4,11192($1)
  400ed0:	a2 00 00 00 42 10 01 00 	lui $1,4162
  400ed8:	37 00 00 00 e0 2b 0c 01 	s.d $f12,11232($1)
  400ee0:	a2 00 00 00 42 10 01 00 	lui $1,4162
  400ee8:	37 00 00 00 30 2c 0e 01 	s.d $f14,11312($1)
  400ef0:	a2 00 00 00 42 10 01 00 	lui $1,4162
  400ef8:	37 00 00 00 80 2c 06 01 	s.d $f6,11392($1)
  400f00:	a2 00 00 00 42 10 01 00 	lui $1,4162
  400f08:	37 00 00 00 a8 2c 00 01 	s.d $f0,11432($1)
  400f10:	a2 00 00 00 42 10 01 00 	lui $1,4162
  400f18:	37 00 00 00 d0 2c 10 01 	s.d $f16,11472($1)
  400f20:	a2 00 00 00 42 10 01 00 	lui $1,4162
  400f28:	37 00 00 00 f8 2a 04 01 	s.d $f4,11000($1)
  400f30:	a2 00 00 00 42 10 01 00 	lui $1,4162
  400f38:	37 00 00 00 20 2b 04 01 	s.d $f4,11040($1)
  400f40:	a2 00 00 00 42 10 01 00 	lui $1,4162
  400f48:	38 00 00 00 48 2b 00 01 	dsz 11080($1)
  400f50:	a2 00 00 00 42 10 01 00 	lui $1,4162
  400f58:	38 00 00 00 70 2b 00 01 	dsz 11120($1)
  400f60:	a2 00 00 00 42 10 01 00 	lui $1,4162
  400f68:	38 00 00 00 98 2b 00 01 	dsz 11160($1)
  400f70:	a2 00 00 00 42 10 01 00 	lui $1,4162
  400f78:	37 00 00 00 c0 2b 04 01 	s.d $f4,11200($1)
  400f80:	a2 00 00 00 42 10 01 00 	lui $1,4162
  400f88:	37 00 00 00 e8 2b 0c 01 	s.d $f12,11240($1)
  400f90:	a2 00 00 00 42 10 01 00 	lui $1,4162
  400f98:	37 00 00 00 10 2c 0e 01 	s.d $f14,11280($1)
  400fa0:	a2 00 00 00 42 10 01 00 	lui $1,4162
  400fa8:	37 00 00 00 08 2c 08 01 	s.d $f8,11272($1)
  400fb0:	a2 00 00 00 42 10 01 00 	lui $1,4162
  400fb8:	37 00 00 00 58 2c 02 01 	s.d $f2,11352($1)
  400fc0:	a2 00 00 00 42 10 01 00 	lui $1,4162
  400fc8:	37 00 00 00 38 2c 02 01 	s.d $f2,11320($1)
  400fd0:	a2 00 00 00 42 10 01 00 	lui $1,4162
  400fd8:	37 00 00 00 60 2c 08 01 	s.d $f8,11360($1)
  400fe0:	2b 00 00 00 88 80 0a 1c 	l.d $f10,-32632($28)
  400fe8:	2b 00 00 00 90 80 00 1c 	l.d $f0,-32624($28)
  400ff0:	a2 00 00 00 42 10 01 00 	lui $1,4162
  400ff8:	37 00 00 00 d8 2c 06 01 	s.d $f6,11480($1)
  401000:	a2 00 00 00 42 10 01 00 	lui $1,4162
  401008:	37 00 00 00 00 2b 18 01 	s.d $f24,11008($1)
  401010:	a2 00 00 00 42 10 01 00 	lui $1,4162
  401018:	37 00 00 00 28 2b 12 01 	s.d $f18,11048($1)
  401020:	a2 00 00 00 42 10 01 00 	lui $1,4162
  401028:	37 00 00 00 50 2b 0c 01 	s.d $f12,11088($1)
  401030:	a2 00 00 00 42 10 01 00 	lui $1,4162
  401038:	37 00 00 00 78 2b 04 01 	s.d $f4,11128($1)
  401040:	a2 00 00 00 42 10 01 00 	lui $1,4162
  401048:	37 00 00 00 c8 2b 10 01 	s.d $f16,11208($1)
  401050:	a2 00 00 00 42 10 01 00 	lui $1,4162
  401058:	37 00 00 00 f0 2b 06 01 	s.d $f6,11248($1)
  401060:	a2 00 00 00 42 10 01 00 	lui $1,4162
  401068:	37 00 00 00 18 2c 02 01 	s.d $f2,11288($1)
  401070:	a2 00 00 00 42 10 01 00 	lui $1,4162
  401078:	37 00 00 00 40 2c 08 01 	s.d $f8,11328($1)
  401080:	a2 00 00 00 42 10 01 00 	lui $1,4162
  401088:	37 00 00 00 68 2c 0e 01 	s.d $f14,11368($1)
  401090:	a2 00 00 00 42 10 01 00 	lui $1,4162
  401098:	37 00 00 00 b8 2c 06 01 	s.d $f6,11448($1)
  4010a0:	a2 00 00 00 42 10 01 00 	lui $1,4162
  4010a8:	37 00 00 00 88 2c 0a 01 	s.d $f10,11400($1)
  4010b0:	a2 00 00 00 42 10 01 00 	lui $1,4162
  4010b8:	37 00 00 00 b0 2c 00 01 	s.d $f0,11440($1)
  4010c0:	a2 00 00 00 42 10 01 00 	lui $1,4162
  4010c8:	37 00 00 00 a0 2b 00 01 	s.d $f0,11168($1)
  4010d0:	a2 00 00 00 42 10 01 00 	lui $1,4162
  4010d8:	37 00 00 00 90 2c 00 01 	s.d $f0,11408($1)
  4010e0:	a2 00 00 00 42 10 01 00 	lui $1,4162
  4010e8:	37 00 00 00 e0 2c 0a 01 	s.d $f10,11488($1)
  4010f0:	02 00 00 00 6a 04 10 00 	jal 4011a8 <setbv_>
  4010f8:	02 00 00 00 ec 05 10 00 	jal 4017b0 <setiv_>
  401100:	02 00 00 00 06 10 10 00 	jal 404018 <erhs_>
  401108:	02 00 00 00 f4 51 10 00 	jal 4147d0 <ssor_>
  401110:	02 00 00 00 90 25 10 00 	jal 409640 <error_>
  401118:	02 00 00 00 96 3c 10 00 	jal 40f258 <pintgr_>
  401120:	a2 00 00 00 f9 11 04 00 	lui $4,4601
  401128:	43 00 00 00 e0 dc 04 04 	addiu $4,$4,-8992
  401130:	43 00 00 00 28 00 05 04 	addiu $5,$4,40
  401138:	43 00 00 00 50 00 06 04 	addiu $6,$4,80
  401140:	02 00 00 00 46 5a 10 00 	jal 416918 <verify_>
  401148:	43 00 00 00 14 80 04 1c 	addiu $4,$28,-32748
  401150:	42 00 00 00 00 05 00 00 	addu $5,$0,$0
  401158:	02 00 00 00 d8 6a 10 00 	jal 41ab60 <s_stop>
  401160:	42 00 00 00 00 02 00 00 	addu $2,$0,$0
  401168:	28 00 00 00 14 00 1f 1d 	lw $31,20($29)
  401170:	28 00 00 00 10 00 10 1d 	lw $16,16($29)
  401178:	2b 00 00 00 30 00 1a 1d 	l.d $f26,48($29)
  401180:	2b 00 00 00 28 00 18 1d 	l.d $f24,40($29)
  401188:	2b 00 00 00 20 00 16 1d 	l.d $f22,32($29)
  401190:	2b 00 00 00 18 00 14 1d 	l.d $f20,24($29)
  401198:	43 00 00 00 38 00 1d 1d 	addiu $29,$29,56
  4011a0:	03 00 00 00 00 00 00 1f 	jr $31

004011a8 <setbv_>:
  4011a8:	43 00 00 00 c0 ff 1d 1d 	addiu $29,$29,-64
  4011b0:	a2 00 00 00 42 10 03 00 	lui $3,4162
  4011b8:	43 00 00 00 f4 2c 03 03 	addiu $3,$3,11508
  4011c0:	34 00 00 00 3c 00 1f 1d 	sw $31,60($29)
  4011c8:	34 00 00 00 38 00 16 1d 	sw $22,56($29)
  4011d0:	34 00 00 00 34 00 15 1d 	sw $21,52($29)
  4011d8:	34 00 00 00 30 00 14 1d 	sw $20,48($29)
  4011e0:	34 00 00 00 2c 00 13 1d 	sw $19,44($29)
  4011e8:	34 00 00 00 28 00 12 1d 	sw $18,40($29)
  4011f0:	34 00 00 00 24 00 11 1d 	sw $17,36($29)
  4011f8:	34 00 00 00 20 00 10 1d 	sw $16,32($29)
  401200:	28 00 00 00 00 00 13 03 	lw $19,0($3)
  401208:	43 00 00 00 01 00 02 00 	addiu $2,$0,1
  401210:	34 00 00 00 14 00 02 1d 	sw $2,20($29)
  401218:	07 00 00 00 64 00 00 13 	blez $19,4013b0 <setbv_+0x208>
  401220:	43 00 00 00 01 00 15 00 	addiu $21,$0,1
  401228:	43 00 00 00 14 00 11 1d 	addiu $17,$29,20
  401230:	a2 00 00 00 00 10 14 00 	lui $20,4096
  401238:	43 00 00 00 e8 ad 14 14 	addiu $20,$20,-21016
  401240:	43 00 00 00 04 00 12 03 	addiu $18,$3,4
  401248:	a2 00 00 00 42 10 10 00 	lui $16,4162
  401250:	28 00 00 00 f0 2c 10 10 	lw $16,11504($16)
  401258:	34 00 00 00 10 00 15 1d 	sw $21,16($29)
  401260:	07 00 00 00 48 00 00 10 	blez $16,401388 <setbv_+0x1e0>
  401268:	43 00 00 00 10 00 04 1d 	addiu $4,$29,16
  401270:	28 00 00 00 14 00 07 1d 	lw $7,20($29)
  401278:	42 00 00 00 00 05 11 00 	addu $5,$0,$17
  401280:	43 00 00 00 04 80 06 1c 	addiu $6,$28,-32764
  401288:	28 00 00 00 10 00 03 1d 	lw $3,16($29)
  401290:	43 00 00 00 21 00 07 07 	addiu $7,$7,33
  401298:	55 00 00 00 05 02 07 00 	sll $2,$7,0x5
  4012a0:	42 00 00 00 00 02 07 02 	addu $2,$2,$7
  4012a8:	42 00 00 00 00 03 02 03 	addu $3,$3,$2
  4012b0:	55 00 00 00 02 07 03 00 	sll $7,$3,0x2
  4012b8:	42 00 00 00 00 07 03 07 	addu $7,$7,$3
  4012c0:	55 00 00 00 03 07 07 00 	sll $7,$7,0x3
  4012c8:	42 00 00 00 00 07 14 07 	addu $7,$7,$20
  4012d0:	02 00 00 00 88 24 10 00 	jal 409220 <exact_>
  4012d8:	43 00 00 00 10 00 04 1d 	addiu $4,$29,16
  4012e0:	42 00 00 00 00 05 11 00 	addu $5,$0,$17
  4012e8:	28 00 00 00 00 00 03 12 	lw $3,0($18)
  4012f0:	42 00 00 00 00 06 12 00 	addu $6,$0,$18
  4012f8:	28 00 00 00 14 00 07 1d 	lw $7,20($29)
  401300:	55 00 00 00 05 02 03 00 	sll $2,$3,0x5
  401308:	42 00 00 00 00 02 03 02 	addu $2,$2,$3
  401310:	42 00 00 00 00 07 02 07 	addu $7,$7,$2
  401318:	28 00 00 00 10 00 03 1d 	lw $3,16($29)
  401320:	55 00 00 00 05 02 07 00 	sll $2,$7,0x5
  401328:	42 00 00 00 00 02 07 02 	addu $2,$2,$7
  401330:	42 00 00 00 00 03 02 03 	addu $3,$3,$2
  401338:	55 00 00 00 02 07 03 00 	sll $7,$3,0x2
  401340:	42 00 00 00 00 07 03 07 	addu $7,$7,$3
  401348:	55 00 00 00 03 07 07 00 	sll $7,$7,0x3
  401350:	42 00 00 00 00 07 14 07 	addu $7,$7,$20
  401358:	02 00 00 00 88 24 10 00 	jal 409220 <exact_>
  401360:	28 00 00 00 10 00 02 1d 	lw $2,16($29)
  401368:	43 00 00 00 01 00 02 02 	addiu $2,$2,1
  401370:	34 00 00 00 10 00 02 1d 	sw $2,16($29)
  401378:	5b 00 00 00 00 02 02 10 	slt $2,$16,$2
  401380:	05 00 00 00 b8 ff 00 02 	beq $2,$0,401268 <setbv_+0xc0>
  401388:	28 00 00 00 14 00 02 1d 	lw $2,20($29)
  401390:	43 00 00 00 01 00 02 02 	addiu $2,$2,1
  401398:	34 00 00 00 14 00 02 1d 	sw $2,20($29)
  4013a0:	5b 00 00 00 00 02 02 13 	slt $2,$19,$2
  4013a8:	05 00 00 00 a6 ff 00 02 	beq $2,$0,401248 <setbv_+0xa0>
  4013b0:	a2 00 00 00 42 10 05 00 	lui $5,4162
  4013b8:	43 00 00 00 f8 2c 05 05 	addiu $5,$5,11512
  4013c0:	28 00 00 00 00 00 13 05 	lw $19,0($5)
  4013c8:	43 00 00 00 01 00 02 00 	addiu $2,$0,1
  4013d0:	34 00 00 00 18 00 02 1d 	sw $2,24($29)
  4013d8:	07 00 00 00 68 00 00 13 	blez $19,401580 <setbv_+0x3d8>
  4013e0:	43 00 00 00 01 00 15 00 	addiu $21,$0,1
  4013e8:	43 00 00 00 18 00 11 1d 	addiu $17,$29,24
  4013f0:	a2 00 00 00 00 10 14 00 	lui $20,4096
  4013f8:	43 00 00 00 e8 ad 14 14 	addiu $20,$20,-21016
  401400:	43 00 00 00 fc ff 12 05 	addiu $18,$5,-4
  401408:	a2 00 00 00 42 10 10 00 	lui $16,4162
  401410:	28 00 00 00 f0 2c 10 10 	lw $16,11504($16)
  401418:	34 00 00 00 10 00 15 1d 	sw $21,16($29)
  401420:	07 00 00 00 4c 00 00 10 	blez $16,401558 <setbv_+0x3b0>
  401428:	43 00 00 00 10 00 04 1d 	addiu $4,$29,16
  401430:	28 00 00 00 18 00 02 1d 	lw $2,24($29)
  401438:	43 00 00 00 04 80 05 1c 	addiu $5,$28,-32764
  401440:	42 00 00 00 00 06 11 00 	addu $6,$0,$17
  401448:	28 00 00 00 10 00 08 1d 	lw $8,16($29)
  401450:	55 00 00 00 05 03 02 00 	sll $3,$2,0x5
  401458:	42 00 00 00 00 03 02 03 	addu $3,$3,$2
  401460:	43 00 00 00 01 00 03 03 	addiu $3,$3,1
  401468:	55 00 00 00 05 02 03 00 	sll $2,$3,0x5
  401470:	42 00 00 00 00 02 03 02 	addu $2,$2,$3
  401478:	42 00 00 00 00 08 02 08 	addu $8,$8,$2
  401480:	55 00 00 00 02 07 08 00 	sll $7,$8,0x2
  401488:	42 00 00 00 00 07 08 07 	addu $7,$7,$8
  401490:	55 00 00 00 03 07 07 00 	sll $7,$7,0x3
  401498:	42 00 00 00 00 07 14 07 	addu $7,$7,$20
  4014a0:	02 00 00 00 88 24 10 00 	jal 409220 <exact_>
  4014a8:	43 00 00 00 10 00 04 1d 	addiu $4,$29,16
  4014b0:	42 00 00 00 00 05 12 00 	addu $5,$0,$18
  4014b8:	28 00 00 00 18 00 03 1d 	lw $3,24($29)
  4014c0:	42 00 00 00 00 06 11 00 	addu $6,$0,$17
  4014c8:	28 00 00 00 00 00 07 12 	lw $7,0($18)
  4014d0:	55 00 00 00 05 02 03 00 	sll $2,$3,0x5
  4014d8:	42 00 00 00 00 02 03 02 	addu $2,$2,$3
  4014e0:	42 00 00 00 00 07 02 07 	addu $7,$7,$2
  4014e8:	28 00 00 00 10 00 03 1d 	lw $3,16($29)
  4014f0:	55 00 00 00 05 02 07 00 	sll $2,$7,0x5
  4014f8:	42 00 00 00 00 02 07 02 	addu $2,$2,$7
  401500:	42 00 00 00 00 03 02 03 	addu $3,$3,$2
  401508:	55 00 00 00 02 07 03 00 	sll $7,$3,0x2
  401510:	42 00 00 00 00 07 03 07 	addu $7,$7,$3
  401518:	55 00 00 00 03 07 07 00 	sll $7,$7,0x3
  401520:	42 00 00 00 00 07 14 07 	addu $7,$7,$20
  401528:	02 00 00 00 88 24 10 00 	jal 409220 <exact_>
  401530:	28 00 00 00 10 00 02 1d 	lw $2,16($29)
  401538:	43 00 00 00 01 00 02 02 	addiu $2,$2,1
  401540:	34 00 00 00 10 00 02 1d 	sw $2,16($29)
  401548:	5b 00 00 00 00 02 02 10 	slt $2,$16,$2
  401550:	05 00 00 00 b4 ff 00 02 	beq $2,$0,401428 <setbv_+0x280>
  401558:	28 00 00 00 18 00 02 1d 	lw $2,24($29)
  401560:	43 00 00 00 01 00 02 02 	addiu $2,$2,1
  401568:	34 00 00 00 18 00 02 1d 	sw $2,24($29)
  401570:	5b 00 00 00 00 02 02 13 	slt $2,$19,$2
  401578:	05 00 00 00 a2 ff 00 02 	beq $2,$0,401408 <setbv_+0x260>
  401580:	a2 00 00 00 42 10 03 00 	lui $3,4162
  401588:	43 00 00 00 f8 2c 03 03 	addiu $3,$3,11512
  401590:	28 00 00 00 00 00 13 03 	lw $19,0($3)
  401598:	43 00 00 00 01 00 02 00 	addiu $2,$0,1
  4015a0:	34 00 00 00 18 00 02 1d 	sw $2,24($29)
  4015a8:	07 00 00 00 6a 00 00 13 	blez $19,401758 <setbv_+0x5b0>
  4015b0:	43 00 00 00 01 00 16 00 	addiu $22,$0,1
  4015b8:	43 00 00 00 14 00 12 1d 	addiu $18,$29,20
  4015c0:	43 00 00 00 18 00 11 1d 	addiu $17,$29,24
  4015c8:	a2 00 00 00 00 10 15 00 	lui $21,4096
  4015d0:	43 00 00 00 e8 ad 15 15 	addiu $21,$21,-21016
  4015d8:	43 00 00 00 f8 ff 14 03 	addiu $20,$3,-8
  4015e0:	a2 00 00 00 42 10 10 00 	lui $16,4162
  4015e8:	28 00 00 00 f4 2c 10 10 	lw $16,11508($16)
  4015f0:	34 00 00 00 14 00 16 1d 	sw $22,20($29)
  4015f8:	07 00 00 00 4c 00 00 10 	blez $16,401730 <setbv_+0x588>
  401600:	43 00 00 00 04 80 04 1c 	addiu $4,$28,-32764
  401608:	42 00 00 00 00 05 12 00 	addu $5,$0,$18
  401610:	28 00 00 00 18 00 07 1d 	lw $7,24($29)
  401618:	42 00 00 00 00 06 11 00 	addu $6,$0,$17
  401620:	28 00 00 00 14 00 03 1d 	lw $3,20($29)
  401628:	55 00 00 00 05 02 07 00 	sll $2,$7,0x5
  401630:	42 00 00 00 00 02 07 02 	addu $2,$2,$7
  401638:	42 00 00 00 00 03 02 03 	addu $3,$3,$2
  401640:	55 00 00 00 05 02 03 00 	sll $2,$3,0x5
  401648:	42 00 00 00 00 02 03 02 	addu $2,$2,$3
  401650:	43 00 00 00 01 00 02 02 	addiu $2,$2,1
  401658:	55 00 00 00 02 07 02 00 	sll $7,$2,0x2
  401660:	42 00 00 00 00 07 02 07 	addu $7,$7,$2
  401668:	55 00 00 00 03 07 07 00 	sll $7,$7,0x3
  401670:	42 00 00 00 00 07 15 07 	addu $7,$7,$21
  401678:	02 00 00 00 88 24 10 00 	jal 409220 <exact_>
  401680:	42 00 00 00 00 04 14 00 	addu $4,$0,$20
  401688:	42 00 00 00 00 05 12 00 	addu $5,$0,$18
  401690:	28 00 00 00 18 00 03 1d 	lw $3,24($29)
  401698:	42 00 00 00 00 06 11 00 	addu $6,$0,$17
  4016a0:	28 00 00 00 14 00 07 1d 	lw $7,20($29)
  4016a8:	55 00 00 00 05 02 03 00 	sll $2,$3,0x5
  4016b0:	42 00 00 00 00 02 03 02 	addu $2,$2,$3
  4016b8:	42 00 00 00 00 07 02 07 	addu $7,$7,$2
  4016c0:	28 00 00 00 00 00 03 14 	lw $3,0($20)
  4016c8:	55 00 00 00 05 02 07 00 	sll $2,$7,0x5
  4016d0:	42 00 00 00 00 02 07 02 	addu $2,$2,$7
  4016d8:	42 00 00 00 00 03 02 03 	addu $3,$3,$2
  4016e0:	55 00 00 00 02 07 03 00 	sll $7,$3,0x2
  4016e8:	42 00 00 00 00 07 03 07 	addu $7,$7,$3
  4016f0:	55 00 00 00 03 07 07 00 	sll $7,$7,0x3
  4016f8:	42 00 00 00 00 07 15 07 	addu $7,$7,$21
  401700:	02 00 00 00 88 24 10 00 	jal 409220 <exact_>
  401708:	28 00 00 00 14 00 02 1d 	lw $2,20($29)
  401710:	43 00 00 00 01 00 02 02 	addiu $2,$2,1
  401718:	34 00 00 00 14 00 02 1d 	sw $2,20($29)
  401720:	5b 00 00 00 00 02 02 10 	slt $2,$16,$2
  401728:	05 00 00 00 b4 ff 00 02 	beq $2,$0,401600 <setbv_+0x458>
  401730:	28 00 00 00 18 00 02 1d 	lw $2,24($29)
  401738:	43 00 00 00 01 00 02 02 	addiu $2,$2,1
  401740:	34 00 00 00 18 00 02 1d 	sw $2,24($29)
  401748:	5b 00 00 00 00 02 02 13 	slt $2,$19,$2
  401750:	05 00 00 00 a2 ff 00 02 	beq $2,$0,4015e0 <setbv_+0x438>
  401758:	42 00 00 00 00 02 00 00 	addu $2,$0,$0
  401760:	28 00 00 00 3c 00 1f 1d 	lw $31,60($29)
  401768:	28 00 00 00 38 00 16 1d 	lw $22,56($29)
  401770:	28 00 00 00 34 00 15 1d 	lw $21,52($29)
  401778:	28 00 00 00 30 00 14 1d 	lw $20,48($29)
  401780:	28 00 00 00 2c 00 13 1d 	lw $19,44($29)
  401788:	28 00 00 00 28 00 12 1d 	lw $18,40($29)
  401790:	28 00 00 00 24 00 11 1d 	lw $17,36($29)
  401798:	28 00 00 00 20 00 10 1d 	lw $16,32($29)
  4017a0:	43 00 00 00 40 00 1d 1d 	addiu $29,$29,64
  4017a8:	03 00 00 00 00 00 00 1f 	jr $31

004017b0 <setiv_>:
  4017b0:	43 00 00 00 b8 ff 1d 1d 	addiu $29,$29,-72
  4017b8:	a2 00 00 00 42 10 03 00 	lui $3,4162
  4017c0:	43 00 00 00 f8 2c 03 03 	addiu $3,$3,11512
  4017c8:	34 00 00 00 28 00 1e 1d 	sw $30,40($29)
  4017d0:	34 00 00 00 24 00 17 1d 	sw $23,36($29)
  4017d8:	34 00 00 00 20 00 16 1d 	sw $22,32($29)
  4017e0:	34 00 00 00 1c 00 15 1d 	sw $21,28($29)
  4017e8:	34 00 00 00 18 00 14 1d 	sw $20,24($29)
  4017f0:	34 00 00 00 14 00 13 1d 	sw $19,20($29)
  4017f8:	34 00 00 00 10 00 12 1d 	sw $18,16($29)
  401800:	34 00 00 00 0c 00 11 1d 	sw $17,12($29)
  401808:	34 00 00 00 08 00 10 1d 	sw $16,8($29)
  401810:	37 00 00 00 40 00 18 1d 	s.d $f24,64($29)
  401818:	37 00 00 00 38 00 16 1d 	s.d $f22,56($29)
  401820:	37 00 00 00 30 00 14 1d 	s.d $f20,48($29)
  401828:	28 00 00 00 00 00 02 03 	lw $2,0($3)
  401830:	43 00 00 00 02 00 19 00 	addiu $25,$0,2
  401838:	43 00 00 00 ff ff 02 02 	addiu $2,$2,-1
  401840:	34 00 00 00 00 00 02 1d 	sw $2,0($29)
  401848:	5c 00 00 00 02 00 02 02 	slti $2,$2,2
  401850:	06 00 00 00 30 01 00 02 	bne $2,$0,401d18 <setiv_+0x568>
  401858:	42 00 00 00 00 17 03 00 	addu $23,$0,$3
  401860:	43 00 00 00 fc ff 16 17 	addiu $22,$23,-4
  401868:	2b 00 00 00 98 80 18 1c 	l.d $f24,-32616($28)
  401870:	a2 00 00 00 00 10 14 00 	lui $20,4096
  401878:	43 00 00 00 08 ae 14 14 	addiu $20,$20,-20984
  401880:	43 00 00 00 d8 ff 0d 14 	addiu $13,$20,-40
  401888:	43 00 00 00 00 05 1e 14 	addiu $30,$20,1280
  401890:	43 00 00 00 42 00 13 00 	addiu $19,$0,66
  401898:	28 00 00 00 00 00 03 17 	lw $3,0($23)
  4018a0:	43 00 00 00 ff ff 02 19 	addiu $2,$25,-1
  4018a8:	a5 00 00 00 00 00 02 02 	mtc1 $2,$f2
  4018b0:	83 00 00 00 00 02 00 02 	cvt.d.w $f2,$f2
  4018b8:	43 00 00 00 ff ff 03 03 	addiu $3,$3,-1
  4018c0:	a5 00 00 00 00 00 03 00 	mtc1 $3,$f0
  4018c8:	83 00 00 00 00 00 00 00 	cvt.d.w $f0,$f0
  4018d0:	77 00 00 00 00 16 00 02 	div.d $f22,$f2,$f0
  4018d8:	28 00 00 00 fc ff 02 17 	lw $2,-4($23)
  4018e0:	43 00 00 00 02 00 07 00 	addiu $7,$0,2
  4018e8:	43 00 00 00 ff ff 12 02 	addiu $18,$2,-1
  4018f0:	5c 00 00 00 02 00 02 12 	slti $2,$18,2
  4018f8:	06 00 00 00 fc 00 00 02 	bne $2,$0,401cf0 <setiv_+0x540>
  401900:	42 00 00 00 00 08 13 00 	addu $8,$0,$19
  401908:	43 00 00 00 42 00 0e 00 	addiu $14,$0,66
  401910:	28 00 00 00 00 00 03 16 	lw $3,0($22)
  401918:	43 00 00 00 ff ff 02 07 	addiu $2,$7,-1
  401920:	a5 00 00 00 00 00 02 02 	mtc1 $2,$f2
  401928:	83 00 00 00 00 02 00 02 	cvt.d.w $f2,$f2
  401930:	43 00 00 00 ff ff 03 03 	addiu $3,$3,-1
  401938:	a5 00 00 00 00 00 03 00 	mtc1 $3,$f0
  401940:	83 00 00 00 00 00 00 00 	cvt.d.w $f0,$f0
  401948:	77 00 00 00 00 14 00 02 	div.d $f20,$f2,$f0
  401950:	28 00 00 00 fc ff 02 16 	lw $2,-4($22)
  401958:	43 00 00 00 02 00 05 00 	addiu $5,$0,2
  401960:	43 00 00 00 ff ff 18 02 	addiu $24,$2,-1
  401968:	5c 00 00 00 02 00 02 18 	slti $2,$24,2
  401970:	06 00 00 00 d6 00 00 02 	bne $2,$0,401cd0 <setiv_+0x520>
  401978:	42 00 00 00 00 0f 07 08 	addu $15,$8,$7
  401980:	55 00 00 00 05 11 0f 00 	sll $17,$15,0x5
  401988:	a2 00 00 00 42 10 03 00 	lui $3,4162
  401990:	28 00 00 00 f0 2c 03 03 	lw $3,11504($3)
  401998:	43 00 00 00 ff ff 02 05 	addiu $2,$5,-1
  4019a0:	a5 00 00 00 00 00 02 02 	mtc1 $2,$f2
  4019a8:	83 00 00 00 00 02 00 02 	cvt.d.w $f2,$f2
  4019b0:	43 00 00 00 ff ff 03 03 	addiu $3,$3,-1
  4019b8:	a5 00 00 00 00 00 03 00 	mtc1 $3,$f0
  4019c0:	83 00 00 00 00 00 00 00 	cvt.d.w $f0,$f0
  4019c8:	77 00 00 00 00 0c 00 02 	div.d $f12,$f2,$f0
  4019d0:	43 00 00 00 01 00 04 00 	addiu $4,$0,1
  4019d8:	42 00 00 00 00 06 0f 11 	addu $6,$17,$15
  4019e0:	55 00 00 00 02 02 06 00 	sll $2,$6,0x2
  4019e8:	42 00 00 00 00 0c 06 02 	addu $12,$2,$6
  4019f0:	55 00 00 00 05 02 08 00 	sll $2,$8,0x5
  4019f8:	73 00 00 00 00 12 14 18 	sub.d $f18,$f24,$f20
  401a00:	42 00 00 00 00 02 08 02 	addu $2,$2,$8
  401a08:	42 00 00 00 00 02 05 02 	addu $2,$2,$5
  401a10:	a2 00 00 00 00 10 10 00 	lui $16,4096
  401a18:	43 00 00 00 08 58 10 10 	addiu $16,$16,22536
  401a20:	73 00 00 00 00 10 16 18 	sub.d $f16,$f24,$f22
  401a28:	55 00 00 00 02 03 02 00 	sll $3,$2,0x2
  401a30:	42 00 00 00 00 0b 02 03 	addu $11,$3,$2
  401a38:	42 00 00 00 00 03 05 0e 	addu $3,$14,$5
  401a40:	55 00 00 00 02 02 03 00 	sll $2,$3,0x2
  401a48:	42 00 00 00 00 0a 03 02 	addu $10,$2,$3
  401a50:	42 00 00 00 00 03 05 06 	addu $3,$6,$5
  401a58:	55 00 00 00 02 02 03 00 	sll $2,$3,0x2
  401a60:	42 00 00 00 00 09 03 02 	addu $9,$2,$3
  401a68:	73 00 00 00 00 0e 0c 18 	sub.d $f14,$f24,$f12
  401a70:	42 00 00 00 00 02 04 0c 	addu $2,$12,$4
  401a78:	55 00 00 00 03 02 02 00 	sll $2,$2,0x3
  401a80:	a2 00 00 00 42 10 03 00 	lui $3,4162
  401a88:	28 00 00 00 f0 2c 03 03 	lw $3,11504($3)
  401a90:	42 00 00 00 00 02 14 02 	addu $2,$2,$20
  401a98:	2b 00 00 00 00 00 08 02 	l.d $f8,0($2)
  401aa0:	42 00 00 00 00 03 03 06 	addu $3,$6,$3
  401aa8:	55 00 00 00 02 02 03 00 	sll $2,$3,0x2
  401ab0:	42 00 00 00 00 02 03 02 	addu $2,$2,$3
  401ab8:	42 00 00 00 00 02 04 02 	addu $2,$2,$4
  401ac0:	55 00 00 00 03 02 02 00 	sll $2,$2,0x3
  401ac8:	75 00 00 00 00 08 08 0e 	mul.d $f8,$f14,$f8
  401ad0:	42 00 00 00 00 02 0d 02 	addu $2,$2,$13
  401ad8:	2b 00 00 00 00 00 0a 02 	l.d $f10,0($2)
  401ae0:	a2 00 00 00 42 10 03 00 	lui $3,4162
  401ae8:	28 00 00 00 f4 2c 03 03 	lw $3,11508($3)
  401af0:	42 00 00 00 00 02 04 0b 	addu $2,$11,$4
  401af8:	55 00 00 00 03 02 02 00 	sll $2,$2,0x3
  401b00:	42 00 00 00 00 02 1e 02 	addu $2,$2,$30
  401b08:	75 00 00 00 00 0a 0a 0c 	mul.d $f10,$f12,$f10
  401b10:	2b 00 00 00 00 00 02 02 	l.d $f2,0($2)
  401b18:	42 00 00 00 00 03 03 08 	addu $3,$8,$3
  401b20:	55 00 00 00 05 02 03 00 	sll $2,$3,0x5
  401b28:	42 00 00 00 00 02 03 02 	addu $2,$2,$3
  401b30:	42 00 00 00 00 02 05 02 	addu $2,$2,$5
  401b38:	55 00 00 00 02 03 02 00 	sll $3,$2,0x2
  401b40:	75 00 00 00 00 02 02 12 	mul.d $f2,$f18,$f2
  401b48:	42 00 00 00 00 03 02 03 	addu $3,$3,$2
  401b50:	42 00 00 00 00 03 04 03 	addu $3,$3,$4
  401b58:	55 00 00 00 03 03 03 00 	sll $3,$3,0x3
  401b60:	42 00 00 00 00 03 0d 03 	addu $3,$3,$13
  401b68:	2b 00 00 00 00 00 04 03 	l.d $f4,0($3)
  401b70:	75 00 00 00 00 04 04 14 	mul.d $f4,$f20,$f4
  401b78:	42 00 00 00 00 02 04 0a 	addu $2,$10,$4
  401b80:	55 00 00 00 03 02 02 00 	sll $2,$2,0x3
  401b88:	42 00 00 00 00 02 10 02 	addu $2,$2,$16
  401b90:	2b 00 00 00 00 00 06 02 	l.d $f6,0($2)
  401b98:	a2 00 00 00 42 10 03 00 	lui $3,4162
  401ba0:	28 00 00 00 f8 2c 03 03 	lw $3,11512($3)
  401ba8:	75 00 00 00 00 06 06 10 	mul.d $f6,$f16,$f6
  401bb0:	55 00 00 00 05 02 03 00 	sll $2,$3,0x5
  401bb8:	42 00 00 00 00 02 03 02 	addu $2,$2,$3
  401bc0:	42 00 00 00 00 02 07 02 	addu $2,$2,$7
  401bc8:	55 00 00 00 05 03 02 00 	sll $3,$2,0x5
  401bd0:	42 00 00 00 00 03 02 03 	addu $3,$3,$2
  401bd8:	42 00 00 00 00 03 05 03 	addu $3,$3,$5
  401be0:	55 00 00 00 02 02 03 00 	sll $2,$3,0x2
  401be8:	42 00 00 00 00 02 03 02 	addu $2,$2,$3
  401bf0:	42 00 00 00 00 02 04 02 	addu $2,$2,$4
  401bf8:	55 00 00 00 03 02 02 00 	sll $2,$2,0x3
  401c00:	42 00 00 00 00 02 0d 02 	addu $2,$2,$13
  401c08:	2b 00 00 00 00 00 00 02 	l.d $f0,0($2)
  401c10:	71 00 00 00 00 08 0a 08 	add.d $f8,$f8,$f10
  401c18:	75 00 00 00 00 00 00 16 	mul.d $f0,$f22,$f0
  401c20:	71 00 00 00 00 02 04 02 	add.d $f2,$f2,$f4
  401c28:	75 00 00 00 00 04 02 08 	mul.d $f4,$f8,$f2
  401c30:	71 00 00 00 00 06 00 06 	add.d $f6,$f6,$f0
  401c38:	75 00 00 00 00 00 06 02 	mul.d $f0,$f2,$f6
  401c40:	71 00 00 00 00 02 02 08 	add.d $f2,$f8,$f2
  401c48:	71 00 00 00 00 02 06 02 	add.d $f2,$f2,$f6
  401c50:	75 00 00 00 00 08 08 06 	mul.d $f8,$f6,$f8
  401c58:	73 00 00 00 00 02 04 02 	sub.d $f2,$f2,$f4
  401c60:	73 00 00 00 00 02 00 02 	sub.d $f2,$f2,$f0
  401c68:	75 00 00 00 00 04 06 04 	mul.d $f4,$f4,$f6
  401c70:	73 00 00 00 00 02 08 02 	sub.d $f2,$f2,$f8
  401c78:	42 00 00 00 00 02 04 09 	addu $2,$9,$4
  401c80:	71 00 00 00 00 02 04 02 	add.d $f2,$f2,$f4
  401c88:	43 00 00 00 01 00 04 04 	addiu $4,$4,1
  401c90:	55 00 00 00 03 02 02 00 	sll $2,$2,0x3
  401c98:	42 00 00 00 00 02 0d 02 	addu $2,$2,$13
  401ca0:	37 00 00 00 00 00 02 02 	s.d $f2,0($2)
  401ca8:	5c 00 00 00 06 00 02 04 	slti $2,$4,6
  401cb0:	06 00 00 00 6e ff 00 02 	bne $2,$0,401a70 <setiv_+0x2c0>
  401cb8:	43 00 00 00 01 00 05 05 	addiu $5,$5,1
  401cc0:	5b 00 00 00 00 02 05 18 	slt $2,$24,$5
  401cc8:	05 00 00 00 2e ff 00 02 	beq $2,$0,401988 <setiv_+0x1d8>
  401cd0:	43 00 00 00 21 00 0e 0e 	addiu $14,$14,33
  401cd8:	43 00 00 00 01 00 07 07 	addiu $7,$7,1
  401ce0:	5b 00 00 00 00 02 07 12 	slt $2,$18,$7
  401ce8:	05 00 00 00 08 ff 00 02 	beq $2,$0,401910 <setiv_+0x160>
  401cf0:	28 00 00 00 00 00 15 1d 	lw $21,0($29)
  401cf8:	43 00 00 00 21 00 13 13 	addiu $19,$19,33
  401d00:	43 00 00 00 01 00 19 19 	addiu $25,$25,1
  401d08:	5b 00 00 00 00 02 19 15 	slt $2,$21,$25
  401d10:	05 00 00 00 e0 fe 00 02 	beq $2,$0,401898 <setiv_+0xe8>
  401d18:	42 00 00 00 00 02 00 00 	addu $2,$0,$0
  401d20:	28 00 00 00 28 00 1e 1d 	lw $30,40($29)
  401d28:	28 00 00 00 24 00 17 1d 	lw $23,36($29)
  401d30:	28 00 00 00 20 00 16 1d 	lw $22,32($29)
  401d38:	28 00 00 00 1c 00 15 1d 	lw $21,28($29)
  401d40:	28 00 00 00 18 00 14 1d 	lw $20,24($29)
  401d48:	28 00 00 00 14 00 13 1d 	lw $19,20($29)
  401d50:	28 00 00 00 10 00 12 1d 	lw $18,16($29)
  401d58:	28 00 00 00 0c 00 11 1d 	lw $17,12($29)
  401d60:	28 00 00 00 08 00 10 1d 	lw $16,8($29)
  401d68:	2b 00 00 00 40 00 18 1d 	l.d $f24,64($29)
  401d70:	2b 00 00 00 38 00 16 1d 	l.d $f22,56($29)
  401d78:	2b 00 00 00 30 00 14 1d 	l.d $f20,48($29)
  401d80:	43 00 00 00 48 00 1d 1d 	addiu $29,$29,72
  401d88:	03 00 00 00 00 00 00 1f 	jr $31

00401d90 <blts_>:
  401d90:	43 00 00 00 78 fe 1d 1d 	addiu $29,$29,-392
  401d98:	34 00 00 00 80 01 1e 1d 	sw $30,384($29)
  401da0:	34 00 00 00 7c 01 17 1d 	sw $23,380($29)
  401da8:	34 00 00 00 78 01 16 1d 	sw $22,376($29)
  401db0:	34 00 00 00 74 01 15 1d 	sw $21,372($29)
  401db8:	34 00 00 00 70 01 14 1d 	sw $20,368($29)
  401dc0:	34 00 00 00 6c 01 13 1d 	sw $19,364($29)
  401dc8:	34 00 00 00 68 01 12 1d 	sw $18,360($29)
  401dd0:	34 00 00 00 64 01 11 1d 	sw $17,356($29)
  401dd8:	34 00 00 00 60 01 10 1d 	sw $16,352($29)
  401de0:	34 00 00 00 c8 00 07 1d 	sw $7,200($29)
  401de8:	28 00 00 00 00 00 05 05 	lw $5,0($5)
  401df0:	34 00 00 00 10 01 05 1d 	sw $5,272($29)
  401df8:	28 00 00 00 00 00 04 04 	lw $4,0($4)
  401e00:	43 00 00 00 01 00 02 05 	addiu $2,$5,1
  401e08:	46 00 00 00 00 00 02 04 	mult $4,$2
  401e10:	28 00 00 00 a4 01 0f 1d 	lw $15,420($29)
  401e18:	28 00 00 00 b4 01 11 1d 	lw $17,436($29)
  401e20:	28 00 00 00 b0 01 17 1d 	lw $23,432($29)
  401e28:	43 00 00 00 02 00 16 00 	addiu $22,$0,2
  401e30:	34 00 00 00 28 01 16 1d 	sw $22,296($29)
  401e38:	28 00 00 00 ac 01 16 1d 	lw $22,428($29)
  401e40:	4c 00 00 00 00 02 00 00 	mflo $2
  401e48:	34 00 00 00 08 01 04 1d 	sw $4,264($29)
  401e50:	43 00 00 00 01 00 02 02 	addiu $2,$2,1
  401e58:	55 00 00 00 02 03 02 00 	sll $3,$2,0x2
  401e60:	42 00 00 00 00 03 02 03 	addu $3,$3,$2
  401e68:	43 00 00 00 01 00 03 03 	addiu $3,$3,1
  401e70:	55 00 00 00 02 02 03 00 	sll $2,$3,0x2
  401e78:	42 00 00 00 00 02 03 02 	addu $2,$2,$3
  401e80:	43 00 00 00 01 00 02 02 	addiu $2,$2,1
  401e88:	55 00 00 00 03 02 02 00 	sll $2,$2,0x3
  401e90:	45 00 00 00 00 17 02 17 	subu $23,$23,$2
  401e98:	34 00 00 00 b0 01 17 1d 	sw $23,432($29)
  401ea0:	28 00 00 00 a8 01 17 1d 	lw $23,424($29)
  401ea8:	45 00 00 00 00 11 02 11 	subu $17,$17,$2
  401eb0:	45 00 00 00 00 16 02 16 	subu $22,$22,$2
  401eb8:	34 00 00 00 ac 01 16 1d 	sw $22,428($29)
  401ec0:	28 00 00 00 08 01 16 1d 	lw $22,264($29)
  401ec8:	45 00 00 00 00 17 02 17 	subu $23,$23,$2
  401ed0:	28 00 00 00 9c 01 02 1d 	lw $2,412($29)
  401ed8:	34 00 00 00 a8 01 17 1d 	sw $23,424($29)
  401ee0:	28 00 00 00 10 01 17 1d 	lw $23,272($29)
  401ee8:	34 00 00 00 f8 00 16 1d 	sw $22,248($29)
  401ef0:	28 00 00 00 08 01 16 1d 	lw $22,264($29)
  401ef8:	34 00 00 00 00 01 17 1d 	sw $23,256($29)
  401f00:	28 00 00 00 00 01 17 1d 	lw $23,256($29)
  401f08:	34 00 00 00 e8 00 16 1d 	sw $22,232($29)
  401f10:	28 00 00 00 08 01 16 1d 	lw $22,264($29)
  401f18:	34 00 00 00 f0 00 17 1d 	sw $23,240($29)
  401f20:	34 00 00 00 d8 00 16 1d 	sw $22,216($29)
  401f28:	28 00 00 00 f0 00 17 1d 	lw $23,240($29)
  401f30:	28 00 00 00 08 01 13 1d 	lw $19,264($29)
  401f38:	55 00 00 00 03 03 03 00 	sll $3,$3,0x3
  401f40:	34 00 00 00 e0 00 17 1d 	sw $23,224($29)
  401f48:	28 00 00 00 00 00 02 02 	lw $2,0($2)
  401f50:	28 00 00 00 e0 00 16 1d 	lw $22,224($29)
  401f58:	45 00 00 00 00 0f 03 0f 	subu $15,$15,$3
  401f60:	43 00 00 00 ff ff 02 02 	addiu $2,$2,-1
  401f68:	34 00 00 00 18 01 02 1d 	sw $2,280($29)
  401f70:	5c 00 00 00 02 00 02 02 	slti $2,$2,2
  401f78:	34 00 00 00 d0 00 16 1d 	sw $22,208($29)
  401f80:	06 00 00 00 78 03 00 02 	bne $2,$0,402d68 <blts_+0xfd8>
  401f88:	55 00 00 00 01 1e 16 00 	sll $30,$22,0x1
  401f90:	42 00 00 00 00 14 1e 00 	addu $20,$0,$30
  401f98:	42 00 00 00 00 15 14 00 	addu $21,$0,$20
  401fa0:	34 00 00 00 40 01 15 1d 	sw $21,320($29)
  401fa8:	28 00 00 00 40 01 17 1d 	lw $23,320($29)
  401fb0:	34 00 00 00 48 01 17 1d 	sw $23,328($29)
  401fb8:	28 00 00 00 98 01 16 1d 	lw $22,408($29)
  401fc0:	28 00 00 00 00 00 02 16 	lw $2,0($22)
  401fc8:	43 00 00 00 02 00 10 00 	addiu $16,$0,2
  401fd0:	43 00 00 00 ff ff 02 02 	addiu $2,$2,-1
  401fd8:	34 00 00 00 20 01 02 1d 	sw $2,288($29)
  401fe0:	5c 00 00 00 02 00 02 02 	slti $2,$2,2
  401fe8:	06 00 00 00 36 03 00 02 	bne $2,$0,402cc8 <blts_+0xf38>
  401ff0:	28 00 00 00 28 01 17 1d 	lw $23,296($29)
  401ff8:	28 00 00 00 d0 00 16 1d 	lw $22,208($29)
  402000:	43 00 00 00 ff ff 02 17 	addiu $2,$23,-1
  402008:	46 00 00 00 00 00 16 02 	mult $2,$22
  402010:	28 00 00 00 48 01 17 1d 	lw $23,328($29)
  402018:	34 00 00 00 58 01 17 1d 	sw $23,344($29)
  402020:	28 00 00 00 40 01 16 1d 	lw $22,320($29)
  402028:	4c 00 00 00 00 17 00 00 	mflo $23
  402030:	34 00 00 00 30 01 16 1d 	sw $22,304($29)
  402038:	34 00 00 00 38 01 17 1d 	sw $23,312($29)
  402040:	28 00 00 00 c8 00 16 1d 	lw $22,200($29)
  402048:	28 00 00 00 00 00 02 16 	lw $2,0($22)
  402050:	43 00 00 00 02 00 18 00 	addiu $24,$0,2
  402058:	43 00 00 00 ff ff 02 02 	addiu $2,$2,-1
  402060:	34 00 00 00 50 01 02 1d 	sw $2,336($29)
  402068:	5c 00 00 00 02 00 02 02 	slti $2,$2,2
  402070:	06 00 00 00 0c 03 00 02 	bne $2,$0,402ca8 <blts_+0xf18>
  402078:	28 00 00 00 58 01 17 1d 	lw $23,344($29)
  402080:	42 00 00 00 00 02 17 10 	addu $2,$16,$23
  402088:	46 00 00 00 00 00 13 02 	mult $2,$19
  402090:	4c 00 00 00 00 02 00 00 	mflo $2
  402098:	43 00 00 00 02 00 12 02 	addiu $18,$2,2
  4020a0:	43 00 00 00 01 00 0d 00 	addiu $13,$0,1
  4020a8:	55 00 00 00 02 02 12 00 	sll $2,$18,0x2
  4020b0:	42 00 00 00 00 09 12 02 	addu $9,$2,$18
  4020b8:	28 00 00 00 30 01 16 1d 	lw $22,304($29)
  4020c0:	28 00 00 00 d8 00 17 1d 	lw $23,216($29)
  4020c8:	42 00 00 00 00 02 16 10 	addu $2,$16,$22
  4020d0:	46 00 00 00 00 00 17 02 	mult $2,$23
  4020d8:	28 00 00 00 38 01 16 1d 	lw $22,312($29)
  4020e0:	4c 00 00 00 00 03 00 00 	mflo $3
  4020e8:	42 00 00 00 00 02 16 10 	addu $2,$16,$22
  4020f0:	46 00 00 00 00 00 13 02 	mult $2,$19
  4020f8:	28 00 00 00 e8 00 17 1d 	lw $23,232($29)
  402100:	4c 00 00 00 00 04 00 00 	mflo $4
  402108:	42 00 00 00 00 02 15 10 	addu $2,$16,$21
  402110:	46 00 00 00 00 00 17 02 	mult $2,$23
  402118:	28 00 00 00 58 01 16 1d 	lw $22,344($29)
  402120:	4c 00 00 00 00 05 00 00 	mflo $5
  402128:	43 00 00 00 ff ff 02 16 	addiu $2,$22,-1
  402130:	42 00 00 00 00 02 02 10 	addu $2,$16,$2
  402138:	46 00 00 00 00 00 13 02 	mult $2,$19
  402140:	43 00 00 00 01 00 0b 00 	addiu $11,$0,1
  402148:	42 00 00 00 00 03 03 18 	addu $3,$24,$3
  402150:	42 00 00 00 00 02 0d 09 	addu $2,$9,$13
  402158:	55 00 00 00 03 02 02 00 	sll $2,$2,0x3
  402160:	42 00 00 00 00 06 0f 02 	addu $6,$2,$15
  402168:	55 00 00 00 02 02 03 00 	sll $2,$3,0x2
  402170:	42 00 00 00 00 0a 03 02 	addu $10,$2,$3
  402178:	42 00 00 00 00 03 04 18 	addu $3,$24,$4
  402180:	55 00 00 00 02 02 03 00 	sll $2,$3,0x2
  402188:	42 00 00 00 00 08 03 02 	addu $8,$2,$3
  402190:	42 00 00 00 00 03 05 18 	addu $3,$24,$5
  402198:	4c 00 00 00 00 04 00 00 	mflo $4
  4021a0:	55 00 00 00 02 02 03 00 	sll $2,$3,0x2
  4021a8:	42 00 00 00 00 07 03 02 	addu $7,$2,$3
  4021b0:	42 00 00 00 00 05 04 18 	addu $5,$24,$4
  4021b8:	28 00 00 00 f8 00 17 1d 	lw $23,248($29)
  4021c0:	42 00 00 00 00 02 14 10 	addu $2,$16,$20
  4021c8:	46 00 00 00 00 00 17 02 	mult $2,$23
  4021d0:	28 00 00 00 a8 01 16 1d 	lw $22,424($29)
  4021d8:	42 00 00 00 00 02 0b 0a 	addu $2,$10,$11
  4021e0:	55 00 00 00 02 03 02 00 	sll $3,$2,0x2
  4021e8:	42 00 00 00 00 03 02 03 	addu $3,$3,$2
  4021f0:	42 00 00 00 00 03 0d 03 	addu $3,$3,$13
  4021f8:	55 00 00 00 03 03 03 00 	sll $3,$3,0x3
  402200:	42 00 00 00 00 03 16 03 	addu $3,$3,$22
  402208:	42 00 00 00 00 02 0b 08 	addu $2,$8,$11
  402210:	55 00 00 00 03 02 02 00 	sll $2,$2,0x3
  402218:	42 00 00 00 00 02 0f 02 	addu $2,$2,$15
  402220:	2b 00 00 00 00 00 04 03 	l.d $f4,0($3)
  402228:	2b 00 00 00 00 00 02 02 	l.d $f2,0($2)
  402230:	28 00 00 00 ac 01 17 1d 	lw $23,428($29)
  402238:	4c 00 00 00 00 04 00 00 	mflo $4
  402240:	42 00 00 00 00 02 0b 07 	addu $2,$7,$11
  402248:	55 00 00 00 02 03 02 00 	sll $3,$2,0x2
  402250:	42 00 00 00 00 03 02 03 	addu $3,$3,$2
  402258:	42 00 00 00 00 03 0d 03 	addu $3,$3,$13
  402260:	55 00 00 00 03 03 03 00 	sll $3,$3,0x3
  402268:	42 00 00 00 00 03 17 03 	addu $3,$3,$23
  402270:	55 00 00 00 02 02 05 00 	sll $2,$5,0x2
  402278:	42 00 00 00 00 02 05 02 	addu $2,$2,$5
  402280:	42 00 00 00 00 02 0b 02 	addu $2,$2,$11
  402288:	55 00 00 00 03 02 02 00 	sll $2,$2,0x3
  402290:	42 00 00 00 00 02 0f 02 	addu $2,$2,$15
  402298:	2b 00 00 00 00 00 06 03 	l.d $f6,0($3)
  4022a0:	2b 00 00 00 00 00 00 02 	l.d $f0,0($2)
  4022a8:	75 00 00 00 00 04 02 04 	mul.d $f4,$f4,$f2
  4022b0:	28 00 00 00 b0 01 16 1d 	lw $22,432($29)
  4022b8:	42 00 00 00 00 03 04 18 	addu $3,$24,$4
  4022c0:	55 00 00 00 02 02 03 00 	sll $2,$3,0x2
  4022c8:	42 00 00 00 00 02 03 02 	addu $2,$2,$3
  4022d0:	42 00 00 00 00 02 0b 02 	addu $2,$2,$11
  4022d8:	55 00 00 00 02 03 02 00 	sll $3,$2,0x2
  4022e0:	42 00 00 00 00 03 02 03 	addu $3,$3,$2
  4022e8:	75 00 00 00 00 06 00 06 	mul.d $f6,$f6,$f0
  4022f0:	42 00 00 00 00 03 0d 03 	addu $3,$3,$13
  4022f8:	55 00 00 00 03 03 03 00 	sll $3,$3,0x3
  402300:	42 00 00 00 00 03 16 03 	addu $3,$3,$22
  402308:	42 00 00 00 00 02 0b 09 	addu $2,$9,$11
  402310:	55 00 00 00 03 02 02 00 	sll $2,$2,0x3
  402318:	42 00 00 00 00 02 0f 02 	addu $2,$2,$15
  402320:	2b 00 00 00 00 00 02 03 	l.d $f2,0($3)
  402328:	2b 00 00 00 d8 ff 00 02 	l.d $f0,-40($2)
  402330:	75 00 00 00 00 02 00 02 	mul.d $f2,$f2,$f0
  402338:	71 00 00 00 00 04 06 04 	add.d $f4,$f4,$f6
  402340:	28 00 00 00 a0 01 17 1d 	lw $23,416($29)
  402348:	71 00 00 00 00 04 02 04 	add.d $f4,$f4,$f2
  402350:	2b 00 00 00 00 00 00 17 	l.d $f0,0($23)
  402358:	75 00 00 00 00 00 04 00 	mul.d $f0,$f0,$f4
  402360:	2b 00 00 00 00 00 02 06 	l.d $f2,0($6)
  402368:	73 00 00 00 00 02 00 02 	sub.d $f2,$f2,$f0
  402370:	43 00 00 00 01 00 0b 0b 	addiu $11,$11,1
  402378:	5c 00 00 00 06 00 02 0b 	slti $2,$11,6
  402380:	37 00 00 00 00 00 02 06 	s.d $f2,0($6)
  402388:	06 00 00 00 8a ff 00 02 	bne $2,$0,4021b8 <blts_+0x428>
  402390:	43 00 00 00 01 00 0d 0d 	addiu $13,$13,1
  402398:	5c 00 00 00 06 00 02 0d 	slti $2,$13,6
  4023a0:	06 00 00 00 44 ff 00 02 	bne $2,$0,4020b8 <blts_+0x328>
  4023a8:	28 00 00 00 08 01 16 1d 	lw $22,264($29)
  4023b0:	42 00 00 00 00 02 1e 10 	addu $2,$16,$30
  4023b8:	46 00 00 00 00 00 16 02 	mult $2,$22
  4023c0:	4c 00 00 00 00 02 00 00 	mflo $2
  4023c8:	43 00 00 00 01 00 0d 00 	addiu $13,$0,1
  4023d0:	42 00 00 00 00 19 02 18 	addu $25,$24,$2
  4023d8:	43 00 00 00 01 00 0b 00 	addiu $11,$0,1
  4023e0:	43 00 00 00 05 00 0c 0d 	addiu $12,$13,5
  4023e8:	55 00 00 00 03 04 0c 00 	sll $4,$12,0x3
  4023f0:	43 00 00 00 05 00 0c 0c 	addiu $12,$12,5
  4023f8:	55 00 00 00 02 02 19 00 	sll $2,$25,0x2
  402400:	42 00 00 00 00 0e 19 02 	addu $14,$2,$25
  402408:	42 00 00 00 00 03 0b 0e 	addu $3,$14,$11
  402410:	43 00 00 00 01 00 0b 0b 	addiu $11,$11,1
  402418:	55 00 00 00 02 02 03 00 	sll $2,$3,0x2
  402420:	42 00 00 00 00 02 03 02 	addu $2,$2,$3
  402428:	42 00 00 00 00 02 0d 02 	addu $2,$2,$13
  402430:	55 00 00 00 03 02 02 00 	sll $2,$2,0x3
  402438:	42 00 00 00 00 02 11 02 	addu $2,$2,$17
  402440:	2b 00 00 00 00 00 00 02 	l.d $f0,0($2)
  402448:	5c 00 00 00 06 00 03 0b 	slti $3,$11,6
  402450:	42 00 00 00 00 04 1d 04 	addu $4,$4,$29
  402458:	37 00 00 00 d0 ff 00 04 	s.d $f0,-48($4)
  402460:	05 00 00 00 64 00 00 03 	beq $3,$0,4025f8 <blts_+0x868>
  402468:	55 00 00 00 03 06 0c 00 	sll $6,$12,0x3
  402470:	43 00 00 00 05 00 05 0c 	addiu $5,$12,5
  402478:	43 00 00 00 0a 00 07 0c 	addiu $7,$12,10
  402480:	43 00 00 00 0f 00 09 0c 	addiu $9,$12,15
  402488:	43 00 00 00 14 00 0c 0c 	addiu $12,$12,20
  402490:	42 00 00 00 00 03 0b 0e 	addu $3,$14,$11
  402498:	43 00 00 00 01 00 04 0b 	addiu $4,$11,1
  4024a0:	43 00 00 00 02 00 08 0b 	addiu $8,$11,2
  4024a8:	43 00 00 00 03 00 0a 0b 	addiu $10,$11,3
  4024b0:	43 00 00 00 04 00 0b 0b 	addiu $11,$11,4
  4024b8:	55 00 00 00 02 02 03 00 	sll $2,$3,0x2
  4024c0:	42 00 00 00 00 02 03 02 	addu $2,$2,$3
  4024c8:	42 00 00 00 00 02 0d 02 	addu $2,$2,$13
  4024d0:	55 00 00 00 03 02 02 00 	sll $2,$2,0x3
  4024d8:	42 00 00 00 00 02 11 02 	addu $2,$2,$17
  4024e0:	2b 00 00 00 00 00 00 02 	l.d $f0,0($2)
  4024e8:	5c 00 00 00 06 00 03 0b 	slti $3,$11,6
  4024f0:	42 00 00 00 00 06 1d 06 	addu $6,$6,$29
  4024f8:	42 00 00 00 00 04 04 0e 	addu $4,$14,$4
  402500:	55 00 00 00 03 05 05 00 	sll $5,$5,0x3
  402508:	42 00 00 00 00 05 1d 05 	addu $5,$5,$29
  402510:	55 00 00 00 02 02 04 00 	sll $2,$4,0x2
  402518:	42 00 00 00 00 02 04 02 	addu $2,$2,$4
  402520:	42 00 00 00 00 02 0d 02 	addu $2,$2,$13
  402528:	55 00 00 00 03 02 02 00 	sll $2,$2,0x3
  402530:	42 00 00 00 00 02 11 02 	addu $2,$2,$17
  402538:	37 00 00 00 d0 ff 00 06 	s.d $f0,-48($6)
  402540:	2b 00 00 00 00 00 00 02 	l.d $f0,0($2)
  402548:	42 00 00 00 00 08 08 0e 	addu $8,$14,$8
  402550:	55 00 00 00 03 07 07 00 	sll $7,$7,0x3
  402558:	55 00 00 00 02 02 08 00 	sll $2,$8,0x2
  402560:	42 00 00 00 00 02 08 02 	addu $2,$2,$8
  402568:	42 00 00 00 00 02 0d 02 	addu $2,$2,$13
  402570:	55 00 00 00 03 02 02 00 	sll $2,$2,0x3
  402578:	42 00 00 00 00 02 11 02 	addu $2,$2,$17
  402580:	37 00 00 00 d0 ff 00 05 	s.d $f0,-48($5)
  402588:	2b 00 00 00 00 00 00 02 	l.d $f0,0($2)
  402590:	42 00 00 00 00 07 1d 07 	addu $7,$7,$29
  402598:	42 00 00 00 00 0a 0a 0e 	addu $10,$14,$10
  4025a0:	55 00 00 00 02 02 0a 00 	sll $2,$10,0x2
  4025a8:	42 00 00 00 00 02 0a 02 	addu $2,$2,$10
  4025b0:	42 00 00 00 00 02 0d 02 	addu $2,$2,$13
  4025b8:	55 00 00 00 03 02 02 00 	sll $2,$2,0x3
  4025c0:	42 00 00 00 00 02 11 02 	addu $2,$2,$17
  4025c8:	37 00 00 00 d0 ff 00 07 	s.d $f0,-48($7)
  4025d0:	2b 00 00 00 00 00 00 02 	l.d $f0,0($2)
  4025d8:	55 00 00 00 03 09 09 00 	sll $9,$9,0x3
  4025e0:	42 00 00 00 00 09 1d 09 	addu $9,$9,$29
  4025e8:	37 00 00 00 d0 ff 00 09 	s.d $f0,-48($9)
  4025f0:	06 00 00 00 9c ff 00 03 	bne $3,$0,402468 <blts_+0x6d8>
  4025f8:	43 00 00 00 01 00 0d 0d 	addiu $13,$13,1
  402600:	5c 00 00 00 06 00 02 0d 	slti $2,$13,6
  402608:	06 00 00 00 72 ff 00 02 	bne $2,$0,4023d8 <blts_+0x648>
  402610:	43 00 00 00 01 00 06 00 	addiu $6,$0,1
  402618:	42 00 00 00 00 0a 12 00 	addu $10,$0,$18
  402620:	43 00 00 00 05 00 08 00 	addiu $8,$0,5
  402628:	43 00 00 00 30 00 07 1d 	addiu $7,$29,48
  402630:	2b 00 00 00 d0 ff 00 07 	l.d $f0,-48($7)
  402638:	2b 00 00 00 a0 80 02 1c 	l.d $f2,-32608($28)
  402640:	77 00 00 00 00 06 00 02 	div.d $f6,$f2,$f0
  402648:	43 00 00 00 01 00 0d 06 	addiu $13,$6,1
  402650:	5c 00 00 00 06 00 02 0d 	slti $2,$13,6
  402658:	05 00 00 00 f4 00 00 02 	beq $2,$0,402a30 <blts_+0xca0>
  402660:	42 00 00 00 00 0e 08 00 	addu $14,$0,$8
  402668:	55 00 00 00 02 02 0a 00 	sll $2,$10,0x2
  402670:	42 00 00 00 00 09 0a 02 	addu $9,$2,$10
  402678:	42 00 00 00 00 02 06 09 	addu $2,$9,$6
  402680:	55 00 00 00 03 02 02 00 	sll $2,$2,0x3
  402688:	42 00 00 00 00 0c 0f 02 	addu $12,$2,$15
  402690:	42 00 00 00 00 02 0d 0e 	addu $2,$14,$13
  402698:	55 00 00 00 03 02 02 00 	sll $2,$2,0x3
  4026a0:	42 00 00 00 00 02 1d 02 	addu $2,$2,$29
  4026a8:	2b 00 00 00 d0 ff 00 02 	l.d $f0,-48($2)
  4026b0:	75 00 00 00 00 04 00 06 	mul.d $f4,$f6,$f0
  4026b8:	43 00 00 00 01 00 0b 06 	addiu $11,$6,1
  4026c0:	5c 00 00 00 06 00 02 0b 	slti $2,$11,6
  4026c8:	05 00 00 00 c2 00 00 02 	beq $2,$0,4029d8 <blts_+0xc48>
  4026d0:	55 00 00 00 02 02 0b 00 	sll $2,$11,0x2
  4026d8:	42 00 00 00 00 02 0b 02 	addu $2,$2,$11
  4026e0:	42 00 00 00 00 05 06 02 	addu $5,$2,$6
  4026e8:	42 00 00 00 00 04 0d 02 	addu $4,$2,$13
  4026f0:	43 00 00 00 06 00 02 00 	addiu $2,$0,6
  4026f8:	45 00 00 00 00 02 0b 02 	subu $2,$2,$11
  402700:	4f 00 00 00 03 00 03 02 	andi $3,$2,3
  402708:	05 00 00 00 54 00 00 03 	beq $3,$0,402860 <blts_+0xad0>
  402710:	5c 00 00 00 02 00 02 03 	slti $2,$3,2
  402718:	06 00 00 00 34 00 00 02 	bne $2,$0,4027f0 <blts_+0xa60>
  402720:	5c 00 00 00 03 00 02 03 	slti $2,$3,3
  402728:	06 00 00 00 18 00 00 02 	bne $2,$0,402790 <blts_+0xa00>
  402730:	55 00 00 00 03 02 05 00 	sll $2,$5,0x3
  402738:	42 00 00 00 00 02 1d 02 	addu $2,$2,$29
  402740:	2b 00 00 00 d0 ff 00 02 	l.d $f0,-48($2)
  402748:	75 00 00 00 00 00 00 04 	mul.d $f0,$f4,$f0
  402750:	55 00 00 00 03 02 04 00 	sll $2,$4,0x3
  402758:	42 00 00 00 00 02 1d 02 	addu $2,$2,$29
  402760:	2b 00 00 00 d0 ff 02 02 	l.d $f2,-48($2)
  402768:	73 00 00 00 00 02 00 02 	sub.d $f2,$f2,$f0
  402770:	43 00 00 00 05 00 05 05 	addiu $5,$5,5
  402778:	43 00 00 00 01 00 0b 0b 	addiu $11,$11,1
  402780:	43 00 00 00 05 00 04 04 	addiu $4,$4,5
  402788:	37 00 00 00 d0 ff 02 02 	s.d $f2,-48($2)
  402790:	55 00 00 00 03 02 05 00 	sll $2,$5,0x3
  402798:	42 00 00 00 00 02 1d 02 	addu $2,$2,$29
  4027a0:	2b 00 00 00 d0 ff 00 02 	l.d $f0,-48($2)
  4027a8:	75 00 00 00 00 00 00 04 	mul.d $f0,$f4,$f0
  4027b0:	55 00 00 00 03 02 04 00 	sll $2,$4,0x3
  4027b8:	42 00 00 00 00 02 1d 02 	addu $2,$2,$29
  4027c0:	2b 00 00 00 d0 ff 02 02 	l.d $f2,-48($2)
  4027c8:	73 00 00 00 00 02 00 02 	sub.d $f2,$f2,$f0
  4027d0:	43 00 00 00 05 00 05 05 	addiu $5,$5,5
  4027d8:	43 00 00 00 01 00 0b 0b 	addiu $11,$11,1
  4027e0:	43 00 00 00 05 00 04 04 	addiu $4,$4,5
  4027e8:	37 00 00 00 d0 ff 02 02 	s.d $f2,-48($2)
  4027f0:	55 00 00 00 03 02 05 00 	sll $2,$5,0x3
  4027f8:	42 00 00 00 00 02 1d 02 	addu $2,$2,$29
  402800:	2b 00 00 00 d0 ff 00 02 	l.d $f0,-48($2)
  402808:	75 00 00 00 00 00 00 04 	mul.d $f0,$f4,$f0
  402810:	55 00 00 00 03 02 04 00 	sll $2,$4,0x3
  402818:	42 00 00 00 00 02 1d 02 	addu $2,$2,$29
  402820:	2b 00 00 00 d0 ff 02 02 	l.d $f2,-48($2)
  402828:	43 00 00 00 05 00 05 05 	addiu $5,$5,5
  402830:	73 00 00 00 00 02 00 02 	sub.d $f2,$f2,$f0
  402838:	43 00 00 00 01 00 0b 0b 	addiu $11,$11,1
  402840:	5c 00 00 00 06 00 03 0b 	slti $3,$11,6
  402848:	43 00 00 00 05 00 04 04 	addiu $4,$4,5
  402850:	37 00 00 00 d0 ff 02 02 	s.d $f2,-48($2)
  402858:	05 00 00 00 5e 00 00 03 	beq $3,$0,4029d8 <blts_+0xc48>
  402860:	55 00 00 00 03 02 05 00 	sll $2,$5,0x3
  402868:	42 00 00 00 00 02 1d 02 	addu $2,$2,$29
  402870:	2b 00 00 00 d0 ff 02 02 	l.d $f2,-48($2)
  402878:	75 00 00 00 00 02 02 04 	mul.d $f2,$f4,$f2
  402880:	55 00 00 00 03 02 04 00 	sll $2,$4,0x3
  402888:	42 00 00 00 00 02 1d 02 	addu $2,$2,$29
  402890:	2b 00 00 00 d0 ff 00 02 	l.d $f0,-48($2)
  402898:	73 00 00 00 00 00 02 00 	sub.d $f0,$f0,$f2
  4028a0:	37 00 00 00 d0 ff 00 02 	s.d $f0,-48($2)
  4028a8:	43 00 00 00 05 00 02 05 	addiu $2,$5,5
  4028b0:	55 00 00 00 03 02 02 00 	sll $2,$2,0x3
  4028b8:	42 00 00 00 00 02 1d 02 	addu $2,$2,$29
  4028c0:	2b 00 00 00 d0 ff 02 02 	l.d $f2,-48($2)
  4028c8:	75 00 00 00 00 02 02 04 	mul.d $f2,$f4,$f2
  4028d0:	43 00 00 00 05 00 02 04 	addiu $2,$4,5
  4028d8:	55 00 00 00 03 02 02 00 	sll $2,$2,0x3
  4028e0:	42 00 00 00 00 02 1d 02 	addu $2,$2,$29
  4028e8:	2b 00 00 00 d0 ff 00 02 	l.d $f0,-48($2)
  4028f0:	73 00 00 00 00 00 02 00 	sub.d $f0,$f0,$f2
  4028f8:	37 00 00 00 d0 ff 00 02 	s.d $f0,-48($2)
  402900:	43 00 00 00 0a 00 02 05 	addiu $2,$5,10
  402908:	55 00 00 00 03 02 02 00 	sll $2,$2,0x3
  402910:	42 00 00 00 00 02 1d 02 	addu $2,$2,$29
  402918:	2b 00 00 00 d0 ff 02 02 	l.d $f2,-48($2)
  402920:	75 00 00 00 00 02 02 04 	mul.d $f2,$f4,$f2
  402928:	43 00 00 00 0a 00 02 04 	addiu $2,$4,10
  402930:	55 00 00 00 03 02 02 00 	sll $2,$2,0x3
  402938:	42 00 00 00 00 02 1d 02 	addu $2,$2,$29
  402940:	2b 00 00 00 d0 ff 00 02 	l.d $f0,-48($2)
  402948:	73 00 00 00 00 00 02 00 	sub.d $f0,$f0,$f2
  402950:	37 00 00 00 d0 ff 00 02 	s.d $f0,-48($2)
  402958:	43 00 00 00 0f 00 02 05 	addiu $2,$5,15
  402960:	55 00 00 00 03 02 02 00 	sll $2,$2,0x3
  402968:	42 00 00 00 00 02 1d 02 	addu $2,$2,$29
  402970:	2b 00 00 00 d0 ff 02 02 	l.d $f2,-48($2)
  402978:	75 00 00 00 00 02 02 04 	mul.d $f2,$f4,$f2
  402980:	43 00 00 00 0f 00 02 04 	addiu $2,$4,15
  402988:	55 00 00 00 03 02 02 00 	sll $2,$2,0x3
  402990:	42 00 00 00 00 02 1d 02 	addu $2,$2,$29
  402998:	2b 00 00 00 d0 ff 00 02 	l.d $f0,-48($2)
  4029a0:	43 00 00 00 04 00 0b 0b 	addiu $11,$11,4
  4029a8:	73 00 00 00 00 00 02 00 	sub.d $f0,$f0,$f2
  4029b0:	5c 00 00 00 06 00 03 0b 	slti $3,$11,6
  4029b8:	43 00 00 00 14 00 05 05 	addiu $5,$5,20
  4029c0:	43 00 00 00 14 00 04 04 	addiu $4,$4,20
  4029c8:	37 00 00 00 d0 ff 00 02 	s.d $f0,-48($2)
  4029d0:	06 00 00 00 a2 ff 00 03 	bne $3,$0,402860 <blts_+0xad0>
  4029d8:	2b 00 00 00 00 00 02 0c 	l.d $f2,0($12)
  4029e0:	75 00 00 00 00 02 04 02 	mul.d $f2,$f2,$f4
  4029e8:	42 00 00 00 00 02 0d 09 	addu $2,$9,$13
  4029f0:	55 00 00 00 03 02 02 00 	sll $2,$2,0x3
  4029f8:	42 00 00 00 00 02 0f 02 	addu $2,$2,$15
  402a00:	2b 00 00 00 00 00 00 02 	l.d $f0,0($2)
  402a08:	73 00 00 00 00 00 02 00 	sub.d $f0,$f0,$f2
  402a10:	43 00 00 00 01 00 0d 0d 	addiu $13,$13,1
  402a18:	37 00 00 00 00 00 00 02 	s.d $f0,0($2)
  402a20:	5c 00 00 00 06 00 02 0d 	slti $2,$13,6
  402a28:	06 00 00 00 18 ff 00 02 	bne $2,$0,402690 <blts_+0x900>
  402a30:	43 00 00 00 05 00 08 08 	addiu $8,$8,5
  402a38:	43 00 00 00 30 00 07 07 	addiu $7,$7,48
  402a40:	43 00 00 00 01 00 06 06 	addiu $6,$6,1
  402a48:	5c 00 00 00 05 00 02 06 	slti $2,$6,5
  402a50:	06 00 00 00 f6 fe 00 02 	bne $2,$0,402630 <blts_+0x8a0>
  402a58:	43 00 00 00 05 00 0d 00 	addiu $13,$0,5
  402a60:	43 00 00 00 f0 00 08 1d 	addiu $8,$29,240
  402a68:	55 00 00 00 02 02 12 00 	sll $2,$18,0x2
  402a70:	42 00 00 00 00 06 12 02 	addu $6,$2,$18
  402a78:	43 00 00 00 05 00 07 06 	addiu $7,$6,5
  402a80:	43 00 00 00 01 00 0b 0d 	addiu $11,$13,1
  402a88:	5c 00 00 00 06 00 02 0b 	slti $2,$11,6
  402a90:	05 00 00 00 66 00 00 02 	beq $2,$0,402c30 <blts_+0xea0>
  402a98:	55 00 00 00 02 02 0b 00 	sll $2,$11,0x2
  402aa0:	42 00 00 00 00 02 0b 02 	addu $2,$2,$11
  402aa8:	42 00 00 00 00 04 0d 02 	addu $4,$2,$13
  402ab0:	55 00 00 00 03 02 07 00 	sll $2,$7,0x3
  402ab8:	42 00 00 00 00 05 0f 02 	addu $5,$2,$15
  402ac0:	43 00 00 00 06 00 02 00 	addiu $2,$0,6
  402ac8:	45 00 00 00 00 02 0b 02 	subu $2,$2,$11
  402ad0:	4f 00 00 00 01 00 02 02 	andi $2,$2,1
  402ad8:	05 00 00 00 1e 00 00 02 	beq $2,$0,402b58 <blts_+0xdc8>
  402ae0:	55 00 00 00 03 03 04 00 	sll $3,$4,0x3
  402ae8:	42 00 00 00 00 03 1d 03 	addu $3,$3,$29
  402af0:	42 00 00 00 00 02 0b 06 	addu $2,$6,$11
  402af8:	55 00 00 00 03 02 02 00 	sll $2,$2,0x3
  402b00:	42 00 00 00 00 02 0f 02 	addu $2,$2,$15
  402b08:	2b 00 00 00 d0 ff 02 03 	l.d $f2,-48($3)
  402b10:	2b 00 00 00 00 00 00 02 	l.d $f0,0($2)
  402b18:	75 00 00 00 00 02 00 02 	mul.d $f2,$f2,$f0
  402b20:	2b 00 00 00 00 00 00 05 	l.d $f0,0($5)
  402b28:	73 00 00 00 00 00 02 00 	sub.d $f0,$f0,$f2
  402b30:	43 00 00 00 05 00 04 04 	addiu $4,$4,5
  402b38:	43 00 00 00 01 00 0b 0b 	addiu $11,$11,1
  402b40:	5c 00 00 00 06 00 02 0b 	slti $2,$11,6
  402b48:	37 00 00 00 00 00 00 05 	s.d $f0,0($5)
  402b50:	05 00 00 00 36 00 00 02 	beq $2,$0,402c30 <blts_+0xea0>
  402b58:	55 00 00 00 03 03 04 00 	sll $3,$4,0x3
  402b60:	42 00 00 00 00 03 1d 03 	addu $3,$3,$29
  402b68:	42 00 00 00 00 02 0b 06 	addu $2,$6,$11
  402b70:	55 00 00 00 03 02 02 00 	sll $2,$2,0x3
  402b78:	42 00 00 00 00 02 0f 02 	addu $2,$2,$15
  402b80:	2b 00 00 00 d0 ff 02 03 	l.d $f2,-48($3)
  402b88:	2b 00 00 00 00 00 00 02 	l.d $f0,0($2)
  402b90:	75 00 00 00 00 02 00 02 	mul.d $f2,$f2,$f0
  402b98:	2b 00 00 00 00 00 04 05 	l.d $f4,0($5)
  402ba0:	43 00 00 00 05 00 03 04 	addiu $3,$4,5
  402ba8:	43 00 00 00 01 00 02 0b 	addiu $2,$11,1
  402bb0:	55 00 00 00 03 03 03 00 	sll $3,$3,0x3
  402bb8:	42 00 00 00 00 03 1d 03 	addu $3,$3,$29
  402bc0:	73 00 00 00 00 04 02 04 	sub.d $f4,$f4,$f2
  402bc8:	42 00 00 00 00 02 02 06 	addu $2,$6,$2
  402bd0:	55 00 00 00 03 02 02 00 	sll $2,$2,0x3
  402bd8:	42 00 00 00 00 02 0f 02 	addu $2,$2,$15
  402be0:	37 00 00 00 00 00 04 05 	s.d $f4,0($5)
  402be8:	2b 00 00 00 d0 ff 02 03 	l.d $f2,-48($3)
  402bf0:	2b 00 00 00 00 00 00 02 	l.d $f0,0($2)
  402bf8:	75 00 00 00 00 02 00 02 	mul.d $f2,$f2,$f0
  402c00:	73 00 00 00 00 04 02 04 	sub.d $f4,$f4,$f2
  402c08:	43 00 00 00 0a 00 04 04 	addiu $4,$4,10
  402c10:	43 00 00 00 02 00 0b 0b 	addiu $11,$11,2
  402c18:	5c 00 00 00 06 00 02 0b 	slti $2,$11,6
  402c20:	37 00 00 00 00 00 04 05 	s.d $f4,0($5)
  402c28:	06 00 00 00 ca ff 00 02 	bne $2,$0,402b58 <blts_+0xdc8>
  402c30:	55 00 00 00 03 02 07 00 	sll $2,$7,0x3
  402c38:	42 00 00 00 00 02 0f 02 	addu $2,$2,$15
  402c40:	2b 00 00 00 00 00 02 02 	l.d $f2,0($2)
  402c48:	2b 00 00 00 d0 ff 00 08 	l.d $f0,-48($8)
  402c50:	77 00 00 00 00 02 00 02 	div.d $f2,$f2,$f0
  402c58:	43 00 00 00 ff ff 07 07 	addiu $7,$7,-1
  402c60:	43 00 00 00 ff ff 0d 0d 	addiu $13,$13,-1
  402c68:	43 00 00 00 d0 ff 08 08 	addiu $8,$8,-48
  402c70:	37 00 00 00 00 00 02 02 	s.d $f2,0($2)
  402c78:	08 00 00 00 80 ff 00 0d 	bgtz $13,402a80 <blts_+0xcf0>
  402c80:	28 00 00 00 50 01 17 1d 	lw $23,336($29)
  402c88:	43 00 00 00 01 00 12 12 	addiu $18,$18,1
  402c90:	43 00 00 00 01 00 18 18 	addiu $24,$24,1
  402c98:	5b 00 00 00 00 02 18 17 	slt $2,$23,$24
  402ca0:	05 00 00 00 fe fc 00 02 	beq $2,$0,4020a0 <blts_+0x310>
  402ca8:	28 00 00 00 20 01 16 1d 	lw $22,288($29)
  402cb0:	43 00 00 00 01 00 10 10 	addiu $16,$16,1
  402cb8:	5b 00 00 00 00 02 10 16 	slt $2,$22,$16
  402cc0:	05 00 00 00 de fc 00 02 	beq $2,$0,402040 <blts_+0x2b0>
  402cc8:	28 00 00 00 10 01 17 1d 	lw $23,272($29)
  402cd0:	28 00 00 00 00 01 16 1d 	lw $22,256($29)
  402cd8:	42 00 00 00 00 1e 17 1e 	addu $30,$30,$23
  402ce0:	28 00 00 00 f0 00 17 1d 	lw $23,240($29)
  402ce8:	42 00 00 00 00 14 16 14 	addu $20,$20,$22
  402cf0:	28 00 00 00 40 01 16 1d 	lw $22,320($29)
  402cf8:	42 00 00 00 00 15 17 15 	addu $21,$21,$23
  402d00:	28 00 00 00 e0 00 17 1d 	lw $23,224($29)
  402d08:	42 00 00 00 00 16 17 16 	addu $22,$22,$23
  402d10:	34 00 00 00 40 01 16 1d 	sw $22,320($29)
  402d18:	28 00 00 00 48 01 16 1d 	lw $22,328($29)
  402d20:	28 00 00 00 d0 00 17 1d 	lw $23,208($29)
  402d28:	42 00 00 00 00 16 17 16 	addu $22,$22,$23
  402d30:	34 00 00 00 48 01 16 1d 	sw $22,328($29)
  402d38:	28 00 00 00 28 01 16 1d 	lw $22,296($29)
  402d40:	28 00 00 00 18 01 17 1d 	lw $23,280($29)
  402d48:	43 00 00 00 01 00 16 16 	addiu $22,$22,1
  402d50:	5b 00 00 00 00 02 16 17 	slt $2,$23,$22
  402d58:	34 00 00 00 28 01 16 1d 	sw $22,296($29)
  402d60:	05 00 00 00 94 fc 00 02 	beq $2,$0,401fb8 <blts_+0x228>
  402d68:	42 00 00 00 00 02 00 00 	addu $2,$0,$0
  402d70:	28 00 00 00 80 01 1e 1d 	lw $30,384($29)
  402d78:	28 00 00 00 7c 01 17 1d 	lw $23,380($29)
  402d80:	28 00 00 00 78 01 16 1d 	lw $22,376($29)
  402d88:	28 00 00 00 74 01 15 1d 	lw $21,372($29)
  402d90:	28 00 00 00 70 01 14 1d 	lw $20,368($29)
  402d98:	28 00 00 00 6c 01 13 1d 	lw $19,364($29)
  402da0:	28 00 00 00 68 01 12 1d 	lw $18,360($29)
  402da8:	28 00 00 00 64 01 11 1d 	lw $17,356($29)
  402db0:	28 00 00 00 60 01 10 1d 	lw $16,352($29)
  402db8:	43 00 00 00 88 01 1d 1d 	addiu $29,$29,392
  402dc0:	03 00 00 00 00 00 00 1f 	jr $31

00402dc8 <buts_>:
  402dc8:	43 00 00 00 50 fe 1d 1d 	addiu $29,$29,-432
  402dd0:	34 00 00 00 a8 01 1e 1d 	sw $30,424($29)
  402dd8:	34 00 00 00 a4 01 17 1d 	sw $23,420($29)
  402de0:	34 00 00 00 a0 01 16 1d 	sw $22,416($29)
  402de8:	34 00 00 00 9c 01 15 1d 	sw $21,412($29)
  402df0:	34 00 00 00 98 01 14 1d 	sw $20,408($29)
  402df8:	34 00 00 00 94 01 13 1d 	sw $19,404($29)
  402e00:	34 00 00 00 90 01 12 1d 	sw $18,400($29)
  402e08:	34 00 00 00 8c 01 11 1d 	sw $17,396($29)
  402e10:	34 00 00 00 88 01 10 1d 	sw $16,392($29)
  402e18:	34 00 00 00 f0 00 07 1d 	sw $7,240($29)
  402e20:	28 00 00 00 00 00 05 05 	lw $5,0($5)
  402e28:	34 00 00 00 38 01 05 1d 	sw $5,312($29)
  402e30:	28 00 00 00 00 00 04 04 	lw $4,0($4)
  402e38:	43 00 00 00 01 00 02 05 	addiu $2,$5,1
  402e40:	46 00 00 00 00 00 02 04 	mult $4,$2
  402e48:	28 00 00 00 cc 01 10 1d 	lw $16,460($29)
  402e50:	28 00 00 00 d0 01 12 1d 	lw $18,464($29)
  402e58:	28 00 00 00 dc 01 11 1d 	lw $17,476($29)
  402e60:	28 00 00 00 d8 01 17 1d 	lw $23,472($29)
  402e68:	28 00 00 00 c4 01 02 1d 	lw $2,452($29)
  402e70:	34 00 00 00 30 01 04 1d 	sw $4,304($29)
  402e78:	28 00 00 00 00 00 02 02 	lw $2,0($2)
  402e80:	4c 00 00 00 00 03 00 00 	mflo $3
  402e88:	43 00 00 00 ff ff 02 02 	addiu $2,$2,-1
  402e90:	34 00 00 00 40 01 02 1d 	sw $2,320($29)
  402e98:	43 00 00 00 01 00 02 03 	addiu $2,$3,1
  402ea0:	55 00 00 00 02 03 02 00 	sll $3,$2,0x2
  402ea8:	42 00 00 00 00 03 02 03 	addu $3,$3,$2
  402eb0:	43 00 00 00 01 00 03 03 	addiu $3,$3,1
  402eb8:	55 00 00 00 02 02 03 00 	sll $2,$3,0x2
  402ec0:	42 00 00 00 00 02 03 02 	addu $2,$2,$3
  402ec8:	43 00 00 00 01 00 02 02 	addiu $2,$2,1
  402ed0:	55 00 00 00 03 02 02 00 	sll $2,$2,0x3
  402ed8:	45 00 00 00 00 11 02 11 	subu $17,$17,$2
  402ee0:	34 00 00 00 dc 01 11 1d 	sw $17,476($29)
  402ee8:	28 00 00 00 d4 01 11 1d 	lw $17,468($29)
  402ef0:	45 00 00 00 00 17 02 17 	subu $23,$23,$2
  402ef8:	34 00 00 00 d8 01 17 1d 	sw $23,472($29)
  402f00:	28 00 00 00 30 01 17 1d 	lw $23,304($29)
  402f08:	45 00 00 00 00 11 02 11 	subu $17,$17,$2
  402f10:	34 00 00 00 d4 01 11 1d 	sw $17,468($29)
  402f18:	28 00 00 00 38 01 11 1d 	lw $17,312($29)
  402f20:	34 00 00 00 20 01 17 1d 	sw $23,288($29)
  402f28:	28 00 00 00 20 01 17 1d 	lw $23,288($29)
  402f30:	34 00 00 00 28 01 11 1d 	sw $17,296($29)
  402f38:	28 00 00 00 38 01 11 1d 	lw $17,312($29)
  402f40:	34 00 00 00 10 01 17 1d 	sw $23,272($29)
  402f48:	28 00 00 00 10 01 17 1d 	lw $23,272($29)
  402f50:	34 00 00 00 18 01 11 1d 	sw $17,280($29)
  402f58:	34 00 00 00 00 01 17 1d 	sw $23,256($29)
  402f60:	28 00 00 00 38 01 11 1d 	lw $17,312($29)
  402f68:	28 00 00 00 00 01 13 1d 	lw $19,256($29)
  402f70:	28 00 00 00 38 01 17 1d 	lw $23,312($29)
  402f78:	45 00 00 00 00 12 02 12 	subu $18,$18,$2
  402f80:	34 00 00 00 08 01 11 1d 	sw $17,264($29)
  402f88:	28 00 00 00 40 01 11 1d 	lw $17,320($29)
  402f90:	55 00 00 00 03 03 03 00 	sll $3,$3,0x3
  402f98:	45 00 00 00 00 10 03 10 	subu $16,$16,$3
  402fa0:	34 00 00 00 f8 00 17 1d 	sw $23,248($29)
  402fa8:	5c 00 00 00 02 00 02 11 	slti $2,$17,2
  402fb0:	06 00 00 00 00 04 00 02 	bne $2,$0,403fb8 <buts_+0x11f0>
  402fb8:	46 00 00 00 00 00 17 11 	mult $17,$23
  402fc0:	4c 00 00 00 00 1e 00 00 	mflo $30
  402fc8:	43 00 00 00 f8 ff 0f 1d 	addiu $15,$29,-8
  402fd0:	42 00 00 00 00 15 1e 00 	addu $21,$0,$30
  402fd8:	42 00 00 00 00 16 15 00 	addu $22,$0,$21
  402fe0:	42 00 00 00 00 17 17 16 	addu $23,$22,$23
  402fe8:	34 00 00 00 80 01 15 1d 	sw $21,384($29)
  402ff0:	34 00 00 00 68 01 17 1d 	sw $23,360($29)
  402ff8:	34 00 00 00 70 01 16 1d 	sw $22,368($29)
  403000:	28 00 00 00 c0 01 11 1d 	lw $17,448($29)
  403008:	28 00 00 00 00 00 02 11 	lw $2,0($17)
  403010:	43 00 00 00 ff ff 19 02 	addiu $25,$2,-1
  403018:	5c 00 00 00 02 00 02 19 	slti $2,$25,2
  403020:	06 00 00 00 b6 03 00 02 	bne $2,$0,403f00 <buts_+0x1138>
  403028:	28 00 00 00 70 01 17 1d 	lw $23,368($29)
  403030:	28 00 00 00 68 01 11 1d 	lw $17,360($29)
  403038:	42 00 00 00 00 14 16 19 	addu $20,$25,$22
  403040:	34 00 00 00 60 01 16 1d 	sw $22,352($29)
  403048:	34 00 00 00 48 01 17 1d 	sw $23,328($29)
  403050:	34 00 00 00 58 01 11 1d 	sw $17,344($29)
  403058:	28 00 00 00 f0 00 17 1d 	lw $23,240($29)
  403060:	28 00 00 00 00 00 02 17 	lw $2,0($23)
  403068:	43 00 00 00 ff ff 18 02 	addiu $24,$2,-1
  403070:	5c 00 00 00 02 00 02 18 	slti $2,$24,2
  403078:	06 00 00 00 98 03 00 02 	bne $2,$0,403ee0 <buts_+0x1118>
  403080:	28 00 00 00 48 01 11 1d 	lw $17,328($29)
  403088:	28 00 00 00 30 01 17 1d 	lw $23,304($29)
  403090:	42 00 00 00 00 02 11 19 	addu $2,$25,$17
  403098:	46 00 00 00 00 00 17 02 	mult $2,$23
  4030a0:	4c 00 00 00 00 11 00 00 	mflo $17
  4030a8:	34 00 00 00 50 01 11 1d 	sw $17,336($29)
  4030b0:	28 00 00 00 50 01 17 1d 	lw $23,336($29)
  4030b8:	43 00 00 00 01 00 0d 00 	addiu $13,$0,1
  4030c0:	43 00 00 00 08 00 07 1d 	addiu $7,$29,8
  4030c8:	42 00 00 00 00 03 17 18 	addu $3,$24,$23
  4030d0:	55 00 00 00 02 02 03 00 	sll $2,$3,0x2
  4030d8:	42 00 00 00 00 0e 03 02 	addu $14,$2,$3
  4030e0:	28 00 00 00 58 01 11 1d 	lw $17,344($29)
  4030e8:	42 00 00 00 00 02 11 19 	addu $2,$25,$17
  4030f0:	46 00 00 00 00 00 13 02 	mult $2,$19
  4030f8:	28 00 00 00 20 01 17 1d 	lw $23,288($29)
  403100:	4c 00 00 00 00 03 00 00 	mflo $3
  403108:	42 00 00 00 00 02 15 19 	addu $2,$25,$21
  403110:	46 00 00 00 00 00 17 02 	mult $2,$23
  403118:	28 00 00 00 60 01 11 1d 	lw $17,352($29)
  403120:	4c 00 00 00 00 05 00 00 	mflo $5
  403128:	43 00 00 00 01 00 02 11 	addiu $2,$17,1
  403130:	42 00 00 00 00 02 02 19 	addu $2,$25,$2
  403138:	46 00 00 00 00 00 13 02 	mult $2,$19
  403140:	28 00 00 00 80 01 17 1d 	lw $23,384($29)
  403148:	28 00 00 00 10 01 11 1d 	lw $17,272($29)
  403150:	4c 00 00 00 00 04 00 00 	mflo $4
  403158:	42 00 00 00 00 02 17 19 	addu $2,$25,$23
  403160:	46 00 00 00 00 00 11 02 	mult $2,$17
  403168:	4c 00 00 00 00 06 00 00 	mflo $6
  403170:	46 00 00 00 00 00 13 14 	mult $20,$19
  403178:	43 00 00 00 01 00 0b 00 	addiu $11,$0,1
  403180:	42 00 00 00 00 08 07 00 	addu $8,$0,$7
  403188:	42 00 00 00 00 03 03 18 	addu $3,$24,$3
  403190:	38 00 00 00 f8 ff 00 07 	dsz -8($7)
  403198:	55 00 00 00 02 02 03 00 	sll $2,$3,0x2
  4031a0:	42 00 00 00 00 0c 03 02 	addu $12,$2,$3
  4031a8:	42 00 00 00 00 03 05 18 	addu $3,$24,$5
  4031b0:	55 00 00 00 02 02 03 00 	sll $2,$3,0x2
  4031b8:	42 00 00 00 00 0a 03 02 	addu $10,$2,$3
  4031c0:	42 00 00 00 00 02 04 18 	addu $2,$24,$4
  4031c8:	55 00 00 00 02 03 02 00 	sll $3,$2,0x2
  4031d0:	4c 00 00 00 00 04 00 00 	mflo $4
  4031d8:	42 00 00 00 00 09 02 03 	addu $9,$3,$2
  4031e0:	42 00 00 00 00 05 06 18 	addu $5,$24,$6
  4031e8:	42 00 00 00 00 04 18 04 	addu $4,$4,$24
  4031f0:	42 00 00 00 00 02 0b 0e 	addu $2,$14,$11
  4031f8:	55 00 00 00 02 03 02 00 	sll $3,$2,0x2
  403200:	42 00 00 00 00 03 02 03 	addu $3,$3,$2
  403208:	42 00 00 00 00 03 0d 03 	addu $3,$3,$13
  403210:	55 00 00 00 03 03 03 00 	sll $3,$3,0x3
  403218:	28 00 00 00 dc 01 17 1d 	lw $23,476($29)
  403220:	42 00 00 00 00 02 0b 0c 	addu $2,$12,$11
  403228:	55 00 00 00 03 02 02 00 	sll $2,$2,0x3
  403230:	42 00 00 00 00 02 10 02 	addu $2,$2,$16
  403238:	2b 00 00 00 00 00 02 02 	l.d $f2,0($2)
  403240:	28 00 00 00 d8 01 11 1d 	lw $17,472($29)
  403248:	42 00 00 00 00 03 17 03 	addu $3,$3,$23
  403250:	2b 00 00 00 00 00 04 03 	l.d $f4,0($3)
  403258:	42 00 00 00 00 02 0b 0a 	addu $2,$10,$11
  403260:	28 00 00 00 d4 01 17 1d 	lw $23,468($29)
  403268:	55 00 00 00 02 03 02 00 	sll $3,$2,0x2
  403270:	42 00 00 00 00 03 02 03 	addu $3,$3,$2
  403278:	42 00 00 00 00 03 0d 03 	addu $3,$3,$13
  403280:	55 00 00 00 03 03 03 00 	sll $3,$3,0x3
  403288:	42 00 00 00 00 03 11 03 	addu $3,$3,$17
  403290:	42 00 00 00 00 02 0b 09 	addu $2,$9,$11
  403298:	55 00 00 00 03 02 02 00 	sll $2,$2,0x3
  4032a0:	42 00 00 00 00 02 10 02 	addu $2,$2,$16
  4032a8:	2b 00 00 00 00 00 00 02 	l.d $f0,0($2)
  4032b0:	2b 00 00 00 00 00 06 03 	l.d $f6,0($3)
  4032b8:	75 00 00 00 00 04 02 04 	mul.d $f4,$f4,$f2
  4032c0:	55 00 00 00 02 02 05 00 	sll $2,$5,0x2
  4032c8:	42 00 00 00 00 02 05 02 	addu $2,$2,$5
  4032d0:	42 00 00 00 00 02 0b 02 	addu $2,$2,$11
  4032d8:	55 00 00 00 02 03 02 00 	sll $3,$2,0x2
  4032e0:	42 00 00 00 00 03 02 03 	addu $3,$3,$2
  4032e8:	42 00 00 00 00 03 0d 03 	addu $3,$3,$13
  4032f0:	55 00 00 00 03 03 03 00 	sll $3,$3,0x3
  4032f8:	75 00 00 00 00 06 00 06 	mul.d $f6,$f6,$f0
  403300:	42 00 00 00 00 03 17 03 	addu $3,$3,$23
  403308:	55 00 00 00 02 02 04 00 	sll $2,$4,0x2
  403310:	42 00 00 00 00 02 04 02 	addu $2,$2,$4
  403318:	42 00 00 00 00 02 0b 02 	addu $2,$2,$11
  403320:	55 00 00 00 03 02 02 00 	sll $2,$2,0x3
  403328:	42 00 00 00 00 02 10 02 	addu $2,$2,$16
  403330:	2b 00 00 00 00 00 02 03 	l.d $f2,0($3)
  403338:	2b 00 00 00 28 00 00 02 	l.d $f0,40($2)
  403340:	75 00 00 00 00 02 00 02 	mul.d $f2,$f2,$f0
  403348:	71 00 00 00 00 04 06 04 	add.d $f4,$f4,$f6
  403350:	28 00 00 00 c8 01 11 1d 	lw $17,456($29)
  403358:	71 00 00 00 00 04 02 04 	add.d $f4,$f4,$f2
  403360:	2b 00 00 00 00 00 00 11 	l.d $f0,0($17)
  403368:	75 00 00 00 00 00 04 00 	mul.d $f0,$f0,$f4
  403370:	2b 00 00 00 f8 ff 02 08 	l.d $f2,-8($8)
  403378:	71 00 00 00 00 02 00 02 	add.d $f2,$f2,$f0
  403380:	43 00 00 00 01 00 0b 0b 	addiu $11,$11,1
  403388:	5c 00 00 00 06 00 02 0b 	slti $2,$11,6
  403390:	37 00 00 00 f8 ff 02 08 	s.d $f2,-8($8)
  403398:	06 00 00 00 94 ff 00 02 	bne $2,$0,4031f0 <buts_+0x428>
  4033a0:	43 00 00 00 08 00 07 07 	addiu $7,$7,8
  4033a8:	43 00 00 00 01 00 0d 0d 	addiu $13,$13,1
  4033b0:	5c 00 00 00 06 00 02 0d 	slti $2,$13,6
  4033b8:	06 00 00 00 48 ff 00 02 	bne $2,$0,4030e0 <buts_+0x318>
  4033c0:	28 00 00 00 00 01 17 1d 	lw $23,256($29)
  4033c8:	42 00 00 00 00 02 1e 19 	addu $2,$25,$30
  4033d0:	46 00 00 00 00 00 17 02 	mult $2,$23
  4033d8:	43 00 00 00 01 00 0d 00 	addiu $13,$0,1
  4033e0:	4c 00 00 00 00 11 00 00 	mflo $17
  4033e8:	34 00 00 00 78 01 11 1d 	sw $17,376($29)
  4033f0:	43 00 00 00 01 00 0b 00 	addiu $11,$0,1
  4033f8:	43 00 00 00 05 00 0c 0d 	addiu $12,$13,5
  403400:	55 00 00 00 03 04 0c 00 	sll $4,$12,0x3
  403408:	28 00 00 00 78 01 17 1d 	lw $23,376($29)
  403410:	43 00 00 00 05 00 0c 0c 	addiu $12,$12,5
  403418:	42 00 00 00 00 04 04 0f 	addu $4,$15,$4
  403420:	42 00 00 00 00 03 17 18 	addu $3,$24,$23
  403428:	55 00 00 00 02 02 03 00 	sll $2,$3,0x2
  403430:	42 00 00 00 00 0e 03 02 	addu $14,$2,$3
  403438:	42 00 00 00 00 03 0b 0e 	addu $3,$14,$11
  403440:	55 00 00 00 02 02 03 00 	sll $2,$3,0x2
  403448:	42 00 00 00 00 02 03 02 	addu $2,$2,$3
  403450:	42 00 00 00 00 02 0d 02 	addu $2,$2,$13
  403458:	55 00 00 00 03 02 02 00 	sll $2,$2,0x3
  403460:	42 00 00 00 00 02 12 02 	addu $2,$2,$18
  403468:	2b 00 00 00 00 00 00 02 	l.d $f0,0($2)
  403470:	43 00 00 00 01 00 0b 0b 	addiu $11,$11,1
  403478:	5c 00 00 00 06 00 03 0b 	slti $3,$11,6
  403480:	37 00 00 00 00 00 00 04 	s.d $f0,0($4)
  403488:	05 00 00 00 64 00 00 03 	beq $3,$0,403620 <buts_+0x858>
  403490:	55 00 00 00 03 06 0c 00 	sll $6,$12,0x3
  403498:	43 00 00 00 05 00 05 0c 	addiu $5,$12,5
  4034a0:	43 00 00 00 0a 00 07 0c 	addiu $7,$12,10
  4034a8:	43 00 00 00 0f 00 09 0c 	addiu $9,$12,15
  4034b0:	43 00 00 00 14 00 0c 0c 	addiu $12,$12,20
  4034b8:	42 00 00 00 00 03 0b 0e 	addu $3,$14,$11
  4034c0:	43 00 00 00 01 00 04 0b 	addiu $4,$11,1
  4034c8:	43 00 00 00 02 00 08 0b 	addiu $8,$11,2
  4034d0:	43 00 00 00 03 00 0a 0b 	addiu $10,$11,3
  4034d8:	43 00 00 00 04 00 0b 0b 	addiu $11,$11,4
  4034e0:	55 00 00 00 02 02 03 00 	sll $2,$3,0x2
  4034e8:	42 00 00 00 00 02 03 02 	addu $2,$2,$3
  4034f0:	42 00 00 00 00 02 0d 02 	addu $2,$2,$13
  4034f8:	55 00 00 00 03 02 02 00 	sll $2,$2,0x3
  403500:	42 00 00 00 00 02 12 02 	addu $2,$2,$18
  403508:	2b 00 00 00 00 00 00 02 	l.d $f0,0($2)
  403510:	5c 00 00 00 06 00 03 0b 	slti $3,$11,6
  403518:	42 00 00 00 00 06 06 0f 	addu $6,$15,$6
  403520:	42 00 00 00 00 04 04 0e 	addu $4,$14,$4
  403528:	55 00 00 00 03 05 05 00 	sll $5,$5,0x3
  403530:	42 00 00 00 00 05 05 0f 	addu $5,$15,$5
  403538:	55 00 00 00 02 02 04 00 	sll $2,$4,0x2
  403540:	42 00 00 00 00 02 04 02 	addu $2,$2,$4
  403548:	42 00 00 00 00 02 0d 02 	addu $2,$2,$13
  403550:	55 00 00 00 03 02 02 00 	sll $2,$2,0x3
  403558:	42 00 00 00 00 02 12 02 	addu $2,$2,$18
  403560:	37 00 00 00 00 00 00 06 	s.d $f0,0($6)
  403568:	2b 00 00 00 00 00 00 02 	l.d $f0,0($2)
  403570:	42 00 00 00 00 08 08 0e 	addu $8,$14,$8
  403578:	55 00 00 00 03 07 07 00 	sll $7,$7,0x3
  403580:	55 00 00 00 02 02 08 00 	sll $2,$8,0x2
  403588:	42 00 00 00 00 02 08 02 	addu $2,$2,$8
  403590:	42 00 00 00 00 02 0d 02 	addu $2,$2,$13
  403598:	55 00 00 00 03 02 02 00 	sll $2,$2,0x3
  4035a0:	42 00 00 00 00 02 12 02 	addu $2,$2,$18
  4035a8:	37 00 00 00 00 00 00 05 	s.d $f0,0($5)
  4035b0:	2b 00 00 00 00 00 00 02 	l.d $f0,0($2)
  4035b8:	42 00 00 00 00 07 07 0f 	addu $7,$15,$7
  4035c0:	42 00 00 00 00 0a 0a 0e 	addu $10,$14,$10
  4035c8:	55 00 00 00 02 02 0a 00 	sll $2,$10,0x2
  4035d0:	42 00 00 00 00 02 0a 02 	addu $2,$2,$10
  4035d8:	42 00 00 00 00 02 0d 02 	addu $2,$2,$13
  4035e0:	55 00 00 00 03 02 02 00 	sll $2,$2,0x3
  4035e8:	42 00 00 00 00 02 12 02 	addu $2,$2,$18
  4035f0:	37 00 00 00 00 00 00 07 	s.d $f0,0($7)
  4035f8:	2b 00 00 00 00 00 00 02 	l.d $f0,0($2)
  403600:	55 00 00 00 03 09 09 00 	sll $9,$9,0x3
  403608:	42 00 00 00 00 09 09 0f 	addu $9,$15,$9
  403610:	37 00 00 00 00 00 00 09 	s.d $f0,0($9)
  403618:	06 00 00 00 9c ff 00 03 	bne $3,$0,403490 <buts_+0x6c8>
  403620:	43 00 00 00 01 00 0d 0d 	addiu $13,$13,1
  403628:	5c 00 00 00 06 00 02 0d 	slti $2,$13,6
  403630:	06 00 00 00 6e ff 00 02 	bne $2,$0,4033f0 <buts_+0x628>
  403638:	43 00 00 00 01 00 06 00 	addiu $6,$0,1
  403640:	43 00 00 00 08 00 0a 1d 	addiu $10,$29,8
  403648:	43 00 00 00 05 00 09 00 	addiu $9,$0,5
  403650:	43 00 00 00 30 00 08 0f 	addiu $8,$15,48
  403658:	2b 00 00 00 00 00 00 08 	l.d $f0,0($8)
  403660:	2b 00 00 00 a8 80 02 1c 	l.d $f2,-32600($28)
  403668:	77 00 00 00 00 06 00 02 	div.d $f6,$f2,$f0
  403670:	43 00 00 00 01 00 0d 06 	addiu $13,$6,1
  403678:	5c 00 00 00 06 00 02 0d 	slti $2,$13,6
  403680:	05 00 00 00 ec 00 00 02 	beq $2,$0,403a38 <buts_+0xc70>
  403688:	42 00 00 00 00 0e 09 00 	addu $14,$0,$9
  403690:	42 00 00 00 00 0c 0a 00 	addu $12,$0,$10
  403698:	55 00 00 00 03 02 0d 00 	sll $2,$13,0x3
  4036a0:	42 00 00 00 00 07 1d 02 	addu $7,$2,$29
  4036a8:	42 00 00 00 00 02 0d 0e 	addu $2,$14,$13
  4036b0:	55 00 00 00 03 02 02 00 	sll $2,$2,0x3
  4036b8:	42 00 00 00 00 02 02 0f 	addu $2,$15,$2
  4036c0:	2b 00 00 00 00 00 00 02 	l.d $f0,0($2)
  4036c8:	75 00 00 00 00 04 00 06 	mul.d $f4,$f6,$f0
  4036d0:	43 00 00 00 01 00 0b 06 	addiu $11,$6,1
  4036d8:	5c 00 00 00 06 00 02 0b 	slti $2,$11,6
  4036e0:	05 00 00 00 c2 00 00 02 	beq $2,$0,4039f0 <buts_+0xc28>
  4036e8:	55 00 00 00 02 02 0b 00 	sll $2,$11,0x2
  4036f0:	42 00 00 00 00 02 0b 02 	addu $2,$2,$11
  4036f8:	42 00 00 00 00 05 06 02 	addu $5,$2,$6
  403700:	42 00 00 00 00 04 0d 02 	addu $4,$2,$13
  403708:	43 00 00 00 06 00 02 00 	addiu $2,$0,6
  403710:	45 00 00 00 00 02 0b 02 	subu $2,$2,$11
  403718:	4f 00 00 00 03 00 03 02 	andi $3,$2,3
  403720:	05 00 00 00 54 00 00 03 	beq $3,$0,403878 <buts_+0xab0>
  403728:	5c 00 00 00 02 00 02 03 	slti $2,$3,2
  403730:	06 00 00 00 34 00 00 02 	bne $2,$0,403808 <buts_+0xa40>
  403738:	5c 00 00 00 03 00 02 03 	slti $2,$3,3
  403740:	06 00 00 00 18 00 00 02 	bne $2,$0,4037a8 <buts_+0x9e0>
  403748:	55 00 00 00 03 02 05 00 	sll $2,$5,0x3
  403750:	42 00 00 00 00 02 02 0f 	addu $2,$15,$2
  403758:	2b 00 00 00 00 00 00 02 	l.d $f0,0($2)
  403760:	75 00 00 00 00 00 00 04 	mul.d $f0,$f4,$f0
  403768:	55 00 00 00 03 02 04 00 	sll $2,$4,0x3
  403770:	42 00 00 00 00 02 02 0f 	addu $2,$15,$2
  403778:	2b 00 00 00 00 00 02 02 	l.d $f2,0($2)
  403780:	73 00 00 00 00 02 00 02 	sub.d $f2,$f2,$f0
  403788:	43 00 00 00 05 00 05 05 	addiu $5,$5,5
  403790:	43 00 00 00 01 00 0b 0b 	addiu $11,$11,1
  403798:	43 00 00 00 05 00 04 04 	addiu $4,$4,5
  4037a0:	37 00 00 00 00 00 02 02 	s.d $f2,0($2)
  4037a8:	55 00 00 00 03 02 05 00 	sll $2,$5,0x3
  4037b0:	42 00 00 00 00 02 02 0f 	addu $2,$15,$2
  4037b8:	2b 00 00 00 00 00 00 02 	l.d $f0,0($2)
  4037c0:	75 00 00 00 00 00 00 04 	mul.d $f0,$f4,$f0
  4037c8:	55 00 00 00 03 02 04 00 	sll $2,$4,0x3
  4037d0:	42 00 00 00 00 02 02 0f 	addu $2,$15,$2
  4037d8:	2b 00 00 00 00 00 02 02 	l.d $f2,0($2)
  4037e0:	73 00 00 00 00 02 00 02 	sub.d $f2,$f2,$f0
  4037e8:	43 00 00 00 05 00 05 05 	addiu $5,$5,5
  4037f0:	43 00 00 00 01 00 0b 0b 	addiu $11,$11,1
  4037f8:	43 00 00 00 05 00 04 04 	addiu $4,$4,5
  403800:	37 00 00 00 00 00 02 02 	s.d $f2,0($2)
  403808:	55 00 00 00 03 02 05 00 	sll $2,$5,0x3
  403810:	42 00 00 00 00 02 02 0f 	addu $2,$15,$2
  403818:	2b 00 00 00 00 00 00 02 	l.d $f0,0($2)
  403820:	75 00 00 00 00 00 00 04 	mul.d $f0,$f4,$f0
  403828:	55 00 00 00 03 02 04 00 	sll $2,$4,0x3
  403830:	42 00 00 00 00 02 02 0f 	addu $2,$15,$2
  403838:	2b 00 00 00 00 00 02 02 	l.d $f2,0($2)
  403840:	43 00 00 00 05 00 05 05 	addiu $5,$5,5
  403848:	73 00 00 00 00 02 00 02 	sub.d $f2,$f2,$f0
  403850:	43 00 00 00 01 00 0b 0b 	addiu $11,$11,1
  403858:	5c 00 00 00 06 00 03 0b 	slti $3,$11,6
  403860:	43 00 00 00 05 00 04 04 	addiu $4,$4,5
  403868:	37 00 00 00 00 00 02 02 	s.d $f2,0($2)
  403870:	05 00 00 00 5e 00 00 03 	beq $3,$0,4039f0 <buts_+0xc28>
  403878:	55 00 00 00 03 02 05 00 	sll $2,$5,0x3
  403880:	42 00 00 00 00 02 02 0f 	addu $2,$15,$2
  403888:	2b 00 00 00 00 00 02 02 	l.d $f2,0($2)
  403890:	75 00 00 00 00 02 02 04 	mul.d $f2,$f4,$f2
  403898:	55 00 00 00 03 02 04 00 	sll $2,$4,0x3
  4038a0:	42 00 00 00 00 02 02 0f 	addu $2,$15,$2
  4038a8:	2b 00 00 00 00 00 00 02 	l.d $f0,0($2)
  4038b0:	73 00 00 00 00 00 02 00 	sub.d $f0,$f0,$f2
  4038b8:	37 00 00 00 00 00 00 02 	s.d $f0,0($2)
  4038c0:	43 00 00 00 05 00 02 05 	addiu $2,$5,5
  4038c8:	55 00 00 00 03 02 02 00 	sll $2,$2,0x3
  4038d0:	42 00 00 00 00 02 02 0f 	addu $2,$15,$2
  4038d8:	2b 00 00 00 00 00 02 02 	l.d $f2,0($2)
  4038e0:	75 00 00 00 00 02 02 04 	mul.d $f2,$f4,$f2
  4038e8:	43 00 00 00 05 00 02 04 	addiu $2,$4,5
  4038f0:	55 00 00 00 03 02 02 00 	sll $2,$2,0x3
  4038f8:	42 00 00 00 00 02 02 0f 	addu $2,$15,$2
  403900:	2b 00 00 00 00 00 00 02 	l.d $f0,0($2)
  403908:	73 00 00 00 00 00 02 00 	sub.d $f0,$f0,$f2
  403910:	37 00 00 00 00 00 00 02 	s.d $f0,0($2)
  403918:	43 00 00 00 0a 00 02 05 	addiu $2,$5,10
  403920:	55 00 00 00 03 02 02 00 	sll $2,$2,0x3
  403928:	42 00 00 00 00 02 02 0f 	addu $2,$15,$2
  403930:	2b 00 00 00 00 00 02 02 	l.d $f2,0($2)
  403938:	75 00 00 00 00 02 02 04 	mul.d $f2,$f4,$f2
  403940:	43 00 00 00 0a 00 02 04 	addiu $2,$4,10
  403948:	55 00 00 00 03 02 02 00 	sll $2,$2,0x3
  403950:	42 00 00 00 00 02 02 0f 	addu $2,$15,$2
  403958:	2b 00 00 00 00 00 00 02 	l.d $f0,0($2)
  403960:	73 00 00 00 00 00 02 00 	sub.d $f0,$f0,$f2
  403968:	37 00 00 00 00 00 00 02 	s.d $f0,0($2)
  403970:	43 00 00 00 0f 00 02 05 	addiu $2,$5,15
  403978:	55 00 00 00 03 02 02 00 	sll $2,$2,0x3
  403980:	42 00 00 00 00 02 02 0f 	addu $2,$15,$2
  403988:	2b 00 00 00 00 00 02 02 	l.d $f2,0($2)
  403990:	75 00 00 00 00 02 02 04 	mul.d $f2,$f4,$f2
  403998:	43 00 00 00 0f 00 02 04 	addiu $2,$4,15
  4039a0:	55 00 00 00 03 02 02 00 	sll $2,$2,0x3
  4039a8:	42 00 00 00 00 02 02 0f 	addu $2,$15,$2
  4039b0:	2b 00 00 00 00 00 00 02 	l.d $f0,0($2)
  4039b8:	43 00 00 00 04 00 0b 0b 	addiu $11,$11,4
  4039c0:	73 00 00 00 00 00 02 00 	sub.d $f0,$f0,$f2
  4039c8:	5c 00 00 00 06 00 03 0b 	slti $3,$11,6
  4039d0:	43 00 00 00 14 00 05 05 	addiu $5,$5,20
  4039d8:	43 00 00 00 14 00 04 04 	addiu $4,$4,20
  4039e0:	37 00 00 00 00 00 00 02 	s.d $f0,0($2)
  4039e8:	06 00 00 00 a2 ff 00 03 	bne $3,$0,403878 <buts_+0xab0>
  4039f0:	2b 00 00 00 f8 ff 00 0c 	l.d $f0,-8($12)
  4039f8:	75 00 00 00 00 00 04 00 	mul.d $f0,$f0,$f4
  403a00:	2b 00 00 00 f8 ff 02 07 	l.d $f2,-8($7)
  403a08:	73 00 00 00 00 02 00 02 	sub.d $f2,$f2,$f0
  403a10:	43 00 00 00 01 00 0d 0d 	addiu $13,$13,1
  403a18:	5c 00 00 00 06 00 02 0d 	slti $2,$13,6
  403a20:	37 00 00 00 f8 ff 02 07 	s.d $f2,-8($7)
  403a28:	43 00 00 00 08 00 07 07 	addiu $7,$7,8
  403a30:	06 00 00 00 1c ff 00 02 	bne $2,$0,4036a8 <buts_+0x8e0>
  403a38:	43 00 00 00 08 00 0a 0a 	addiu $10,$10,8
  403a40:	43 00 00 00 05 00 09 09 	addiu $9,$9,5
  403a48:	43 00 00 00 30 00 08 08 	addiu $8,$8,48
  403a50:	43 00 00 00 01 00 06 06 	addiu $6,$6,1
  403a58:	5c 00 00 00 05 00 02 06 	slti $2,$6,5
  403a60:	06 00 00 00 fc fe 00 02 	bne $2,$0,403658 <buts_+0x890>
  403a68:	43 00 00 00 05 00 0d 00 	addiu $13,$0,5
  403a70:	43 00 00 00 f0 00 08 0f 	addiu $8,$15,240
  403a78:	43 00 00 00 28 00 07 1d 	addiu $7,$29,40
  403a80:	43 00 00 00 01 00 0b 0d 	addiu $11,$13,1
  403a88:	5c 00 00 00 06 00 02 0b 	slti $2,$11,6
  403a90:	05 00 00 00 ac 00 00 02 	beq $2,$0,403d48 <buts_+0xf80>
  403a98:	55 00 00 00 03 02 0b 00 	sll $2,$11,0x3
  403aa0:	42 00 00 00 00 05 1d 02 	addu $5,$2,$29
  403aa8:	55 00 00 00 02 02 0b 00 	sll $2,$11,0x2
  403ab0:	42 00 00 00 00 02 0b 02 	addu $2,$2,$11
  403ab8:	42 00 00 00 00 04 0d 02 	addu $4,$2,$13
  403ac0:	42 00 00 00 00 06 07 00 	addu $6,$0,$7
  403ac8:	43 00 00 00 06 00 02 00 	addiu $2,$0,6
  403ad0:	45 00 00 00 00 02 0b 02 	subu $2,$2,$11
  403ad8:	4f 00 00 00 03 00 03 02 	andi $3,$2,3
  403ae0:	05 00 00 00 4e 00 00 03 	beq $3,$0,403c20 <buts_+0xe58>
  403ae8:	5c 00 00 00 02 00 02 03 	slti $2,$3,2
  403af0:	06 00 00 00 30 00 00 02 	bne $2,$0,403bb8 <buts_+0xdf0>
  403af8:	5c 00 00 00 03 00 02 03 	slti $2,$3,3
  403b00:	06 00 00 00 16 00 00 02 	bne $2,$0,403b60 <buts_+0xd98>
  403b08:	55 00 00 00 03 02 04 00 	sll $2,$4,0x3
  403b10:	42 00 00 00 00 02 02 0f 	addu $2,$15,$2
  403b18:	2b 00 00 00 00 00 02 02 	l.d $f2,0($2)
  403b20:	2b 00 00 00 f8 ff 00 05 	l.d $f0,-8($5)
  403b28:	75 00 00 00 00 02 00 02 	mul.d $f2,$f2,$f0
  403b30:	2b 00 00 00 f8 ff 00 07 	l.d $f0,-8($7)
  403b38:	73 00 00 00 00 00 02 00 	sub.d $f0,$f0,$f2
  403b40:	43 00 00 00 05 00 04 04 	addiu $4,$4,5
  403b48:	43 00 00 00 01 00 0b 0b 	addiu $11,$11,1
  403b50:	43 00 00 00 08 00 05 05 	addiu $5,$5,8
  403b58:	37 00 00 00 f8 ff 00 07 	s.d $f0,-8($7)
  403b60:	55 00 00 00 03 02 04 00 	sll $2,$4,0x3
  403b68:	42 00 00 00 00 02 02 0f 	addu $2,$15,$2
  403b70:	2b 00 00 00 00 00 02 02 	l.d $f2,0($2)
  403b78:	2b 00 00 00 f8 ff 00 05 	l.d $f0,-8($5)
  403b80:	75 00 00 00 00 02 00 02 	mul.d $f2,$f2,$f0
  403b88:	2b 00 00 00 f8 ff 00 07 	l.d $f0,-8($7)
  403b90:	73 00 00 00 00 00 02 00 	sub.d $f0,$f0,$f2
  403b98:	43 00 00 00 05 00 04 04 	addiu $4,$4,5
  403ba0:	43 00 00 00 01 00 0b 0b 	addiu $11,$11,1
  403ba8:	43 00 00 00 08 00 05 05 	addiu $5,$5,8
  403bb0:	37 00 00 00 f8 ff 00 07 	s.d $f0,-8($7)
  403bb8:	55 00 00 00 03 02 04 00 	sll $2,$4,0x3
  403bc0:	42 00 00 00 00 02 02 0f 	addu $2,$15,$2
  403bc8:	2b 00 00 00 00 00 02 02 	l.d $f2,0($2)
  403bd0:	2b 00 00 00 f8 ff 00 05 	l.d $f0,-8($5)
  403bd8:	75 00 00 00 00 02 00 02 	mul.d $f2,$f2,$f0
  403be0:	2b 00 00 00 f8 ff 00 06 	l.d $f0,-8($6)
  403be8:	43 00 00 00 05 00 04 04 	addiu $4,$4,5
  403bf0:	73 00 00 00 00 00 02 00 	sub.d $f0,$f0,$f2
  403bf8:	43 00 00 00 01 00 0b 0b 	addiu $11,$11,1
  403c00:	5c 00 00 00 06 00 02 0b 	slti $2,$11,6
  403c08:	43 00 00 00 08 00 05 05 	addiu $5,$5,8
  403c10:	37 00 00 00 f8 ff 00 06 	s.d $f0,-8($6)
  403c18:	05 00 00 00 4a 00 00 02 	beq $2,$0,403d48 <buts_+0xf80>
  403c20:	55 00 00 00 03 02 04 00 	sll $2,$4,0x3
  403c28:	42 00 00 00 00 02 02 0f 	addu $2,$15,$2
  403c30:	2b 00 00 00 00 00 02 02 	l.d $f2,0($2)
  403c38:	2b 00 00 00 f8 ff 00 05 	l.d $f0,-8($5)
  403c40:	75 00 00 00 00 02 00 02 	mul.d $f2,$f2,$f0
  403c48:	2b 00 00 00 f8 ff 04 06 	l.d $f4,-8($6)
  403c50:	73 00 00 00 00 04 02 04 	sub.d $f4,$f4,$f2
  403c58:	43 00 00 00 05 00 02 04 	addiu $2,$4,5
  403c60:	55 00 00 00 03 02 02 00 	sll $2,$2,0x3
  403c68:	42 00 00 00 00 02 02 0f 	addu $2,$15,$2
  403c70:	37 00 00 00 f8 ff 04 06 	s.d $f4,-8($6)
  403c78:	2b 00 00 00 00 00 02 02 	l.d $f2,0($2)
  403c80:	2b 00 00 00 00 00 00 05 	l.d $f0,0($5)
  403c88:	75 00 00 00 00 02 00 02 	mul.d $f2,$f2,$f0
  403c90:	73 00 00 00 00 04 02 04 	sub.d $f4,$f4,$f2
  403c98:	43 00 00 00 0a 00 02 04 	addiu $2,$4,10
  403ca0:	55 00 00 00 03 02 02 00 	sll $2,$2,0x3
  403ca8:	42 00 00 00 00 02 02 0f 	addu $2,$15,$2
  403cb0:	37 00 00 00 f8 ff 04 06 	s.d $f4,-8($6)
  403cb8:	2b 00 00 00 00 00 02 02 	l.d $f2,0($2)
  403cc0:	2b 00 00 00 08 00 00 05 	l.d $f0,8($5)
  403cc8:	75 00 00 00 00 02 00 02 	mul.d $f2,$f2,$f0
  403cd0:	73 00 00 00 00 04 02 04 	sub.d $f4,$f4,$f2
  403cd8:	43 00 00 00 0f 00 02 04 	addiu $2,$4,15
  403ce0:	55 00 00 00 03 02 02 00 	sll $2,$2,0x3
  403ce8:	42 00 00 00 00 02 02 0f 	addu $2,$15,$2
  403cf0:	37 00 00 00 f8 ff 04 06 	s.d $f4,-8($6)
  403cf8:	2b 00 00 00 00 00 02 02 	l.d $f2,0($2)
  403d00:	2b 00 00 00 10 00 00 05 	l.d $f0,16($5)
  403d08:	75 00 00 00 00 02 00 02 	mul.d $f2,$f2,$f0
  403d10:	43 00 00 00 04 00 0b 0b 	addiu $11,$11,4
  403d18:	73 00 00 00 00 04 02 04 	sub.d $f4,$f4,$f2
  403d20:	43 00 00 00 14 00 04 04 	addiu $4,$4,20
  403d28:	5c 00 00 00 06 00 02 0b 	slti $2,$11,6
  403d30:	43 00 00 00 20 00 05 05 	addiu $5,$5,32
  403d38:	37 00 00 00 f8 ff 04 06 	s.d $f4,-8($6)
  403d40:	06 00 00 00 b6 ff 00 02 	bne $2,$0,403c20 <buts_+0xe58>
  403d48:	2b 00 00 00 f8 ff 02 07 	l.d $f2,-8($7)
  403d50:	2b 00 00 00 00 00 00 08 	l.d $f0,0($8)
  403d58:	77 00 00 00 00 02 00 02 	div.d $f2,$f2,$f0
  403d60:	43 00 00 00 ff ff 0d 0d 	addiu $13,$13,-1
  403d68:	43 00 00 00 d0 ff 08 08 	addiu $8,$8,-48
  403d70:	37 00 00 00 f8 ff 02 07 	s.d $f2,-8($7)
  403d78:	43 00 00 00 f8 ff 07 07 	addiu $7,$7,-8
  403d80:	08 00 00 00 3e ff 00 0d 	bgtz $13,403a80 <buts_+0xcb8>
  403d88:	46 00 00 00 00 00 13 14 	mult $20,$19
  403d90:	4c 00 00 00 00 02 00 00 	mflo $2
  403d98:	42 00 00 00 00 02 02 18 	addu $2,$24,$2
  403da0:	55 00 00 00 02 03 02 00 	sll $3,$2,0x2
  403da8:	42 00 00 00 00 03 02 03 	addu $3,$3,$2
  403db0:	43 00 00 00 01 00 02 03 	addiu $2,$3,1
  403db8:	55 00 00 00 03 02 02 00 	sll $2,$2,0x3
  403dc0:	42 00 00 00 00 02 10 02 	addu $2,$2,$16
  403dc8:	2b 00 00 00 00 00 02 02 	l.d $f2,0($2)
  403dd0:	2b 00 00 00 00 00 00 1d 	l.d $f0,0($29)
  403dd8:	73 00 00 00 00 02 00 02 	sub.d $f2,$f2,$f0
  403de0:	37 00 00 00 00 00 02 02 	s.d $f2,0($2)
  403de8:	43 00 00 00 02 00 02 03 	addiu $2,$3,2
  403df0:	55 00 00 00 03 02 02 00 	sll $2,$2,0x3
  403df8:	42 00 00 00 00 02 10 02 	addu $2,$2,$16
  403e00:	2b 00 00 00 00 00 02 02 	l.d $f2,0($2)
  403e08:	2b 00 00 00 08 00 00 1d 	l.d $f0,8($29)
  403e10:	73 00 00 00 00 02 00 02 	sub.d $f2,$f2,$f0
  403e18:	37 00 00 00 00 00 02 02 	s.d $f2,0($2)
  403e20:	43 00 00 00 03 00 02 03 	addiu $2,$3,3
  403e28:	55 00 00 00 03 02 02 00 	sll $2,$2,0x3
  403e30:	42 00 00 00 00 02 10 02 	addu $2,$2,$16
  403e38:	2b 00 00 00 00 00 02 02 	l.d $f2,0($2)
  403e40:	2b 00 00 00 10 00 00 1d 	l.d $f0,16($29)
  403e48:	73 00 00 00 00 02 00 02 	sub.d $f2,$f2,$f0
  403e50:	37 00 00 00 00 00 02 02 	s.d $f2,0($2)
  403e58:	43 00 00 00 04 00 02 03 	addiu $2,$3,4
  403e60:	55 00 00 00 03 02 02 00 	sll $2,$2,0x3
  403e68:	42 00 00 00 00 02 10 02 	addu $2,$2,$16
  403e70:	2b 00 00 00 00 00 02 02 	l.d $f2,0($2)
  403e78:	2b 00 00 00 18 00 00 1d 	l.d $f0,24($29)
  403e80:	73 00 00 00 00 02 00 02 	sub.d $f2,$f2,$f0
  403e88:	43 00 00 00 05 00 03 03 	addiu $3,$3,5
  403e90:	55 00 00 00 03 03 03 00 	sll $3,$3,0x3
  403e98:	42 00 00 00 00 03 10 03 	addu $3,$3,$16
  403ea0:	37 00 00 00 00 00 02 02 	s.d $f2,0($2)
  403ea8:	2b 00 00 00 00 00 02 03 	l.d $f2,0($3)
  403eb0:	2b 00 00 00 20 00 00 1d 	l.d $f0,32($29)
  403eb8:	73 00 00 00 00 02 00 02 	sub.d $f2,$f2,$f0
  403ec0:	37 00 00 00 00 00 02 03 	s.d $f2,0($3)
  403ec8:	43 00 00 00 ff ff 18 18 	addiu $24,$24,-1
  403ed0:	5c 00 00 00 02 00 02 18 	slti $2,$24,2
  403ed8:	05 00 00 00 74 fc 00 02 	beq $2,$0,4030b0 <buts_+0x2e8>
  403ee0:	43 00 00 00 ff ff 14 14 	addiu $20,$20,-1
  403ee8:	43 00 00 00 ff ff 19 19 	addiu $25,$25,-1
  403ef0:	5c 00 00 00 02 00 02 19 	slti $2,$25,2
  403ef8:	05 00 00 00 56 fc 00 02 	beq $2,$0,403058 <buts_+0x290>
  403f00:	28 00 00 00 08 01 11 1d 	lw $17,264($29)
  403f08:	28 00 00 00 80 01 17 1d 	lw $23,384($29)
  403f10:	45 00 00 00 00 1e 11 1e 	subu $30,$30,$17
  403f18:	28 00 00 00 18 01 11 1d 	lw $17,280($29)
  403f20:	45 00 00 00 00 17 11 17 	subu $23,$23,$17
  403f28:	34 00 00 00 80 01 17 1d 	sw $23,384($29)
  403f30:	28 00 00 00 28 01 17 1d 	lw $23,296($29)
  403f38:	28 00 00 00 f8 00 11 1d 	lw $17,248($29)
  403f40:	45 00 00 00 00 15 17 15 	subu $21,$21,$23
  403f48:	45 00 00 00 00 02 11 00 	subu $2,$0,$17
  403f50:	28 00 00 00 68 01 17 1d 	lw $23,360($29)
  403f58:	28 00 00 00 70 01 11 1d 	lw $17,368($29)
  403f60:	42 00 00 00 00 17 02 17 	addu $23,$23,$2
  403f68:	34 00 00 00 68 01 17 1d 	sw $23,360($29)
  403f70:	28 00 00 00 38 01 17 1d 	lw $23,312($29)
  403f78:	45 00 00 00 00 11 17 11 	subu $17,$17,$23
  403f80:	34 00 00 00 70 01 11 1d 	sw $17,368($29)
  403f88:	28 00 00 00 40 01 11 1d 	lw $17,320($29)
  403f90:	42 00 00 00 00 16 02 16 	addu $22,$22,$2
  403f98:	43 00 00 00 ff ff 11 11 	addiu $17,$17,-1
  403fa0:	5c 00 00 00 02 00 02 11 	slti $2,$17,2
  403fa8:	34 00 00 00 40 01 11 1d 	sw $17,320($29)
  403fb0:	05 00 00 00 12 fc 00 02 	beq $2,$0,403000 <buts_+0x238>
  403fb8:	42 00 00 00 00 02 00 00 	addu $2,$0,$0
  403fc0:	28 00 00 00 a8 01 1e 1d 	lw $30,424($29)
  403fc8:	28 00 00 00 a4 01 17 1d 	lw $23,420($29)
  403fd0:	28 00 00 00 a0 01 16 1d 	lw $22,416($29)
  403fd8:	28 00 00 00 9c 01 15 1d 	lw $21,412($29)
  403fe0:	28 00 00 00 98 01 14 1d 	lw $20,408($29)
  403fe8:	28 00 00 00 94 01 13 1d 	lw $19,404($29)
  403ff0:	28 00 00 00 90 01 12 1d 	lw $18,400($29)
  403ff8:	28 00 00 00 8c 01 11 1d 	lw $17,396($29)
  404000:	28 00 00 00 88 01 10 1d 	lw $16,392($29)
  404008:	43 00 00 00 b0 01 1d 1d 	addiu $29,$29,432
  404010:	03 00 00 00 00 00 00 1f 	jr $31

00404018 <erhs_>:
  404018:	43 00 00 00 98 f4 1d 1d 	addiu $29,$29,-2920
  404020:	34 00 00 00 18 0b 12 1d 	sw $18,2840($29)
  404028:	a2 00 00 00 42 10 12 00 	lui $18,4162
  404030:	28 00 00 00 f8 2c 12 12 	lw $18,11512($18)
  404038:	37 00 00 00 60 0b 1e 1d 	s.d $f30,2912($29)
  404040:	a2 00 00 00 f9 11 01 00 	lui $1,4601
  404048:	2b 00 00 00 b8 dd 1e 01 	l.d $f30,-8776($1)
  404050:	34 00 00 00 14 0b 11 1d 	sw $17,2836($29)
  404058:	43 00 00 00 01 00 11 00 	addiu $17,$0,1
  404060:	34 00 00 00 30 0b 1e 1d 	sw $30,2864($29)
  404068:	34 00 00 00 2c 0b 17 1d 	sw $23,2860($29)
  404070:	34 00 00 00 28 0b 16 1d 	sw $22,2856($29)
  404078:	34 00 00 00 24 0b 15 1d 	sw $21,2852($29)
  404080:	34 00 00 00 20 0b 14 1d 	sw $20,2848($29)
  404088:	34 00 00 00 1c 0b 13 1d 	sw $19,2844($29)
  404090:	34 00 00 00 10 0b 10 1d 	sw $16,2832($29)
  404098:	37 00 00 00 58 0b 1c 1d 	s.d $f28,2904($29)
  4040a0:	37 00 00 00 50 0b 1a 1d 	s.d $f26,2896($29)
  4040a8:	37 00 00 00 48 0b 18 1d 	s.d $f24,2888($29)
  4040b0:	37 00 00 00 40 0b 16 1d 	s.d $f22,2880($29)
  4040b8:	37 00 00 00 38 0b 14 1d 	s.d $f20,2872($29)
  4040c0:	34 00 00 00 50 0a 12 1d 	sw $18,2640($29)
  4040c8:	07 00 00 00 ea 00 00 12 	blez $18,404478 <erhs_+0x460>
  4040d0:	43 00 00 00 21 00 09 00 	addiu $9,$0,33
  4040d8:	a2 00 00 00 42 10 1e 00 	lui $30,4162
  4040e0:	28 00 00 00 f4 2c 1e 1e 	lw $30,11508($30)
  4040e8:	43 00 00 00 01 00 19 00 	addiu $25,$0,1
  4040f0:	07 00 00 00 d6 00 00 1e 	blez $30,404450 <erhs_+0x438>
  4040f8:	42 00 00 00 00 0a 09 00 	addu $10,$0,$9
  404100:	a2 00 00 00 42 10 0f 00 	lui $15,4162
  404108:	28 00 00 00 f0 2c 0f 0f 	lw $15,11504($15)
  404110:	43 00 00 00 01 00 18 00 	addiu $24,$0,1
  404118:	07 00 00 00 c6 00 00 0f 	blez $15,404438 <erhs_+0x420>
  404120:	42 00 00 00 00 02 19 0a 	addu $2,$10,$25
  404128:	55 00 00 00 05 03 02 00 	sll $3,$2,0x5
  404130:	42 00 00 00 00 08 02 03 	addu $8,$3,$2
  404138:	43 00 00 00 01 00 02 0f 	addiu $2,$15,1
  404140:	4f 00 00 00 01 00 03 0f 	andi $3,$15,1
  404148:	5b 00 00 00 00 02 02 18 	slt $2,$24,$2
  404150:	05 00 00 00 02 00 00 02 	beq $2,$0,404160 <erhs_+0x148>
  404158:	05 00 00 00 3e 00 00 03 	beq $3,$0,404258 <erhs_+0x240>
  404160:	43 00 00 00 01 00 02 08 	addiu $2,$8,1
  404168:	55 00 00 00 02 03 02 00 	sll $3,$2,0x2
  404170:	42 00 00 00 00 03 02 03 	addu $3,$3,$2
  404178:	43 00 00 00 01 00 04 03 	addiu $4,$3,1
  404180:	55 00 00 00 03 07 04 00 	sll $7,$4,0x3
  404188:	43 00 00 00 02 00 04 03 	addiu $4,$3,2
  404190:	55 00 00 00 03 06 04 00 	sll $6,$4,0x3
  404198:	43 00 00 00 03 00 04 03 	addiu $4,$3,3
  4041a0:	55 00 00 00 03 05 04 00 	sll $5,$4,0x3
  4041a8:	43 00 00 00 04 00 04 03 	addiu $4,$3,4
  4041b0:	55 00 00 00 03 04 04 00 	sll $4,$4,0x3
  4041b8:	43 00 00 00 05 00 02 03 	addiu $2,$3,5
  4041c0:	55 00 00 00 03 02 02 00 	sll $2,$2,0x3
  4041c8:	a2 00 00 00 2c 10 01 00 	lui $1,4140
  4041d0:	42 00 00 00 00 01 01 07 	addu $1,$7,$1
  4041d8:	38 00 00 00 30 8c 00 01 	dsz -29648($1)
  4041e0:	a2 00 00 00 2c 10 01 00 	lui $1,4140
  4041e8:	42 00 00 00 00 01 01 06 	addu $1,$6,$1
  4041f0:	38 00 00 00 30 8c 00 01 	dsz -29648($1)
  4041f8:	a2 00 00 00 2c 10 01 00 	lui $1,4140
  404200:	42 00 00 00 00 01 01 05 	addu $1,$5,$1
  404208:	38 00 00 00 30 8c 00 01 	dsz -29648($1)
  404210:	a2 00 00 00 2c 10 01 00 	lui $1,4140
  404218:	42 00 00 00 00 01 01 04 	addu $1,$4,$1
  404220:	38 00 00 00 30 8c 00 01 	dsz -29648($1)
  404228:	a2 00 00 00 2c 10 01 00 	lui $1,4140
  404230:	42 00 00 00 00 01 01 02 	addu $1,$2,$1
  404238:	38 00 00 00 30 8c 00 01 	dsz -29648($1)
  404240:	43 00 00 00 02 00 18 00 	addiu $24,$0,2
  404248:	5c 00 00 00 02 00 02 0f 	slti $2,$15,2
  404250:	06 00 00 00 78 00 00 02 	bne $2,$0,404438 <erhs_+0x420>
  404258:	42 00 00 00 00 03 18 08 	addu $3,$8,$24
  404260:	55 00 00 00 02 02 03 00 	sll $2,$3,0x2
  404268:	42 00 00 00 00 02 03 02 	addu $2,$2,$3
  404270:	43 00 00 00 01 00 04 02 	addiu $4,$2,1
  404278:	55 00 00 00 03 07 04 00 	sll $7,$4,0x3
  404280:	43 00 00 00 02 00 04 02 	addiu $4,$2,2
  404288:	55 00 00 00 03 06 04 00 	sll $6,$4,0x3
  404290:	43 00 00 00 03 00 04 02 	addiu $4,$2,3
  404298:	55 00 00 00 03 05 04 00 	sll $5,$4,0x3
  4042a0:	43 00 00 00 04 00 04 02 	addiu $4,$2,4
  4042a8:	55 00 00 00 03 04 04 00 	sll $4,$4,0x3
  4042b0:	43 00 00 00 05 00 02 02 	addiu $2,$2,5
  4042b8:	55 00 00 00 03 02 02 00 	sll $2,$2,0x3
  4042c0:	a2 00 00 00 2c 10 01 00 	lui $1,4140
  4042c8:	42 00 00 00 00 01 01 07 	addu $1,$7,$1
  4042d0:	38 00 00 00 30 8c 00 01 	dsz -29648($1)
  4042d8:	a2 00 00 00 2c 10 01 00 	lui $1,4140
  4042e0:	42 00 00 00 00 01 01 06 	addu $1,$6,$1
  4042e8:	38 00 00 00 30 8c 00 01 	dsz -29648($1)
  4042f0:	a2 00 00 00 2c 10 01 00 	lui $1,4140
  4042f8:	42 00 00 00 00 01 01 05 	addu $1,$5,$1
  404300:	38 00 00 00 30 8c 00 01 	dsz -29648($1)
  404308:	a2 00 00 00 2c 10 01 00 	lui $1,4140
  404310:	42 00 00 00 00 01 01 04 	addu $1,$4,$1
  404318:	38 00 00 00 30 8c 00 01 	dsz -29648($1)
  404320:	a2 00 00 00 2c 10 01 00 	lui $1,4140
  404328:	42 00 00 00 00 01 01 02 	addu $1,$2,$1
  404330:	38 00 00 00 30 8c 00 01 	dsz -29648($1)
  404338:	43 00 00 00 01 00 02 18 	addiu $2,$24,1
  404340:	42 00 00 00 00 02 02 08 	addu $2,$8,$2
  404348:	55 00 00 00 02 03 02 00 	sll $3,$2,0x2
  404350:	42 00 00 00 00 03 02 03 	addu $3,$3,$2
  404358:	43 00 00 00 01 00 04 03 	addiu $4,$3,1
  404360:	55 00 00 00 03 07 04 00 	sll $7,$4,0x3
  404368:	43 00 00 00 02 00 04 03 	addiu $4,$3,2
  404370:	55 00 00 00 03 06 04 00 	sll $6,$4,0x3
  404378:	43 00 00 00 03 00 04 03 	addiu $4,$3,3
  404380:	55 00 00 00 03 05 04 00 	sll $5,$4,0x3
  404388:	43 00 00 00 04 00 04 03 	addiu $4,$3,4
  404390:	55 00 00 00 03 04 04 00 	sll $4,$4,0x3
  404398:	43 00 00 00 05 00 02 03 	addiu $2,$3,5
  4043a0:	55 00 00 00 03 02 02 00 	sll $2,$2,0x3
  4043a8:	a2 00 00 00 2c 10 01 00 	lui $1,4140
  4043b0:	42 00 00 00 00 01 01 07 	addu $1,$7,$1
  4043b8:	38 00 00 00 30 8c 00 01 	dsz -29648($1)
  4043c0:	a2 00 00 00 2c 10 01 00 	lui $1,4140
  4043c8:	42 00 00 00 00 01 01 06 	addu $1,$6,$1
  4043d0:	38 00 00 00 30 8c 00 01 	dsz -29648($1)
  4043d8:	a2 00 00 00 2c 10 01 00 	lui $1,4140
  4043e0:	42 00 00 00 00 01 01 05 	addu $1,$5,$1
  4043e8:	38 00 00 00 30 8c 00 01 	dsz -29648($1)
  4043f0:	a2 00 00 00 2c 10 01 00 	lui $1,4140
  4043f8:	42 00 00 00 00 01 01 04 	addu $1,$4,$1
  404400:	38 00 00 00 30 8c 00 01 	dsz -29648($1)
  404408:	a2 00 00 00 2c 10 01 00 	lui $1,4140
  404410:	42 00 00 00 00 01 01 02 	addu $1,$2,$1
  404418:	38 00 00 00 30 8c 00 01 	dsz -29648($1)
  404420:	43 00 00 00 02 00 18 18 	addiu $24,$24,2
  404428:	5b 00 00 00 00 02 18 0f 	slt $2,$15,$24
  404430:	05 00 00 00 88 ff 00 02 	beq $2,$0,404258 <erhs_+0x240>
  404438:	43 00 00 00 01 00 19 19 	addiu $25,$25,1
  404440:	5b 00 00 00 00 02 19 1e 	slt $2,$30,$25
  404448:	05 00 00 00 2c ff 00 02 	beq $2,$0,404100 <erhs_+0xe8>
  404450:	28 00 00 00 50 0a 12 1d 	lw $18,2640($29)
  404458:	43 00 00 00 21 00 09 09 	addiu $9,$9,33
  404460:	43 00 00 00 01 00 11 11 	addiu $17,$17,1
  404468:	5b 00 00 00 00 02 11 12 	slt $2,$18,$17
  404470:	05 00 00 00 18 ff 00 02 	beq $2,$0,4040d8 <erhs_+0xc0>
  404478:	a2 00 00 00 42 10 03 00 	lui $3,4162
  404480:	43 00 00 00 f8 2c 03 03 	addiu $3,$3,11512
  404488:	28 00 00 00 00 00 02 03 	lw $2,0($3)
  404490:	43 00 00 00 02 00 11 00 	addiu $17,$0,2
  404498:	43 00 00 00 ff ff 02 02 	addiu $2,$2,-1
  4044a0:	34 00 00 00 50 0a 02 1d 	sw $2,2640($29)
  4044a8:	5c 00 00 00 02 00 02 02 	slti $2,$2,2
  4044b0:	06 00 00 00 6e 06 00 02 	bne $2,$0,405e70 <erhs_+0x1e58>
  4044b8:	43 00 00 00 00 05 12 1d 	addiu $18,$29,1280
  4044c0:	34 00 00 00 58 0a 12 1d 	sw $18,2648($29)
  4044c8:	43 00 00 00 08 05 12 1d 	addiu $18,$29,1288
  4044d0:	34 00 00 00 60 0a 12 1d 	sw $18,2656($29)
  4044d8:	43 00 00 00 10 05 12 1d 	addiu $18,$29,1296
  4044e0:	43 00 00 00 18 05 17 1d 	addiu $23,$29,1304
  4044e8:	43 00 00 00 20 05 13 1d 	addiu $19,$29,1312
  4044f0:	a2 00 00 00 f9 11 16 00 	lui $22,4601
  4044f8:	43 00 00 00 40 dd 16 16 	addiu $22,$22,-8896
  404500:	43 00 00 00 38 00 14 03 	addiu $20,$3,56
  404508:	43 00 00 00 42 00 15 00 	addiu $21,$0,66
  404510:	34 00 00 00 68 0a 12 1d 	sw $18,2664($29)
  404518:	a2 00 00 00 42 10 03 00 	lui $3,4162
  404520:	28 00 00 00 f8 2c 03 03 	lw $3,11512($3)
  404528:	43 00 00 00 ff ff 02 11 	addiu $2,$17,-1
  404530:	a5 00 00 00 00 00 02 02 	mtc1 $2,$f2
  404538:	83 00 00 00 00 02 00 02 	cvt.d.w $f2,$f2
  404540:	43 00 00 00 ff ff 03 03 	addiu $3,$3,-1
  404548:	a5 00 00 00 00 00 03 00 	mtc1 $3,$f0
  404550:	83 00 00 00 00 00 00 00 	cvt.d.w $f0,$f0
  404558:	77 00 00 00 00 1c 00 02 	div.d $f28,$f2,$f0
  404560:	a2 00 00 00 42 10 02 00 	lui $2,4162
  404568:	28 00 00 00 f4 2c 02 02 	lw $2,11508($2)
  404570:	43 00 00 00 02 00 19 00 	addiu $25,$0,2
  404578:	43 00 00 00 ff ff 1e 02 	addiu $30,$2,-1
  404580:	5c 00 00 00 02 00 02 1e 	slti $2,$30,2
  404588:	06 00 00 00 2e 06 00 02 	bne $2,$0,405e48 <erhs_+0x1e30>
  404590:	43 00 00 00 30 05 12 1d 	addiu $18,$29,1328
  404598:	34 00 00 00 70 0a 12 1d 	sw $18,2672($29)
  4045a0:	43 00 00 00 38 05 12 1d 	addiu $18,$29,1336
  4045a8:	34 00 00 00 78 0a 12 1d 	sw $18,2680($29)
  4045b0:	43 00 00 00 40 05 12 1d 	addiu $18,$29,1344
  4045b8:	34 00 00 00 80 0a 12 1d 	sw $18,2688($29)
  4045c0:	43 00 00 00 48 05 12 1d 	addiu $18,$29,1352
  4045c8:	34 00 00 00 88 0a 12 1d 	sw $18,2696($29)
  4045d0:	a2 00 00 00 42 10 03 00 	lui $3,4162
  4045d8:	28 00 00 00 f4 2c 03 03 	lw $3,11508($3)
  4045e0:	43 00 00 00 ff ff 02 19 	addiu $2,$25,-1
  4045e8:	a5 00 00 00 00 00 02 02 	mtc1 $2,$f2
  4045f0:	83 00 00 00 00 02 00 02 	cvt.d.w $f2,$f2
  4045f8:	43 00 00 00 ff ff 03 03 	addiu $3,$3,-1
  404600:	a5 00 00 00 00 00 03 00 	mtc1 $3,$f0
  404608:	83 00 00 00 00 00 00 00 	cvt.d.w $f0,$f0
  404610:	77 00 00 00 00 1a 00 02 	div.d $f26,$f2,$f0
  404618:	a2 00 00 00 42 10 0f 00 	lui $15,4162
  404620:	28 00 00 00 f0 2c 0f 0f 	lw $15,11504($15)
  404628:	43 00 00 00 01 00 18 00 	addiu $24,$0,1
  404630:	07 00 00 00 5c 01 00 0f 	blez $15,404ba8 <erhs_+0xb90>
  404638:	43 00 00 00 28 00 04 1d 	addiu $4,$29,40
  404640:	43 00 00 00 28 00 07 00 	addiu $7,$0,40
  404648:	43 00 00 00 05 00 10 00 	addiu $16,$0,5
  404650:	43 00 00 00 01 00 05 00 	addiu $5,$0,1
  404658:	a2 00 00 00 42 10 12 00 	lui $18,4162
  404660:	43 00 00 00 b8 2c 12 12 	addiu $18,$18,11448
  404668:	43 00 00 00 08 00 0e 12 	addiu $14,$18,8
  404670:	a2 00 00 00 42 10 12 00 	lui $18,4162
  404678:	43 00 00 00 c8 2b 12 12 	addiu $18,$18,11208
  404680:	43 00 00 00 08 00 0d 12 	addiu $13,$18,8
  404688:	a2 00 00 00 42 10 0c 00 	lui $12,4162
  404690:	43 00 00 00 a8 2b 0c 0c 	addiu $12,$12,11176
  404698:	a2 00 00 00 42 10 12 00 	lui $18,4162
  4046a0:	43 00 00 00 78 2b 12 12 	addiu $18,$18,11128
  4046a8:	43 00 00 00 08 00 0b 12 	addiu $11,$18,8
  4046b0:	a2 00 00 00 42 10 12 00 	lui $18,4162
  4046b8:	43 00 00 00 50 2b 12 12 	addiu $18,$18,11088
  4046c0:	43 00 00 00 08 00 0a 12 	addiu $10,$18,8
  4046c8:	a2 00 00 00 42 10 12 00 	lui $18,4162
  4046d0:	43 00 00 00 28 2b 12 12 	addiu $18,$18,11048
  4046d8:	43 00 00 00 08 00 09 12 	addiu $9,$18,8
  4046e0:	a2 00 00 00 42 10 12 00 	lui $18,4162
  4046e8:	43 00 00 00 d8 2a 12 12 	addiu $18,$18,10968
  4046f0:	43 00 00 00 08 00 08 12 	addiu $8,$18,8
  4046f8:	a2 00 00 00 42 10 12 00 	lui $18,4162
  404700:	43 00 00 00 00 2b 12 12 	addiu $18,$18,11008
  404708:	43 00 00 00 08 00 06 12 	addiu $6,$18,8
  404710:	a2 00 00 00 42 10 03 00 	lui $3,4162
  404718:	28 00 00 00 f0 2c 03 03 	lw $3,11504($3)
  404720:	43 00 00 00 ff ff 02 18 	addiu $2,$24,-1
  404728:	a5 00 00 00 00 00 02 02 	mtc1 $2,$f2
  404730:	83 00 00 00 00 02 00 02 	cvt.d.w $f2,$f2
  404738:	34 00 00 00 08 0b 10 1d 	sw $16,2824($29)
  404740:	43 00 00 00 ff ff 03 03 	addiu $3,$3,-1
  404748:	a5 00 00 00 00 00 03 00 	mtc1 $3,$f0
  404750:	83 00 00 00 00 00 00 00 	cvt.d.w $f0,$f0
  404758:	77 00 00 00 00 18 00 02 	div.d $f24,$f2,$f0
  404760:	2b 00 00 00 00 00 16 06 	l.d $f22,0($6)
  404768:	75 00 00 00 00 16 18 16 	mul.d $f22,$f22,$f24
  404770:	2b 00 00 00 00 00 14 09 	l.d $f20,0($9)
  404778:	75 00 00 00 00 14 1a 14 	mul.d $f20,$f20,$f26
  404780:	2b 00 00 00 00 00 12 0b 	l.d $f18,0($11)
  404788:	75 00 00 00 00 12 18 12 	mul.d $f18,$f18,$f24
  404790:	2b 00 00 00 00 00 02 0a 	l.d $f2,0($10)
  404798:	75 00 00 00 00 02 1c 02 	mul.d $f2,$f2,$f28
  4047a0:	2b 00 00 00 00 00 10 0c 	l.d $f16,0($12)
  4047a8:	75 00 00 00 00 10 1a 10 	mul.d $f16,$f16,$f26
  4047b0:	2b 00 00 00 00 00 0e 0d 	l.d $f14,0($13)
  4047b8:	75 00 00 00 00 0e 1c 0e 	mul.d $f14,$f14,$f28
  4047c0:	55 00 00 00 03 03 05 00 	sll $3,$5,0x3
  4047c8:	a2 00 00 00 42 10 12 00 	lui $18,4162
  4047d0:	43 00 00 00 f0 2b 12 12 	addiu $18,$18,11248
  4047d8:	42 00 00 00 00 02 12 03 	addu $2,$3,$18
  4047e0:	2b 00 00 00 00 00 0c 02 	l.d $f12,0($2)
  4047e8:	75 00 00 00 00 0c 18 0c 	mul.d $f12,$f12,$f24
  4047f0:	a2 00 00 00 42 10 12 00 	lui $18,4162
  4047f8:	43 00 00 00 18 2c 12 12 	addiu $18,$18,11288
  404800:	42 00 00 00 00 02 12 03 	addu $2,$3,$18
  404808:	2b 00 00 00 00 00 0a 02 	l.d $f10,0($2)
  404810:	75 00 00 00 00 0a 1a 0a 	mul.d $f10,$f10,$f26
  404818:	a2 00 00 00 42 10 12 00 	lui $18,4162
  404820:	43 00 00 00 40 2c 12 12 	addiu $18,$18,11328
  404828:	42 00 00 00 00 02 12 03 	addu $2,$3,$18
  404830:	2b 00 00 00 00 00 08 02 	l.d $f8,0($2)
  404838:	75 00 00 00 00 08 1c 08 	mul.d $f8,$f8,$f28
  404840:	a2 00 00 00 42 10 12 00 	lui $18,4162
  404848:	43 00 00 00 68 2c 12 12 	addiu $18,$18,11368
  404850:	42 00 00 00 00 02 12 03 	addu $2,$3,$18
  404858:	2b 00 00 00 00 00 06 02 	l.d $f6,0($2)
  404860:	75 00 00 00 00 06 18 06 	mul.d $f6,$f6,$f24
  404868:	a2 00 00 00 42 10 12 00 	lui $18,4162
  404870:	43 00 00 00 90 2c 12 12 	addiu $18,$18,11408
  404878:	42 00 00 00 00 03 12 03 	addu $3,$3,$18
  404880:	2b 00 00 00 00 00 04 03 	l.d $f4,0($3)
  404888:	75 00 00 00 00 04 1a 04 	mul.d $f4,$f4,$f26
  404890:	75 00 00 00 00 12 18 12 	mul.d $f18,$f18,$f24
  404898:	75 00 00 00 00 10 1a 10 	mul.d $f16,$f16,$f26
  4048a0:	75 00 00 00 00 0e 1c 0e 	mul.d $f14,$f14,$f28
  4048a8:	75 00 00 00 00 0c 18 0c 	mul.d $f12,$f12,$f24
  4048b0:	75 00 00 00 00 0a 1a 0a 	mul.d $f10,$f10,$f26
  4048b8:	75 00 00 00 00 08 1c 08 	mul.d $f8,$f8,$f28
  4048c0:	75 00 00 00 00 06 18 06 	mul.d $f6,$f6,$f24
  4048c8:	75 00 00 00 00 04 1a 04 	mul.d $f4,$f4,$f26
  4048d0:	75 00 00 00 00 0c 18 0c 	mul.d $f12,$f12,$f24
  4048d8:	2b 00 00 00 00 00 00 08 	l.d $f0,0($8)
  4048e0:	75 00 00 00 00 0a 1a 0a 	mul.d $f10,$f10,$f26
  4048e8:	71 00 00 00 00 00 16 00 	add.d $f0,$f0,$f22
  4048f0:	71 00 00 00 00 00 14 00 	add.d $f0,$f0,$f20
  4048f8:	75 00 00 00 00 08 1c 08 	mul.d $f8,$f8,$f28
  404900:	71 00 00 00 00 00 02 00 	add.d $f0,$f0,$f2
  404908:	2b 00 00 00 00 00 02 0e 	l.d $f2,0($14)
  404910:	75 00 00 00 00 02 1c 02 	mul.d $f2,$f2,$f28
  404918:	75 00 00 00 00 06 18 06 	mul.d $f6,$f6,$f24
  404920:	75 00 00 00 00 04 1a 04 	mul.d $f4,$f4,$f26
  404928:	75 00 00 00 00 02 1c 02 	mul.d $f2,$f2,$f28
  404930:	71 00 00 00 00 00 12 00 	add.d $f0,$f0,$f18
  404938:	75 00 00 00 00 06 18 06 	mul.d $f6,$f6,$f24
  404940:	71 00 00 00 00 00 10 00 	add.d $f0,$f0,$f16
  404948:	71 00 00 00 00 00 0e 00 	add.d $f0,$f0,$f14
  404950:	75 00 00 00 00 04 1a 04 	mul.d $f4,$f4,$f26
  404958:	71 00 00 00 00 00 0c 00 	add.d $f0,$f0,$f12
  404960:	71 00 00 00 00 00 0a 00 	add.d $f0,$f0,$f10
  404968:	75 00 00 00 00 02 1c 02 	mul.d $f2,$f2,$f28
  404970:	43 00 00 00 08 00 0d 0d 	addiu $13,$13,8
  404978:	71 00 00 00 00 00 08 00 	add.d $f0,$f0,$f8
  404980:	43 00 00 00 08 00 0c 0c 	addiu $12,$12,8
  404988:	43 00 00 00 08 00 0b 0b 	addiu $11,$11,8
  404990:	43 00 00 00 08 00 0a 0a 	addiu $10,$10,8
  404998:	71 00 00 00 00 00 06 00 	add.d $f0,$f0,$f6
  4049a0:	75 00 00 00 00 02 1c 02 	mul.d $f2,$f2,$f28
  4049a8:	43 00 00 00 08 00 09 09 	addiu $9,$9,8
  4049b0:	43 00 00 00 08 00 08 08 	addiu $8,$8,8
  4049b8:	28 00 00 00 08 0b 12 1d 	lw $18,2824($29)
  4049c0:	71 00 00 00 00 00 04 00 	add.d $f0,$f0,$f4
  4049c8:	43 00 00 00 08 00 06 06 	addiu $6,$6,8
  4049d0:	42 00 00 00 00 02 05 12 	addu $2,$18,$5
  4049d8:	43 00 00 00 01 00 05 05 	addiu $5,$5,1
  4049e0:	71 00 00 00 00 00 02 00 	add.d $f0,$f0,$f2
  4049e8:	55 00 00 00 03 02 02 00 	sll $2,$2,0x3
  4049f0:	42 00 00 00 00 02 1d 02 	addu $2,$2,$29
  4049f8:	43 00 00 00 08 00 0e 0e 	addiu $14,$14,8
  404a00:	37 00 00 00 d0 ff 00 02 	s.d $f0,-48($2)
  404a08:	5c 00 00 00 06 00 02 05 	slti $2,$5,6
  404a10:	06 00 00 00 52 ff 00 02 	bne $2,$0,404760 <erhs_+0x748>
  404a18:	28 00 00 00 58 0a 12 1d 	lw $18,2648($29)
  404a20:	2b 00 00 00 e0 ff 00 04 	l.d $f0,-32($4)
  404a28:	42 00 00 00 00 02 07 12 	addu $2,$18,$7
  404a30:	37 00 00 00 00 00 00 02 	s.d $f0,0($2)
  404a38:	2b 00 00 00 e0 ff 06 04 	l.d $f6,-32($4)
  404a40:	2b 00 00 00 d8 ff 08 04 	l.d $f8,-40($4)
  404a48:	77 00 00 00 00 0a 08 06 	div.d $f10,$f6,$f8
  404a50:	75 00 00 00 00 02 06 06 	mul.d $f2,$f6,$f6
  404a58:	2b 00 00 00 e8 ff 04 04 	l.d $f4,-24($4)
  404a60:	75 00 00 00 00 04 04 04 	mul.d $f4,$f4,$f4
  404a68:	2b 00 00 00 f0 ff 00 04 	l.d $f0,-16($4)
  404a70:	75 00 00 00 00 00 00 00 	mul.d $f0,$f0,$f0
  404a78:	71 00 00 00 00 02 04 02 	add.d $f2,$f2,$f4
  404a80:	71 00 00 00 00 02 00 02 	add.d $f2,$f2,$f0
  404a88:	2b 00 00 00 b0 80 16 1c 	l.d $f22,-32592($28)
  404a90:	75 00 00 00 00 02 16 02 	mul.d $f2,$f2,$f22
  404a98:	77 00 00 00 00 08 08 02 	div.d $f8,$f2,$f8
  404aa0:	75 00 00 00 00 06 0a 06 	mul.d $f6,$f6,$f10
  404aa8:	2b 00 00 00 f8 ff 00 04 	l.d $f0,-8($4)
  404ab0:	73 00 00 00 00 00 08 00 	sub.d $f0,$f0,$f8
  404ab8:	2b 00 00 00 b8 80 16 1c 	l.d $f22,-32584($28)
  404ac0:	75 00 00 00 00 00 16 00 	mul.d $f0,$f0,$f22
  404ac8:	28 00 00 00 60 0a 12 1d 	lw $18,2656($29)
  404ad0:	71 00 00 00 00 06 00 06 	add.d $f6,$f6,$f0
  404ad8:	42 00 00 00 00 02 07 12 	addu $2,$18,$7
  404ae0:	37 00 00 00 00 00 06 02 	s.d $f6,0($2)
  404ae8:	2b 00 00 00 e8 ff 00 04 	l.d $f0,-24($4)
  404af0:	75 00 00 00 00 00 0a 00 	mul.d $f0,$f0,$f10
  404af8:	28 00 00 00 68 0a 12 1d 	lw $18,2664($29)
  404b00:	42 00 00 00 00 02 07 12 	addu $2,$18,$7
  404b08:	37 00 00 00 00 00 00 02 	s.d $f0,0($2)
  404b10:	2b 00 00 00 f0 ff 00 04 	l.d $f0,-16($4)
  404b18:	75 00 00 00 00 00 0a 00 	mul.d $f0,$f0,$f10
  404b20:	2b 00 00 00 c0 80 16 1c 	l.d $f22,-32576($28)
  404b28:	42 00 00 00 00 02 07 17 	addu $2,$23,$7
  404b30:	37 00 00 00 00 00 00 02 	s.d $f0,0($2)
  404b38:	2b 00 00 00 f8 ff 02 04 	l.d $f2,-8($4)
  404b40:	75 00 00 00 00 02 16 02 	mul.d $f2,$f2,$f22
  404b48:	2b 00 00 00 b8 80 16 1c 	l.d $f22,-32584($28)
  404b50:	75 00 00 00 00 00 16 08 	mul.d $f0,$f8,$f22
  404b58:	73 00 00 00 00 02 00 02 	sub.d $f2,$f2,$f0
  404b60:	75 00 00 00 00 02 0a 02 	mul.d $f2,$f2,$f10
  404b68:	43 00 00 00 05 00 10 10 	addiu $16,$16,5
  404b70:	43 00 00 00 01 00 18 18 	addiu $24,$24,1
  404b78:	42 00 00 00 00 02 07 13 	addu $2,$19,$7
  404b80:	43 00 00 00 28 00 07 07 	addiu $7,$7,40
  404b88:	43 00 00 00 28 00 04 04 	addiu $4,$4,40
  404b90:	37 00 00 00 00 00 02 02 	s.d $f2,0($2)
  404b98:	5b 00 00 00 00 02 18 0f 	slt $2,$15,$24
  404ba0:	05 00 00 00 aa fe 00 02 	beq $2,$0,404650 <erhs_+0x638>
  404ba8:	a2 00 00 00 42 10 02 00 	lui $2,4162
  404bb0:	28 00 00 00 f0 2c 02 02 	lw $2,11504($2)
  404bb8:	43 00 00 00 02 00 18 00 	addiu $24,$0,2
  404bc0:	43 00 00 00 ff ff 0f 02 	addiu $15,$2,-1
  404bc8:	5c 00 00 00 02 00 02 0f 	slti $2,$15,2
  404bd0:	06 00 00 00 88 00 00 02 	bne $2,$0,404df8 <erhs_+0xde0>
  404bd8:	42 00 00 00 00 02 19 15 	addu $2,$21,$25
  404be0:	55 00 00 00 05 03 02 00 	sll $3,$2,0x5
  404be8:	42 00 00 00 00 0b 02 03 	addu $11,$3,$2
  404bf0:	43 00 00 00 0a 00 08 00 	addiu $8,$0,10
  404bf8:	43 00 00 00 d0 04 07 1d 	addiu $7,$29,1232
  404c00:	43 00 00 00 01 00 02 08 	addiu $2,$8,1
  404c08:	55 00 00 00 03 02 02 00 	sll $2,$2,0x3
  404c10:	42 00 00 00 00 03 02 13 	addu $3,$19,$2
  404c18:	42 00 00 00 00 02 02 07 	addu $2,$7,$2
  404c20:	2b 00 00 00 00 00 02 03 	l.d $f2,0($3)
  404c28:	2b 00 00 00 00 00 00 02 	l.d $f0,0($2)
  404c30:	a2 00 00 00 42 10 01 00 	lui $1,4162
  404c38:	2b 00 00 00 38 2d 04 01 	l.d $f4,11576($1)
  404c40:	73 00 00 00 00 02 00 02 	sub.d $f2,$f2,$f0
  404c48:	a2 00 00 00 2c 10 0a 00 	lui $10,4140
  404c50:	43 00 00 00 30 8c 0a 0a 	addiu $10,$10,-29648
  404c58:	42 00 00 00 00 03 18 0b 	addu $3,$11,$24
  404c60:	55 00 00 00 02 02 03 00 	sll $2,$3,0x2
  404c68:	75 00 00 00 00 04 02 04 	mul.d $f4,$f4,$f2
  404c70:	42 00 00 00 00 06 03 02 	addu $6,$2,$3
  404c78:	43 00 00 00 01 00 02 06 	addiu $2,$6,1
  404c80:	55 00 00 00 03 02 02 00 	sll $2,$2,0x3
  404c88:	42 00 00 00 00 02 0a 02 	addu $2,$2,$10
  404c90:	2b 00 00 00 00 00 00 02 	l.d $f0,0($2)
  404c98:	73 00 00 00 00 00 04 00 	sub.d $f0,$f0,$f4
  404ca0:	42 00 00 00 00 09 08 00 	addu $9,$0,$8
  404ca8:	43 00 00 00 02 00 05 00 	addiu $5,$0,2
  404cb0:	37 00 00 00 00 00 00 02 	s.d $f0,0($2)
  404cb8:	42 00 00 00 00 02 05 09 	addu $2,$9,$5
  404cc0:	55 00 00 00 03 02 02 00 	sll $2,$2,0x3
  404cc8:	42 00 00 00 00 03 02 13 	addu $3,$19,$2
  404cd0:	42 00 00 00 00 02 02 07 	addu $2,$7,$2
  404cd8:	2b 00 00 00 00 00 02 03 	l.d $f2,0($3)
  404ce0:	2b 00 00 00 00 00 00 02 	l.d $f0,0($2)
  404ce8:	73 00 00 00 00 02 00 02 	sub.d $f2,$f2,$f0
  404cf0:	a2 00 00 00 42 10 01 00 	lui $1,4162
  404cf8:	2b 00 00 00 38 2d 04 01 	l.d $f4,11576($1)
  404d00:	75 00 00 00 00 04 02 04 	mul.d $f4,$f4,$f2
  404d08:	42 00 00 00 00 02 05 06 	addu $2,$6,$5
  404d10:	55 00 00 00 03 02 02 00 	sll $2,$2,0x3
  404d18:	42 00 00 00 00 02 0a 02 	addu $2,$2,$10
  404d20:	2b 00 00 00 00 00 00 02 	l.d $f0,0($2)
  404d28:	73 00 00 00 00 00 04 00 	sub.d $f0,$f0,$f4
  404d30:	43 00 00 00 01 00 03 05 	addiu $3,$5,1
  404d38:	37 00 00 00 00 00 00 02 	s.d $f0,0($2)
  404d40:	42 00 00 00 00 02 03 09 	addu $2,$9,$3
  404d48:	55 00 00 00 03 02 02 00 	sll $2,$2,0x3
  404d50:	42 00 00 00 00 04 02 13 	addu $4,$19,$2
  404d58:	42 00 00 00 00 02 02 07 	addu $2,$7,$2
  404d60:	2b 00 00 00 00 00 02 04 	l.d $f2,0($4)
  404d68:	2b 00 00 00 00 00 00 02 	l.d $f0,0($2)
  404d70:	73 00 00 00 00 02 00 02 	sub.d $f2,$f2,$f0
  404d78:	a2 00 00 00 42 10 01 00 	lui $1,4162
  404d80:	2b 00 00 00 38 2d 04 01 	l.d $f4,11576($1)
  404d88:	75 00 00 00 00 04 02 04 	mul.d $f4,$f4,$f2
  404d90:	42 00 00 00 00 03 03 06 	addu $3,$6,$3
  404d98:	55 00 00 00 03 03 03 00 	sll $3,$3,0x3
  404da0:	42 00 00 00 00 03 0a 03 	addu $3,$3,$10
  404da8:	2b 00 00 00 00 00 00 03 	l.d $f0,0($3)
  404db0:	73 00 00 00 00 00 04 00 	sub.d $f0,$f0,$f4
  404db8:	43 00 00 00 02 00 05 05 	addiu $5,$5,2
  404dc0:	5c 00 00 00 06 00 02 05 	slti $2,$5,6
  404dc8:	37 00 00 00 00 00 00 03 	s.d $f0,0($3)
  404dd0:	06 00 00 00 b8 ff 00 02 	bne $2,$0,404cb8 <erhs_+0xca0>
  404dd8:	43 00 00 00 05 00 08 08 	addiu $8,$8,5
  404de0:	43 00 00 00 01 00 18 18 	addiu $24,$24,1
  404de8:	5b 00 00 00 00 02 18 0f 	slt $2,$15,$24
  404df0:	05 00 00 00 80 ff 00 02 	beq $2,$0,404bf8 <erhs_+0xbe0>
  404df8:	a2 00 00 00 42 10 0f 00 	lui $15,4162
  404e00:	28 00 00 00 f0 2c 0f 0f 	lw $15,11504($15)
  404e08:	43 00 00 00 02 00 18 00 	addiu $24,$0,2
  404e10:	5c 00 00 00 02 00 02 0f 	slti $2,$15,2
  404e18:	06 00 00 00 a0 00 00 02 	bne $2,$0,4050a0 <erhs_+0x1088>
  404e20:	2b 00 00 00 c8 80 18 1c 	l.d $f24,-32568($28)
  404e28:	28 00 00 00 68 0a 12 1d 	lw $18,2664($29)
  404e30:	2b 00 00 00 d8 80 1a 1c 	l.d $f26,-32552($28)
  404e38:	43 00 00 00 50 00 07 13 	addiu $7,$19,80
  404e40:	43 00 00 00 50 00 05 12 	addiu $5,$18,80
  404e48:	28 00 00 00 60 0a 12 1d 	lw $18,2656($29)
  404e50:	43 00 00 00 50 00 06 17 	addiu $6,$23,80
  404e58:	43 00 00 00 50 00 03 1d 	addiu $3,$29,80
  404e60:	43 00 00 00 50 00 04 12 	addiu $4,$18,80
  404e68:	2b 00 00 00 d8 ff 00 03 	l.d $f0,-40($3)
  404e70:	77 00 00 00 00 14 00 18 	div.d $f20,$f24,$f0
  404e78:	2b 00 00 00 e0 ff 0c 03 	l.d $f12,-32($3)
  404e80:	75 00 00 00 00 0c 0c 14 	mul.d $f12,$f20,$f12
  404e88:	2b 00 00 00 e8 ff 08 03 	l.d $f8,-24($3)
  404e90:	75 00 00 00 00 08 08 14 	mul.d $f8,$f20,$f8
  404e98:	2b 00 00 00 f0 ff 0e 03 	l.d $f14,-16($3)
  404ea0:	75 00 00 00 00 0e 0e 14 	mul.d $f14,$f20,$f14
  404ea8:	2b 00 00 00 f8 ff 10 03 	l.d $f16,-8($3)
  404eb0:	75 00 00 00 00 10 10 14 	mul.d $f16,$f20,$f16
  404eb8:	2b 00 00 00 b0 ff 00 03 	l.d $f0,-80($3)
  404ec0:	77 00 00 00 00 14 00 18 	div.d $f20,$f24,$f0
  404ec8:	a2 00 00 00 42 10 01 00 	lui $1,4162
  404ed0:	2b 00 00 00 40 2d 02 01 	l.d $f2,11584($1)
  404ed8:	2b 00 00 00 d0 80 16 1c 	l.d $f22,-32560($28)
  404ee0:	75 00 00 00 00 02 16 02 	mul.d $f2,$f2,$f22
  404ee8:	2b 00 00 00 b8 ff 0a 03 	l.d $f10,-72($3)
  404ef0:	75 00 00 00 00 0a 0a 14 	mul.d $f10,$f20,$f10
  404ef8:	2b 00 00 00 c0 ff 06 03 	l.d $f6,-64($3)
  404f00:	75 00 00 00 00 06 06 14 	mul.d $f6,$f20,$f6
  404f08:	2b 00 00 00 c8 ff 04 03 	l.d $f4,-56($3)
  404f10:	75 00 00 00 00 04 04 14 	mul.d $f4,$f20,$f4
  404f18:	2b 00 00 00 d0 ff 12 03 	l.d $f18,-48($3)
  404f20:	75 00 00 00 00 12 12 14 	mul.d $f18,$f20,$f18
  404f28:	73 00 00 00 00 00 0a 0c 	sub.d $f0,$f12,$f10
  404f30:	75 00 00 00 00 02 00 02 	mul.d $f2,$f2,$f0
  404f38:	75 00 00 00 00 0c 0c 0c 	mul.d $f12,$f12,$f12
  404f40:	75 00 00 00 00 0a 0a 0a 	mul.d $f10,$f10,$f10
  404f48:	37 00 00 00 00 00 02 04 	s.d $f2,0($4)
  404f50:	73 00 00 00 00 02 06 08 	sub.d $f2,$f8,$f6
  404f58:	a2 00 00 00 42 10 01 00 	lui $1,4162
  404f60:	2b 00 00 00 40 2d 00 01 	l.d $f0,11584($1)
  404f68:	75 00 00 00 00 00 02 00 	mul.d $f0,$f0,$f2
  404f70:	75 00 00 00 00 08 08 08 	mul.d $f8,$f8,$f8
  404f78:	75 00 00 00 00 06 06 06 	mul.d $f6,$f6,$f6
  404f80:	37 00 00 00 00 00 00 05 	s.d $f0,0($5)
  404f88:	73 00 00 00 00 00 04 0e 	sub.d $f0,$f14,$f4
  404f90:	a2 00 00 00 42 10 01 00 	lui $1,4162
  404f98:	2b 00 00 00 40 2d 02 01 	l.d $f2,11584($1)
  404fa0:	75 00 00 00 00 02 00 02 	mul.d $f2,$f2,$f0
  404fa8:	75 00 00 00 00 0e 0e 0e 	mul.d $f14,$f14,$f14
  404fb0:	75 00 00 00 00 04 04 04 	mul.d $f4,$f4,$f4
  404fb8:	2b 00 00 00 e0 80 16 1c 	l.d $f22,-32544($28)
  404fc0:	37 00 00 00 00 00 02 06 	s.d $f2,0($6)
  404fc8:	a2 00 00 00 42 10 01 00 	lui $1,4162
  404fd0:	2b 00 00 00 40 2d 00 01 	l.d $f0,11584($1)
  404fd8:	71 00 00 00 00 06 06 0a 	add.d $f6,$f10,$f6
  404fe0:	75 00 00 00 00 02 16 00 	mul.d $f2,$f0,$f22
  404fe8:	71 00 00 00 00 06 04 06 	add.d $f6,$f6,$f4
  404ff0:	71 00 00 00 00 08 08 0c 	add.d $f8,$f12,$f8
  404ff8:	75 00 00 00 00 04 1a 00 	mul.d $f4,$f0,$f26
  405000:	73 00 00 00 00 0c 0a 0c 	sub.d $f12,$f12,$f10
  405008:	71 00 00 00 00 08 0e 08 	add.d $f8,$f8,$f14
  405010:	75 00 00 00 00 02 0c 02 	mul.d $f2,$f2,$f12
  405018:	73 00 00 00 00 08 06 08 	sub.d $f8,$f8,$f6
  405020:	75 00 00 00 00 04 08 04 	mul.d $f4,$f4,$f8
  405028:	2b 00 00 00 e8 80 16 1c 	l.d $f22,-32536($28)
  405030:	75 00 00 00 00 00 16 00 	mul.d $f0,$f0,$f22
  405038:	73 00 00 00 00 10 12 10 	sub.d $f16,$f16,$f18
  405040:	75 00 00 00 00 00 10 00 	mul.d $f0,$f0,$f16
  405048:	71 00 00 00 00 04 02 04 	add.d $f4,$f4,$f2
  405050:	43 00 00 00 01 00 18 18 	addiu $24,$24,1
  405058:	5b 00 00 00 00 02 18 0f 	slt $2,$15,$24
  405060:	43 00 00 00 28 00 03 03 	addiu $3,$3,40
  405068:	71 00 00 00 00 04 00 04 	add.d $f4,$f4,$f0
  405070:	43 00 00 00 28 00 04 04 	addiu $4,$4,40
  405078:	43 00 00 00 28 00 05 05 	addiu $5,$5,40
  405080:	43 00 00 00 28 00 06 06 	addiu $6,$6,40
  405088:	37 00 00 00 00 00 04 07 	s.d $f4,0($7)
  405090:	43 00 00 00 28 00 07 07 	addiu $7,$7,40
  405098:	05 00 00 00 72 ff 00 02 	beq $2,$0,404e68 <erhs_+0xe50>
  4050a0:	a2 00 00 00 42 10 02 00 	lui $2,4162
  4050a8:	28 00 00 00 f0 2c 02 02 	lw $2,11504($2)
  4050b0:	43 00 00 00 02 00 18 00 	addiu $24,$0,2
  4050b8:	43 00 00 00 ff ff 0f 02 	addiu $15,$2,-1
  4050c0:	5c 00 00 00 02 00 02 0f 	slti $2,$15,2
  4050c8:	06 00 00 00 12 01 00 02 	bne $2,$0,405518 <erhs_+0x1500>
  4050d0:	42 00 00 00 00 02 19 15 	addu $2,$21,$25
  4050d8:	55 00 00 00 05 03 02 00 	sll $3,$2,0x5
  4050e0:	42 00 00 00 00 07 02 03 	addu $7,$3,$2
  4050e8:	43 00 00 00 50 00 05 1d 	addiu $5,$29,80
  4050f0:	43 00 00 00 50 00 06 00 	addiu $6,$0,80
  4050f8:	2b 00 00 00 d8 ff 00 05 	l.d $f0,-40($5)
  405100:	71 00 00 00 00 00 00 00 	add.d $f0,$f0,$f0
  405108:	2b 00 00 00 b0 ff 02 05 	l.d $f2,-80($5)
  405110:	2b 00 00 00 00 00 06 16 	l.d $f6,0($22)
  405118:	2b 00 00 00 00 00 04 14 	l.d $f4,0($20)
  405120:	73 00 00 00 00 02 00 02 	sub.d $f2,$f2,$f0
  405128:	75 00 00 00 00 06 04 06 	mul.d $f6,$f6,$f4
  405130:	2b 00 00 00 00 00 00 05 	l.d $f0,0($5)
  405138:	71 00 00 00 00 02 00 02 	add.d $f2,$f2,$f0
  405140:	42 00 00 00 00 02 18 07 	addu $2,$7,$24
  405148:	55 00 00 00 02 04 02 00 	sll $4,$2,0x2
  405150:	75 00 00 00 00 06 02 06 	mul.d $f6,$f6,$f2
  405158:	42 00 00 00 00 04 02 04 	addu $4,$4,$2
  405160:	55 00 00 00 03 04 04 00 	sll $4,$4,0x3
  405168:	a2 00 00 00 2c 10 12 00 	lui $18,4140
  405170:	43 00 00 00 38 8c 12 12 	addiu $18,$18,-29640
  405178:	42 00 00 00 00 02 12 04 	addu $2,$4,$18
  405180:	2b 00 00 00 00 00 00 02 	l.d $f0,0($2)
  405188:	71 00 00 00 00 00 06 00 	add.d $f0,$f0,$f6
  405190:	37 00 00 00 00 00 00 02 	s.d $f0,0($2)
  405198:	28 00 00 00 70 0a 12 1d 	lw $18,2672($29)
  4051a0:	2b 00 00 00 f0 80 16 1c 	l.d $f22,-32528($28)
  4051a8:	2b 00 00 00 10 00 08 14 	l.d $f8,16($20)
  4051b0:	42 00 00 00 00 02 06 12 	addu $2,$18,$6
  4051b8:	28 00 00 00 60 0a 12 1d 	lw $18,2656($29)
  4051c0:	2b 00 00 00 00 00 02 02 	l.d $f2,0($2)
  4051c8:	75 00 00 00 00 08 16 08 	mul.d $f8,$f8,$f22
  4051d0:	42 00 00 00 00 03 06 12 	addu $3,$18,$6
  4051d8:	2b 00 00 00 00 00 00 03 	l.d $f0,0($3)
  4051e0:	73 00 00 00 00 02 00 02 	sub.d $f2,$f2,$f0
  4051e8:	75 00 00 00 00 08 02 08 	mul.d $f8,$f8,$f2
  4051f0:	2b 00 00 00 e0 ff 00 05 	l.d $f0,-32($5)
  4051f8:	71 00 00 00 00 00 00 00 	add.d $f0,$f0,$f0
  405200:	2b 00 00 00 b8 ff 02 05 	l.d $f2,-72($5)
  405208:	2b 00 00 00 08 00 06 16 	l.d $f6,8($22)
  405210:	2b 00 00 00 00 00 04 14 	l.d $f4,0($20)
  405218:	73 00 00 00 00 02 00 02 	sub.d $f2,$f2,$f0
  405220:	75 00 00 00 00 06 04 06 	mul.d $f6,$f6,$f4
  405228:	2b 00 00 00 08 00 00 05 	l.d $f0,8($5)
  405230:	71 00 00 00 00 02 00 02 	add.d $f2,$f2,$f0
  405238:	a2 00 00 00 2c 10 12 00 	lui $18,4140
  405240:	43 00 00 00 40 8c 12 12 	addiu $18,$18,-29632
  405248:	42 00 00 00 00 02 12 04 	addu $2,$4,$18
  405250:	75 00 00 00 00 06 02 06 	mul.d $f6,$f6,$f2
  405258:	2b 00 00 00 00 00 00 02 	l.d $f0,0($2)
  405260:	71 00 00 00 00 00 08 00 	add.d $f0,$f0,$f8
  405268:	71 00 00 00 00 00 06 00 	add.d $f0,$f0,$f6
  405270:	37 00 00 00 00 00 00 02 	s.d $f0,0($2)
  405278:	28 00 00 00 78 0a 12 1d 	lw $18,2680($29)
  405280:	2b 00 00 00 10 00 08 14 	l.d $f8,16($20)
  405288:	42 00 00 00 00 02 06 12 	addu $2,$18,$6
  405290:	28 00 00 00 68 0a 12 1d 	lw $18,2664($29)
  405298:	2b 00 00 00 00 00 02 02 	l.d $f2,0($2)
  4052a0:	75 00 00 00 00 08 16 08 	mul.d $f8,$f8,$f22
  4052a8:	42 00 00 00 00 03 06 12 	addu $3,$18,$6
  4052b0:	2b 00 00 00 00 00 00 03 	l.d $f0,0($3)
  4052b8:	73 00 00 00 00 02 00 02 	sub.d $f2,$f2,$f0
  4052c0:	75 00 00 00 00 08 02 08 	mul.d $f8,$f8,$f2
  4052c8:	2b 00 00 00 e8 ff 00 05 	l.d $f0,-24($5)
  4052d0:	71 00 00 00 00 00 00 00 	add.d $f0,$f0,$f0
  4052d8:	2b 00 00 00 c0 ff 02 05 	l.d $f2,-64($5)
  4052e0:	2b 00 00 00 10 00 06 16 	l.d $f6,16($22)
  4052e8:	2b 00 00 00 00 00 04 14 	l.d $f4,0($20)
  4052f0:	73 00 00 00 00 02 00 02 	sub.d $f2,$f2,$f0
  4052f8:	75 00 00 00 00 06 04 06 	mul.d $f6,$f6,$f4
  405300:	2b 00 00 00 10 00 00 05 	l.d $f0,16($5)
  405308:	71 00 00 00 00 02 00 02 	add.d $f2,$f2,$f0
  405310:	a2 00 00 00 2c 10 12 00 	lui $18,4140
  405318:	43 00 00 00 48 8c 12 12 	addiu $18,$18,-29624
  405320:	42 00 00 00 00 02 12 04 	addu $2,$4,$18
  405328:	75 00 00 00 00 06 02 06 	mul.d $f6,$f6,$f2
  405330:	2b 00 00 00 00 00 00 02 	l.d $f0,0($2)
  405338:	71 00 00 00 00 00 08 00 	add.d $f0,$f0,$f8
  405340:	71 00 00 00 00 00 06 00 	add.d $f0,$f0,$f6
  405348:	42 00 00 00 00 03 06 17 	addu $3,$23,$6
  405350:	37 00 00 00 00 00 00 02 	s.d $f0,0($2)
  405358:	28 00 00 00 80 0a 12 1d 	lw $18,2688($29)
  405360:	2b 00 00 00 10 00 08 14 	l.d $f8,16($20)
  405368:	2b 00 00 00 00 00 00 03 	l.d $f0,0($3)
  405370:	42 00 00 00 00 02 06 12 	addu $2,$18,$6
  405378:	75 00 00 00 00 08 16 08 	mul.d $f8,$f8,$f22
  405380:	2b 00 00 00 00 00 02 02 	l.d $f2,0($2)
  405388:	73 00 00 00 00 02 00 02 	sub.d $f2,$f2,$f0
  405390:	75 00 00 00 00 08 02 08 	mul.d $f8,$f8,$f2
  405398:	2b 00 00 00 f0 ff 00 05 	l.d $f0,-16($5)
  4053a0:	71 00 00 00 00 00 00 00 	add.d $f0,$f0,$f0
  4053a8:	2b 00 00 00 c8 ff 02 05 	l.d $f2,-56($5)
  4053b0:	2b 00 00 00 18 00 06 16 	l.d $f6,24($22)
  4053b8:	2b 00 00 00 00 00 04 14 	l.d $f4,0($20)
  4053c0:	73 00 00 00 00 02 00 02 	sub.d $f2,$f2,$f0
  4053c8:	75 00 00 00 00 06 04 06 	mul.d $f6,$f6,$f4
  4053d0:	2b 00 00 00 18 00 00 05 	l.d $f0,24($5)
  4053d8:	71 00 00 00 00 02 00 02 	add.d $f2,$f2,$f0
  4053e0:	a2 00 00 00 2c 10 12 00 	lui $18,4140
  4053e8:	43 00 00 00 50 8c 12 12 	addiu $18,$18,-29616
  4053f0:	42 00 00 00 00 02 12 04 	addu $2,$4,$18
  4053f8:	75 00 00 00 00 06 02 06 	mul.d $f6,$f6,$f2
  405400:	2b 00 00 00 00 00 00 02 	l.d $f0,0($2)
  405408:	71 00 00 00 00 00 08 00 	add.d $f0,$f0,$f8
  405410:	71 00 00 00 00 00 06 00 	add.d $f0,$f0,$f6
  405418:	42 00 00 00 00 03 06 13 	addu $3,$19,$6
  405420:	37 00 00 00 00 00 00 02 	s.d $f0,0($2)
  405428:	28 00 00 00 88 0a 12 1d 	lw $18,2696($29)
  405430:	2b 00 00 00 10 00 08 14 	l.d $f8,16($20)
  405438:	2b 00 00 00 00 00 00 03 	l.d $f0,0($3)
  405440:	42 00 00 00 00 02 06 12 	addu $2,$18,$6
  405448:	75 00 00 00 00 08 16 08 	mul.d $f8,$f8,$f22
  405450:	2b 00 00 00 00 00 02 02 	l.d $f2,0($2)
  405458:	73 00 00 00 00 02 00 02 	sub.d $f2,$f2,$f0
  405460:	75 00 00 00 00 08 02 08 	mul.d $f8,$f8,$f2
  405468:	2b 00 00 00 f8 ff 00 05 	l.d $f0,-8($5)
  405470:	71 00 00 00 00 00 00 00 	add.d $f0,$f0,$f0
  405478:	2b 00 00 00 d0 ff 02 05 	l.d $f2,-48($5)
  405480:	2b 00 00 00 20 00 06 16 	l.d $f6,32($22)
  405488:	2b 00 00 00 00 00 04 14 	l.d $f4,0($20)
  405490:	73 00 00 00 00 02 00 02 	sub.d $f2,$f2,$f0
  405498:	75 00 00 00 00 06 04 06 	mul.d $f6,$f6,$f4
  4054a0:	2b 00 00 00 20 00 00 05 	l.d $f0,32($5)
  4054a8:	71 00 00 00 00 02 00 02 	add.d $f2,$f2,$f0
  4054b0:	a2 00 00 00 2c 10 12 00 	lui $18,4140
  4054b8:	43 00 00 00 58 8c 12 12 	addiu $18,$18,-29608
  4054c0:	42 00 00 00 00 04 12 04 	addu $4,$4,$18
  4054c8:	75 00 00 00 00 06 02 06 	mul.d $f6,$f6,$f2
  4054d0:	2b 00 00 00 00 00 00 04 	l.d $f0,0($4)
  4054d8:	71 00 00 00 00 00 08 00 	add.d $f0,$f0,$f8
  4054e0:	43 00 00 00 01 00 18 18 	addiu $24,$24,1
  4054e8:	71 00 00 00 00 00 06 00 	add.d $f0,$f0,$f6
  4054f0:	43 00 00 00 28 00 06 06 	addiu $6,$6,40
  4054f8:	5b 00 00 00 00 02 18 0f 	slt $2,$15,$24
  405500:	43 00 00 00 28 00 05 05 	addiu $5,$5,40
  405508:	37 00 00 00 00 00 00 04 	s.d $f0,0($4)
  405510:	05 00 00 00 f8 fe 00 02 	beq $2,$0,4050f8 <erhs_+0x10e0>
  405518:	2b 00 00 00 28 00 02 1d 	l.d $f2,40($29)
  405520:	2b 00 00 00 f8 80 16 1c 	l.d $f22,-32520($28)
  405528:	75 00 00 00 00 02 16 02 	mul.d $f2,$f2,$f22
  405530:	2b 00 00 00 50 00 00 1d 	l.d $f0,80($29)
  405538:	2b 00 00 00 00 81 16 1c 	l.d $f22,-32512($28)
  405540:	75 00 00 00 00 00 16 00 	mul.d $f0,$f0,$f22
  405548:	73 00 00 00 00 02 00 02 	sub.d $f2,$f2,$f0
  405550:	2b 00 00 00 78 00 00 1d 	l.d $f0,120($29)
  405558:	42 00 00 00 00 03 19 15 	addu $3,$21,$25
  405560:	55 00 00 00 05 02 03 00 	sll $2,$3,0x5
  405568:	71 00 00 00 00 02 00 02 	add.d $f2,$f2,$f0
  405570:	42 00 00 00 00 02 03 02 	addu $2,$2,$3
  405578:	55 00 00 00 02 03 02 00 	sll $3,$2,0x2
  405580:	42 00 00 00 00 06 02 03 	addu $6,$3,$2
  405588:	75 00 00 00 00 02 02 1e 	mul.d $f2,$f30,$f2
  405590:	43 00 00 00 01 00 03 06 	addiu $3,$6,1
  405598:	55 00 00 00 03 03 03 00 	sll $3,$3,0x3
  4055a0:	a2 00 00 00 2c 10 12 00 	lui $18,4140
  4055a8:	43 00 00 00 80 8c 12 12 	addiu $18,$18,-29568
  4055b0:	42 00 00 00 00 02 12 03 	addu $2,$3,$18
  4055b8:	2b 00 00 00 00 00 00 02 	l.d $f0,0($2)
  4055c0:	73 00 00 00 00 00 02 00 	sub.d $f0,$f0,$f2
  4055c8:	2b 00 00 00 08 81 16 1c 	l.d $f22,-32504($28)
  4055d0:	37 00 00 00 00 00 00 02 	s.d $f0,0($2)
  4055d8:	2b 00 00 00 28 00 00 1d 	l.d $f0,40($29)
  4055e0:	75 00 00 00 00 00 16 00 	mul.d $f0,$f0,$f22
  4055e8:	2b 00 00 00 50 00 04 1d 	l.d $f4,80($29)
  4055f0:	2b 00 00 00 10 81 16 1c 	l.d $f22,-32496($28)
  4055f8:	75 00 00 00 00 04 16 04 	mul.d $f4,$f4,$f22
  405600:	2b 00 00 00 78 00 02 1d 	l.d $f2,120($29)
  405608:	2b 00 00 00 00 81 16 1c 	l.d $f22,-32512($28)
  405610:	75 00 00 00 00 02 16 02 	mul.d $f2,$f2,$f22
  405618:	71 00 00 00 00 00 04 00 	add.d $f0,$f0,$f4
  405620:	73 00 00 00 00 00 02 00 	sub.d $f0,$f0,$f2
  405628:	2b 00 00 00 a0 00 02 1d 	l.d $f2,160($29)
  405630:	71 00 00 00 00 00 02 00 	add.d $f0,$f0,$f2
  405638:	75 00 00 00 00 00 00 1e 	mul.d $f0,$f30,$f0
  405640:	a2 00 00 00 2c 10 12 00 	lui $18,4140
  405648:	43 00 00 00 a8 8c 12 12 	addiu $18,$18,-29528
  405650:	42 00 00 00 00 03 12 03 	addu $3,$3,$18
  405658:	2b 00 00 00 00 00 02 03 	l.d $f2,0($3)
  405660:	73 00 00 00 00 02 00 02 	sub.d $f2,$f2,$f0
  405668:	43 00 00 00 10 00 04 1d 	addiu $4,$29,16
  405670:	43 00 00 00 02 00 05 00 	addiu $5,$0,2
  405678:	37 00 00 00 00 00 02 03 	s.d $f2,0($3)
  405680:	2b 00 00 00 20 00 02 04 	l.d $f2,32($4)
  405688:	2b 00 00 00 f8 80 16 1c 	l.d $f22,-32520($28)
  405690:	75 00 00 00 00 02 16 02 	mul.d $f2,$f2,$f22
  405698:	2b 00 00 00 48 00 00 04 	l.d $f0,72($4)
  4056a0:	2b 00 00 00 00 81 16 1c 	l.d $f22,-32512($28)
  4056a8:	75 00 00 00 00 00 16 00 	mul.d $f0,$f0,$f22
  4056b0:	73 00 00 00 00 02 00 02 	sub.d $f2,$f2,$f0
  4056b8:	2b 00 00 00 70 00 00 04 	l.d $f0,112($4)
  4056c0:	71 00 00 00 00 02 00 02 	add.d $f2,$f2,$f0
  4056c8:	75 00 00 00 00 02 02 1e 	mul.d $f2,$f30,$f2
  4056d0:	42 00 00 00 00 03 05 06 	addu $3,$6,$5
  4056d8:	55 00 00 00 03 03 03 00 	sll $3,$3,0x3
  4056e0:	a2 00 00 00 2c 10 12 00 	lui $18,4140
  4056e8:	43 00 00 00 80 8c 12 12 	addiu $18,$18,-29568
  4056f0:	42 00 00 00 00 02 12 03 	addu $2,$3,$18
  4056f8:	2b 00 00 00 00 00 00 02 	l.d $f0,0($2)
  405700:	73 00 00 00 00 00 02 00 	sub.d $f0,$f0,$f2
  405708:	2b 00 00 00 08 81 16 1c 	l.d $f22,-32504($28)
  405710:	37 00 00 00 00 00 00 02 	s.d $f0,0($2)
  405718:	2b 00 00 00 20 00 02 04 	l.d $f2,32($4)
  405720:	75 00 00 00 00 02 16 02 	mul.d $f2,$f2,$f22
  405728:	2b 00 00 00 48 00 04 04 	l.d $f4,72($4)
  405730:	2b 00 00 00 10 81 16 1c 	l.d $f22,-32496($28)
  405738:	75 00 00 00 00 04 16 04 	mul.d $f4,$f4,$f22
  405740:	2b 00 00 00 70 00 00 04 	l.d $f0,112($4)
  405748:	2b 00 00 00 00 81 16 1c 	l.d $f22,-32512($28)
  405750:	75 00 00 00 00 00 16 00 	mul.d $f0,$f0,$f22
  405758:	71 00 00 00 00 02 04 02 	add.d $f2,$f2,$f4
  405760:	73 00 00 00 00 02 00 02 	sub.d $f2,$f2,$f0
  405768:	2b 00 00 00 98 00 00 04 	l.d $f0,152($4)
  405770:	71 00 00 00 00 02 00 02 	add.d $f2,$f2,$f0
  405778:	75 00 00 00 00 02 02 1e 	mul.d $f2,$f30,$f2
  405780:	a2 00 00 00 2c 10 12 00 	lui $18,4140
  405788:	43 00 00 00 a8 8c 12 12 	addiu $18,$18,-29528
  405790:	42 00 00 00 00 03 12 03 	addu $3,$3,$18
  405798:	2b 00 00 00 00 00 00 03 	l.d $f0,0($3)
  4057a0:	73 00 00 00 00 00 02 00 	sub.d $f0,$f0,$f2
  4057a8:	2b 00 00 00 f8 80 16 1c 	l.d $f22,-32520($28)
  4057b0:	37 00 00 00 00 00 00 03 	s.d $f0,0($3)
  4057b8:	2b 00 00 00 28 00 02 04 	l.d $f2,40($4)
  4057c0:	75 00 00 00 00 02 16 02 	mul.d $f2,$f2,$f22
  4057c8:	2b 00 00 00 50 00 00 04 	l.d $f0,80($4)
  4057d0:	2b 00 00 00 00 81 16 1c 	l.d $f22,-32512($28)
  4057d8:	75 00 00 00 00 00 16 00 	mul.d $f0,$f0,$f22
  4057e0:	73 00 00 00 00 02 00 02 	sub.d $f2,$f2,$f0
  4057e8:	2b 00 00 00 78 00 00 04 	l.d $f0,120($4)
  4057f0:	71 00 00 00 00 02 00 02 	add.d $f2,$f2,$f0
  4057f8:	a2 00 00 00 2c 10 12 00 	lui $18,4140
  405800:	43 00 00 00 80 8c 12 12 	addiu $18,$18,-29568
  405808:	75 00 00 00 00 02 02 1e 	mul.d $f2,$f30,$f2
  405810:	43 00 00 00 01 00 03 05 	addiu $3,$5,1
  405818:	42 00 00 00 00 03 03 06 	addu $3,$6,$3
  405820:	55 00 00 00 03 03 03 00 	sll $3,$3,0x3
  405828:	42 00 00 00 00 02 12 03 	addu $2,$3,$18
  405830:	2b 00 00 00 00 00 00 02 	l.d $f0,0($2)
  405838:	73 00 00 00 00 00 02 00 	sub.d $f0,$f0,$f2
  405840:	2b 00 00 00 08 81 16 1c 	l.d $f22,-32504($28)
  405848:	37 00 00 00 00 00 00 02 	s.d $f0,0($2)
  405850:	2b 00 00 00 28 00 02 04 	l.d $f2,40($4)
  405858:	75 00 00 00 00 02 16 02 	mul.d $f2,$f2,$f22
  405860:	2b 00 00 00 50 00 04 04 	l.d $f4,80($4)
  405868:	2b 00 00 00 10 81 16 1c 	l.d $f22,-32496($28)
  405870:	75 00 00 00 00 04 16 04 	mul.d $f4,$f4,$f22
  405878:	2b 00 00 00 78 00 00 04 	l.d $f0,120($4)
  405880:	2b 00 00 00 00 81 16 1c 	l.d $f22,-32512($28)
  405888:	75 00 00 00 00 00 16 00 	mul.d $f0,$f0,$f22
  405890:	71 00 00 00 00 02 04 02 	add.d $f2,$f2,$f4
  405898:	73 00 00 00 00 02 00 02 	sub.d $f2,$f2,$f0
  4058a0:	2b 00 00 00 a0 00 00 04 	l.d $f0,160($4)
  4058a8:	71 00 00 00 00 02 00 02 	add.d $f2,$f2,$f0
  4058b0:	75 00 00 00 00 02 02 1e 	mul.d $f2,$f30,$f2
  4058b8:	a2 00 00 00 2c 10 12 00 	lui $18,4140
  4058c0:	43 00 00 00 a8 8c 12 12 	addiu $18,$18,-29528
  4058c8:	42 00 00 00 00 03 12 03 	addu $3,$3,$18
  4058d0:	2b 00 00 00 00 00 00 03 	l.d $f0,0($3)
  4058d8:	73 00 00 00 00 00 02 00 	sub.d $f0,$f0,$f2
  4058e0:	43 00 00 00 02 00 05 05 	addiu $5,$5,2
  4058e8:	5c 00 00 00 06 00 02 05 	slti $2,$5,6
  4058f0:	43 00 00 00 10 00 04 04 	addiu $4,$4,16
  4058f8:	37 00 00 00 00 00 00 03 	s.d $f0,0($3)
  405900:	06 00 00 00 5e ff 00 02 	bne $2,$0,405680 <erhs_+0x1668>
  405908:	a2 00 00 00 42 10 02 00 	lui $2,4162
  405910:	28 00 00 00 f0 2c 02 02 	lw $2,11504($2)
  405918:	43 00 00 00 04 00 18 00 	addiu $24,$0,4
  405920:	43 00 00 00 fd ff 0f 02 	addiu $15,$2,-3
  405928:	5c 00 00 00 04 00 02 0f 	slti $2,$15,4
  405930:	06 00 00 00 ba 00 00 02 	bne $2,$0,405c20 <erhs_+0x1c08>
  405938:	42 00 00 00 00 02 19 15 	addu $2,$21,$25
  405940:	55 00 00 00 05 03 02 00 	sll $3,$2,0x5
  405948:	42 00 00 00 00 09 02 03 	addu $9,$3,$2
  405950:	43 00 00 00 14 00 06 00 	addiu $6,$0,20
  405958:	43 00 00 00 01 00 02 06 	addiu $2,$6,1
  405960:	55 00 00 00 03 02 02 00 	sll $2,$2,0x3
  405968:	42 00 00 00 00 02 1d 02 	addu $2,$2,$29
  405970:	2b 00 00 00 a8 ff 04 02 	l.d $f4,-88($2)
  405978:	2b 00 00 00 00 81 16 1c 	l.d $f22,-32512($28)
  405980:	75 00 00 00 00 04 16 04 	mul.d $f4,$f4,$f22
  405988:	2b 00 00 00 d0 ff 06 02 	l.d $f6,-48($2)
  405990:	2b 00 00 00 10 81 16 1c 	l.d $f22,-32496($28)
  405998:	75 00 00 00 00 06 16 06 	mul.d $f6,$f6,$f22
  4059a0:	2b 00 00 00 80 ff 02 02 	l.d $f2,-128($2)
  4059a8:	2b 00 00 00 f8 ff 00 02 	l.d $f0,-8($2)
  4059b0:	2b 00 00 00 00 81 16 1c 	l.d $f22,-32512($28)
  4059b8:	73 00 00 00 00 02 04 02 	sub.d $f2,$f2,$f4
  4059c0:	75 00 00 00 00 00 16 00 	mul.d $f0,$f0,$f22
  4059c8:	71 00 00 00 00 02 06 02 	add.d $f2,$f2,$f6
  4059d0:	73 00 00 00 00 02 00 02 	sub.d $f2,$f2,$f0
  4059d8:	2b 00 00 00 20 00 00 02 	l.d $f0,32($2)
  4059e0:	71 00 00 00 00 02 00 02 	add.d $f2,$f2,$f0
  4059e8:	42 00 00 00 00 03 18 09 	addu $3,$9,$24
  4059f0:	a2 00 00 00 2c 10 08 00 	lui $8,4140
  4059f8:	43 00 00 00 30 8c 08 08 	addiu $8,$8,-29648
  405a00:	55 00 00 00 02 02 03 00 	sll $2,$3,0x2
  405a08:	75 00 00 00 00 02 02 1e 	mul.d $f2,$f30,$f2
  405a10:	42 00 00 00 00 04 03 02 	addu $4,$2,$3
  405a18:	43 00 00 00 01 00 02 04 	addiu $2,$4,1
  405a20:	55 00 00 00 03 02 02 00 	sll $2,$2,0x3
  405a28:	42 00 00 00 00 02 08 02 	addu $2,$2,$8
  405a30:	2b 00 00 00 00 00 00 02 	l.d $f0,0($2)
  405a38:	73 00 00 00 00 00 02 00 	sub.d $f0,$f0,$f2
  405a40:	42 00 00 00 00 07 06 00 	addu $7,$0,$6
  405a48:	43 00 00 00 02 00 05 00 	addiu $5,$0,2
  405a50:	37 00 00 00 00 00 00 02 	s.d $f0,0($2)
  405a58:	42 00 00 00 00 02 05 07 	addu $2,$7,$5
  405a60:	55 00 00 00 03 02 02 00 	sll $2,$2,0x3
  405a68:	42 00 00 00 00 02 1d 02 	addu $2,$2,$29
  405a70:	2b 00 00 00 a8 ff 04 02 	l.d $f4,-88($2)
  405a78:	2b 00 00 00 00 81 16 1c 	l.d $f22,-32512($28)
  405a80:	75 00 00 00 00 04 16 04 	mul.d $f4,$f4,$f22
  405a88:	2b 00 00 00 d0 ff 06 02 	l.d $f6,-48($2)
  405a90:	2b 00 00 00 10 81 16 1c 	l.d $f22,-32496($28)
  405a98:	75 00 00 00 00 06 16 06 	mul.d $f6,$f6,$f22
  405aa0:	2b 00 00 00 80 ff 02 02 	l.d $f2,-128($2)
  405aa8:	2b 00 00 00 f8 ff 00 02 	l.d $f0,-8($2)
  405ab0:	2b 00 00 00 00 81 16 1c 	l.d $f22,-32512($28)
  405ab8:	73 00 00 00 00 02 04 02 	sub.d $f2,$f2,$f4
  405ac0:	75 00 00 00 00 00 16 00 	mul.d $f0,$f0,$f22
  405ac8:	71 00 00 00 00 02 06 02 	add.d $f2,$f2,$f6
  405ad0:	73 00 00 00 00 02 00 02 	sub.d $f2,$f2,$f0
  405ad8:	2b 00 00 00 20 00 00 02 	l.d $f0,32($2)
  405ae0:	71 00 00 00 00 02 00 02 	add.d $f2,$f2,$f0
  405ae8:	75 00 00 00 00 02 02 1e 	mul.d $f2,$f30,$f2
  405af0:	42 00 00 00 00 02 05 04 	addu $2,$4,$5
  405af8:	55 00 00 00 03 02 02 00 	sll $2,$2,0x3
  405b00:	42 00 00 00 00 02 08 02 	addu $2,$2,$8
  405b08:	2b 00 00 00 00 00 00 02 	l.d $f0,0($2)
  405b10:	73 00 00 00 00 00 02 00 	sub.d $f0,$f0,$f2
  405b18:	43 00 00 00 01 00 03 05 	addiu $3,$5,1
  405b20:	37 00 00 00 00 00 00 02 	s.d $f0,0($2)
  405b28:	42 00 00 00 00 02 03 07 	addu $2,$7,$3
  405b30:	55 00 00 00 03 02 02 00 	sll $2,$2,0x3
  405b38:	42 00 00 00 00 02 1d 02 	addu $2,$2,$29
  405b40:	2b 00 00 00 a8 ff 04 02 	l.d $f4,-88($2)
  405b48:	75 00 00 00 00 04 16 04 	mul.d $f4,$f4,$f22
  405b50:	2b 00 00 00 d0 ff 06 02 	l.d $f6,-48($2)
  405b58:	2b 00 00 00 10 81 16 1c 	l.d $f22,-32496($28)
  405b60:	75 00 00 00 00 06 16 06 	mul.d $f6,$f6,$f22
  405b68:	2b 00 00 00 80 ff 02 02 	l.d $f2,-128($2)
  405b70:	2b 00 00 00 f8 ff 00 02 	l.d $f0,-8($2)
  405b78:	2b 00 00 00 00 81 16 1c 	l.d $f22,-32512($28)
  405b80:	73 00 00 00 00 02 04 02 	sub.d $f2,$f2,$f4
  405b88:	75 00 00 00 00 00 16 00 	mul.d $f0,$f0,$f22
  405b90:	71 00 00 00 00 02 06 02 	add.d $f2,$f2,$f6
  405b98:	73 00 00 00 00 02 00 02 	sub.d $f2,$f2,$f0
  405ba0:	2b 00 00 00 20 00 00 02 	l.d $f0,32($2)
  405ba8:	71 00 00 00 00 02 00 02 	add.d $f2,$f2,$f0
  405bb0:	75 00 00 00 00 02 02 1e 	mul.d $f2,$f30,$f2
  405bb8:	42 00 00 00 00 03 03 04 	addu $3,$4,$3
  405bc0:	55 00 00 00 03 03 03 00 	sll $3,$3,0x3
  405bc8:	42 00 00 00 00 03 08 03 	addu $3,$3,$8
  405bd0:	2b 00 00 00 00 00 00 03 	l.d $f0,0($3)
  405bd8:	73 00 00 00 00 00 02 00 	sub.d $f0,$f0,$f2
  405be0:	43 00 00 00 02 00 05 05 	addiu $5,$5,2
  405be8:	5c 00 00 00 06 00 02 05 	slti $2,$5,6
  405bf0:	37 00 00 00 00 00 00 03 	s.d $f0,0($3)
  405bf8:	06 00 00 00 96 ff 00 02 	bne $2,$0,405a58 <erhs_+0x1a40>
  405c00:	43 00 00 00 05 00 06 06 	addiu $6,$6,5
  405c08:	43 00 00 00 01 00 18 18 	addiu $24,$24,1
  405c10:	5b 00 00 00 00 02 18 0f 	slt $2,$15,$24
  405c18:	05 00 00 00 4e ff 00 02 	beq $2,$0,405958 <erhs_+0x1940>
  405c20:	43 00 00 00 01 00 05 00 	addiu $5,$0,1
  405c28:	42 00 00 00 00 02 19 15 	addu $2,$21,$25
  405c30:	55 00 00 00 05 03 02 00 	sll $3,$2,0x5
  405c38:	42 00 00 00 00 04 02 03 	addu $4,$3,$2
  405c40:	a2 00 00 00 42 10 03 00 	lui $3,4162
  405c48:	28 00 00 00 f0 2c 03 03 	lw $3,11504($3)
  405c50:	2b 00 00 00 00 81 16 1c 	l.d $f22,-32512($28)
  405c58:	55 00 00 00 02 02 03 00 	sll $2,$3,0x2
  405c60:	42 00 00 00 00 02 03 02 	addu $2,$2,$3
  405c68:	42 00 00 00 00 02 05 02 	addu $2,$2,$5
  405c70:	55 00 00 00 03 02 02 00 	sll $2,$2,0x3
  405c78:	42 00 00 00 00 02 1d 02 	addu $2,$2,$29
  405c80:	2b 00 00 00 58 ff 04 02 	l.d $f4,-168($2)
  405c88:	75 00 00 00 00 04 16 04 	mul.d $f4,$f4,$f22
  405c90:	2b 00 00 00 80 ff 06 02 	l.d $f6,-128($2)
  405c98:	2b 00 00 00 10 81 16 1c 	l.d $f22,-32496($28)
  405ca0:	75 00 00 00 00 06 16 06 	mul.d $f6,$f6,$f22
  405ca8:	2b 00 00 00 30 ff 02 02 	l.d $f2,-208($2)
  405cb0:	2b 00 00 00 a8 ff 00 02 	l.d $f0,-88($2)
  405cb8:	2b 00 00 00 00 81 16 1c 	l.d $f22,-32512($28)
  405cc0:	73 00 00 00 00 02 04 02 	sub.d $f2,$f2,$f4
  405cc8:	75 00 00 00 00 00 16 00 	mul.d $f0,$f0,$f22
  405cd0:	71 00 00 00 00 02 06 02 	add.d $f2,$f2,$f6
  405cd8:	73 00 00 00 00 02 00 02 	sub.d $f2,$f2,$f0
  405ce0:	a2 00 00 00 2c 10 12 00 	lui $18,4140
  405ce8:	43 00 00 00 e0 8b 12 12 	addiu $18,$18,-29728
  405cf0:	42 00 00 00 00 03 03 04 	addu $3,$4,$3
  405cf8:	55 00 00 00 02 02 03 00 	sll $2,$3,0x2
  405d00:	75 00 00 00 00 02 02 1e 	mul.d $f2,$f30,$f2
  405d08:	42 00 00 00 00 02 03 02 	addu $2,$2,$3
  405d10:	42 00 00 00 00 02 05 02 	addu $2,$2,$5
  405d18:	55 00 00 00 03 02 02 00 	sll $2,$2,0x3
  405d20:	42 00 00 00 00 02 12 02 	addu $2,$2,$18
  405d28:	2b 00 00 00 00 00 00 02 	l.d $f0,0($2)
  405d30:	73 00 00 00 00 00 02 00 	sub.d $f0,$f0,$f2
  405d38:	37 00 00 00 00 00 00 02 	s.d $f0,0($2)
  405d40:	a2 00 00 00 42 10 03 00 	lui $3,4162
  405d48:	28 00 00 00 f0 2c 03 03 	lw $3,11504($3)
  405d50:	55 00 00 00 02 02 03 00 	sll $2,$3,0x2
  405d58:	42 00 00 00 00 02 03 02 	addu $2,$2,$3
  405d60:	42 00 00 00 00 02 05 02 	addu $2,$2,$5
  405d68:	55 00 00 00 03 02 02 00 	sll $2,$2,0x3
  405d70:	42 00 00 00 00 02 1d 02 	addu $2,$2,$29
  405d78:	2b 00 00 00 80 ff 04 02 	l.d $f4,-128($2)
  405d80:	75 00 00 00 00 04 16 04 	mul.d $f4,$f4,$f22
  405d88:	2b 00 00 00 a8 ff 00 02 	l.d $f0,-88($2)
  405d90:	2b 00 00 00 f8 80 16 1c 	l.d $f22,-32520($28)
  405d98:	75 00 00 00 00 00 16 00 	mul.d $f0,$f0,$f22
  405da0:	2b 00 00 00 58 ff 02 02 	l.d $f2,-168($2)
  405da8:	73 00 00 00 00 02 04 02 	sub.d $f2,$f2,$f4
  405db0:	71 00 00 00 00 02 00 02 	add.d $f2,$f2,$f0
  405db8:	a2 00 00 00 2c 10 12 00 	lui $18,4140
  405dc0:	43 00 00 00 08 8c 12 12 	addiu $18,$18,-29688
  405dc8:	42 00 00 00 00 03 03 04 	addu $3,$4,$3
  405dd0:	55 00 00 00 02 02 03 00 	sll $2,$3,0x2
  405dd8:	75 00 00 00 00 02 02 1e 	mul.d $f2,$f30,$f2
  405de0:	42 00 00 00 00 02 03 02 	addu $2,$2,$3
  405de8:	42 00 00 00 00 02 05 02 	addu $2,$2,$5
  405df0:	55 00 00 00 03 02 02 00 	sll $2,$2,0x3
  405df8:	42 00 00 00 00 02 12 02 	addu $2,$2,$18
  405e00:	2b 00 00 00 00 00 00 02 	l.d $f0,0($2)
  405e08:	73 00 00 00 00 00 02 00 	sub.d $f0,$f0,$f2
  405e10:	43 00 00 00 01 00 05 05 	addiu $5,$5,1
  405e18:	37 00 00 00 00 00 00 02 	s.d $f0,0($2)
  405e20:	5c 00 00 00 06 00 02 05 	slti $2,$5,6
  405e28:	06 00 00 00 84 ff 00 02 	bne $2,$0,405c40 <erhs_+0x1c28>
  405e30:	43 00 00 00 01 00 19 19 	addiu $25,$25,1
  405e38:	5b 00 00 00 00 02 19 1e 	slt $2,$30,$25
  405e40:	05 00 00 00 e2 f9 00 02 	beq $2,$0,4045d0 <erhs_+0x5b8>
  405e48:	28 00 00 00 50 0a 12 1d 	lw $18,2640($29)
  405e50:	43 00 00 00 21 00 15 15 	addiu $21,$21,33
  405e58:	43 00 00 00 01 00 11 11 	addiu $17,$17,1
  405e60:	5b 00 00 00 00 02 11 12 	slt $2,$18,$17
  405e68:	05 00 00 00 aa f9 00 02 	beq $2,$0,404518 <erhs_+0x500>
  405e70:	a2 00 00 00 42 10 03 00 	lui $3,4162
  405e78:	43 00 00 00 f8 2c 03 03 	addiu $3,$3,11512
  405e80:	28 00 00 00 00 00 02 03 	lw $2,0($3)
  405e88:	43 00 00 00 02 00 11 00 	addiu $17,$0,2
  405e90:	43 00 00 00 ff ff 02 02 	addiu $2,$2,-1
  405e98:	34 00 00 00 50 0a 02 1d 	sw $2,2640($29)
  405ea0:	5c 00 00 00 02 00 02 02 	slti $2,$2,2
  405ea8:	06 00 00 00 50 06 00 02 	bne $2,$0,4077f0 <erhs_+0x37d8>
  405eb0:	a2 00 00 00 42 10 14 00 	lui $20,4162
  405eb8:	43 00 00 00 d8 2a 14 14 	addiu $20,$20,10968
  405ec0:	43 00 00 00 d0 04 16 1d 	addiu $22,$29,1232
  405ec8:	a2 00 00 00 f9 11 17 00 	lui $23,4601
  405ed0:	43 00 00 00 68 dd 17 17 	addiu $23,$23,-8856
  405ed8:	43 00 00 00 50 00 13 03 	addiu $19,$3,80
  405ee0:	43 00 00 00 42 00 15 00 	addiu $21,$0,66
  405ee8:	43 00 00 00 82 08 12 00 	addiu $18,$0,2178
  405ef0:	34 00 00 00 d8 0a 12 1d 	sw $18,2776($29)
  405ef8:	a2 00 00 00 42 10 03 00 	lui $3,4162
  405f00:	28 00 00 00 f8 2c 03 03 	lw $3,11512($3)
  405f08:	43 00 00 00 ff ff 02 11 	addiu $2,$17,-1
  405f10:	a5 00 00 00 00 00 02 02 	mtc1 $2,$f2
  405f18:	83 00 00 00 00 02 00 02 	cvt.d.w $f2,$f2
  405f20:	43 00 00 00 ff ff 03 03 	addiu $3,$3,-1
  405f28:	a5 00 00 00 00 00 03 00 	mtc1 $3,$f0
  405f30:	83 00 00 00 00 00 00 00 	cvt.d.w $f0,$f0
  405f38:	77 00 00 00 00 1c 00 02 	div.d $f28,$f2,$f0
  405f40:	a2 00 00 00 42 10 02 00 	lui $2,4162
  405f48:	28 00 00 00 f0 2c 02 02 	lw $2,11504($2)
  405f50:	43 00 00 00 02 00 18 00 	addiu $24,$0,2
  405f58:	43 00 00 00 ff ff 1e 02 	addiu $30,$2,-1
  405f60:	5c 00 00 00 02 00 02 1e 	slti $2,$30,2
  405f68:	06 00 00 00 10 06 00 02 	bne $2,$0,4077b0 <erhs_+0x3798>
  405f70:	43 00 00 00 30 05 12 1d 	addiu $18,$29,1328
  405f78:	34 00 00 00 90 0a 12 1d 	sw $18,2704($29)
  405f80:	43 00 00 00 38 05 12 1d 	addiu $18,$29,1336
  405f88:	34 00 00 00 98 0a 12 1d 	sw $18,2712($29)
  405f90:	43 00 00 00 40 05 12 1d 	addiu $18,$29,1344
  405f98:	34 00 00 00 a0 0a 12 1d 	sw $18,2720($29)
  405fa0:	43 00 00 00 48 05 12 1d 	addiu $18,$29,1352
  405fa8:	34 00 00 00 a8 0a 12 1d 	sw $18,2728($29)
  405fb0:	a2 00 00 00 42 10 03 00 	lui $3,4162
  405fb8:	28 00 00 00 f0 2c 03 03 	lw $3,11504($3)
  405fc0:	43 00 00 00 ff ff 02 18 	addiu $2,$24,-1
  405fc8:	a5 00 00 00 00 00 02 02 	mtc1 $2,$f2
  405fd0:	83 00 00 00 00 02 00 02 	cvt.d.w $f2,$f2
  405fd8:	43 00 00 00 ff ff 03 03 	addiu $3,$3,-1
  405fe0:	a5 00 00 00 00 00 03 00 	mtc1 $3,$f0
  405fe8:	83 00 00 00 00 00 00 00 	cvt.d.w $f0,$f0
  405ff0:	77 00 00 00 00 18 00 02 	div.d $f24,$f2,$f0
  405ff8:	a2 00 00 00 42 10 0f 00 	lui $15,4162
  406000:	28 00 00 00 f4 2c 0f 0f 	lw $15,11508($15)
  406008:	43 00 00 00 01 00 19 00 	addiu $25,$0,1
  406010:	07 00 00 00 40 01 00 0f 	blez $15,406518 <erhs_+0x2500>
  406018:	43 00 00 00 28 00 04 1d 	addiu $4,$29,40
  406020:	43 00 00 00 28 00 0d 00 	addiu $13,$0,40
  406028:	43 00 00 00 05 00 10 00 	addiu $16,$0,5
  406030:	43 00 00 00 01 00 05 00 	addiu $5,$0,1
  406038:	a2 00 00 00 42 10 02 00 	lui $2,4162
  406040:	43 00 00 00 a0 2b 02 02 	addiu $2,$2,11168
  406048:	43 00 00 00 20 01 0e 02 	addiu $14,$2,288
  406050:	43 00 00 00 30 00 0c 02 	addiu $12,$2,48
  406058:	43 00 00 00 08 00 0b 02 	addiu $11,$2,8
  406060:	a2 00 00 00 42 10 12 00 	lui $18,4162
  406068:	43 00 00 00 78 2b 12 12 	addiu $18,$18,11128
  406070:	43 00 00 00 08 00 0a 12 	addiu $10,$18,8
  406078:	a2 00 00 00 42 10 12 00 	lui $18,4162
  406080:	43 00 00 00 50 2b 12 12 	addiu $18,$18,11088
  406088:	43 00 00 00 08 00 09 12 	addiu $9,$18,8
  406090:	a2 00 00 00 42 10 12 00 	lui $18,4162
  406098:	43 00 00 00 28 2b 12 12 	addiu $18,$18,11048
  4060a0:	43 00 00 00 08 00 08 12 	addiu $8,$18,8
  4060a8:	43 00 00 00 08 00 07 14 	addiu $7,$20,8
  4060b0:	a2 00 00 00 42 10 12 00 	lui $18,4162
  4060b8:	43 00 00 00 00 2b 12 12 	addiu $18,$18,11008
  4060c0:	43 00 00 00 08 00 06 12 	addiu $6,$18,8
  4060c8:	a2 00 00 00 42 10 03 00 	lui $3,4162
  4060d0:	28 00 00 00 f4 2c 03 03 	lw $3,11508($3)
  4060d8:	43 00 00 00 ff ff 02 19 	addiu $2,$25,-1
  4060e0:	a5 00 00 00 00 00 02 02 	mtc1 $2,$f2
  4060e8:	83 00 00 00 00 02 00 02 	cvt.d.w $f2,$f2
  4060f0:	34 00 00 00 08 0b 10 1d 	sw $16,2824($29)
  4060f8:	43 00 00 00 ff ff 03 03 	addiu $3,$3,-1
  406100:	a5 00 00 00 00 00 03 00 	mtc1 $3,$f0
  406108:	83 00 00 00 00 00 00 00 	cvt.d.w $f0,$f0
  406110:	77 00 00 00 00 1a 00 02 	div.d $f26,$f2,$f0
  406118:	2b 00 00 00 00 00 16 06 	l.d $f22,0($6)
  406120:	75 00 00 00 00 16 18 16 	mul.d $f22,$f22,$f24
  406128:	2b 00 00 00 00 00 14 08 	l.d $f20,0($8)
  406130:	75 00 00 00 00 14 1a 14 	mul.d $f20,$f20,$f26
  406138:	2b 00 00 00 00 00 12 0a 	l.d $f18,0($10)
  406140:	75 00 00 00 00 12 18 12 	mul.d $f18,$f18,$f24
  406148:	2b 00 00 00 00 00 02 09 	l.d $f2,0($9)
  406150:	75 00 00 00 00 02 1c 02 	mul.d $f2,$f2,$f28
  406158:	2b 00 00 00 00 00 10 0b 	l.d $f16,0($11)
  406160:	75 00 00 00 00 10 1a 10 	mul.d $f16,$f16,$f26
  406168:	2b 00 00 00 00 00 0e 0c 	l.d $f14,0($12)
  406170:	75 00 00 00 00 0e 1c 0e 	mul.d $f14,$f14,$f28
  406178:	55 00 00 00 03 03 05 00 	sll $3,$5,0x3
  406180:	42 00 00 00 00 02 03 14 	addu $2,$20,$3
  406188:	2b 00 00 00 18 01 0c 02 	l.d $f12,280($2)
  406190:	75 00 00 00 00 0c 18 0c 	mul.d $f12,$f12,$f24
  406198:	42 00 00 00 00 02 03 14 	addu $2,$20,$3
  4061a0:	2b 00 00 00 40 01 0a 02 	l.d $f10,320($2)
  4061a8:	75 00 00 00 00 0a 1a 0a 	mul.d $f10,$f10,$f26
  4061b0:	42 00 00 00 00 02 03 14 	addu $2,$20,$3
  4061b8:	2b 00 00 00 68 01 08 02 	l.d $f8,360($2)
  4061c0:	75 00 00 00 00 08 1c 08 	mul.d $f8,$f8,$f28
  4061c8:	42 00 00 00 00 02 03 14 	addu $2,$20,$3
  4061d0:	2b 00 00 00 90 01 06 02 	l.d $f6,400($2)
  4061d8:	75 00 00 00 00 06 18 06 	mul.d $f6,$f6,$f24
  4061e0:	42 00 00 00 00 03 03 14 	addu $3,$20,$3
  4061e8:	2b 00 00 00 b8 01 04 03 	l.d $f4,440($3)
  4061f0:	75 00 00 00 00 04 1a 04 	mul.d $f4,$f4,$f26
  4061f8:	75 00 00 00 00 12 18 12 	mul.d $f18,$f18,$f24
  406200:	75 00 00 00 00 10 1a 10 	mul.d $f16,$f16,$f26
  406208:	75 00 00 00 00 0e 1c 0e 	mul.d $f14,$f14,$f28
  406210:	75 00 00 00 00 0c 18 0c 	mul.d $f12,$f12,$f24
  406218:	75 00 00 00 00 0a 1a 0a 	mul.d $f10,$f10,$f26
  406220:	75 00 00 00 00 08 1c 08 	mul.d $f8,$f8,$f28
  406228:	75 00 00 00 00 06 18 06 	mul.d $f6,$f6,$f24
  406230:	75 00 00 00 00 04 1a 04 	mul.d $f4,$f4,$f26
  406238:	75 00 00 00 00 0c 18 0c 	mul.d $f12,$f12,$f24
  406240:	2b 00 00 00 00 00 00 07 	l.d $f0,0($7)
  406248:	75 00 00 00 00 0a 1a 0a 	mul.d $f10,$f10,$f26
  406250:	71 00 00 00 00 00 16 00 	add.d $f0,$f0,$f22
  406258:	71 00 00 00 00 00 14 00 	add.d $f0,$f0,$f20
  406260:	75 00 00 00 00 08 1c 08 	mul.d $f8,$f8,$f28
  406268:	71 00 00 00 00 00 02 00 	add.d $f0,$f0,$f2
  406270:	2b 00 00 00 00 00 02 0e 	l.d $f2,0($14)
  406278:	75 00 00 00 00 02 1c 02 	mul.d $f2,$f2,$f28
  406280:	75 00 00 00 00 06 18 06 	mul.d $f6,$f6,$f24
  406288:	75 00 00 00 00 04 1a 04 	mul.d $f4,$f4,$f26
  406290:	75 00 00 00 00 02 1c 02 	mul.d $f2,$f2,$f28
  406298:	71 00 00 00 00 00 12 00 	add.d $f0,$f0,$f18
  4062a0:	75 00 00 00 00 06 18 06 	mul.d $f6,$f6,$f24
  4062a8:	71 00 00 00 00 00 10 00 	add.d $f0,$f0,$f16
  4062b0:	71 00 00 00 00 00 0e 00 	add.d $f0,$f0,$f14
  4062b8:	75 00 00 00 00 04 1a 04 	mul.d $f4,$f4,$f26
  4062c0:	71 00 00 00 00 00 0c 00 	add.d $f0,$f0,$f12
  4062c8:	71 00 00 00 00 00 0a 00 	add.d $f0,$f0,$f10
  4062d0:	75 00 00 00 00 02 1c 02 	mul.d $f2,$f2,$f28
  4062d8:	28 00 00 00 08 0b 12 1d 	lw $18,2824($29)
  4062e0:	71 00 00 00 00 00 08 00 	add.d $f0,$f0,$f8
  4062e8:	43 00 00 00 08 00 0c 0c 	addiu $12,$12,8
  4062f0:	43 00 00 00 08 00 0b 0b 	addiu $11,$11,8
  4062f8:	43 00 00 00 08 00 0a 0a 	addiu $10,$10,8
  406300:	71 00 00 00 00 00 06 00 	add.d $f0,$f0,$f6
  406308:	75 00 00 00 00 02 1c 02 	mul.d $f2,$f2,$f28
  406310:	43 00 00 00 08 00 09 09 	addiu $9,$9,8
  406318:	43 00 00 00 08 00 08 08 	addiu $8,$8,8
  406320:	43 00 00 00 08 00 07 07 	addiu $7,$7,8
  406328:	71 00 00 00 00 00 04 00 	add.d $f0,$f0,$f4
  406330:	43 00 00 00 08 00 06 06 	addiu $6,$6,8
  406338:	42 00 00 00 00 02 05 12 	addu $2,$18,$5
  406340:	43 00 00 00 01 00 05 05 	addiu $5,$5,1
  406348:	71 00 00 00 00 00 02 00 	add.d $f0,$f0,$f2
  406350:	55 00 00 00 03 02 02 00 	sll $2,$2,0x3
  406358:	42 00 00 00 00 02 1d 02 	addu $2,$2,$29
  406360:	43 00 00 00 08 00 0e 0e 	addiu $14,$14,8
  406368:	37 00 00 00 d0 ff 00 02 	s.d $f0,-48($2)
  406370:	5c 00 00 00 06 00 02 05 	slti $2,$5,6
  406378:	06 00 00 00 66 ff 00 02 	bne $2,$0,406118 <erhs_+0x2100>
  406380:	2b 00 00 00 e8 ff 00 04 	l.d $f0,-24($4)
  406388:	43 00 00 00 00 05 02 1d 	addiu $2,$29,1280
  406390:	42 00 00 00 00 02 0d 02 	addu $2,$2,$13
  406398:	37 00 00 00 00 00 00 02 	s.d $f0,0($2)
  4063a0:	2b 00 00 00 e8 ff 04 04 	l.d $f4,-24($4)
  4063a8:	2b 00 00 00 d8 ff 08 04 	l.d $f8,-40($4)
  4063b0:	77 00 00 00 00 0a 08 04 	div.d $f10,$f4,$f8
  4063b8:	2b 00 00 00 e0 ff 06 04 	l.d $f6,-32($4)
  4063c0:	75 00 00 00 00 02 06 06 	mul.d $f2,$f6,$f6
  4063c8:	75 00 00 00 00 04 04 04 	mul.d $f4,$f4,$f4
  4063d0:	2b 00 00 00 f0 ff 00 04 	l.d $f0,-16($4)
  4063d8:	75 00 00 00 00 00 00 00 	mul.d $f0,$f0,$f0
  4063e0:	71 00 00 00 00 02 04 02 	add.d $f2,$f2,$f4
  4063e8:	71 00 00 00 00 02 00 02 	add.d $f2,$f2,$f0
  4063f0:	2b 00 00 00 b0 80 00 1c 	l.d $f0,-32592($28)
  4063f8:	75 00 00 00 00 02 00 02 	mul.d $f2,$f2,$f0
  406400:	77 00 00 00 00 08 08 02 	div.d $f8,$f2,$f8
  406408:	75 00 00 00 00 06 0a 06 	mul.d $f6,$f6,$f10
  406410:	43 00 00 00 08 05 02 1d 	addiu $2,$29,1288
  406418:	42 00 00 00 00 02 0d 02 	addu $2,$2,$13
  406420:	37 00 00 00 00 00 06 02 	s.d $f6,0($2)
  406428:	2b 00 00 00 e8 ff 02 04 	l.d $f2,-24($4)
  406430:	75 00 00 00 00 02 0a 02 	mul.d $f2,$f2,$f10
  406438:	2b 00 00 00 f8 ff 00 04 	l.d $f0,-8($4)
  406440:	73 00 00 00 00 00 08 00 	sub.d $f0,$f0,$f8
  406448:	2b 00 00 00 b8 80 04 1c 	l.d $f4,-32584($28)
  406450:	75 00 00 00 00 00 04 00 	mul.d $f0,$f0,$f4
  406458:	71 00 00 00 00 02 00 02 	add.d $f2,$f2,$f0
  406460:	43 00 00 00 10 05 02 1d 	addiu $2,$29,1296
  406468:	42 00 00 00 00 02 0d 02 	addu $2,$2,$13
  406470:	37 00 00 00 00 00 02 02 	s.d $f2,0($2)
  406478:	2b 00 00 00 f0 ff 00 04 	l.d $f0,-16($4)
  406480:	75 00 00 00 00 00 0a 00 	mul.d $f0,$f0,$f10
  406488:	75 00 00 00 00 04 04 08 	mul.d $f4,$f8,$f4
  406490:	43 00 00 00 18 05 02 1d 	addiu $2,$29,1304
  406498:	42 00 00 00 00 02 0d 02 	addu $2,$2,$13
  4064a0:	37 00 00 00 00 00 00 02 	s.d $f0,0($2)
  4064a8:	2b 00 00 00 f8 ff 02 04 	l.d $f2,-8($4)
  4064b0:	2b 00 00 00 c0 80 00 1c 	l.d $f0,-32576($28)
  4064b8:	75 00 00 00 00 02 00 02 	mul.d $f2,$f2,$f0
  4064c0:	73 00 00 00 00 02 04 02 	sub.d $f2,$f2,$f4
  4064c8:	75 00 00 00 00 02 0a 02 	mul.d $f2,$f2,$f10
  4064d0:	43 00 00 00 05 00 10 10 	addiu $16,$16,5
  4064d8:	43 00 00 00 01 00 19 19 	addiu $25,$25,1
  4064e0:	43 00 00 00 20 05 02 1d 	addiu $2,$29,1312
  4064e8:	42 00 00 00 00 02 0d 02 	addu $2,$2,$13
  4064f0:	43 00 00 00 28 00 0d 0d 	addiu $13,$13,40
  4064f8:	43 00 00 00 28 00 04 04 	addiu $4,$4,40
  406500:	37 00 00 00 00 00 02 02 	s.d $f2,0($2)
  406508:	5b 00 00 00 00 02 19 0f 	slt $2,$15,$25
  406510:	05 00 00 00 c6 fe 00 02 	beq $2,$0,406030 <erhs_+0x2018>
  406518:	a2 00 00 00 42 10 03 00 	lui $3,4162
  406520:	43 00 00 00 f4 2c 03 03 	addiu $3,$3,11508
  406528:	28 00 00 00 00 00 02 03 	lw $2,0($3)
  406530:	43 00 00 00 02 00 19 00 	addiu $25,$0,2
  406538:	43 00 00 00 ff ff 0f 02 	addiu $15,$2,-1
  406540:	5c 00 00 00 02 00 02 0f 	slti $2,$15,2
  406548:	06 00 00 00 86 00 00 02 	bne $2,$0,406768 <erhs_+0x2750>
  406550:	42 00 00 00 00 0c 15 00 	addu $12,$0,$21
  406558:	a2 00 00 00 2c 10 0b 00 	lui $11,4140
  406560:	43 00 00 00 30 8c 0b 0b 	addiu $11,$11,-29648
  406568:	43 00 00 00 5c 00 0a 03 	addiu $10,$3,92
  406570:	43 00 00 00 20 05 09 1d 	addiu $9,$29,1312
  406578:	43 00 00 00 0a 00 07 00 	addiu $7,$0,10
  406580:	43 00 00 00 01 00 02 07 	addiu $2,$7,1
  406588:	55 00 00 00 03 02 02 00 	sll $2,$2,0x3
  406590:	42 00 00 00 00 03 02 09 	addu $3,$9,$2
  406598:	42 00 00 00 00 02 02 16 	addu $2,$22,$2
  4065a0:	2b 00 00 00 00 00 00 03 	l.d $f0,0($3)
  4065a8:	2b 00 00 00 00 00 02 02 	l.d $f2,0($2)
  4065b0:	73 00 00 00 00 00 02 00 	sub.d $f0,$f0,$f2
  4065b8:	2b 00 00 00 00 00 02 0a 	l.d $f2,0($10)
  4065c0:	42 00 00 00 00 04 19 0c 	addu $4,$12,$25
  4065c8:	55 00 00 00 05 02 04 00 	sll $2,$4,0x5
  4065d0:	75 00 00 00 00 02 00 02 	mul.d $f2,$f2,$f0
  4065d8:	42 00 00 00 00 02 04 02 	addu $2,$2,$4
  4065e0:	42 00 00 00 00 02 18 02 	addu $2,$2,$24
  4065e8:	55 00 00 00 02 03 02 00 	sll $3,$2,0x2
  4065f0:	42 00 00 00 00 06 02 03 	addu $6,$3,$2
  4065f8:	43 00 00 00 01 00 02 06 	addiu $2,$6,1
  406600:	55 00 00 00 03 02 02 00 	sll $2,$2,0x3
  406608:	42 00 00 00 00 02 0b 02 	addu $2,$2,$11
  406610:	2b 00 00 00 00 00 00 02 	l.d $f0,0($2)
  406618:	73 00 00 00 00 00 02 00 	sub.d $f0,$f0,$f2
  406620:	42 00 00 00 00 08 07 00 	addu $8,$0,$7
  406628:	43 00 00 00 02 00 05 00 	addiu $5,$0,2
  406630:	37 00 00 00 00 00 00 02 	s.d $f0,0($2)
  406638:	42 00 00 00 00 02 05 08 	addu $2,$8,$5
  406640:	55 00 00 00 03 02 02 00 	sll $2,$2,0x3
  406648:	42 00 00 00 00 03 02 09 	addu $3,$9,$2
  406650:	42 00 00 00 00 02 02 16 	addu $2,$22,$2
  406658:	2b 00 00 00 00 00 02 03 	l.d $f2,0($3)
  406660:	2b 00 00 00 00 00 00 02 	l.d $f0,0($2)
  406668:	73 00 00 00 00 02 00 02 	sub.d $f2,$f2,$f0
  406670:	2b 00 00 00 00 00 04 0a 	l.d $f4,0($10)
  406678:	75 00 00 00 00 04 02 04 	mul.d $f4,$f4,$f2
  406680:	42 00 00 00 00 02 05 06 	addu $2,$6,$5
  406688:	55 00 00 00 03 02 02 00 	sll $2,$2,0x3
  406690:	42 00 00 00 00 02 0b 02 	addu $2,$2,$11
  406698:	2b 00 00 00 00 00 00 02 	l.d $f0,0($2)
  4066a0:	73 00 00 00 00 00 04 00 	sub.d $f0,$f0,$f4
  4066a8:	43 00 00 00 01 00 03 05 	addiu $3,$5,1
  4066b0:	37 00 00 00 00 00 00 02 	s.d $f0,0($2)
  4066b8:	42 00 00 00 00 02 03 08 	addu $2,$8,$3
  4066c0:	55 00 00 00 03 02 02 00 	sll $2,$2,0x3
  4066c8:	42 00 00 00 00 04 02 09 	addu $4,$9,$2
  4066d0:	42 00 00 00 00 02 02 16 	addu $2,$22,$2
  4066d8:	2b 00 00 00 00 00 02 04 	l.d $f2,0($4)
  4066e0:	2b 00 00 00 00 00 00 02 	l.d $f0,0($2)
  4066e8:	73 00 00 00 00 02 00 02 	sub.d $f2,$f2,$f0
  4066f0:	2b 00 00 00 00 00 04 0a 	l.d $f4,0($10)
  4066f8:	75 00 00 00 00 04 02 04 	mul.d $f4,$f4,$f2
  406700:	42 00 00 00 00 03 03 06 	addu $3,$6,$3
  406708:	55 00 00 00 03 03 03 00 	sll $3,$3,0x3
  406710:	42 00 00 00 00 03 0b 03 	addu $3,$3,$11
  406718:	2b 00 00 00 00 00 00 03 	l.d $f0,0($3)
  406720:	73 00 00 00 00 00 04 00 	sub.d $f0,$f0,$f4
  406728:	43 00 00 00 02 00 05 05 	addiu $5,$5,2
  406730:	5c 00 00 00 06 00 02 05 	slti $2,$5,6
  406738:	37 00 00 00 00 00 00 03 	s.d $f0,0($3)
  406740:	06 00 00 00 bc ff 00 02 	bne $2,$0,406638 <erhs_+0x2620>
  406748:	43 00 00 00 05 00 07 07 	addiu $7,$7,5
  406750:	43 00 00 00 01 00 19 19 	addiu $25,$25,1
  406758:	5b 00 00 00 00 02 19 0f 	slt $2,$15,$25
  406760:	05 00 00 00 86 ff 00 02 	beq $2,$0,406580 <erhs_+0x2568>
  406768:	a2 00 00 00 42 10 03 00 	lui $3,4162
  406770:	43 00 00 00 f4 2c 03 03 	addiu $3,$3,11508
  406778:	28 00 00 00 00 00 0f 03 	lw $15,0($3)
  406780:	43 00 00 00 02 00 19 00 	addiu $25,$0,2
  406788:	5c 00 00 00 02 00 02 0f 	slti $2,$15,2
  406790:	06 00 00 00 96 00 00 02 	bne $2,$0,4069f0 <erhs_+0x29d8>
  406798:	43 00 00 00 64 00 08 03 	addiu $8,$3,100
  4067a0:	2b 00 00 00 d8 80 1a 1c 	l.d $f26,-32552($28)
  4067a8:	2b 00 00 00 e0 80 18 1c 	l.d $f24,-32544($28)
  4067b0:	43 00 00 00 70 05 07 1d 	addiu $7,$29,1392
  4067b8:	43 00 00 00 68 05 06 1d 	addiu $6,$29,1384
  4067c0:	43 00 00 00 60 05 05 1d 	addiu $5,$29,1376
  4067c8:	43 00 00 00 58 05 04 1d 	addiu $4,$29,1368
  4067d0:	43 00 00 00 50 00 03 1d 	addiu $3,$29,80
  4067d8:	2b 00 00 00 d8 ff 00 03 	l.d $f0,-40($3)
  4067e0:	2b 00 00 00 c8 80 16 1c 	l.d $f22,-32568($28)
  4067e8:	77 00 00 00 00 14 00 16 	div.d $f20,$f22,$f0
  4067f0:	2b 00 00 00 e0 ff 08 03 	l.d $f8,-32($3)
  4067f8:	75 00 00 00 00 08 08 14 	mul.d $f8,$f20,$f8
  406800:	2b 00 00 00 e8 ff 0c 03 	l.d $f12,-24($3)
  406808:	75 00 00 00 00 0c 0c 14 	mul.d $f12,$f20,$f12
  406810:	2b 00 00 00 f0 ff 0e 03 	l.d $f14,-16($3)
  406818:	75 00 00 00 00 0e 0e 14 	mul.d $f14,$f20,$f14
  406820:	2b 00 00 00 f8 ff 10 03 	l.d $f16,-8($3)
  406828:	75 00 00 00 00 10 10 14 	mul.d $f16,$f20,$f16
  406830:	2b 00 00 00 b0 ff 00 03 	l.d $f0,-80($3)
  406838:	77 00 00 00 00 14 00 16 	div.d $f20,$f22,$f0
  406840:	2b 00 00 00 b8 ff 06 03 	l.d $f6,-72($3)
  406848:	75 00 00 00 00 06 06 14 	mul.d $f6,$f20,$f6
  406850:	2b 00 00 00 c0 ff 0a 03 	l.d $f10,-64($3)
  406858:	75 00 00 00 00 0a 0a 14 	mul.d $f10,$f20,$f10
  406860:	2b 00 00 00 c8 ff 04 03 	l.d $f4,-56($3)
  406868:	75 00 00 00 00 04 04 14 	mul.d $f4,$f20,$f4
  406870:	2b 00 00 00 d0 ff 12 03 	l.d $f18,-48($3)
  406878:	75 00 00 00 00 12 12 14 	mul.d $f18,$f20,$f18
  406880:	73 00 00 00 00 00 06 08 	sub.d $f0,$f8,$f6
  406888:	2b 00 00 00 00 00 02 08 	l.d $f2,0($8)
  406890:	75 00 00 00 00 02 00 02 	mul.d $f2,$f2,$f0
  406898:	75 00 00 00 00 08 08 08 	mul.d $f8,$f8,$f8
  4068a0:	75 00 00 00 00 06 06 06 	mul.d $f6,$f6,$f6
  4068a8:	2b 00 00 00 d0 80 16 1c 	l.d $f22,-32560($28)
  4068b0:	37 00 00 00 00 00 02 04 	s.d $f2,0($4)
  4068b8:	2b 00 00 00 00 00 02 08 	l.d $f2,0($8)
  4068c0:	75 00 00 00 00 02 16 02 	mul.d $f2,$f2,$f22
  4068c8:	73 00 00 00 00 00 0a 0c 	sub.d $f0,$f12,$f10
  4068d0:	75 00 00 00 00 0c 0c 0c 	mul.d $f12,$f12,$f12
  4068d8:	75 00 00 00 00 02 00 02 	mul.d $f2,$f2,$f0
  4068e0:	75 00 00 00 00 0a 0a 0a 	mul.d $f10,$f10,$f10
  4068e8:	73 00 00 00 00 00 04 0e 	sub.d $f0,$f14,$f4
  4068f0:	37 00 00 00 00 00 02 05 	s.d $f2,0($5)
  4068f8:	2b 00 00 00 00 00 02 08 	l.d $f2,0($8)
  406900:	75 00 00 00 00 02 00 02 	mul.d $f2,$f2,$f0
  406908:	75 00 00 00 00 0e 0e 0e 	mul.d $f14,$f14,$f14
  406910:	75 00 00 00 00 04 04 04 	mul.d $f4,$f4,$f4
  406918:	37 00 00 00 00 00 02 06 	s.d $f2,0($6)
  406920:	2b 00 00 00 00 00 00 08 	l.d $f0,0($8)
  406928:	71 00 00 00 00 06 0a 06 	add.d $f6,$f6,$f10
  406930:	75 00 00 00 00 02 18 00 	mul.d $f2,$f0,$f24
  406938:	71 00 00 00 00 06 04 06 	add.d $f6,$f6,$f4
  406940:	71 00 00 00 00 08 0c 08 	add.d $f8,$f8,$f12
  406948:	75 00 00 00 00 04 1a 00 	mul.d $f4,$f0,$f26
  406950:	73 00 00 00 00 0c 0a 0c 	sub.d $f12,$f12,$f10
  406958:	71 00 00 00 00 08 0e 08 	add.d $f8,$f8,$f14
  406960:	75 00 00 00 00 02 0c 02 	mul.d $f2,$f2,$f12
  406968:	73 00 00 00 00 08 06 08 	sub.d $f8,$f8,$f6
  406970:	75 00 00 00 00 04 08 04 	mul.d $f4,$f4,$f8
  406978:	2b 00 00 00 e8 80 16 1c 	l.d $f22,-32536($28)
  406980:	75 00 00 00 00 00 16 00 	mul.d $f0,$f0,$f22
  406988:	73 00 00 00 00 10 12 10 	sub.d $f16,$f16,$f18
  406990:	75 00 00 00 00 00 10 00 	mul.d $f0,$f0,$f16
  406998:	71 00 00 00 00 04 02 04 	add.d $f4,$f4,$f2
  4069a0:	43 00 00 00 01 00 19 19 	addiu $25,$25,1
  4069a8:	5b 00 00 00 00 02 19 0f 	slt $2,$15,$25
  4069b0:	43 00 00 00 28 00 03 03 	addiu $3,$3,40
  4069b8:	71 00 00 00 00 04 00 04 	add.d $f4,$f4,$f0
  4069c0:	43 00 00 00 28 00 04 04 	addiu $4,$4,40
  4069c8:	43 00 00 00 28 00 05 05 	addiu $5,$5,40
  4069d0:	43 00 00 00 28 00 06 06 	addiu $6,$6,40
  4069d8:	37 00 00 00 00 00 04 07 	s.d $f4,0($7)
  4069e0:	43 00 00 00 28 00 07 07 	addiu $7,$7,40
  4069e8:	05 00 00 00 7a ff 00 02 	beq $2,$0,4067d8 <erhs_+0x27c0>
  4069f0:	a2 00 00 00 42 10 02 00 	lui $2,4162
  4069f8:	28 00 00 00 f4 2c 02 02 	lw $2,11508($2)
  406a00:	43 00 00 00 02 00 19 00 	addiu $25,$0,2
  406a08:	43 00 00 00 ff ff 0f 02 	addiu $15,$2,-1
  406a10:	5c 00 00 00 02 00 02 0f 	slti $2,$15,2
  406a18:	06 00 00 00 10 01 00 02 	bne $2,$0,406e60 <erhs_+0x2e48>
  406a20:	42 00 00 00 00 07 15 00 	addu $7,$0,$21
  406a28:	43 00 00 00 50 00 05 1d 	addiu $5,$29,80
  406a30:	43 00 00 00 50 00 06 00 	addiu $6,$0,80
  406a38:	2b 00 00 00 d8 ff 00 05 	l.d $f0,-40($5)
  406a40:	71 00 00 00 00 00 00 00 	add.d $f0,$f0,$f0
  406a48:	2b 00 00 00 b0 ff 04 05 	l.d $f4,-80($5)
  406a50:	2b 00 00 00 00 00 06 17 	l.d $f6,0($23)
  406a58:	2b 00 00 00 00 00 02 13 	l.d $f2,0($19)
  406a60:	73 00 00 00 00 04 00 04 	sub.d $f4,$f4,$f0
  406a68:	75 00 00 00 00 06 02 06 	mul.d $f6,$f6,$f2
  406a70:	2b 00 00 00 00 00 00 05 	l.d $f0,0($5)
  406a78:	42 00 00 00 00 03 19 07 	addu $3,$7,$25
  406a80:	55 00 00 00 05 02 03 00 	sll $2,$3,0x5
  406a88:	71 00 00 00 00 04 00 04 	add.d $f4,$f4,$f0
  406a90:	42 00 00 00 00 02 03 02 	addu $2,$2,$3
  406a98:	42 00 00 00 00 02 18 02 	addu $2,$2,$24
  406aa0:	55 00 00 00 02 04 02 00 	sll $4,$2,0x2
  406aa8:	75 00 00 00 00 06 04 06 	mul.d $f6,$f6,$f4
  406ab0:	42 00 00 00 00 04 02 04 	addu $4,$4,$2
  406ab8:	55 00 00 00 03 04 04 00 	sll $4,$4,0x3
  406ac0:	a2 00 00 00 2c 10 12 00 	lui $18,4140
  406ac8:	43 00 00 00 38 8c 12 12 	addiu $18,$18,-29640
  406ad0:	42 00 00 00 00 02 12 04 	addu $2,$4,$18
  406ad8:	2b 00 00 00 00 00 00 02 	l.d $f0,0($2)
  406ae0:	71 00 00 00 00 00 06 00 	add.d $f0,$f0,$f6
  406ae8:	2b 00 00 00 f0 80 16 1c 	l.d $f22,-32528($28)
  406af0:	42 00 00 00 00 03 06 1d 	addu $3,$29,$6
  406af8:	37 00 00 00 00 00 00 02 	s.d $f0,0($2)
  406b00:	28 00 00 00 90 0a 12 1d 	lw $18,2704($29)
  406b08:	2b 00 00 00 10 00 08 13 	l.d $f8,16($19)
  406b10:	2b 00 00 00 08 05 00 03 	l.d $f0,1288($3)
  406b18:	42 00 00 00 00 02 06 12 	addu $2,$18,$6
  406b20:	75 00 00 00 00 08 16 08 	mul.d $f8,$f8,$f22
  406b28:	2b 00 00 00 00 00 02 02 	l.d $f2,0($2)
  406b30:	73 00 00 00 00 02 00 02 	sub.d $f2,$f2,$f0
  406b38:	75 00 00 00 00 08 02 08 	mul.d $f8,$f8,$f2
  406b40:	2b 00 00 00 e0 ff 00 05 	l.d $f0,-32($5)
  406b48:	71 00 00 00 00 00 00 00 	add.d $f0,$f0,$f0
  406b50:	2b 00 00 00 b8 ff 02 05 	l.d $f2,-72($5)
  406b58:	2b 00 00 00 08 00 06 17 	l.d $f6,8($23)
  406b60:	2b 00 00 00 00 00 04 13 	l.d $f4,0($19)
  406b68:	73 00 00 00 00 02 00 02 	sub.d $f2,$f2,$f0
  406b70:	75 00 00 00 00 06 04 06 	mul.d $f6,$f6,$f4
  406b78:	2b 00 00 00 08 00 00 05 	l.d $f0,8($5)
  406b80:	71 00 00 00 00 02 00 02 	add.d $f2,$f2,$f0
  406b88:	a2 00 00 00 2c 10 12 00 	lui $18,4140
  406b90:	43 00 00 00 40 8c 12 12 	addiu $18,$18,-29632
  406b98:	42 00 00 00 00 02 12 04 	addu $2,$4,$18
  406ba0:	75 00 00 00 00 06 02 06 	mul.d $f6,$f6,$f2
  406ba8:	2b 00 00 00 00 00 00 02 	l.d $f0,0($2)
  406bb0:	71 00 00 00 00 00 08 00 	add.d $f0,$f0,$f8
  406bb8:	71 00 00 00 00 00 06 00 	add.d $f0,$f0,$f6
  406bc0:	42 00 00 00 00 03 06 1d 	addu $3,$29,$6
  406bc8:	37 00 00 00 00 00 00 02 	s.d $f0,0($2)
  406bd0:	28 00 00 00 98 0a 12 1d 	lw $18,2712($29)
  406bd8:	2b 00 00 00 10 00 08 13 	l.d $f8,16($19)
  406be0:	2b 00 00 00 10 05 00 03 	l.d $f0,1296($3)
  406be8:	42 00 00 00 00 02 06 12 	addu $2,$18,$6
  406bf0:	75 00 00 00 00 08 16 08 	mul.d $f8,$f8,$f22
  406bf8:	2b 00 00 00 00 00 02 02 	l.d $f2,0($2)
  406c00:	73 00 00 00 00 02 00 02 	sub.d $f2,$f2,$f0
  406c08:	75 00 00 00 00 08 02 08 	mul.d $f8,$f8,$f2
  406c10:	2b 00 00 00 e8 ff 00 05 	l.d $f0,-24($5)
  406c18:	71 00 00 00 00 00 00 00 	add.d $f0,$f0,$f0
  406c20:	2b 00 00 00 c0 ff 02 05 	l.d $f2,-64($5)
  406c28:	2b 00 00 00 10 00 06 17 	l.d $f6,16($23)
  406c30:	2b 00 00 00 00 00 04 13 	l.d $f4,0($19)
  406c38:	73 00 00 00 00 02 00 02 	sub.d $f2,$f2,$f0
  406c40:	75 00 00 00 00 06 04 06 	mul.d $f6,$f6,$f4
  406c48:	2b 00 00 00 10 00 00 05 	l.d $f0,16($5)
  406c50:	71 00 00 00 00 02 00 02 	add.d $f2,$f2,$f0
  406c58:	a2 00 00 00 2c 10 12 00 	lui $18,4140
  406c60:	43 00 00 00 48 8c 12 12 	addiu $18,$18,-29624
  406c68:	42 00 00 00 00 02 12 04 	addu $2,$4,$18
  406c70:	75 00 00 00 00 06 02 06 	mul.d $f6,$f6,$f2
  406c78:	2b 00 00 00 00 00 00 02 	l.d $f0,0($2)
  406c80:	71 00 00 00 00 00 08 00 	add.d $f0,$f0,$f8
  406c88:	71 00 00 00 00 00 06 00 	add.d $f0,$f0,$f6
  406c90:	42 00 00 00 00 03 06 1d 	addu $3,$29,$6
  406c98:	37 00 00 00 00 00 00 02 	s.d $f0,0($2)
  406ca0:	28 00 00 00 a0 0a 12 1d 	lw $18,2720($29)
  406ca8:	2b 00 00 00 10 00 08 13 	l.d $f8,16($19)
  406cb0:	2b 00 00 00 18 05 00 03 	l.d $f0,1304($3)
  406cb8:	42 00 00 00 00 02 06 12 	addu $2,$18,$6
  406cc0:	75 00 00 00 00 08 16 08 	mul.d $f8,$f8,$f22
  406cc8:	2b 00 00 00 00 00 02 02 	l.d $f2,0($2)
  406cd0:	73 00 00 00 00 02 00 02 	sub.d $f2,$f2,$f0
  406cd8:	75 00 00 00 00 08 02 08 	mul.d $f8,$f8,$f2
  406ce0:	2b 00 00 00 f0 ff 00 05 	l.d $f0,-16($5)
  406ce8:	71 00 00 00 00 00 00 00 	add.d $f0,$f0,$f0
  406cf0:	2b 00 00 00 c8 ff 02 05 	l.d $f2,-56($5)
  406cf8:	2b 00 00 00 18 00 06 17 	l.d $f6,24($23)
  406d00:	2b 00 00 00 00 00 04 13 	l.d $f4,0($19)
  406d08:	73 00 00 00 00 02 00 02 	sub.d $f2,$f2,$f0
  406d10:	75 00 00 00 00 06 04 06 	mul.d $f6,$f6,$f4
  406d18:	2b 00 00 00 18 00 00 05 	l.d $f0,24($5)
  406d20:	71 00 00 00 00 02 00 02 	add.d $f2,$f2,$f0
  406d28:	a2 00 00 00 2c 10 12 00 	lui $18,4140
  406d30:	43 00 00 00 50 8c 12 12 	addiu $18,$18,-29616
  406d38:	42 00 00 00 00 02 12 04 	addu $2,$4,$18
  406d40:	75 00 00 00 00 06 02 06 	mul.d $f6,$f6,$f2
  406d48:	2b 00 00 00 00 00 00 02 	l.d $f0,0($2)
  406d50:	71 00 00 00 00 00 08 00 	add.d $f0,$f0,$f8
  406d58:	71 00 00 00 00 00 06 00 	add.d $f0,$f0,$f6
  406d60:	42 00 00 00 00 03 06 1d 	addu $3,$29,$6
  406d68:	37 00 00 00 00 00 00 02 	s.d $f0,0($2)
  406d70:	28 00 00 00 a8 0a 12 1d 	lw $18,2728($29)
  406d78:	2b 00 00 00 10 00 08 13 	l.d $f8,16($19)
  406d80:	2b 00 00 00 20 05 00 03 	l.d $f0,1312($3)
  406d88:	42 00 00 00 00 02 06 12 	addu $2,$18,$6
  406d90:	75 00 00 00 00 08 16 08 	mul.d $f8,$f8,$f22
  406d98:	2b 00 00 00 00 00 02 02 	l.d $f2,0($2)
  406da0:	73 00 00 00 00 02 00 02 	sub.d $f2,$f2,$f0
  406da8:	75 00 00 00 00 08 02 08 	mul.d $f8,$f8,$f2
  406db0:	2b 00 00 00 f8 ff 00 05 	l.d $f0,-8($5)
  406db8:	71 00 00 00 00 00 00 00 	add.d $f0,$f0,$f0
  406dc0:	2b 00 00 00 d0 ff 02 05 	l.d $f2,-48($5)
  406dc8:	2b 00 00 00 20 00 06 17 	l.d $f6,32($23)
  406dd0:	2b 00 00 00 00 00 04 13 	l.d $f4,0($19)
  406dd8:	73 00 00 00 00 02 00 02 	sub.d $f2,$f2,$f0
  406de0:	75 00 00 00 00 06 04 06 	mul.d $f6,$f6,$f4
  406de8:	2b 00 00 00 20 00 00 05 	l.d $f0,32($5)
  406df0:	71 00 00 00 00 02 00 02 	add.d $f2,$f2,$f0
  406df8:	a2 00 00 00 2c 10 12 00 	lui $18,4140
  406e00:	43 00 00 00 58 8c 12 12 	addiu $18,$18,-29608
  406e08:	42 00 00 00 00 04 12 04 	addu $4,$4,$18
  406e10:	75 00 00 00 00 06 02 06 	mul.d $f6,$f6,$f2
  406e18:	2b 00 00 00 00 00 00 04 	l.d $f0,0($4)
  406e20:	71 00 00 00 00 00 08 00 	add.d $f0,$f0,$f8
  406e28:	43 00 00 00 01 00 19 19 	addiu $25,$25,1
  406e30:	71 00 00 00 00 00 06 00 	add.d $f0,$f0,$f6
  406e38:	43 00 00 00 28 00 06 06 	addiu $6,$6,40
  406e40:	5b 00 00 00 00 02 19 0f 	slt $2,$15,$25
  406e48:	43 00 00 00 28 00 05 05 	addiu $5,$5,40
  406e50:	37 00 00 00 00 00 00 04 	s.d $f0,0($4)
  406e58:	05 00 00 00 f6 fe 00 02 	beq $2,$0,406a38 <erhs_+0x2a20>
  406e60:	2b 00 00 00 28 00 02 1d 	l.d $f2,40($29)
  406e68:	2b 00 00 00 f8 80 16 1c 	l.d $f22,-32520($28)
  406e70:	75 00 00 00 00 02 16 02 	mul.d $f2,$f2,$f22
  406e78:	2b 00 00 00 50 00 00 1d 	l.d $f0,80($29)
  406e80:	2b 00 00 00 00 81 16 1c 	l.d $f22,-32512($28)
  406e88:	75 00 00 00 00 00 16 00 	mul.d $f0,$f0,$f22
  406e90:	73 00 00 00 00 02 00 02 	sub.d $f2,$f2,$f0
  406e98:	2b 00 00 00 78 00 00 1d 	l.d $f0,120($29)
  406ea0:	28 00 00 00 d8 0a 12 1d 	lw $18,2776($29)
  406ea8:	71 00 00 00 00 02 00 02 	add.d $f2,$f2,$f0
  406eb0:	42 00 00 00 00 02 18 12 	addu $2,$18,$24
  406eb8:	55 00 00 00 02 03 02 00 	sll $3,$2,0x2
  406ec0:	42 00 00 00 00 06 02 03 	addu $6,$3,$2
  406ec8:	75 00 00 00 00 02 02 1e 	mul.d $f2,$f30,$f2
  406ed0:	43 00 00 00 01 00 03 06 	addiu $3,$6,1
  406ed8:	55 00 00 00 03 03 03 00 	sll $3,$3,0x3
  406ee0:	a2 00 00 00 2c 10 12 00 	lui $18,4140
  406ee8:	43 00 00 00 80 96 12 12 	addiu $18,$18,-27008
  406ef0:	42 00 00 00 00 02 12 03 	addu $2,$3,$18
  406ef8:	2b 00 00 00 00 00 00 02 	l.d $f0,0($2)
  406f00:	73 00 00 00 00 00 02 00 	sub.d $f0,$f0,$f2
  406f08:	2b 00 00 00 08 81 16 1c 	l.d $f22,-32504($28)
  406f10:	37 00 00 00 00 00 00 02 	s.d $f0,0($2)
  406f18:	2b 00 00 00 28 00 00 1d 	l.d $f0,40($29)
  406f20:	75 00 00 00 00 00 16 00 	mul.d $f0,$f0,$f22
  406f28:	2b 00 00 00 50 00 04 1d 	l.d $f4,80($29)
  406f30:	2b 00 00 00 10 81 16 1c 	l.d $f22,-32496($28)
  406f38:	75 00 00 00 00 04 16 04 	mul.d $f4,$f4,$f22
  406f40:	2b 00 00 00 78 00 02 1d 	l.d $f2,120($29)
  406f48:	2b 00 00 00 00 81 16 1c 	l.d $f22,-32512($28)
  406f50:	75 00 00 00 00 02 16 02 	mul.d $f2,$f2,$f22
  406f58:	71 00 00 00 00 00 04 00 	add.d $f0,$f0,$f4
  406f60:	73 00 00 00 00 00 02 00 	sub.d $f0,$f0,$f2
  406f68:	2b 00 00 00 a0 00 02 1d 	l.d $f2,160($29)
  406f70:	71 00 00 00 00 00 02 00 	add.d $f0,$f0,$f2
  406f78:	75 00 00 00 00 00 00 1e 	mul.d $f0,$f30,$f0
  406f80:	a2 00 00 00 2c 10 12 00 	lui $18,4140
  406f88:	43 00 00 00 a8 9b 12 12 	addiu $18,$18,-25688
  406f90:	42 00 00 00 00 03 12 03 	addu $3,$3,$18
  406f98:	2b 00 00 00 00 00 02 03 	l.d $f2,0($3)
  406fa0:	73 00 00 00 00 02 00 02 	sub.d $f2,$f2,$f0
  406fa8:	43 00 00 00 10 00 04 1d 	addiu $4,$29,16
  406fb0:	43 00 00 00 02 00 05 00 	addiu $5,$0,2
  406fb8:	37 00 00 00 00 00 02 03 	s.d $f2,0($3)
  406fc0:	2b 00 00 00 20 00 02 04 	l.d $f2,32($4)
  406fc8:	2b 00 00 00 f8 80 16 1c 	l.d $f22,-32520($28)
  406fd0:	75 00 00 00 00 02 16 02 	mul.d $f2,$f2,$f22
  406fd8:	2b 00 00 00 48 00 00 04 	l.d $f0,72($4)
  406fe0:	2b 00 00 00 00 81 16 1c 	l.d $f22,-32512($28)
  406fe8:	75 00 00 00 00 00 16 00 	mul.d $f0,$f0,$f22
  406ff0:	73 00 00 00 00 02 00 02 	sub.d $f2,$f2,$f0
  406ff8:	2b 00 00 00 70 00 00 04 	l.d $f0,112($4)
  407000:	71 00 00 00 00 02 00 02 	add.d $f2,$f2,$f0
  407008:	75 00 00 00 00 02 02 1e 	mul.d $f2,$f30,$f2
  407010:	42 00 00 00 00 03 05 06 	addu $3,$6,$5
  407018:	55 00 00 00 03 03 03 00 	sll $3,$3,0x3
  407020:	a2 00 00 00 2c 10 12 00 	lui $18,4140
  407028:	43 00 00 00 80 96 12 12 	addiu $18,$18,-27008
  407030:	42 00 00 00 00 02 12 03 	addu $2,$3,$18
  407038:	2b 00 00 00 00 00 00 02 	l.d $f0,0($2)
  407040:	73 00 00 00 00 00 02 00 	sub.d $f0,$f0,$f2
  407048:	2b 00 00 00 08 81 16 1c 	l.d $f22,-32504($28)
  407050:	37 00 00 00 00 00 00 02 	s.d $f0,0($2)
  407058:	2b 00 00 00 20 00 02 04 	l.d $f2,32($4)
  407060:	75 00 00 00 00 02 16 02 	mul.d $f2,$f2,$f22
  407068:	2b 00 00 00 48 00 04 04 	l.d $f4,72($4)
  407070:	2b 00 00 00 10 81 16 1c 	l.d $f22,-32496($28)
  407078:	75 00 00 00 00 04 16 04 	mul.d $f4,$f4,$f22
  407080:	2b 00 00 00 70 00 00 04 	l.d $f0,112($4)
  407088:	2b 00 00 00 00 81 16 1c 	l.d $f22,-32512($28)
  407090:	75 00 00 00 00 00 16 00 	mul.d $f0,$f0,$f22
  407098:	71 00 00 00 00 02 04 02 	add.d $f2,$f2,$f4
  4070a0:	73 00 00 00 00 02 00 02 	sub.d $f2,$f2,$f0
  4070a8:	2b 00 00 00 98 00 00 04 	l.d $f0,152($4)
  4070b0:	71 00 00 00 00 02 00 02 	add.d $f2,$f2,$f0
  4070b8:	75 00 00 00 00 02 02 1e 	mul.d $f2,$f30,$f2
  4070c0:	a2 00 00 00 2c 10 12 00 	lui $18,4140
  4070c8:	43 00 00 00 a8 9b 12 12 	addiu $18,$18,-25688
  4070d0:	42 00 00 00 00 03 12 03 	addu $3,$3,$18
  4070d8:	2b 00 00 00 00 00 00 03 	l.d $f0,0($3)
  4070e0:	73 00 00 00 00 00 02 00 	sub.d $f0,$f0,$f2
  4070e8:	2b 00 00 00 f8 80 16 1c 	l.d $f22,-32520($28)
  4070f0:	37 00 00 00 00 00 00 03 	s.d $f0,0($3)
  4070f8:	2b 00 00 00 28 00 02 04 	l.d $f2,40($4)
  407100:	75 00 00 00 00 02 16 02 	mul.d $f2,$f2,$f22
  407108:	2b 00 00 00 50 00 00 04 	l.d $f0,80($4)
  407110:	2b 00 00 00 00 81 16 1c 	l.d $f22,-32512($28)
  407118:	75 00 00 00 00 00 16 00 	mul.d $f0,$f0,$f22
  407120:	73 00 00 00 00 02 00 02 	sub.d $f2,$f2,$f0
  407128:	2b 00 00 00 78 00 00 04 	l.d $f0,120($4)
  407130:	71 00 00 00 00 02 00 02 	add.d $f2,$f2,$f0
  407138:	a2 00 00 00 2c 10 12 00 	lui $18,4140
  407140:	43 00 00 00 80 96 12 12 	addiu $18,$18,-27008
  407148:	75 00 00 00 00 02 02 1e 	mul.d $f2,$f30,$f2
  407150:	43 00 00 00 01 00 03 05 	addiu $3,$5,1
  407158:	42 00 00 00 00 03 03 06 	addu $3,$6,$3
  407160:	55 00 00 00 03 03 03 00 	sll $3,$3,0x3
  407168:	42 00 00 00 00 02 12 03 	addu $2,$3,$18
  407170:	2b 00 00 00 00 00 00 02 	l.d $f0,0($2)
  407178:	73 00 00 00 00 00 02 00 	sub.d $f0,$f0,$f2
  407180:	2b 00 00 00 08 81 16 1c 	l.d $f22,-32504($28)
  407188:	37 00 00 00 00 00 00 02 	s.d $f0,0($2)
  407190:	2b 00 00 00 28 00 02 04 	l.d $f2,40($4)
  407198:	75 00 00 00 00 02 16 02 	mul.d $f2,$f2,$f22
  4071a0:	2b 00 00 00 50 00 04 04 	l.d $f4,80($4)
  4071a8:	2b 00 00 00 10 81 16 1c 	l.d $f22,-32496($28)
  4071b0:	75 00 00 00 00 04 16 04 	mul.d $f4,$f4,$f22
  4071b8:	2b 00 00 00 78 00 00 04 	l.d $f0,120($4)
  4071c0:	2b 00 00 00 00 81 16 1c 	l.d $f22,-32512($28)
  4071c8:	75 00 00 00 00 00 16 00 	mul.d $f0,$f0,$f22
  4071d0:	71 00 00 00 00 02 04 02 	add.d $f2,$f2,$f4
  4071d8:	73 00 00 00 00 02 00 02 	sub.d $f2,$f2,$f0
  4071e0:	2b 00 00 00 a0 00 00 04 	l.d $f0,160($4)
  4071e8:	71 00 00 00 00 02 00 02 	add.d $f2,$f2,$f0
  4071f0:	75 00 00 00 00 02 02 1e 	mul.d $f2,$f30,$f2
  4071f8:	a2 00 00 00 2c 10 12 00 	lui $18,4140
  407200:	43 00 00 00 a8 9b 12 12 	addiu $18,$18,-25688
  407208:	42 00 00 00 00 03 12 03 	addu $3,$3,$18
  407210:	2b 00 00 00 00 00 00 03 	l.d $f0,0($3)
  407218:	73 00 00 00 00 00 02 00 	sub.d $f0,$f0,$f2
  407220:	43 00 00 00 02 00 05 05 	addiu $5,$5,2
  407228:	5c 00 00 00 06 00 02 05 	slti $2,$5,6
  407230:	43 00 00 00 10 00 04 04 	addiu $4,$4,16
  407238:	37 00 00 00 00 00 00 03 	s.d $f0,0($3)
  407240:	06 00 00 00 5e ff 00 02 	bne $2,$0,406fc0 <erhs_+0x2fa8>
  407248:	a2 00 00 00 42 10 02 00 	lui $2,4162
  407250:	28 00 00 00 f4 2c 02 02 	lw $2,11508($2)
  407258:	43 00 00 00 04 00 19 00 	addiu $25,$0,4
  407260:	43 00 00 00 fd ff 0f 02 	addiu $15,$2,-3
  407268:	5c 00 00 00 04 00 02 0f 	slti $2,$15,4
  407270:	06 00 00 00 bc 00 00 02 	bne $2,$0,407568 <erhs_+0x3550>
  407278:	42 00 00 00 00 09 15 00 	addu $9,$0,$21
  407280:	a2 00 00 00 2c 10 08 00 	lui $8,4140
  407288:	43 00 00 00 30 8c 08 08 	addiu $8,$8,-29648
  407290:	43 00 00 00 14 00 06 00 	addiu $6,$0,20
  407298:	43 00 00 00 01 00 02 06 	addiu $2,$6,1
  4072a0:	55 00 00 00 03 02 02 00 	sll $2,$2,0x3
  4072a8:	42 00 00 00 00 02 1d 02 	addu $2,$2,$29
  4072b0:	2b 00 00 00 a8 ff 04 02 	l.d $f4,-88($2)
  4072b8:	2b 00 00 00 00 81 16 1c 	l.d $f22,-32512($28)
  4072c0:	75 00 00 00 00 04 16 04 	mul.d $f4,$f4,$f22
  4072c8:	2b 00 00 00 d0 ff 06 02 	l.d $f6,-48($2)
  4072d0:	2b 00 00 00 10 81 16 1c 	l.d $f22,-32496($28)
  4072d8:	75 00 00 00 00 06 16 06 	mul.d $f6,$f6,$f22
  4072e0:	2b 00 00 00 80 ff 02 02 	l.d $f2,-128($2)
  4072e8:	2b 00 00 00 f8 ff 00 02 	l.d $f0,-8($2)
  4072f0:	2b 00 00 00 00 81 16 1c 	l.d $f22,-32512($28)
  4072f8:	73 00 00 00 00 02 04 02 	sub.d $f2,$f2,$f4
  407300:	75 00 00 00 00 00 16 00 	mul.d $f0,$f0,$f22
  407308:	71 00 00 00 00 02 06 02 	add.d $f2,$f2,$f6
  407310:	73 00 00 00 00 02 00 02 	sub.d $f2,$f2,$f0
  407318:	2b 00 00 00 20 00 00 02 	l.d $f0,32($2)
  407320:	42 00 00 00 00 03 19 09 	addu $3,$9,$25
  407328:	55 00 00 00 05 02 03 00 	sll $2,$3,0x5
  407330:	71 00 00 00 00 02 00 02 	add.d $f2,$f2,$f0
  407338:	42 00 00 00 00 02 03 02 	addu $2,$2,$3
  407340:	42 00 00 00 00 02 18 02 	addu $2,$2,$24
  407348:	55 00 00 00 02 03 02 00 	sll $3,$2,0x2
  407350:	75 00 00 00 00 02 02 1e 	mul.d $f2,$f30,$f2
  407358:	42 00 00 00 00 04 02 03 	addu $4,$3,$2
  407360:	43 00 00 00 01 00 02 04 	addiu $2,$4,1
  407368:	55 00 00 00 03 02 02 00 	sll $2,$2,0x3
  407370:	42 00 00 00 00 02 08 02 	addu $2,$2,$8
  407378:	2b 00 00 00 00 00 00 02 	l.d $f0,0($2)
  407380:	73 00 00 00 00 00 02 00 	sub.d $f0,$f0,$f2
  407388:	42 00 00 00 00 07 06 00 	addu $7,$0,$6
  407390:	43 00 00 00 02 00 05 00 	addiu $5,$0,2
  407398:	37 00 00 00 00 00 00 02 	s.d $f0,0($2)
  4073a0:	42 00 00 00 00 02 05 07 	addu $2,$7,$5
  4073a8:	55 00 00 00 03 02 02 00 	sll $2,$2,0x3
  4073b0:	42 00 00 00 00 02 1d 02 	addu $2,$2,$29
  4073b8:	2b 00 00 00 a8 ff 04 02 	l.d $f4,-88($2)
  4073c0:	2b 00 00 00 00 81 16 1c 	l.d $f22,-32512($28)
  4073c8:	75 00 00 00 00 04 16 04 	mul.d $f4,$f4,$f22
  4073d0:	2b 00 00 00 d0 ff 06 02 	l.d $f6,-48($2)
  4073d8:	2b 00 00 00 10 81 16 1c 	l.d $f22,-32496($28)
  4073e0:	75 00 00 00 00 06 16 06 	mul.d $f6,$f6,$f22
  4073e8:	2b 00 00 00 80 ff 02 02 	l.d $f2,-128($2)
  4073f0:	2b 00 00 00 f8 ff 00 02 	l.d $f0,-8($2)
  4073f8:	2b 00 00 00 00 81 16 1c 	l.d $f22,-32512($28)
  407400:	73 00 00 00 00 02 04 02 	sub.d $f2,$f2,$f4
  407408:	75 00 00 00 00 00 16 00 	mul.d $f0,$f0,$f22
  407410:	71 00 00 00 00 02 06 02 	add.d $f2,$f2,$f6
  407418:	73 00 00 00 00 02 00 02 	sub.d $f2,$f2,$f0
  407420:	2b 00 00 00 20 00 00 02 	l.d $f0,32($2)
  407428:	71 00 00 00 00 02 00 02 	add.d $f2,$f2,$f0
  407430:	75 00 00 00 00 02 02 1e 	mul.d $f2,$f30,$f2
  407438:	42 00 00 00 00 02 05 04 	addu $2,$4,$5
  407440:	55 00 00 00 03 02 02 00 	sll $2,$2,0x3
  407448:	42 00 00 00 00 02 08 02 	addu $2,$2,$8
  407450:	2b 00 00 00 00 00 00 02 	l.d $f0,0($2)
  407458:	73 00 00 00 00 00 02 00 	sub.d $f0,$f0,$f2
  407460:	43 00 00 00 01 00 03 05 	addiu $3,$5,1
  407468:	37 00 00 00 00 00 00 02 	s.d $f0,0($2)
  407470:	42 00 00 00 00 02 03 07 	addu $2,$7,$3
  407478:	55 00 00 00 03 02 02 00 	sll $2,$2,0x3
  407480:	42 00 00 00 00 02 1d 02 	addu $2,$2,$29
  407488:	2b 00 00 00 a8 ff 04 02 	l.d $f4,-88($2)
  407490:	75 00 00 00 00 04 16 04 	mul.d $f4,$f4,$f22
  407498:	2b 00 00 00 d0 ff 06 02 	l.d $f6,-48($2)
  4074a0:	2b 00 00 00 10 81 16 1c 	l.d $f22,-32496($28)
  4074a8:	75 00 00 00 00 06 16 06 	mul.d $f6,$f6,$f22
  4074b0:	2b 00 00 00 80 ff 02 02 	l.d $f2,-128($2)
  4074b8:	2b 00 00 00 f8 ff 00 02 	l.d $f0,-8($2)
  4074c0:	2b 00 00 00 00 81 16 1c 	l.d $f22,-32512($28)
  4074c8:	73 00 00 00 00 02 04 02 	sub.d $f2,$f2,$f4
  4074d0:	75 00 00 00 00 00 16 00 	mul.d $f0,$f0,$f22
  4074d8:	71 00 00 00 00 02 06 02 	add.d $f2,$f2,$f6
  4074e0:	73 00 00 00 00 02 00 02 	sub.d $f2,$f2,$f0
  4074e8:	2b 00 00 00 20 00 00 02 	l.d $f0,32($2)
  4074f0:	71 00 00 00 00 02 00 02 	add.d $f2,$f2,$f0
  4074f8:	75 00 00 00 00 02 02 1e 	mul.d $f2,$f30,$f2
  407500:	42 00 00 00 00 03 03 04 	addu $3,$4,$3
  407508:	55 00 00 00 03 03 03 00 	sll $3,$3,0x3
  407510:	42 00 00 00 00 03 08 03 	addu $3,$3,$8
  407518:	2b 00 00 00 00 00 00 03 	l.d $f0,0($3)
  407520:	73 00 00 00 00 00 02 00 	sub.d $f0,$f0,$f2
  407528:	43 00 00 00 02 00 05 05 	addiu $5,$5,2
  407530:	5c 00 00 00 06 00 02 05 	slti $2,$5,6
  407538:	37 00 00 00 00 00 00 03 	s.d $f0,0($3)
  407540:	06 00 00 00 96 ff 00 02 	bne $2,$0,4073a0 <erhs_+0x3388>
  407548:	43 00 00 00 05 00 06 06 	addiu $6,$6,5
  407550:	43 00 00 00 01 00 19 19 	addiu $25,$25,1
  407558:	5b 00 00 00 00 02 19 0f 	slt $2,$15,$25
  407560:	05 00 00 00 4c ff 00 02 	beq $2,$0,407298 <erhs_+0x3280>
  407568:	43 00 00 00 01 00 05 00 	addiu $5,$0,1
  407570:	42 00 00 00 00 06 15 00 	addu $6,$0,$21
  407578:	a2 00 00 00 42 10 04 00 	lui $4,4162
  407580:	28 00 00 00 f4 2c 04 04 	lw $4,11508($4)
  407588:	2b 00 00 00 00 81 16 1c 	l.d $f22,-32512($28)
  407590:	55 00 00 00 02 02 04 00 	sll $2,$4,0x2
  407598:	42 00 00 00 00 02 04 02 	addu $2,$2,$4
  4075a0:	42 00 00 00 00 02 05 02 	addu $2,$2,$5
  4075a8:	55 00 00 00 03 02 02 00 	sll $2,$2,0x3
  4075b0:	42 00 00 00 00 02 1d 02 	addu $2,$2,$29
  4075b8:	2b 00 00 00 58 ff 00 02 	l.d $f0,-168($2)
  4075c0:	75 00 00 00 00 00 16 00 	mul.d $f0,$f0,$f22
  4075c8:	2b 00 00 00 80 ff 04 02 	l.d $f4,-128($2)
  4075d0:	2b 00 00 00 10 81 16 1c 	l.d $f22,-32496($28)
  4075d8:	75 00 00 00 00 04 16 04 	mul.d $f4,$f4,$f22
  4075e0:	2b 00 00 00 30 ff 02 02 	l.d $f2,-208($2)
  4075e8:	2b 00 00 00 a8 ff 06 02 	l.d $f6,-88($2)
  4075f0:	2b 00 00 00 00 81 16 1c 	l.d $f22,-32512($28)
  4075f8:	73 00 00 00 00 02 00 02 	sub.d $f2,$f2,$f0
  407600:	75 00 00 00 00 06 16 06 	mul.d $f6,$f6,$f22
  407608:	71 00 00 00 00 02 04 02 	add.d $f2,$f2,$f4
  407610:	a2 00 00 00 2c 10 12 00 	lui $18,4140
  407618:	43 00 00 00 e0 81 12 12 	addiu $18,$18,-32288
  407620:	42 00 00 00 00 04 04 06 	addu $4,$6,$4
  407628:	55 00 00 00 05 03 04 00 	sll $3,$4,0x5
  407630:	73 00 00 00 00 02 06 02 	sub.d $f2,$f2,$f6
  407638:	42 00 00 00 00 03 04 03 	addu $3,$3,$4
  407640:	42 00 00 00 00 03 18 03 	addu $3,$3,$24
  407648:	55 00 00 00 02 02 03 00 	sll $2,$3,0x2
  407650:	75 00 00 00 00 02 02 1e 	mul.d $f2,$f30,$f2
  407658:	42 00 00 00 00 02 03 02 	addu $2,$2,$3
  407660:	42 00 00 00 00 02 05 02 	addu $2,$2,$5
  407668:	55 00 00 00 03 02 02 00 	sll $2,$2,0x3
  407670:	42 00 00 00 00 02 12 02 	addu $2,$2,$18
  407678:	2b 00 00 00 00 00 00 02 	l.d $f0,0($2)
  407680:	73 00 00 00 00 00 02 00 	sub.d $f0,$f0,$f2
  407688:	37 00 00 00 00 00 00 02 	s.d $f0,0($2)
  407690:	a2 00 00 00 42 10 04 00 	lui $4,4162
  407698:	28 00 00 00 f4 2c 04 04 	lw $4,11508($4)
  4076a0:	55 00 00 00 02 02 04 00 	sll $2,$4,0x2
  4076a8:	42 00 00 00 00 02 04 02 	addu $2,$2,$4
  4076b0:	42 00 00 00 00 02 05 02 	addu $2,$2,$5
  4076b8:	55 00 00 00 03 02 02 00 	sll $2,$2,0x3
  4076c0:	42 00 00 00 00 02 1d 02 	addu $2,$2,$29
  4076c8:	2b 00 00 00 80 ff 00 02 	l.d $f0,-128($2)
  4076d0:	75 00 00 00 00 00 16 00 	mul.d $f0,$f0,$f22
  4076d8:	2b 00 00 00 a8 ff 04 02 	l.d $f4,-88($2)
  4076e0:	2b 00 00 00 f8 80 16 1c 	l.d $f22,-32520($28)
  4076e8:	75 00 00 00 00 04 16 04 	mul.d $f4,$f4,$f22
  4076f0:	2b 00 00 00 58 ff 02 02 	l.d $f2,-168($2)
  4076f8:	73 00 00 00 00 02 00 02 	sub.d $f2,$f2,$f0
  407700:	a2 00 00 00 2c 10 12 00 	lui $18,4140
  407708:	43 00 00 00 08 87 12 12 	addiu $18,$18,-30968
  407710:	42 00 00 00 00 04 04 06 	addu $4,$6,$4
  407718:	55 00 00 00 05 03 04 00 	sll $3,$4,0x5
  407720:	71 00 00 00 00 02 04 02 	add.d $f2,$f2,$f4
  407728:	42 00 00 00 00 03 04 03 	addu $3,$3,$4
  407730:	42 00 00 00 00 03 18 03 	addu $3,$3,$24
  407738:	55 00 00 00 02 02 03 00 	sll $2,$3,0x2
  407740:	75 00 00 00 00 02 02 1e 	mul.d $f2,$f30,$f2
  407748:	42 00 00 00 00 02 03 02 	addu $2,$2,$3
  407750:	42 00 00 00 00 02 05 02 	addu $2,$2,$5
  407758:	55 00 00 00 03 02 02 00 	sll $2,$2,0x3
  407760:	42 00 00 00 00 02 12 02 	addu $2,$2,$18
  407768:	2b 00 00 00 00 00 00 02 	l.d $f0,0($2)
  407770:	73 00 00 00 00 00 02 00 	sub.d $f0,$f0,$f2
  407778:	43 00 00 00 01 00 05 05 	addiu $5,$5,1
  407780:	37 00 00 00 00 00 00 02 	s.d $f0,0($2)
  407788:	5c 00 00 00 06 00 02 05 	slti $2,$5,6
  407790:	06 00 00 00 78 ff 00 02 	bne $2,$0,407578 <erhs_+0x3560>
  407798:	43 00 00 00 01 00 18 18 	addiu $24,$24,1
  4077a0:	5b 00 00 00 00 02 18 1e 	slt $2,$30,$24
  4077a8:	05 00 00 00 00 fa 00 02 	beq $2,$0,405fb0 <erhs_+0x1f98>
  4077b0:	28 00 00 00 d8 0a 12 1d 	lw $18,2776($29)
  4077b8:	43 00 00 00 41 04 12 12 	addiu $18,$18,1089
  4077c0:	34 00 00 00 d8 0a 12 1d 	sw $18,2776($29)
  4077c8:	28 00 00 00 50 0a 12 1d 	lw $18,2640($29)
  4077d0:	43 00 00 00 21 00 15 15 	addiu $21,$21,33
  4077d8:	43 00 00 00 01 00 11 11 	addiu $17,$17,1
  4077e0:	5b 00 00 00 00 02 11 12 	slt $2,$18,$17
  4077e8:	05 00 00 00 c2 f9 00 02 	beq $2,$0,405ef8 <erhs_+0x1ee0>
  4077f0:	a2 00 00 00 42 10 03 00 	lui $3,4162
  4077f8:	43 00 00 00 f4 2c 03 03 	addiu $3,$3,11508
  407800:	28 00 00 00 00 00 02 03 	lw $2,0($3)
  407808:	43 00 00 00 02 00 19 00 	addiu $25,$0,2
  407810:	43 00 00 00 ff ff 02 02 	addiu $2,$2,-1
  407818:	34 00 00 00 50 0a 02 1d 	sw $2,2640($29)
  407820:	5c 00 00 00 02 00 02 02 	slti $2,$2,2
  407828:	06 00 00 00 58 06 00 02 	bne $2,$0,409190 <erhs_+0x5178>
  407830:	a2 00 00 00 42 10 14 00 	lui $20,4162
  407838:	43 00 00 00 d8 2a 14 14 	addiu $20,$20,10968
  407840:	43 00 00 00 d0 04 15 1d 	addiu $21,$29,1232
  407848:	a2 00 00 00 f9 11 16 00 	lui $22,4601
  407850:	43 00 00 00 90 dd 16 16 	addiu $22,$22,-8816
  407858:	43 00 00 00 6c 00 13 03 	addiu $19,$3,108
  407860:	43 00 00 00 42 00 12 00 	addiu $18,$0,66
  407868:	34 00 00 00 d0 0a 12 1d 	sw $18,2768($29)
  407870:	a2 00 00 00 42 10 03 00 	lui $3,4162
  407878:	28 00 00 00 f4 2c 03 03 	lw $3,11508($3)
  407880:	43 00 00 00 ff ff 02 19 	addiu $2,$25,-1
  407888:	a5 00 00 00 00 00 02 02 	mtc1 $2,$f2
  407890:	83 00 00 00 00 02 00 02 	cvt.d.w $f2,$f2
  407898:	43 00 00 00 ff ff 03 03 	addiu $3,$3,-1
  4078a0:	a5 00 00 00 00 00 03 00 	mtc1 $3,$f0
  4078a8:	83 00 00 00 00 00 00 00 	cvt.d.w $f0,$f0
  4078b0:	77 00 00 00 00 1a 00 02 	div.d $f26,$f2,$f0
  4078b8:	a2 00 00 00 42 10 02 00 	lui $2,4162
  4078c0:	28 00 00 00 f0 2c 02 02 	lw $2,11504($2)
  4078c8:	43 00 00 00 02 00 18 00 	addiu $24,$0,2
  4078d0:	43 00 00 00 ff ff 1e 02 	addiu $30,$2,-1
  4078d8:	5c 00 00 00 02 00 02 1e 	slti $2,$30,2
  4078e0:	06 00 00 00 1c 06 00 02 	bne $2,$0,409158 <erhs_+0x5140>
  4078e8:	43 00 00 00 30 05 12 1d 	addiu $18,$29,1328
  4078f0:	34 00 00 00 b0 0a 12 1d 	sw $18,2736($29)
  4078f8:	43 00 00 00 38 05 12 1d 	addiu $18,$29,1336
  407900:	34 00 00 00 b8 0a 12 1d 	sw $18,2744($29)
  407908:	43 00 00 00 40 05 12 1d 	addiu $18,$29,1344
  407910:	34 00 00 00 c0 0a 12 1d 	sw $18,2752($29)
  407918:	43 00 00 00 48 05 12 1d 	addiu $18,$29,1352
  407920:	34 00 00 00 c8 0a 12 1d 	sw $18,2760($29)
  407928:	a2 00 00 00 42 10 03 00 	lui $3,4162
  407930:	28 00 00 00 f0 2c 03 03 	lw $3,11504($3)
  407938:	43 00 00 00 ff ff 02 18 	addiu $2,$24,-1
  407940:	a5 00 00 00 00 00 02 02 	mtc1 $2,$f2
  407948:	83 00 00 00 00 02 00 02 	cvt.d.w $f2,$f2
  407950:	43 00 00 00 ff ff 03 03 	addiu $3,$3,-1
  407958:	a5 00 00 00 00 00 03 00 	mtc1 $3,$f0
  407960:	83 00 00 00 00 00 00 00 	cvt.d.w $f0,$f0
  407968:	77 00 00 00 00 18 00 02 	div.d $f24,$f2,$f0
  407970:	a2 00 00 00 42 10 0f 00 	lui $15,4162
  407978:	28 00 00 00 f8 2c 0f 0f 	lw $15,11512($15)
  407980:	43 00 00 00 01 00 11 00 	addiu $17,$0,1
  407988:	07 00 00 00 40 01 00 0f 	blez $15,407e90 <erhs_+0x3e78>
  407990:	a2 00 00 00 42 10 17 00 	lui $23,4162
  407998:	43 00 00 00 78 2b 17 17 	addiu $23,$23,11128
  4079a0:	43 00 00 00 28 00 04 1d 	addiu $4,$29,40
  4079a8:	43 00 00 00 28 00 0d 00 	addiu $13,$0,40
  4079b0:	43 00 00 00 05 00 10 00 	addiu $16,$0,5
  4079b8:	43 00 00 00 01 00 05 00 	addiu $5,$0,1
  4079c0:	a2 00 00 00 42 10 02 00 	lui $2,4162
  4079c8:	43 00 00 00 a0 2b 02 02 	addiu $2,$2,11168
  4079d0:	43 00 00 00 20 01 0e 02 	addiu $14,$2,288
  4079d8:	43 00 00 00 30 00 0c 02 	addiu $12,$2,48
  4079e0:	43 00 00 00 08 00 0b 02 	addiu $11,$2,8
  4079e8:	43 00 00 00 08 00 0a 17 	addiu $10,$23,8
  4079f0:	a2 00 00 00 42 10 12 00 	lui $18,4162
  4079f8:	43 00 00 00 50 2b 12 12 	addiu $18,$18,11088
  407a00:	43 00 00 00 08 00 09 12 	addiu $9,$18,8
  407a08:	a2 00 00 00 42 10 12 00 	lui $18,4162
  407a10:	43 00 00 00 28 2b 12 12 	addiu $18,$18,11048
  407a18:	43 00 00 00 08 00 08 12 	addiu $8,$18,8
  407a20:	43 00 00 00 08 00 07 14 	addiu $7,$20,8
  407a28:	a2 00 00 00 42 10 12 00 	lui $18,4162
  407a30:	43 00 00 00 00 2b 12 12 	addiu $18,$18,11008
  407a38:	43 00 00 00 08 00 06 12 	addiu $6,$18,8
  407a40:	a2 00 00 00 42 10 03 00 	lui $3,4162
  407a48:	28 00 00 00 f8 2c 03 03 	lw $3,11512($3)
  407a50:	43 00 00 00 ff ff 02 11 	addiu $2,$17,-1
  407a58:	a5 00 00 00 00 00 02 02 	mtc1 $2,$f2
  407a60:	83 00 00 00 00 02 00 02 	cvt.d.w $f2,$f2
  407a68:	34 00 00 00 08 0b 10 1d 	sw $16,2824($29)
  407a70:	43 00 00 00 ff ff 03 03 	addiu $3,$3,-1
  407a78:	a5 00 00 00 00 00 03 00 	mtc1 $3,$f0
  407a80:	83 00 00 00 00 00 00 00 	cvt.d.w $f0,$f0
  407a88:	77 00 00 00 00 1c 00 02 	div.d $f28,$f2,$f0
  407a90:	2b 00 00 00 00 00 16 06 	l.d $f22,0($6)
  407a98:	75 00 00 00 00 16 18 16 	mul.d $f22,$f22,$f24
  407aa0:	2b 00 00 00 00 00 14 08 	l.d $f20,0($8)
  407aa8:	75 00 00 00 00 14 1a 14 	mul.d $f20,$f20,$f26
  407ab0:	2b 00 00 00 00 00 12 0a 	l.d $f18,0($10)
  407ab8:	75 00 00 00 00 12 18 12 	mul.d $f18,$f18,$f24
  407ac0:	2b 00 00 00 00 00 02 09 	l.d $f2,0($9)
  407ac8:	75 00 00 00 00 02 1c 02 	mul.d $f2,$f2,$f28
  407ad0:	2b 00 00 00 00 00 10 0b 	l.d $f16,0($11)
  407ad8:	75 00 00 00 00 10 1a 10 	mul.d $f16,$f16,$f26
  407ae0:	2b 00 00 00 00 00 0e 0c 	l.d $f14,0($12)
  407ae8:	75 00 00 00 00 0e 1c 0e 	mul.d $f14,$f14,$f28
  407af0:	55 00 00 00 03 03 05 00 	sll $3,$5,0x3
  407af8:	42 00 00 00 00 02 03 14 	addu $2,$20,$3
  407b00:	2b 00 00 00 18 01 0c 02 	l.d $f12,280($2)
  407b08:	75 00 00 00 00 0c 18 0c 	mul.d $f12,$f12,$f24
  407b10:	42 00 00 00 00 02 03 14 	addu $2,$20,$3
  407b18:	2b 00 00 00 40 01 0a 02 	l.d $f10,320($2)
  407b20:	75 00 00 00 00 0a 1a 0a 	mul.d $f10,$f10,$f26
  407b28:	42 00 00 00 00 02 03 14 	addu $2,$20,$3
  407b30:	2b 00 00 00 68 01 08 02 	l.d $f8,360($2)
  407b38:	75 00 00 00 00 08 1c 08 	mul.d $f8,$f8,$f28
  407b40:	42 00 00 00 00 02 03 14 	addu $2,$20,$3
  407b48:	2b 00 00 00 90 01 06 02 	l.d $f6,400($2)
  407b50:	75 00 00 00 00 06 18 06 	mul.d $f6,$f6,$f24
  407b58:	42 00 00 00 00 03 03 14 	addu $3,$20,$3
  407b60:	2b 00 00 00 b8 01 04 03 	l.d $f4,440($3)
  407b68:	75 00 00 00 00 04 1a 04 	mul.d $f4,$f4,$f26
  407b70:	75 00 00 00 00 12 18 12 	mul.d $f18,$f18,$f24
  407b78:	75 00 00 00 00 10 1a 10 	mul.d $f16,$f16,$f26
  407b80:	75 00 00 00 00 0e 1c 0e 	mul.d $f14,$f14,$f28
  407b88:	75 00 00 00 00 0c 18 0c 	mul.d $f12,$f12,$f24
  407b90:	75 00 00 00 00 0a 1a 0a 	mul.d $f10,$f10,$f26
  407b98:	75 00 00 00 00 08 1c 08 	mul.d $f8,$f8,$f28
  407ba0:	75 00 00 00 00 06 18 06 	mul.d $f6,$f6,$f24
  407ba8:	75 00 00 00 00 04 1a 04 	mul.d $f4,$f4,$f26
  407bb0:	75 00 00 00 00 0c 18 0c 	mul.d $f12,$f12,$f24
  407bb8:	2b 00 00 00 00 00 00 07 	l.d $f0,0($7)
  407bc0:	75 00 00 00 00 0a 1a 0a 	mul.d $f10,$f10,$f26
  407bc8:	71 00 00 00 00 00 16 00 	add.d $f0,$f0,$f22
  407bd0:	71 00 00 00 00 00 14 00 	add.d $f0,$f0,$f20
  407bd8:	75 00 00 00 00 08 1c 08 	mul.d $f8,$f8,$f28
  407be0:	71 00 00 00 00 00 02 00 	add.d $f0,$f0,$f2
  407be8:	2b 00 00 00 00 00 02 0e 	l.d $f2,0($14)
  407bf0:	75 00 00 00 00 02 1c 02 	mul.d $f2,$f2,$f28
  407bf8:	75 00 00 00 00 06 18 06 	mul.d $f6,$f6,$f24
  407c00:	75 00 00 00 00 04 1a 04 	mul.d $f4,$f4,$f26
  407c08:	75 00 00 00 00 02 1c 02 	mul.d $f2,$f2,$f28
  407c10:	71 00 00 00 00 00 12 00 	add.d $f0,$f0,$f18
  407c18:	75 00 00 00 00 06 18 06 	mul.d $f6,$f6,$f24
  407c20:	71 00 00 00 00 00 10 00 	add.d $f0,$f0,$f16
  407c28:	71 00 00 00 00 00 0e 00 	add.d $f0,$f0,$f14
  407c30:	75 00 00 00 00 04 1a 04 	mul.d $f4,$f4,$f26
  407c38:	71 00 00 00 00 00 0c 00 	add.d $f0,$f0,$f12
  407c40:	71 00 00 00 00 00 0a 00 	add.d $f0,$f0,$f10
  407c48:	75 00 00 00 00 02 1c 02 	mul.d $f2,$f2,$f28
  407c50:	28 00 00 00 08 0b 12 1d 	lw $18,2824($29)
  407c58:	71 00 00 00 00 00 08 00 	add.d $f0,$f0,$f8
  407c60:	43 00 00 00 08 00 0c 0c 	addiu $12,$12,8
  407c68:	43 00 00 00 08 00 0b 0b 	addiu $11,$11,8
  407c70:	43 00 00 00 08 00 0a 0a 	addiu $10,$10,8
  407c78:	71 00 00 00 00 00 06 00 	add.d $f0,$f0,$f6
  407c80:	75 00 00 00 00 02 1c 02 	mul.d $f2,$f2,$f28
  407c88:	43 00 00 00 08 00 09 09 	addiu $9,$9,8
  407c90:	43 00 00 00 08 00 08 08 	addiu $8,$8,8
  407c98:	43 00 00 00 08 00 07 07 	addiu $7,$7,8
  407ca0:	71 00 00 00 00 00 04 00 	add.d $f0,$f0,$f4
  407ca8:	43 00 00 00 08 00 06 06 	addiu $6,$6,8
  407cb0:	42 00 00 00 00 02 05 12 	addu $2,$18,$5
  407cb8:	43 00 00 00 01 00 05 05 	addiu $5,$5,1
  407cc0:	71 00 00 00 00 00 02 00 	add.d $f0,$f0,$f2
  407cc8:	55 00 00 00 03 02 02 00 	sll $2,$2,0x3
  407cd0:	42 00 00 00 00 02 1d 02 	addu $2,$2,$29
  407cd8:	43 00 00 00 08 00 0e 0e 	addiu $14,$14,8
  407ce0:	37 00 00 00 d0 ff 00 02 	s.d $f0,-48($2)
  407ce8:	5c 00 00 00 06 00 02 05 	slti $2,$5,6
  407cf0:	06 00 00 00 66 ff 00 02 	bne $2,$0,407a90 <erhs_+0x3a78>
  407cf8:	2b 00 00 00 f0 ff 00 04 	l.d $f0,-16($4)
  407d00:	43 00 00 00 00 05 02 1d 	addiu $2,$29,1280
  407d08:	42 00 00 00 00 02 0d 02 	addu $2,$2,$13
  407d10:	37 00 00 00 00 00 00 02 	s.d $f0,0($2)
  407d18:	2b 00 00 00 f0 ff 04 04 	l.d $f4,-16($4)
  407d20:	2b 00 00 00 d8 ff 08 04 	l.d $f8,-40($4)
  407d28:	77 00 00 00 00 0a 08 04 	div.d $f10,$f4,$f8
  407d30:	2b 00 00 00 e0 ff 06 04 	l.d $f6,-32($4)
  407d38:	75 00 00 00 00 02 06 06 	mul.d $f2,$f6,$f6
  407d40:	2b 00 00 00 e8 ff 00 04 	l.d $f0,-24($4)
  407d48:	75 00 00 00 00 00 00 00 	mul.d $f0,$f0,$f0
  407d50:	75 00 00 00 00 04 04 04 	mul.d $f4,$f4,$f4
  407d58:	71 00 00 00 00 02 00 02 	add.d $f2,$f2,$f0
  407d60:	71 00 00 00 00 02 04 02 	add.d $f2,$f2,$f4
  407d68:	2b 00 00 00 b0 80 00 1c 	l.d $f0,-32592($28)
  407d70:	75 00 00 00 00 02 00 02 	mul.d $f2,$f2,$f0
  407d78:	77 00 00 00 00 08 08 02 	div.d $f8,$f2,$f8
  407d80:	75 00 00 00 00 06 0a 06 	mul.d $f6,$f6,$f10
  407d88:	43 00 00 00 08 05 02 1d 	addiu $2,$29,1288
  407d90:	42 00 00 00 00 02 0d 02 	addu $2,$2,$13
  407d98:	37 00 00 00 00 00 06 02 	s.d $f6,0($2)
  407da0:	2b 00 00 00 e8 ff 00 04 	l.d $f0,-24($4)
  407da8:	75 00 00 00 00 00 0a 00 	mul.d $f0,$f0,$f10
  407db0:	43 00 00 00 10 05 02 1d 	addiu $2,$29,1296
  407db8:	42 00 00 00 00 02 0d 02 	addu $2,$2,$13
  407dc0:	37 00 00 00 00 00 00 02 	s.d $f0,0($2)
  407dc8:	2b 00 00 00 f0 ff 02 04 	l.d $f2,-16($4)
  407dd0:	75 00 00 00 00 02 0a 02 	mul.d $f2,$f2,$f10
  407dd8:	2b 00 00 00 f8 ff 00 04 	l.d $f0,-8($4)
  407de0:	73 00 00 00 00 00 08 00 	sub.d $f0,$f0,$f8
  407de8:	2b 00 00 00 b8 80 04 1c 	l.d $f4,-32584($28)
  407df0:	75 00 00 00 00 00 04 00 	mul.d $f0,$f0,$f4
  407df8:	71 00 00 00 00 02 00 02 	add.d $f2,$f2,$f0
  407e00:	75 00 00 00 00 04 04 08 	mul.d $f4,$f8,$f4
  407e08:	43 00 00 00 18 05 02 1d 	addiu $2,$29,1304
  407e10:	42 00 00 00 00 02 0d 02 	addu $2,$2,$13
  407e18:	37 00 00 00 00 00 02 02 	s.d $f2,0($2)
  407e20:	2b 00 00 00 f8 ff 02 04 	l.d $f2,-8($4)
  407e28:	2b 00 00 00 c0 80 00 1c 	l.d $f0,-32576($28)
  407e30:	75 00 00 00 00 02 00 02 	mul.d $f2,$f2,$f0
  407e38:	73 00 00 00 00 02 04 02 	sub.d $f2,$f2,$f4
  407e40:	75 00 00 00 00 02 0a 02 	mul.d $f2,$f2,$f10
  407e48:	43 00 00 00 05 00 10 10 	addiu $16,$16,5
  407e50:	43 00 00 00 01 00 11 11 	addiu $17,$17,1
  407e58:	43 00 00 00 20 05 02 1d 	addiu $2,$29,1312
  407e60:	42 00 00 00 00 02 0d 02 	addu $2,$2,$13
  407e68:	43 00 00 00 28 00 0d 0d 	addiu $13,$13,40
  407e70:	43 00 00 00 28 00 04 04 	addiu $4,$4,40
  407e78:	37 00 00 00 00 00 02 02 	s.d $f2,0($2)
  407e80:	5b 00 00 00 00 02 11 0f 	slt $2,$15,$17
  407e88:	05 00 00 00 ca fe 00 02 	beq $2,$0,4079b8 <erhs_+0x39a0>
  407e90:	a2 00 00 00 42 10 02 00 	lui $2,4162
  407e98:	28 00 00 00 f8 2c 02 02 	lw $2,11512($2)
  407ea0:	43 00 00 00 02 00 11 00 	addiu $17,$0,2
  407ea8:	43 00 00 00 ff ff 0f 02 	addiu $15,$2,-1
  407eb0:	5c 00 00 00 02 00 02 0f 	slti $2,$15,2
  407eb8:	06 00 00 00 8a 00 00 02 	bne $2,$0,4080e8 <erhs_+0x40d0>
  407ec0:	a2 00 00 00 2c 10 0b 00 	lui $11,4140
  407ec8:	43 00 00 00 30 8c 0b 0b 	addiu $11,$11,-29648
  407ed0:	43 00 00 00 20 05 0a 1d 	addiu $10,$29,1312
  407ed8:	43 00 00 00 0a 00 08 00 	addiu $8,$0,10
  407ee0:	43 00 00 00 42 00 07 19 	addiu $7,$25,66
  407ee8:	43 00 00 00 01 00 02 08 	addiu $2,$8,1
  407ef0:	55 00 00 00 03 02 02 00 	sll $2,$2,0x3
  407ef8:	42 00 00 00 00 03 02 0a 	addu $3,$10,$2
  407f00:	42 00 00 00 00 02 02 15 	addu $2,$21,$2
  407f08:	2b 00 00 00 00 00 00 03 	l.d $f0,0($3)
  407f10:	2b 00 00 00 00 00 02 02 	l.d $f2,0($2)
  407f18:	73 00 00 00 00 00 02 00 	sub.d $f0,$f0,$f2
  407f20:	a2 00 00 00 42 10 01 00 	lui $1,4162
  407f28:	2b 00 00 00 68 2d 02 01 	l.d $f2,11624($1)
  407f30:	55 00 00 00 05 02 07 00 	sll $2,$7,0x5
  407f38:	75 00 00 00 00 02 00 02 	mul.d $f2,$f2,$f0
  407f40:	42 00 00 00 00 02 07 02 	addu $2,$2,$7
  407f48:	42 00 00 00 00 02 18 02 	addu $2,$2,$24
  407f50:	55 00 00 00 02 03 02 00 	sll $3,$2,0x2
  407f58:	42 00 00 00 00 06 02 03 	addu $6,$3,$2
  407f60:	43 00 00 00 01 00 02 06 	addiu $2,$6,1
  407f68:	55 00 00 00 03 02 02 00 	sll $2,$2,0x3
  407f70:	42 00 00 00 00 02 0b 02 	addu $2,$2,$11
  407f78:	2b 00 00 00 00 00 00 02 	l.d $f0,0($2)
  407f80:	73 00 00 00 00 00 02 00 	sub.d $f0,$f0,$f2
  407f88:	42 00 00 00 00 09 08 00 	addu $9,$0,$8
  407f90:	43 00 00 00 02 00 05 00 	addiu $5,$0,2
  407f98:	37 00 00 00 00 00 00 02 	s.d $f0,0($2)
  407fa0:	42 00 00 00 00 02 05 09 	addu $2,$9,$5
  407fa8:	55 00 00 00 03 02 02 00 	sll $2,$2,0x3
  407fb0:	42 00 00 00 00 03 02 0a 	addu $3,$10,$2
  407fb8:	42 00 00 00 00 02 02 15 	addu $2,$21,$2
  407fc0:	2b 00 00 00 00 00 02 03 	l.d $f2,0($3)
  407fc8:	2b 00 00 00 00 00 00 02 	l.d $f0,0($2)
  407fd0:	73 00 00 00 00 02 00 02 	sub.d $f2,$f2,$f0
  407fd8:	a2 00 00 00 42 10 01 00 	lui $1,4162
  407fe0:	2b 00 00 00 68 2d 04 01 	l.d $f4,11624($1)
  407fe8:	75 00 00 00 00 04 02 04 	mul.d $f4,$f4,$f2
  407ff0:	42 00 00 00 00 02 05 06 	addu $2,$6,$5
  407ff8:	55 00 00 00 03 02 02 00 	sll $2,$2,0x3
  408000:	42 00 00 00 00 02 0b 02 	addu $2,$2,$11
  408008:	2b 00 00 00 00 00 00 02 	l.d $f0,0($2)
  408010:	73 00 00 00 00 00 04 00 	sub.d $f0,$f0,$f4
  408018:	43 00 00 00 01 00 03 05 	addiu $3,$5,1
  408020:	37 00 00 00 00 00 00 02 	s.d $f0,0($2)
  408028:	42 00 00 00 00 02 03 09 	addu $2,$9,$3
  408030:	55 00 00 00 03 02 02 00 	sll $2,$2,0x3
  408038:	42 00 00 00 00 04 02 0a 	addu $4,$10,$2
  408040:	42 00 00 00 00 02 02 15 	addu $2,$21,$2
  408048:	2b 00 00 00 00 00 02 04 	l.d $f2,0($4)
  408050:	2b 00 00 00 00 00 00 02 	l.d $f0,0($2)
  408058:	73 00 00 00 00 02 00 02 	sub.d $f2,$f2,$f0
  408060:	a2 00 00 00 42 10 01 00 	lui $1,4162
  408068:	2b 00 00 00 68 2d 04 01 	l.d $f4,11624($1)
  408070:	75 00 00 00 00 04 02 04 	mul.d $f4,$f4,$f2
  408078:	42 00 00 00 00 03 03 06 	addu $3,$6,$3
  408080:	55 00 00 00 03 03 03 00 	sll $3,$3,0x3
  408088:	42 00 00 00 00 03 0b 03 	addu $3,$3,$11
  408090:	2b 00 00 00 00 00 00 03 	l.d $f0,0($3)
  408098:	73 00 00 00 00 00 04 00 	sub.d $f0,$f0,$f4
  4080a0:	43 00 00 00 02 00 05 05 	addiu $5,$5,2
  4080a8:	5c 00 00 00 06 00 02 05 	slti $2,$5,6
  4080b0:	37 00 00 00 00 00 00 03 	s.d $f0,0($3)
  4080b8:	06 00 00 00 b8 ff 00 02 	bne $2,$0,407fa0 <erhs_+0x3f88>
  4080c0:	43 00 00 00 05 00 08 08 	addiu $8,$8,5
  4080c8:	43 00 00 00 21 00 07 07 	addiu $7,$7,33
  4080d0:	43 00 00 00 01 00 11 11 	addiu $17,$17,1
  4080d8:	5b 00 00 00 00 02 11 0f 	slt $2,$15,$17
  4080e0:	05 00 00 00 80 ff 00 02 	beq $2,$0,407ee8 <erhs_+0x3ed0>
  4080e8:	a2 00 00 00 42 10 0f 00 	lui $15,4162
  4080f0:	28 00 00 00 f8 2c 0f 0f 	lw $15,11512($15)
  4080f8:	43 00 00 00 02 00 11 00 	addiu $17,$0,2
  408100:	5c 00 00 00 02 00 02 0f 	slti $2,$15,2
  408108:	06 00 00 00 9c 00 00 02 	bne $2,$0,408380 <erhs_+0x4368>
  408110:	2b 00 00 00 c8 80 18 1c 	l.d $f24,-32568($28)
  408118:	2b 00 00 00 d0 80 1c 1c 	l.d $f28,-32560($28)
  408120:	43 00 00 00 70 05 07 1d 	addiu $7,$29,1392
  408128:	43 00 00 00 68 05 06 1d 	addiu $6,$29,1384
  408130:	43 00 00 00 60 05 05 1d 	addiu $5,$29,1376
  408138:	43 00 00 00 58 05 04 1d 	addiu $4,$29,1368
  408140:	43 00 00 00 50 00 03 1d 	addiu $3,$29,80
  408148:	2b 00 00 00 d8 ff 00 03 	l.d $f0,-40($3)
  408150:	77 00 00 00 00 14 00 18 	div.d $f20,$f24,$f0
  408158:	2b 00 00 00 e0 ff 08 03 	l.d $f8,-32($3)
  408160:	75 00 00 00 00 08 08 14 	mul.d $f8,$f20,$f8
  408168:	2b 00 00 00 e8 ff 0e 03 	l.d $f14,-24($3)
  408170:	75 00 00 00 00 0e 0e 14 	mul.d $f14,$f20,$f14
  408178:	2b 00 00 00 f0 ff 0c 03 	l.d $f12,-16($3)
  408180:	75 00 00 00 00 0c 0c 14 	mul.d $f12,$f20,$f12
  408188:	2b 00 00 00 f8 ff 10 03 	l.d $f16,-8($3)
  408190:	75 00 00 00 00 10 10 14 	mul.d $f16,$f20,$f16
  408198:	2b 00 00 00 b0 ff 00 03 	l.d $f0,-80($3)
  4081a0:	77 00 00 00 00 14 00 18 	div.d $f20,$f24,$f0
  4081a8:	2b 00 00 00 b8 ff 06 03 	l.d $f6,-72($3)
  4081b0:	75 00 00 00 00 06 06 14 	mul.d $f6,$f20,$f6
  4081b8:	2b 00 00 00 c0 ff 04 03 	l.d $f4,-64($3)
  4081c0:	75 00 00 00 00 04 04 14 	mul.d $f4,$f20,$f4
  4081c8:	2b 00 00 00 c8 ff 0a 03 	l.d $f10,-56($3)
  4081d0:	75 00 00 00 00 0a 0a 14 	mul.d $f10,$f20,$f10
  4081d8:	73 00 00 00 00 00 06 08 	sub.d $f0,$f8,$f6
  4081e0:	a2 00 00 00 42 10 01 00 	lui $1,4162
  4081e8:	2b 00 00 00 70 2d 02 01 	l.d $f2,11632($1)
  4081f0:	75 00 00 00 00 02 00 02 	mul.d $f2,$f2,$f0
  4081f8:	75 00 00 00 00 08 08 08 	mul.d $f8,$f8,$f8
  408200:	2b 00 00 00 d0 ff 12 03 	l.d $f18,-48($3)
  408208:	75 00 00 00 00 06 06 06 	mul.d $f6,$f6,$f6
  408210:	37 00 00 00 00 00 02 04 	s.d $f2,0($4)
  408218:	73 00 00 00 00 02 04 0e 	sub.d $f2,$f14,$f4
  408220:	a2 00 00 00 42 10 01 00 	lui $1,4162
  408228:	2b 00 00 00 70 2d 00 01 	l.d $f0,11632($1)
  408230:	75 00 00 00 00 00 02 00 	mul.d $f0,$f0,$f2
  408238:	75 00 00 00 00 0e 0e 0e 	mul.d $f14,$f14,$f14
  408240:	75 00 00 00 00 04 04 04 	mul.d $f4,$f4,$f4
  408248:	37 00 00 00 00 00 00 05 	s.d $f0,0($5)
  408250:	a2 00 00 00 42 10 01 00 	lui $1,4162
  408258:	2b 00 00 00 70 2d 02 01 	l.d $f2,11632($1)
  408260:	75 00 00 00 00 02 1c 02 	mul.d $f2,$f2,$f28
  408268:	73 00 00 00 00 00 0a 0c 	sub.d $f0,$f12,$f10
  408270:	75 00 00 00 00 0c 0c 0c 	mul.d $f12,$f12,$f12
  408278:	75 00 00 00 00 0a 0a 0a 	mul.d $f10,$f10,$f10
  408280:	75 00 00 00 00 02 00 02 	mul.d $f2,$f2,$f0
  408288:	71 00 00 00 00 08 0e 08 	add.d $f8,$f8,$f14
  408290:	71 00 00 00 00 06 04 06 	add.d $f6,$f6,$f4
  408298:	75 00 00 00 00 12 12 14 	mul.d $f18,$f20,$f18
  4082a0:	2b 00 00 00 d8 80 16 1c 	l.d $f22,-32552($28)
  4082a8:	71 00 00 00 00 08 0c 08 	add.d $f8,$f8,$f12
  4082b0:	37 00 00 00 00 00 02 06 	s.d $f2,0($6)
  4082b8:	a2 00 00 00 42 10 01 00 	lui $1,4162
  4082c0:	2b 00 00 00 70 2d 00 01 	l.d $f0,11632($1)
  4082c8:	71 00 00 00 00 06 0a 06 	add.d $f6,$f6,$f10
  4082d0:	75 00 00 00 00 04 16 00 	mul.d $f4,$f0,$f22
  4082d8:	73 00 00 00 00 08 06 08 	sub.d $f8,$f8,$f6
  4082e0:	75 00 00 00 00 04 08 04 	mul.d $f4,$f4,$f8
  4082e8:	2b 00 00 00 e0 80 16 1c 	l.d $f22,-32544($28)
  4082f0:	75 00 00 00 00 02 16 00 	mul.d $f2,$f0,$f22
  4082f8:	73 00 00 00 00 0c 0a 0c 	sub.d $f12,$f12,$f10
  408300:	75 00 00 00 00 02 0c 02 	mul.d $f2,$f2,$f12
  408308:	2b 00 00 00 e8 80 16 1c 	l.d $f22,-32536($28)
  408310:	75 00 00 00 00 00 16 00 	mul.d $f0,$f0,$f22
  408318:	73 00 00 00 00 10 12 10 	sub.d $f16,$f16,$f18
  408320:	75 00 00 00 00 00 10 00 	mul.d $f0,$f0,$f16
  408328:	71 00 00 00 00 04 02 04 	add.d $f4,$f4,$f2
  408330:	43 00 00 00 01 00 11 11 	addiu $17,$17,1
  408338:	5b 00 00 00 00 02 11 0f 	slt $2,$15,$17
  408340:	43 00 00 00 28 00 03 03 	addiu $3,$3,40
  408348:	71 00 00 00 00 04 00 04 	add.d $f4,$f4,$f0
  408350:	43 00 00 00 28 00 04 04 	addiu $4,$4,40
  408358:	43 00 00 00 28 00 05 05 	addiu $5,$5,40
  408360:	43 00 00 00 28 00 06 06 	addiu $6,$6,40
  408368:	37 00 00 00 00 00 04 07 	s.d $f4,0($7)
  408370:	43 00 00 00 28 00 07 07 	addiu $7,$7,40
  408378:	05 00 00 00 72 ff 00 02 	beq $2,$0,408148 <erhs_+0x4130>
  408380:	a2 00 00 00 42 10 02 00 	lui $2,4162
  408388:	28 00 00 00 f8 2c 02 02 	lw $2,11512($2)
  408390:	43 00 00 00 02 00 11 00 	addiu $17,$0,2
  408398:	43 00 00 00 ff ff 0f 02 	addiu $15,$2,-1
  4083a0:	5c 00 00 00 02 00 02 0f 	slti $2,$15,2
  4083a8:	06 00 00 00 10 01 00 02 	bne $2,$0,4087f0 <erhs_+0x47d8>
  4083b0:	43 00 00 00 50 00 05 1d 	addiu $5,$29,80
  4083b8:	43 00 00 00 50 00 06 00 	addiu $6,$0,80
  4083c0:	43 00 00 00 42 00 07 19 	addiu $7,$25,66
  4083c8:	2b 00 00 00 d8 ff 00 05 	l.d $f0,-40($5)
  4083d0:	71 00 00 00 00 00 00 00 	add.d $f0,$f0,$f0
  4083d8:	2b 00 00 00 00 00 04 05 	l.d $f4,0($5)
  4083e0:	2b 00 00 00 00 00 06 16 	l.d $f6,0($22)
  4083e8:	2b 00 00 00 00 00 02 13 	l.d $f2,0($19)
  4083f0:	73 00 00 00 00 04 00 04 	sub.d $f4,$f4,$f0
  4083f8:	75 00 00 00 00 06 02 06 	mul.d $f6,$f6,$f2
  408400:	2b 00 00 00 b0 ff 00 05 	l.d $f0,-80($5)
  408408:	55 00 00 00 05 02 07 00 	sll $2,$7,0x5
  408410:	71 00 00 00 00 04 00 04 	add.d $f4,$f4,$f0
  408418:	42 00 00 00 00 02 07 02 	addu $2,$2,$7
  408420:	42 00 00 00 00 02 18 02 	addu $2,$2,$24
  408428:	55 00 00 00 02 04 02 00 	sll $4,$2,0x2
  408430:	75 00 00 00 00 06 04 06 	mul.d $f6,$f6,$f4
  408438:	42 00 00 00 00 04 02 04 	addu $4,$4,$2
  408440:	55 00 00 00 03 04 04 00 	sll $4,$4,0x3
  408448:	a2 00 00 00 2c 10 12 00 	lui $18,4140
  408450:	43 00 00 00 38 8c 12 12 	addiu $18,$18,-29640
  408458:	42 00 00 00 00 02 12 04 	addu $2,$4,$18
  408460:	2b 00 00 00 00 00 00 02 	l.d $f0,0($2)
  408468:	71 00 00 00 00 00 06 00 	add.d $f0,$f0,$f6
  408470:	2b 00 00 00 f0 80 16 1c 	l.d $f22,-32528($28)
  408478:	42 00 00 00 00 03 06 1d 	addu $3,$29,$6
  408480:	37 00 00 00 00 00 00 02 	s.d $f0,0($2)
  408488:	28 00 00 00 b0 0a 12 1d 	lw $18,2736($29)
  408490:	2b 00 00 00 10 00 08 13 	l.d $f8,16($19)
  408498:	2b 00 00 00 08 05 00 03 	l.d $f0,1288($3)
  4084a0:	42 00 00 00 00 02 06 12 	addu $2,$18,$6
  4084a8:	75 00 00 00 00 08 16 08 	mul.d $f8,$f8,$f22
  4084b0:	2b 00 00 00 00 00 02 02 	l.d $f2,0($2)
  4084b8:	73 00 00 00 00 02 00 02 	sub.d $f2,$f2,$f0
  4084c0:	75 00 00 00 00 08 02 08 	mul.d $f8,$f8,$f2
  4084c8:	2b 00 00 00 e0 ff 00 05 	l.d $f0,-32($5)
  4084d0:	71 00 00 00 00 00 00 00 	add.d $f0,$f0,$f0
  4084d8:	2b 00 00 00 08 00 02 05 	l.d $f2,8($5)
  4084e0:	2b 00 00 00 08 00 06 16 	l.d $f6,8($22)
  4084e8:	2b 00 00 00 00 00 04 13 	l.d $f4,0($19)
  4084f0:	73 00 00 00 00 02 00 02 	sub.d $f2,$f2,$f0
  4084f8:	75 00 00 00 00 06 04 06 	mul.d $f6,$f6,$f4
  408500:	2b 00 00 00 b8 ff 00 05 	l.d $f0,-72($5)
  408508:	71 00 00 00 00 02 00 02 	add.d $f2,$f2,$f0
  408510:	a2 00 00 00 2c 10 12 00 	lui $18,4140
  408518:	43 00 00 00 40 8c 12 12 	addiu $18,$18,-29632
  408520:	42 00 00 00 00 02 12 04 	addu $2,$4,$18
  408528:	75 00 00 00 00 06 02 06 	mul.d $f6,$f6,$f2
  408530:	2b 00 00 00 00 00 00 02 	l.d $f0,0($2)
  408538:	71 00 00 00 00 00 08 00 	add.d $f0,$f0,$f8
  408540:	71 00 00 00 00 00 06 00 	add.d $f0,$f0,$f6
  408548:	42 00 00 00 00 03 06 1d 	addu $3,$29,$6
  408550:	37 00 00 00 00 00 00 02 	s.d $f0,0($2)
  408558:	28 00 00 00 b8 0a 12 1d 	lw $18,2744($29)
  408560:	2b 00 00 00 10 00 08 13 	l.d $f8,16($19)
  408568:	2b 00 00 00 10 05 00 03 	l.d $f0,1296($3)
  408570:	42 00 00 00 00 02 06 12 	addu $2,$18,$6
  408578:	75 00 00 00 00 08 16 08 	mul.d $f8,$f8,$f22
  408580:	2b 00 00 00 00 00 02 02 	l.d $f2,0($2)
  408588:	73 00 00 00 00 02 00 02 	sub.d $f2,$f2,$f0
  408590:	75 00 00 00 00 08 02 08 	mul.d $f8,$f8,$f2
  408598:	2b 00 00 00 e8 ff 00 05 	l.d $f0,-24($5)
  4085a0:	71 00 00 00 00 00 00 00 	add.d $f0,$f0,$f0
  4085a8:	2b 00 00 00 10 00 02 05 	l.d $f2,16($5)
  4085b0:	2b 00 00 00 10 00 06 16 	l.d $f6,16($22)
  4085b8:	2b 00 00 00 00 00 04 13 	l.d $f4,0($19)
  4085c0:	73 00 00 00 00 02 00 02 	sub.d $f2,$f2,$f0
  4085c8:	75 00 00 00 00 06 04 06 	mul.d $f6,$f6,$f4
  4085d0:	2b 00 00 00 c0 ff 00 05 	l.d $f0,-64($5)
  4085d8:	71 00 00 00 00 02 00 02 	add.d $f2,$f2,$f0
  4085e0:	a2 00 00 00 2c 10 12 00 	lui $18,4140
  4085e8:	43 00 00 00 48 8c 12 12 	addiu $18,$18,-29624
  4085f0:	42 00 00 00 00 02 12 04 	addu $2,$4,$18
  4085f8:	75 00 00 00 00 06 02 06 	mul.d $f6,$f6,$f2
  408600:	2b 00 00 00 00 00 00 02 	l.d $f0,0($2)
  408608:	71 00 00 00 00 00 08 00 	add.d $f0,$f0,$f8
  408610:	71 00 00 00 00 00 06 00 	add.d $f0,$f0,$f6
  408618:	42 00 00 00 00 03 06 1d 	addu $3,$29,$6
  408620:	37 00 00 00 00 00 00 02 	s.d $f0,0($2)
  408628:	28 00 00 00 c0 0a 12 1d 	lw $18,2752($29)
  408630:	2b 00 00 00 10 00 08 13 	l.d $f8,16($19)
  408638:	2b 00 00 00 18 05 00 03 	l.d $f0,1304($3)
  408640:	42 00 00 00 00 02 06 12 	addu $2,$18,$6
  408648:	75 00 00 00 00 08 16 08 	mul.d $f8,$f8,$f22
  408650:	2b 00 00 00 00 00 02 02 	l.d $f2,0($2)
  408658:	73 00 00 00 00 02 00 02 	sub.d $f2,$f2,$f0
  408660:	75 00 00 00 00 08 02 08 	mul.d $f8,$f8,$f2
  408668:	2b 00 00 00 f0 ff 00 05 	l.d $f0,-16($5)
  408670:	71 00 00 00 00 00 00 00 	add.d $f0,$f0,$f0
  408678:	2b 00 00 00 18 00 02 05 	l.d $f2,24($5)
  408680:	2b 00 00 00 18 00 06 16 	l.d $f6,24($22)
  408688:	2b 00 00 00 00 00 04 13 	l.d $f4,0($19)
  408690:	73 00 00 00 00 02 00 02 	sub.d $f2,$f2,$f0
  408698:	75 00 00 00 00 06 04 06 	mul.d $f6,$f6,$f4
  4086a0:	2b 00 00 00 c8 ff 00 05 	l.d $f0,-56($5)
  4086a8:	71 00 00 00 00 02 00 02 	add.d $f2,$f2,$f0
  4086b0:	a2 00 00 00 2c 10 12 00 	lui $18,4140
  4086b8:	43 00 00 00 50 8c 12 12 	addiu $18,$18,-29616
  4086c0:	42 00 00 00 00 02 12 04 	addu $2,$4,$18
  4086c8:	75 00 00 00 00 06 02 06 	mul.d $f6,$f6,$f2
  4086d0:	2b 00 00 00 00 00 00 02 	l.d $f0,0($2)
  4086d8:	71 00 00 00 00 00 08 00 	add.d $f0,$f0,$f8
  4086e0:	71 00 00 00 00 00 06 00 	add.d $f0,$f0,$f6
  4086e8:	42 00 00 00 00 03 06 1d 	addu $3,$29,$6
  4086f0:	37 00 00 00 00 00 00 02 	s.d $f0,0($2)
  4086f8:	28 00 00 00 c8 0a 12 1d 	lw $18,2760($29)
  408700:	2b 00 00 00 10 00 08 13 	l.d $f8,16($19)
  408708:	2b 00 00 00 20 05 00 03 	l.d $f0,1312($3)
  408710:	42 00 00 00 00 02 06 12 	addu $2,$18,$6
  408718:	75 00 00 00 00 08 16 08 	mul.d $f8,$f8,$f22
  408720:	2b 00 00 00 00 00 02 02 	l.d $f2,0($2)
  408728:	73 00 00 00 00 02 00 02 	sub.d $f2,$f2,$f0
  408730:	75 00 00 00 00 08 02 08 	mul.d $f8,$f8,$f2
  408738:	2b 00 00 00 f8 ff 00 05 	l.d $f0,-8($5)
  408740:	71 00 00 00 00 00 00 00 	add.d $f0,$f0,$f0
  408748:	2b 00 00 00 20 00 02 05 	l.d $f2,32($5)
  408750:	2b 00 00 00 20 00 06 16 	l.d $f6,32($22)
  408758:	2b 00 00 00 00 00 04 13 	l.d $f4,0($19)
  408760:	73 00 00 00 00 02 00 02 	sub.d $f2,$f2,$f0
  408768:	75 00 00 00 00 06 04 06 	mul.d $f6,$f6,$f4
  408770:	2b 00 00 00 d0 ff 00 05 	l.d $f0,-48($5)
  408778:	71 00 00 00 00 02 00 02 	add.d $f2,$f2,$f0
  408780:	a2 00 00 00 2c 10 12 00 	lui $18,4140
  408788:	43 00 00 00 58 8c 12 12 	addiu $18,$18,-29608
  408790:	42 00 00 00 00 04 12 04 	addu $4,$4,$18
  408798:	75 00 00 00 00 06 02 06 	mul.d $f6,$f6,$f2
  4087a0:	2b 00 00 00 00 00 00 04 	l.d $f0,0($4)
  4087a8:	71 00 00 00 00 00 08 00 	add.d $f0,$f0,$f8
  4087b0:	43 00 00 00 21 00 07 07 	addiu $7,$7,33
  4087b8:	43 00 00 00 01 00 11 11 	addiu $17,$17,1
  4087c0:	71 00 00 00 00 00 06 00 	add.d $f0,$f0,$f6
  4087c8:	43 00 00 00 28 00 06 06 	addiu $6,$6,40
  4087d0:	5b 00 00 00 00 02 11 0f 	slt $2,$15,$17
  4087d8:	43 00 00 00 28 00 05 05 	addiu $5,$5,40
  4087e0:	37 00 00 00 00 00 00 04 	s.d $f0,0($4)
  4087e8:	05 00 00 00 f6 fe 00 02 	beq $2,$0,4083c8 <erhs_+0x43b0>
  4087f0:	2b 00 00 00 28 00 02 1d 	l.d $f2,40($29)
  4087f8:	2b 00 00 00 f8 80 16 1c 	l.d $f22,-32520($28)
  408800:	75 00 00 00 00 02 16 02 	mul.d $f2,$f2,$f22
  408808:	2b 00 00 00 50 00 00 1d 	l.d $f0,80($29)
  408810:	2b 00 00 00 00 81 16 1c 	l.d $f22,-32512($28)
  408818:	75 00 00 00 00 00 16 00 	mul.d $f0,$f0,$f22
  408820:	73 00 00 00 00 02 00 02 	sub.d $f2,$f2,$f0
  408828:	2b 00 00 00 78 00 00 1d 	l.d $f0,120($29)
  408830:	28 00 00 00 d0 0a 12 1d 	lw $18,2768($29)
  408838:	71 00 00 00 00 02 00 02 	add.d $f2,$f2,$f0
  408840:	42 00 00 00 00 02 18 12 	addu $2,$18,$24
  408848:	55 00 00 00 02 03 02 00 	sll $3,$2,0x2
  408850:	42 00 00 00 00 06 02 03 	addu $6,$3,$2
  408858:	75 00 00 00 00 02 02 1e 	mul.d $f2,$f30,$f2
  408860:	43 00 00 00 01 00 03 06 	addiu $3,$6,1
  408868:	55 00 00 00 03 03 03 00 	sll $3,$3,0x3
  408870:	a2 00 00 00 2d 10 12 00 	lui $18,4141
  408878:	43 00 00 00 80 e0 12 12 	addiu $18,$18,-8064
  408880:	42 00 00 00 00 02 12 03 	addu $2,$3,$18
  408888:	2b 00 00 00 00 00 00 02 	l.d $f0,0($2)
  408890:	73 00 00 00 00 00 02 00 	sub.d $f0,$f0,$f2
  408898:	2b 00 00 00 08 81 16 1c 	l.d $f22,-32504($28)
  4088a0:	37 00 00 00 00 00 00 02 	s.d $f0,0($2)
  4088a8:	2b 00 00 00 28 00 00 1d 	l.d $f0,40($29)
  4088b0:	75 00 00 00 00 00 16 00 	mul.d $f0,$f0,$f22
  4088b8:	2b 00 00 00 50 00 04 1d 	l.d $f4,80($29)
  4088c0:	2b 00 00 00 10 81 16 1c 	l.d $f22,-32496($28)
  4088c8:	75 00 00 00 00 04 16 04 	mul.d $f4,$f4,$f22
  4088d0:	2b 00 00 00 78 00 02 1d 	l.d $f2,120($29)
  4088d8:	2b 00 00 00 00 81 16 1c 	l.d $f22,-32512($28)
  4088e0:	75 00 00 00 00 02 16 02 	mul.d $f2,$f2,$f22
  4088e8:	71 00 00 00 00 00 04 00 	add.d $f0,$f0,$f4
  4088f0:	73 00 00 00 00 00 02 00 	sub.d $f0,$f0,$f2
  4088f8:	2b 00 00 00 a0 00 02 1d 	l.d $f2,160($29)
  408900:	71 00 00 00 00 00 02 00 	add.d $f0,$f0,$f2
  408908:	75 00 00 00 00 00 00 1e 	mul.d $f0,$f30,$f0
  408910:	a2 00 00 00 2e 10 12 00 	lui $18,4142
  408918:	43 00 00 00 a8 8a 12 12 	addiu $18,$18,-30040
  408920:	42 00 00 00 00 03 12 03 	addu $3,$3,$18
  408928:	2b 00 00 00 00 00 02 03 	l.d $f2,0($3)
  408930:	73 00 00 00 00 02 00 02 	sub.d $f2,$f2,$f0
  408938:	43 00 00 00 10 00 04 1d 	addiu $4,$29,16
  408940:	43 00 00 00 02 00 05 00 	addiu $5,$0,2
  408948:	37 00 00 00 00 00 02 03 	s.d $f2,0($3)
  408950:	2b 00 00 00 20 00 02 04 	l.d $f2,32($4)
  408958:	2b 00 00 00 f8 80 16 1c 	l.d $f22,-32520($28)
  408960:	75 00 00 00 00 02 16 02 	mul.d $f2,$f2,$f22
  408968:	2b 00 00 00 48 00 00 04 	l.d $f0,72($4)
  408970:	2b 00 00 00 00 81 16 1c 	l.d $f22,-32512($28)
  408978:	75 00 00 00 00 00 16 00 	mul.d $f0,$f0,$f22
  408980:	73 00 00 00 00 02 00 02 	sub.d $f2,$f2,$f0
  408988:	2b 00 00 00 70 00 00 04 	l.d $f0,112($4)
  408990:	71 00 00 00 00 02 00 02 	add.d $f2,$f2,$f0
  408998:	75 00 00 00 00 02 02 1e 	mul.d $f2,$f30,$f2
  4089a0:	42 00 00 00 00 03 05 06 	addu $3,$6,$5
  4089a8:	55 00 00 00 03 03 03 00 	sll $3,$3,0x3
  4089b0:	a2 00 00 00 2d 10 12 00 	lui $18,4141
  4089b8:	43 00 00 00 80 e0 12 12 	addiu $18,$18,-8064
  4089c0:	42 00 00 00 00 02 12 03 	addu $2,$3,$18
  4089c8:	2b 00 00 00 00 00 00 02 	l.d $f0,0($2)
  4089d0:	73 00 00 00 00 00 02 00 	sub.d $f0,$f0,$f2
  4089d8:	2b 00 00 00 08 81 16 1c 	l.d $f22,-32504($28)
  4089e0:	37 00 00 00 00 00 00 02 	s.d $f0,0($2)
  4089e8:	2b 00 00 00 20 00 02 04 	l.d $f2,32($4)
  4089f0:	75 00 00 00 00 02 16 02 	mul.d $f2,$f2,$f22
  4089f8:	2b 00 00 00 48 00 04 04 	l.d $f4,72($4)
  408a00:	2b 00 00 00 10 81 16 1c 	l.d $f22,-32496($28)
  408a08:	75 00 00 00 00 04 16 04 	mul.d $f4,$f4,$f22
  408a10:	2b 00 00 00 70 00 00 04 	l.d $f0,112($4)
  408a18:	2b 00 00 00 00 81 16 1c 	l.d $f22,-32512($28)
  408a20:	75 00 00 00 00 00 16 00 	mul.d $f0,$f0,$f22
  408a28:	71 00 00 00 00 02 04 02 	add.d $f2,$f2,$f4
  408a30:	73 00 00 00 00 02 00 02 	sub.d $f2,$f2,$f0
  408a38:	2b 00 00 00 98 00 00 04 	l.d $f0,152($4)
  408a40:	71 00 00 00 00 02 00 02 	add.d $f2,$f2,$f0
  408a48:	75 00 00 00 00 02 02 1e 	mul.d $f2,$f30,$f2
  408a50:	a2 00 00 00 2e 10 12 00 	lui $18,4142
  408a58:	43 00 00 00 a8 8a 12 12 	addiu $18,$18,-30040
  408a60:	42 00 00 00 00 03 12 03 	addu $3,$3,$18
  408a68:	2b 00 00 00 00 00 00 03 	l.d $f0,0($3)
  408a70:	73 00 00 00 00 00 02 00 	sub.d $f0,$f0,$f2
  408a78:	2b 00 00 00 f8 80 16 1c 	l.d $f22,-32520($28)
  408a80:	37 00 00 00 00 00 00 03 	s.d $f0,0($3)
  408a88:	2b 00 00 00 28 00 02 04 	l.d $f2,40($4)
  408a90:	75 00 00 00 00 02 16 02 	mul.d $f2,$f2,$f22
  408a98:	2b 00 00 00 50 00 00 04 	l.d $f0,80($4)
  408aa0:	2b 00 00 00 00 81 16 1c 	l.d $f22,-32512($28)
  408aa8:	75 00 00 00 00 00 16 00 	mul.d $f0,$f0,$f22
  408ab0:	73 00 00 00 00 02 00 02 	sub.d $f2,$f2,$f0
  408ab8:	2b 00 00 00 78 00 00 04 	l.d $f0,120($4)
  408ac0:	71 00 00 00 00 02 00 02 	add.d $f2,$f2,$f0
  408ac8:	a2 00 00 00 2d 10 12 00 	lui $18,4141
  408ad0:	43 00 00 00 80 e0 12 12 	addiu $18,$18,-8064
  408ad8:	75 00 00 00 00 02 02 1e 	mul.d $f2,$f30,$f2
  408ae0:	43 00 00 00 01 00 03 05 	addiu $3,$5,1
  408ae8:	42 00 00 00 00 03 03 06 	addu $3,$6,$3
  408af0:	55 00 00 00 03 03 03 00 	sll $3,$3,0x3
  408af8:	42 00 00 00 00 02 12 03 	addu $2,$3,$18
  408b00:	2b 00 00 00 00 00 00 02 	l.d $f0,0($2)
  408b08:	73 00 00 00 00 00 02 00 	sub.d $f0,$f0,$f2
  408b10:	2b 00 00 00 08 81 16 1c 	l.d $f22,-32504($28)
  408b18:	37 00 00 00 00 00 00 02 	s.d $f0,0($2)
  408b20:	2b 00 00 00 28 00 02 04 	l.d $f2,40($4)
  408b28:	75 00 00 00 00 02 16 02 	mul.d $f2,$f2,$f22
  408b30:	2b 00 00 00 50 00 04 04 	l.d $f4,80($4)
  408b38:	2b 00 00 00 10 81 16 1c 	l.d $f22,-32496($28)
  408b40:	75 00 00 00 00 04 16 04 	mul.d $f4,$f4,$f22
  408b48:	2b 00 00 00 78 00 00 04 	l.d $f0,120($4)
  408b50:	2b 00 00 00 00 81 16 1c 	l.d $f22,-32512($28)
  408b58:	75 00 00 00 00 00 16 00 	mul.d $f0,$f0,$f22
  408b60:	71 00 00 00 00 02 04 02 	add.d $f2,$f2,$f4
  408b68:	73 00 00 00 00 02 00 02 	sub.d $f2,$f2,$f0
  408b70:	2b 00 00 00 a0 00 00 04 	l.d $f0,160($4)
  408b78:	71 00 00 00 00 02 00 02 	add.d $f2,$f2,$f0
  408b80:	75 00 00 00 00 02 02 1e 	mul.d $f2,$f30,$f2
  408b88:	a2 00 00 00 2e 10 12 00 	lui $18,4142
  408b90:	43 00 00 00 a8 8a 12 12 	addiu $18,$18,-30040
  408b98:	42 00 00 00 00 03 12 03 	addu $3,$3,$18
  408ba0:	2b 00 00 00 00 00 00 03 	l.d $f0,0($3)
  408ba8:	73 00 00 00 00 00 02 00 	sub.d $f0,$f0,$f2
  408bb0:	43 00 00 00 02 00 05 05 	addiu $5,$5,2
  408bb8:	5c 00 00 00 06 00 02 05 	slti $2,$5,6
  408bc0:	43 00 00 00 10 00 04 04 	addiu $4,$4,16
  408bc8:	37 00 00 00 00 00 00 03 	s.d $f0,0($3)
  408bd0:	06 00 00 00 5e ff 00 02 	bne $2,$0,408950 <erhs_+0x4938>
  408bd8:	a2 00 00 00 42 10 02 00 	lui $2,4162
  408be0:	28 00 00 00 f8 2c 02 02 	lw $2,11512($2)
  408be8:	43 00 00 00 04 00 11 00 	addiu $17,$0,4
  408bf0:	43 00 00 00 fd ff 0f 02 	addiu $15,$2,-3
  408bf8:	5c 00 00 00 04 00 02 0f 	slti $2,$15,4
  408c00:	06 00 00 00 bc 00 00 02 	bne $2,$0,408ef8 <erhs_+0x4ee0>
  408c08:	a2 00 00 00 2c 10 09 00 	lui $9,4140
  408c10:	43 00 00 00 30 8c 09 09 	addiu $9,$9,-29648
  408c18:	43 00 00 00 14 00 07 00 	addiu $7,$0,20
  408c20:	43 00 00 00 84 00 06 19 	addiu $6,$25,132
  408c28:	43 00 00 00 01 00 02 07 	addiu $2,$7,1
  408c30:	55 00 00 00 03 02 02 00 	sll $2,$2,0x3
  408c38:	42 00 00 00 00 02 1d 02 	addu $2,$2,$29
  408c40:	2b 00 00 00 a8 ff 04 02 	l.d $f4,-88($2)
  408c48:	2b 00 00 00 00 81 16 1c 	l.d $f22,-32512($28)
  408c50:	75 00 00 00 00 04 16 04 	mul.d $f4,$f4,$f22
  408c58:	2b 00 00 00 d0 ff 06 02 	l.d $f6,-48($2)
  408c60:	2b 00 00 00 10 81 16 1c 	l.d $f22,-32496($28)
  408c68:	75 00 00 00 00 06 16 06 	mul.d $f6,$f6,$f22
  408c70:	2b 00 00 00 80 ff 02 02 	l.d $f2,-128($2)
  408c78:	2b 00 00 00 f8 ff 00 02 	l.d $f0,-8($2)
  408c80:	2b 00 00 00 00 81 16 1c 	l.d $f22,-32512($28)
  408c88:	73 00 00 00 00 02 04 02 	sub.d $f2,$f2,$f4
  408c90:	75 00 00 00 00 00 16 00 	mul.d $f0,$f0,$f22
  408c98:	71 00 00 00 00 02 06 02 	add.d $f2,$f2,$f6
  408ca0:	73 00 00 00 00 02 00 02 	sub.d $f2,$f2,$f0
  408ca8:	2b 00 00 00 20 00 00 02 	l.d $f0,32($2)
  408cb0:	55 00 00 00 05 02 06 00 	sll $2,$6,0x5
  408cb8:	71 00 00 00 00 02 00 02 	add.d $f2,$f2,$f0
  408cc0:	42 00 00 00 00 02 06 02 	addu $2,$2,$6
  408cc8:	42 00 00 00 00 02 18 02 	addu $2,$2,$24
  408cd0:	55 00 00 00 02 03 02 00 	sll $3,$2,0x2
  408cd8:	75 00 00 00 00 02 02 1e 	mul.d $f2,$f30,$f2
  408ce0:	42 00 00 00 00 04 02 03 	addu $4,$3,$2
  408ce8:	43 00 00 00 01 00 02 04 	addiu $2,$4,1
  408cf0:	55 00 00 00 03 02 02 00 	sll $2,$2,0x3
  408cf8:	42 00 00 00 00 02 09 02 	addu $2,$2,$9
  408d00:	2b 00 00 00 00 00 00 02 	l.d $f0,0($2)
  408d08:	73 00 00 00 00 00 02 00 	sub.d $f0,$f0,$f2
  408d10:	42 00 00 00 00 08 07 00 	addu $8,$0,$7
  408d18:	43 00 00 00 02 00 05 00 	addiu $5,$0,2
  408d20:	37 00 00 00 00 00 00 02 	s.d $f0,0($2)
  408d28:	42 00 00 00 00 02 05 08 	addu $2,$8,$5
  408d30:	55 00 00 00 03 02 02 00 	sll $2,$2,0x3
  408d38:	42 00 00 00 00 02 1d 02 	addu $2,$2,$29
  408d40:	2b 00 00 00 a8 ff 04 02 	l.d $f4,-88($2)
  408d48:	2b 00 00 00 00 81 16 1c 	l.d $f22,-32512($28)
  408d50:	75 00 00 00 00 04 16 04 	mul.d $f4,$f4,$f22
  408d58:	2b 00 00 00 d0 ff 06 02 	l.d $f6,-48($2)
  408d60:	2b 00 00 00 10 81 16 1c 	l.d $f22,-32496($28)
  408d68:	75 00 00 00 00 06 16 06 	mul.d $f6,$f6,$f22
  408d70:	2b 00 00 00 80 ff 02 02 	l.d $f2,-128($2)
  408d78:	2b 00 00 00 f8 ff 00 02 	l.d $f0,-8($2)
  408d80:	2b 00 00 00 00 81 16 1c 	l.d $f22,-32512($28)
  408d88:	73 00 00 00 00 02 04 02 	sub.d $f2,$f2,$f4
  408d90:	75 00 00 00 00 00 16 00 	mul.d $f0,$f0,$f22
  408d98:	71 00 00 00 00 02 06 02 	add.d $f2,$f2,$f6
  408da0:	73 00 00 00 00 02 00 02 	sub.d $f2,$f2,$f0
  408da8:	2b 00 00 00 20 00 00 02 	l.d $f0,32($2)
  408db0:	71 00 00 00 00 02 00 02 	add.d $f2,$f2,$f0
  408db8:	75 00 00 00 00 02 02 1e 	mul.d $f2,$f30,$f2
  408dc0:	42 00 00 00 00 02 05 04 	addu $2,$4,$5
  408dc8:	55 00 00 00 03 02 02 00 	sll $2,$2,0x3
  408dd0:	42 00 00 00 00 02 09 02 	addu $2,$2,$9
  408dd8:	2b 00 00 00 00 00 00 02 	l.d $f0,0($2)
  408de0:	73 00 00 00 00 00 02 00 	sub.d $f0,$f0,$f2
  408de8:	43 00 00 00 01 00 03 05 	addiu $3,$5,1
  408df0:	37 00 00 00 00 00 00 02 	s.d $f0,0($2)
  408df8:	42 00 00 00 00 02 03 08 	addu $2,$8,$3
  408e00:	55 00 00 00 03 02 02 00 	sll $2,$2,0x3
  408e08:	42 00 00 00 00 02 1d 02 	addu $2,$2,$29
  408e10:	2b 00 00 00 a8 ff 04 02 	l.d $f4,-88($2)
  408e18:	75 00 00 00 00 04 16 04 	mul.d $f4,$f4,$f22
  408e20:	2b 00 00 00 d0 ff 06 02 	l.d $f6,-48($2)
  408e28:	2b 00 00 00 10 81 16 1c 	l.d $f22,-32496($28)
  408e30:	75 00 00 00 00 06 16 06 	mul.d $f6,$f6,$f22
  408e38:	2b 00 00 00 80 ff 02 02 	l.d $f2,-128($2)
  408e40:	2b 00 00 00 f8 ff 00 02 	l.d $f0,-8($2)
  408e48:	2b 00 00 00 00 81 16 1c 	l.d $f22,-32512($28)
  408e50:	73 00 00 00 00 02 04 02 	sub.d $f2,$f2,$f4
  408e58:	75 00 00 00 00 00 16 00 	mul.d $f0,$f0,$f22
  408e60:	71 00 00 00 00 02 06 02 	add.d $f2,$f2,$f6
  408e68:	73 00 00 00 00 02 00 02 	sub.d $f2,$f2,$f0
  408e70:	2b 00 00 00 20 00 00 02 	l.d $f0,32($2)
  408e78:	71 00 00 00 00 02 00 02 	add.d $f2,$f2,$f0
  408e80:	75 00 00 00 00 02 02 1e 	mul.d $f2,$f30,$f2
  408e88:	42 00 00 00 00 03 03 04 	addu $3,$4,$3
  408e90:	55 00 00 00 03 03 03 00 	sll $3,$3,0x3
  408e98:	42 00 00 00 00 03 09 03 	addu $3,$3,$9
  408ea0:	2b 00 00 00 00 00 00 03 	l.d $f0,0($3)
  408ea8:	73 00 00 00 00 00 02 00 	sub.d $f0,$f0,$f2
  408eb0:	43 00 00 00 02 00 05 05 	addiu $5,$5,2
  408eb8:	5c 00 00 00 06 00 02 05 	slti $2,$5,6
  408ec0:	37 00 00 00 00 00 00 03 	s.d $f0,0($3)
  408ec8:	06 00 00 00 96 ff 00 02 	bne $2,$0,408d28 <erhs_+0x4d10>
  408ed0:	43 00 00 00 05 00 07 07 	addiu $7,$7,5
  408ed8:	43 00 00 00 21 00 06 06 	addiu $6,$6,33
  408ee0:	43 00 00 00 01 00 11 11 	addiu $17,$17,1
  408ee8:	5b 00 00 00 00 02 11 0f 	slt $2,$15,$17
  408ef0:	05 00 00 00 4c ff 00 02 	beq $2,$0,408c28 <erhs_+0x4c10>
  408ef8:	43 00 00 00 01 00 05 00 	addiu $5,$0,1
  408f00:	a2 00 00 00 42 10 03 00 	lui $3,4162
  408f08:	28 00 00 00 f8 2c 03 03 	lw $3,11512($3)
  408f10:	2b 00 00 00 00 81 16 1c 	l.d $f22,-32512($28)
  408f18:	55 00 00 00 02 02 03 00 	sll $2,$3,0x2
  408f20:	42 00 00 00 00 02 03 02 	addu $2,$2,$3
  408f28:	42 00 00 00 00 02 05 02 	addu $2,$2,$5
  408f30:	55 00 00 00 03 02 02 00 	sll $2,$2,0x3
  408f38:	42 00 00 00 00 02 1d 02 	addu $2,$2,$29
  408f40:	2b 00 00 00 58 ff 00 02 	l.d $f0,-168($2)
  408f48:	75 00 00 00 00 00 16 00 	mul.d $f0,$f0,$f22
  408f50:	2b 00 00 00 80 ff 04 02 	l.d $f4,-128($2)
  408f58:	2b 00 00 00 10 81 16 1c 	l.d $f22,-32496($28)
  408f60:	75 00 00 00 00 04 16 04 	mul.d $f4,$f4,$f22
  408f68:	2b 00 00 00 30 ff 02 02 	l.d $f2,-208($2)
  408f70:	2b 00 00 00 a8 ff 06 02 	l.d $f6,-88($2)
  408f78:	2b 00 00 00 00 81 16 1c 	l.d $f22,-32512($28)
  408f80:	73 00 00 00 00 02 00 02 	sub.d $f2,$f2,$f0
  408f88:	75 00 00 00 00 06 16 06 	mul.d $f6,$f6,$f22
  408f90:	a2 00 00 00 2a 10 12 00 	lui $18,4138
  408f98:	43 00 00 00 e0 37 12 12 	addiu $18,$18,14304
  408fa0:	55 00 00 00 05 02 03 00 	sll $2,$3,0x5
  408fa8:	71 00 00 00 00 02 04 02 	add.d $f2,$f2,$f4
  408fb0:	42 00 00 00 00 02 03 02 	addu $2,$2,$3
  408fb8:	42 00 00 00 00 02 19 02 	addu $2,$2,$25
  408fc0:	55 00 00 00 05 03 02 00 	sll $3,$2,0x5
  408fc8:	73 00 00 00 00 02 06 02 	sub.d $f2,$f2,$f6
  408fd0:	42 00 00 00 00 03 02 03 	addu $3,$3,$2
  408fd8:	42 00 00 00 00 03 18 03 	addu $3,$3,$24
  408fe0:	55 00 00 00 02 02 03 00 	sll $2,$3,0x2
  408fe8:	75 00 00 00 00 02 02 1e 	mul.d $f2,$f30,$f2
  408ff0:	42 00 00 00 00 02 03 02 	addu $2,$2,$3
  408ff8:	42 00 00 00 00 02 05 02 	addu $2,$2,$5
  409000:	55 00 00 00 03 02 02 00 	sll $2,$2,0x3
  409008:	42 00 00 00 00 02 12 02 	addu $2,$2,$18
  409010:	2b 00 00 00 00 00 00 02 	l.d $f0,0($2)
  409018:	73 00 00 00 00 00 02 00 	sub.d $f0,$f0,$f2
  409020:	37 00 00 00 00 00 00 02 	s.d $f0,0($2)
  409028:	a2 00 00 00 42 10 03 00 	lui $3,4162
  409030:	28 00 00 00 f8 2c 03 03 	lw $3,11512($3)
  409038:	55 00 00 00 02 02 03 00 	sll $2,$3,0x2
  409040:	42 00 00 00 00 02 03 02 	addu $2,$2,$3
  409048:	42 00 00 00 00 02 05 02 	addu $2,$2,$5
  409050:	55 00 00 00 03 02 02 00 	sll $2,$2,0x3
  409058:	42 00 00 00 00 02 1d 02 	addu $2,$2,$29
  409060:	2b 00 00 00 80 ff 00 02 	l.d $f0,-128($2)
  409068:	75 00 00 00 00 00 16 00 	mul.d $f0,$f0,$f22
  409070:	2b 00 00 00 a8 ff 04 02 	l.d $f4,-88($2)
  409078:	2b 00 00 00 f8 80 16 1c 	l.d $f22,-32520($28)
  409080:	2b 00 00 00 58 ff 02 02 	l.d $f2,-168($2)
  409088:	75 00 00 00 00 04 16 04 	mul.d $f4,$f4,$f22
  409090:	a2 00 00 00 2b 10 12 00 	lui $18,4139
  409098:	43 00 00 00 08 e2 12 12 	addiu $18,$18,-7672
  4090a0:	55 00 00 00 05 02 03 00 	sll $2,$3,0x5
  4090a8:	73 00 00 00 00 02 00 02 	sub.d $f2,$f2,$f0
  4090b0:	42 00 00 00 00 02 03 02 	addu $2,$2,$3
  4090b8:	42 00 00 00 00 02 19 02 	addu $2,$2,$25
  4090c0:	55 00 00 00 05 03 02 00 	sll $3,$2,0x5
  4090c8:	71 00 00 00 00 02 04 02 	add.d $f2,$f2,$f4
  4090d0:	42 00 00 00 00 03 02 03 	addu $3,$3,$2
  4090d8:	42 00 00 00 00 03 18 03 	addu $3,$3,$24
  4090e0:	55 00 00 00 02 02 03 00 	sll $2,$3,0x2
  4090e8:	75 00 00 00 00 02 02 1e 	mul.d $f2,$f30,$f2
  4090f0:	42 00 00 00 00 02 03 02 	addu $2,$2,$3
  4090f8:	42 00 00 00 00 02 05 02 	addu $2,$2,$5
  409100:	55 00 00 00 03 02 02 00 	sll $2,$2,0x3
  409108:	42 00 00 00 00 02 12 02 	addu $2,$2,$18
  409110:	2b 00 00 00 00 00 00 02 	l.d $f0,0($2)
  409118:	73 00 00 00 00 00 02 00 	sub.d $f0,$f0,$f2
  409120:	43 00 00 00 01 00 05 05 	addiu $5,$5,1
  409128:	37 00 00 00 00 00 00 02 	s.d $f0,0($2)
  409130:	5c 00 00 00 06 00 02 05 	slti $2,$5,6
  409138:	06 00 00 00 70 ff 00 02 	bne $2,$0,408f00 <erhs_+0x4ee8>
  409140:	43 00 00 00 01 00 18 18 	addiu $24,$24,1
  409148:	5b 00 00 00 00 02 18 1e 	slt $2,$30,$24
  409150:	05 00 00 00 f4 f9 00 02 	beq $2,$0,407928 <erhs_+0x3910>
  409158:	28 00 00 00 d0 0a 12 1d 	lw $18,2768($29)
  409160:	43 00 00 00 21 00 12 12 	addiu $18,$18,33
  409168:	34 00 00 00 d0 0a 12 1d 	sw $18,2768($29)
  409170:	28 00 00 00 50 0a 12 1d 	lw $18,2640($29)
  409178:	43 00 00 00 01 00 19 19 	addiu $25,$25,1
  409180:	5b 00 00 00 00 02 19 12 	slt $2,$18,$25
  409188:	05 00 00 00 b8 f9 00 02 	beq $2,$0,407870 <erhs_+0x3858>
  409190:	42 00 00 00 00 02 00 00 	addu $2,$0,$0
  409198:	28 00 00 00 30 0b 1e 1d 	lw $30,2864($29)
  4091a0:	28 00 00 00 2c 0b 17 1d 	lw $23,2860($29)
  4091a8:	28 00 00 00 28 0b 16 1d 	lw $22,2856($29)
  4091b0:	28 00 00 00 24 0b 15 1d 	lw $21,2852($29)
  4091b8:	28 00 00 00 20 0b 14 1d 	lw $20,2848($29)
  4091c0:	28 00 00 00 1c 0b 13 1d 	lw $19,2844($29)
  4091c8:	28 00 00 00 18 0b 12 1d 	lw $18,2840($29)
  4091d0:	28 00 00 00 14 0b 11 1d 	lw $17,2836($29)
  4091d8:	28 00 00 00 10 0b 10 1d 	lw $16,2832($29)
  4091e0:	2b 00 00 00 60 0b 1e 1d 	l.d $f30,2912($29)
  4091e8:	2b 00 00 00 58 0b 1c 1d 	l.d $f28,2904($29)
  4091f0:	2b 00 00 00 50 0b 1a 1d 	l.d $f26,2896($29)
  4091f8:	2b 00 00 00 48 0b 18 1d 	l.d $f24,2888($29)
  409200:	2b 00 00 00 40 0b 16 1d 	l.d $f22,2880($29)
  409208:	2b 00 00 00 38 0b 14 1d 	l.d $f20,2872($29)
  409210:	43 00 00 00 68 0b 1d 1d 	addiu $29,$29,2920
  409218:	03 00 00 00 00 00 00 1f 	jr $31

00409220 <exact_>:
  409220:	43 00 00 00 d8 ff 1d 1d 	addiu $29,$29,-40
  409228:	37 00 00 00 20 00 1c 1d 	s.d $f28,32($29)
  409230:	37 00 00 00 18 00 1a 1d 	s.d $f26,24($29)
  409238:	37 00 00 00 10 00 18 1d 	s.d $f24,16($29)
  409240:	37 00 00 00 08 00 16 1d 	s.d $f22,8($29)
  409248:	37 00 00 00 00 00 14 1d 	s.d $f20,0($29)
  409250:	28 00 00 00 00 00 02 04 	lw $2,0($4)
  409258:	a2 00 00 00 42 10 03 00 	lui $3,4162
  409260:	28 00 00 00 f0 2c 03 03 	lw $3,11504($3)
  409268:	43 00 00 00 ff ff 02 02 	addiu $2,$2,-1
  409270:	a5 00 00 00 00 00 02 02 	mtc1 $2,$f2
  409278:	83 00 00 00 00 02 00 02 	cvt.d.w $f2,$f2
  409280:	43 00 00 00 ff ff 03 03 	addiu $3,$3,-1
  409288:	a5 00 00 00 00 00 03 00 	mtc1 $3,$f0
  409290:	83 00 00 00 00 00 00 00 	cvt.d.w $f0,$f0
  409298:	77 00 00 00 00 1c 00 02 	div.d $f28,$f2,$f0
  4092a0:	28 00 00 00 00 00 02 05 	lw $2,0($5)
  4092a8:	a2 00 00 00 42 10 03 00 	lui $3,4162
  4092b0:	28 00 00 00 f4 2c 03 03 	lw $3,11508($3)
  4092b8:	43 00 00 00 ff ff 02 02 	addiu $2,$2,-1
  4092c0:	43 00 00 00 ff ff 03 03 	addiu $3,$3,-1
  4092c8:	a5 00 00 00 00 00 02 02 	mtc1 $2,$f2
  4092d0:	83 00 00 00 00 02 00 02 	cvt.d.w $f2,$f2
  4092d8:	a5 00 00 00 00 00 03 00 	mtc1 $3,$f0
  4092e0:	83 00 00 00 00 00 00 00 	cvt.d.w $f0,$f0
  4092e8:	77 00 00 00 00 1a 00 02 	div.d $f26,$f2,$f0
  4092f0:	a2 00 00 00 42 10 04 00 	lui $4,4162
  4092f8:	43 00 00 00 d8 2a 04 04 	addiu $4,$4,10968
  409300:	43 00 00 00 e8 01 19 04 	addiu $25,$4,488
  409308:	43 00 00 00 70 01 18 04 	addiu $24,$4,368
  409310:	43 00 00 00 48 01 0f 04 	addiu $15,$4,328
  409318:	43 00 00 00 20 01 0e 04 	addiu $14,$4,288
  409320:	43 00 00 00 f8 00 0d 04 	addiu $13,$4,248
  409328:	43 00 00 00 d0 00 0c 04 	addiu $12,$4,208
  409330:	43 00 00 00 a8 00 0b 04 	addiu $11,$4,168
  409338:	43 00 00 00 80 00 0a 04 	addiu $10,$4,128
  409340:	43 00 00 00 58 00 09 04 	addiu $9,$4,88
  409348:	43 00 00 00 08 00 08 04 	addiu $8,$4,8
  409350:	28 00 00 00 00 00 02 06 	lw $2,0($6)
  409358:	43 00 00 00 01 00 05 00 	addiu $5,$0,1
  409360:	a2 00 00 00 42 10 03 00 	lui $3,4162
  409368:	28 00 00 00 f8 2c 03 03 	lw $3,11512($3)
  409370:	43 00 00 00 30 00 06 04 	addiu $6,$4,48
  409378:	43 00 00 00 ff ff 02 02 	addiu $2,$2,-1
  409380:	43 00 00 00 ff ff 03 03 	addiu $3,$3,-1
  409388:	a5 00 00 00 00 00 02 02 	mtc1 $2,$f2
  409390:	83 00 00 00 00 02 00 02 	cvt.d.w $f2,$f2
  409398:	a5 00 00 00 00 00 03 00 	mtc1 $3,$f0
  4093a0:	83 00 00 00 00 00 00 00 	cvt.d.w $f0,$f0
  4093a8:	77 00 00 00 00 18 00 02 	div.d $f24,$f2,$f0
  4093b0:	2b 00 00 00 00 00 16 06 	l.d $f22,0($6)
  4093b8:	75 00 00 00 00 16 1c 16 	mul.d $f22,$f22,$f28
  4093c0:	2b 00 00 00 00 00 14 09 	l.d $f20,0($9)
  4093c8:	75 00 00 00 00 14 1a 14 	mul.d $f20,$f20,$f26
  4093d0:	2b 00 00 00 00 00 12 0b 	l.d $f18,0($11)
  4093d8:	75 00 00 00 00 12 1c 12 	mul.d $f18,$f18,$f28
  4093e0:	2b 00 00 00 00 00 02 0a 	l.d $f2,0($10)
  4093e8:	75 00 00 00 00 02 18 02 	mul.d $f2,$f2,$f24
  4093f0:	2b 00 00 00 00 00 10 0c 	l.d $f16,0($12)
  4093f8:	75 00 00 00 00 10 1a 10 	mul.d $f16,$f16,$f26
  409400:	2b 00 00 00 00 00 0e 0d 	l.d $f14,0($13)
  409408:	75 00 00 00 00 0e 18 0e 	mul.d $f14,$f14,$f24
  409410:	2b 00 00 00 00 00 0c 0e 	l.d $f12,0($14)
  409418:	75 00 00 00 00 0c 1c 0c 	mul.d $f12,$f12,$f28
  409420:	2b 00 00 00 00 00 0a 0f 	l.d $f10,0($15)
  409428:	75 00 00 00 00 0a 1a 0a 	mul.d $f10,$f10,$f26
  409430:	2b 00 00 00 00 00 08 18 	l.d $f8,0($24)
  409438:	75 00 00 00 00 08 18 08 	mul.d $f8,$f8,$f24
  409440:	55 00 00 00 03 03 05 00 	sll $3,$5,0x3
  409448:	42 00 00 00 00 02 03 04 	addu $2,$4,$3
  409450:	2b 00 00 00 90 01 06 02 	l.d $f6,400($2)
  409458:	75 00 00 00 00 06 1c 06 	mul.d $f6,$f6,$f28
  409460:	42 00 00 00 00 03 03 04 	addu $3,$4,$3
  409468:	2b 00 00 00 b8 01 04 03 	l.d $f4,440($3)
  409470:	75 00 00 00 00 04 1a 04 	mul.d $f4,$f4,$f26
  409478:	75 00 00 00 00 12 1c 12 	mul.d $f18,$f18,$f28
  409480:	75 00 00 00 00 10 1a 10 	mul.d $f16,$f16,$f26
  409488:	75 00 00 00 00 0e 18 0e 	mul.d $f14,$f14,$f24
  409490:	75 00 00 00 00 0c 1c 0c 	mul.d $f12,$f12,$f28
  409498:	75 00 00 00 00 0a 1a 0a 	mul.d $f10,$f10,$f26
  4094a0:	75 00 00 00 00 08 18 08 	mul.d $f8,$f8,$f24
  4094a8:	75 00 00 00 00 06 1c 06 	mul.d $f6,$f6,$f28
  4094b0:	75 00 00 00 00 04 1a 04 	mul.d $f4,$f4,$f26
  4094b8:	75 00 00 00 00 0c 1c 0c 	mul.d $f12,$f12,$f28
  4094c0:	75 00 00 00 00 0a 1a 0a 	mul.d $f10,$f10,$f26
  4094c8:	75 00 00 00 00 08 18 08 	mul.d $f8,$f8,$f24
  4094d0:	2b 00 00 00 00 00 00 08 	l.d $f0,0($8)
  4094d8:	75 00 00 00 00 06 1c 06 	mul.d $f6,$f6,$f28
  4094e0:	71 00 00 00 00 00 16 00 	add.d $f0,$f0,$f22
  4094e8:	71 00 00 00 00 00 14 00 	add.d $f0,$f0,$f20
  4094f0:	75 00 00 00 00 04 1a 04 	mul.d $f4,$f4,$f26
  4094f8:	71 00 00 00 00 00 02 00 	add.d $f0,$f0,$f2
  409500:	2b 00 00 00 00 00 02 19 	l.d $f2,0($25)
  409508:	75 00 00 00 00 02 18 02 	mul.d $f2,$f2,$f24
  409510:	75 00 00 00 00 06 1c 06 	mul.d $f6,$f6,$f28
  409518:	71 00 00 00 00 00 12 00 	add.d $f0,$f0,$f18
  409520:	75 00 00 00 00 04 1a 04 	mul.d $f4,$f4,$f26
  409528:	71 00 00 00 00 00 10 00 	add.d $f0,$f0,$f16
  409530:	71 00 00 00 00 00 0e 00 	add.d $f0,$f0,$f14
  409538:	75 00 00 00 00 02 18 02 	mul.d $f2,$f2,$f24
  409540:	71 00 00 00 00 00 0c 00 	add.d $f0,$f0,$f12
  409548:	71 00 00 00 00 00 0a 00 	add.d $f0,$f0,$f10
  409550:	75 00 00 00 00 02 18 02 	mul.d $f2,$f2,$f24
  409558:	43 00 00 00 01 00 05 05 	addiu $5,$5,1
  409560:	71 00 00 00 00 00 08 00 	add.d $f0,$f0,$f8
  409568:	43 00 00 00 08 00 18 18 	addiu $24,$24,8
  409570:	43 00 00 00 08 00 0f 0f 	addiu $15,$15,8
  409578:	43 00 00 00 08 00 0e 0e 	addiu $14,$14,8
  409580:	71 00 00 00 00 00 06 00 	add.d $f0,$f0,$f6
  409588:	75 00 00 00 00 02 18 02 	mul.d $f2,$f2,$f24
  409590:	43 00 00 00 08 00 0d 0d 	addiu $13,$13,8
  409598:	43 00 00 00 08 00 0c 0c 	addiu $12,$12,8
  4095a0:	43 00 00 00 08 00 0b 0b 	addiu $11,$11,8
  4095a8:	71 00 00 00 00 00 04 00 	add.d $f0,$f0,$f4
  4095b0:	43 00 00 00 08 00 0a 0a 	addiu $10,$10,8
  4095b8:	43 00 00 00 08 00 09 09 	addiu $9,$9,8
  4095c0:	43 00 00 00 08 00 08 08 	addiu $8,$8,8
  4095c8:	71 00 00 00 00 00 02 00 	add.d $f0,$f0,$f2
  4095d0:	43 00 00 00 08 00 06 06 	addiu $6,$6,8
  4095d8:	5c 00 00 00 06 00 02 05 	slti $2,$5,6
  4095e0:	43 00 00 00 08 00 19 19 	addiu $25,$25,8
  4095e8:	37 00 00 00 00 00 00 07 	s.d $f0,0($7)
  4095f0:	43 00 00 00 08 00 07 07 	addiu $7,$7,8
  4095f8:	06 00 00 00 6c ff 00 02 	bne $2,$0,4093b0 <exact_+0x190>
  409600:	42 00 00 00 00 02 00 00 	addu $2,$0,$0
  409608:	2b 00 00 00 20 00 1c 1d 	l.d $f28,32($29)
  409610:	2b 00 00 00 18 00 1a 1d 	l.d $f26,24($29)
  409618:	2b 00 00 00 10 00 18 1d 	l.d $f24,16($29)
  409620:	2b 00 00 00 08 00 16 1d 	l.d $f22,8($29)
  409628:	2b 00 00 00 00 00 14 1d 	l.d $f20,0($29)
  409630:	43 00 00 00 28 00 1d 1d 	addiu $29,$29,40
  409638:	03 00 00 00 00 00 00 1f 	jr $31

00409640 <error_>:
  409640:	43 00 00 00 20 ff 1d 1d 	addiu $29,$29,-224
  409648:	34 00 00 00 d8 00 1f 1d 	sw $31,216($29)
  409650:	34 00 00 00 d4 00 17 1d 	sw $23,212($29)
  409658:	34 00 00 00 d0 00 16 1d 	sw $22,208($29)
  409660:	34 00 00 00 cc 00 15 1d 	sw $21,204($29)
  409668:	34 00 00 00 c8 00 14 1d 	sw $20,200($29)
  409670:	34 00 00 00 c4 00 13 1d 	sw $19,196($29)
  409678:	34 00 00 00 c0 00 12 1d 	sw $18,192($29)
  409680:	34 00 00 00 bc 00 11 1d 	sw $17,188($29)
  409688:	34 00 00 00 b8 00 10 1d 	sw $16,184($29)
  409690:	a2 00 00 00 f9 11 04 00 	lui $4,4601
  409698:	43 00 00 00 00 dd 04 04 	addiu $4,$4,-8960
  4096a0:	38 00 00 00 08 00 00 04 	dsz 8($4)
  4096a8:	38 00 00 00 10 00 00 04 	dsz 16($4)
  4096b0:	38 00 00 00 18 00 00 04 	dsz 24($4)
  4096b8:	38 00 00 00 20 00 00 04 	dsz 32($4)
  4096c0:	38 00 00 00 28 00 00 04 	dsz 40($4)
  4096c8:	a2 00 00 00 42 10 02 00 	lui $2,4162
  4096d0:	28 00 00 00 f8 2c 02 02 	lw $2,11512($2)
  4096d8:	43 00 00 00 02 00 03 00 	addiu $3,$0,2
  4096e0:	43 00 00 00 ff ff 16 02 	addiu $22,$2,-1
  4096e8:	5c 00 00 00 02 00 02 16 	slti $2,$22,2
  4096f0:	34 00 00 00 b0 00 03 1d 	sw $3,176($29)
  4096f8:	06 00 00 00 b4 00 00 02 	bne $2,$0,4099d0 <error_+0x390>
  409700:	43 00 00 00 02 00 17 00 	addiu $23,$0,2
  409708:	43 00 00 00 50 00 12 1d 	addiu $18,$29,80
  409710:	a2 00 00 00 00 10 13 00 	lui $19,4096
  409718:	43 00 00 00 e0 ad 13 13 	addiu $19,$19,-21024
  409720:	42 00 00 00 00 14 04 00 	addu $20,$0,$4
  409728:	a2 00 00 00 42 10 02 00 	lui $2,4162
  409730:	28 00 00 00 f4 2c 02 02 	lw $2,11508($2)
  409738:	34 00 00 00 ac 00 17 1d 	sw $23,172($29)
  409740:	43 00 00 00 ff ff 15 02 	addiu $21,$2,-1
  409748:	5c 00 00 00 02 00 02 15 	slti $2,$21,2
  409750:	06 00 00 00 94 00 00 02 	bne $2,$0,4099a8 <error_+0x368>
  409758:	a2 00 00 00 42 10 02 00 	lui $2,4162
  409760:	28 00 00 00 f0 2c 02 02 	lw $2,11504($2)
  409768:	34 00 00 00 a8 00 17 1d 	sw $23,168($29)
  409770:	43 00 00 00 ff ff 11 02 	addiu $17,$2,-1
  409778:	5c 00 00 00 02 00 02 11 	slti $2,$17,2
  409780:	06 00 00 00 7e 00 00 02 	bne $2,$0,409980 <error_+0x340>
  409788:	43 00 00 00 a8 00 04 1d 	addiu $4,$29,168
  409790:	43 00 00 00 ac 00 05 1d 	addiu $5,$29,172
  409798:	43 00 00 00 b0 00 06 1d 	addiu $6,$29,176
  4097a0:	43 00 00 00 58 00 07 1d 	addiu $7,$29,88
  4097a8:	02 00 00 00 88 24 10 00 	jal 409220 <exact_>
  4097b0:	28 00 00 00 b0 00 02 1d 	lw $2,176($29)
  4097b8:	28 00 00 00 ac 00 04 1d 	lw $4,172($29)
  4097c0:	2b 00 00 00 08 00 02 12 	l.d $f2,8($18)
  4097c8:	55 00 00 00 05 03 02 00 	sll $3,$2,0x5
  4097d0:	42 00 00 00 00 03 02 03 	addu $3,$3,$2
  4097d8:	42 00 00 00 00 03 04 03 	addu $3,$3,$4
  4097e0:	28 00 00 00 a8 00 04 1d 	lw $4,168($29)
  4097e8:	55 00 00 00 05 02 03 00 	sll $2,$3,0x5
  4097f0:	42 00 00 00 00 02 03 02 	addu $2,$2,$3
  4097f8:	42 00 00 00 00 02 04 02 	addu $2,$2,$4
  409800:	55 00 00 00 02 03 02 00 	sll $3,$2,0x2
  409808:	42 00 00 00 00 03 02 03 	addu $3,$3,$2
  409810:	43 00 00 00 01 00 02 03 	addiu $2,$3,1
  409818:	55 00 00 00 03 02 02 00 	sll $2,$2,0x3
  409820:	42 00 00 00 00 02 13 02 	addu $2,$2,$19
  409828:	2b 00 00 00 00 00 00 02 	l.d $f0,0($2)
  409830:	73 00 00 00 00 02 00 02 	sub.d $f2,$f2,$f0
  409838:	75 00 00 00 00 02 02 02 	mul.d $f2,$f2,$f2
  409840:	2b 00 00 00 08 00 00 14 	l.d $f0,8($20)
  409848:	43 00 00 00 02 00 10 00 	addiu $16,$0,2
  409850:	43 00 00 00 10 00 05 12 	addiu $5,$18,16
  409858:	71 00 00 00 00 00 02 00 	add.d $f0,$f0,$f2
  409860:	43 00 00 00 10 00 02 14 	addiu $2,$20,16
  409868:	42 00 00 00 00 04 02 00 	addu $4,$0,$2
  409870:	42 00 00 00 00 06 04 00 	addu $6,$0,$4
  409878:	37 00 00 00 08 00 00 14 	s.d $f0,8($20)
  409880:	42 00 00 00 00 02 10 03 	addu $2,$3,$16
  409888:	55 00 00 00 03 02 02 00 	sll $2,$2,0x3
  409890:	42 00 00 00 00 02 13 02 	addu $2,$2,$19
  409898:	2b 00 00 00 00 00 02 05 	l.d $f2,0($5)
  4098a0:	2b 00 00 00 00 00 00 02 	l.d $f0,0($2)
  4098a8:	73 00 00 00 00 02 00 02 	sub.d $f2,$f2,$f0
  4098b0:	75 00 00 00 00 02 02 02 	mul.d $f2,$f2,$f2
  4098b8:	2b 00 00 00 00 00 00 06 	l.d $f0,0($6)
  4098c0:	43 00 00 00 01 00 02 10 	addiu $2,$16,1
  4098c8:	71 00 00 00 00 00 02 00 	add.d $f0,$f0,$f2
  4098d0:	42 00 00 00 00 02 02 03 	addu $2,$3,$2
  4098d8:	55 00 00 00 03 02 02 00 	sll $2,$2,0x3
  4098e0:	42 00 00 00 00 02 13 02 	addu $2,$2,$19
  4098e8:	37 00 00 00 00 00 00 04 	s.d $f0,0($4)
  4098f0:	2b 00 00 00 08 00 02 05 	l.d $f2,8($5)
  4098f8:	2b 00 00 00 00 00 00 02 	l.d $f0,0($2)
