
/export/capc5/SPEC_TRACE/SimpleScalar/bin/mgrid.ss:     file format ss-coff-little

Disassembly of section .text:

00400140 <__start>:
  400140:	28 00 00 00 00 00 10 1d 	lw $16,0($29)
  400148:	a2 00 00 00 01 10 1c 00 	lui $28,4097
  400150:	43 00 00 00 e0 b3 1c 1c 	addiu $28,$28,-19488
  400158:	43 00 00 00 04 00 11 1d 	addiu $17,$29,4
  400160:	43 00 00 00 04 00 03 11 	addiu $3,$17,4
  400168:	55 00 00 00 02 02 10 00 	sll $2,$16,0x2
  400170:	42 00 00 00 00 03 02 03 	addu $3,$3,$2
  400178:	42 00 00 00 00 12 03 00 	addu $18,$0,$3
  400180:	34 00 00 00 04 87 12 1c 	sw $18,-30972($28)
  400188:	43 00 00 00 e8 ff 1d 1d 	addiu $29,$29,-24
  400190:	42 00 00 00 00 04 10 00 	addu $4,$0,$16
  400198:	42 00 00 00 00 05 11 00 	addu $5,$0,$17
  4001a0:	42 00 00 00 00 06 12 00 	addu $6,$0,$18
  4001a8:	02 00 00 00 fc 1a 10 00 	jal 406bf0 <__libc_init>
  4001b0:	34 00 00 00 00 87 00 1c 	sw $0,-30976($28)
  4001b8:	42 00 00 00 00 04 10 00 	addu $4,$0,$16
  4001c0:	42 00 00 00 00 05 11 00 	addu $5,$0,$17
  4001c8:	42 00 00 00 00 06 12 00 	addu $6,$0,$18
  4001d0:	02 00 00 00 08 1b 10 00 	jal 406c20 <main>
  4001d8:	42 00 00 00 00 04 02 00 	addu $4,$0,$2
  4001e0:	02 00 00 00 e0 1b 10 00 	jal 406f80 <exit>
	...

004001f0 <MAIN__>:
  4001f0:	2b 00 00 00 28 80 00 1c 	l.d $f0,-32728($28)
  4001f8:	2b 00 00 00 30 80 02 1c 	l.d $f2,-32720($28)
  400200:	2b 00 00 00 38 80 04 1c 	l.d $f4,-32712($28)
  400208:	2b 00 00 00 40 80 06 1c 	l.d $f6,-32704($28)
  400210:	2b 00 00 00 48 80 08 1c 	l.d $f8,-32696($28)
  400218:	2b 00 00 00 50 80 0a 1c 	l.d $f10,-32688($28)
  400220:	43 00 00 00 40 ff 1d 1d 	addiu $29,$29,-192
  400228:	a2 00 00 00 00 10 04 00 	lui $4,4096
  400230:	43 00 00 00 fc 24 04 04 	addiu $4,$4,9468
  400238:	34 00 00 00 a4 00 13 1d 	sw $19,164($29)
  400240:	a2 00 00 00 75 10 13 00 	lui $19,4213
  400248:	43 00 00 00 50 e5 13 13 	addiu $19,$19,-6832
  400250:	34 00 00 00 bc 00 1f 1d 	sw $31,188($29)
  400258:	34 00 00 00 b8 00 1e 1d 	sw $30,184($29)
  400260:	34 00 00 00 b4 00 17 1d 	sw $23,180($29)
  400268:	34 00 00 00 b0 00 16 1d 	sw $22,176($29)
  400270:	34 00 00 00 ac 00 15 1d 	sw $21,172($29)
  400278:	34 00 00 00 a8 00 14 1d 	sw $20,168($29)
  400280:	34 00 00 00 a0 00 12 1d 	sw $18,160($29)
  400288:	34 00 00 00 9c 00 11 1d 	sw $17,156($29)
  400290:	34 00 00 00 98 00 10 1d 	sw $16,152($29)
  400298:	a2 00 00 00 75 10 01 00 	lui $1,4213
  4002a0:	38 00 00 00 58 e5 00 01 	dsz -6824($1)
  4002a8:	a2 00 00 00 75 10 01 00 	lui $1,4213
  4002b0:	38 00 00 00 88 e5 00 01 	dsz -6776($1)
  4002b8:	37 00 00 00 00 00 00 13 	s.d $f0,0($19)
  4002c0:	a2 00 00 00 75 10 01 00 	lui $1,4213
  4002c8:	37 00 00 00 60 e5 02 01 	s.d $f2,-6816($1)
  4002d0:	a2 00 00 00 75 10 01 00 	lui $1,4213
  4002d8:	37 00 00 00 68 e5 04 01 	s.d $f4,-6808($1)
  4002e0:	a2 00 00 00 75 10 01 00 	lui $1,4213
  4002e8:	37 00 00 00 70 e5 06 01 	s.d $f6,-6800($1)
  4002f0:	a2 00 00 00 75 10 01 00 	lui $1,4213
  4002f8:	37 00 00 00 78 e5 08 01 	s.d $f8,-6792($1)
  400300:	a2 00 00 00 75 10 01 00 	lui $1,4213
  400308:	37 00 00 00 80 e5 0a 01 	s.d $f10,-6784($1)
  400310:	02 00 00 00 82 25 10 00 	jal 409608 <s_rsle>
  400318:	43 00 00 00 00 80 04 1c 	addiu $4,$28,-32768
  400320:	43 00 00 00 04 80 05 1c 	addiu $5,$28,-32764
  400328:	43 00 00 00 48 00 10 1d 	addiu $16,$29,72
  400330:	42 00 00 00 00 06 10 00 	addu $6,$0,$16
  400338:	43 00 00 00 04 00 07 00 	addiu $7,$0,4
  400340:	02 00 00 00 54 26 10 00 	jal 409950 <do_lio>
  400348:	02 00 00 00 88 1c 10 00 	jal 407220 <e_rsle>
  400350:	a2 00 00 00 00 10 04 00 	lui $4,4096
  400358:	43 00 00 00 10 25 04 04 	addiu $4,$4,9488
  400360:	02 00 00 00 82 25 10 00 	jal 409608 <s_rsle>
  400368:	43 00 00 00 00 80 04 1c 	addiu $4,$28,-32768
  400370:	43 00 00 00 04 80 05 1c 	addiu $5,$28,-32764
  400378:	43 00 00 00 4c 00 11 1d 	addiu $17,$29,76
  400380:	42 00 00 00 00 06 11 00 	addu $6,$0,$17
  400388:	43 00 00 00 04 00 07 00 	addiu $7,$0,4
  400390:	02 00 00 00 54 26 10 00 	jal 409950 <do_lio>
  400398:	02 00 00 00 88 1c 10 00 	jal 407220 <e_rsle>
  4003a0:	a2 00 00 00 00 10 04 00 	lui $4,4096
  4003a8:	43 00 00 00 24 25 04 04 	addiu $4,$4,9508
  4003b0:	02 00 00 00 82 25 10 00 	jal 409608 <s_rsle>
  4003b8:	43 00 00 00 00 80 04 1c 	addiu $4,$28,-32768
  4003c0:	43 00 00 00 04 80 05 1c 	addiu $5,$28,-32764
  4003c8:	43 00 00 00 50 00 06 1d 	addiu $6,$29,80
  4003d0:	43 00 00 00 04 00 07 00 	addiu $7,$0,4
  4003d8:	02 00 00 00 54 26 10 00 	jal 409950 <do_lio>
  4003e0:	02 00 00 00 88 1c 10 00 	jal 407220 <e_rsle>
  4003e8:	43 00 00 00 08 80 04 1c 	addiu $4,$28,-32760
  4003f0:	42 00 00 00 00 05 10 00 	addu $5,$0,$16
  4003f8:	02 00 00 00 6c 26 10 00 	jal 4099b0 <pow_ii>
  400400:	a2 00 00 00 00 10 04 00 	lui $4,4096
  400408:	43 00 00 00 38 25 04 04 	addiu $4,$4,9528
  400410:	43 00 00 00 02 00 02 02 	addiu $2,$2,2
  400418:	34 00 00 00 60 00 02 1d 	sw $2,96($29)
  400420:	02 00 00 00 50 27 10 00 	jal 409d40 <s_wsfe>
  400428:	43 00 00 00 04 80 04 1c 	addiu $4,$28,-32764
  400430:	28 00 00 00 60 00 02 1d 	lw $2,96($29)
  400438:	43 00 00 00 54 00 05 1d 	addiu $5,$29,84
  400440:	43 00 00 00 04 00 06 00 	addiu $6,$0,4
  400448:	43 00 00 00 fe ff 02 02 	addiu $2,$2,-2
  400450:	34 00 00 00 54 00 02 1d 	sw $2,84($29)
  400458:	02 00 00 00 ec 33 10 00 	jal 40cfb0 <do_fio>
  400460:	43 00 00 00 04 80 04 1c 	addiu $4,$28,-32764
  400468:	28 00 00 00 60 00 02 1d 	lw $2,96($29)
  400470:	43 00 00 00 58 00 05 1d 	addiu $5,$29,88
  400478:	43 00 00 00 04 00 06 00 	addiu $6,$0,4
  400480:	43 00 00 00 fe ff 02 02 	addiu $2,$2,-2
  400488:	34 00 00 00 58 00 02 1d 	sw $2,88($29)
  400490:	02 00 00 00 ec 33 10 00 	jal 40cfb0 <do_fio>
  400498:	43 00 00 00 04 80 04 1c 	addiu $4,$28,-32764
  4004a0:	28 00 00 00 60 00 02 1d 	lw $2,96($29)
  4004a8:	43 00 00 00 5c 00 05 1d 	addiu $5,$29,92
  4004b0:	43 00 00 00 04 00 06 00 	addiu $6,$0,4
  4004b8:	43 00 00 00 fe ff 02 02 	addiu $2,$2,-2
  4004c0:	34 00 00 00 5c 00 02 1d 	sw $2,92($29)
  4004c8:	02 00 00 00 ec 33 10 00 	jal 40cfb0 <do_fio>
  4004d0:	43 00 00 00 04 80 04 1c 	addiu $4,$28,-32764
  4004d8:	42 00 00 00 00 05 11 00 	addu $5,$0,$17
  4004e0:	43 00 00 00 04 00 06 00 	addiu $6,$0,4
  4004e8:	02 00 00 00 ec 33 10 00 	jal 40cfb0 <do_fio>
  4004f0:	02 00 00 00 62 36 10 00 	jal 40d988 <e_wsfe>
  4004f8:	42 00 00 00 00 04 10 00 	addu $4,$0,$16
  400500:	43 00 00 00 40 00 05 13 	addiu $5,$19,64
  400508:	43 00 00 00 58 00 06 13 	addiu $6,$19,88
  400510:	02 00 00 00 54 15 10 00 	jal 405550 <setup_>
  400518:	2b 00 00 00 58 80 00 1c 	l.d $f0,-32680($28)
  400520:	28 00 00 00 50 00 02 1d 	lw $2,80($29)
  400528:	43 00 00 00 01 00 03 00 	addiu $3,$0,1
  400530:	34 00 00 00 90 00 03 1d 	sw $3,144($29)
  400538:	37 00 00 00 68 00 00 1d 	s.d $f0,104($29)
  400540:	34 00 00 00 54 00 02 1d 	sw $2,84($29)
  400548:	07 00 00 00 2a 01 00 02 	blez $2,4009f8 <MAIN__+0x808>
  400550:	a2 00 00 00 00 10 16 00 	lui $22,4096
  400558:	43 00 00 00 90 45 16 16 	addiu $22,$22,17808
  400560:	43 00 00 00 60 00 12 1d 	addiu $18,$29,96
  400568:	a2 00 00 00 29 10 15 00 	lui $21,4137
  400570:	43 00 00 00 50 09 15 15 	addiu $21,$21,2384
  400578:	a2 00 00 00 4c 10 14 00 	lui $20,4172
  400580:	43 00 00 00 90 21 14 14 	addiu $20,$20,8592
  400588:	43 00 00 00 70 00 1e 1d 	addiu $30,$29,112
  400590:	43 00 00 00 78 00 17 1d 	addiu $23,$29,120
  400598:	42 00 00 00 00 04 16 00 	addu $4,$0,$22
  4005a0:	42 00 00 00 00 05 12 00 	addu $5,$0,$18
  4005a8:	42 00 00 00 00 06 12 00 	addu $6,$0,$18
  4005b0:	42 00 00 00 00 07 12 00 	addu $7,$0,$18
  4005b8:	02 00 00 00 b8 16 10 00 	jal 405ae0 <zero3_>
  4005c0:	43 00 00 00 68 00 04 1d 	addiu $4,$29,104
  4005c8:	42 00 00 00 00 05 15 00 	addu $5,$0,$21
  4005d0:	42 00 00 00 00 06 12 00 	addu $6,$0,$18
  4005d8:	42 00 00 00 00 07 12 00 	addu $7,$0,$18
  4005e0:	34 00 00 00 10 00 12 1d 	sw $18,16($29)
  4005e8:	02 00 00 00 6a 17 10 00 	jal 405da8 <zran3_>
  4005f0:	42 00 00 00 00 04 16 00 	addu $4,$0,$22
  4005f8:	42 00 00 00 00 05 15 00 	addu $5,$0,$21
  400600:	42 00 00 00 00 06 14 00 	addu $6,$0,$20
  400608:	42 00 00 00 00 07 12 00 	addu $7,$0,$18
  400610:	a2 00 00 00 75 10 03 00 	lui $3,4213
  400618:	43 00 00 00 50 e5 03 03 	addiu $3,$3,-6832
  400620:	34 00 00 00 10 00 03 1d 	sw $3,16($29)
  400628:	02 00 00 00 de 06 10 00 	jal 401b78 <resid_>
  400630:	42 00 00 00 00 04 14 00 	addu $4,$0,$20
  400638:	42 00 00 00 00 05 12 00 	addu $5,$0,$18
  400640:	42 00 00 00 00 06 12 00 	addu $6,$0,$18
  400648:	42 00 00 00 00 07 12 00 	addu $7,$0,$18
  400650:	34 00 00 00 10 00 1e 1d 	sw $30,16($29)
  400658:	34 00 00 00 14 00 17 1d 	sw $23,20($29)
  400660:	34 00 00 00 18 00 12 1d 	sw $18,24($29)
  400668:	34 00 00 00 1c 00 12 1d 	sw $18,28($29)
  400670:	34 00 00 00 20 00 12 1d 	sw $18,32($29)
  400678:	02 00 00 00 ca 13 10 00 	jal 404f28 <norm2u3_>
  400680:	2b 00 00 00 70 00 00 1d 	l.d $f0,112($29)
  400688:	2b 00 00 00 78 00 02 1d 	l.d $f2,120($29)
  400690:	28 00 00 00 4c 00 02 1d 	lw $2,76($29)
  400698:	43 00 00 00 01 00 10 00 	addiu $16,$0,1
  4006a0:	37 00 00 00 80 00 00 1d 	s.d $f0,128($29)
  4006a8:	37 00 00 00 88 00 02 1d 	s.d $f2,136($29)
  4006b0:	34 00 00 00 58 00 02 1d 	sw $2,88($29)
  4006b8:	07 00 00 00 46 00 00 02 	blez $2,4007d8 <MAIN__+0x5e8>
  4006c0:	43 00 00 00 10 80 13 1c 	addiu $19,$28,-32752
  4006c8:	a2 00 00 00 75 10 11 00 	lui $17,4213
  4006d0:	43 00 00 00 90 e5 11 11 	addiu $17,$17,-6768
  4006d8:	42 00 00 00 00 04 16 00 	addu $4,$0,$22
  4006e0:	42 00 00 00 00 05 15 00 	addu $5,$0,$21
  4006e8:	42 00 00 00 00 06 14 00 	addu $6,$0,$20
  4006f0:	42 00 00 00 00 07 12 00 	addu $7,$0,$18
  4006f8:	a2 00 00 00 75 10 03 00 	lui $3,4213
  400700:	43 00 00 00 50 e5 03 03 	addiu $3,$3,-6832
  400708:	34 00 00 00 10 00 03 1d 	sw $3,16($29)
  400710:	a2 00 00 00 75 10 03 00 	lui $3,4213
  400718:	43 00 00 00 70 e5 03 03 	addiu $3,$3,-6800
  400720:	34 00 00 00 14 00 03 1d 	sw $3,20($29)
  400728:	43 00 00 00 0c 80 03 1c 	addiu $3,$28,-32756
  400730:	a2 00 00 00 75 10 02 00 	lui $2,4213
  400738:	43 00 00 00 a8 e5 02 02 	addiu $2,$2,-6744
  400740:	34 00 00 00 24 00 02 1d 	sw $2,36($29)
  400748:	43 00 00 00 48 00 02 1d 	addiu $2,$29,72
  400750:	34 00 00 00 18 00 03 1d 	sw $3,24($29)
  400758:	34 00 00 00 1c 00 13 1d 	sw $19,28($29)
  400760:	34 00 00 00 20 00 11 1d 	sw $17,32($29)
  400768:	34 00 00 00 28 00 02 1d 	sw $2,40($29)
  400770:	02 00 00 00 9e 02 10 00 	jal 400a78 <mg3p_>
  400778:	42 00 00 00 00 04 16 00 	addu $4,$0,$22
  400780:	42 00 00 00 00 05 15 00 	addu $5,$0,$21
  400788:	42 00 00 00 00 06 14 00 	addu $6,$0,$20
  400790:	42 00 00 00 00 07 12 00 	addu $7,$0,$18
  400798:	a2 00 00 00 75 10 03 00 	lui $3,4213
  4007a0:	43 00 00 00 50 e5 03 03 	addiu $3,$3,-6832
  4007a8:	34 00 00 00 10 00 03 1d 	sw $3,16($29)
  4007b0:	02 00 00 00 de 06 10 00 	jal 401b78 <resid_>
  4007b8:	28 00 00 00 58 00 02 1d 	lw $2,88($29)
  4007c0:	43 00 00 00 01 00 10 10 	addiu $16,$16,1
  4007c8:	5b 00 00 00 00 02 10 02 	slt $2,$2,$16
  4007d0:	05 00 00 00 c0 ff 00 02 	beq $2,$0,4006d8 <MAIN__+0x4e8>
  4007d8:	a2 00 00 00 4c 10 04 00 	lui $4,4172
  4007e0:	43 00 00 00 90 21 04 04 	addiu $4,$4,8592
  4007e8:	42 00 00 00 00 05 12 00 	addu $5,$0,$18
  4007f0:	42 00 00 00 00 06 12 00 	addu $6,$0,$18
  4007f8:	42 00 00 00 00 07 12 00 	addu $7,$0,$18
  400800:	34 00 00 00 10 00 1e 1d 	sw $30,16($29)
  400808:	34 00 00 00 14 00 17 1d 	sw $23,20($29)
  400810:	34 00 00 00 18 00 12 1d 	sw $18,24($29)
  400818:	34 00 00 00 1c 00 12 1d 	sw $18,28($29)
  400820:	34 00 00 00 20 00 12 1d 	sw $18,32($29)
  400828:	02 00 00 00 ca 13 10 00 	jal 404f28 <norm2u3_>
  400830:	43 00 00 00 30 00 04 1d 	addiu $4,$29,48
  400838:	43 00 00 00 06 00 11 00 	addiu $17,$0,6
  400840:	43 00 00 00 1c 80 10 1c 	addiu $16,$28,-32740
  400848:	34 00 00 00 30 00 00 1d 	sw $0,48($29)
  400850:	34 00 00 00 34 00 11 1d 	sw $17,52($29)
  400858:	34 00 00 00 3c 00 10 1d 	sw $16,60($29)
  400860:	02 00 00 00 50 27 10 00 	jal 409d40 <s_wsfe>
  400868:	02 00 00 00 62 36 10 00 	jal 40d988 <e_wsfe>
  400870:	43 00 00 00 30 00 04 1d 	addiu $4,$29,48
  400878:	34 00 00 00 30 00 00 1d 	sw $0,48($29)
  400880:	34 00 00 00 34 00 11 1d 	sw $17,52($29)
  400888:	34 00 00 00 3c 00 10 1d 	sw $16,60($29)
  400890:	02 00 00 00 50 27 10 00 	jal 409d40 <s_wsfe>
  400898:	43 00 00 00 04 80 04 1c 	addiu $4,$28,-32764
  4008a0:	a2 00 00 00 00 10 05 00 	lui $5,4096
  4008a8:	43 00 00 00 00 00 05 05 	addiu $5,$5,0
  4008b0:	43 00 00 00 26 00 06 00 	addiu $6,$0,38
  4008b8:	02 00 00 00 ec 33 10 00 	jal 40cfb0 <do_fio>
  4008c0:	02 00 00 00 62 36 10 00 	jal 40d988 <e_wsfe>
  4008c8:	a2 00 00 00 00 10 04 00 	lui $4,4096
  4008d0:	43 00 00 00 4c 25 04 04 	addiu $4,$4,9548
  4008d8:	02 00 00 00 50 27 10 00 	jal 409d40 <s_wsfe>
  4008e0:	43 00 00 00 04 80 04 1c 	addiu $4,$28,-32764
  4008e8:	43 00 00 00 14 80 05 1c 	addiu $5,$28,-32748
  4008f0:	43 00 00 00 04 00 06 00 	addiu $6,$0,4
  4008f8:	02 00 00 00 ec 33 10 00 	jal 40cfb0 <do_fio>
  400900:	43 00 00 00 04 80 04 1c 	addiu $4,$28,-32764
  400908:	43 00 00 00 80 00 05 1d 	addiu $5,$29,128
  400910:	43 00 00 00 08 00 06 00 	addiu $6,$0,8
  400918:	02 00 00 00 ec 33 10 00 	jal 40cfb0 <do_fio>
  400920:	43 00 00 00 04 80 04 1c 	addiu $4,$28,-32764
  400928:	43 00 00 00 88 00 05 1d 	addiu $5,$29,136
  400930:	43 00 00 00 08 00 06 00 	addiu $6,$0,8
  400938:	02 00 00 00 ec 33 10 00 	jal 40cfb0 <do_fio>
  400940:	02 00 00 00 62 36 10 00 	jal 40d988 <e_wsfe>
  400948:	a2 00 00 00 00 10 04 00 	lui $4,4096
  400950:	43 00 00 00 60 25 04 04 	addiu $4,$4,9568
  400958:	02 00 00 00 50 27 10 00 	jal 409d40 <s_wsfe>
  400960:	43 00 00 00 04 80 04 1c 	addiu $4,$28,-32764
  400968:	43 00 00 00 4c 00 05 1d 	addiu $5,$29,76
  400970:	43 00 00 00 04 00 06 00 	addiu $6,$0,4
  400978:	02 00 00 00 ec 33 10 00 	jal 40cfb0 <do_fio>
  400980:	43 00 00 00 04 80 04 1c 	addiu $4,$28,-32764
  400988:	42 00 00 00 00 05 1e 00 	addu $5,$0,$30
  400990:	43 00 00 00 08 00 06 00 	addiu $6,$0,8
  400998:	02 00 00 00 ec 33 10 00 	jal 40cfb0 <do_fio>
  4009a0:	43 00 00 00 04 80 04 1c 	addiu $4,$28,-32764
  4009a8:	42 00 00 00 00 05 17 00 	addu $5,$0,$23
  4009b0:	43 00 00 00 08 00 06 00 	addiu $6,$0,8
  4009b8:	02 00 00 00 ec 33 10 00 	jal 40cfb0 <do_fio>
  4009c0:	02 00 00 00 62 36 10 00 	jal 40d988 <e_wsfe>
  4009c8:	28 00 00 00 90 00 03 1d 	lw $3,144($29)
  4009d0:	28 00 00 00 54 00 02 1d 	lw $2,84($29)
  4009d8:	43 00 00 00 01 00 03 03 	addiu $3,$3,1
  4009e0:	5b 00 00 00 00 02 03 02 	slt $2,$2,$3
  4009e8:	34 00 00 00 90 00 03 1d 	sw $3,144($29)
  4009f0:	05 00 00 00 e8 fe 00 02 	beq $2,$0,400598 <MAIN__+0x3a8>
  4009f8:	43 00 00 00 24 80 04 1c 	addiu $4,$28,-32732
  400a00:	42 00 00 00 00 05 00 00 	addu $5,$0,$0
  400a08:	02 00 00 00 84 36 10 00 	jal 40da10 <s_stop>
  400a10:	42 00 00 00 00 02 00 00 	addu $2,$0,$0
  400a18:	28 00 00 00 bc 00 1f 1d 	lw $31,188($29)
  400a20:	28 00 00 00 b8 00 1e 1d 	lw $30,184($29)
  400a28:	28 00 00 00 b4 00 17 1d 	lw $23,180($29)
  400a30:	28 00 00 00 b0 00 16 1d 	lw $22,176($29)
  400a38:	28 00 00 00 ac 00 15 1d 	lw $21,172($29)
  400a40:	28 00 00 00 a8 00 14 1d 	lw $20,168($29)
  400a48:	28 00 00 00 a4 00 13 1d 	lw $19,164($29)
  400a50:	28 00 00 00 a0 00 12 1d 	lw $18,160($29)
  400a58:	28 00 00 00 9c 00 11 1d 	lw $17,156($29)
  400a60:	28 00 00 00 98 00 10 1d 	lw $16,152($29)
  400a68:	43 00 00 00 c0 00 1d 1d 	addiu $29,$29,192
  400a70:	03 00 00 00 00 00 00 1f 	jr $31

00400a78 <mg3p_>:
  400a78:	43 00 00 00 90 ff 1d 1d 	addiu $29,$29,-112
  400a80:	34 00 00 00 5c 00 15 1d 	sw $21,92($29)
  400a88:	28 00 00 00 90 00 15 1d 	lw $21,144($29)
  400a90:	28 00 00 00 94 00 09 1d 	lw $9,148($29)
  400a98:	28 00 00 00 98 00 0a 1d 	lw $10,152($29)
  400aa0:	43 00 00 00 f8 ff 05 05 	addiu $5,$5,-8
  400aa8:	34 00 00 00 64 00 17 1d 	sw $23,100($29)
  400ab0:	43 00 00 00 f8 ff 17 06 	addiu $23,$6,-8
  400ab8:	34 00 00 00 6c 00 1f 1d 	sw $31,108($29)
  400ac0:	34 00 00 00 68 00 1e 1d 	sw $30,104($29)
  400ac8:	34 00 00 00 60 00 16 1d 	sw $22,96($29)
  400ad0:	34 00 00 00 58 00 14 1d 	sw $20,88($29)
  400ad8:	34 00 00 00 54 00 13 1d 	sw $19,84($29)
  400ae0:	34 00 00 00 50 00 12 1d 	sw $18,80($29)
  400ae8:	34 00 00 00 4c 00 11 1d 	sw $17,76($29)
  400af0:	34 00 00 00 48 00 10 1d 	sw $16,72($29)
  400af8:	34 00 00 00 20 00 07 1d 	sw $7,32($29)
  400b00:	43 00 00 00 fc ff 09 09 	addiu $9,$9,-4
  400b08:	34 00 00 00 94 00 09 1d 	sw $9,148($29)
  400b10:	28 00 00 00 00 00 14 0a 	lw $20,0($10)
  400b18:	43 00 00 00 f8 ff 12 04 	addiu $18,$4,-8
  400b20:	43 00 00 00 fc ff 15 15 	addiu $21,$21,-4
  400b28:	5c 00 00 00 02 00 02 14 	slti $2,$20,2
  400b30:	34 00 00 00 18 00 05 1d 	sw $5,24($29)
  400b38:	06 00 00 00 24 00 00 02 	bne $2,$0,400bd0 <mg3p_+0x158>
  400b40:	43 00 00 00 ff ff 08 14 	addiu $8,$20,-1
  400b48:	55 00 00 00 02 02 14 00 	sll $2,$20,0x2
  400b50:	28 00 00 00 94 00 09 1d 	lw $9,148($29)
  400b58:	55 00 00 00 02 03 08 00 	sll $3,$8,0x2
  400b60:	42 00 00 00 00 14 08 00 	addu $20,$0,$8
  400b68:	42 00 00 00 00 05 02 09 	addu $5,$9,$2
  400b70:	42 00 00 00 00 07 03 09 	addu $7,$9,$3
  400b78:	42 00 00 00 00 02 15 02 	addu $2,$2,$21
  400b80:	28 00 00 00 00 00 04 02 	lw $4,0($2)
  400b88:	42 00 00 00 00 03 15 03 	addu $3,$3,$21
  400b90:	28 00 00 00 00 00 06 03 	lw $6,0($3)
  400b98:	55 00 00 00 03 04 04 00 	sll $4,$4,0x3
  400ba0:	42 00 00 00 00 04 04 17 	addu $4,$23,$4
  400ba8:	55 00 00 00 03 06 06 00 	sll $6,$6,0x3
  400bb0:	42 00 00 00 00 06 06 17 	addu $6,$23,$6
  400bb8:	02 00 00 00 f6 08 10 00 	jal 4023d8 <rprj3_>
  400bc0:	5c 00 00 00 02 00 02 14 	slti $2,$20,2
  400bc8:	05 00 00 00 dc ff 00 02 	beq $2,$0,400b40 <mg3p_+0xc8>
  400bd0:	28 00 00 00 94 00 0a 1d 	lw $10,148($29)
  400bd8:	28 00 00 00 04 00 04 15 	lw $4,4($21)
  400be0:	43 00 00 00 04 00 10 0a 	addiu $16,$10,4
  400be8:	42 00 00 00 00 05 10 00 	addu $5,$0,$16
  400bf0:	42 00 00 00 00 06 10 00 	addu $6,$0,$16
  400bf8:	42 00 00 00 00 07 10 00 	addu $7,$0,$16
  400c00:	55 00 00 00 03 04 04 00 	sll $4,$4,0x3
  400c08:	42 00 00 00 00 04 04 12 	addu $4,$18,$4
  400c10:	02 00 00 00 b8 16 10 00 	jal 405ae0 <zero3_>
  400c18:	28 00 00 00 04 00 05 15 	lw $5,4($21)
  400c20:	42 00 00 00 00 06 10 00 	addu $6,$0,$16
  400c28:	28 00 00 00 84 00 07 1d 	lw $7,132($29)
  400c30:	55 00 00 00 03 05 05 00 	sll $5,$5,0x3
  400c38:	42 00 00 00 00 04 05 17 	addu $4,$23,$5
  400c40:	42 00 00 00 00 05 05 12 	addu $5,$18,$5
  400c48:	02 00 00 00 9e 04 10 00 	jal 401278 <psinv_>
  400c50:	28 00 00 00 98 00 09 1d 	lw $9,152($29)
  400c58:	28 00 00 00 00 00 03 09 	lw $3,0($9)
  400c60:	43 00 00 00 02 00 02 00 	addiu $2,$0,2
  400c68:	05 00 00 00 30 01 02 03 	beq $3,$2,401130 <mg3p_+0x6b8>
  400c70:	43 00 00 00 02 00 14 00 	addiu $20,$0,2
  400c78:	43 00 00 00 ff ff 0a 03 	addiu $10,$3,-1
  400c80:	34 00 00 00 28 00 0a 1d 	sw $10,40($29)
  400c88:	5c 00 00 00 02 00 02 0a 	slti $2,$10,2
  400c90:	06 00 00 00 26 01 00 02 	bne $2,$0,401130 <mg3p_+0x6b8>
  400c98:	43 00 00 00 08 00 05 15 	addiu $5,$21,8
  400ca0:	43 00 00 00 04 00 09 00 	addiu $9,$0,4
  400ca8:	28 00 00 00 94 00 0a 1d 	lw $10,148($29)
  400cb0:	43 00 00 00 fe ff 02 03 	addiu $2,$3,-2
  400cb8:	4f 00 00 00 01 00 04 02 	andi $4,$2,1
  400cc0:	5b 00 00 00 00 02 03 14 	slt $2,$20,$3
  400cc8:	34 00 00 00 30 00 09 1d 	sw $9,48($29)
  400cd0:	43 00 00 00 08 00 13 0a 	addiu $19,$10,8
  400cd8:	05 00 00 00 02 00 00 02 	beq $2,$0,400ce8 <mg3p_+0x270>
  400ce0:	05 00 00 00 52 00 00 04 	beq $4,$0,400e30 <mg3p_+0x3b8>
  400ce8:	42 00 00 00 00 05 13 00 	addu $5,$0,$19
  400cf0:	42 00 00 00 00 06 13 00 	addu $6,$0,$19
  400cf8:	28 00 00 00 08 00 04 15 	lw $4,8($21)
  400d00:	42 00 00 00 00 07 13 00 	addu $7,$0,$19
  400d08:	43 00 00 00 08 00 09 00 	addiu $9,$0,8
  400d10:	55 00 00 00 03 04 04 00 	sll $4,$4,0x3
  400d18:	42 00 00 00 00 04 04 12 	addu $4,$18,$4
  400d20:	34 00 00 00 30 00 09 1d 	sw $9,48($29)
  400d28:	02 00 00 00 b8 16 10 00 	jal 405ae0 <zero3_>
  400d30:	42 00 00 00 00 05 10 00 	addu $5,$0,$16
  400d38:	28 00 00 00 04 00 04 15 	lw $4,4($21)
  400d40:	42 00 00 00 00 07 13 00 	addu $7,$0,$19
  400d48:	28 00 00 00 08 00 06 15 	lw $6,8($21)
  400d50:	55 00 00 00 03 04 04 00 	sll $4,$4,0x3
  400d58:	42 00 00 00 00 04 04 12 	addu $4,$18,$4
  400d60:	55 00 00 00 03 06 06 00 	sll $6,$6,0x3
  400d68:	42 00 00 00 00 06 06 12 	addu $6,$18,$6
  400d70:	02 00 00 00 f8 0a 10 00 	jal 402be0 <interp_>
  400d78:	28 00 00 00 08 00 05 15 	lw $5,8($21)
  400d80:	43 00 00 00 03 00 14 00 	addiu $20,$0,3
  400d88:	42 00 00 00 00 07 13 00 	addu $7,$0,$19
  400d90:	28 00 00 00 80 00 0a 1d 	lw $10,128($29)
  400d98:	55 00 00 00 03 05 05 00 	sll $5,$5,0x3
  400da0:	42 00 00 00 00 04 05 12 	addu $4,$18,$5
  400da8:	42 00 00 00 00 05 05 17 	addu $5,$23,$5
  400db0:	42 00 00 00 00 06 05 00 	addu $6,$0,$5
  400db8:	34 00 00 00 10 00 0a 1d 	sw $10,16($29)
  400dc0:	02 00 00 00 de 06 10 00 	jal 401b78 <resid_>
  400dc8:	28 00 00 00 08 00 05 15 	lw $5,8($21)
  400dd0:	42 00 00 00 00 06 13 00 	addu $6,$0,$19
  400dd8:	28 00 00 00 84 00 07 1d 	lw $7,132($29)
  400de0:	55 00 00 00 03 05 05 00 	sll $5,$5,0x3
  400de8:	42 00 00 00 00 04 05 17 	addu $4,$23,$5
  400df0:	42 00 00 00 00 05 05 12 	addu $5,$18,$5
  400df8:	02 00 00 00 9e 04 10 00 	jal 401278 <psinv_>
  400e00:	28 00 00 00 94 00 09 1d 	lw $9,148($29)
  400e08:	28 00 00 00 28 00 0a 1d 	lw $10,40($29)
  400e10:	43 00 00 00 0c 00 05 15 	addiu $5,$21,12
  400e18:	43 00 00 00 0c 00 13 09 	addiu $19,$9,12
  400e20:	5c 00 00 00 03 00 02 0a 	slti $2,$10,3
  400e28:	06 00 00 00 c0 00 00 02 	bne $2,$0,401130 <mg3p_+0x6b8>
  400e30:	42 00 00 00 00 16 05 00 	addu $22,$0,$5
  400e38:	42 00 00 00 00 1e 16 00 	addu $30,$0,$22
  400e40:	34 00 00 00 38 00 16 1d 	sw $22,56($29)
  400e48:	34 00 00 00 40 00 16 1d 	sw $22,64($29)
  400e50:	42 00 00 00 00 05 13 00 	addu $5,$0,$19
  400e58:	42 00 00 00 00 06 13 00 	addu $6,$0,$19
  400e60:	42 00 00 00 00 07 13 00 	addu $7,$0,$19
  400e68:	28 00 00 00 00 00 04 1e 	lw $4,0($30)
  400e70:	42 00 00 00 00 08 14 00 	addu $8,$0,$20
  400e78:	43 00 00 00 02 00 14 08 	addiu $20,$8,2
  400e80:	55 00 00 00 03 04 04 00 	sll $4,$4,0x3
  400e88:	42 00 00 00 00 04 04 12 	addu $4,$18,$4
  400e90:	02 00 00 00 b8 16 10 00 	jal 405ae0 <zero3_>
  400e98:	28 00 00 00 94 00 09 1d 	lw $9,148($29)
  400ea0:	28 00 00 00 30 00 0a 1d 	lw $10,48($29)
  400ea8:	42 00 00 00 00 05 0a 09 	addu $5,$9,$10
  400eb0:	42 00 00 00 00 02 15 0a 	addu $2,$10,$21
  400eb8:	28 00 00 00 40 00 09 1d 	lw $9,64($29)
  400ec0:	28 00 00 00 00 00 04 02 	lw $4,0($2)
  400ec8:	42 00 00 00 00 07 13 00 	addu $7,$0,$19
  400ed0:	28 00 00 00 00 00 06 09 	lw $6,0($9)
  400ed8:	55 00 00 00 03 04 04 00 	sll $4,$4,0x3
  400ee0:	42 00 00 00 00 04 04 12 	addu $4,$18,$4
  400ee8:	55 00 00 00 03 06 06 00 	sll $6,$6,0x3
  400ef0:	42 00 00 00 00 06 06 12 	addu $6,$18,$6
  400ef8:	02 00 00 00 f8 0a 10 00 	jal 402be0 <interp_>
  400f00:	28 00 00 00 38 00 0a 1d 	lw $10,56($29)
  400f08:	28 00 00 00 30 00 09 1d 	lw $9,48($29)
  400f10:	42 00 00 00 00 07 13 00 	addu $7,$0,$19
  400f18:	28 00 00 00 00 00 05 0a 	lw $5,0($10)
  400f20:	43 00 00 00 04 00 11 09 	addiu $17,$9,4
  400f28:	43 00 00 00 08 00 09 09 	addiu $9,$9,8
  400f30:	55 00 00 00 03 05 05 00 	sll $5,$5,0x3
  400f38:	42 00 00 00 00 04 05 12 	addu $4,$18,$5
  400f40:	28 00 00 00 80 00 0a 1d 	lw $10,128($29)
  400f48:	42 00 00 00 00 05 05 17 	addu $5,$23,$5
  400f50:	42 00 00 00 00 06 05 00 	addu $6,$0,$5
  400f58:	34 00 00 00 30 00 09 1d 	sw $9,48($29)
  400f60:	34 00 00 00 10 00 0a 1d 	sw $10,16($29)
  400f68:	02 00 00 00 de 06 10 00 	jal 401b78 <resid_>
  400f70:	42 00 00 00 00 06 13 00 	addu $6,$0,$19
  400f78:	28 00 00 00 00 00 05 16 	lw $5,0($22)
  400f80:	28 00 00 00 84 00 07 1d 	lw $7,132($29)
  400f88:	43 00 00 00 04 00 10 13 	addiu $16,$19,4
  400f90:	55 00 00 00 03 05 05 00 	sll $5,$5,0x3
  400f98:	42 00 00 00 00 04 05 17 	addu $4,$23,$5
  400fa0:	42 00 00 00 00 05 05 12 	addu $5,$18,$5
  400fa8:	02 00 00 00 9e 04 10 00 	jal 401278 <psinv_>
  400fb0:	42 00 00 00 00 05 10 00 	addu $5,$0,$16
  400fb8:	28 00 00 00 04 00 04 1e 	lw $4,4($30)
  400fc0:	42 00 00 00 00 06 10 00 	addu $6,$0,$16
  400fc8:	42 00 00 00 00 07 10 00 	addu $7,$0,$16
  400fd0:	55 00 00 00 03 04 04 00 	sll $4,$4,0x3
  400fd8:	42 00 00 00 00 04 04 12 	addu $4,$18,$4
  400fe0:	02 00 00 00 b8 16 10 00 	jal 405ae0 <zero3_>
  400fe8:	28 00 00 00 94 00 09 1d 	lw $9,148($29)
  400ff0:	28 00 00 00 40 00 0a 1d 	lw $10,64($29)
  400ff8:	42 00 00 00 00 05 11 09 	addu $5,$9,$17
  401000:	42 00 00 00 00 11 15 11 	addu $17,$17,$21
  401008:	28 00 00 00 00 00 04 11 	lw $4,0($17)
  401010:	42 00 00 00 00 07 10 00 	addu $7,$0,$16
  401018:	28 00 00 00 04 00 06 0a 	lw $6,4($10)
  401020:	55 00 00 00 03 04 04 00 	sll $4,$4,0x3
  401028:	42 00 00 00 00 04 04 12 	addu $4,$18,$4
  401030:	55 00 00 00 03 06 06 00 	sll $6,$6,0x3
  401038:	42 00 00 00 00 06 06 12 	addu $6,$18,$6
  401040:	02 00 00 00 f8 0a 10 00 	jal 402be0 <interp_>
  401048:	28 00 00 00 38 00 09 1d 	lw $9,56($29)
  401050:	43 00 00 00 08 00 13 13 	addiu $19,$19,8
  401058:	28 00 00 00 40 00 0a 1d 	lw $10,64($29)
  401060:	28 00 00 00 04 00 05 09 	lw $5,4($9)
  401068:	42 00 00 00 00 07 10 00 	addu $7,$0,$16
  401070:	43 00 00 00 08 00 0a 0a 	addiu $10,$10,8
  401078:	55 00 00 00 03 05 05 00 	sll $5,$5,0x3
  401080:	42 00 00 00 00 04 05 12 	addu $4,$18,$5
  401088:	28 00 00 00 80 00 09 1d 	lw $9,128($29)
  401090:	42 00 00 00 00 05 05 17 	addu $5,$23,$5
  401098:	42 00 00 00 00 06 05 00 	addu $6,$0,$5
  4010a0:	34 00 00 00 40 00 0a 1d 	sw $10,64($29)
  4010a8:	34 00 00 00 10 00 09 1d 	sw $9,16($29)
  4010b0:	02 00 00 00 de 06 10 00 	jal 401b78 <resid_>
  4010b8:	42 00 00 00 00 06 10 00 	addu $6,$0,$16
  4010c0:	28 00 00 00 38 00 0a 1d 	lw $10,56($29)
  4010c8:	28 00 00 00 04 00 05 16 	lw $5,4($22)
  4010d0:	28 00 00 00 84 00 07 1d 	lw $7,132($29)
  4010d8:	43 00 00 00 08 00 0a 0a 	addiu $10,$10,8
  4010e0:	55 00 00 00 03 05 05 00 	sll $5,$5,0x3
  4010e8:	42 00 00 00 00 04 05 17 	addu $4,$23,$5
  4010f0:	42 00 00 00 00 05 05 12 	addu $5,$18,$5
  4010f8:	34 00 00 00 38 00 0a 1d 	sw $10,56($29)
  401100:	02 00 00 00 9e 04 10 00 	jal 401278 <psinv_>
  401108:	28 00 00 00 28 00 09 1d 	lw $9,40($29)
  401110:	43 00 00 00 08 00 1e 1e 	addiu $30,$30,8
  401118:	43 00 00 00 08 00 16 16 	addiu $22,$22,8
  401120:	5b 00 00 00 00 02 14 09 	slt $2,$9,$20
  401128:	05 00 00 00 48 ff 00 02 	beq $2,$0,400e50 <mg3p_+0x3d8>
  401130:	28 00 00 00 98 00 0a 1d 	lw $10,152($29)
  401138:	43 00 00 00 08 00 11 12 	addiu $17,$18,8
  401140:	28 00 00 00 00 00 02 0a 	lw $2,0($10)
  401148:	42 00 00 00 00 06 11 00 	addu $6,$0,$17
  401150:	28 00 00 00 94 00 09 1d 	lw $9,148($29)
  401158:	43 00 00 00 ff ff 08 02 	addiu $8,$2,-1
  401160:	55 00 00 00 02 05 08 00 	sll $5,$8,0x2
  401168:	42 00 00 00 00 02 15 05 	addu $2,$5,$21
  401170:	28 00 00 00 00 00 04 02 	lw $4,0($2)
  401178:	28 00 00 00 20 00 07 1d 	lw $7,32($29)
  401180:	42 00 00 00 00 05 05 09 	addu $5,$9,$5
  401188:	55 00 00 00 03 04 04 00 	sll $4,$4,0x3
  401190:	42 00 00 00 00 04 04 12 	addu $4,$18,$4
  401198:	02 00 00 00 f8 0a 10 00 	jal 402be0 <interp_>
  4011a0:	42 00 00 00 00 04 11 00 	addu $4,$0,$17
  4011a8:	28 00 00 00 18 00 0a 1d 	lw $10,24($29)
  4011b0:	43 00 00 00 08 00 10 17 	addiu $16,$23,8
  4011b8:	28 00 00 00 20 00 07 1d 	lw $7,32($29)
  4011c0:	28 00 00 00 80 00 09 1d 	lw $9,128($29)
  4011c8:	42 00 00 00 00 06 10 00 	addu $6,$0,$16
  4011d0:	43 00 00 00 08 00 05 0a 	addiu $5,$10,8
  4011d8:	34 00 00 00 10 00 09 1d 	sw $9,16($29)
  4011e0:	02 00 00 00 de 06 10 00 	jal 401b78 <resid_>
  4011e8:	28 00 00 00 20 00 06 1d 	lw $6,32($29)
  4011f0:	28 00 00 00 84 00 07 1d 	lw $7,132($29)
  4011f8:	42 00 00 00 00 04 10 00 	addu $4,$0,$16
  401200:	42 00 00 00 00 05 11 00 	addu $5,$0,$17
  401208:	02 00 00 00 9e 04 10 00 	jal 401278 <psinv_>
  401210:	42 00 00 00 00 02 00 00 	addu $2,$0,$0
  401218:	28 00 00 00 6c 00 1f 1d 	lw $31,108($29)
  401220:	28 00 00 00 68 00 1e 1d 	lw $30,104($29)
  401228:	28 00 00 00 64 00 17 1d 	lw $23,100($29)
  401230:	28 00 00 00 60 00 16 1d 	lw $22,96($29)
  401238:	28 00 00 00 5c 00 15 1d 	lw $21,92($29)
  401240:	28 00 00 00 58 00 14 1d 	lw $20,88($29)
  401248:	28 00 00 00 54 00 13 1d 	lw $19,84($29)
  401250:	28 00 00 00 50 00 12 1d 	lw $18,80($29)
  401258:	28 00 00 00 4c 00 11 1d 	lw $17,76($29)
  401260:	28 00 00 00 48 00 10 1d 	lw $16,72($29)
  401268:	43 00 00 00 70 00 1d 1d 	addiu $29,$29,112
  401270:	03 00 00 00 00 00 00 1f 	jr $31

00401278 <psinv_>:
  401278:	43 00 00 00 28 ff 1d 1d 	addiu $29,$29,-216
  401280:	42 00 00 00 00 0e 06 00 	addu $14,$0,$6
  401288:	34 00 00 00 d4 00 1f 1d 	sw $31,212($29)
  401290:	34 00 00 00 d0 00 1e 1d 	sw $30,208($29)
  401298:	34 00 00 00 cc 00 17 1d 	sw $23,204($29)
  4012a0:	34 00 00 00 c8 00 16 1d 	sw $22,200($29)
  4012a8:	34 00 00 00 c4 00 15 1d 	sw $21,196($29)
  4012b0:	34 00 00 00 c0 00 14 1d 	sw $20,192($29)
  4012b8:	34 00 00 00 bc 00 13 1d 	sw $19,188($29)
  4012c0:	34 00 00 00 b8 00 12 1d 	sw $18,184($29)
  4012c8:	34 00 00 00 b4 00 11 1d 	sw $17,180($29)
  4012d0:	34 00 00 00 b0 00 10 1d 	sw $16,176($29)
  4012d8:	28 00 00 00 00 00 1e 0e 	lw $30,0($14)
  4012e0:	43 00 00 00 01 00 02 1e 	addiu $2,$30,1
  4012e8:	46 00 00 00 00 00 02 1e 	mult $30,$2
  4012f0:	42 00 00 00 00 0b 07 00 	addu $11,$0,$7
  4012f8:	43 00 00 00 02 00 14 00 	addiu $20,$0,2
  401300:	43 00 00 00 ff ff 17 1e 	addiu $23,$30,-1
  401308:	4c 00 00 00 00 02 00 00 	mflo $2
  401310:	42 00 00 00 00 0a 1e 00 	addu $10,$0,$30
  401318:	42 00 00 00 00 0f 1e 00 	addu $15,$0,$30
  401320:	34 00 00 00 18 00 1e 1d 	sw $30,24($29)
  401328:	43 00 00 00 01 00 02 02 	addiu $2,$2,1
  401330:	34 00 00 00 20 00 02 1d 	sw $2,32($29)
  401338:	55 00 00 00 03 02 02 00 	sll $2,$2,0x3
  401340:	45 00 00 00 00 05 02 05 	subu $5,$5,$2
  401348:	45 00 00 00 00 09 02 04 	subu $9,$4,$2
  401350:	5c 00 00 00 02 00 02 17 	slti $2,$23,2
  401358:	34 00 00 00 10 00 05 1d 	sw $5,16($29)
  401360:	06 00 00 00 90 01 00 02 	bne $2,$0,4019a8 <psinv_+0x730>
  401368:	55 00 00 00 01 02 1e 00 	sll $2,$30,0x1
  401370:	42 00 00 00 00 0c 1e 02 	addu $12,$2,$30
  401378:	43 00 00 00 01 00 18 02 	addiu $24,$2,1
  401380:	43 00 00 00 ff ff 19 02 	addiu $25,$2,-1
  401388:	42 00 00 00 00 12 02 00 	addu $18,$0,$2
  401390:	34 00 00 00 80 00 18 1d 	sw $24,128($29)
  401398:	34 00 00 00 88 00 19 1d 	sw $25,136($29)
  4013a0:	34 00 00 00 90 00 12 1d 	sw $18,144($29)
  4013a8:	28 00 00 00 00 00 02 0e 	lw $2,0($14)
  4013b0:	43 00 00 00 02 00 11 00 	addiu $17,$0,2
  4013b8:	43 00 00 00 ff ff 16 02 	addiu $22,$2,-1
  4013c0:	5c 00 00 00 02 00 02 16 	slti $2,$22,2
  4013c8:	06 00 00 00 58 01 00 02 	bne $2,$0,401930 <psinv_+0x6b8>
  4013d0:	43 00 00 00 ff ff 02 14 	addiu $2,$20,-1
  4013d8:	46 00 00 00 00 00 0f 02 	mult $2,$15
  4013e0:	28 00 00 00 90 00 18 1d 	lw $24,144($29)
  4013e8:	28 00 00 00 88 00 19 1d 	lw $25,136($29)
  4013f0:	34 00 00 00 28 00 18 1d 	sw $24,40($29)
  4013f8:	28 00 00 00 80 00 18 1d 	lw $24,128($29)
  401400:	34 00 00 00 38 00 12 1d 	sw $18,56($29)
  401408:	34 00 00 00 48 00 19 1d 	sw $25,72($29)
  401410:	34 00 00 00 58 00 18 1d 	sw $24,88($29)
  401418:	4c 00 00 00 00 0d 00 00 	mflo $13
  401420:	28 00 00 00 00 00 02 0e 	lw $2,0($14)
  401428:	43 00 00 00 02 00 10 00 	addiu $16,$0,2
  401430:	43 00 00 00 ff ff 15 02 	addiu $21,$2,-1
  401438:	5c 00 00 00 02 00 02 15 	slti $2,$21,2
  401440:	06 00 00 00 34 01 00 02 	bne $2,$0,401918 <psinv_+0x6a0>
  401448:	28 00 00 00 28 00 19 1d 	lw $25,40($29)
  401450:	42 00 00 00 00 02 19 11 	addu $2,$17,$25
  401458:	46 00 00 00 00 00 1e 02 	mult $2,$30
  401460:	28 00 00 00 38 00 19 1d 	lw $25,56($29)
  401468:	4c 00 00 00 00 18 00 00 	mflo $24
  401470:	42 00 00 00 00 02 19 11 	addu $2,$17,$25
  401478:	46 00 00 00 00 00 0a 02 	mult $2,$10
  401480:	28 00 00 00 48 00 19 1d 	lw $25,72($29)
  401488:	34 00 00 00 30 00 18 1d 	sw $24,48($29)
  401490:	4c 00 00 00 00 18 00 00 	mflo $24
  401498:	42 00 00 00 00 02 19 11 	addu $2,$17,$25
  4014a0:	46 00 00 00 00 00 0a 02 	mult $2,$10
  4014a8:	28 00 00 00 58 00 19 1d 	lw $25,88($29)
  4014b0:	34 00 00 00 40 00 18 1d 	sw $24,64($29)
  4014b8:	4c 00 00 00 00 18 00 00 	mflo $24
  4014c0:	42 00 00 00 00 02 19 11 	addu $2,$17,$25
  4014c8:	46 00 00 00 00 00 0a 02 	mult $2,$10
  4014d0:	34 00 00 00 50 00 18 1d 	sw $24,80($29)
  4014d8:	4c 00 00 00 00 18 00 00 	mflo $24
  4014e0:	42 00 00 00 00 02 0d 11 	addu $2,$17,$13
  4014e8:	46 00 00 00 00 00 0a 02 	mult $2,$10
  4014f0:	4c 00 00 00 00 19 00 00 	mflo $25
  4014f8:	42 00 00 00 00 02 0c 11 	addu $2,$17,$12
  401500:	46 00 00 00 00 00 0a 02 	mult $2,$10
  401508:	34 00 00 00 60 00 18 1d 	sw $24,96($29)
  401510:	4c 00 00 00 00 18 00 00 	mflo $24
  401518:	43 00 00 00 ff ff 02 0d 	addiu $2,$13,-1
  401520:	42 00 00 00 00 02 02 11 	addu $2,$17,$2
  401528:	46 00 00 00 00 00 0a 02 	mult $2,$10
  401530:	34 00 00 00 68 00 19 1d 	sw $25,104($29)
  401538:	4c 00 00 00 00 19 00 00 	mflo $25
  401540:	43 00 00 00 01 00 02 0d 	addiu $2,$13,1
  401548:	42 00 00 00 00 02 02 11 	addu $2,$17,$2
  401550:	46 00 00 00 00 00 0a 02 	mult $2,$10
  401558:	34 00 00 00 70 00 18 1d 	sw $24,112($29)
  401560:	4c 00 00 00 00 18 00 00 	mflo $24
  401568:	43 00 00 00 ff ff 02 0c 	addiu $2,$12,-1
  401570:	42 00 00 00 00 02 02 11 	addu $2,$17,$2
  401578:	46 00 00 00 00 00 0a 02 	mult $2,$10
  401580:	34 00 00 00 78 00 19 1d 	sw $25,120($29)
  401588:	4c 00 00 00 00 19 00 00 	mflo $25
  401590:	43 00 00 00 01 00 02 0c 	addiu $2,$12,1
  401598:	42 00 00 00 00 02 02 11 	addu $2,$17,$2
  4015a0:	46 00 00 00 00 00 0a 02 	mult $2,$10
  4015a8:	34 00 00 00 a8 00 18 1d 	sw $24,168($29)
  4015b0:	34 00 00 00 a0 00 19 1d 	sw $25,160($29)
  4015b8:	4c 00 00 00 00 13 00 00 	mflo $19
  4015c0:	28 00 00 00 40 00 18 1d 	lw $24,64($29)
  4015c8:	28 00 00 00 50 00 19 1d 	lw $25,80($29)
  4015d0:	42 00 00 00 00 08 18 10 	addu $8,$16,$24
  4015d8:	55 00 00 00 03 08 08 00 	sll $8,$8,0x3
  4015e0:	42 00 00 00 00 08 09 08 	addu $8,$8,$9
  4015e8:	2b 00 00 00 f8 ff 0a 08 	l.d $f10,-8($8)
  4015f0:	2b 00 00 00 08 00 00 08 	l.d $f0,8($8)
  4015f8:	42 00 00 00 00 03 19 10 	addu $3,$16,$25
  401600:	55 00 00 00 03 03 03 00 	sll $3,$3,0x3
  401608:	42 00 00 00 00 03 09 03 	addu $3,$3,$9
  401610:	28 00 00 00 60 00 18 1d 	lw $24,96($29)
  401618:	2b 00 00 00 00 00 04 03 	l.d $f4,0($3)
  401620:	28 00 00 00 68 00 19 1d 	lw $25,104($29)
  401628:	42 00 00 00 00 02 18 10 	addu $2,$16,$24
  401630:	71 00 00 00 00 0a 00 0a 	add.d $f10,$f10,$f0
  401638:	55 00 00 00 03 02 02 00 	sll $2,$2,0x3
  401640:	42 00 00 00 00 02 09 02 	addu $2,$2,$9
  401648:	2b 00 00 00 00 00 02 02 	l.d $f2,0($2)
  401650:	71 00 00 00 00 0a 04 0a 	add.d $f10,$f10,$f4
  401658:	42 00 00 00 00 07 19 10 	addu $7,$16,$25
  401660:	55 00 00 00 03 07 07 00 	sll $7,$7,0x3
  401668:	42 00 00 00 00 07 09 07 	addu $7,$7,$9
  401670:	71 00 00 00 00 0a 02 0a 	add.d $f10,$f10,$f2
  401678:	2b 00 00 00 00 00 00 07 	l.d $f0,0($7)
  401680:	28 00 00 00 70 00 18 1d 	lw $24,112($29)
  401688:	71 00 00 00 00 0a 00 0a 	add.d $f10,$f10,$f0
  401690:	42 00 00 00 00 06 18 10 	addu $6,$16,$24
  401698:	55 00 00 00 03 06 06 00 	sll $6,$6,0x3
  4016a0:	42 00 00 00 00 06 09 06 	addu $6,$6,$9
  4016a8:	2b 00 00 00 00 00 00 06 	l.d $f0,0($6)
  4016b0:	71 00 00 00 00 0a 00 0a 	add.d $f10,$f10,$f0
  4016b8:	2b 00 00 00 08 00 06 02 	l.d $f6,8($2)
  4016c0:	28 00 00 00 78 00 19 1d 	lw $25,120($29)
  4016c8:	2b 00 00 00 f8 ff 04 03 	l.d $f4,-8($3)
  4016d0:	2b 00 00 00 08 00 00 03 	l.d $f0,8($3)
  4016d8:	2b 00 00 00 f8 ff 02 02 	l.d $f2,-8($2)
  4016e0:	28 00 00 00 a8 00 18 1d 	lw $24,168($29)
  4016e8:	71 00 00 00 00 04 00 04 	add.d $f4,$f4,$f0
  4016f0:	42 00 00 00 00 02 19 10 	addu $2,$16,$25
  4016f8:	55 00 00 00 03 02 02 00 	sll $2,$2,0x3
  401700:	28 00 00 00 a0 00 19 1d 	lw $25,160($29)
  401708:	71 00 00 00 00 04 02 04 	add.d $f4,$f4,$f2
  401710:	42 00 00 00 00 02 09 02 	addu $2,$2,$9
  401718:	42 00 00 00 00 04 19 10 	addu $4,$16,$25
  401720:	42 00 00 00 00 03 18 10 	addu $3,$16,$24
  401728:	71 00 00 00 00 04 06 04 	add.d $f4,$f4,$f6
  401730:	2b 00 00 00 00 00 00 02 	l.d $f0,0($2)
  401738:	55 00 00 00 03 03 03 00 	sll $3,$3,0x3
  401740:	42 00 00 00 00 03 09 03 	addu $3,$3,$9
  401748:	71 00 00 00 00 04 00 04 	add.d $f4,$f4,$f0
  401750:	2b 00 00 00 00 00 02 03 	l.d $f2,0($3)
  401758:	55 00 00 00 03 04 04 00 	sll $4,$4,0x3
  401760:	42 00 00 00 00 04 09 04 	addu $4,$4,$9
  401768:	71 00 00 00 00 04 02 04 	add.d $f4,$f4,$f2
  401770:	2b 00 00 00 00 00 00 04 	l.d $f0,0($4)
  401778:	71 00 00 00 00 04 00 04 	add.d $f4,$f4,$f0
  401780:	42 00 00 00 00 05 13 10 	addu $5,$16,$19
  401788:	55 00 00 00 03 05 05 00 	sll $5,$5,0x3
  401790:	42 00 00 00 00 05 09 05 	addu $5,$5,$9
  401798:	2b 00 00 00 00 00 00 05 	l.d $f0,0($5)
  4017a0:	71 00 00 00 00 04 00 04 	add.d $f4,$f4,$f0
  4017a8:	2b 00 00 00 f8 ff 00 07 	l.d $f0,-8($7)
  4017b0:	71 00 00 00 00 04 00 04 	add.d $f4,$f4,$f0
  4017b8:	2b 00 00 00 f8 ff 00 06 	l.d $f0,-8($6)
  4017c0:	71 00 00 00 00 04 00 04 	add.d $f4,$f4,$f0
  4017c8:	2b 00 00 00 08 00 00 07 	l.d $f0,8($7)
  4017d0:	71 00 00 00 00 04 00 04 	add.d $f4,$f4,$f0
  4017d8:	2b 00 00 00 08 00 00 06 	l.d $f0,8($6)
  4017e0:	71 00 00 00 00 04 00 04 	add.d $f4,$f4,$f0
  4017e8:	2b 00 00 00 f8 ff 02 02 	l.d $f2,-8($2)
  4017f0:	2b 00 00 00 08 00 00 02 	l.d $f0,8($2)
  4017f8:	71 00 00 00 00 02 00 02 	add.d $f2,$f2,$f0
  401800:	2b 00 00 00 f8 ff 00 03 	l.d $f0,-8($3)
  401808:	71 00 00 00 00 02 00 02 	add.d $f2,$f2,$f0
  401810:	2b 00 00 00 08 00 00 03 	l.d $f0,8($3)
  401818:	71 00 00 00 00 02 00 02 	add.d $f2,$f2,$f0
  401820:	2b 00 00 00 00 00 0c 0b 	l.d $f12,0($11)
  401828:	2b 00 00 00 f8 ff 00 04 	l.d $f0,-8($4)
  401830:	2b 00 00 00 00 00 06 08 	l.d $f6,0($8)
  401838:	71 00 00 00 00 02 00 02 	add.d $f2,$f2,$f0
  401840:	75 00 00 00 00 0c 06 0c 	mul.d $f12,$f12,$f6
  401848:	2b 00 00 00 08 00 00 04 	l.d $f0,8($4)
  401850:	71 00 00 00 00 02 00 02 	add.d $f2,$f2,$f0
  401858:	2b 00 00 00 10 00 06 0b 	l.d $f6,16($11)
  401860:	2b 00 00 00 f8 ff 00 05 	l.d $f0,-8($5)
  401868:	75 00 00 00 00 06 04 06 	mul.d $f6,$f6,$f4
  401870:	71 00 00 00 00 02 00 02 	add.d $f2,$f2,$f0
  401878:	2b 00 00 00 08 00 08 0b 	l.d $f8,8($11)
  401880:	28 00 00 00 10 00 19 1d 	lw $25,16($29)
  401888:	2b 00 00 00 08 00 00 05 	l.d $f0,8($5)
  401890:	28 00 00 00 30 00 18 1d 	lw $24,48($29)
  401898:	75 00 00 00 00 08 0a 08 	mul.d $f8,$f8,$f10
  4018a0:	71 00 00 00 00 02 00 02 	add.d $f2,$f2,$f0
  4018a8:	42 00 00 00 00 02 18 10 	addu $2,$16,$24
  4018b0:	55 00 00 00 03 02 02 00 	sll $2,$2,0x3
  4018b8:	42 00 00 00 00 02 19 02 	addu $2,$2,$25
  4018c0:	2b 00 00 00 00 00 00 02 	l.d $f0,0($2)
  4018c8:	2b 00 00 00 18 00 04 0b 	l.d $f4,24($11)
  4018d0:	71 00 00 00 00 00 0c 00 	add.d $f0,$f0,$f12
  4018d8:	75 00 00 00 00 04 02 04 	mul.d $f4,$f4,$f2
  4018e0:	71 00 00 00 00 00 08 00 	add.d $f0,$f0,$f8
  4018e8:	71 00 00 00 00 00 06 00 	add.d $f0,$f0,$f6
  4018f0:	71 00 00 00 00 00 04 00 	add.d $f0,$f0,$f4
  4018f8:	43 00 00 00 01 00 10 10 	addiu $16,$16,1
  401900:	37 00 00 00 00 00 00 02 	s.d $f0,0($2)
  401908:	5b 00 00 00 00 02 10 15 	slt $2,$21,$16
  401910:	05 00 00 00 2a ff 00 02 	beq $2,$0,4015c0 <psinv_+0x348>
  401918:	43 00 00 00 01 00 11 11 	addiu $17,$17,1
  401920:	5b 00 00 00 00 02 11 16 	slt $2,$22,$17
  401928:	05 00 00 00 bc fe 00 02 	beq $2,$0,401420 <psinv_+0x1a8>
  401930:	28 00 00 00 80 00 18 1d 	lw $24,128($29)
  401938:	28 00 00 00 88 00 19 1d 	lw $25,136($29)
  401940:	42 00 00 00 00 0c 0f 0c 	addu $12,$12,$15
  401948:	42 00 00 00 00 18 0f 18 	addu $24,$24,$15
  401950:	34 00 00 00 80 00 18 1d 	sw $24,128($29)
  401958:	28 00 00 00 90 00 18 1d 	lw $24,144($29)
  401960:	42 00 00 00 00 12 0f 12 	addu $18,$18,$15
  401968:	42 00 00 00 00 19 0f 19 	addu $25,$25,$15
  401970:	34 00 00 00 88 00 19 1d 	sw $25,136($29)
  401978:	28 00 00 00 18 00 19 1d 	lw $25,24($29)
  401980:	43 00 00 00 01 00 14 14 	addiu $20,$20,1
  401988:	5b 00 00 00 00 02 14 17 	slt $2,$23,$20
  401990:	42 00 00 00 00 18 19 18 	addu $24,$24,$25
  401998:	34 00 00 00 90 00 18 1d 	sw $24,144($29)
  4019a0:	05 00 00 00 80 fe 00 02 	beq $2,$0,4013a8 <psinv_+0x130>
  4019a8:	28 00 00 00 20 00 18 1d 	lw $24,32($29)
  4019b0:	28 00 00 00 10 00 19 1d 	lw $25,16($29)
  4019b8:	42 00 00 00 00 05 0e 00 	addu $5,$0,$14
  4019c0:	34 00 00 00 98 00 0e 1d 	sw $14,152($29)
  4019c8:	55 00 00 00 03 04 18 00 	sll $4,$24,0x3
  4019d0:	42 00 00 00 00 04 04 19 	addu $4,$25,$4
  4019d8:	02 00 00 00 ce 10 10 00 	jal 404338 <comm3_>
  4019e0:	a2 00 00 00 00 10 04 00 	lui $4,4096
  4019e8:	43 00 00 00 80 25 04 04 	addiu $4,$4,9600
  4019f0:	02 00 00 00 50 27 10 00 	jal 409d40 <s_wsfe>
  4019f8:	28 00 00 00 98 00 0e 1d 	lw $14,152($29)
  401a00:	28 00 00 00 00 00 15 0e 	lw $21,0($14)
  401a08:	43 00 00 00 01 00 14 00 	addiu $20,$0,1
  401a10:	07 00 00 00 3c 00 00 15 	blez $21,401b08 <psinv_+0x890>
  401a18:	28 00 00 00 00 00 16 0e 	lw $22,0($14)
  401a20:	43 00 00 00 01 00 11 00 	addiu $17,$0,1
  401a28:	07 00 00 00 30 00 00 16 	blez $22,401af0 <psinv_+0x878>
  401a30:	28 00 00 00 18 00 18 1d 	lw $24,24($29)
  401a38:	46 00 00 00 00 00 18 14 	mult $20,$24
  401a40:	4c 00 00 00 00 13 00 00 	mflo $19
  401a48:	28 00 00 00 00 00 17 0e 	lw $23,0($14)
  401a50:	43 00 00 00 01 00 10 00 	addiu $16,$0,1
  401a58:	07 00 00 00 1e 00 00 17 	blez $23,401ad8 <psinv_+0x860>
  401a60:	42 00 00 00 00 02 13 11 	addu $2,$17,$19
  401a68:	46 00 00 00 00 00 1e 02 	mult $2,$30
  401a70:	4c 00 00 00 00 12 00 00 	mflo $18
  401a78:	43 00 00 00 04 80 04 1c 	addiu $4,$28,-32764
  401a80:	42 00 00 00 00 05 12 10 	addu $5,$16,$18
  401a88:	28 00 00 00 10 00 19 1d 	lw $25,16($29)
  401a90:	55 00 00 00 03 05 05 00 	sll $5,$5,0x3
  401a98:	43 00 00 00 08 00 06 00 	addiu $6,$0,8
  401aa0:	34 00 00 00 98 00 0e 1d 	sw $14,152($29)
  401aa8:	42 00 00 00 00 05 05 19 	addu $5,$25,$5
  401ab0:	02 00 00 00 ec 33 10 00 	jal 40cfb0 <do_fio>
  401ab8:	28 00 00 00 98 00 0e 1d 	lw $14,152($29)
  401ac0:	43 00 00 00 45 00 10 10 	addiu $16,$16,69
  401ac8:	5b 00 00 00 00 02 10 17 	slt $2,$23,$16
  401ad0:	05 00 00 00 e8 ff 00 02 	beq $2,$0,401a78 <psinv_+0x800>
  401ad8:	43 00 00 00 45 00 11 11 	addiu $17,$17,69
  401ae0:	5b 00 00 00 00 02 11 16 	slt $2,$22,$17
  401ae8:	05 00 00 00 d6 ff 00 02 	beq $2,$0,401a48 <psinv_+0x7d0>
  401af0:	43 00 00 00 45 00 14 14 	addiu $20,$20,69
  401af8:	5b 00 00 00 00 02 14 15 	slt $2,$21,$20
  401b00:	05 00 00 00 c4 ff 00 02 	beq $2,$0,401a18 <psinv_+0x7a0>
  401b08:	02 00 00 00 62 36 10 00 	jal 40d988 <e_wsfe>
  401b10:	42 00 00 00 00 02 00 00 	addu $2,$0,$0
  401b18:	28 00 00 00 d4 00 1f 1d 	lw $31,212($29)
  401b20:	28 00 00 00 d0 00 1e 1d 	lw $30,208($29)
  401b28:	28 00 00 00 cc 00 17 1d 	lw $23,204($29)
  401b30:	28 00 00 00 c8 00 16 1d 	lw $22,200($29)
  401b38:	28 00 00 00 c4 00 15 1d 	lw $21,196($29)
  401b40:	28 00 00 00 c0 00 14 1d 	lw $20,192($29)
  401b48:	28 00 00 00 bc 00 13 1d 	lw $19,188($29)
  401b50:	28 00 00 00 b8 00 12 1d 	lw $18,184($29)
  401b58:	28 00 00 00 b4 00 11 1d 	lw $17,180($29)
  401b60:	28 00 00 00 b0 00 10 1d 	lw $16,176($29)
  401b68:	43 00 00 00 d8 00 1d 1d 	addiu $29,$29,216
  401b70:	03 00 00 00 00 00 00 1f 	jr $31

00401b78 <resid_>:
  401b78:	43 00 00 00 08 ff 1d 1d 	addiu $29,$29,-248
  401b80:	34 00 00 00 f0 00 1e 1d 	sw $30,240($29)
  401b88:	42 00 00 00 00 1e 07 00 	addu $30,$0,$7
  401b90:	34 00 00 00 f4 00 1f 1d 	sw $31,244($29)
  401b98:	34 00 00 00 ec 00 17 1d 	sw $23,236($29)
  401ba0:	34 00 00 00 e8 00 16 1d 	sw $22,232($29)
  401ba8:	34 00 00 00 e4 00 15 1d 	sw $21,228($29)
  401bb0:	34 00 00 00 e0 00 14 1d 	sw $20,224($29)
  401bb8:	34 00 00 00 dc 00 13 1d 	sw $19,220($29)
  401bc0:	34 00 00 00 d8 00 12 1d 	sw $18,216($29)
  401bc8:	34 00 00 00 d4 00 11 1d 	sw $17,212($29)
  401bd0:	34 00 00 00 d0 00 10 1d 	sw $16,208($29)
  401bd8:	28 00 00 00 00 00 0f 1e 	lw $15,0($30)
  401be0:	43 00 00 00 01 00 02 0f 	addiu $2,$15,1
  401be8:	46 00 00 00 00 00 02 0f 	mult $15,$2
  401bf0:	43 00 00 00 02 00 10 00 	addiu $16,$0,2
  401bf8:	28 00 00 00 08 01 19 1d 	lw $25,264($29)
  401c00:	42 00 00 00 00 0c 0f 00 	addu $12,$0,$15
  401c08:	4c 00 00 00 00 02 00 00 	mflo $2
  401c10:	42 00 00 00 00 18 0f 00 	addu $24,$0,$15
  401c18:	43 00 00 00 ff ff 13 0f 	addiu $19,$15,-1
  401c20:	34 00 00 00 28 00 0f 1d 	sw $15,40($29)
  401c28:	34 00 00 00 18 00 0f 1d 	sw $15,24($29)
  401c30:	34 00 00 00 20 00 0f 1d 	sw $15,32($29)
  401c38:	34 00 00 00 38 00 13 1d 	sw $19,56($29)
  401c40:	43 00 00 00 01 00 02 02 	addiu $2,$2,1
  401c48:	34 00 00 00 30 00 02 1d 	sw $2,48($29)
  401c50:	55 00 00 00 03 02 02 00 	sll $2,$2,0x3
  401c58:	45 00 00 00 00 15 02 06 	subu $21,$6,$2
  401c60:	45 00 00 00 00 05 02 05 	subu $5,$5,$2
  401c68:	45 00 00 00 00 0b 02 04 	subu $11,$4,$2
  401c70:	5c 00 00 00 02 00 02 13 	slti $2,$19,2
  401c78:	34 00 00 00 10 00 05 1d 	sw $5,16($29)
  401c80:	06 00 00 00 b0 01 00 02 	bne $2,$0,402348 <resid_+0x7d0>
  401c88:	55 00 00 00 01 02 0f 00 	sll $2,$15,0x1
  401c90:	42 00 00 00 00 0d 0f 02 	addu $13,$2,$15
  401c98:	43 00 00 00 01 00 13 02 	addiu $19,$2,1
  401ca0:	34 00 00 00 b0 00 13 1d 	sw $19,176($29)
  401ca8:	43 00 00 00 ff ff 13 02 	addiu $19,$2,-1
  401cb0:	42 00 00 00 00 12 02 00 	addu $18,$0,$2
  401cb8:	42 00 00 00 00 11 12 00 	addu $17,$0,$18
  401cc0:	34 00 00 00 b8 00 13 1d 	sw $19,184($29)
  401cc8:	34 00 00 00 c0 00 11 1d 	sw $17,192($29)
  401cd0:	28 00 00 00 00 00 02 1e 	lw $2,0($30)
  401cd8:	43 00 00 00 02 00 0a 00 	addiu $10,$0,2
  401ce0:	43 00 00 00 ff ff 02 02 	addiu $2,$2,-1
  401ce8:	34 00 00 00 40 00 02 1d 	sw $2,64($29)
  401cf0:	5c 00 00 00 02 00 02 02 	slti $2,$2,2
  401cf8:	06 00 00 00 70 01 00 02 	bne $2,$0,4022c0 <resid_+0x748>
  401d00:	28 00 00 00 c0 00 13 1d 	lw $19,192($29)
  401d08:	34 00 00 00 48 00 13 1d 	sw $19,72($29)
  401d10:	28 00 00 00 b8 00 13 1d 	lw $19,184($29)
  401d18:	34 00 00 00 78 00 13 1d 	sw $19,120($29)
  401d20:	28 00 00 00 b0 00 13 1d 	lw $19,176($29)
  401d28:	34 00 00 00 58 00 11 1d 	sw $17,88($29)
  401d30:	34 00 00 00 68 00 12 1d 	sw $18,104($29)
  401d38:	34 00 00 00 88 00 13 1d 	sw $19,136($29)
  401d40:	43 00 00 00 ff ff 13 10 	addiu $19,$16,-1
  401d48:	34 00 00 00 98 00 13 1d 	sw $19,152($29)
  401d50:	28 00 00 00 00 00 02 1e 	lw $2,0($30)
  401d58:	43 00 00 00 02 00 09 00 	addiu $9,$0,2
  401d60:	43 00 00 00 ff ff 0e 02 	addiu $14,$2,-1
  401d68:	5c 00 00 00 02 00 02 0e 	slti $2,$14,2
  401d70:	06 00 00 00 4a 01 00 02 	bne $2,$0,4022a0 <resid_+0x728>
  401d78:	28 00 00 00 48 00 13 1d 	lw $19,72($29)
  401d80:	42 00 00 00 00 02 13 0a 	addu $2,$10,$19
  401d88:	28 00 00 00 28 00 13 1d 	lw $19,40($29)
  401d90:	46 00 00 00 00 00 13 02 	mult $2,$19
  401d98:	4c 00 00 00 00 13 00 00 	mflo $19
  401da0:	34 00 00 00 50 00 13 1d 	sw $19,80($29)
  401da8:	28 00 00 00 58 00 13 1d 	lw $19,88($29)
  401db0:	42 00 00 00 00 02 13 0a 	addu $2,$10,$19
  401db8:	28 00 00 00 18 00 13 1d 	lw $19,24($29)
  401dc0:	46 00 00 00 00 00 13 02 	mult $2,$19
  401dc8:	4c 00 00 00 00 13 00 00 	mflo $19
  401dd0:	34 00 00 00 60 00 13 1d 	sw $19,96($29)
  401dd8:	28 00 00 00 68 00 13 1d 	lw $19,104($29)
  401de0:	42 00 00 00 00 02 13 0a 	addu $2,$10,$19
  401de8:	46 00 00 00 00 00 0c 02 	mult $2,$12
  401df0:	4c 00 00 00 00 13 00 00 	mflo $19
  401df8:	34 00 00 00 70 00 13 1d 	sw $19,112($29)
  401e00:	28 00 00 00 78 00 13 1d 	lw $19,120($29)
  401e08:	42 00 00 00 00 02 13 0a 	addu $2,$10,$19
  401e10:	46 00 00 00 00 00 0c 02 	mult $2,$12
  401e18:	4c 00 00 00 00 13 00 00 	mflo $19
  401e20:	34 00 00 00 80 00 13 1d 	sw $19,128($29)
  401e28:	28 00 00 00 88 00 13 1d 	lw $19,136($29)
  401e30:	42 00 00 00 00 02 13 0a 	addu $2,$10,$19
  401e38:	46 00 00 00 00 00 0c 02 	mult $2,$12
  401e40:	4c 00 00 00 00 13 00 00 	mflo $19
  401e48:	34 00 00 00 90 00 13 1d 	sw $19,144($29)
  401e50:	28 00 00 00 98 00 13 1d 	lw $19,152($29)
  401e58:	46 00 00 00 00 00 18 13 	mult $19,$24
  401e60:	4c 00 00 00 00 03 00 00 	mflo $3
  401e68:	42 00 00 00 00 02 03 0a 	addu $2,$10,$3
  401e70:	46 00 00 00 00 00 0c 02 	mult $2,$12
  401e78:	4c 00 00 00 00 13 00 00 	mflo $19
  401e80:	42 00 00 00 00 02 0d 0a 	addu $2,$10,$13
  401e88:	46 00 00 00 00 00 0c 02 	mult $2,$12
  401e90:	34 00 00 00 a0 00 13 1d 	sw $19,160($29)
  401e98:	4c 00 00 00 00 13 00 00 	mflo $19
  401ea0:	43 00 00 00 ff ff 02 03 	addiu $2,$3,-1
  401ea8:	42 00 00 00 00 02 02 0a 	addu $2,$10,$2
  401eb0:	46 00 00 00 00 00 0c 02 	mult $2,$12
  401eb8:	4c 00 00 00 00 17 00 00 	mflo $23
  401ec0:	43 00 00 00 01 00 03 03 	addiu $3,$3,1
  401ec8:	42 00 00 00 00 03 03 0a 	addu $3,$10,$3
  401ed0:	46 00 00 00 00 00 0c 03 	mult $3,$12
  401ed8:	4c 00 00 00 00 16 00 00 	mflo $22
  401ee0:	43 00 00 00 01 00 02 0d 	addiu $2,$13,1
  401ee8:	42 00 00 00 00 02 02 0a 	addu $2,$10,$2
  401ef0:	46 00 00 00 00 00 0c 02 	mult $2,$12
  401ef8:	42 00 00 00 00 14 0d 00 	addu $20,$0,$13
  401f00:	34 00 00 00 a8 00 13 1d 	sw $19,168($29)
  401f08:	4c 00 00 00 00 13 00 00 	mflo $19
  401f10:	34 00 00 00 c8 00 13 1d 	sw $19,200($29)
  401f18:	43 00 00 00 ff ff 02 14 	addiu $2,$20,-1
  401f20:	42 00 00 00 00 02 02 0a 	addu $2,$10,$2
  401f28:	28 00 00 00 70 00 13 1d 	lw $19,112($29)
  401f30:	46 00 00 00 00 00 0c 02 	mult $2,$12
  401f38:	42 00 00 00 00 08 13 09 	addu $8,$9,$19
  401f40:	55 00 00 00 03 08 08 00 	sll $8,$8,0x3
  401f48:	42 00 00 00 00 08 0b 08 	addu $8,$8,$11
  401f50:	28 00 00 00 80 00 13 1d 	lw $19,128($29)
  401f58:	2b 00 00 00 f8 ff 0a 08 	l.d $f10,-8($8)
  401f60:	2b 00 00 00 08 00 00 08 	l.d $f0,8($8)
  401f68:	42 00 00 00 00 03 13 09 	addu $3,$9,$19
  401f70:	55 00 00 00 03 03 03 00 	sll $3,$3,0x3
  401f78:	42 00 00 00 00 03 0b 03 	addu $3,$3,$11
  401f80:	71 00 00 00 00 0a 00 0a 	add.d $f10,$f10,$f0
  401f88:	2b 00 00 00 00 00 04 03 	l.d $f4,0($3)
  401f90:	28 00 00 00 90 00 13 1d 	lw $19,144($29)
  401f98:	71 00 00 00 00 0a 04 0a 	add.d $f10,$f10,$f4
  401fa0:	42 00 00 00 00 02 13 09 	addu $2,$9,$19
  401fa8:	55 00 00 00 03 02 02 00 	sll $2,$2,0x3
  401fb0:	28 00 00 00 a0 00 13 1d 	lw $19,160($29)
  401fb8:	42 00 00 00 00 02 0b 02 	addu $2,$2,$11
  401fc0:	2b 00 00 00 00 00 02 02 	l.d $f2,0($2)
  401fc8:	42 00 00 00 00 07 13 09 	addu $7,$9,$19
  401fd0:	55 00 00 00 03 07 07 00 	sll $7,$7,0x3
  401fd8:	42 00 00 00 00 07 0b 07 	addu $7,$7,$11
  401fe0:	71 00 00 00 00 0a 02 0a 	add.d $f10,$f10,$f2
  401fe8:	2b 00 00 00 00 00 00 07 	l.d $f0,0($7)
  401ff0:	28 00 00 00 a8 00 13 1d 	lw $19,168($29)
  401ff8:	71 00 00 00 00 0a 00 0a 	add.d $f10,$f10,$f0
  402000:	42 00 00 00 00 06 13 09 	addu $6,$9,$19
  402008:	55 00 00 00 03 06 06 00 	sll $6,$6,0x3
  402010:	42 00 00 00 00 06 0b 06 	addu $6,$6,$11
  402018:	2b 00 00 00 00 00 00 06 	l.d $f0,0($6)
  402020:	2b 00 00 00 f8 ff 04 03 	l.d $f4,-8($3)
  402028:	71 00 00 00 00 0a 00 0a 	add.d $f10,$f10,$f0
  402030:	2b 00 00 00 08 00 02 03 	l.d $f2,8($3)
  402038:	2b 00 00 00 08 00 08 02 	l.d $f8,8($2)
  402040:	4c 00 00 00 00 04 00 00 	mflo $4
  402048:	71 00 00 00 00 04 02 04 	add.d $f4,$f4,$f2
  402050:	2b 00 00 00 f8 ff 00 02 	l.d $f0,-8($2)
  402058:	42 00 00 00 00 04 04 09 	addu $4,$9,$4
  402060:	42 00 00 00 00 03 16 09 	addu $3,$9,$22
  402068:	71 00 00 00 00 04 00 04 	add.d $f4,$f4,$f0
  402070:	42 00 00 00 00 02 17 09 	addu $2,$9,$23
  402078:	55 00 00 00 03 02 02 00 	sll $2,$2,0x3
  402080:	42 00 00 00 00 02 0b 02 	addu $2,$2,$11
  402088:	71 00 00 00 00 04 08 04 	add.d $f4,$f4,$f8
  402090:	2b 00 00 00 00 00 06 02 	l.d $f6,0($2)
  402098:	55 00 00 00 03 03 03 00 	sll $3,$3,0x3
  4020a0:	42 00 00 00 00 03 0b 03 	addu $3,$3,$11
  4020a8:	71 00 00 00 00 04 06 04 	add.d $f4,$f4,$f6
  4020b0:	2b 00 00 00 00 00 02 03 	l.d $f2,0($3)
  4020b8:	55 00 00 00 03 04 04 00 	sll $4,$4,0x3
  4020c0:	42 00 00 00 00 04 0b 04 	addu $4,$4,$11
  4020c8:	71 00 00 00 00 04 02 04 	add.d $f4,$f4,$f2
  4020d0:	2b 00 00 00 00 00 00 04 	l.d $f0,0($4)
  4020d8:	28 00 00 00 c8 00 13 1d 	lw $19,200($29)
  4020e0:	71 00 00 00 00 04 00 04 	add.d $f4,$f4,$f0
  4020e8:	42 00 00 00 00 05 13 09 	addu $5,$9,$19
  4020f0:	55 00 00 00 03 05 05 00 	sll $5,$5,0x3
  4020f8:	42 00 00 00 00 05 0b 05 	addu $5,$5,$11
  402100:	2b 00 00 00 00 00 00 05 	l.d $f0,0($5)
  402108:	71 00 00 00 00 04 00 04 	add.d $f4,$f4,$f0
  402110:	2b 00 00 00 f8 ff 00 07 	l.d $f0,-8($7)
  402118:	71 00 00 00 00 04 00 04 	add.d $f4,$f4,$f0
  402120:	2b 00 00 00 f8 ff 00 06 	l.d $f0,-8($6)
  402128:	71 00 00 00 00 04 00 04 	add.d $f4,$f4,$f0
  402130:	2b 00 00 00 08 00 00 07 	l.d $f0,8($7)
  402138:	71 00 00 00 00 04 00 04 	add.d $f4,$f4,$f0
  402140:	2b 00 00 00 08 00 00 06 	l.d $f0,8($6)
  402148:	71 00 00 00 00 04 00 04 	add.d $f4,$f4,$f0
  402150:	2b 00 00 00 f8 ff 02 02 	l.d $f2,-8($2)
  402158:	2b 00 00 00 08 00 00 02 	l.d $f0,8($2)
  402160:	71 00 00 00 00 02 00 02 	add.d $f2,$f2,$f0
  402168:	2b 00 00 00 f8 ff 00 03 	l.d $f0,-8($3)
  402170:	71 00 00 00 00 02 00 02 	add.d $f2,$f2,$f0
  402178:	2b 00 00 00 08 00 00 03 	l.d $f0,8($3)
  402180:	71 00 00 00 00 02 00 02 	add.d $f2,$f2,$f0
  402188:	2b 00 00 00 f8 ff 00 04 	l.d $f0,-8($4)
  402190:	2b 00 00 00 00 00 0c 19 	l.d $f12,0($25)
  402198:	2b 00 00 00 00 00 06 08 	l.d $f6,0($8)
  4021a0:	71 00 00 00 00 02 00 02 	add.d $f2,$f2,$f0
  4021a8:	75 00 00 00 00 0c 06 0c 	mul.d $f12,$f12,$f6
  4021b0:	2b 00 00 00 08 00 00 04 	l.d $f0,8($4)
  4021b8:	71 00 00 00 00 02 00 02 	add.d $f2,$f2,$f0
  4021c0:	2b 00 00 00 10 00 06 19 	l.d $f6,16($25)
  4021c8:	2b 00 00 00 f8 ff 00 05 	l.d $f0,-8($5)
  4021d0:	75 00 00 00 00 06 04 06 	mul.d $f6,$f6,$f4
  4021d8:	71 00 00 00 00 02 00 02 	add.d $f2,$f2,$f0
  4021e0:	28 00 00 00 60 00 13 1d 	lw $19,96($29)
  4021e8:	2b 00 00 00 08 00 08 19 	l.d $f8,8($25)
  4021f0:	2b 00 00 00 08 00 00 05 	l.d $f0,8($5)
  4021f8:	42 00 00 00 00 02 13 09 	addu $2,$9,$19
  402200:	28 00 00 00 10 00 13 1d 	lw $19,16($29)
  402208:	71 00 00 00 00 02 00 02 	add.d $f2,$f2,$f0
  402210:	75 00 00 00 00 08 0a 08 	mul.d $f8,$f8,$f10
  402218:	55 00 00 00 03 02 02 00 	sll $2,$2,0x3
  402220:	42 00 00 00 00 02 13 02 	addu $2,$2,$19
  402228:	2b 00 00 00 00 00 00 02 	l.d $f0,0($2)
  402230:	2b 00 00 00 18 00 04 19 	l.d $f4,24($25)
  402238:	73 00 00 00 00 00 0c 00 	sub.d $f0,$f0,$f12
  402240:	75 00 00 00 00 04 02 04 	mul.d $f4,$f4,$f2
  402248:	73 00 00 00 00 00 08 00 	sub.d $f0,$f0,$f8
  402250:	28 00 00 00 50 00 13 1d 	lw $19,80($29)
  402258:	73 00 00 00 00 00 06 00 	sub.d $f0,$f0,$f6
  402260:	42 00 00 00 00 02 13 09 	addu $2,$9,$19
  402268:	73 00 00 00 00 00 04 00 	sub.d $f0,$f0,$f4
  402270:	43 00 00 00 01 00 09 09 	addiu $9,$9,1
  402278:	55 00 00 00 03 02 02 00 	sll $2,$2,0x3
  402280:	42 00 00 00 00 02 15 02 	addu $2,$2,$21
  402288:	37 00 00 00 00 00 00 02 	s.d $f0,0($2)
  402290:	5b 00 00 00 00 02 09 0e 	slt $2,$14,$9
  402298:	05 00 00 00 1e ff 00 02 	beq $2,$0,401f18 <resid_+0x3a0>
  4022a0:	28 00 00 00 40 00 13 1d 	lw $19,64($29)
  4022a8:	43 00 00 00 01 00 0a 0a 	addiu $10,$10,1
  4022b0:	5b 00 00 00 00 02 0a 13 	slt $2,$19,$10
  4022b8:	05 00 00 00 a4 fe 00 02 	beq $2,$0,401d50 <resid_+0x1d8>
  4022c0:	28 00 00 00 b0 00 13 1d 	lw $19,176($29)
  4022c8:	42 00 00 00 00 13 18 13 	addu $19,$19,$24
  4022d0:	34 00 00 00 b0 00 13 1d 	sw $19,176($29)
  4022d8:	28 00 00 00 b8 00 13 1d 	lw $19,184($29)
  4022e0:	42 00 00 00 00 13 18 13 	addu $19,$19,$24
  4022e8:	34 00 00 00 b8 00 13 1d 	sw $19,184($29)
  4022f0:	28 00 00 00 20 00 13 1d 	lw $19,32($29)
  4022f8:	42 00 00 00 00 11 13 11 	addu $17,$17,$19
  402300:	28 00 00 00 c0 00 13 1d 	lw $19,192($29)
  402308:	42 00 00 00 00 0d 18 0d 	addu $13,$13,$24
  402310:	42 00 00 00 00 13 0f 13 	addu $19,$19,$15
  402318:	34 00 00 00 c0 00 13 1d 	sw $19,192($29)
  402320:	28 00 00 00 38 00 13 1d 	lw $19,56($29)
  402328:	42 00 00 00 00 12 18 12 	addu $18,$18,$24
  402330:	43 00 00 00 01 00 10 10 	addiu $16,$16,1
  402338:	5b 00 00 00 00 02 10 13 	slt $2,$19,$16
  402340:	05 00 00 00 62 fe 00 02 	beq $2,$0,401cd0 <resid_+0x158>
  402348:	28 00 00 00 30 00 13 1d 	lw $19,48($29)
  402350:	42 00 00 00 00 05 1e 00 	addu $5,$0,$30
  402358:	55 00 00 00 03 04 13 00 	sll $4,$19,0x3
  402360:	42 00 00 00 00 04 04 15 	addu $4,$21,$4
  402368:	02 00 00 00 ce 10 10 00 	jal 404338 <comm3_>
  402370:	42 00 00 00 00 02 00 00 	addu $2,$0,$0
  402378:	28 00 00 00 f4 00 1f 1d 	lw $31,244($29)
  402380:	28 00 00 00 f0 00 1e 1d 	lw $30,240($29)
  402388:	28 00 00 00 ec 00 17 1d 	lw $23,236($29)
  402390:	28 00 00 00 e8 00 16 1d 	lw $22,232($29)
  402398:	28 00 00 00 e4 00 15 1d 	lw $21,228($29)
  4023a0:	28 00 00 00 e0 00 14 1d 	lw $20,224($29)
  4023a8:	28 00 00 00 dc 00 13 1d 	lw $19,220($29)
  4023b0:	28 00 00 00 d8 00 12 1d 	lw $18,216($29)
  4023b8:	28 00 00 00 d4 00 11 1d 	lw $17,212($29)
  4023c0:	28 00 00 00 d0 00 10 1d 	lw $16,208($29)
  4023c8:	43 00 00 00 f8 00 1d 1d 	addiu $29,$29,248
  4023d0:	03 00 00 00 00 00 00 1f 	jr $31

004023d8 <rprj3_>:
  4023d8:	43 00 00 00 30 ff 1d 1d 	addiu $29,$29,-208
  4023e0:	34 00 00 00 cc 00 1f 1d 	sw $31,204($29)
  4023e8:	34 00 00 00 c8 00 1e 1d 	sw $30,200($29)
  4023f0:	34 00 00 00 c4 00 17 1d 	sw $23,196($29)
  4023f8:	34 00 00 00 c0 00 16 1d 	sw $22,192($29)
  402400:	34 00 00 00 bc 00 15 1d 	sw $21,188($29)
  402408:	34 00 00 00 b8 00 14 1d 	sw $20,184($29)
  402410:	34 00 00 00 b4 00 13 1d 	sw $19,180($29)
  402418:	34 00 00 00 b0 00 12 1d 	sw $18,176($29)
  402420:	34 00 00 00 ac 00 11 1d 	sw $17,172($29)
  402428:	34 00 00 00 a8 00 10 1d 	sw $16,168($29)
  402430:	28 00 00 00 00 00 0c 05 	lw $12,0($5)
  402438:	43 00 00 00 01 00 02 0c 	addiu $2,$12,1
  402440:	46 00 00 00 00 00 02 0c 	mult $12,$2
  402448:	42 00 00 00 00 1e 07 00 	addu $30,$0,$7
  402450:	28 00 00 00 00 00 16 1e 	lw $22,0($30)
  402458:	4c 00 00 00 00 03 00 00 	mflo $3
  402460:	43 00 00 00 01 00 02 16 	addiu $2,$22,1
  402468:	46 00 00 00 00 00 02 16 	mult $22,$2
  402470:	43 00 00 00 02 00 11 00 	addiu $17,$0,2
  402478:	42 00 00 00 00 14 0c 00 	addu $20,$0,$12
  402480:	43 00 00 00 ff ff 13 16 	addiu $19,$22,-1
  402488:	34 00 00 00 30 00 11 1d 	sw $17,48($29)
  402490:	34 00 00 00 10 00 16 1d 	sw $22,16($29)
  402498:	34 00 00 00 20 00 13 1d 	sw $19,32($29)
  4024a0:	43 00 00 00 01 00 02 03 	addiu $2,$3,1
  4024a8:	4c 00 00 00 00 03 00 00 	mflo $3
  4024b0:	55 00 00 00 03 02 02 00 	sll $2,$2,0x3
  4024b8:	45 00 00 00 00 0b 02 04 	subu $11,$4,$2
  4024c0:	43 00 00 00 01 00 03 03 	addiu $3,$3,1
  4024c8:	55 00 00 00 03 02 03 00 	sll $2,$3,0x3
  4024d0:	45 00 00 00 00 12 02 06 	subu $18,$6,$2
  4024d8:	5c 00 00 00 02 00 02 13 	slti $2,$19,2
  4024e0:	34 00 00 00 18 00 03 1d 	sw $3,24($29)
  4024e8:	06 00 00 00 98 01 00 02 	bne $2,$0,402b50 <rprj3_+0x778>
  4024f0:	43 00 00 00 04 00 10 00 	addiu $16,$0,4
  4024f8:	55 00 00 00 01 13 16 00 	sll $19,$22,0x1
  402500:	34 00 00 00 80 00 11 1d 	sw $17,128($29)
  402508:	43 00 00 00 03 00 11 00 	addiu $17,$0,3
  402510:	34 00 00 00 88 00 13 1d 	sw $19,136($29)
  402518:	34 00 00 00 90 00 11 1d 	sw $17,144($29)
  402520:	28 00 00 00 00 00 02 1e 	lw $2,0($30)
  402528:	43 00 00 00 02 00 0e 00 	addiu $14,$0,2
  402530:	43 00 00 00 ff ff 02 02 	addiu $2,$2,-1
  402538:	34 00 00 00 28 00 02 1d 	sw $2,40($29)
  402540:	5c 00 00 00 02 00 02 02 	slti $2,$2,2
  402548:	06 00 00 00 60 01 00 02 	bne $2,$0,402ad0 <rprj3_+0x6f8>
  402550:	28 00 00 00 90 00 13 1d 	lw $19,144($29)
  402558:	46 00 00 00 00 00 14 13 	mult $19,$20
  402560:	28 00 00 00 80 00 11 1d 	lw $17,128($29)
  402568:	4c 00 00 00 00 19 00 00 	mflo $25
  402570:	46 00 00 00 00 00 14 11 	mult $17,$20
  402578:	28 00 00 00 88 00 13 1d 	lw $19,136($29)
  402580:	4c 00 00 00 00 0f 00 00 	mflo $15
  402588:	43 00 00 00 03 00 0a 00 	addiu $10,$0,3
  402590:	34 00 00 00 38 00 13 1d 	sw $19,56($29)
  402598:	43 00 00 00 01 00 13 19 	addiu $19,$25,1
  4025a0:	34 00 00 00 60 00 13 1d 	sw $19,96($29)
  4025a8:	43 00 00 00 ff ff 11 19 	addiu $17,$25,-1
  4025b0:	34 00 00 00 50 00 11 1d 	sw $17,80($29)
  4025b8:	28 00 00 00 00 00 02 1e 	lw $2,0($30)
  4025c0:	43 00 00 00 02 00 0d 00 	addiu $13,$0,2
  4025c8:	43 00 00 00 ff ff 18 02 	addiu $24,$2,-1
  4025d0:	5c 00 00 00 02 00 02 18 	slti $2,$24,2
  4025d8:	06 00 00 00 32 01 00 02 	bne $2,$0,402aa8 <rprj3_+0x6d0>
  4025e0:	28 00 00 00 38 00 11 1d 	lw $17,56($29)
  4025e8:	28 00 00 00 10 00 13 1d 	lw $19,16($29)
  4025f0:	42 00 00 00 00 02 11 0e 	addu $2,$14,$17
  4025f8:	46 00 00 00 00 00 13 02 	mult $2,$19
  402600:	4c 00 00 00 00 11 00 00 	mflo $17
  402608:	42 00 00 00 00 02 19 0a 	addu $2,$10,$25
  402610:	46 00 00 00 00 00 0c 02 	mult $2,$12
  402618:	34 00 00 00 40 00 11 1d 	sw $17,64($29)
  402620:	28 00 00 00 50 00 11 1d 	lw $17,80($29)
  402628:	4c 00 00 00 00 13 00 00 	mflo $19
  402630:	42 00 00 00 00 02 11 0a 	addu $2,$10,$17
  402638:	46 00 00 00 00 00 0c 02 	mult $2,$12
  402640:	28 00 00 00 60 00 11 1d 	lw $17,96($29)
  402648:	34 00 00 00 48 00 13 1d 	sw $19,72($29)
  402650:	4c 00 00 00 00 13 00 00 	mflo $19
  402658:	42 00 00 00 00 02 11 0a 	addu $2,$10,$17
  402660:	46 00 00 00 00 00 0c 02 	mult $2,$12
  402668:	34 00 00 00 58 00 13 1d 	sw $19,88($29)
  402670:	4c 00 00 00 00 13 00 00 	mflo $19
  402678:	42 00 00 00 00 02 0f 0a 	addu $2,$10,$15
  402680:	46 00 00 00 00 00 0c 02 	mult $2,$12
  402688:	4c 00 00 00 00 11 00 00 	mflo $17
  402690:	46 00 00 00 00 00 14 10 	mult $16,$20
  402698:	4c 00 00 00 00 03 00 00 	mflo $3
  4026a0:	42 00 00 00 00 02 03 0a 	addu $2,$10,$3
  4026a8:	46 00 00 00 00 00 0c 02 	mult $2,$12
  4026b0:	34 00 00 00 68 00 13 1d 	sw $19,104($29)
  4026b8:	4c 00 00 00 00 13 00 00 	mflo $19
  4026c0:	43 00 00 00 ff ff 02 0f 	addiu $2,$15,-1
  4026c8:	42 00 00 00 00 02 02 0a 	addu $2,$10,$2
  4026d0:	46 00 00 00 00 00 0c 02 	mult $2,$12
  4026d8:	4c 00 00 00 00 17 00 00 	mflo $23
  4026e0:	43 00 00 00 01 00 02 0f 	addiu $2,$15,1
  4026e8:	42 00 00 00 00 02 02 0a 	addu $2,$10,$2
  4026f0:	46 00 00 00 00 00 0c 02 	mult $2,$12
  4026f8:	4c 00 00 00 00 15 00 00 	mflo $21
  402700:	43 00 00 00 ff ff 02 03 	addiu $2,$3,-1
  402708:	42 00 00 00 00 02 02 0a 	addu $2,$10,$2
  402710:	46 00 00 00 00 00 0c 02 	mult $2,$12
  402718:	34 00 00 00 70 00 11 1d 	sw $17,112($29)
  402720:	4c 00 00 00 00 11 00 00 	mflo $17
  402728:	43 00 00 00 01 00 03 03 	addiu $3,$3,1
  402730:	42 00 00 00 00 03 03 0a 	addu $3,$10,$3
  402738:	46 00 00 00 00 00 0c 03 	mult $3,$12
  402740:	43 00 00 00 03 00 09 00 	addiu $9,$0,3
  402748:	34 00 00 00 78 00 13 1d 	sw $19,120($29)
  402750:	34 00 00 00 a0 00 11 1d 	sw $17,160($29)
  402758:	4c 00 00 00 00 13 00 00 	mflo $19
  402760:	34 00 00 00 98 00 13 1d 	sw $19,152($29)
  402768:	28 00 00 00 48 00 11 1d 	lw $17,72($29)
  402770:	28 00 00 00 58 00 13 1d 	lw $19,88($29)
  402778:	42 00 00 00 00 08 11 09 	addu $8,$9,$17
  402780:	55 00 00 00 03 08 08 00 	sll $8,$8,0x3
  402788:	42 00 00 00 00 08 0b 08 	addu $8,$8,$11
  402790:	2b 00 00 00 f8 ff 0a 08 	l.d $f10,-8($8)
  402798:	2b 00 00 00 08 00 00 08 	l.d $f0,8($8)
  4027a0:	42 00 00 00 00 03 13 09 	addu $3,$9,$19
  4027a8:	55 00 00 00 03 03 03 00 	sll $3,$3,0x3
  4027b0:	42 00 00 00 00 03 0b 03 	addu $3,$3,$11
  4027b8:	28 00 00 00 68 00 11 1d 	lw $17,104($29)
  4027c0:	2b 00 00 00 00 00 04 03 	l.d $f4,0($3)
  4027c8:	28 00 00 00 70 00 13 1d 	lw $19,112($29)
  4027d0:	42 00 00 00 00 02 11 09 	addu $2,$9,$17
  4027d8:	71 00 00 00 00 0a 00 0a 	add.d $f10,$f10,$f0
  4027e0:	55 00 00 00 03 02 02 00 	sll $2,$2,0x3
  4027e8:	42 00 00 00 00 02 0b 02 	addu $2,$2,$11
  4027f0:	2b 00 00 00 00 00 02 02 	l.d $f2,0($2)
  4027f8:	71 00 00 00 00 0a 04 0a 	add.d $f10,$f10,$f4
  402800:	42 00 00 00 00 07 13 09 	addu $7,$9,$19
  402808:	55 00 00 00 03 07 07 00 	sll $7,$7,0x3
  402810:	42 00 00 00 00 07 0b 07 	addu $7,$7,$11
  402818:	71 00 00 00 00 0a 02 0a 	add.d $f10,$f10,$f2
  402820:	2b 00 00 00 00 00 00 07 	l.d $f0,0($7)
  402828:	28 00 00 00 78 00 11 1d 	lw $17,120($29)
  402830:	71 00 00 00 00 0a 00 0a 	add.d $f10,$f10,$f0
  402838:	42 00 00 00 00 06 11 09 	addu $6,$9,$17
  402840:	55 00 00 00 03 06 06 00 	sll $6,$6,0x3
  402848:	42 00 00 00 00 06 0b 06 	addu $6,$6,$11
  402850:	2b 00 00 00 00 00 00 06 	l.d $f0,0($6)
  402858:	71 00 00 00 00 0a 00 0a 	add.d $f10,$f10,$f0
  402860:	2b 00 00 00 08 00 06 02 	l.d $f6,8($2)
  402868:	2b 00 00 00 f8 ff 04 03 	l.d $f4,-8($3)
  402870:	2b 00 00 00 08 00 00 03 	l.d $f0,8($3)
  402878:	28 00 00 00 a0 00 13 1d 	lw $19,160($29)
  402880:	2b 00 00 00 f8 ff 02 02 	l.d $f2,-8($2)
  402888:	71 00 00 00 00 04 00 04 	add.d $f4,$f4,$f0
  402890:	42 00 00 00 00 04 13 09 	addu $4,$9,$19
  402898:	42 00 00 00 00 02 17 09 	addu $2,$9,$23
  4028a0:	71 00 00 00 00 04 02 04 	add.d $f4,$f4,$f2
  4028a8:	55 00 00 00 03 02 02 00 	sll $2,$2,0x3
  4028b0:	42 00 00 00 00 02 0b 02 	addu $2,$2,$11
  4028b8:	42 00 00 00 00 03 15 09 	addu $3,$9,$21
  4028c0:	71 00 00 00 00 04 06 04 	add.d $f4,$f4,$f6
  4028c8:	2b 00 00 00 00 00 00 02 	l.d $f0,0($2)
  4028d0:	55 00 00 00 03 03 03 00 	sll $3,$3,0x3
  4028d8:	42 00 00 00 00 03 0b 03 	addu $3,$3,$11
  4028e0:	71 00 00 00 00 04 00 04 	add.d $f4,$f4,$f0
  4028e8:	2b 00 00 00 00 00 02 03 	l.d $f2,0($3)
  4028f0:	55 00 00 00 03 04 04 00 	sll $4,$4,0x3
  4028f8:	42 00 00 00 00 04 0b 04 	addu $4,$4,$11
  402900:	71 00 00 00 00 04 02 04 	add.d $f4,$f4,$f2
  402908:	2b 00 00 00 00 00 00 04 	l.d $f0,0($4)
  402910:	28 00 00 00 98 00 11 1d 	lw $17,152($29)
  402918:	71 00 00 00 00 04 00 04 	add.d $f4,$f4,$f0
  402920:	42 00 00 00 00 05 11 09 	addu $5,$9,$17
  402928:	55 00 00 00 03 05 05 00 	sll $5,$5,0x3
  402930:	42 00 00 00 00 05 0b 05 	addu $5,$5,$11
  402938:	2b 00 00 00 00 00 00 05 	l.d $f0,0($5)
  402940:	71 00 00 00 00 04 00 04 	add.d $f4,$f4,$f0
  402948:	2b 00 00 00 f8 ff 00 07 	l.d $f0,-8($7)
  402950:	71 00 00 00 00 04 00 04 	add.d $f4,$f4,$f0
  402958:	2b 00 00 00 f8 ff 00 06 	l.d $f0,-8($6)
  402960:	71 00 00 00 00 04 00 04 	add.d $f4,$f4,$f0
  402968:	2b 00 00 00 08 00 00 07 	l.d $f0,8($7)
  402970:	71 00 00 00 00 04 00 04 	add.d $f4,$f4,$f0
  402978:	2b 00 00 00 08 00 00 06 	l.d $f0,8($6)
  402980:	71 00 00 00 00 04 00 04 	add.d $f4,$f4,$f0
  402988:	2b 00 00 00 f8 ff 02 02 	l.d $f2,-8($2)
  402990:	2b 00 00 00 08 00 00 02 	l.d $f0,8($2)
  402998:	71 00 00 00 00 02 00 02 	add.d $f2,$f2,$f0
  4029a0:	2b 00 00 00 f8 ff 00 03 	l.d $f0,-8($3)
  4029a8:	71 00 00 00 00 02 00 02 	add.d $f2,$f2,$f0
  4029b0:	2b 00 00 00 08 00 00 03 	l.d $f0,8($3)
  4029b8:	71 00 00 00 00 02 00 02 	add.d $f2,$f2,$f0
  4029c0:	2b 00 00 00 00 00 08 08 	l.d $f8,0($8)
  4029c8:	2b 00 00 00 60 80 06 1c 	l.d $f6,-32672($28)
  4029d0:	2b 00 00 00 f8 ff 00 04 	l.d $f0,-8($4)
  4029d8:	75 00 00 00 00 08 06 08 	mul.d $f8,$f8,$f6
  4029e0:	71 00 00 00 00 02 00 02 	add.d $f2,$f2,$f0
  4029e8:	2b 00 00 00 08 00 00 04 	l.d $f0,8($4)
  4029f0:	2b 00 00 00 68 80 06 1c 	l.d $f6,-32664($28)
  4029f8:	71 00 00 00 00 02 00 02 	add.d $f2,$f2,$f0
  402a00:	75 00 00 00 00 0a 06 0a 	mul.d $f10,$f10,$f6
  402a08:	2b 00 00 00 f8 ff 00 05 	l.d $f0,-8($5)
  402a10:	71 00 00 00 00 02 00 02 	add.d $f2,$f2,$f0
  402a18:	2b 00 00 00 70 80 06 1c 	l.d $f6,-32656($28)
  402a20:	2b 00 00 00 08 00 00 05 	l.d $f0,8($5)
  402a28:	75 00 00 00 00 04 06 04 	mul.d $f4,$f4,$f6
  402a30:	71 00 00 00 00 02 00 02 	add.d $f2,$f2,$f0
  402a38:	2b 00 00 00 78 80 00 1c 	l.d $f0,-32648($28)
  402a40:	71 00 00 00 00 08 0a 08 	add.d $f8,$f8,$f10
  402a48:	75 00 00 00 00 02 00 02 	mul.d $f2,$f2,$f0
  402a50:	28 00 00 00 40 00 13 1d 	lw $19,64($29)
  402a58:	71 00 00 00 00 08 04 08 	add.d $f8,$f8,$f4
  402a60:	43 00 00 00 02 00 09 09 	addiu $9,$9,2
  402a68:	42 00 00 00 00 02 13 0d 	addu $2,$13,$19
  402a70:	71 00 00 00 00 08 02 08 	add.d $f8,$f8,$f2
  402a78:	43 00 00 00 01 00 0d 0d 	addiu $13,$13,1
  402a80:	55 00 00 00 03 02 02 00 	sll $2,$2,0x3
  402a88:	42 00 00 00 00 02 12 02 	addu $2,$2,$18
  402a90:	37 00 00 00 00 00 08 02 	s.d $f8,0($2)
  402a98:	5b 00 00 00 00 02 0d 18 	slt $2,$24,$13
  402aa0:	05 00 00 00 30 ff 00 02 	beq $2,$0,402768 <rprj3_+0x390>
  402aa8:	28 00 00 00 28 00 11 1d 	lw $17,40($29)
  402ab0:	43 00 00 00 02 00 0a 0a 	addiu $10,$10,2
  402ab8:	43 00 00 00 01 00 0e 0e 	addiu $14,$14,1
  402ac0:	5b 00 00 00 00 02 0e 11 	slt $2,$17,$14
  402ac8:	05 00 00 00 ba fe 00 02 	beq $2,$0,4025b8 <rprj3_+0x1e0>
  402ad0:	28 00 00 00 80 00 13 1d 	lw $19,128($29)
  402ad8:	28 00 00 00 88 00 11 1d 	lw $17,136($29)
  402ae0:	43 00 00 00 02 00 13 13 	addiu $19,$19,2
  402ae8:	34 00 00 00 80 00 13 1d 	sw $19,128($29)
  402af0:	28 00 00 00 90 00 13 1d 	lw $19,144($29)
  402af8:	42 00 00 00 00 11 16 11 	addu $17,$17,$22
  402b00:	34 00 00 00 88 00 11 1d 	sw $17,136($29)
  402b08:	28 00 00 00 30 00 11 1d 	lw $17,48($29)
  402b10:	43 00 00 00 02 00 13 13 	addiu $19,$19,2
  402b18:	34 00 00 00 90 00 13 1d 	sw $19,144($29)
  402b20:	28 00 00 00 20 00 13 1d 	lw $19,32($29)
  402b28:	43 00 00 00 02 00 10 10 	addiu $16,$16,2
  402b30:	43 00 00 00 01 00 11 11 	addiu $17,$17,1
  402b38:	34 00 00 00 30 00 11 1d 	sw $17,48($29)
  402b40:	5b 00 00 00 00 02 11 13 	slt $2,$19,$17
  402b48:	05 00 00 00 74 fe 00 02 	beq $2,$0,402520 <rprj3_+0x148>
  402b50:	28 00 00 00 18 00 11 1d 	lw $17,24($29)
  402b58:	42 00 00 00 00 05 1e 00 	addu $5,$0,$30
  402b60:	55 00 00 00 03 04 11 00 	sll $4,$17,0x3
  402b68:	42 00 00 00 00 04 04 12 	addu $4,$18,$4
  402b70:	02 00 00 00 ce 10 10 00 	jal 404338 <comm3_>
  402b78:	42 00 00 00 00 02 00 00 	addu $2,$0,$0
  402b80:	28 00 00 00 cc 00 1f 1d 	lw $31,204($29)
  402b88:	28 00 00 00 c8 00 1e 1d 	lw $30,200($29)
  402b90:	28 00 00 00 c4 00 17 1d 	lw $23,196($29)
  402b98:	28 00 00 00 c0 00 16 1d 	lw $22,192($29)
  402ba0:	28 00 00 00 bc 00 15 1d 	lw $21,188($29)
  402ba8:	28 00 00 00 b8 00 14 1d 	lw $20,184($29)
  402bb0:	28 00 00 00 b4 00 13 1d 	lw $19,180($29)
  402bb8:	28 00 00 00 b0 00 12 1d 	lw $18,176($29)
  402bc0:	28 00 00 00 ac 00 11 1d 	lw $17,172($29)
  402bc8:	28 00 00 00 a8 00 10 1d 	lw $16,168($29)
  402bd0:	43 00 00 00 d0 00 1d 1d 	addiu $29,$29,208
  402bd8:	03 00 00 00 00 00 00 1f 	jr $31

00402be0 <interp_>:
  402be0:	43 00 00 00 98 ff 1d 1d 	addiu $29,$29,-104
  402be8:	34 00 00 00 48 00 12 1d 	sw $18,72($29)
  402bf0:	42 00 00 00 00 12 05 00 	addu $18,$0,$5
  402bf8:	34 00 00 00 64 00 1f 1d 	sw $31,100($29)
  402c00:	34 00 00 00 60 00 1e 1d 	sw $30,96($29)
  402c08:	34 00 00 00 5c 00 17 1d 	sw $23,92($29)
  402c10:	34 00 00 00 58 00 16 1d 	sw $22,88($29)
  402c18:	34 00 00 00 54 00 15 1d 	sw $21,84($29)
  402c20:	34 00 00 00 50 00 14 1d 	sw $20,80($29)
  402c28:	34 00 00 00 4c 00 13 1d 	sw $19,76($29)
  402c30:	34 00 00 00 44 00 11 1d 	sw $17,68($29)
  402c38:	34 00 00 00 40 00 10 1d 	sw $16,64($29)
  402c40:	28 00 00 00 00 00 15 12 	lw $21,0($18)
  402c48:	43 00 00 00 01 00 02 15 	addiu $2,$21,1
  402c50:	46 00 00 00 00 00 02 15 	mult $21,$2
  402c58:	34 00 00 00 38 00 15 1d 	sw $21,56($29)
  402c60:	34 00 00 00 10 00 07 1d 	sw $7,16($29)
  402c68:	28 00 00 00 00 00 14 07 	lw $20,0($7)
  402c70:	4c 00 00 00 00 03 00 00 	mflo $3
  402c78:	43 00 00 00 01 00 02 14 	addiu $2,$20,1
  402c80:	46 00 00 00 00 00 02 14 	mult $20,$2
  402c88:	28 00 00 00 38 00 18 1d 	lw $24,56($29)
  402c90:	43 00 00 00 02 00 17 00 	addiu $23,$0,2
  402c98:	43 00 00 00 ff ff 11 15 	addiu $17,$21,-1
  402ca0:	34 00 00 00 28 00 17 1d 	sw $23,40($29)
  402ca8:	34 00 00 00 18 00 14 1d 	sw $20,24($29)
  402cb0:	43 00 00 00 01 00 02 03 	addiu $2,$3,1
  402cb8:	4c 00 00 00 00 03 00 00 	mflo $3
  402cc0:	55 00 00 00 03 02 02 00 	sll $2,$2,0x3
  402cc8:	45 00 00 00 00 04 02 04 	subu $4,$4,$2
  402cd0:	43 00 00 00 01 00 03 03 	addiu $3,$3,1
  402cd8:	55 00 00 00 03 02 03 00 	sll $2,$3,0x3
  402ce0:	45 00 00 00 00 06 02 06 	subu $6,$6,$2
  402ce8:	5c 00 00 00 02 00 02 11 	slti $2,$17,2
  402cf0:	34 00 00 00 20 00 03 1d 	sw $3,32($29)
  402cf8:	06 00 00 00 dc 02 00 02 	bne $2,$0,403870 <interp_+0xc90>
  402d00:	2b 00 00 00 80 80 04 1c 	l.d $f4,-32640($28)
  402d08:	2b 00 00 00 88 80 06 1c 	l.d $f6,-32632($28)
  402d10:	55 00 00 00 01 02 15 00 	sll $2,$21,0x1
  402d18:	43 00 00 00 ff ff 15 02 	addiu $21,$2,-1
  402d20:	42 00 00 00 00 16 02 00 	addu $22,$0,$2
  402d28:	43 00 00 00 03 00 13 00 	addiu $19,$0,3
  402d30:	34 00 00 00 30 00 15 1d 	sw $21,48($29)
  402d38:	28 00 00 00 00 00 02 12 	lw $2,0($18)
  402d40:	43 00 00 00 02 00 0f 00 	addiu $15,$0,2
  402d48:	43 00 00 00 ff ff 10 02 	addiu $16,$2,-1
  402d50:	5c 00 00 00 02 00 02 10 	slti $2,$16,2
  402d58:	06 00 00 00 52 01 00 02 	bne $2,$0,4032a8 <interp_+0x6c8>
  402d60:	28 00 00 00 18 00 17 1d 	lw $23,24($29)
  402d68:	46 00 00 00 00 00 17 13 	mult $19,$23
  402d70:	4c 00 00 00 00 02 00 00 	mflo $2
  402d78:	43 00 00 00 02 00 19 16 	addiu $25,$22,2
  402d80:	43 00 00 00 03 00 0d 02 	addiu $13,$2,3
  402d88:	28 00 00 00 00 00 0a 12 	lw $10,0($18)
  402d90:	43 00 00 00 02 00 08 00 	addiu $8,$0,2
  402d98:	43 00 00 00 ff ff 0e 0a 	addiu $14,$10,-1
  402da0:	5c 00 00 00 02 00 02 0e 	slti $2,$14,2
  402da8:	06 00 00 00 ba 00 00 02 	bne $2,$0,403098 <interp_+0x4b8>
  402db0:	46 00 00 00 00 00 14 0d 	mult $13,$20
  402db8:	4c 00 00 00 00 0c 00 00 	mflo $12
  402dc0:	46 00 00 00 00 00 18 19 	mult $25,$24
  402dc8:	43 00 00 00 fe ff 02 0a 	addiu $2,$10,-2
  402dd0:	4f 00 00 00 03 00 03 02 	andi $3,$2,3
  402dd8:	4c 00 00 00 00 0b 00 00 	mflo $11
  402de0:	5b 00 00 00 00 02 0a 08 	slt $2,$8,$10
  402de8:	43 00 00 00 04 00 09 0c 	addiu $9,$12,4
  402df0:	05 00 00 00 36 00 00 02 	beq $2,$0,402ed0 <interp_+0x2f0>
  402df8:	05 00 00 00 4a 00 00 03 	beq $3,$0,402f28 <interp_+0x348>
  402e00:	5c 00 00 00 02 00 02 03 	slti $2,$3,2
  402e08:	06 00 00 00 30 00 00 02 	bne $2,$0,402ed0 <interp_+0x2f0>
  402e10:	5c 00 00 00 03 00 02 03 	slti $2,$3,3
  402e18:	06 00 00 00 16 00 00 02 	bne $2,$0,402e78 <interp_+0x298>
  402e20:	55 00 00 00 03 03 09 00 	sll $3,$9,0x3
  402e28:	42 00 00 00 00 03 06 03 	addu $3,$3,$6
  402e30:	43 00 00 00 02 00 02 0b 	addiu $2,$11,2
  402e38:	55 00 00 00 03 02 02 00 	sll $2,$2,0x3
  402e40:	42 00 00 00 00 02 04 02 	addu $2,$2,$4
  402e48:	2b 00 00 00 f8 ff 02 03 	l.d $f2,-8($3)
  402e50:	2b 00 00 00 00 00 00 02 	l.d $f0,0($2)
  402e58:	71 00 00 00 00 02 00 02 	add.d $f2,$f2,$f0
  402e60:	43 00 00 00 06 00 09 0c 	addiu $9,$12,6
  402e68:	43 00 00 00 03 00 08 00 	addiu $8,$0,3
  402e70:	37 00 00 00 f8 ff 02 03 	s.d $f2,-8($3)
  402e78:	55 00 00 00 03 03 09 00 	sll $3,$9,0x3
  402e80:	42 00 00 00 00 03 06 03 	addu $3,$3,$6
  402e88:	42 00 00 00 00 02 0b 08 	addu $2,$8,$11
  402e90:	55 00 00 00 03 02 02 00 	sll $2,$2,0x3
  402e98:	42 00 00 00 00 02 04 02 	addu $2,$2,$4
  402ea0:	2b 00 00 00 f8 ff 02 03 	l.d $f2,-8($3)
  402ea8:	2b 00 00 00 00 00 00 02 	l.d $f0,0($2)
  402eb0:	71 00 00 00 00 02 00 02 	add.d $f2,$f2,$f0
  402eb8:	43 00 00 00 02 00 09 09 	addiu $9,$9,2
  402ec0:	43 00 00 00 01 00 08 08 	addiu $8,$8,1
  402ec8:	37 00 00 00 f8 ff 02 03 	s.d $f2,-8($3)
  402ed0:	55 00 00 00 03 03 09 00 	sll $3,$9,0x3
  402ed8:	42 00 00 00 00 03 06 03 	addu $3,$3,$6
  402ee0:	42 00 00 00 00 02 0b 08 	addu $2,$8,$11
  402ee8:	55 00 00 00 03 02 02 00 	sll $2,$2,0x3
  402ef0:	42 00 00 00 00 02 04 02 	addu $2,$2,$4
  402ef8:	2b 00 00 00 f8 ff 02 03 	l.d $f2,-8($3)
  402f00:	2b 00 00 00 00 00 00 02 	l.d $f0,0($2)
  402f08:	71 00 00 00 00 02 00 02 	add.d $f2,$f2,$f0
  402f10:	43 00 00 00 02 00 09 09 	addiu $9,$9,2
  402f18:	43 00 00 00 01 00 08 08 	addiu $8,$8,1
  402f20:	01 00 00 00 20 0c 10 00 	j 403080 <interp_+0x4a0>
  402f28:	55 00 00 00 03 03 09 00 	sll $3,$9,0x3
  402f30:	42 00 00 00 00 03 06 03 	addu $3,$3,$6
  402f38:	42 00 00 00 00 02 0b 08 	addu $2,$8,$11
  402f40:	55 00 00 00 03 02 02 00 	sll $2,$2,0x3
  402f48:	42 00 00 00 00 02 04 02 	addu $2,$2,$4
  402f50:	2b 00 00 00 00 00 00 02 	l.d $f0,0($2)
  402f58:	2b 00 00 00 f8 ff 02 03 	l.d $f2,-8($3)
  402f60:	43 00 00 00 01 00 02 08 	addiu $2,$8,1
  402f68:	71 00 00 00 00 02 00 02 	add.d $f2,$f2,$f0
  402f70:	42 00 00 00 00 02 0b 02 	addu $2,$2,$11
  402f78:	55 00 00 00 03 02 02 00 	sll $2,$2,0x3
  402f80:	42 00 00 00 00 02 04 02 	addu $2,$2,$4
  402f88:	37 00 00 00 f8 ff 02 03 	s.d $f2,-8($3)
  402f90:	43 00 00 00 02 00 03 09 	addiu $3,$9,2
  402f98:	55 00 00 00 03 03 03 00 	sll $3,$3,0x3
  402fa0:	42 00 00 00 00 03 06 03 	addu $3,$3,$6
  402fa8:	2b 00 00 00 00 00 00 02 	l.d $f0,0($2)
  402fb0:	2b 00 00 00 f8 ff 02 03 	l.d $f2,-8($3)
  402fb8:	43 00 00 00 02 00 02 08 	addiu $2,$8,2
  402fc0:	71 00 00 00 00 02 00 02 	add.d $f2,$f2,$f0
  402fc8:	42 00 00 00 00 02 0b 02 	addu $2,$2,$11
  402fd0:	55 00 00 00 03 02 02 00 	sll $2,$2,0x3
  402fd8:	42 00 00 00 00 02 04 02 	addu $2,$2,$4
  402fe0:	37 00 00 00 f8 ff 02 03 	s.d $f2,-8($3)
  402fe8:	43 00 00 00 04 00 03 09 	addiu $3,$9,4
  402ff0:	55 00 00 00 03 03 03 00 	sll $3,$3,0x3
  402ff8:	42 00 00 00 00 03 06 03 	addu $3,$3,$6
  403000:	2b 00 00 00 00 00 00 02 	l.d $f0,0($2)
  403008:	2b 00 00 00 f8 ff 02 03 	l.d $f2,-8($3)
  403010:	43 00 00 00 03 00 02 08 	addiu $2,$8,3
  403018:	71 00 00 00 00 02 00 02 	add.d $f2,$f2,$f0
  403020:	42 00 00 00 00 02 0b 02 	addu $2,$2,$11
  403028:	55 00 00 00 03 02 02 00 	sll $2,$2,0x3
  403030:	42 00 00 00 00 02 04 02 	addu $2,$2,$4
  403038:	37 00 00 00 f8 ff 02 03 	s.d $f2,-8($3)
  403040:	43 00 00 00 06 00 03 09 	addiu $3,$9,6
  403048:	55 00 00 00 03 03 03 00 	sll $3,$3,0x3
  403050:	42 00 00 00 00 03 06 03 	addu $3,$3,$6
  403058:	2b 00 00 00 f8 ff 02 03 	l.d $f2,-8($3)
  403060:	2b 00 00 00 00 00 00 02 	l.d $f0,0($2)
  403068:	71 00 00 00 00 02 00 02 	add.d $f2,$f2,$f0
  403070:	43 00 00 00 04 00 08 08 	addiu $8,$8,4
  403078:	43 00 00 00 08 00 09 09 	addiu $9,$9,8
  403080:	5b 00 00 00 00 02 08 0e 	slt $2,$14,$8
  403088:	37 00 00 00 f8 ff 02 03 	s.d $f2,-8($3)
  403090:	05 00 00 00 a4 ff 00 02 	beq $2,$0,402f28 <interp_+0x348>
  403098:	28 00 00 00 00 00 09 12 	lw $9,0($18)
  4030a0:	43 00 00 00 02 00 08 00 	addiu $8,$0,2
  4030a8:	43 00 00 00 ff ff 0e 09 	addiu $14,$9,-1
  4030b0:	5c 00 00 00 02 00 02 0e 	slti $2,$14,2
  4030b8:	06 00 00 00 70 00 00 02 	bne $2,$0,403280 <interp_+0x6a0>
  4030c0:	46 00 00 00 00 00 14 0d 	mult $13,$20
  4030c8:	4c 00 00 00 00 0b 00 00 	mflo $11
  4030d0:	46 00 00 00 00 00 18 19 	mult $25,$24
  4030d8:	43 00 00 00 fe ff 02 09 	addiu $2,$9,-2
  4030e0:	4f 00 00 00 01 00 03 02 	andi $3,$2,1
  4030e8:	4c 00 00 00 00 0c 00 00 	mflo $12
  4030f0:	5b 00 00 00 00 02 09 08 	slt $2,$8,$9
  4030f8:	43 00 00 00 04 00 0a 0b 	addiu $10,$11,4
  403100:	05 00 00 00 02 00 00 02 	beq $2,$0,403110 <interp_+0x530>
  403108:	05 00 00 00 20 00 00 03 	beq $3,$0,403190 <interp_+0x5b0>
  403110:	43 00 00 00 02 00 02 0c 	addiu $2,$12,2
  403118:	55 00 00 00 03 02 02 00 	sll $2,$2,0x3
  403120:	42 00 00 00 00 02 04 02 	addu $2,$2,$4
  403128:	2b 00 00 00 f8 ff 02 02 	l.d $f2,-8($2)
  403130:	2b 00 00 00 00 00 00 02 	l.d $f0,0($2)
  403138:	71 00 00 00 00 02 00 02 	add.d $f2,$f2,$f0
  403140:	75 00 00 00 00 02 04 02 	mul.d $f2,$f2,$f4
  403148:	55 00 00 00 03 02 0a 00 	sll $2,$10,0x3
  403150:	42 00 00 00 00 02 06 02 	addu $2,$2,$6
  403158:	2b 00 00 00 f0 ff 00 02 	l.d $f0,-16($2)
  403160:	71 00 00 00 00 00 02 00 	add.d $f0,$f0,$f2
  403168:	43 00 00 00 03 00 08 00 	addiu $8,$0,3
  403170:	5c 00 00 00 03 00 03 0e 	slti $3,$14,3
  403178:	43 00 00 00 06 00 0a 0b 	addiu $10,$11,6
  403180:	37 00 00 00 f0 ff 00 02 	s.d $f0,-16($2)
  403188:	06 00 00 00 3c 00 00 03 	bne $3,$0,403280 <interp_+0x6a0>
  403190:	42 00 00 00 00 02 08 0c 	addu $2,$12,$8
  403198:	55 00 00 00 03 02 02 00 	sll $2,$2,0x3
  4031a0:	42 00 00 00 00 02 04 02 	addu $2,$2,$4
  4031a8:	2b 00 00 00 f8 ff 02 02 	l.d $f2,-8($2)
  4031b0:	2b 00 00 00 00 00 00 02 	l.d $f0,0($2)
  4031b8:	71 00 00 00 00 02 00 02 	add.d $f2,$f2,$f0
  4031c0:	75 00 00 00 00 02 04 02 	mul.d $f2,$f2,$f4
  4031c8:	55 00 00 00 03 02 0a 00 	sll $2,$10,0x3
  4031d0:	42 00 00 00 00 02 06 02 	addu $2,$2,$6
  4031d8:	2b 00 00 00 f0 ff 00 02 	l.d $f0,-16($2)
  4031e0:	71 00 00 00 00 00 02 00 	add.d $f0,$f0,$f2
  4031e8:	37 00 00 00 f0 ff 00 02 	s.d $f0,-16($2)
  4031f0:	43 00 00 00 01 00 02 08 	addiu $2,$8,1
  4031f8:	42 00 00 00 00 02 02 0c 	addu $2,$12,$2
  403200:	55 00 00 00 03 02 02 00 	sll $2,$2,0x3
  403208:	42 00 00 00 00 02 04 02 	addu $2,$2,$4
  403210:	2b 00 00 00 f8 ff 02 02 	l.d $f2,-8($2)
  403218:	2b 00 00 00 00 00 00 02 	l.d $f0,0($2)
  403220:	71 00 00 00 00 02 00 02 	add.d $f2,$f2,$f0
  403228:	75 00 00 00 00 02 04 02 	mul.d $f2,$f2,$f4
  403230:	43 00 00 00 02 00 02 0a 	addiu $2,$10,2
  403238:	55 00 00 00 03 02 02 00 	sll $2,$2,0x3
  403240:	42 00 00 00 00 02 06 02 	addu $2,$2,$6
  403248:	2b 00 00 00 f0 ff 00 02 	l.d $f0,-16($2)
  403250:	71 00 00 00 00 00 02 00 	add.d $f0,$f0,$f2
  403258:	43 00 00 00 02 00 08 08 	addiu $8,$8,2
  403260:	5b 00 00 00 00 03 08 0e 	slt $3,$14,$8
  403268:	43 00 00 00 04 00 0a 0a 	addiu $10,$10,4
  403270:	37 00 00 00 f0 ff 00 02 	s.d $f0,-16($2)
  403278:	05 00 00 00 c4 ff 00 03 	beq $3,$0,403190 <interp_+0x5b0>
  403280:	43 00 00 00 01 00 19 19 	addiu $25,$25,1
  403288:	43 00 00 00 02 00 0d 0d 	addiu $13,$13,2
  403290:	43 00 00 00 01 00 0f 0f 	addiu $15,$15,1
  403298:	5b 00 00 00 00 02 0f 10 	slt $2,$16,$15
  4032a0:	05 00 00 00 b8 fe 00 02 	beq $2,$0,402d88 <interp_+0x1a8>
  4032a8:	28 00 00 00 00 00 02 12 	lw $2,0($18)
  4032b0:	43 00 00 00 02 00 0f 00 	addiu $15,$0,2
  4032b8:	43 00 00 00 ff ff 0e 02 	addiu $14,$2,-1
  4032c0:	5c 00 00 00 02 00 02 0e 	slti $2,$14,2
  4032c8:	06 00 00 00 52 01 00 02 	bne $2,$0,403818 <interp_+0xc38>
  4032d0:	28 00 00 00 18 00 15 1d 	lw $21,24($29)
  4032d8:	46 00 00 00 00 00 15 13 	mult $19,$21
  4032e0:	28 00 00 00 30 00 17 1d 	lw $23,48($29)
  4032e8:	4c 00 00 00 00 02 00 00 	mflo $2
  4032f0:	43 00 00 00 02 00 07 16 	addiu $7,$22,2
  4032f8:	43 00 00 00 02 00 05 17 	addiu $5,$23,2
  403300:	43 00 00 00 02 00 19 02 	addiu $25,$2,2
  403308:	28 00 00 00 00 00 09 12 	lw $9,0($18)
  403310:	43 00 00 00 02 00 08 00 	addiu $8,$0,2
  403318:	43 00 00 00 ff ff 10 09 	addiu $16,$9,-1
  403320:	5c 00 00 00 02 00 02 10 	slti $2,$16,2
  403328:	06 00 00 00 86 00 00 02 	bne $2,$0,403548 <interp_+0x968>
  403330:	46 00 00 00 00 00 14 19 	mult $25,$20
  403338:	4c 00 00 00 00 0b 00 00 	mflo $11
  403340:	46 00 00 00 00 00 18 05 	mult $5,$24
  403348:	4c 00 00 00 00 0d 00 00 	mflo $13
  403350:	46 00 00 00 00 00 18 07 	mult $7,$24
  403358:	43 00 00 00 fe ff 02 09 	addiu $2,$9,-2
  403360:	4f 00 00 00 01 00 03 02 	andi $3,$2,1
  403368:	4c 00 00 00 00 0c 00 00 	mflo $12
  403370:	5b 00 00 00 00 02 09 08 	slt $2,$8,$9
  403378:	43 00 00 00 04 00 0a 0b 	addiu $10,$11,4
  403380:	05 00 00 00 02 00 00 02 	beq $2,$0,403390 <interp_+0x7b0>
  403388:	05 00 00 00 26 00 00 03 	beq $3,$0,403428 <interp_+0x848>
  403390:	43 00 00 00 02 00 03 0d 	addiu $3,$13,2
  403398:	55 00 00 00 03 03 03 00 	sll $3,$3,0x3
  4033a0:	42 00 00 00 00 03 04 03 	addu $3,$3,$4
  4033a8:	43 00 00 00 02 00 02 0c 	addiu $2,$12,2
  4033b0:	55 00 00 00 03 02 02 00 	sll $2,$2,0x3
  4033b8:	42 00 00 00 00 02 04 02 	addu $2,$2,$4
  4033c0:	2b 00 00 00 00 00 02 03 	l.d $f2,0($3)
  4033c8:	2b 00 00 00 00 00 00 02 	l.d $f0,0($2)
  4033d0:	71 00 00 00 00 02 00 02 	add.d $f2,$f2,$f0
  4033d8:	75 00 00 00 00 02 04 02 	mul.d $f2,$f2,$f4
  4033e0:	55 00 00 00 03 02 0a 00 	sll $2,$10,0x3
  4033e8:	42 00 00 00 00 02 06 02 	addu $2,$2,$6
  4033f0:	2b 00 00 00 f8 ff 00 02 	l.d $f0,-8($2)
  4033f8:	71 00 00 00 00 00 02 00 	add.d $f0,$f0,$f2
  403400:	43 00 00 00 03 00 08 00 	addiu $8,$0,3
  403408:	43 00 00 00 06 00 0a 0b 	addiu $10,$11,6
  403410:	5c 00 00 00 03 00 03 10 	slti $3,$16,3
  403418:	37 00 00 00 f8 ff 00 02 	s.d $f0,-8($2)
  403420:	06 00 00 00 48 00 00 03 	bne $3,$0,403548 <interp_+0x968>
  403428:	42 00 00 00 00 03 0d 08 	addu $3,$8,$13
  403430:	55 00 00 00 03 03 03 00 	sll $3,$3,0x3
  403438:	42 00 00 00 00 03 04 03 	addu $3,$3,$4
  403440:	42 00 00 00 00 02 0c 08 	addu $2,$8,$12
  403448:	55 00 00 00 03 02 02 00 	sll $2,$2,0x3
  403450:	42 00 00 00 00 02 04 02 	addu $2,$2,$4
  403458:	2b 00 00 00 00 00 02 03 	l.d $f2,0($3)
  403460:	2b 00 00 00 00 00 00 02 	l.d $f0,0($2)
  403468:	71 00 00 00 00 02 00 02 	add.d $f2,$f2,$f0
  403470:	75 00 00 00 00 02 04 02 	mul.d $f2,$f2,$f4
  403478:	55 00 00 00 03 02 0a 00 	sll $2,$10,0x3
  403480:	42 00 00 00 00 02 06 02 	addu $2,$2,$6
  403488:	2b 00 00 00 f8 ff 00 02 	l.d $f0,-8($2)
  403490:	71 00 00 00 00 00 02 00 	add.d $f0,$f0,$f2
  403498:	37 00 00 00 f8 ff 00 02 	s.d $f0,-8($2)
  4034a0:	43 00 00 00 01 00 02 08 	addiu $2,$8,1
  4034a8:	42 00 00 00 00 03 0d 02 	addu $3,$2,$13
  4034b0:	55 00 00 00 03 03 03 00 	sll $3,$3,0x3
  4034b8:	42 00 00 00 00 03 04 03 	addu $3,$3,$4
  4034c0:	42 00 00 00 00 02 0c 02 	addu $2,$2,$12
  4034c8:	55 00 00 00 03 02 02 00 	sll $2,$2,0x3
  4034d0:	42 00 00 00 00 02 04 02 	addu $2,$2,$4
  4034d8:	2b 00 00 00 00 00 02 03 	l.d $f2,0($3)
  4034e0:	2b 00 00 00 00 00 00 02 	l.d $f0,0($2)
  4034e8:	71 00 00 00 00 02 00 02 	add.d $f2,$f2,$f0
  4034f0:	75 00 00 00 00 02 04 02 	mul.d $f2,$f2,$f4
  4034f8:	43 00 00 00 02 00 02 0a 	addiu $2,$10,2
  403500:	55 00 00 00 03 02 02 00 	sll $2,$2,0x3
  403508:	42 00 00 00 00 02 06 02 	addu $2,$2,$6
  403510:	2b 00 00 00 f8 ff 00 02 	l.d $f0,-8($2)
  403518:	71 00 00 00 00 00 02 00 	add.d $f0,$f0,$f2
  403520:	43 00 00 00 02 00 08 08 	addiu $8,$8,2
  403528:	43 00 00 00 04 00 0a 0a 	addiu $10,$10,4
  403530:	5b 00 00 00 00 03 08 10 	slt $3,$16,$8
  403538:	37 00 00 00 f8 ff 00 02 	s.d $f0,-8($2)
  403540:	05 00 00 00 b8 ff 00 03 	beq $3,$0,403428 <interp_+0x848>
  403548:	28 00 00 00 00 00 09 12 	lw $9,0($18)
  403550:	43 00 00 00 02 00 08 00 	addiu $8,$0,2
  403558:	43 00 00 00 ff ff 10 09 	addiu $16,$9,-1
  403560:	5c 00 00 00 02 00 02 10 	slti $2,$16,2
  403568:	06 00 00 00 9e 00 00 02 	bne $2,$0,4037e8 <interp_+0xc08>
  403570:	46 00 00 00 00 00 14 19 	mult $25,$20
  403578:	4c 00 00 00 00 0b 00 00 	mflo $11
  403580:	46 00 00 00 00 00 18 05 	mult $5,$24
  403588:	4c 00 00 00 00 0d 00 00 	mflo $13
  403590:	46 00 00 00 00 00 18 07 	mult $7,$24
  403598:	43 00 00 00 fe ff 02 09 	addiu $2,$9,-2
  4035a0:	4f 00 00 00 01 00 03 02 	andi $3,$2,1
  4035a8:	4c 00 00 00 00 0c 00 00 	mflo $12
  4035b0:	5b 00 00 00 00 02 09 08 	slt $2,$8,$9
  4035b8:	43 00 00 00 04 00 0a 0b 	addiu $10,$11,4
  4035c0:	05 00 00 00 02 00 00 02 	beq $2,$0,4035d0 <interp_+0x9f0>
  4035c8:	05 00 00 00 2e 00 00 03 	beq $3,$0,403688 <interp_+0xaa8>
  4035d0:	43 00 00 00 02 00 03 0d 	addiu $3,$13,2
  4035d8:	55 00 00 00 03 03 03 00 	sll $3,$3,0x3
  4035e0:	42 00 00 00 00 03 04 03 	addu $3,$3,$4
  4035e8:	43 00 00 00 02 00 02 0c 	addiu $2,$12,2
  4035f0:	55 00 00 00 03 02 02 00 	sll $2,$2,0x3
  4035f8:	42 00 00 00 00 02 04 02 	addu $2,$2,$4
  403600:	2b 00 00 00 f8 ff 02 03 	l.d $f2,-8($3)
  403608:	2b 00 00 00 f8 ff 00 02 	l.d $f0,-8($2)
  403610:	71 00 00 00 00 02 00 02 	add.d $f2,$f2,$f0
  403618:	2b 00 00 00 00 00 00 03 	l.d $f0,0($3)
  403620:	71 00 00 00 00 02 00 02 	add.d $f2,$f2,$f0
  403628:	2b 00 00 00 00 00 00 02 	l.d $f0,0($2)
  403630:	71 00 00 00 00 02 00 02 	add.d $f2,$f2,$f0
  403638:	75 00 00 00 00 02 06 02 	mul.d $f2,$f2,$f6
  403640:	55 00 00 00 03 02 0a 00 	sll $2,$10,0x3
  403648:	42 00 00 00 00 02 06 02 	addu $2,$2,$6
  403650:	2b 00 00 00 f0 ff 00 02 	l.d $f0,-16($2)
  403658:	71 00 00 00 00 00 02 00 	add.d $f0,$f0,$f2
  403660:	43 00 00 00 03 00 08 00 	addiu $8,$0,3
  403668:	5c 00 00 00 03 00 03 10 	slti $3,$16,3
  403670:	43 00 00 00 06 00 0a 0b 	addiu $10,$11,6
  403678:	37 00 00 00 f0 ff 00 02 	s.d $f0,-16($2)
  403680:	06 00 00 00 58 00 00 03 	bne $3,$0,4037e8 <interp_+0xc08>
  403688:	42 00 00 00 00 03 08 0d 	addu $3,$13,$8
  403690:	55 00 00 00 03 03 03 00 	sll $3,$3,0x3
  403698:	42 00 00 00 00 03 04 03 	addu $3,$3,$4
  4036a0:	42 00 00 00 00 02 08 0c 	addu $2,$12,$8
  4036a8:	55 00 00 00 03 02 02 00 	sll $2,$2,0x3
  4036b0:	42 00 00 00 00 02 04 02 	addu $2,$2,$4
  4036b8:	2b 00 00 00 f8 ff 02 03 	l.d $f2,-8($3)
  4036c0:	2b 00 00 00 f8 ff 00 02 	l.d $f0,-8($2)
  4036c8:	71 00 00 00 00 02 00 02 	add.d $f2,$f2,$f0
  4036d0:	2b 00 00 00 00 00 00 03 	l.d $f0,0($3)
  4036d8:	71 00 00 00 00 02 00 02 	add.d $f2,$f2,$f0
  4036e0:	2b 00 00 00 00 00 00 02 	l.d $f0,0($2)
  4036e8:	71 00 00 00 00 02 00 02 	add.d $f2,$f2,$f0
  4036f0:	75 00 00 00 00 02 06 02 	mul.d $f2,$f2,$f6
  4036f8:	55 00 00 00 03 02 0a 00 	sll $2,$10,0x3
  403700:	42 00 00 00 00 02 06 02 	addu $2,$2,$6
  403708:	2b 00 00 00 f0 ff 00 02 	l.d $f0,-16($2)
  403710:	71 00 00 00 00 00 02 00 	add.d $f0,$f0,$f2
  403718:	37 00 00 00 f0 ff 00 02 	s.d $f0,-16($2)
  403720:	43 00 00 00 01 00 02 08 	addiu $2,$8,1
  403728:	42 00 00 00 00 03 02 0d 	addu $3,$13,$2
  403730:	55 00 00 00 03 03 03 00 	sll $3,$3,0x3
  403738:	42 00 00 00 00 03 04 03 	addu $3,$3,$4
  403740:	42 00 00 00 00 02 02 0c 	addu $2,$12,$2
  403748:	55 00 00 00 03 02 02 00 	sll $2,$2,0x3
  403750:	42 00 00 00 00 02 04 02 	addu $2,$2,$4
  403758:	2b 00 00 00 f8 ff 02 03 	l.d $f2,-8($3)
  403760:	2b 00 00 00 f8 ff 00 02 	l.d $f0,-8($2)
  403768:	71 00 00 00 00 02 00 02 	add.d $f2,$f2,$f0
  403770:	2b 00 00 00 00 00 00 03 	l.d $f0,0($3)
  403778:	71 00 00 00 00 02 00 02 	add.d $f2,$f2,$f0
  403780:	2b 00 00 00 00 00 00 02 	l.d $f0,0($2)
  403788:	71 00 00 00 00 02 00 02 	add.d $f2,$f2,$f0
  403790:	75 00 00 00 00 02 06 02 	mul.d $f2,$f2,$f6
  403798:	43 00 00 00 02 00 02 0a 	addiu $2,$10,2
  4037a0:	55 00 00 00 03 02 02 00 	sll $2,$2,0x3
  4037a8:	42 00 00 00 00 02 06 02 	addu $2,$2,$6
  4037b0:	2b 00 00 00 f0 ff 00 02 	l.d $f0,-16($2)
  4037b8:	71 00 00 00 00 00 02 00 	add.d $f0,$f0,$f2
  4037c0:	43 00 00 00 02 00 08 08 	addiu $8,$8,2
  4037c8:	5b 00 00 00 00 03 08 10 	slt $3,$16,$8
  4037d0:	43 00 00 00 04 00 0a 0a 	addiu $10,$10,4
  4037d8:	37 00 00 00 f0 ff 00 02 	s.d $f0,-16($2)
  4037e0:	05 00 00 00 a8 ff 00 03 	beq $3,$0,403688 <interp_+0xaa8>
  4037e8:	43 00 00 00 01 00 07 07 	addiu $7,$7,1
  4037f0:	43 00 00 00 01 00 05 05 	addiu $5,$5,1
  4037f8:	43 00 00 00 02 00 19 19 	addiu $25,$25,2
  403800:	43 00 00 00 01 00 0f 0f 	addiu $15,$15,1
  403808:	5b 00 00 00 00 02 0f 0e 	slt $2,$14,$15
  403810:	05 00 00 00 bc fe 00 02 	beq $2,$0,403308 <interp_+0x728>
  403818:	28 00 00 00 30 00 15 1d 	lw $21,48($29)
  403820:	28 00 00 00 38 00 17 1d 	lw $23,56($29)
  403828:	42 00 00 00 00 15 17 15 	addu $21,$21,$23
  403830:	34 00 00 00 30 00 15 1d 	sw $21,48($29)
  403838:	28 00 00 00 28 00 15 1d 	lw $21,40($29)
  403840:	43 00 00 00 02 00 13 13 	addiu $19,$19,2
  403848:	42 00 00 00 00 16 17 16 	addu $22,$22,$23
  403850:	43 00 00 00 01 00 15 15 	addiu $21,$21,1
  403858:	5b 00 00 00 00 02 15 11 	slt $2,$17,$21
  403860:	34 00 00 00 28 00 15 1d 	sw $21,40($29)
  403868:	05 00 00 00 32 fd 00 02 	beq $2,$0,402d38 <interp_+0x158>
  403870:	28 00 00 00 00 00 02 12 	lw $2,0($18)
  403878:	43 00 00 00 02 00 17 00 	addiu $23,$0,2
  403880:	43 00 00 00 ff ff 10 02 	addiu $16,$2,-1
  403888:	5c 00 00 00 02 00 02 10 	slti $2,$16,2
  403890:	34 00 00 00 28 00 17 1d 	sw $23,40($29)
  403898:	06 00 00 00 82 02 00 02 	bne $2,$0,4042a8 <interp_+0x16c8>
  4038a0:	2b 00 00 00 80 80 08 1c 	l.d $f8,-32640($28)
  4038a8:	2b 00 00 00 88 80 06 1c 	l.d $f6,-32632($28)
  4038b0:	28 00 00 00 38 00 15 1d 	lw $21,56($29)
  4038b8:	43 00 00 00 01 00 1e 00 	addiu $30,$0,1
  4038c0:	34 00 00 00 30 00 17 1d 	sw $23,48($29)
  4038c8:	55 00 00 00 01 02 15 00 	sll $2,$21,0x1
  4038d0:	43 00 00 00 ff ff 16 02 	addiu $22,$2,-1
  4038d8:	42 00 00 00 00 13 02 00 	addu $19,$0,$2
  4038e0:	28 00 00 00 00 00 02 12 	lw $2,0($18)
  4038e8:	43 00 00 00 02 00 0f 00 	addiu $15,$0,2
  4038f0:	43 00 00 00 ff ff 0e 02 	addiu $14,$2,-1
  4038f8:	5c 00 00 00 02 00 02 0e 	slti $2,$14,2
  403900:	06 00 00 00 58 01 00 02 	bne $2,$0,403e68 <interp_+0x1288>
  403908:	28 00 00 00 30 00 15 1d 	lw $21,48($29)
  403910:	28 00 00 00 18 00 17 1d 	lw $23,24($29)
  403918:	46 00 00 00 00 00 17 15 	mult $21,$23
  403920:	28 00 00 00 38 00 15 1d 	lw $21,56($29)
  403928:	4c 00 00 00 00 03 00 00 	mflo $3
  403930:	46 00 00 00 00 00 15 1e 	mult $30,$21
  403938:	4c 00 00 00 00 02 00 00 	mflo $2
  403940:	43 00 00 00 03 00 05 03 	addiu $5,$3,3
  403948:	43 00 00 00 02 00 19 02 	addiu $25,$2,2
  403950:	28 00 00 00 00 00 09 12 	lw $9,0($18)
  403958:	43 00 00 00 02 00 08 00 	addiu $8,$0,2
  403960:	43 00 00 00 ff ff 11 09 	addiu $17,$9,-1
  403968:	5c 00 00 00 02 00 02 11 	slti $2,$17,2
  403970:	06 00 00 00 88 00 00 02 	bne $2,$0,403b98 <interp_+0xfb8>
  403978:	46 00 00 00 00 00 14 05 	mult $5,$20
  403980:	4c 00 00 00 00 0b 00 00 	mflo $11
  403988:	46 00 00 00 00 00 18 19 	mult $25,$24
  403990:	4c 00 00 00 00 0d 00 00 	mflo $13
  403998:	42 00 00 00 00 02 13 0f 	addu $2,$15,$19
  4039a0:	46 00 00 00 00 00 18 02 	mult $2,$24
  4039a8:	43 00 00 00 04 00 0a 0b 	addiu $10,$11,4
  4039b0:	4c 00 00 00 00 0c 00 00 	mflo $12
  4039b8:	43 00 00 00 fe ff 02 09 	addiu $2,$9,-2
  4039c0:	4f 00 00 00 01 00 03 02 	andi $3,$2,1
  4039c8:	5b 00 00 00 00 02 09 08 	slt $2,$8,$9
  4039d0:	05 00 00 00 02 00 00 02 	beq $2,$0,4039e0 <interp_+0xe00>
  4039d8:	05 00 00 00 26 00 00 03 	beq $3,$0,403a78 <interp_+0xe98>
  4039e0:	43 00 00 00 02 00 03 0d 	addiu $3,$13,2
  4039e8:	55 00 00 00 03 03 03 00 	sll $3,$3,0x3
  4039f0:	42 00 00 00 00 03 04 03 	addu $3,$3,$4
  4039f8:	43 00 00 00 02 00 02 0c 	addiu $2,$12,2
  403a00:	55 00 00 00 03 02 02 00 	sll $2,$2,0x3
  403a08:	42 00 00 00 00 02 04 02 	addu $2,$2,$4
  403a10:	2b 00 00 00 00 00 02 03 	l.d $f2,0($3)
  403a18:	2b 00 00 00 00 00 00 02 	l.d $f0,0($2)
  403a20:	71 00 00 00 00 02 00 02 	add.d $f2,$f2,$f0
  403a28:	75 00 00 00 00 02 08 02 	mul.d $f2,$f2,$f8
  403a30:	55 00 00 00 03 02 0a 00 	sll $2,$10,0x3
  403a38:	42 00 00 00 00 02 06 02 	addu $2,$2,$6
  403a40:	2b 00 00 00 f8 ff 00 02 	l.d $f0,-8($2)
  403a48:	71 00 00 00 00 00 02 00 	add.d $f0,$f0,$f2
  403a50:	43 00 00 00 03 00 08 00 	addiu $8,$0,3
  403a58:	43 00 00 00 06 00 0a 0b 	addiu $10,$11,6
  403a60:	5c 00 00 00 03 00 03 11 	slti $3,$17,3
  403a68:	37 00 00 00 f8 ff 00 02 	s.d $f0,-8($2)
  403a70:	06 00 00 00 48 00 00 03 	bne $3,$0,403b98 <interp_+0xfb8>
  403a78:	42 00 00 00 00 03 0d 08 	addu $3,$8,$13
  403a80:	55 00 00 00 03 03 03 00 	sll $3,$3,0x3
  403a88:	42 00 00 00 00 03 04 03 	addu $3,$3,$4
  403a90:	42 00 00 00 00 02 0c 08 	addu $2,$8,$12
  403a98:	55 00 00 00 03 02 02 00 	sll $2,$2,0x3
  403aa0:	42 00 00 00 00 02 04 02 	addu $2,$2,$4
  403aa8:	2b 00 00 00 00 00 02 03 	l.d $f2,0($3)
  403ab0:	2b 00 00 00 00 00 00 02 	l.d $f0,0($2)
  403ab8:	71 00 00 00 00 02 00 02 	add.d $f2,$f2,$f0
  403ac0:	75 00 00 00 00 02 08 02 	mul.d $f2,$f2,$f8
  403ac8:	55 00 00 00 03 02 0a 00 	sll $2,$10,0x3
  403ad0:	42 00 00 00 00 02 06 02 	addu $2,$2,$6
  403ad8:	2b 00 00 00 f8 ff 00 02 	l.d $f0,-8($2)
  403ae0:	71 00 00 00 00 00 02 00 	add.d $f0,$f0,$f2
  403ae8:	37 00 00 00 f8 ff 00 02 	s.d $f0,-8($2)
  403af0:	43 00 00 00 01 00 02 08 	addiu $2,$8,1
  403af8:	42 00 00 00 00 03 0d 02 	addu $3,$2,$13
  403b00:	55 00 00 00 03 03 03 00 	sll $3,$3,0x3
  403b08:	42 00 00 00 00 03 04 03 	addu $3,$3,$4
  403b10:	42 00 00 00 00 02 0c 02 	addu $2,$2,$12
  403b18:	55 00 00 00 03 02 02 00 	sll $2,$2,0x3
  403b20:	42 00 00 00 00 02 04 02 	addu $2,$2,$4
  403b28:	2b 00 00 00 00 00 02 03 	l.d $f2,0($3)
  403b30:	2b 00 00 00 00 00 00 02 	l.d $f0,0($2)
  403b38:	71 00 00 00 00 02 00 02 	add.d $f2,$f2,$f0
  403b40:	75 00 00 00 00 02 08 02 	mul.d $f2,$f2,$f8
  403b48:	43 00 00 00 02 00 02 0a 	addiu $2,$10,2
  403b50:	55 00 00 00 03 02 02 00 	sll $2,$2,0x3
  403b58:	42 00 00 00 00 02 06 02 	addu $2,$2,$6
  403b60:	2b 00 00 00 f8 ff 00 02 	l.d $f0,-8($2)
  403b68:	71 00 00 00 00 00 02 00 	add.d $f0,$f0,$f2
  403b70:	43 00 00 00 02 00 08 08 	addiu $8,$8,2
  403b78:	43 00 00 00 04 00 0a 0a 	addiu $10,$10,4
  403b80:	5b 00 00 00 00 03 08 11 	slt $3,$17,$8
  403b88:	37 00 00 00 f8 ff 00 02 	s.d $f0,-8($2)
  403b90:	05 00 00 00 b8 ff 00 03 	beq $3,$0,403a78 <interp_+0xe98>
  403b98:	28 00 00 00 00 00 09 12 	lw $9,0($18)
  403ba0:	43 00 00 00 02 00 08 00 	addiu $8,$0,2
  403ba8:	43 00 00 00 ff ff 11 09 	addiu $17,$9,-1
  403bb0:	5c 00 00 00 02 00 02 11 	slti $2,$17,2
  403bb8:	06 00 00 00 a0 00 00 02 	bne $2,$0,403e40 <interp_+0x1260>
  403bc0:	46 00 00 00 00 00 14 05 	mult $5,$20
  403bc8:	4c 00 00 00 00 0b 00 00 	mflo $11
  403bd0:	46 00 00 00 00 00 18 19 	mult $25,$24
  403bd8:	4c 00 00 00 00 0d 00 00 	mflo $13
  403be0:	42 00 00 00 00 02 13 0f 	addu $2,$15,$19
  403be8:	46 00 00 00 00 00 18 02 	mult $2,$24
  403bf0:	43 00 00 00 04 00 0a 0b 	addiu $10,$11,4
  403bf8:	4c 00 00 00 00 0c 00 00 	mflo $12
  403c00:	43 00 00 00 fe ff 02 09 	addiu $2,$9,-2
  403c08:	4f 00 00 00 01 00 03 02 	andi $3,$2,1
  403c10:	5b 00 00 00 00 02 09 08 	slt $2,$8,$9
  403c18:	05 00 00 00 02 00 00 02 	beq $2,$0,403c28 <interp_+0x1048>
  403c20:	05 00 00 00 2e 00 00 03 	beq $3,$0,403ce0 <interp_+0x1100>
  403c28:	43 00 00 00 02 00 02 0d 	addiu $2,$13,2
  403c30:	55 00 00 00 03 02 02 00 	sll $2,$2,0x3
  403c38:	42 00 00 00 00 02 04 02 	addu $2,$2,$4
  403c40:	2b 00 00 00 f8 ff 02 02 	l.d $f2,-8($2)
  403c48:	2b 00 00 00 00 00 00 02 	l.d $f0,0($2)
  403c50:	71 00 00 00 00 02 00 02 	add.d $f2,$f2,$f0
  403c58:	43 00 00 00 02 00 02 0c 	addiu $2,$12,2
  403c60:	55 00 00 00 03 02 02 00 	sll $2,$2,0x3
  403c68:	42 00 00 00 00 02 04 02 	addu $2,$2,$4
  403c70:	2b 00 00 00 f8 ff 00 02 	l.d $f0,-8($2)
  403c78:	71 00 00 00 00 02 00 02 	add.d $f2,$f2,$f0
  403c80:	2b 00 00 00 00 00 00 02 	l.d $f0,0($2)
  403c88:	71 00 00 00 00 02 00 02 	add.d $f2,$f2,$f0
  403c90:	75 00 00 00 00 02 06 02 	mul.d $f2,$f2,$f6
  403c98:	55 00 00 00 03 02 0a 00 	sll $2,$10,0x3
  403ca0:	42 00 00 00 00 02 06 02 	addu $2,$2,$6
  403ca8:	2b 00 00 00 f0 ff 00 02 	l.d $f0,-16($2)
  403cb0:	71 00 00 00 00 00 02 00 	add.d $f0,$f0,$f2
  403cb8:	43 00 00 00 03 00 08 00 	addiu $8,$0,3
  403cc0:	5c 00 00 00 03 00 03 11 	slti $3,$17,3
  403cc8:	43 00 00 00 06 00 0a 0b 	addiu $10,$11,6
  403cd0:	37 00 00 00 f0 ff 00 02 	s.d $f0,-16($2)
  403cd8:	06 00 00 00 58 00 00 03 	bne $3,$0,403e40 <interp_+0x1260>
  403ce0:	42 00 00 00 00 02 08 0d 	addu $2,$13,$8
  403ce8:	55 00 00 00 03 02 02 00 	sll $2,$2,0x3
  403cf0:	42 00 00 00 00 02 04 02 	addu $2,$2,$4
  403cf8:	2b 00 00 00 f8 ff 02 02 	l.d $f2,-8($2)
  403d00:	2b 00 00 00 00 00 00 02 	l.d $f0,0($2)
  403d08:	71 00 00 00 00 02 00 02 	add.d $f2,$f2,$f0
  403d10:	42 00 00 00 00 02 08 0c 	addu $2,$12,$8
  403d18:	55 00 00 00 03 02 02 00 	sll $2,$2,0x3
  403d20:	42 00 00 00 00 02 04 02 	addu $2,$2,$4
  403d28:	2b 00 00 00 f8 ff 00 02 	l.d $f0,-8($2)
  403d30:	71 00 00 00 00 02 00 02 	add.d $f2,$f2,$f0
  403d38:	2b 00 00 00 00 00 00 02 	l.d $f0,0($2)
  403d40:	71 00 00 00 00 02 00 02 	add.d $f2,$f2,$f0
  403d48:	75 00 00 00 00 02 06 02 	mul.d $f2,$f2,$f6
  403d50:	55 00 00 00 03 02 0a 00 	sll $2,$10,0x3
  403d58:	42 00 00 00 00 02 06 02 	addu $2,$2,$6
  403d60:	2b 00 00 00 f0 ff 00 02 	l.d $f0,-16($2)
  403d68:	71 00 00 00 00 00 02 00 	add.d $f0,$f0,$f2
  403d70:	43 00 00 00 01 00 03 08 	addiu $3,$8,1
  403d78:	37 00 00 00 f0 ff 00 02 	s.d $f0,-16($2)
  403d80:	42 00 00 00 00 02 03 0d 	addu $2,$13,$3
  403d88:	55 00 00 00 03 02 02 00 	sll $2,$2,0x3
  403d90:	42 00 00 00 00 02 04 02 	addu $2,$2,$4
  403d98:	2b 00 00 00 f8 ff 02 02 	l.d $f2,-8($2)
  403da0:	2b 00 00 00 00 00 00 02 	l.d $f0,0($2)
  403da8:	71 00 00 00 00 02 00 02 	add.d $f2,$f2,$f0
  403db0:	42 00 00 00 00 03 03 0c 	addu $3,$12,$3
  403db8:	55 00 00 00 03 03 03 00 	sll $3,$3,0x3
  403dc0:	42 00 00 00 00 03 04 03 	addu $3,$3,$4
  403dc8:	2b 00 00 00 f8 ff 00 03 	l.d $f0,-8($3)
  403dd0:	71 00 00 00 00 02 00 02 	add.d $f2,$f2,$f0
  403dd8:	2b 00 00 00 00 00 00 03 	l.d $f0,0($3)
  403de0:	71 00 00 00 00 02 00 02 	add.d $f2,$f2,$f0
  403de8:	75 00 00 00 00 02 06 02 	mul.d $f2,$f2,$f6
  403df0:	43 00 00 00 02 00 02 0a 	addiu $2,$10,2
  403df8:	55 00 00 00 03 02 02 00 	sll $2,$2,0x3
  403e00:	42 00 00 00 00 02 06 02 	addu $2,$2,$6
  403e08:	2b 00 00 00 f0 ff 00 02 	l.d $f0,-16($2)
  403e10:	71 00 00 00 00 00 02 00 	add.d $f0,$f0,$f2
  403e18:	43 00 00 00 02 00 08 08 	addiu $8,$8,2
  403e20:	43 00 00 00 04 00 0a 0a 	addiu $10,$10,4
  403e28:	5b 00 00 00 00 03 08 11 	slt $3,$17,$8
  403e30:	37 00 00 00 f0 ff 00 02 	s.d $f0,-16($2)
  403e38:	05 00 00 00 a8 ff 00 03 	beq $3,$0,403ce0 <interp_+0x1100>
  403e40:	43 00 00 00 01 00 19 19 	addiu $25,$25,1
  403e48:	43 00 00 00 02 00 05 05 	addiu $5,$5,2
  403e50:	43 00 00 00 01 00 0f 0f 	addiu $15,$15,1
  403e58:	5b 00 00 00 00 02 0f 0e 	slt $2,$14,$15
  403e60:	05 00 00 00 ba fe 00 02 	beq $2,$0,403950 <interp_+0xd70>
  403e68:	28 00 00 00 00 00 02 12 	lw $2,0($18)
  403e70:	43 00 00 00 02 00 0f 00 	addiu $15,$0,2
  403e78:	43 00 00 00 ff ff 11 02 	addiu $17,$2,-1
  403e80:	5c 00 00 00 02 00 02 11 	slti $2,$17,2
  403e88:	06 00 00 00 ee 00 00 02 	bne $2,$0,404248 <interp_+0x1668>
  403e90:	28 00 00 00 30 00 17 1d 	lw $23,48($29)
  403e98:	28 00 00 00 18 00 15 1d 	lw $21,24($29)
  403ea0:	46 00 00 00 00 00 15 17 	mult $23,$21
  403ea8:	28 00 00 00 38 00 17 1d 	lw $23,56($29)
  403eb0:	4c 00 00 00 00 03 00 00 	mflo $3
  403eb8:	46 00 00 00 00 00 17 1e 	mult $30,$23
  403ec0:	4c 00 00 00 00 02 00 00 	mflo $2
  403ec8:	43 00 00 00 02 00 05 03 	addiu $5,$3,2
  403ed0:	43 00 00 00 02 00 19 02 	addiu $25,$2,2
  403ed8:	43 00 00 00 01 00 0c 02 	addiu $12,$2,1
  403ee0:	28 00 00 00 00 00 02 12 	lw $2,0($18)
  403ee8:	43 00 00 00 02 00 08 00 	addiu $8,$0,2
  403ef0:	43 00 00 00 ff ff 0e 02 	addiu $14,$2,-1
  403ef8:	5c 00 00 00 02 00 02 0e 	slti $2,$14,2
  403f00:	06 00 00 00 54 00 00 02 	bne $2,$0,404058 <interp_+0x1478>
  403f08:	46 00 00 00 00 00 14 05 	mult $5,$20
  403f10:	4c 00 00 00 00 03 00 00 	mflo $3
  403f18:	46 00 00 00 00 00 18 0c 	mult $12,$24
  403f20:	4c 00 00 00 00 07 00 00 	mflo $7
  403f28:	46 00 00 00 00 00 18 19 	mult $25,$24
  403f30:	4c 00 00 00 00 0d 00 00 	mflo $13
  403f38:	42 00 00 00 00 02 16 0f 	addu $2,$15,$22
  403f40:	46 00 00 00 00 00 18 02 	mult $2,$24
  403f48:	4c 00 00 00 00 0b 00 00 	mflo $11
  403f50:	42 00 00 00 00 02 13 0f 	addu $2,$15,$19
  403f58:	46 00 00 00 00 00 18 02 	mult $2,$24
  403f60:	43 00 00 00 04 00 09 03 	addiu $9,$3,4
  403f68:	4c 00 00 00 00 0a 00 00 	mflo $10
  403f70:	42 00 00 00 00 03 07 08 	addu $3,$8,$7
  403f78:	55 00 00 00 03 03 03 00 	sll $3,$3,0x3
  403f80:	42 00 00 00 00 02 0d 08 	addu $2,$8,$13
  403f88:	55 00 00 00 03 02 02 00 	sll $2,$2,0x3
  403f90:	42 00 00 00 00 02 04 02 	addu $2,$2,$4
  403f98:	2b 00 00 00 00 00 00 02 	l.d $f0,0($2)
  403fa0:	42 00 00 00 00 03 04 03 	addu $3,$3,$4
  403fa8:	2b 00 00 00 00 00 02 03 	l.d $f2,0($3)
  403fb0:	42 00 00 00 00 02 0b 08 	addu $2,$8,$11
  403fb8:	55 00 00 00 03 02 02 00 	sll $2,$2,0x3
  403fc0:	42 00 00 00 00 02 04 02 	addu $2,$2,$4
  403fc8:	2b 00 00 00 00 00 04 02 	l.d $f4,0($2)
  403fd0:	71 00 00 00 00 02 00 02 	add.d $f2,$f2,$f0
  403fd8:	42 00 00 00 00 02 0a 08 	addu $2,$8,$10
  403fe0:	55 00 00 00 03 02 02 00 	sll $2,$2,0x3
  403fe8:	42 00 00 00 00 02 04 02 	addu $2,$2,$4
  403ff0:	71 00 00 00 00 02 04 02 	add.d $f2,$f2,$f4
  403ff8:	2b 00 00 00 00 00 00 02 	l.d $f0,0($2)
  404000:	71 00 00 00 00 02 00 02 	add.d $f2,$f2,$f0
  404008:	75 00 00 00 00 02 06 02 	mul.d $f2,$f2,$f6
  404010:	55 00 00 00 03 02 09 00 	sll $2,$9,0x3
  404018:	42 00 00 00 00 02 06 02 	addu $2,$2,$6
  404020:	2b 00 00 00 f8 ff 00 02 	l.d $f0,-8($2)
  404028:	71 00 00 00 00 00 02 00 	add.d $f0,$f0,$f2
  404030:	43 00 00 00 01 00 08 08 	addiu $8,$8,1
  404038:	43 00 00 00 02 00 09 09 	addiu $9,$9,2
  404040:	37 00 00 00 f8 ff 00 02 	s.d $f0,-8($2)
  404048:	5b 00 00 00 00 02 08 0e 	slt $2,$14,$8
  404050:	05 00 00 00 c6 ff 00 02 	beq $2,$0,403f70 <interp_+0x1390>
  404058:	28 00 00 00 00 00 02 12 	lw $2,0($18)
  404060:	43 00 00 00 02 00 08 00 	addiu $8,$0,2
  404068:	43 00 00 00 ff ff 0e 02 	addiu $14,$2,-1
  404070:	5c 00 00 00 02 00 02 0e 	slti $2,$14,2
  404078:	06 00 00 00 66 00 00 02 	bne $2,$0,404218 <interp_+0x1638>
  404080:	46 00 00 00 00 00 14 05 	mult $5,$20
  404088:	4c 00 00 00 00 03 00 00 	mflo $3
  404090:	46 00 00 00 00 00 18 0c 	mult $12,$24
  404098:	4c 00 00 00 00 07 00 00 	mflo $7
  4040a0:	46 00 00 00 00 00 18 19 	mult $25,$24
  4040a8:	4c 00 00 00 00 0d 00 00 	mflo $13
  4040b0:	42 00 00 00 00 02 16 0f 	addu $2,$15,$22
  4040b8:	46 00 00 00 00 00 18 02 	mult $2,$24
  4040c0:	4c 00 00 00 00 0b 00 00 	mflo $11
  4040c8:	42 00 00 00 00 02 13 0f 	addu $2,$15,$19
  4040d0:	46 00 00 00 00 00 18 02 	mult $2,$24
  4040d8:	43 00 00 00 04 00 09 03 	addiu $9,$3,4
  4040e0:	4c 00 00 00 00 0a 00 00 	mflo $10
  4040e8:	42 00 00 00 00 03 08 07 	addu $3,$7,$8
  4040f0:	55 00 00 00 03 03 03 00 	sll $3,$3,0x3
  4040f8:	42 00 00 00 00 03 04 03 	addu $3,$3,$4
  404100:	42 00 00 00 00 02 08 0d 	addu $2,$13,$8
  404108:	55 00 00 00 03 02 02 00 	sll $2,$2,0x3
  404110:	42 00 00 00 00 02 04 02 	addu $2,$2,$4
  404118:	2b 00 00 00 f8 ff 02 03 	l.d $f2,-8($3)
  404120:	2b 00 00 00 f8 ff 00 02 	l.d $f0,-8($2)
  404128:	71 00 00 00 00 02 00 02 	add.d $f2,$f2,$f0
  404130:	2b 00 00 00 00 00 00 03 	l.d $f0,0($3)
  404138:	2b 00 00 00 00 00 04 02 	l.d $f4,0($2)
  404140:	71 00 00 00 00 02 00 02 	add.d $f2,$f2,$f0
  404148:	42 00 00 00 00 03 08 0b 	addu $3,$11,$8
  404150:	55 00 00 00 03 03 03 00 	sll $3,$3,0x3
  404158:	42 00 00 00 00 03 04 03 	addu $3,$3,$4
  404160:	71 00 00 00 00 02 04 02 	add.d $f2,$f2,$f4
  404168:	2b 00 00 00 f8 ff 00 03 	l.d $f0,-8($3)
  404170:	71 00 00 00 00 02 00 02 	add.d $f2,$f2,$f0
  404178:	42 00 00 00 00 02 08 0a 	addu $2,$10,$8
  404180:	55 00 00 00 03 02 02 00 	sll $2,$2,0x3
  404188:	42 00 00 00 00 02 04 02 	addu $2,$2,$4
  404190:	2b 00 00 00 f8 ff 00 02 	l.d $f0,-8($2)
  404198:	71 00 00 00 00 02 00 02 	add.d $f2,$f2,$f0
  4041a0:	2b 00 00 00 00 00 00 03 	l.d $f0,0($3)
  4041a8:	71 00 00 00 00 02 00 02 	add.d $f2,$f2,$f0
  4041b0:	2b 00 00 00 00 00 00 02 	l.d $f0,0($2)
  4041b8:	71 00 00 00 00 02 00 02 	add.d $f2,$f2,$f0
  4041c0:	2b 00 00 00 90 80 00 1c 	l.d $f0,-32624($28)
  4041c8:	75 00 00 00 00 02 00 02 	mul.d $f2,$f2,$f0
  4041d0:	55 00 00 00 03 02 09 00 	sll $2,$9,0x3
  4041d8:	42 00 00 00 00 02 06 02 	addu $2,$2,$6
  4041e0:	2b 00 00 00 f0 ff 00 02 	l.d $f0,-16($2)
  4041e8:	71 00 00 00 00 00 02 00 	add.d $f0,$f0,$f2
  4041f0:	43 00 00 00 01 00 08 08 	addiu $8,$8,1
  4041f8:	43 00 00 00 02 00 09 09 	addiu $9,$9,2
  404200:	37 00 00 00 f0 ff 00 02 	s.d $f0,-16($2)
  404208:	5b 00 00 00 00 02 08 0e 	slt $2,$14,$8
  404210:	05 00 00 00 b4 ff 00 02 	beq $2,$0,4040e8 <interp_+0x1508>
  404218:	43 00 00 00 01 00 19 19 	addiu $25,$25,1
  404220:	43 00 00 00 01 00 0c 0c 	addiu $12,$12,1
  404228:	43 00 00 00 02 00 05 05 	addiu $5,$5,2
  404230:	43 00 00 00 01 00 0f 0f 	addiu $15,$15,1
  404238:	5b 00 00 00 00 02 0f 11 	slt $2,$17,$15
  404240:	05 00 00 00 26 ff 00 02 	beq $2,$0,403ee0 <interp_+0x1300>
  404248:	28 00 00 00 38 00 15 1d 	lw $21,56($29)
  404250:	28 00 00 00 30 00 17 1d 	lw $23,48($29)
  404258:	42 00 00 00 00 16 15 16 	addu $22,$22,$21
  404260:	42 00 00 00 00 13 15 13 	addu $19,$19,$21
  404268:	28 00 00 00 28 00 15 1d 	lw $21,40($29)
  404270:	43 00 00 00 01 00 1e 1e 	addiu $30,$30,1
  404278:	43 00 00 00 02 00 17 17 	addiu $23,$23,2
  404280:	34 00 00 00 30 00 17 1d 	sw $23,48($29)
  404288:	43 00 00 00 01 00 15 15 	addiu $21,$21,1
  404290:	5b 00 00 00 00 02 15 10 	slt $2,$16,$21
  404298:	34 00 00 00 28 00 15 1d 	sw $21,40($29)
  4042a0:	05 00 00 00 8e fd 00 02 	beq $2,$0,4038e0 <interp_+0xd00>
  4042a8:	28 00 00 00 20 00 17 1d 	lw $23,32($29)
  4042b0:	28 00 00 00 10 00 05 1d 	lw $5,16($29)
  4042b8:	55 00 00 00 03 04 17 00 	sll $4,$23,0x3
  4042c0:	42 00 00 00 00 04 04 06 	addu $4,$6,$4
  4042c8:	02 00 00 00 ce 10 10 00 	jal 404338 <comm3_>
  4042d0:	42 00 00 00 00 02 00 00 	addu $2,$0,$0
  4042d8:	28 00 00 00 64 00 1f 1d 	lw $31,100($29)
  4042e0:	28 00 00 00 60 00 1e 1d 	lw $30,96($29)
  4042e8:	28 00 00 00 5c 00 17 1d 	lw $23,92($29)
  4042f0:	28 00 00 00 58 00 16 1d 	lw $22,88($29)
  4042f8:	28 00 00 00 54 00 15 1d 	lw $21,84($29)
  404300:	28 00 00 00 50 00 14 1d 	lw $20,80($29)
  404308:	28 00 00 00 4c 00 13 1d 	lw $19,76($29)
  404310:	28 00 00 00 48 00 12 1d 	lw $18,72($29)
  404318:	28 00 00 00 44 00 11 1d 	lw $17,68($29)
  404320:	28 00 00 00 40 00 10 1d 	lw $16,64($29)
  404328:	43 00 00 00 68 00 1d 1d 	addiu $29,$29,104
  404330:	03 00 00 00 00 00 00 1f 	jr $31

00404338 <comm3_>:
  404338:	43 00 00 00 f0 ff 1d 1d 	addiu $29,$29,-16
  404340:	34 00 00 00 0c 00 13 1d 	sw $19,12($29)
  404348:	34 00 00 00 08 00 12 1d 	sw $18,8($29)
  404350:	34 00 00 00 04 00 11 1d 	sw $17,4($29)
  404358:	34 00 00 00 00 00 10 1d 	sw $16,0($29)
  404360:	28 00 00 00 00 00 0a 05 	lw $10,0($5)
  404368:	43 00 00 00 01 00 02 0a 	addiu $2,$10,1
  404370:	46 00 00 00 00 00 02 0a 	mult $10,$2
  404378:	43 00 00 00 02 00 11 00 	addiu $17,$0,2
  404380:	4c 00 00 00 00 02 00 00 	mflo $2
  404388:	43 00 00 00 ff ff 10 0a 	addiu $16,$10,-1
  404390:	42 00 00 00 00 0c 0a 00 	addu $12,$0,$10
  404398:	43 00 00 00 01 00 02 02 	addiu $2,$2,1
  4043a0:	55 00 00 00 03 02 02 00 	sll $2,$2,0x3
  4043a8:	45 00 00 00 00 07 02 04 	subu $7,$4,$2
  4043b0:	5c 00 00 00 02 00 02 10 	slti $2,$16,2
  4043b8:	06 00 00 00 0e 01 00 02 	bne $2,$0,4047f8 <comm3_+0x4c0>
  4043c0:	55 00 00 00 01 0b 0a 00 	sll $11,$10,0x1
  4043c8:	28 00 00 00 00 00 06 05 	lw $6,0($5)
  4043d0:	43 00 00 00 02 00 08 00 	addiu $8,$0,2
  4043d8:	43 00 00 00 ff ff 0d 06 	addiu $13,$6,-1
  4043e0:	5c 00 00 00 02 00 02 0d 	slti $2,$13,2
  4043e8:	06 00 00 00 fa 00 00 02 	bne $2,$0,4047d8 <comm3_+0x4a0>
  4043f0:	42 00 00 00 00 09 0b 00 	addu $9,$0,$11
  4043f8:	43 00 00 00 fe ff 02 06 	addiu $2,$6,-2
  404400:	4f 00 00 00 03 00 03 02 	andi $3,$2,3
  404408:	5b 00 00 00 00 02 06 08 	slt $2,$8,$6
  404410:	05 00 00 00 50 00 00 02 	beq $2,$0,404558 <comm3_+0x220>
  404418:	05 00 00 00 5a 00 00 03 	beq $3,$0,404588 <comm3_+0x250>
  404420:	5c 00 00 00 02 00 02 03 	slti $2,$3,2
  404428:	06 00 00 00 4a 00 00 02 	bne $2,$0,404558 <comm3_+0x220>
  404430:	5c 00 00 00 03 00 02 03 	slti $2,$3,3
  404438:	06 00 00 00 22 00 00 02 	bne $2,$0,4044c8 <comm3_+0x190>
  404440:	43 00 00 00 02 00 02 0b 	addiu $2,$11,2
  404448:	46 00 00 00 00 00 0a 02 	mult $2,$10
  404450:	4c 00 00 00 00 04 00 00 	mflo $4
  404458:	42 00 00 00 00 02 06 04 	addu $2,$4,$6
  404460:	55 00 00 00 03 02 02 00 	sll $2,$2,0x3
  404468:	42 00 00 00 00 02 07 02 	addu $2,$2,$7
  404470:	2b 00 00 00 f8 ff 00 02 	l.d $f0,-8($2)
  404478:	55 00 00 00 03 03 04 00 	sll $3,$4,0x3
  404480:	42 00 00 00 00 03 07 03 	addu $3,$3,$7
  404488:	37 00 00 00 08 00 00 03 	s.d $f0,8($3)
  404490:	28 00 00 00 00 00 02 05 	lw $2,0($5)
  404498:	43 00 00 00 03 00 08 00 	addiu $8,$0,3
  4044a0:	2b 00 00 00 10 00 00 03 	l.d $f0,16($3)
  4044a8:	42 00 00 00 00 02 04 02 	addu $2,$2,$4
  4044b0:	55 00 00 00 03 02 02 00 	sll $2,$2,0x3
  4044b8:	42 00 00 00 00 02 07 02 	addu $2,$2,$7
  4044c0:	37 00 00 00 00 00 00 02 	s.d $f0,0($2)
  4044c8:	42 00 00 00 00 02 0b 08 	addu $2,$8,$11
  4044d0:	46 00 00 00 00 00 0a 02 	mult $2,$10
  4044d8:	4c 00 00 00 00 04 00 00 	mflo $4
  4044e0:	28 00 00 00 00 00 02 05 	lw $2,0($5)
  4044e8:	42 00 00 00 00 02 02 04 	addu $2,$4,$2
  4044f0:	55 00 00 00 03 02 02 00 	sll $2,$2,0x3
  4044f8:	42 00 00 00 00 02 07 02 	addu $2,$2,$7
  404500:	2b 00 00 00 f8 ff 00 02 	l.d $f0,-8($2)
  404508:	55 00 00 00 03 03 04 00 	sll $3,$4,0x3
  404510:	42 00 00 00 00 03 07 03 	addu $3,$3,$7
  404518:	37 00 00 00 08 00 00 03 	s.d $f0,8($3)
  404520:	28 00 00 00 00 00 02 05 	lw $2,0($5)
  404528:	43 00 00 00 01 00 08 08 	addiu $8,$8,1
  404530:	2b 00 00 00 10 00 00 03 	l.d $f0,16($3)
  404538:	42 00 00 00 00 02 04 02 	addu $2,$2,$4
  404540:	55 00 00 00 03 02 02 00 	sll $2,$2,0x3
  404548:	42 00 00 00 00 02 07 02 	addu $2,$2,$7
  404550:	37 00 00 00 00 00 00 02 	s.d $f0,0($2)
  404558:	42 00 00 00 00 02 09 08 	addu $2,$8,$9
  404560:	46 00 00 00 00 00 0a 02 	mult $2,$10
  404568:	4c 00 00 00 00 04 00 00 	mflo $4
  404570:	28 00 00 00 00 00 02 05 	lw $2,0($5)
  404578:	43 00 00 00 01 00 08 08 	addiu $8,$8,1
  404580:	01 00 00 00 d8 11 10 00 	j 404760 <comm3_+0x428>
  404588:	42 00 00 00 00 02 09 08 	addu $2,$8,$9
  404590:	46 00 00 00 00 00 0a 02 	mult $2,$10
  404598:	4c 00 00 00 00 04 00 00 	mflo $4
  4045a0:	43 00 00 00 01 00 02 08 	addiu $2,$8,1
  4045a8:	42 00 00 00 00 02 09 02 	addu $2,$2,$9
  4045b0:	46 00 00 00 00 00 0a 02 	mult $2,$10
  4045b8:	28 00 00 00 00 00 03 05 	lw $3,0($5)
  4045c0:	42 00 00 00 00 03 03 04 	addu $3,$4,$3
  4045c8:	55 00 00 00 03 03 03 00 	sll $3,$3,0x3
  4045d0:	42 00 00 00 00 03 07 03 	addu $3,$3,$7
  4045d8:	2b 00 00 00 f8 ff 00 03 	l.d $f0,-8($3)
  4045e0:	55 00 00 00 03 03 04 00 	sll $3,$4,0x3
  4045e8:	42 00 00 00 00 03 07 03 	addu $3,$3,$7
  4045f0:	37 00 00 00 08 00 00 03 	s.d $f0,8($3)
  4045f8:	28 00 00 00 00 00 02 05 	lw $2,0($5)
  404600:	2b 00 00 00 10 00 00 03 	l.d $f0,16($3)
  404608:	42 00 00 00 00 02 04 02 	addu $2,$2,$4
  404610:	4c 00 00 00 00 04 00 00 	mflo $4
  404618:	55 00 00 00 03 02 02 00 	sll $2,$2,0x3
  404620:	42 00 00 00 00 02 07 02 	addu $2,$2,$7
  404628:	37 00 00 00 00 00 00 02 	s.d $f0,0($2)
  404630:	43 00 00 00 02 00 02 08 	addiu $2,$8,2
  404638:	42 00 00 00 00 02 09 02 	addu $2,$2,$9
  404640:	46 00 00 00 00 00 0a 02 	mult $2,$10
  404648:	28 00 00 00 00 00 03 05 	lw $3,0($5)
  404650:	42 00 00 00 00 03 03 04 	addu $3,$4,$3
  404658:	55 00 00 00 03 03 03 00 	sll $3,$3,0x3
  404660:	42 00 00 00 00 03 07 03 	addu $3,$3,$7
  404668:	2b 00 00 00 f8 ff 00 03 	l.d $f0,-8($3)
  404670:	55 00 00 00 03 03 04 00 	sll $3,$4,0x3
  404678:	42 00 00 00 00 03 07 03 	addu $3,$3,$7
  404680:	37 00 00 00 08 00 00 03 	s.d $f0,8($3)
  404688:	28 00 00 00 00 00 02 05 	lw $2,0($5)
  404690:	2b 00 00 00 10 00 00 03 	l.d $f0,16($3)
  404698:	42 00 00 00 00 02 04 02 	addu $2,$2,$4
  4046a0:	4c 00 00 00 00 04 00 00 	mflo $4
  4046a8:	55 00 00 00 03 02 02 00 	sll $2,$2,0x3
  4046b0:	42 00 00 00 00 02 07 02 	addu $2,$2,$7
  4046b8:	37 00 00 00 00 00 00 02 	s.d $f0,0($2)
  4046c0:	43 00 00 00 03 00 02 08 	addiu $2,$8,3
  4046c8:	42 00 00 00 00 02 09 02 	addu $2,$2,$9
  4046d0:	46 00 00 00 00 00 0a 02 	mult $2,$10
  4046d8:	28 00 00 00 00 00 03 05 	lw $3,0($5)
  4046e0:	42 00 00 00 00 03 03 04 	addu $3,$4,$3
  4046e8:	55 00 00 00 03 03 03 00 	sll $3,$3,0x3
  4046f0:	42 00 00 00 00 03 07 03 	addu $3,$3,$7
  4046f8:	2b 00 00 00 f8 ff 00 03 	l.d $f0,-8($3)
  404700:	55 00 00 00 03 03 04 00 	sll $3,$4,0x3
  404708:	42 00 00 00 00 03 07 03 	addu $3,$3,$7
  404710:	37 00 00 00 08 00 00 03 	s.d $f0,8($3)
  404718:	28 00 00 00 00 00 02 05 	lw $2,0($5)
  404720:	2b 00 00 00 10 00 00 03 	l.d $f0,16($3)
  404728:	42 00 00 00 00 02 04 02 	addu $2,$2,$4
  404730:	4c 00 00 00 00 04 00 00 	mflo $4
  404738:	55 00 00 00 03 02 02 00 	sll $2,$2,0x3
  404740:	42 00 00 00 00 02 07 02 	addu $2,$2,$7
  404748:	37 00 00 00 00 00 00 02 	s.d $f0,0($2)
  404750:	28 00 00 00 00 00 02 05 	lw $2,0($5)
  404758:	43 00 00 00 04 00 08 08 	addiu $8,$8,4
  404760:	42 00 00 00 00 02 02 04 	addu $2,$4,$2
  404768:	55 00 00 00 03 02 02 00 	sll $2,$2,0x3
  404770:	42 00 00 00 00 02 07 02 	addu $2,$2,$7
  404778:	2b 00 00 00 f8 ff 00 02 	l.d $f0,-8($2)
  404780:	55 00 00 00 03 03 04 00 	sll $3,$4,0x3
  404788:	42 00 00 00 00 03 07 03 	addu $3,$3,$7
  404790:	37 00 00 00 08 00 00 03 	s.d $f0,8($3)
  404798:	28 00 00 00 00 00 02 05 	lw $2,0($5)
  4047a0:	5b 00 00 00 00 06 08 0d 	slt $6,$13,$8
  4047a8:	2b 00 00 00 10 00 00 03 	l.d $f0,16($3)
  4047b0:	42 00 00 00 00 02 04 02 	addu $2,$2,$4
  4047b8:	55 00 00 00 03 02 02 00 	sll $2,$2,0x3
  4047c0:	42 00 00 00 00 02 07 02 	addu $2,$2,$7
  4047c8:	37 00 00 00 00 00 00 02 	s.d $f0,0($2)
  4047d0:	05 00 00 00 6c ff 00 06 	beq $6,$0,404588 <comm3_+0x250>
  4047d8:	42 00 00 00 00 0b 0c 0b 	addu $11,$11,$12
  4047e0:	43 00 00 00 01 00 11 11 	addiu $17,$17,1
  4047e8:	5b 00 00 00 00 02 11 10 	slt $2,$16,$17
  4047f0:	05 00 00 00 f4 fe 00 02 	beq $2,$0,4043c8 <comm3_+0x90>
  4047f8:	28 00 00 00 00 00 02 05 	lw $2,0($5)
  404800:	43 00 00 00 02 00 11 00 	addiu $17,$0,2
  404808:	43 00 00 00 ff ff 0d 02 	addiu $13,$2,-1
  404810:	5c 00 00 00 02 00 02 0d 	slti $2,$13,2
  404818:	06 00 00 00 d0 00 00 02 	bne $2,$0,404b60 <comm3_+0x828>
  404820:	55 00 00 00 01 02 0c 00 	sll $2,$12,0x1
  404828:	43 00 00 00 02 00 13 02 	addiu $19,$2,2
  404830:	43 00 00 00 ff ff 19 02 	addiu $25,$2,-1
  404838:	43 00 00 00 01 00 12 02 	addiu $18,$2,1
  404840:	42 00 00 00 00 18 02 00 	addu $24,$0,$2
  404848:	28 00 00 00 00 00 10 05 	lw $16,0($5)
  404850:	43 00 00 00 01 00 06 00 	addiu $6,$0,1
  404858:	07 00 00 00 b2 00 00 10 	blez $16,404b28 <comm3_+0x7f0>
  404860:	46 00 00 00 00 00 0a 12 	mult $18,$10
  404868:	4c 00 00 00 00 0b 00 00 	mflo $11
  404870:	46 00 00 00 00 00 0a 13 	mult $19,$10
  404878:	42 00 00 00 00 0f 18 00 	addu $15,$0,$24
  404880:	42 00 00 00 00 0e 19 00 	addu $14,$0,$25
  404888:	43 00 00 00 01 00 02 10 	addiu $2,$16,1
  404890:	4c 00 00 00 00 09 00 00 	mflo $9
  404898:	4f 00 00 00 01 00 03 10 	andi $3,$16,1
  4048a0:	5b 00 00 00 00 02 02 06 	slt $2,$6,$2
  4048a8:	05 00 00 00 02 00 00 02 	beq $2,$0,4048b8 <comm3_+0x580>
  4048b0:	05 00 00 00 34 00 00 03 	beq $3,$0,404988 <comm3_+0x650>
  4048b8:	42 00 00 00 00 02 19 10 	addu $2,$16,$25
  4048c0:	46 00 00 00 00 00 0a 02 	mult $2,$10
  4048c8:	4c 00 00 00 00 02 00 00 	mflo $2
  4048d0:	43 00 00 00 01 00 03 0b 	addiu $3,$11,1
  4048d8:	43 00 00 00 01 00 02 02 	addiu $2,$2,1
  4048e0:	55 00 00 00 03 02 02 00 	sll $2,$2,0x3
  4048e8:	42 00 00 00 00 02 07 02 	addu $2,$2,$7
  4048f0:	2b 00 00 00 00 00 00 02 	l.d $f0,0($2)
  4048f8:	55 00 00 00 03 03 03 00 	sll $3,$3,0x3
  404900:	42 00 00 00 00 03 07 03 	addu $3,$3,$7
  404908:	37 00 00 00 00 00 00 03 	s.d $f0,0($3)
  404910:	28 00 00 00 00 00 02 05 	lw $2,0($5)
  404918:	42 00 00 00 00 02 18 02 	addu $2,$2,$24
  404920:	46 00 00 00 00 00 0a 02 	mult $2,$10
  404928:	4c 00 00 00 00 02 00 00 	mflo $2
  404930:	43 00 00 00 02 00 06 00 	addiu $6,$0,2
  404938:	5c 00 00 00 02 00 08 10 	slti $8,$16,2
  404940:	43 00 00 00 01 00 03 02 	addiu $3,$2,1
  404948:	43 00 00 00 01 00 02 09 	addiu $2,$9,1
  404950:	55 00 00 00 03 02 02 00 	sll $2,$2,0x3
  404958:	42 00 00 00 00 02 07 02 	addu $2,$2,$7
  404960:	2b 00 00 00 00 00 00 02 	l.d $f0,0($2)
  404968:	55 00 00 00 03 03 03 00 	sll $3,$3,0x3
  404970:	42 00 00 00 00 03 07 03 	addu $3,$3,$7
  404978:	37 00 00 00 00 00 00 03 	s.d $f0,0($3)
  404980:	06 00 00 00 68 00 00 08 	bne $8,$0,404b28 <comm3_+0x7f0>
  404988:	28 00 00 00 00 00 02 05 	lw $2,0($5)
  404990:	42 00 00 00 00 02 0e 02 	addu $2,$2,$14
  404998:	46 00 00 00 00 00 0a 02 	mult $2,$10
  4049a0:	4c 00 00 00 00 02 00 00 	mflo $2
  4049a8:	42 00 00 00 00 03 0b 06 	addu $3,$6,$11
  4049b0:	42 00 00 00 00 02 02 06 	addu $2,$6,$2
  4049b8:	55 00 00 00 03 02 02 00 	sll $2,$2,0x3
  4049c0:	42 00 00 00 00 02 07 02 	addu $2,$2,$7
  4049c8:	2b 00 00 00 00 00 00 02 	l.d $f0,0($2)
  4049d0:	55 00 00 00 03 03 03 00 	sll $3,$3,0x3
  4049d8:	42 00 00 00 00 03 07 03 	addu $3,$3,$7
  4049e0:	37 00 00 00 00 00 00 03 	s.d $f0,0($3)
  4049e8:	28 00 00 00 00 00 02 05 	lw $2,0($5)
  4049f0:	42 00 00 00 00 02 0f 02 	addu $2,$2,$15
  4049f8:	46 00 00 00 00 00 0a 02 	mult $2,$10
  404a00:	4c 00 00 00 00 02 00 00 	mflo $2
  404a08:	42 00 00 00 00 03 02 06 	addu $3,$6,$2
  404a10:	42 00 00 00 00 02 09 06 	addu $2,$6,$9
  404a18:	55 00 00 00 03 02 02 00 	sll $2,$2,0x3
  404a20:	42 00 00 00 00 02 07 02 	addu $2,$2,$7
  404a28:	2b 00 00 00 00 00 00 02 	l.d $f0,0($2)
  404a30:	55 00 00 00 03 03 03 00 	sll $3,$3,0x3
  404a38:	42 00 00 00 00 03 07 03 	addu $3,$3,$7
  404a40:	37 00 00 00 00 00 00 03 	s.d $f0,0($3)
  404a48:	28 00 00 00 00 00 02 05 	lw $2,0($5)
  404a50:	42 00 00 00 00 02 0e 02 	addu $2,$2,$14
  404a58:	46 00 00 00 00 00 0a 02 	mult $2,$10
  404a60:	4c 00 00 00 00 02 00 00 	mflo $2
  404a68:	43 00 00 00 01 00 04 06 	addiu $4,$6,1
  404a70:	42 00 00 00 00 03 0b 04 	addu $3,$4,$11
  404a78:	42 00 00 00 00 02 02 04 	addu $2,$4,$2
  404a80:	55 00 00 00 03 02 02 00 	sll $2,$2,0x3
  404a88:	42 00 00 00 00 02 07 02 	addu $2,$2,$7
  404a90:	2b 00 00 00 00 00 00 02 	l.d $f0,0($2)
  404a98:	55 00 00 00 03 03 03 00 	sll $3,$3,0x3
  404aa0:	42 00 00 00 00 03 07 03 	addu $3,$3,$7
  404aa8:	37 00 00 00 00 00 00 03 	s.d $f0,0($3)
  404ab0:	28 00 00 00 00 00 02 05 	lw $2,0($5)
  404ab8:	42 00 00 00 00 02 0f 02 	addu $2,$2,$15
  404ac0:	46 00 00 00 00 00 0a 02 	mult $2,$10
  404ac8:	4c 00 00 00 00 02 00 00 	mflo $2
  404ad0:	43 00 00 00 02 00 06 06 	addiu $6,$6,2
  404ad8:	5b 00 00 00 00 08 06 10 	slt $8,$16,$6
  404ae0:	42 00 00 00 00 02 02 04 	addu $2,$4,$2
  404ae8:	42 00 00 00 00 04 09 04 	addu $4,$4,$9
  404af0:	55 00 00 00 03 04 04 00 	sll $4,$4,0x3
  404af8:	42 00 00 00 00 04 07 04 	addu $4,$4,$7
  404b00:	2b 00 00 00 00 00 00 04 	l.d $f0,0($4)
  404b08:	55 00 00 00 03 02 02 00 	sll $2,$2,0x3
  404b10:	42 00 00 00 00 02 07 02 	addu $2,$2,$7
  404b18:	37 00 00 00 00 00 00 02 	s.d $f0,0($2)
  404b20:	05 00 00 00 98 ff 00 08 	beq $8,$0,404988 <comm3_+0x650>
  404b28:	42 00 00 00 00 13 0c 13 	addu $19,$19,$12
  404b30:	42 00 00 00 00 19 0c 19 	addu $25,$25,$12
  404b38:	42 00 00 00 00 12 0c 12 	addu $18,$18,$12
  404b40:	42 00 00 00 00 18 0c 18 	addu $24,$24,$12
  404b48:	43 00 00 00 01 00 11 11 	addiu $17,$17,1
  404b50:	5b 00 00 00 00 02 11 0d 	slt $2,$13,$17
  404b58:	05 00 00 00 3a ff 00 02 	beq $2,$0,404848 <comm3_+0x510>
  404b60:	28 00 00 00 00 00 10 05 	lw $16,0($5)
  404b68:	43 00 00 00 01 00 08 00 	addiu $8,$0,1
  404b70:	07 00 00 00 de 00 00 10 	blez $16,404ef0 <comm3_+0xbb8>
  404b78:	55 00 00 00 01 0f 0c 00 	sll $15,$12,0x1
  404b80:	28 00 00 00 00 00 0d 05 	lw $13,0($5)
  404b88:	43 00 00 00 01 00 06 00 	addiu $6,$0,1
  404b90:	07 00 00 00 d0 00 00 0d 	blez $13,404ed8 <comm3_+0xba0>
  404b98:	42 00 00 00 00 02 0c 08 	addu $2,$8,$12
  404ba0:	46 00 00 00 00 00 0a 02 	mult $2,$10
  404ba8:	4c 00 00 00 00 0e 00 00 	mflo $14
  404bb0:	42 00 00 00 00 02 0f 08 	addu $2,$8,$15
  404bb8:	46 00 00 00 00 00 0a 02 	mult $2,$10
  404bc0:	4f 00 00 00 01 00 03 0d 	andi $3,$13,1
  404bc8:	4c 00 00 00 00 0b 00 00 	mflo $11
  404bd0:	43 00 00 00 01 00 02 0d 	addiu $2,$13,1
  404bd8:	5b 00 00 00 00 02 02 06 	slt $2,$6,$2
  404be0:	05 00 00 00 02 00 00 02 	beq $2,$0,404bf0 <comm3_+0x8b8>
  404be8:	05 00 00 00 3e 00 00 03 	beq $3,$0,404ce8 <comm3_+0x9b0>
  404bf0:	43 00 00 00 ff ff 02 0d 	addiu $2,$13,-1
  404bf8:	46 00 00 00 00 00 0c 02 	mult $2,$12
  404c00:	4c 00 00 00 00 02 00 00 	mflo $2
  404c08:	42 00 00 00 00 02 02 08 	addu $2,$8,$2
  404c10:	46 00 00 00 00 00 0a 02 	mult $2,$10
  404c18:	4c 00 00 00 00 02 00 00 	mflo $2
  404c20:	43 00 00 00 01 00 03 0e 	addiu $3,$14,1
  404c28:	43 00 00 00 01 00 02 02 	addiu $2,$2,1
  404c30:	55 00 00 00 03 02 02 00 	sll $2,$2,0x3
  404c38:	42 00 00 00 00 02 07 02 	addu $2,$2,$7
  404c40:	2b 00 00 00 00 00 00 02 	l.d $f0,0($2)
  404c48:	55 00 00 00 03 03 03 00 	sll $3,$3,0x3
  404c50:	42 00 00 00 00 03 07 03 	addu $3,$3,$7
  404c58:	37 00 00 00 00 00 00 03 	s.d $f0,0($3)
  404c60:	28 00 00 00 00 00 02 05 	lw $2,0($5)
  404c68:	46 00 00 00 00 00 0c 02 	mult $2,$12
  404c70:	4c 00 00 00 00 02 00 00 	mflo $2
  404c78:	42 00 00 00 00 02 02 08 	addu $2,$8,$2
  404c80:	46 00 00 00 00 00 0a 02 	mult $2,$10
  404c88:	4c 00 00 00 00 02 00 00 	mflo $2
  404c90:	43 00 00 00 02 00 06 00 	addiu $6,$0,2
  404c98:	5c 00 00 00 02 00 09 0d 	slti $9,$13,2
  404ca0:	43 00 00 00 01 00 03 02 	addiu $3,$2,1
  404ca8:	43 00 00 00 01 00 02 0b 	addiu $2,$11,1
  404cb0:	55 00 00 00 03 02 02 00 	sll $2,$2,0x3
  404cb8:	42 00 00 00 00 02 07 02 	addu $2,$2,$7
  404cc0:	2b 00 00 00 00 00 00 02 	l.d $f0,0($2)
  404cc8:	55 00 00 00 03 03 03 00 	sll $3,$3,0x3
  404cd0:	42 00 00 00 00 03 07 03 	addu $3,$3,$7
  404cd8:	37 00 00 00 00 00 00 03 	s.d $f0,0($3)
  404ce0:	06 00 00 00 7c 00 00 09 	bne $9,$0,404ed8 <comm3_+0xba0>
  404ce8:	28 00 00 00 00 00 02 05 	lw $2,0($5)
  404cf0:	43 00 00 00 ff ff 02 02 	addiu $2,$2,-1
  404cf8:	46 00 00 00 00 00 0c 02 	mult $2,$12
  404d00:	4c 00 00 00 00 02 00 00 	mflo $2
  404d08:	42 00 00 00 00 02 02 08 	addu $2,$8,$2
  404d10:	46 00 00 00 00 00 0a 02 	mult $2,$10
  404d18:	4c 00 00 00 00 02 00 00 	mflo $2
  404d20:	42 00 00 00 00 03 0e 06 	addu $3,$6,$14
  404d28:	42 00 00 00 00 02 02 06 	addu $2,$6,$2
  404d30:	55 00 00 00 03 02 02 00 	sll $2,$2,0x3
  404d38:	42 00 00 00 00 02 07 02 	addu $2,$2,$7
  404d40:	2b 00 00 00 00 00 00 02 	l.d $f0,0($2)
  404d48:	55 00 00 00 03 03 03 00 	sll $3,$3,0x3
  404d50:	42 00 00 00 00 03 07 03 	addu $3,$3,$7
  404d58:	37 00 00 00 00 00 00 03 	s.d $f0,0($3)
  404d60:	28 00 00 00 00 00 02 05 	lw $2,0($5)
  404d68:	46 00 00 00 00 00 0c 02 	mult $2,$12
  404d70:	4c 00 00 00 00 02 00 00 	mflo $2
  404d78:	42 00 00 00 00 02 02 08 	addu $2,$8,$2
  404d80:	46 00 00 00 00 00 0a 02 	mult $2,$10
  404d88:	4c 00 00 00 00 02 00 00 	mflo $2
  404d90:	42 00 00 00 00 03 02 06 	addu $3,$6,$2
  404d98:	42 00 00 00 00 02 0b 06 	addu $2,$6,$11
  404da0:	55 00 00 00 03 02 02 00 	sll $2,$2,0x3
  404da8:	42 00 00 00 00 02 07 02 	addu $2,$2,$7
  404db0:	2b 00 00 00 00 00 00 02 	l.d $f0,0($2)
  404db8:	55 00 00 00 03 03 03 00 	sll $3,$3,0x3
  404dc0:	42 00 00 00 00 03 07 03 	addu $3,$3,$7
  404dc8:	37 00 00 00 00 00 00 03 	s.d $f0,0($3)
  404dd0:	28 00 00 00 00 00 02 05 	lw $2,0($5)
  404dd8:	43 00 00 00 ff ff 02 02 	addiu $2,$2,-1
  404de0:	46 00 00 00 00 00 0c 02 	mult $2,$12
  404de8:	4c 00 00 00 00 02 00 00 	mflo $2
  404df0:	42 00 00 00 00 02 02 08 	addu $2,$8,$2
  404df8:	46 00 00 00 00 00 0a 02 	mult $2,$10
  404e00:	4c 00 00 00 00 02 00 00 	mflo $2
  404e08:	43 00 00 00 01 00 04 06 	addiu $4,$6,1
  404e10:	42 00 00 00 00 03 0e 04 	addu $3,$4,$14
  404e18:	42 00 00 00 00 02 02 04 	addu $2,$4,$2
  404e20:	55 00 00 00 03 02 02 00 	sll $2,$2,0x3
  404e28:	42 00 00 00 00 02 07 02 	addu $2,$2,$7
  404e30:	2b 00 00 00 00 00 00 02 	l.d $f0,0($2)
  404e38:	55 00 00 00 03 03 03 00 	sll $3,$3,0x3
  404e40:	42 00 00 00 00 03 07 03 	addu $3,$3,$7
  404e48:	37 00 00 00 00 00 00 03 	s.d $f0,0($3)
  404e50:	28 00 00 00 00 00 02 05 	lw $2,0($5)
  404e58:	46 00 00 00 00 00 0c 02 	mult $2,$12
  404e60:	4c 00 00 00 00 02 00 00 	mflo $2
  404e68:	42 00 00 00 00 02 02 08 	addu $2,$8,$2
  404e70:	46 00 00 00 00 00 0a 02 	mult $2,$10
  404e78:	4c 00 00 00 00 02 00 00 	mflo $2
  404e80:	43 00 00 00 02 00 06 06 	addiu $6,$6,2
  404e88:	5b 00 00 00 00 09 06 0d 	slt $9,$13,$6
  404e90:	42 00 00 00 00 02 02 04 	addu $2,$4,$2
  404e98:	42 00 00 00 00 04 0b 04 	addu $4,$4,$11
  404ea0:	55 00 00 00 03 04 04 00 	sll $4,$4,0x3
  404ea8:	42 00 00 00 00 04 07 04 	addu $4,$4,$7
  404eb0:	2b 00 00 00 00 00 00 04 	l.d $f0,0($4)
  404eb8:	55 00 00 00 03 02 02 00 	sll $2,$2,0x3
  404ec0:	42 00 00 00 00 02 07 02 	addu $2,$2,$7
  404ec8:	37 00 00 00 00 00 00 02 	s.d $f0,0($2)
  404ed0:	05 00 00 00 84 ff 00 09 	beq $9,$0,404ce8 <comm3_+0x9b0>
  404ed8:	43 00 00 00 01 00 08 08 	addiu $8,$8,1
  404ee0:	5b 00 00 00 00 02 08 10 	slt $2,$16,$8
  404ee8:	05 00 00 00 24 ff 00 02 	beq $2,$0,404b80 <comm3_+0x848>
  404ef0:	42 00 00 00 00 02 00 00 	addu $2,$0,$0
  404ef8:	28 00 00 00 0c 00 13 1d 	lw $19,12($29)
  404f00:	28 00 00 00 08 00 12 1d 	lw $18,8($29)
  404f08:	28 00 00 00 04 00 11 1d 	lw $17,4($29)
  404f10:	28 00 00 00 00 00 10 1d 	lw $16,0($29)
  404f18:	43 00 00 00 10 00 1d 1d 	addiu $29,$29,16
  404f20:	03 00 00 00 00 00 00 1f 	jr $31

00404f28 <norm2u3_>:
  404f28:	43 00 00 00 d0 ff 1d 1d 	addiu $29,$29,-48
  404f30:	34 00 00 00 10 00 10 1d 	sw $16,16($29)
  404f38:	42 00 00 00 00 10 05 00 	addu $16,$0,$5
  404f40:	34 00 00 00 14 00 11 1d 	sw $17,20($29)
  404f48:	42 00 00 00 00 11 06 00 	addu $17,$0,$6
  404f50:	34 00 00 00 28 00 1f 1d 	sw $31,40($29)
  404f58:	34 00 00 00 24 00 15 1d 	sw $21,36($29)
  404f60:	34 00 00 00 20 00 14 1d 	sw $20,32($29)
  404f68:	34 00 00 00 1c 00 13 1d 	sw $19,28($29)
  404f70:	34 00 00 00 18 00 12 1d 	sw $18,24($29)
  404f78:	28 00 00 00 00 00 06 11 	lw $6,0($17)
  404f80:	28 00 00 00 00 00 05 10 	lw $5,0($16)
  404f88:	43 00 00 00 01 00 02 06 	addiu $2,$6,1
  404f90:	46 00 00 00 00 00 02 05 	mult $5,$2
  404f98:	a5 00 00 00 00 00 00 0c 	mtc1 $0,$f12
  404fa0:	a5 00 00 00 00 00 00 0d 	mtc1 $0,$f13
  404fa8:	28 00 00 00 44 00 0b 1d 	lw $11,68($29)
  404fb0:	28 00 00 00 40 00 15 1d 	lw $21,64($29)
  404fb8:	28 00 00 00 48 00 12 1d 	lw $18,72($29)
  404fc0:	28 00 00 00 4c 00 13 1d 	lw $19,76($29)
  404fc8:	28 00 00 00 50 00 14 1d 	lw $20,80($29)
  404fd0:	37 00 00 00 00 00 0c 0b 	s.d $f12,0($11)
  404fd8:	28 00 00 00 00 00 03 07 	lw $3,0($7)
  404fe0:	4c 00 00 00 00 02 00 00 	mflo $2
  404fe8:	43 00 00 00 02 00 18 00 	addiu $24,$0,2
  404ff0:	43 00 00 00 ff ff 03 03 	addiu $3,$3,-1
  404ff8:	43 00 00 00 01 00 02 02 	addiu $2,$2,1
  405000:	55 00 00 00 03 02 02 00 	sll $2,$2,0x3
  405008:	45 00 00 00 00 04 02 04 	subu $4,$4,$2
  405010:	5c 00 00 00 02 00 02 03 	slti $2,$3,2
  405018:	06 00 00 00 12 01 00 02 	bne $2,$0,405468 <norm2u3_+0x540>
  405020:	7b 00 00 00 00 04 00 0c 	mov.d $f4,$f12
  405028:	55 00 00 00 01 0f 06 00 	sll $15,$6,0x1
  405030:	28 00 00 00 00 00 02 11 	lw $2,0($17)
  405038:	43 00 00 00 02 00 0d 00 	addiu $13,$0,2
  405040:	43 00 00 00 ff ff 0e 02 	addiu $14,$2,-1
  405048:	5c 00 00 00 02 00 02 0e 	slti $2,$14,2
  405050:	06 00 00 00 fc 00 00 02 	bne $2,$0,405448 <norm2u3_+0x520>
  405058:	42 00 00 00 00 19 0f 00 	addu $25,$0,$15
  405060:	28 00 00 00 00 00 08 10 	lw $8,0($16)
  405068:	43 00 00 00 02 00 09 00 	addiu $9,$0,2
  405070:	43 00 00 00 ff ff 0c 08 	addiu $12,$8,-1
  405078:	5c 00 00 00 02 00 02 0c 	slti $2,$12,2
  405080:	06 00 00 00 ea 00 00 02 	bne $2,$0,405430 <norm2u3_+0x508>
  405088:	42 00 00 00 00 02 19 0d 	addu $2,$13,$25
  405090:	46 00 00 00 00 00 05 02 	mult $2,$5
  405098:	4c 00 00 00 00 0a 00 00 	mflo $10
  4050a0:	43 00 00 00 fe ff 02 08 	addiu $2,$8,-2
  4050a8:	4f 00 00 00 03 00 07 02 	andi $7,$2,3
  4050b0:	5b 00 00 00 00 02 08 09 	slt $2,$9,$8
  4050b8:	05 00 00 00 46 00 00 02 	beq $2,$0,4051d8 <norm2u3_+0x2b0>
  4050c0:	05 00 00 00 66 00 00 07 	beq $7,$0,405260 <norm2u3_+0x338>
  4050c8:	5c 00 00 00 02 00 02 07 	slti $2,$7,2
  4050d0:	06 00 00 00 40 00 00 02 	bne $2,$0,4051d8 <norm2u3_+0x2b0>
  4050d8:	5c 00 00 00 03 00 02 07 	slti $2,$7,3
  4050e0:	06 00 00 00 1e 00 00 02 	bne $2,$0,405160 <norm2u3_+0x238>
  4050e8:	43 00 00 00 02 00 02 0a 	addiu $2,$10,2
  4050f0:	55 00 00 00 03 02 02 00 	sll $2,$2,0x3
  4050f8:	42 00 00 00 00 02 04 02 	addu $2,$2,$4
  405100:	2b 00 00 00 00 00 00 02 	l.d $f0,0($2)
  405108:	75 00 00 00 00 02 00 00 	mul.d $f2,$f0,$f0
  405110:	71 00 00 00 00 0c 02 0c 	add.d $f12,$f12,$f2
  405118:	7b 00 00 00 00 02 00 00 	mov.d $f2,$f0
  405120:	95 00 00 00 00 00 02 04 	c.le.d $f4,$f2
  405128:	0c 00 00 00 02 00 00 00 	bc1t 405138 <norm2u3_+0x210>
  405130:	7d 00 00 00 00 02 00 02 	neg.d $f2,$f2
  405138:	2b 00 00 00 00 00 00 0b 	l.d $f0,0($11)
  405140:	93 00 00 00 00 00 02 00 	c.lt.d $f0,$f2
  405148:	0b 00 00 00 02 00 00 00 	bc1f 405158 <norm2u3_+0x230>
  405150:	37 00 00 00 00 00 02 0b 	s.d $f2,0($11)
  405158:	43 00 00 00 03 00 09 00 	addiu $9,$0,3
  405160:	42 00 00 00 00 02 0a 09 	addu $2,$9,$10
  405168:	55 00 00 00 03 02 02 00 	sll $2,$2,0x3
  405170:	42 00 00 00 00 02 04 02 	addu $2,$2,$4
  405178:	2b 00 00 00 00 00 00 02 	l.d $f0,0($2)
  405180:	75 00 00 00 00 02 00 00 	mul.d $f2,$f0,$f0
  405188:	71 00 00 00 00 0c 02 0c 	add.d $f12,$f12,$f2
  405190:	7b 00 00 00 00 02 00 00 	mov.d $f2,$f0
  405198:	95 00 00 00 00 00 02 04 	c.le.d $f4,$f2
  4051a0:	0c 00 00 00 02 00 00 00 	bc1t 4051b0 <norm2u3_+0x288>
  4051a8:	7d 00 00 00 00 02 00 02 	neg.d $f2,$f2
  4051b0:	2b 00 00 00 00 00 00 0b 	l.d $f0,0($11)
  4051b8:	93 00 00 00 00 00 02 00 	c.lt.d $f0,$f2
  4051c0:	0b 00 00 00 02 00 00 00 	bc1f 4051d0 <norm2u3_+0x2a8>
  4051c8:	37 00 00 00 00 00 02 0b 	s.d $f2,0($11)
  4051d0:	43 00 00 00 01 00 09 09 	addiu $9,$9,1
  4051d8:	42 00 00 00 00 02 0a 09 	addu $2,$9,$10
  4051e0:	55 00 00 00 03 02 02 00 	sll $2,$2,0x3
  4051e8:	42 00 00 00 00 02 04 02 	addu $2,$2,$4
  4051f0:	2b 00 00 00 00 00 00 02 	l.d $f0,0($2)
  4051f8:	75 00 00 00 00 02 00 00 	mul.d $f2,$f0,$f0
  405200:	71 00 00 00 00 0c 02 0c 	add.d $f12,$f12,$f2
  405208:	7b 00 00 00 00 02 00 00 	mov.d $f2,$f0
  405210:	95 00 00 00 00 00 02 04 	c.le.d $f4,$f2
  405218:	0c 00 00 00 02 00 00 00 	bc1t 405228 <norm2u3_+0x300>
  405220:	7d 00 00 00 00 02 00 02 	neg.d $f2,$f2
  405228:	2b 00 00 00 00 00 00 0b 	l.d $f0,0($11)
  405230:	93 00 00 00 00 00 02 00 	c.lt.d $f0,$f2
  405238:	0b 00 00 00 02 00 00 00 	bc1f 405248 <norm2u3_+0x320>
  405240:	37 00 00 00 00 00 02 0b 	s.d $f2,0($11)
  405248:	43 00 00 00 01 00 09 09 	addiu $9,$9,1
  405250:	5b 00 00 00 00 02 09 0c 	slt $2,$12,$9
  405258:	06 00 00 00 74 00 00 02 	bne $2,$0,405430 <norm2u3_+0x508>
  405260:	42 00 00 00 00 02 0a 09 	addu $2,$9,$10
  405268:	55 00 00 00 03 02 02 00 	sll $2,$2,0x3
  405270:	42 00 00 00 00 02 04 02 	addu $2,$2,$4
  405278:	2b 00 00 00 00 00 02 02 	l.d $f2,0($2)
  405280:	75 00 00 00 00 00 02 02 	mul.d $f0,$f2,$f2
  405288:	71 00 00 00 00 0c 00 0c 	add.d $f12,$f12,$f0
  405290:	95 00 00 00 00 00 02 04 	c.le.d $f4,$f2
  405298:	0c 00 00 00 02 00 00 00 	bc1t 4052a8 <norm2u3_+0x380>
  4052a0:	7d 00 00 00 00 02 00 02 	neg.d $f2,$f2
  4052a8:	2b 00 00 00 00 00 00 0b 	l.d $f0,0($11)
  4052b0:	93 00 00 00 00 00 02 00 	c.lt.d $f0,$f2
  4052b8:	0b 00 00 00 02 00 00 00 	bc1f 4052c8 <norm2u3_+0x3a0>
  4052c0:	37 00 00 00 00 00 02 0b 	s.d $f2,0($11)
  4052c8:	43 00 00 00 01 00 02 09 	addiu $2,$9,1
  4052d0:	42 00 00 00 00 02 0a 02 	addu $2,$2,$10
  4052d8:	55 00 00 00 03 02 02 00 	sll $2,$2,0x3
  4052e0:	42 00 00 00 00 02 04 02 	addu $2,$2,$4
  4052e8:	2b 00 00 00 00 00 02 02 	l.d $f2,0($2)
  4052f0:	75 00 00 00 00 00 02 02 	mul.d $f0,$f2,$f2
  4052f8:	71 00 00 00 00 0c 00 0c 	add.d $f12,$f12,$f0
  405300:	95 00 00 00 00 00 02 04 	c.le.d $f4,$f2
  405308:	0c 00 00 00 02 00 00 00 	bc1t 405318 <norm2u3_+0x3f0>
  405310:	7d 00 00 00 00 02 00 02 	neg.d $f2,$f2
  405318:	2b 00 00 00 00 00 00 0b 	l.d $f0,0($11)
  405320:	93 00 00 00 00 00 02 00 	c.lt.d $f0,$f2
  405328:	0b 00 00 00 02 00 00 00 	bc1f 405338 <norm2u3_+0x410>
  405330:	37 00 00 00 00 00 02 0b 	s.d $f2,0($11)
  405338:	43 00 00 00 02 00 02 09 	addiu $2,$9,2
  405340:	42 00 00 00 00 02 0a 02 	addu $2,$2,$10
  405348:	55 00 00 00 03 02 02 00 	sll $2,$2,0x3
  405350:	42 00 00 00 00 02 04 02 	addu $2,$2,$4
  405358:	2b 00 00 00 00 00 02 02 	l.d $f2,0($2)
  405360:	75 00 00 00 00 00 02 02 	mul.d $f0,$f2,$f2
  405368:	71 00 00 00 00 0c 00 0c 	add.d $f12,$f12,$f0
  405370:	95 00 00 00 00 00 02 04 	c.le.d $f4,$f2
  405378:	0c 00 00 00 02 00 00 00 	bc1t 405388 <norm2u3_+0x460>
  405380:	7d 00 00 00 00 02 00 02 	neg.d $f2,$f2
  405388:	2b 00 00 00 00 00 00 0b 	l.d $f0,0($11)
  405390:	93 00 00 00 00 00 02 00 	c.lt.d $f0,$f2
  405398:	0b 00 00 00 02 00 00 00 	bc1f 4053a8 <norm2u3_+0x480>
  4053a0:	37 00 00 00 00 00 02 0b 	s.d $f2,0($11)
  4053a8:	43 00 00 00 03 00 02 09 	addiu $2,$9,3
  4053b0:	42 00 00 00 00 02 0a 02 	addu $2,$2,$10
  4053b8:	55 00 00 00 03 02 02 00 	sll $2,$2,0x3
  4053c0:	42 00 00 00 00 02 04 02 	addu $2,$2,$4
  4053c8:	2b 00 00 00 00 00 02 02 	l.d $f2,0($2)
  4053d0:	75 00 00 00 00 00 02 02 	mul.d $f0,$f2,$f2
  4053d8:	71 00 00 00 00 0c 00 0c 	add.d $f12,$f12,$f0
  4053e0:	95 00 00 00 00 00 02 04 	c.le.d $f4,$f2
  4053e8:	0c 00 00 00 02 00 00 00 	bc1t 4053f8 <norm2u3_+0x4d0>
  4053f0:	7d 00 00 00 00 02 00 02 	neg.d $f2,$f2
  4053f8:	2b 00 00 00 00 00 00 0b 	l.d $f0,0($11)
  405400:	93 00 00 00 00 00 02 00 	c.lt.d $f0,$f2
  405408:	0b 00 00 00 02 00 00 00 	bc1f 405418 <norm2u3_+0x4f0>
  405410:	37 00 00 00 00 00 02 0b 	s.d $f2,0($11)
  405418:	43 00 00 00 04 00 09 09 	addiu $9,$9,4
  405420:	5b 00 00 00 00 02 09 0c 	slt $2,$12,$9
  405428:	05 00 00 00 8c ff 00 02 	beq $2,$0,405260 <norm2u3_+0x338>
  405430:	43 00 00 00 01 00 0d 0d 	addiu $13,$13,1
  405438:	5b 00 00 00 00 02 0d 0e 	slt $2,$14,$13
  405440:	05 00 00 00 06 ff 00 02 	beq $2,$0,405060 <norm2u3_+0x138>
  405448:	42 00 00 00 00 0f 06 0f 	addu $15,$15,$6
  405450:	43 00 00 00 01 00 18 18 	addiu $24,$24,1
  405458:	5b 00 00 00 00 02 18 03 	slt $2,$3,$24
  405460:	05 00 00 00 f2 fe 00 02 	beq $2,$0,405030 <norm2u3_+0x108>
  405468:	28 00 00 00 00 00 03 12 	lw $3,0($18)
  405470:	28 00 00 00 00 00 02 13 	lw $2,0($19)
  405478:	43 00 00 00 fe ff 03 03 	addiu $3,$3,-2
  405480:	43 00 00 00 fe ff 02 02 	addiu $2,$2,-2
  405488:	46 00 00 00 00 00 02 03 	mult $3,$2
  405490:	28 00 00 00 00 00 02 14 	lw $2,0($20)
  405498:	4c 00 00 00 00 03 00 00 	mflo $3
  4054a0:	43 00 00 00 fe ff 02 02 	addiu $2,$2,-2
  4054a8:	46 00 00 00 00 00 02 03 	mult $3,$2
  4054b0:	4c 00 00 00 00 02 00 00 	mflo $2
  4054b8:	a5 00 00 00 00 00 02 00 	mtc1 $2,$f0
  4054c0:	81 00 00 00 00 00 00 00 	cvt.s.w $f0,$f0
  4054c8:	82 00 00 00 00 00 00 00 	cvt.d.s $f0,$f0
  4054d0:	77 00 00 00 00 0c 00 0c 	div.d $f12,$f12,$f0
  4054d8:	97 00 00 00 00 00 00 0c 	sqrt.d $f0,$f12
  4054e0:	91 00 00 00 00 00 00 00 	c.eq.d $f0,$f0
  4054e8:	0c 00 00 00 02 00 00 00 	bc1t 4054f8 <norm2u3_+0x5d0>
  4054f0:	02 00 00 00 d8 36 10 00 	jal 40db60 <sqrt>
  4054f8:	37 00 00 00 00 00 00 15 	s.d $f0,0($21)
  405500:	42 00 00 00 00 02 00 00 	addu $2,$0,$0
  405508:	28 00 00 00 28 00 1f 1d 	lw $31,40($29)
  405510:	28 00 00 00 24 00 15 1d 	lw $21,36($29)
  405518:	28 00 00 00 20 00 14 1d 	lw $20,32($29)
  405520:	28 00 00 00 1c 00 13 1d 	lw $19,28($29)
  405528:	28 00 00 00 18 00 12 1d 	lw $18,24($29)
  405530:	28 00 00 00 14 00 11 1d 	lw $17,20($29)
  405538:	28 00 00 00 10 00 10 1d 	lw $16,16($29)
  405540:	43 00 00 00 30 00 1d 1d 	addiu $29,$29,48
  405548:	03 00 00 00 00 00 00 1f 	jr $31

00405550 <setup_>:
  405550:	43 00 00 00 e0 ff 1d 1d 	addiu $29,$29,-32
  405558:	34 00 00 00 14 00 11 1d 	sw $17,20($29)
  405560:	42 00 00 00 00 11 04 00 	addu $17,$0,$4
  405568:	34 00 00 00 10 00 10 1d 	sw $16,16($29)
  405570:	43 00 00 00 fc ff 10 06 	addiu $16,$6,-4
  405578:	34 00 00 00 18 00 12 1d 	sw $18,24($29)
  405580:	43 00 00 00 fc ff 12 05 	addiu $18,$5,-4
  405588:	43 00 00 00 08 80 04 1c 	addiu $4,$28,-32760
  405590:	42 00 00 00 00 05 11 00 	addu $5,$0,$17
  405598:	34 00 00 00 1c 00 1f 1d 	sw $31,28($29)
  4055a0:	02 00 00 00 6c 26 10 00 	jal 4099b0 <pow_ii>
  4055a8:	28 00 00 00 00 00 03 11 	lw $3,0($17)
  4055b0:	43 00 00 00 02 00 02 02 	addiu $2,$2,2
  4055b8:	55 00 00 00 02 03 03 00 	sll $3,$3,0x2
  4055c0:	42 00 00 00 00 03 10 03 	addu $3,$3,$16
  4055c8:	34 00 00 00 00 00 02 03 	sw $2,0($3)
  4055d0:	28 00 00 00 00 00 02 11 	lw $2,0($17)
  4055d8:	43 00 00 00 ff ff 07 02 	addiu $7,$2,-1
  4055e0:	07 00 00 00 7e 00 00 07 	blez $7,4057e0 <setup_+0x290>
  4055e8:	55 00 00 00 02 02 07 00 	sll $2,$7,0x2
  4055f0:	42 00 00 00 00 04 10 02 	addu $4,$2,$16
  4055f8:	45 00 00 00 00 02 07 00 	subu $2,$0,$7
  405600:	4f 00 00 00 03 00 03 02 	andi $3,$2,3
  405608:	05 00 00 00 3a 00 00 03 	beq $3,$0,4056f8 <setup_+0x1a8>
  405610:	5c 00 00 00 03 00 02 03 	slti $2,$3,3
  405618:	05 00 00 00 24 00 00 02 	beq $2,$0,4056b0 <setup_+0x160>
  405620:	5c 00 00 00 02 00 02 03 	slti $2,$3,2
  405628:	05 00 00 00 10 00 00 02 	beq $2,$0,405670 <setup_+0x120>
  405630:	28 00 00 00 04 00 02 04 	lw $2,4($4)
  405638:	43 00 00 00 ff ff 07 07 	addiu $7,$7,-1
  405640:	57 00 00 00 1f 03 02 00 	srl $3,$2,0x1f
  405648:	42 00 00 00 00 02 03 02 	addu $2,$2,$3
  405650:	59 00 00 00 01 02 02 00 	sra $2,$2,0x1
  405658:	43 00 00 00 01 00 02 02 	addiu $2,$2,1
  405660:	34 00 00 00 00 00 02 04 	sw $2,0($4)
  405668:	43 00 00 00 fc ff 04 04 	addiu $4,$4,-4
  405670:	28 00 00 00 04 00 02 04 	lw $2,4($4)
  405678:	43 00 00 00 ff ff 07 07 	addiu $7,$7,-1
  405680:	57 00 00 00 1f 03 02 00 	srl $3,$2,0x1f
  405688:	42 00 00 00 00 02 03 02 	addu $2,$2,$3
  405690:	59 00 00 00 01 02 02 00 	sra $2,$2,0x1
  405698:	43 00 00 00 01 00 02 02 	addiu $2,$2,1
  4056a0:	34 00 00 00 00 00 02 04 	sw $2,0($4)
  4056a8:	43 00 00 00 fc ff 04 04 	addiu $4,$4,-4
  4056b0:	28 00 00 00 04 00 02 04 	lw $2,4($4)
  4056b8:	43 00 00 00 ff ff 07 07 	addiu $7,$7,-1
  4056c0:	57 00 00 00 1f 03 02 00 	srl $3,$2,0x1f
  4056c8:	42 00 00 00 00 02 03 02 	addu $2,$2,$3
  4056d0:	59 00 00 00 01 02 02 00 	sra $2,$2,0x1
  4056d8:	43 00 00 00 01 00 02 02 	addiu $2,$2,1
  4056e0:	34 00 00 00 00 00 02 04 	sw $2,0($4)
  4056e8:	43 00 00 00 fc ff 04 04 	addiu $4,$4,-4
  4056f0:	07 00 00 00 3a 00 00 07 	blez $7,4057e0 <setup_+0x290>
  4056f8:	42 00 00 00 00 05 04 00 	addu $5,$0,$4
  405700:	28 00 00 00 04 00 02 04 	lw $2,4($4)
  405708:	57 00 00 00 1f 03 02 00 	srl $3,$2,0x1f
  405710:	42 00 00 00 00 02 03 02 	addu $2,$2,$3
  405718:	59 00 00 00 01 02 02 00 	sra $2,$2,0x1
  405720:	43 00 00 00 01 00 02 02 	addiu $2,$2,1
  405728:	34 00 00 00 00 00 02 05 	sw $2,0($5)
  405730:	28 00 00 00 00 00 02 04 	lw $2,0($4)
  405738:	57 00 00 00 1f 03 02 00 	srl $3,$2,0x1f
  405740:	42 00 00 00 00 02 03 02 	addu $2,$2,$3
  405748:	59 00 00 00 01 02 02 00 	sra $2,$2,0x1
  405750:	43 00 00 00 01 00 02 02 	addiu $2,$2,1
  405758:	34 00 00 00 fc ff 02 05 	sw $2,-4($5)
  405760:	28 00 00 00 fc ff 02 04 	lw $2,-4($4)
  405768:	57 00 00 00 1f 03 02 00 	srl $3,$2,0x1f
  405770:	42 00 00 00 00 02 03 02 	addu $2,$2,$3
  405778:	59 00 00 00 01 02 02 00 	sra $2,$2,0x1
  405780:	43 00 00 00 01 00 02 02 	addiu $2,$2,1
  405788:	34 00 00 00 f8 ff 02 05 	sw $2,-8($5)
  405790:	28 00 00 00 f8 ff 02 04 	lw $2,-8($4)
  405798:	43 00 00 00 fc ff 07 07 	addiu $7,$7,-4
  4057a0:	57 00 00 00 1f 03 02 00 	srl $3,$2,0x1f
  4057a8:	42 00 00 00 00 02 03 02 	addu $2,$2,$3
  4057b0:	59 00 00 00 01 02 02 00 	sra $2,$2,0x1
  4057b8:	43 00 00 00 01 00 02 02 	addiu $2,$2,1
  4057c0:	34 00 00 00 f4 ff 02 05 	sw $2,-12($5)
  4057c8:	43 00 00 00 f0 ff 05 05 	addiu $5,$5,-16
  4057d0:	43 00 00 00 f0 ff 04 04 	addiu $4,$4,-16
  4057d8:	08 00 00 00 c8 ff 00 07 	bgtz $7,405700 <setup_+0x1b0>
  4057e0:	28 00 00 00 00 00 02 11 	lw $2,0($17)
  4057e8:	43 00 00 00 01 00 03 00 	addiu $3,$0,1
  4057f0:	43 00 00 00 ff ff 07 02 	addiu $7,$2,-1
  4057f8:	55 00 00 00 02 02 02 00 	sll $2,$2,0x2
  405800:	42 00 00 00 00 02 12 02 	addu $2,$2,$18
  405808:	34 00 00 00 00 00 03 02 	sw $3,0($2)
  405810:	07 00 00 00 a4 00 00 07 	blez $7,405aa8 <setup_+0x558>
  405818:	55 00 00 00 02 02 07 00 	sll $2,$7,0x2
  405820:	42 00 00 00 00 05 12 02 	addu $5,$2,$18
  405828:	42 00 00 00 00 06 10 02 	addu $6,$2,$16
  405830:	45 00 00 00 00 02 07 00 	subu $2,$0,$7
  405838:	4f 00 00 00 03 00 03 02 	andi $3,$2,3
  405840:	05 00 00 00 4c 00 00 03 	beq $3,$0,405978 <setup_+0x428>
  405848:	5c 00 00 00 03 00 02 03 	slti $2,$3,3
  405850:	05 00 00 00 30 00 00 02 	beq $2,$0,405918 <setup_+0x3c8>
  405858:	5c 00 00 00 02 00 02 03 	slti $2,$3,2
  405860:	05 00 00 00 16 00 00 02 	beq $2,$0,4058c0 <setup_+0x370>
  405868:	28 00 00 00 04 00 02 06 	lw $2,4($6)
  405870:	46 00 00 00 00 00 02 02 	mult $2,$2
  405878:	4c 00 00 00 00 03 00 00 	mflo $3
  405880:	46 00 00 00 00 00 03 02 	mult $2,$3
  405888:	4c 00 00 00 00 03 00 00 	mflo $3
  405890:	28 00 00 00 04 00 02 05 	lw $2,4($5)
  405898:	43 00 00 00 ff ff 07 07 	addiu $7,$7,-1
  4058a0:	43 00 00 00 fc ff 06 06 	addiu $6,$6,-4
  4058a8:	42 00 00 00 00 02 03 02 	addu $2,$2,$3
  4058b0:	34 00 00 00 00 00 02 05 	sw $2,0($5)
  4058b8:	43 00 00 00 fc ff 05 05 	addiu $5,$5,-4
  4058c0:	28 00 00 00 04 00 02 06 	lw $2,4($6)
  4058c8:	46 00 00 00 00 00 02 02 	mult $2,$2
  4058d0:	4c 00 00 00 00 03 00 00 	mflo $3
  4058d8:	46 00 00 00 00 00 03 02 	mult $2,$3
  4058e0:	4c 00 00 00 00 03 00 00 	mflo $3
  4058e8:	28 00 00 00 04 00 02 05 	lw $2,4($5)
  4058f0:	43 00 00 00 ff ff 07 07 	addiu $7,$7,-1
  4058f8:	43 00 00 00 fc ff 06 06 	addiu $6,$6,-4
  405900:	42 00 00 00 00 02 03 02 	addu $2,$2,$3
  405908:	34 00 00 00 00 00 02 05 	sw $2,0($5)
  405910:	43 00 00 00 fc ff 05 05 	addiu $5,$5,-4
  405918:	28 00 00 00 04 00 02 06 	lw $2,4($6)
  405920:	46 00 00 00 00 00 02 02 	mult $2,$2
  405928:	4c 00 00 00 00 03 00 00 	mflo $3
  405930:	46 00 00 00 00 00 03 02 	mult $2,$3
  405938:	4c 00 00 00 00 03 00 00 	mflo $3
  405940:	28 00 00 00 04 00 02 05 	lw $2,4($5)
  405948:	43 00 00 00 ff ff 07 07 	addiu $7,$7,-1
  405950:	43 00 00 00 fc ff 06 06 	addiu $6,$6,-4
  405958:	42 00 00 00 00 02 03 02 	addu $2,$2,$3
  405960:	34 00 00 00 00 00 02 05 	sw $2,0($5)
  405968:	43 00 00 00 fc ff 05 05 	addiu $5,$5,-4
  405970:	07 00 00 00 4c 00 00 07 	blez $7,405aa8 <setup_+0x558>
  405978:	42 00 00 00 00 04 05 00 	addu $4,$0,$5
  405980:	28 00 00 00 04 00 02 06 	lw $2,4($6)
  405988:	46 00 00 00 00 00 02 02 	mult $2,$2
  405990:	4c 00 00 00 00 03 00 00 	mflo $3
  405998:	46 00 00 00 00 00 03 02 	mult $2,$3
  4059a0:	4c 00 00 00 00 03 00 00 	mflo $3
  4059a8:	28 00 00 00 04 00 02 05 	lw $2,4($5)
  4059b0:	42 00 00 00 00 02 03 02 	addu $2,$2,$3
  4059b8:	34 00 00 00 00 00 02 04 	sw $2,0($4)
  4059c0:	28 00 00 00 00 00 02 06 	lw $2,0($6)
  4059c8:	46 00 00 00 00 00 02 02 	mult $2,$2
  4059d0:	4c 00 00 00 00 03 00 00 	mflo $3
  4059d8:	46 00 00 00 00 00 03 02 	mult $2,$3
  4059e0:	4c 00 00 00 00 03 00 00 	mflo $3
  4059e8:	28 00 00 00 00 00 02 05 	lw $2,0($5)
  4059f0:	42 00 00 00 00 02 03 02 	addu $2,$2,$3
  4059f8:	34 00 00 00 fc ff 02 04 	sw $2,-4($4)
  405a00:	28 00 00 00 fc ff 02 06 	lw $2,-4($6)
  405a08:	46 00 00 00 00 00 02 02 	mult $2,$2
  405a10:	4c 00 00 00 00 03 00 00 	mflo $3
  405a18:	46 00 00 00 00 00 03 02 	mult $2,$3
  405a20:	4c 00 00 00 00 03 00 00 	mflo $3
  405a28:	28 00 00 00 fc ff 02 05 	lw $2,-4($5)
  405a30:	42 00 00 00 00 02 03 02 	addu $2,$2,$3
  405a38:	34 00 00 00 f8 ff 02 04 	sw $2,-8($4)
  405a40:	28 00 00 00 f8 ff 02 06 	lw $2,-8($6)
  405a48:	46 00 00 00 00 00 02 02 	mult $2,$2
  405a50:	4c 00 00 00 00 03 00 00 	mflo $3
  405a58:	46 00 00 00 00 00 03 02 	mult $2,$3
  405a60:	43 00 00 00 fc ff 07 07 	addiu $7,$7,-4
  405a68:	28 00 00 00 f8 ff 02 05 	lw $2,-8($5)
  405a70:	4c 00 00 00 00 03 00 00 	mflo $3
  405a78:	43 00 00 00 f0 ff 06 06 	addiu $6,$6,-16
  405a80:	43 00 00 00 f0 ff 05 05 	addiu $5,$5,-16
  405a88:	42 00 00 00 00 02 03 02 	addu $2,$2,$3
  405a90:	34 00 00 00 f4 ff 02 04 	sw $2,-12($4)
  405a98:	43 00 00 00 f0 ff 04 04 	addiu $4,$4,-16
  405aa0:	08 00 00 00 b6 ff 00 07 	bgtz $7,405980 <setup_+0x430>
  405aa8:	42 00 00 00 00 02 00 00 	addu $2,$0,$0
  405ab0:	28 00 00 00 1c 00 1f 1d 	lw $31,28($29)
  405ab8:	28 00 00 00 18 00 12 1d 	lw $18,24($29)
  405ac0:	28 00 00 00 14 00 11 1d 	lw $17,20($29)
  405ac8:	28 00 00 00 10 00 10 1d 	lw $16,16($29)
  405ad0:	43 00 00 00 20 00 1d 1d 	addiu $29,$29,32
  405ad8:	03 00 00 00 00 00 00 1f 	jr $31

00405ae0 <zero3_>:
  405ae0:	43 00 00 00 f0 ff 1d 1d 	addiu $29,$29,-16
  405ae8:	34 00 00 00 00 00 10 1d 	sw $16,0($29)
  405af0:	42 00 00 00 00 10 05 00 	addu $16,$0,$5
  405af8:	34 00 00 00 08 00 12 1d 	sw $18,8($29)
  405b00:	42 00 00 00 00 12 06 00 	addu $18,$0,$6
  405b08:	34 00 00 00 04 00 11 1d 	sw $17,4($29)
  405b10:	28 00 00 00 00 00 11 12 	lw $17,0($18)
  405b18:	28 00 00 00 00 00 06 10 	lw $6,0($16)
  405b20:	43 00 00 00 01 00 02 11 	addiu $2,$17,1
  405b28:	46 00 00 00 00 00 02 06 	mult $6,$2
  405b30:	4c 00 00 00 00 02 00 00 	mflo $2
  405b38:	43 00 00 00 01 00 18 00 	addiu $24,$0,1
  405b40:	28 00 00 00 00 00 07 07 	lw $7,0($7)
  405b48:	43 00 00 00 01 00 02 02 	addiu $2,$2,1
  405b50:	55 00 00 00 03 02 02 00 	sll $2,$2,0x3
  405b58:	45 00 00 00 00 0b 02 04 	subu $11,$4,$2
  405b60:	07 00 00 00 84 00 00 07 	blez $7,405d78 <zero3_+0x298>
  405b68:	42 00 00 00 00 0f 11 00 	addu $15,$0,$17
  405b70:	28 00 00 00 00 00 0e 12 	lw $14,0($18)
  405b78:	43 00 00 00 01 00 0d 00 	addiu $13,$0,1
  405b80:	07 00 00 00 74 00 00 0e 	blez $14,405d58 <zero3_+0x278>
  405b88:	42 00 00 00 00 19 0f 00 	addu $25,$0,$15
  405b90:	28 00 00 00 00 00 0c 10 	lw $12,0($16)
  405b98:	43 00 00 00 01 00 08 00 	addiu $8,$0,1
  405ba0:	07 00 00 00 66 00 00 0c 	blez $12,405d40 <zero3_+0x260>
  405ba8:	42 00 00 00 00 02 19 0d 	addu $2,$13,$25
  405bb0:	46 00 00 00 00 00 06 02 	mult $2,$6
  405bb8:	4f 00 00 00 03 00 03 0c 	andi $3,$12,3
  405bc0:	4c 00 00 00 00 09 00 00 	mflo $9
  405bc8:	43 00 00 00 01 00 02 0c 	addiu $2,$12,1
  405bd0:	5b 00 00 00 00 02 02 08 	slt $2,$8,$2
  405bd8:	05 00 00 00 1e 00 00 02 	beq $2,$0,405c58 <zero3_+0x178>
  405be0:	05 00 00 00 2a 00 00 03 	beq $3,$0,405c90 <zero3_+0x1b0>
  405be8:	5c 00 00 00 02 00 02 03 	slti $2,$3,2
  405bf0:	06 00 00 00 18 00 00 02 	bne $2,$0,405c58 <zero3_+0x178>
  405bf8:	5c 00 00 00 03 00 02 03 	slti $2,$3,3
  405c00:	06 00 00 00 0a 00 00 02 	bne $2,$0,405c30 <zero3_+0x150>
  405c08:	43 00 00 00 01 00 02 09 	addiu $2,$9,1
  405c10:	55 00 00 00 03 02 02 00 	sll $2,$2,0x3
  405c18:	42 00 00 00 00 02 0b 02 	addu $2,$2,$11
  405c20:	38 00 00 00 00 00 00 02 	dsz 0($2)
  405c28:	43 00 00 00 02 00 08 00 	addiu $8,$0,2
  405c30:	42 00 00 00 00 02 09 08 	addu $2,$8,$9
  405c38:	55 00 00 00 03 02 02 00 	sll $2,$2,0x3
  405c40:	42 00 00 00 00 02 0b 02 	addu $2,$2,$11
  405c48:	38 00 00 00 00 00 00 02 	dsz 0($2)
  405c50:	43 00 00 00 01 00 08 08 	addiu $8,$8,1
  405c58:	42 00 00 00 00 02 09 08 	addu $2,$8,$9
  405c60:	55 00 00 00 03 02 02 00 	sll $2,$2,0x3
  405c68:	42 00 00 00 00 02 0b 02 	addu $2,$2,$11
  405c70:	38 00 00 00 00 00 00 02 	dsz 0($2)
  405c78:	43 00 00 00 01 00 08 08 	addiu $8,$8,1
  405c80:	5b 00 00 00 00 0a 08 0c 	slt $10,$12,$8
  405c88:	06 00 00 00 2c 00 00 0a 	bne $10,$0,405d40 <zero3_+0x260>
  405c90:	42 00 00 00 00 03 09 08 	addu $3,$8,$9
  405c98:	43 00 00 00 01 00 02 08 	addiu $2,$8,1
  405ca0:	43 00 00 00 02 00 04 08 	addiu $4,$8,2
  405ca8:	43 00 00 00 03 00 05 08 	addiu $5,$8,3
  405cb0:	43 00 00 00 04 00 08 08 	addiu $8,$8,4
  405cb8:	5b 00 00 00 00 0a 08 0c 	slt $10,$12,$8
  405cc0:	55 00 00 00 03 03 03 00 	sll $3,$3,0x3
  405cc8:	42 00 00 00 00 03 0b 03 	addu $3,$3,$11
  405cd0:	42 00 00 00 00 02 09 02 	addu $2,$2,$9
  405cd8:	55 00 00 00 03 02 02 00 	sll $2,$2,0x3
  405ce0:	42 00 00 00 00 02 0b 02 	addu $2,$2,$11
  405ce8:	42 00 00 00 00 04 09 04 	addu $4,$4,$9
  405cf0:	55 00 00 00 03 04 04 00 	sll $4,$4,0x3
  405cf8:	42 00 00 00 00 04 0b 04 	addu $4,$4,$11
  405d00:	42 00 00 00 00 05 09 05 	addu $5,$5,$9
  405d08:	55 00 00 00 03 05 05 00 	sll $5,$5,0x3
  405d10:	42 00 00 00 00 05 0b 05 	addu $5,$5,$11
  405d18:	38 00 00 00 00 00 00 03 	dsz 0($3)
  405d20:	38 00 00 00 00 00 00 02 	dsz 0($2)
  405d28:	38 00 00 00 00 00 00 04 	dsz 0($4)
  405d30:	38 00 00 00 00 00 00 05 	dsz 0($5)
  405d38:	05 00 00 00 d4 ff 00 0a 	beq $10,$0,405c90 <zero3_+0x1b0>
  405d40:	43 00 00 00 01 00 0d 0d 	addiu $13,$13,1
  405d48:	5b 00 00 00 00 02 0d 0e 	slt $2,$14,$13
  405d50:	05 00 00 00 8e ff 00 02 	beq $2,$0,405b90 <zero3_+0xb0>
  405d58:	42 00 00 00 00 0f 11 0f 	addu $15,$15,$17
  405d60:	43 00 00 00 01 00 18 18 	addiu $24,$24,1
  405d68:	5b 00 00 00 00 02 18 07 	slt $2,$7,$24
  405d70:	05 00 00 00 7e ff 00 02 	beq $2,$0,405b70 <zero3_+0x90>
  405d78:	42 00 00 00 00 02 00 00 	addu $2,$0,$0
  405d80:	28 00 00 00 08 00 12 1d 	lw $18,8($29)
  405d88:	28 00 00 00 04 00 11 1d 	lw $17,4($29)
  405d90:	28 00 00 00 00 00 10 1d 	lw $16,0($29)
  405d98:	43 00 00 00 10 00 1d 1d 	addiu $29,$29,16
  405da0:	03 00 00 00 00 00 00 1f 	jr $31

00405da8 <zran3_>:
  405da8:	43 00 00 00 c0 fe 1d 1d 	addiu $29,$29,-320
  405db0:	34 00 00 00 3c 01 1f 1d 	sw $31,316($29)
  405db8:	34 00 00 00 38 01 1e 1d 	sw $30,312($29)
  405dc0:	34 00 00 00 34 01 17 1d 	sw $23,308($29)
  405dc8:	34 00 00 00 30 01 16 1d 	sw $22,304($29)
  405dd0:	34 00 00 00 2c 01 15 1d 	sw $21,300($29)
  405dd8:	34 00 00 00 28 01 14 1d 	sw $20,296($29)
  405de0:	34 00 00 00 24 01 13 1d 	sw $19,292($29)
  405de8:	34 00 00 00 20 01 12 1d 	sw $18,288($29)
  405df0:	34 00 00 00 1c 01 11 1d 	sw $17,284($29)
  405df8:	34 00 00 00 18 01 10 1d 	sw $16,280($29)
  405e00:	34 00 00 00 00 01 06 1d 	sw $6,256($29)
  405e08:	34 00 00 00 08 01 07 1d 	sw $7,264($29)
  405e10:	28 00 00 00 00 00 1e 07 	lw $30,0($7)
  405e18:	28 00 00 00 00 00 17 06 	lw $23,0($6)
  405e20:	43 00 00 00 01 00 02 1e 	addiu $2,$30,1
  405e28:	46 00 00 00 00 00 02 17 	mult $23,$2
  405e30:	a2 00 00 00 00 10 04 00 	lui $4,4096
  405e38:	43 00 00 00 c8 25 04 04 	addiu $4,$4,9672
  405e40:	43 00 00 00 01 00 12 00 	addiu $18,$0,1
  405e48:	43 00 00 00 10 00 16 1d 	addiu $22,$29,16
  405e50:	43 00 00 00 60 00 15 1d 	addiu $21,$29,96
  405e58:	4c 00 00 00 00 02 00 00 	mflo $2
  405e60:	43 00 00 00 b0 00 14 1d 	addiu $20,$29,176
  405e68:	42 00 00 00 00 11 00 00 	addu $17,$0,$0
  405e70:	43 00 00 00 01 00 02 02 	addiu $2,$2,1
  405e78:	34 00 00 00 10 01 02 1d 	sw $2,272($29)
  405e80:	55 00 00 00 03 02 02 00 	sll $2,$2,0x3
  405e88:	45 00 00 00 00 13 02 05 	subu $19,$5,$2
  405e90:	02 00 00 00 82 25 10 00 	jal 409608 <s_rsle>
  405e98:	02 00 00 00 88 1c 10 00 	jal 407220 <e_rsle>
  405ea0:	a2 00 00 00 00 10 04 00 	lui $4,4096
  405ea8:	43 00 00 00 dc 25 04 04 	addiu $4,$4,9692
  405eb0:	02 00 00 00 f2 38 10 00 	jal 40e3c8 <s_rsfe>
  405eb8:	43 00 00 00 04 80 04 1c 	addiu $4,$28,-32764
  405ec0:	42 00 00 00 00 05 11 16 	addu $5,$22,$17
  405ec8:	43 00 00 00 04 00 06 00 	addiu $6,$0,4
  405ed0:	02 00 00 00 ec 33 10 00 	jal 40cfb0 <do_fio>
  405ed8:	43 00 00 00 04 80 04 1c 	addiu $4,$28,-32764
  405ee0:	42 00 00 00 00 05 11 15 	addu $5,$21,$17
  405ee8:	43 00 00 00 04 00 06 00 	addiu $6,$0,4
  405ef0:	02 00 00 00 ec 33 10 00 	jal 40cfb0 <do_fio>
  405ef8:	43 00 00 00 04 80 04 1c 	addiu $4,$28,-32764
  405f00:	42 00 00 00 00 05 11 14 	addu $5,$20,$17
  405f08:	43 00 00 00 04 00 06 00 	addiu $6,$0,4
  405f10:	02 00 00 00 ec 33 10 00 	jal 40cfb0 <do_fio>
  405f18:	43 00 00 00 04 80 04 1c 	addiu $4,$28,-32764
  405f20:	43 00 00 00 04 00 10 11 	addiu $16,$17,4
  405f28:	42 00 00 00 00 05 10 16 	addu $5,$22,$16
  405f30:	43 00 00 00 04 00 06 00 	addiu $6,$0,4
  405f38:	02 00 00 00 ec 33 10 00 	jal 40cfb0 <do_fio>
  405f40:	43 00 00 00 04 80 04 1c 	addiu $4,$28,-32764
  405f48:	42 00 00 00 00 05 10 15 	addu $5,$21,$16
  405f50:	43 00 00 00 04 00 06 00 	addiu $6,$0,4
  405f58:	02 00 00 00 ec 33 10 00 	jal 40cfb0 <do_fio>
  405f60:	43 00 00 00 04 80 04 1c 	addiu $4,$28,-32764
  405f68:	42 00 00 00 00 05 10 14 	addu $5,$20,$16
  405f70:	43 00 00 00 04 00 06 00 	addiu $6,$0,4
  405f78:	02 00 00 00 ec 33 10 00 	jal 40cfb0 <do_fio>
  405f80:	43 00 00 00 08 00 11 11 	addiu $17,$17,8
  405f88:	43 00 00 00 02 00 12 12 	addiu $18,$18,2
  405f90:	5c 00 00 00 0b 00 02 12 	slti $2,$18,11
  405f98:	06 00 00 00 c6 ff 00 02 	bne $2,$0,405eb8 <zran3_+0x110>
  405fa0:	02 00 00 00 cc 35 10 00 	jal 40d730 <e_rsfe>
  405fa8:	a2 00 00 00 00 10 04 00 	lui $4,4096
  405fb0:	43 00 00 00 f0 25 04 04 	addiu $4,$4,9712
  405fb8:	02 00 00 00 82 25 10 00 	jal 409608 <s_rsle>
  405fc0:	02 00 00 00 88 1c 10 00 	jal 407220 <e_rsle>
  405fc8:	a2 00 00 00 00 10 04 00 	lui $4,4096
  405fd0:	43 00 00 00 04 26 04 04 	addiu $4,$4,9732
  405fd8:	02 00 00 00 f2 38 10 00 	jal 40e3c8 <s_rsfe>
  405fe0:	43 00 00 00 01 00 12 00 	addiu $18,$0,1
  405fe8:	43 00 00 00 10 00 16 1d 	addiu $22,$29,16
  405ff0:	43 00 00 00 60 00 15 1d 	addiu $21,$29,96
  405ff8:	43 00 00 00 b0 00 14 1d 	addiu $20,$29,176
  406000:	43 00 00 00 28 00 11 00 	addiu $17,$0,40
  406008:	43 00 00 00 04 80 04 1c 	addiu $4,$28,-32764
  406010:	42 00 00 00 00 05 11 16 	addu $5,$22,$17
  406018:	43 00 00 00 04 00 06 00 	addiu $6,$0,4
  406020:	02 00 00 00 ec 33 10 00 	jal 40cfb0 <do_fio>
  406028:	43 00 00 00 04 80 04 1c 	addiu $4,$28,-32764
  406030:	42 00 00 00 00 05 11 15 	addu $5,$21,$17
  406038:	43 00 00 00 04 00 06 00 	addiu $6,$0,4
  406040:	02 00 00 00 ec 33 10 00 	jal 40cfb0 <do_fio>
  406048:	43 00 00 00 04 80 04 1c 	addiu $4,$28,-32764
  406050:	42 00 00 00 00 05 11 14 	addu $5,$20,$17
  406058:	43 00 00 00 04 00 06 00 	addiu $6,$0,4
  406060:	02 00 00 00 ec 33 10 00 	jal 40cfb0 <do_fio>
  406068:	43 00 00 00 04 80 04 1c 	addiu $4,$28,-32764
  406070:	43 00 00 00 04 00 10 11 	addiu $16,$17,4
  406078:	42 00 00 00 00 05 10 16 	addu $5,$22,$16
  406080:	43 00 00 00 04 00 06 00 	addiu $6,$0,4
  406088:	02 00 00 00 ec 33 10 00 	jal 40cfb0 <do_fio>
  406090:	43 00 00 00 04 80 04 1c 	addiu $4,$28,-32764
  406098:	42 00 00 00 00 05 10 15 	addu $5,$21,$16
  4060a0:	43 00 00 00 04 00 06 00 	addiu $6,$0,4
  4060a8:	02 00 00 00 ec 33 10 00 	jal 40cfb0 <do_fio>
  4060b0:	43 00 00 00 04 80 04 1c 	addiu $4,$28,-32764
  4060b8:	42 00 00 00 00 05 10 14 	addu $5,$20,$16
  4060c0:	43 00 00 00 04 00 06 00 	addiu $6,$0,4
  4060c8:	02 00 00 00 ec 33 10 00 	jal 40cfb0 <do_fio>
  4060d0:	43 00 00 00 08 00 11 11 	addiu $17,$17,8
  4060d8:	43 00 00 00 02 00 12 12 	addiu $18,$18,2
  4060e0:	5c 00 00 00 0b 00 02 12 	slti $2,$18,11
  4060e8:	06 00 00 00 c6 ff 00 02 	bne $2,$0,406008 <zran3_+0x260>
  4060f0:	02 00 00 00 cc 35 10 00 	jal 40d730 <e_rsfe>
  4060f8:	a2 00 00 00 00 10 04 00 	lui $4,4096
  406100:	43 00 00 00 18 26 04 04 	addiu $4,$4,9752
  406108:	02 00 00 00 9c 39 10 00 	jal 40e670 <s_wsle>
  406110:	43 00 00 00 18 80 04 1c 	addiu $4,$28,-32744
  406118:	43 00 00 00 04 80 05 1c 	addiu $5,$28,-32764
  406120:	a2 00 00 00 00 10 06 00 	lui $6,4096
  406128:	43 00 00 00 28 00 06 06 	addiu $6,$6,40
  406130:	43 00 00 00 14 00 07 00 	addiu $7,$0,20
  406138:	02 00 00 00 54 26 10 00 	jal 409950 <do_lio>
  406140:	02 00 00 00 f4 39 10 00 	jal 40e7d0 <e_wsle>
  406148:	a2 00 00 00 00 10 04 00 	lui $4,4096
  406150:	43 00 00 00 2c 26 04 04 	addiu $4,$4,9772
  406158:	02 00 00 00 50 27 10 00 	jal 409d40 <s_wsfe>
  406160:	43 00 00 00 01 00 12 00 	addiu $18,$0,1
  406168:	43 00 00 00 10 00 16 1d 	addiu $22,$29,16
  406170:	43 00 00 00 60 00 15 1d 	addiu $21,$29,96
  406178:	43 00 00 00 b0 00 14 1d 	addiu $20,$29,176
  406180:	42 00 00 00 00 11 00 00 	addu $17,$0,$0
  406188:	43 00 00 00 04 80 04 1c 	addiu $4,$28,-32764
  406190:	42 00 00 00 00 05 11 16 	addu $5,$22,$17
  406198:	43 00 00 00 04 00 06 00 	addiu $6,$0,4
  4061a0:	02 00 00 00 ec 33 10 00 	jal 40cfb0 <do_fio>
  4061a8:	43 00 00 00 04 80 04 1c 	addiu $4,$28,-32764
  4061b0:	42 00 00 00 00 05 11 15 	addu $5,$21,$17
  4061b8:	43 00 00 00 04 00 06 00 	addiu $6,$0,4
  4061c0:	02 00 00 00 ec 33 10 00 	jal 40cfb0 <do_fio>
  4061c8:	43 00 00 00 04 80 04 1c 	addiu $4,$28,-32764
  4061d0:	42 00 00 00 00 05 11 14 	addu $5,$20,$17
  4061d8:	43 00 00 00 04 00 06 00 	addiu $6,$0,4
  4061e0:	02 00 00 00 ec 33 10 00 	jal 40cfb0 <do_fio>
  4061e8:	43 00 00 00 04 80 04 1c 	addiu $4,$28,-32764
  4061f0:	43 00 00 00 04 00 10 11 	addiu $16,$17,4
  4061f8:	42 00 00 00 00 05 10 16 	addu $5,$22,$16
  406200:	43 00 00 00 04 00 06 00 	addiu $6,$0,4
  406208:	02 00 00 00 ec 33 10 00 	jal 40cfb0 <do_fio>
  406210:	43 00 00 00 04 80 04 1c 	addiu $4,$28,-32764
  406218:	42 00 00 00 00 05 10 15 	addu $5,$21,$16
  406220:	43 00 00 00 04 00 06 00 	addiu $6,$0,4
  406228:	02 00 00 00 ec 33 10 00 	jal 40cfb0 <do_fio>
  406230:	43 00 00 00 04 80 04 1c 	addiu $4,$28,-32764
  406238:	42 00 00 00 00 05 10 14 	addu $5,$20,$16
  406240:	43 00 00 00 04 00 06 00 	addiu $6,$0,4
  406248:	02 00 00 00 ec 33 10 00 	jal 40cfb0 <do_fio>
  406250:	43 00 00 00 08 00 11 11 	addiu $17,$17,8
  406258:	43 00 00 00 02 00 12 12 	addiu $18,$18,2
  406260:	5c 00 00 00 0b 00 02 12 	slti $2,$18,11
  406268:	06 00 00 00 c6 ff 00 02 	bne $2,$0,406188 <zran3_+0x3e0>
  406270:	02 00 00 00 62 36 10 00 	jal 40d988 <e_wsfe>
  406278:	a2 00 00 00 00 10 04 00 	lui $4,4096
  406280:	43 00 00 00 40 26 04 04 	addiu $4,$4,9792
  406288:	02 00 00 00 9c 39 10 00 	jal 40e670 <s_wsle>
  406290:	43 00 00 00 18 80 04 1c 	addiu $4,$28,-32744
  406298:	43 00 00 00 04 80 05 1c 	addiu $5,$28,-32764
  4062a0:	a2 00 00 00 00 10 06 00 	lui $6,4096
  4062a8:	43 00 00 00 40 00 06 06 	addiu $6,$6,64
  4062b0:	43 00 00 00 14 00 07 00 	addiu $7,$0,20
  4062b8:	02 00 00 00 54 26 10 00 	jal 409950 <do_lio>
  4062c0:	02 00 00 00 f4 39 10 00 	jal 40e7d0 <e_wsle>
  4062c8:	a2 00 00 00 00 10 04 00 	lui $4,4096
  4062d0:	43 00 00 00 54 26 04 04 	addiu $4,$4,9812
  4062d8:	02 00 00 00 50 27 10 00 	jal 409d40 <s_wsfe>
  4062e0:	43 00 00 00 01 00 12 00 	addiu $18,$0,1
  4062e8:	43 00 00 00 10 00 16 1d 	addiu $22,$29,16
  4062f0:	43 00 00 00 60 00 15 1d 	addiu $21,$29,96
  4062f8:	43 00 00 00 b0 00 14 1d 	addiu $20,$29,176
  406300:	43 00 00 00 28 00 11 00 	addiu $17,$0,40
  406308:	43 00 00 00 04 80 04 1c 	addiu $4,$28,-32764
  406310:	42 00 00 00 00 05 11 16 	addu $5,$22,$17
  406318:	43 00 00 00 04 00 06 00 	addiu $6,$0,4
  406320:	02 00 00 00 ec 33 10 00 	jal 40cfb0 <do_fio>
  406328:	43 00 00 00 04 80 04 1c 	addiu $4,$28,-32764
  406330:	42 00 00 00 00 05 11 15 	addu $5,$21,$17
  406338:	43 00 00 00 04 00 06 00 	addiu $6,$0,4
  406340:	02 00 00 00 ec 33 10 00 	jal 40cfb0 <do_fio>
  406348:	43 00 00 00 04 80 04 1c 	addiu $4,$28,-32764
  406350:	42 00 00 00 00 05 11 14 	addu $5,$20,$17
  406358:	43 00 00 00 04 00 06 00 	addiu $6,$0,4
  406360:	02 00 00 00 ec 33 10 00 	jal 40cfb0 <do_fio>
  406368:	43 00 00 00 04 80 04 1c 	addiu $4,$28,-32764
  406370:	43 00 00 00 04 00 10 11 	addiu $16,$17,4
  406378:	42 00 00 00 00 05 10 16 	addu $5,$22,$16
  406380:	43 00 00 00 04 00 06 00 	addiu $6,$0,4
  406388:	02 00 00 00 ec 33 10 00 	jal 40cfb0 <do_fio>
  406390:	43 00 00 00 04 80 04 1c 	addiu $4,$28,-32764
  406398:	42 00 00 00 00 05 10 15 	addu $5,$21,$16
  4063a0:	43 00 00 00 04 00 06 00 	addiu $6,$0,4
  4063a8:	02 00 00 00 ec 33 10 00 	jal 40cfb0 <do_fio>
  4063b0:	43 00 00 00 04 80 04 1c 	addiu $4,$28,-32764
  4063b8:	42 00 00 00 00 05 10 14 	addu $5,$20,$16
  4063c0:	43 00 00 00 04 00 06 00 	addiu $6,$0,4
  4063c8:	02 00 00 00 ec 33 10 00 	jal 40cfb0 <do_fio>
  4063d0:	43 00 00 00 08 00 11 11 	addiu $17,$17,8
  4063d8:	43 00 00 00 02 00 12 12 	addiu $18,$18,2
  4063e0:	5c 00 00 00 0b 00 02 12 	slti $2,$18,11
  4063e8:	06 00 00 00 c6 ff 00 02 	bne $2,$0,406308 <zran3_+0x560>
  4063f0:	02 00 00 00 62 36 10 00 	jal 40d988 <e_wsfe>
  4063f8:	28 00 00 00 50 01 18 1d 	lw $24,336($29)
  406400:	28 00 00 00 00 00 0f 18 	lw $15,0($24)
  406408:	43 00 00 00 01 00 0d 00 	addiu $13,$0,1
  406410:	07 00 00 00 88 00 00 0f 	blez $15,406638 <zran3_+0x890>
  406418:	42 00 00 00 00 0c 1e 00 	addu $12,$0,$30
  406420:	28 00 00 00 08 01 18 1d 	lw $24,264($29)
  406428:	28 00 00 00 00 00 0b 18 	lw $11,0($24)
  406430:	43 00 00 00 01 00 0a 00 	addiu $10,$0,1
  406438:	07 00 00 00 76 00 00 0b 	blez $11,406618 <zran3_+0x870>
  406440:	42 00 00 00 00 0e 0c 00 	addu $14,$0,$12
  406448:	28 00 00 00 00 01 18 1d 	lw $24,256($29)
  406450:	28 00 00 00 00 00 09 18 	lw $9,0($24)
  406458:	43 00 00 00 01 00 06 00 	addiu $6,$0,1
  406460:	07 00 00 00 66 00 00 09 	blez $9,406600 <zran3_+0x858>
  406468:	42 00 00 00 00 02 0e 0a 	addu $2,$10,$14
  406470:	46 00 00 00 00 00 17 02 	mult $2,$23
  406478:	4f 00 00 00 03 00 03 09 	andi $3,$9,3
  406480:	4c 00 00 00 00 07 00 00 	mflo $7
  406488:	43 00 00 00 01 00 02 09 	addiu $2,$9,1
  406490:	5b 00 00 00 00 02 02 06 	slt $2,$6,$2
  406498:	05 00 00 00 1e 00 00 02 	beq $2,$0,406518 <zran3_+0x770>
  4064a0:	05 00 00 00 2a 00 00 03 	beq $3,$0,406550 <zran3_+0x7a8>
  4064a8:	5c 00 00 00 02 00 02 03 	slti $2,$3,2
  4064b0:	06 00 00 00 18 00 00 02 	bne $2,$0,406518 <zran3_+0x770>
  4064b8:	5c 00 00 00 03 00 02 03 	slti $2,$3,3
  4064c0:	06 00 00 00 0a 00 00 02 	bne $2,$0,4064f0 <zran3_+0x748>
  4064c8:	43 00 00 00 01 00 02 07 	addiu $2,$7,1
  4064d0:	55 00 00 00 03 02 02 00 	sll $2,$2,0x3
  4064d8:	42 00 00 00 00 02 13 02 	addu $2,$2,$19
  4064e0:	38 00 00 00 00 00 00 02 	dsz 0($2)
  4064e8:	43 00 00 00 02 00 06 00 	addiu $6,$0,2
  4064f0:	42 00 00 00 00 02 07 06 	addu $2,$6,$7
  4064f8:	55 00 00 00 03 02 02 00 	sll $2,$2,0x3
  406500:	42 00 00 00 00 02 13 02 	addu $2,$2,$19
  406508:	38 00 00 00 00 00 00 02 	dsz 0($2)
  406510:	43 00 00 00 01 00 06 06 	addiu $6,$6,1
  406518:	42 00 00 00 00 02 07 06 	addu $2,$6,$7
  406520:	55 00 00 00 03 02 02 00 	sll $2,$2,0x3
  406528:	42 00 00 00 00 02 13 02 	addu $2,$2,$19
  406530:	38 00 00 00 00 00 00 02 	dsz 0($2)
  406538:	43 00 00 00 01 00 06 06 	addiu $6,$6,1
  406540:	5b 00 00 00 00 08 06 09 	slt $8,$9,$6
  406548:	06 00 00 00 2c 00 00 08 	bne $8,$0,406600 <zran3_+0x858>
  406550:	42 00 00 00 00 03 07 06 	addu $3,$6,$7
  406558:	43 00 00 00 01 00 02 06 	addiu $2,$6,1
  406560:	43 00 00 00 02 00 04 06 	addiu $4,$6,2
  406568:	43 00 00 00 03 00 05 06 	addiu $5,$6,3
  406570:	43 00 00 00 04 00 06 06 	addiu $6,$6,4
  406578:	5b 00 00 00 00 08 06 09 	slt $8,$9,$6
  406580:	55 00 00 00 03 03 03 00 	sll $3,$3,0x3
  406588:	42 00 00 00 00 03 13 03 	addu $3,$3,$19
  406590:	42 00 00 00 00 02 07 02 	addu $2,$2,$7
  406598:	55 00 00 00 03 02 02 00 	sll $2,$2,0x3
  4065a0:	42 00 00 00 00 02 13 02 	addu $2,$2,$19
  4065a8:	42 00 00 00 00 04 07 04 	addu $4,$4,$7
  4065b0:	55 00 00 00 03 04 04 00 	sll $4,$4,0x3
  4065b8:	42 00 00 00 00 04 13 04 	addu $4,$4,$19
  4065c0:	42 00 00 00 00 05 07 05 	addu $5,$5,$7
  4065c8:	55 00 00 00 03 05 05 00 	sll $5,$5,0x3
  4065d0:	42 00 00 00 00 05 13 05 	addu $5,$5,$19
  4065d8:	38 00 00 00 00 00 00 03 	dsz 0($3)
  4065e0:	38 00 00 00 00 00 00 02 	dsz 0($2)
  4065e8:	38 00 00 00 00 00 00 04 	dsz 0($4)
  4065f0:	38 00 00 00 00 00 00 05 	dsz 0($5)
  4065f8:	05 00 00 00 d4 ff 00 08 	beq $8,$0,406550 <zran3_+0x7a8>
  406600:	43 00 00 00 01 00 0a 0a 	addiu $10,$10,1
  406608:	5b 00 00 00 00 02 0a 0b 	slt $2,$11,$10
  406610:	05 00 00 00 8c ff 00 02 	beq $2,$0,406448 <zran3_+0x6a0>
  406618:	42 00 00 00 00 0c 1e 0c 	addu $12,$12,$30
  406620:	43 00 00 00 01 00 0d 0d 	addiu $13,$13,1
  406628:	5b 00 00 00 00 02 0d 0f 	slt $2,$15,$13
  406630:	05 00 00 00 7a ff 00 02 	beq $2,$0,406420 <zran3_+0x678>
  406638:	43 00 00 00 01 00 12 00 	addiu $18,$0,1
  406640:	2b 00 00 00 98 80 02 1c 	l.d $f2,-32616($28)
  406648:	2b 00 00 00 a0 80 00 1c 	l.d $f0,-32608($28)
  406650:	43 00 00 00 14 00 04 1d 	addiu $4,$29,20
  406658:	43 00 00 00 88 00 08 1d 	addiu $8,$29,136
  406660:	43 00 00 00 d8 00 07 1d 	addiu $7,$29,216
  406668:	43 00 00 00 60 00 06 1d 	addiu $6,$29,96
  406670:	43 00 00 00 b0 00 05 1d 	addiu $5,$29,176
  406678:	28 00 00 00 00 00 02 05 	lw $2,0($5)
  406680:	46 00 00 00 00 00 1e 02 	mult $2,$30
  406688:	4c 00 00 00 00 03 00 00 	mflo $3
  406690:	28 00 00 00 00 00 02 06 	lw $2,0($6)
  406698:	42 00 00 00 00 02 03 02 	addu $2,$2,$3
  4066a0:	46 00 00 00 00 00 17 02 	mult $2,$23
  4066a8:	4c 00 00 00 00 03 00 00 	mflo $3
  4066b0:	28 00 00 00 fc ff 02 04 	lw $2,-4($4)
  4066b8:	42 00 00 00 00 02 03 02 	addu $2,$2,$3
  4066c0:	55 00 00 00 03 02 02 00 	sll $2,$2,0x3
  4066c8:	42 00 00 00 00 02 13 02 	addu $2,$2,$19
  4066d0:	37 00 00 00 00 00 02 02 	s.d $f2,0($2)
  4066d8:	28 00 00 00 00 00 02 07 	lw $2,0($7)
  4066e0:	46 00 00 00 00 00 1e 02 	mult $2,$30
  4066e8:	4c 00 00 00 00 03 00 00 	mflo $3
  4066f0:	28 00 00 00 00 00 02 08 	lw $2,0($8)
  4066f8:	42 00 00 00 00 02 03 02 	addu $2,$2,$3
  406700:	46 00 00 00 00 00 17 02 	mult $2,$23
  406708:	4c 00 00 00 00 03 00 00 	mflo $3
  406710:	28 00 00 00 24 00 02 04 	lw $2,36($4)
  406718:	42 00 00 00 00 02 03 02 	addu $2,$2,$3
  406720:	55 00 00 00 03 02 02 00 	sll $2,$2,0x3
  406728:	42 00 00 00 00 02 13 02 	addu $2,$2,$19
  406730:	37 00 00 00 00 00 00 02 	s.d $f0,0($2)
  406738:	28 00 00 00 04 00 02 05 	lw $2,4($5)
  406740:	46 00 00 00 00 00 1e 02 	mult $2,$30
  406748:	4c 00 00 00 00 03 00 00 	mflo $3
  406750:	28 00 00 00 04 00 02 06 	lw $2,4($6)
  406758:	42 00 00 00 00 02 03 02 	addu $2,$2,$3
  406760:	46 00 00 00 00 00 17 02 	mult $2,$23
  406768:	4c 00 00 00 00 03 00 00 	mflo $3
  406770:	28 00 00 00 00 00 02 04 	lw $2,0($4)
  406778:	42 00 00 00 00 02 03 02 	addu $2,$2,$3
  406780:	55 00 00 00 03 02 02 00 	sll $2,$2,0x3
  406788:	42 00 00 00 00 02 13 02 	addu $2,$2,$19
  406790:	37 00 00 00 00 00 02 02 	s.d $f2,0($2)
  406798:	28 00 00 00 04 00 02 07 	lw $2,4($7)
  4067a0:	46 00 00 00 00 00 1e 02 	mult $2,$30
  4067a8:	4c 00 00 00 00 03 00 00 	mflo $3
  4067b0:	28 00 00 00 04 00 02 08 	lw $2,4($8)
  4067b8:	42 00 00 00 00 02 03 02 	addu $2,$2,$3
  4067c0:	46 00 00 00 00 00 17 02 	mult $2,$23
  4067c8:	43 00 00 00 02 00 12 12 	addiu $18,$18,2
  4067d0:	43 00 00 00 08 00 05 05 	addiu $5,$5,8
  4067d8:	43 00 00 00 08 00 06 06 	addiu $6,$6,8
  4067e0:	43 00 00 00 08 00 07 07 	addiu $7,$7,8
  4067e8:	28 00 00 00 28 00 02 04 	lw $2,40($4)
  4067f0:	4c 00 00 00 00 03 00 00 	mflo $3
  4067f8:	43 00 00 00 08 00 08 08 	addiu $8,$8,8
  406800:	43 00 00 00 08 00 04 04 	addiu $4,$4,8
  406808:	42 00 00 00 00 02 03 02 	addu $2,$2,$3
  406810:	55 00 00 00 03 02 02 00 	sll $2,$2,0x3
  406818:	42 00 00 00 00 02 13 02 	addu $2,$2,$19
  406820:	37 00 00 00 00 00 00 02 	s.d $f0,0($2)
  406828:	5c 00 00 00 0b 00 02 12 	slti $2,$18,11
  406830:	06 00 00 00 90 ff 00 02 	bne $2,$0,406678 <zran3_+0x8d0>
  406838:	28 00 00 00 10 01 18 1d 	lw $24,272($29)
  406840:	28 00 00 00 00 01 05 1d 	lw $5,256($29)
  406848:	55 00 00 00 03 04 18 00 	sll $4,$24,0x3
  406850:	42 00 00 00 00 04 04 13 	addu $4,$19,$4
  406858:	02 00 00 00 ce 10 10 00 	jal 404338 <comm3_>
  406860:	42 00 00 00 00 02 00 00 	addu $2,$0,$0
  406868:	28 00 00 00 3c 01 1f 1d 	lw $31,316($29)
  406870:	28 00 00 00 38 01 1e 1d 	lw $30,312($29)
  406878:	28 00 00 00 34 01 17 1d 	lw $23,308($29)
  406880:	28 00 00 00 30 01 16 1d 	lw $22,304($29)
  406888:	28 00 00 00 2c 01 15 1d 	lw $21,300($29)
  406890:	28 00 00 00 28 01 14 1d 	lw $20,296($29)
  406898:	28 00 00 00 24 01 13 1d 	lw $19,292($29)
  4068a0:	28 00 00 00 20 01 12 1d 	lw $18,288($29)
  4068a8:	28 00 00 00 1c 01 11 1d 	lw $17,284($29)
  4068b0:	28 00 00 00 18 01 10 1d 	lw $16,280($29)
  4068b8:	43 00 00 00 40 01 1d 1d 	addiu $29,$29,320
  4068c0:	03 00 00 00 00 00 00 1f 	jr $31

004068c8 <bubble_>:
  4068c8:	28 00 00 00 10 00 08 1d 	lw $8,16($29)
  4068d0:	28 00 00 00 14 00 0a 1d 	lw $10,20($29)
  4068d8:	43 00 00 00 fc ff 07 07 	addiu $7,$7,-4
  4068e0:	43 00 00 00 fc ff 06 06 	addiu $6,$6,-4
  4068e8:	43 00 00 00 fc ff 05 05 	addiu $5,$5,-4
  4068f0:	43 00 00 00 f8 ff 04 04 	addiu $4,$4,-8
  4068f8:	28 00 00 00 00 00 0b 08 	lw $11,0($8)
  406900:	43 00 00 00 01 00 02 00 	addiu $2,$0,1
  406908:	28 00 00 00 00 00 03 0a 	lw $3,0($10)
  406910:	42 00 00 00 00 0e 0b 00 	addu $14,$0,$11
  406918:	42 00 00 00 00 0d 0b 00 	addu $13,$0,$11
  406920:	42 00 00 00 00 0c 0b 00 	addu $12,$0,$11
  406928:	06 00 00 00 04 00 02 03 	bne $3,$2,406940 <bubble_+0x78>
  406930:	2b 00 00 00 a8 80 08 1c 	l.d $f8,-32600($28)
  406938:	01 00 00 00 52 1a 10 00 	j 406948 <bubble_+0x80>
  406940:	2b 00 00 00 b0 80 08 1c 	l.d $f8,-32592($28)
  406948:	28 00 00 00 00 00 02 08 	lw $2,0($8)
  406950:	43 00 00 00 01 00 08 00 	addiu $8,$0,1
  406958:	43 00 00 00 ff ff 0f 02 	addiu $15,$2,-1
  406960:	07 00 00 00 8e 00 00 0f 	blez $15,406ba0 <bubble_+0x2d8>
  406968:	28 00 00 00 00 00 02 0a 	lw $2,0($10)
  406970:	46 00 00 00 00 00 0c 02 	mult $2,$12
  406978:	4c 00 00 00 00 02 00 00 	mflo $2
  406980:	42 00 00 00 00 02 02 08 	addu $2,$8,$2
  406988:	55 00 00 00 03 02 02 00 	sll $2,$2,0x3
  406990:	42 00 00 00 00 02 04 02 	addu $2,$2,$4
  406998:	2b 00 00 00 00 00 04 02 	l.d $f4,0($2)
  4069a0:	75 00 00 00 00 02 04 08 	mul.d $f2,$f8,$f4
  4069a8:	2b 00 00 00 08 00 06 02 	l.d $f6,8($2)
  4069b0:	75 00 00 00 00 00 06 08 	mul.d $f0,$f8,$f6
  4069b8:	93 00 00 00 00 00 02 00 	c.lt.d $f0,$f2
  4069c0:	0b 00 00 00 76 00 00 00 	bc1f 406ba0 <bubble_+0x2d8>
  4069c8:	37 00 00 00 08 00 04 02 	s.d $f4,8($2)
  4069d0:	28 00 00 00 00 00 02 0a 	lw $2,0($10)
  4069d8:	46 00 00 00 00 00 0c 02 	mult $2,$12
  4069e0:	4c 00 00 00 00 02 00 00 	mflo $2
  4069e8:	42 00 00 00 00 02 02 08 	addu $2,$8,$2
  4069f0:	55 00 00 00 03 02 02 00 	sll $2,$2,0x3
  4069f8:	42 00 00 00 00 02 04 02 	addu $2,$2,$4
  406a00:	37 00 00 00 00 00 06 02 	s.d $f6,0($2)
  406a08:	28 00 00 00 00 00 02 0a 	lw $2,0($10)
  406a10:	46 00 00 00 00 00 0d 02 	mult $2,$13
  406a18:	4c 00 00 00 00 02 00 00 	mflo $2
  406a20:	42 00 00 00 00 02 08 02 	addu $2,$2,$8
  406a28:	55 00 00 00 02 02 02 00 	sll $2,$2,0x2
  406a30:	42 00 00 00 00 02 05 02 	addu $2,$2,$5
  406a38:	28 00 00 00 00 00 03 02 	lw $3,0($2)
  406a40:	28 00 00 00 04 00 09 02 	lw $9,4($2)
  406a48:	34 00 00 00 04 00 03 02 	sw $3,4($2)
  406a50:	28 00 00 00 00 00 02 0a 	lw $2,0($10)
  406a58:	46 00 00 00 00 00 0d 02 	mult $2,$13
  406a60:	4c 00 00 00 00 02 00 00 	mflo $2
  406a68:	42 00 00 00 00 02 02 08 	addu $2,$8,$2
  406a70:	55 00 00 00 02 02 02 00 	sll $2,$2,0x2
  406a78:	42 00 00 00 00 02 05 02 	addu $2,$2,$5
  406a80:	34 00 00 00 00 00 09 02 	sw $9,0($2)
  406a88:	28 00 00 00 00 00 02 0a 	lw $2,0($10)
  406a90:	46 00 00 00 00 00 0e 02 	mult $2,$14
  406a98:	4c 00 00 00 00 02 00 00 	mflo $2
  406aa0:	42 00 00 00 00 02 08 02 	addu $2,$2,$8
  406aa8:	55 00 00 00 02 02 02 00 	sll $2,$2,0x2
  406ab0:	42 00 00 00 00 02 06 02 	addu $2,$2,$6
  406ab8:	28 00 00 00 00 00 03 02 	lw $3,0($2)
  406ac0:	28 00 00 00 04 00 09 02 	lw $9,4($2)
  406ac8:	34 00 00 00 04 00 03 02 	sw $3,4($2)
  406ad0:	28 00 00 00 00 00 02 0a 	lw $2,0($10)
  406ad8:	46 00 00 00 00 00 0e 02 	mult $2,$14
  406ae0:	4c 00 00 00 00 02 00 00 	mflo $2
  406ae8:	42 00 00 00 00 02 02 08 	addu $2,$8,$2
  406af0:	55 00 00 00 02 02 02 00 	sll $2,$2,0x2
  406af8:	42 00 00 00 00 02 06 02 	addu $2,$2,$6
  406b00:	34 00 00 00 00 00 09 02 	sw $9,0($2)
  406b08:	28 00 00 00 00 00 02 0a 	lw $2,0($10)
  406b10:	46 00 00 00 00 00 0b 02 	mult $2,$11
  406b18:	4c 00 00 00 00 02 00 00 	mflo $2
  406b20:	42 00 00 00 00 02 08 02 	addu $2,$2,$8
  406b28:	55 00 00 00 02 02 02 00 	sll $2,$2,0x2
  406b30:	42 00 00 00 00 02 07 02 	addu $2,$2,$7
  406b38:	28 00 00 00 00 00 03 02 	lw $3,0($2)
  406b40:	28 00 00 00 04 00 09 02 	lw $9,4($2)
  406b48:	34 00 00 00 04 00 03 02 	sw $3,4($2)
  406b50:	28 00 00 00 00 00 02 0a 	lw $2,0($10)
  406b58:	46 00 00 00 00 00 0b 02 	mult $2,$11
  406b60:	4c 00 00 00 00 02 00 00 	mflo $2
  406b68:	42 00 00 00 00 02 02 08 	addu $2,$8,$2
  406b70:	43 00 00 00 01 00 08 08 	addiu $8,$8,1
  406b78:	55 00 00 00 02 02 02 00 	sll $2,$2,0x2
  406b80:	42 00 00 00 00 02 07 02 	addu $2,$2,$7
  406b88:	34 00 00 00 00 00 09 02 	sw $9,0($2)
  406b90:	5b 00 00 00 00 02 08 0f 	slt $2,$15,$8
  406b98:	05 00 00 00 72 ff 00 02 	beq $2,$0,406968 <bubble_+0xa0>
  406ba0:	42 00 00 00 00 02 00 00 	addu $2,$0,$0
  406ba8:	03 00 00 00 00 00 00 1f 	jr $31

00406bb0 <mg3xdemo_>:
  406bb0:	43 00 00 00 e8 ff 1d 1d 	addiu $29,$29,-24
  406bb8:	34 00 00 00 10 00 1f 1d 	sw $31,16($29)
  406bc0:	02 00 00 00 7c 00 10 00 	jal 4001f0 <MAIN__>
  406bc8:	42 00 00 00 00 02 00 00 	addu $2,$0,$0
  406bd0:	28 00 00 00 10 00 1f 1d 	lw $31,16($29)
  406bd8:	43 00 00 00 18 00 1d 1d 	addiu $29,$29,24
  406be0:	03 00 00 00 00 00 00 1f 	jr $31
	...

00406bf0 <__libc_init>:
  406bf0:	43 00 00 00 e8 ff 1d 1d 	addiu $29,$29,-24
  406bf8:	34 00 00 00 10 00 1f 1d 	sw $31,16($29)
  406c00:	02 00 00 00 14 3a 10 00 	jal 40e850 <__init_misc>
  406c08:	28 00 00 00 10 00 1f 1d 	lw $31,16($29)
  406c10:	43 00 00 00 18 00 1d 1d 	addiu $29,$29,24
  406c18:	03 00 00 00 00 00 00 1f 	jr $31

00406c20 <main>:
  406c20:	43 00 00 00 e0 ff 1d 1d 	addiu $29,$29,-32
  406c28:	34 00 00 00 10 00 10 1d 	sw $16,16($29)
  406c30:	42 00 00 00 00 10 04 00 	addu $16,$0,$4
  406c38:	34 00 00 00 14 00 11 1d 	sw $17,20($29)
  406c40:	42 00 00 00 00 11 05 00 	addu $17,$0,$5
  406c48:	34 00 00 00 18 00 1f 1d 	sw $31,24($29)
  406c50:	02 00 00 00 fa ae 10 00 	jal 42bbe8 <__main>
  406c58:	43 00 00 00 08 00 04 00 	addiu $4,$0,8
  406c60:	a2 00 00 00 40 00 05 00 	lui $5,64
  406c68:	43 00 00 00 d0 6d 05 05 	addiu $5,$5,28112
  406c70:	34 00 00 00 14 87 10 1c 	sw $16,-30956($28)
  406c78:	34 00 00 00 10 87 11 1c 	sw $17,-30960($28)
  406c80:	02 00 00 00 48 3a 10 00 	jal 40e920 <signal>
  406c88:	43 00 00 00 06 00 04 00 	addiu $4,$0,6
  406c90:	a2 00 00 00 40 00 05 00 	lui $5,64
  406c98:	43 00 00 00 18 6e 05 05 	addiu $5,$5,28184
  406ca0:	02 00 00 00 48 3a 10 00 	jal 40e920 <signal>
  406ca8:	43 00 00 00 05 00 04 00 	addiu $4,$0,5
  406cb0:	a2 00 00 00 40 00 05 00 	lui $5,64
  406cb8:	43 00 00 00 30 6f 05 05 	addiu $5,$5,28464
  406cc0:	02 00 00 00 48 3a 10 00 	jal 40e920 <signal>
  406cc8:	43 00 00 00 03 00 04 00 	addiu $4,$0,3
  406cd0:	a2 00 00 00 40 00 05 00 	lui $5,64
  406cd8:	43 00 00 00 60 6e 05 05 	addiu $5,$5,28256
  406ce0:	02 00 00 00 48 3a 10 00 	jal 40e920 <signal>
  406ce8:	43 00 00 00 01 00 10 00 	addiu $16,$0,1
  406cf0:	06 00 00 00 06 00 10 02 	bne $2,$16,406d10 <main+0xf0>
  406cf8:	43 00 00 00 03 00 04 00 	addiu $4,$0,3
  406d00:	43 00 00 00 01 00 05 00 	addiu $5,$0,1
  406d08:	02 00 00 00 48 3a 10 00 	jal 40e920 <signal>
  406d10:	43 00 00 00 02 00 04 00 	addiu $4,$0,2
  406d18:	a2 00 00 00 40 00 05 00 	lui $5,64
  406d20:	43 00 00 00 a8 6e 05 05 	addiu $5,$5,28328
  406d28:	02 00 00 00 48 3a 10 00 	jal 40e920 <signal>
  406d30:	06 00 00 00 06 00 10 02 	bne $2,$16,406d50 <main+0x130>
  406d38:	43 00 00 00 02 00 04 00 	addiu $4,$0,2
  406d40:	43 00 00 00 01 00 05 00 	addiu $5,$0,1
  406d48:	02 00 00 00 48 3a 10 00 	jal 40e920 <signal>
  406d50:	43 00 00 00 0f 00 04 00 	addiu $4,$0,15
  406d58:	a2 00 00 00 40 00 05 00 	lui $5,64
  406d60:	43 00 00 00 f0 6e 05 05 	addiu $5,$5,28400
  406d68:	02 00 00 00 48 3a 10 00 	jal 40e920 <signal>
  406d70:	02 00 00 00 7a 3b 10 00 	jal 40ede8 <f_init>
  406d78:	a2 00 00 00 41 00 04 00 	lui $4,65
  406d80:	43 00 00 00 98 f4 04 04 	addiu $4,$4,-2920
  406d88:	02 00 00 00 ec 3d 10 00 	jal 40f7b0 <atexit>
  406d90:	02 00 00 00 7c 00 10 00 	jal 4001f0 <MAIN__>
  406d98:	42 00 00 00 00 04 00 00 	addu $4,$0,$0
  406da0:	02 00 00 00 e0 1b 10 00 	jal 406f80 <exit>
  406da8:	28 00 00 00 18 00 1f 1d 	lw $31,24($29)
  406db0:	28 00 00 00 14 00 11 1d 	lw $17,20($29)
  406db8:	28 00 00 00 10 00 10 1d 	lw $16,16($29)
  406dc0:	43 00 00 00 20 00 1d 1d 	addiu $29,$29,32
  406dc8:	03 00 00 00 00 00 00 1f 	jr $31

00406dd0 <sigfdie>:
  406dd0:	43 00 00 00 e8 ff 1d 1d 	addiu $29,$29,-24
  406dd8:	34 00 00 00 10 00 1f 1d 	sw $31,16($29)
  406de0:	a2 00 00 00 00 10 04 00 	lui $4,4096
  406de8:	43 00 00 00 60 00 04 04 	addiu $4,$4,96
  406df0:	43 00 00 00 01 00 05 00 	addiu $5,$0,1
  406df8:	02 00 00 00 70 3e 10 00 	jal 40f9c0 <sig_die>
  406e00:	28 00 00 00 10 00 1f 1d 	lw $31,16($29)
  406e08:	43 00 00 00 18 00 1d 1d 	addiu $29,$29,24
  406e10:	03 00 00 00 00 00 00 1f 	jr $31

00406e18 <sigidie>:
  406e18:	43 00 00 00 e8 ff 1d 1d 	addiu $29,$29,-24
  406e20:	34 00 00 00 10 00 1f 1d 	sw $31,16($29)
  406e28:	a2 00 00 00 00 10 04 00 	lui $4,4096
  406e30:	43 00 00 00 74 00 04 04 	addiu $4,$4,116
  406e38:	43 00 00 00 01 00 05 00 	addiu $5,$0,1
  406e40:	02 00 00 00 70 3e 10 00 	jal 40f9c0 <sig_die>
  406e48:	28 00 00 00 10 00 1f 1d 	lw $31,16($29)
  406e50:	43 00 00 00 18 00 1d 1d 	addiu $29,$29,24
  406e58:	03 00 00 00 00 00 00 1f 	jr $31

00406e60 <sigqdie>:
  406e60:	43 00 00 00 e8 ff 1d 1d 	addiu $29,$29,-24
  406e68:	34 00 00 00 10 00 1f 1d 	sw $31,16($29)
  406e70:	a2 00 00 00 00 10 04 00 	lui $4,4096
  406e78:	43 00 00 00 80 00 04 04 	addiu $4,$4,128
  406e80:	43 00 00 00 01 00 05 00 	addiu $5,$0,1
  406e88:	02 00 00 00 70 3e 10 00 	jal 40f9c0 <sig_die>
  406e90:	28 00 00 00 10 00 1f 1d 	lw $31,16($29)
  406e98:	43 00 00 00 18 00 1d 1d 	addiu $29,$29,24
  406ea0:	03 00 00 00 00 00 00 1f 	jr $31

00406ea8 <sigindie>:
  406ea8:	43 00 00 00 e8 ff 1d 1d 	addiu $29,$29,-24
  406eb0:	34 00 00 00 10 00 1f 1d 	sw $31,16($29)
  406eb8:	a2 00 00 00 00 10 04 00 	lui $4,4096
  406ec0:	43 00 00 00 8c 00 04 04 	addiu $4,$4,140
  406ec8:	42 00 00 00 00 05 00 00 	addu $5,$0,$0
  406ed0:	02 00 00 00 70 3e 10 00 	jal 40f9c0 <sig_die>
  406ed8:	28 00 00 00 10 00 1f 1d 	lw $31,16($29)
  406ee0:	43 00 00 00 18 00 1d 1d 	addiu $29,$29,24
  406ee8:	03 00 00 00 00 00 00 1f 	jr $31

00406ef0 <sigtdie>:
  406ef0:	43 00 00 00 e8 ff 1d 1d 	addiu $29,$29,-24
  406ef8:	34 00 00 00 10 00 1f 1d 	sw $31,16($29)
  406f00:	43 00 00 00 c0 80 04 1c 	addiu $4,$28,-32576
  406f08:	42 00 00 00 00 05 00 00 	addu $5,$0,$0
  406f10:	02 00 00 00 70 3e 10 00 	jal 40f9c0 <sig_die>
  406f18:	28 00 00 00 10 00 1f 1d 	lw $31,16($29)
  406f20:	43 00 00 00 18 00 1d 1d 	addiu $29,$29,24
  406f28:	03 00 00 00 00 00 00 1f 	jr $31

00406f30 <sigtrdie>:
  406f30:	43 00 00 00 e8 ff 1d 1d 	addiu $29,$29,-24
  406f38:	34 00 00 00 10 00 1f 1d 	sw $31,16($29)
  406f40:	a2 00 00 00 00 10 04 00 	lui $4,4096
  406f48:	43 00 00 00 98 00 04 04 	addiu $4,$4,152
  406f50:	43 00 00 00 01 00 05 00 	addiu $5,$0,1
  406f58:	02 00 00 00 70 3e 10 00 	jal 40f9c0 <sig_die>
  406f60:	28 00 00 00 10 00 1f 1d 	lw $31,16($29)
  406f68:	43 00 00 00 18 00 1d 1d 	addiu $29,$29,24
  406f70:	03 00 00 00 00 00 00 1f 	jr $31
	...

00406f80 <exit>:
  406f80:	43 00 00 00 d0 ff 1d 1d 	addiu $29,$29,-48
  406f88:	34 00 00 00 18 00 12 1d 	sw $18,24($29)
  406f90:	28 00 00 00 f0 81 12 1c 	lw $18,-32272($28)
  406f98:	34 00 00 00 1c 00 13 1d 	sw $19,28($29)
  406fa0:	42 00 00 00 00 13 04 00 	addu $19,$0,$4
  406fa8:	34 00 00 00 28 00 1f 1d 	sw $31,40($29)
  406fb0:	34 00 00 00 24 00 15 1d 	sw $21,36($29)
  406fb8:	34 00 00 00 20 00 14 1d 	sw $20,32($29)
  406fc0:	34 00 00 00 14 00 11 1d 	sw $17,20($29)
  406fc8:	34 00 00 00 10 00 10 1d 	sw $16,16($29)
  406fd0:	05 00 00 00 3a 00 00 12 	beq $18,$0,4070c0 <exit+0x140>
  406fd8:	43 00 00 00 01 00 15 00 	addiu $21,$0,1
  406fe0:	43 00 00 00 02 00 14 00 	addiu $20,$0,2
  406fe8:	28 00 00 00 04 00 10 12 	lw $16,4($18)
  406ff0:	42 00 00 00 00 02 10 00 	addu $2,$0,$16
  406ff8:	43 00 00 00 ff ff 10 10 	addiu $16,$16,-1
  407000:	05 00 00 00 2a 00 00 02 	beq $2,$0,4070b0 <exit+0x130>
  407008:	55 00 00 00 01 02 10 00 	sll $2,$16,0x1
  407010:	42 00 00 00 00 02 10 02 	addu $2,$2,$16
  407018:	55 00 00 00 02 02 02 00 	sll $2,$2,0x2
  407020:	43 00 00 00 08 00 11 02 	addiu $17,$2,8
  407028:	42 00 00 00 00 03 11 12 	addu $3,$18,$17
  407030:	28 00 00 00 00 00 02 03 	lw $2,0($3)
  407038:	05 00 00 00 06 00 15 02 	beq $2,$21,407058 <exit+0xd8>
  407040:	05 00 00 00 12 00 00 02 	beq $2,$0,407090 <exit+0x110>
  407048:	05 00 00 00 0c 00 14 02 	beq $2,$20,407080 <exit+0x100>
  407050:	01 00 00 00 24 1c 10 00 	j 407090 <exit+0x110>
  407058:	28 00 00 00 04 00 02 03 	lw $2,4($3)
  407060:	28 00 00 00 08 00 05 03 	lw $5,8($3)
  407068:	42 00 00 00 00 04 13 00 	addu $4,$0,$19
  407070:	04 00 00 00 00 1f 00 02 	jalr $31,$2
  407078:	01 00 00 00 24 1c 10 00 	j 407090 <exit+0x110>
  407080:	28 00 00 00 04 00 02 03 	lw $2,4($3)
  407088:	04 00 00 00 00 1f 00 02 	jalr $31,$2
  407090:	43 00 00 00 f4 ff 11 11 	addiu $17,$17,-12
  407098:	42 00 00 00 00 02 10 00 	addu $2,$0,$16
  4070a0:	43 00 00 00 ff ff 10 10 	addiu $16,$16,-1
  4070a8:	06 00 00 00 de ff 00 02 	bne $2,$0,407028 <exit+0xa8>
  4070b0:	28 00 00 00 00 00 12 12 	lw $18,0($18)
  4070b8:	06 00 00 00 ca ff 00 12 	bne $18,$0,406fe8 <exit+0x68>
  4070c0:	02 00 00 00 38 3a 10 00 	jal 40e8e0 <_cleanup>
  4070c8:	42 00 00 00 00 04 13 00 	addu $4,$0,$19
  4070d0:	02 00 00 00 8c 3e 10 00 	jal 40fa30 <_exit>
  4070d8:	28 00 00 00 28 00 1f 1d 	lw $31,40($29)
  4070e0:	28 00 00 00 24 00 15 1d 	lw $21,36($29)
  4070e8:	28 00 00 00 20 00 14 1d 	lw $20,32($29)
  4070f0:	28 00 00 00 1c 00 13 1d 	lw $19,28($29)
  4070f8:	28 00 00 00 18 00 12 1d 	lw $18,24($29)
  407100:	28 00 00 00 14 00 11 1d 	lw $17,20($29)
  407108:	28 00 00 00 10 00 10 1d 	lw $16,16($29)
  407110:	43 00 00 00 30 00 1d 1d 	addiu $29,$29,48
  407118:	03 00 00 00 00 00 00 1f 	jr $31

00407120 <t_getc>:
  407120:	28 00 00 00 a4 87 02 1c 	lw $2,-30812($28)
  407128:	43 00 00 00 e8 ff 1d 1d 	addiu $29,$29,-24
  407130:	34 00 00 00 10 00 1f 1d 	sw $31,16($29)
  407138:	28 00 00 00 24 00 02 02 	lw $2,36($2)
  407140:	06 00 00 00 2e 00 00 02 	bne $2,$0,407200 <t_getc+0xe0>
  407148:	28 00 00 00 ac 87 04 1c 	lw $4,-30804($28)
  407150:	28 00 00 00 04 00 03 04 	lw $3,4($4)
  407158:	28 00 00 00 08 00 02 04 	lw $2,8($4)
  407160:	5d 00 00 00 00 02 02 03 	sltu $2,$3,$2
  407168:	05 00 00 00 08 00 00 02 	beq $2,$0,407190 <t_getc+0x70>
  407170:	43 00 00 00 01 00 02 03 	addiu $2,$3,1
  407178:	34 00 00 00 04 00 02 04 	sw $2,4($4)
  407180:	22 00 00 00 00 00 03 03 	lbu $3,0($3)
  407188:	01 00 00 00 68 1c 10 00 	j 4071a0 <t_getc+0x80>
  407190:	02 00 00 00 f2 43 10 00 	jal 410fc8 <__fillbf>
  407198:	42 00 00 00 00 03 02 00 	addu $3,$0,$2
  4071a0:	43 00 00 00 ff ff 02 00 	addiu $2,$0,-1
  4071a8:	05 00 00 00 04 00 02 03 	beq $3,$2,4071c0 <t_getc+0xa0>
  4071b0:	42 00 00 00 00 02 03 00 	addu $2,$0,$3
  4071b8:	01 00 00 00 82 1c 10 00 	j 407208 <t_getc+0xe8>
  4071c0:	28 00 00 00 ac 87 02 1c 	lw $2,-30804($28)
  4071c8:	28 00 00 00 4c 00 02 02 	lw $2,76($2)
  4071d0:	4f 00 00 00 00 02 02 02 	andi $2,$2,512
  4071d8:	05 00 00 00 08 00 00 02 	beq $2,$0,407200 <t_getc+0xe0>
  4071e0:	28 00 00 00 a4 87 03 1c 	lw $3,-30812($28)
  4071e8:	43 00 00 00 01 00 02 00 	addiu $2,$0,1
  4071f0:	34 00 00 00 30 87 02 1c 	sw $2,-30928($28)
  4071f8:	34 00 00 00 24 00 02 03 	sw $2,36($3)
  407200:	43 00 00 00 ff ff 02 00 	addiu $2,$0,-1
  407208:	28 00 00 00 10 00 1f 1d 	lw $31,16($29)
  407210:	43 00 00 00 18 00 1d 1d 	addiu $29,$29,24
  407218:	03 00 00 00 00 00 00 1f 	jr $31

00407220 <e_rsle>:
  407220:	28 00 00 00 a4 87 02 1c 	lw $2,-30812($28)
  407228:	43 00 00 00 e0 ff 1d 1d 	addiu $29,$29,-32
  407230:	34 00 00 00 1c 00 1f 1d 	sw $31,28($29)
  407238:	34 00 00 00 18 00 12 1d 	sw $18,24($29)
  407240:	34 00 00 00 14 00 11 1d 	sw $17,20($29)
  407248:	34 00 00 00 10 00 10 1d 	sw $16,16($29)
  407250:	28 00 00 00 24 00 02 02 	lw $2,36($2)
  407258:	06 00 00 00 36 00 00 02 	bne $2,$0,407338 <e_rsle+0x118>
  407260:	43 00 00 00 ff ff 11 00 	addiu $17,$0,-1
  407268:	43 00 00 00 01 00 10 00 	addiu $16,$0,1
  407270:	43 00 00 00 0a 00 12 00 	addiu $18,$0,10
  407278:	28 00 00 00 a4 87 02 1c 	lw $2,-30812($28)
  407280:	28 00 00 00 24 00 02 02 	lw $2,36($2)
  407288:	06 00 00 00 24 00 00 02 	bne $2,$0,407320 <e_rsle+0x100>
  407290:	28 00 00 00 ac 87 04 1c 	lw $4,-30804($28)
  407298:	28 00 00 00 04 00 03 04 	lw $3,4($4)
  4072a0:	28 00 00 00 08 00 02 04 	lw $2,8($4)
  4072a8:	5d 00 00 00 00 02 02 03 	sltu $2,$3,$2
  4072b0:	05 00 00 00 08 00 00 02 	beq $2,$0,4072d8 <e_rsle+0xb8>
  4072b8:	43 00 00 00 01 00 02 03 	addiu $2,$3,1
  4072c0:	34 00 00 00 04 00 02 04 	sw $2,4($4)
  4072c8:	22 00 00 00 00 00 02 03 	lbu $2,0($3)
  4072d0:	01 00 00 00 b8 1c 10 00 	j 4072e0 <e_rsle+0xc0>
  4072d8:	02 00 00 00 f2 43 10 00 	jal 410fc8 <__fillbf>
  4072e0:	06 00 00 00 10 00 11 02 	bne $2,$17,407328 <e_rsle+0x108>
  4072e8:	28 00 00 00 ac 87 02 1c 	lw $2,-30804($28)
  4072f0:	28 00 00 00 4c 00 02 02 	lw $2,76($2)
  4072f8:	4f 00 00 00 00 02 02 02 	andi $2,$2,512
  407300:	05 00 00 00 06 00 00 02 	beq $2,$0,407320 <e_rsle+0x100>
  407308:	28 00 00 00 a4 87 02 1c 	lw $2,-30812($28)
  407310:	34 00 00 00 30 87 10 1c 	sw $16,-30928($28)
  407318:	34 00 00 00 24 00 10 02 	sw $16,36($2)
  407320:	43 00 00 00 ff ff 02 00 	addiu $2,$0,-1
  407328:	05 00 00 00 02 00 12 02 	beq $2,$18,407338 <e_rsle+0x118>
  407330:	06 00 00 00 d0 ff 11 02 	bne $2,$17,407278 <e_rsle+0x58>
  407338:	42 00 00 00 00 02 00 00 	addu $2,$0,$0
  407340:	28 00 00 00 1c 00 1f 1d 	lw $31,28($29)
  407348:	28 00 00 00 18 00 12 1d 	lw $18,24($29)
  407350:	28 00 00 00 14 00 11 1d 	lw $17,20($29)
  407358:	28 00 00 00 10 00 10 1d 	lw $16,16($29)
  407360:	43 00 00 00 20 00 1d 1d 	addiu $29,$29,32
  407368:	03 00 00 00 00 00 00 1f 	jr $31

00407370 <l_R>:
  407370:	43 00 00 00 90 ff 1d 1d 	addiu $29,$29,-112
  407378:	34 00 00 00 60 00 16 1d 	sw $22,96($29)
  407380:	42 00 00 00 00 16 04 00 	addu $22,$0,$4
  407388:	34 00 00 00 6c 00 1f 1d 	sw $31,108($29)
  407390:	34 00 00 00 68 00 1e 1d 	sw $30,104($29)
  407398:	34 00 00 00 64 00 17 1d 	sw $23,100($29)
  4073a0:	34 00 00 00 5c 00 15 1d 	sw $21,92($29)
  4073a8:	34 00 00 00 58 00 14 1d 	sw $20,88($29)
  4073b0:	34 00 00 00 54 00 13 1d 	sw $19,84($29)
  4073b8:	34 00 00 00 50 00 12 1d 	sw $18,80($29)
  4073c0:	34 00 00 00 4c 00 11 1d 	sw $17,76($29)
  4073c8:	34 00 00 00 48 00 10 1d 	sw $16,72($29)
  4073d0:	06 00 00 00 08 00 00 16 	bne $22,$0,4073f8 <l_R+0x88>
  4073d8:	28 00 00 00 50 87 02 1c 	lw $2,-30896($28)
  4073e0:	08 00 00 00 ce 01 00 02 	bgtz $2,407b20 <l_R+0x7b0>
  4073e8:	43 00 00 00 01 00 02 00 	addiu $2,$0,1
  4073f0:	34 00 00 00 50 87 02 1c 	sw $2,-30896($28)
  4073f8:	34 00 00 00 20 87 00 1c 	sw $0,-30944($28)
  407400:	42 00 00 00 00 13 00 00 	addu $19,$0,$0
  407408:	42 00 00 00 00 1e 00 00 	addu $30,$0,$0
  407410:	43 00 00 00 10 00 12 1d 	addiu $18,$29,16
  407418:	42 00 00 00 00 17 12 00 	addu $23,$0,$18
  407420:	28 00 00 00 24 87 02 1c 	lw $2,-30940($28)
  407428:	43 00 00 00 38 00 15 1d 	addiu $21,$29,56
  407430:	42 00 00 00 00 14 00 00 	addu $20,$0,$0
  407438:	04 00 00 00 00 1f 00 02 	jalr $31,$2
  407440:	42 00 00 00 00 10 02 00 	addu $16,$0,$2
  407448:	43 00 00 00 2b 00 02 00 	addiu $2,$0,43
  407450:	05 00 00 00 0e 00 02 10 	beq $16,$2,407490 <l_R+0x120>
  407458:	43 00 00 00 2d 00 02 00 	addiu $2,$0,45
  407460:	06 00 00 00 10 00 02 10 	bne $16,$2,4074a8 <l_R+0x138>
  407468:	43 00 00 00 2d 00 02 00 	addiu $2,$0,45
  407470:	30 00 00 00 10 00 02 1d 	sb $2,16($29)
  407478:	43 00 00 00 11 00 12 1d 	addiu $18,$29,17
  407480:	42 00 00 00 00 17 12 00 	addu $23,$0,$18
  407488:	43 00 00 00 39 00 15 1d 	addiu $21,$29,57
  407490:	28 00 00 00 24 87 02 1c 	lw $2,-30940($28)
  407498:	04 00 00 00 00 1f 00 02 	jalr $31,$2
  4074a0:	42 00 00 00 00 10 02 00 	addu $16,$0,$2
  4074a8:	43 00 00 00 30 00 02 00 	addiu $2,$0,48
  4074b0:	06 00 00 00 0c 00 02 10 	bne $16,$2,4074e8 <l_R+0x178>
  4074b8:	43 00 00 00 30 00 11 00 	addiu $17,$0,48
  4074c0:	28 00 00 00 24 87 02 1c 	lw $2,-30940($28)
  4074c8:	43 00 00 00 01 00 14 14 	addiu $20,$20,1
  4074d0:	04 00 00 00 00 1f 00 02 	jalr $31,$2
  4074d8:	42 00 00 00 00 10 02 00 	addu $16,$0,$2
  4074e0:	05 00 00 00 f6 ff 11 10 	beq $16,$17,4074c0 <l_R+0x150>
  4074e8:	28 00 00 00 10 82 02 1c 	lw $2,-32240($28)
  4074f0:	55 00 00 00 01 03 10 00 	sll $3,$16,0x1
  4074f8:	42 00 00 00 00 03 02 03 	addu $3,$3,$2
  407500:	26 00 00 00 00 00 02 03 	lhu $2,0($3)
  407508:	4f 00 00 00 08 00 02 02 	andi $2,$2,8
  407510:	05 00 00 00 1e 00 00 02 	beq $2,$0,407590 <l_R+0x220>
  407518:	5d 00 00 00 00 02 15 12 	sltu $2,$18,$21
  407520:	05 00 00 00 06 00 00 02 	beq $2,$0,407540 <l_R+0x1d0>
  407528:	30 00 00 00 00 00 10 12 	sb $16,0($18)
  407530:	43 00 00 00 01 00 12 12 	addiu $18,$18,1
  407538:	01 00 00 00 52 1d 10 00 	j 407548 <l_R+0x1d8>
  407540:	43 00 00 00 01 00 13 13 	addiu $19,$19,1
  407548:	28 00 00 00 24 87 02 1c 	lw $2,-30940($28)
  407550:	04 00 00 00 00 1f 00 02 	jalr $31,$2
  407558:	28 00 00 00 10 82 03 1c 	lw $3,-32240($28)
  407560:	42 00 00 00 00 10 02 00 	addu $16,$0,$2
  407568:	55 00 00 00 01 02 10 00 	sll $2,$16,0x1
  407570:	42 00 00 00 00 02 03 02 	addu $2,$2,$3
  407578:	26 00 00 00 00 00 02 02 	lhu $2,0($2)
  407580:	4f 00 00 00 08 00 02 02 	andi $2,$2,8
  407588:	06 00 00 00 e2 ff 00 02 	bne $2,$0,407518 <l_R+0x1a8>
  407590:	43 00 00 00 2a 00 02 00 	addiu $2,$0,42
  407598:	06 00 00 00 2c 00 02 10 	bne $16,$2,407650 <l_R+0x2e0>
  4075a0:	06 00 00 00 2a 00 00 16 	bne $22,$0,407650 <l_R+0x2e0>
  4075a8:	05 00 00 00 08 00 17 12 	beq $18,$23,4075d0 <l_R+0x260>
  4075b0:	06 00 00 00 06 00 00 13 	bne $19,$0,4075d0 <l_R+0x260>
  4075b8:	20 00 00 00 10 00 03 1d 	lb $3,16($29)
  4075c0:	43 00 00 00 2d 00 02 00 	addiu $2,$0,45
  4075c8:	06 00 00 00 0e 00 02 03 	bne $3,$2,407608 <l_R+0x298>
  4075d0:	28 00 00 00 94 87 02 1c 	lw $2,-30828($28)
  4075d8:	28 00 00 00 00 00 04 02 	lw $4,0($2)
  4075e0:	43 00 00 00 70 00 05 00 	addiu $5,$0,112
  4075e8:	a2 00 00 00 00 10 06 00 	lui $6,4096
  4075f0:	43 00 00 00 b0 00 06 06 	addiu $6,$6,176
  4075f8:	02 00 00 00 94 3c 10 00 	jal 40f250 <err__fl>
  407600:	01 00 00 00 ca 1e 10 00 	j 407b28 <l_R+0x7b8>
  407608:	43 00 00 00 01 00 1e 00 	addiu $30,$0,1
  407610:	43 00 00 00 01 00 16 00 	addiu $22,$0,1
  407618:	43 00 00 00 10 00 04 1d 	addiu $4,$29,16
  407620:	42 00 00 00 00 05 00 00 	addu $5,$0,$0
  407628:	43 00 00 00 0a 00 06 00 	addiu $6,$0,10
  407630:	30 00 00 00 00 00 00 12 	sb $0,0($18)
  407638:	02 00 00 00 74 45 10 00 	jal 4115d0 <strtol>
  407640:	34 00 00 00 50 87 02 1c 	sw $2,-30896($28)
  407648:	01 00 00 00 04 1d 10 00 	j 407410 <l_R+0xa0>
  407650:	43 00 00 00 2e 00 02 00 	addiu $2,$0,46
  407658:	06 00 00 00 42 00 02 10 	bne $16,$2,407768 <l_R+0x3f8>
  407660:	28 00 00 00 24 87 02 1c 	lw $2,-30940($28)
  407668:	04 00 00 00 00 1f 00 02 	jalr $31,$2
  407670:	42 00 00 00 00 10 02 00 	addu $16,$0,$2
  407678:	06 00 00 00 12 00 17 12 	bne $18,$23,4076c8 <l_R+0x358>
  407680:	43 00 00 00 30 00 02 00 	addiu $2,$0,48
  407688:	06 00 00 00 0e 00 02 10 	bne $16,$2,4076c8 <l_R+0x358>
  407690:	43 00 00 00 30 00 11 00 	addiu $17,$0,48
  407698:	28 00 00 00 24 87 02 1c 	lw $2,-30940($28)
  4076a0:	43 00 00 00 01 00 14 14 	addiu $20,$20,1
  4076a8:	43 00 00 00 ff ff 13 13 	addiu $19,$19,-1
  4076b0:	04 00 00 00 00 1f 00 02 	jalr $31,$2
  4076b8:	42 00 00 00 00 10 02 00 	addu $16,$0,$2
  4076c0:	05 00 00 00 f4 ff 11 10 	beq $16,$17,407698 <l_R+0x328>
  4076c8:	28 00 00 00 10 82 02 1c 	lw $2,-32240($28)
  4076d0:	55 00 00 00 01 03 10 00 	sll $3,$16,0x1
  4076d8:	42 00 00 00 00 03 02 03 	addu $3,$3,$2
  4076e0:	26 00 00 00 00 00 02 03 	lhu $2,0($3)
  4076e8:	4f 00 00 00 08 00 02 02 	andi $2,$2,8
  4076f0:	05 00 00 00 1c 00 00 02 	beq $2,$0,407768 <l_R+0x3f8>
  4076f8:	5d 00 00 00 00 02 15 12 	sltu $2,$18,$21
  407700:	05 00 00 00 06 00 00 02 	beq $2,$0,407720 <l_R+0x3b0>
  407708:	30 00 00 00 00 00 10 12 	sb $16,0($18)
  407710:	43 00 00 00 01 00 12 12 	addiu $18,$18,1
  407718:	43 00 00 00 ff ff 13 13 	addiu $19,$19,-1
  407720:	28 00 00 00 24 87 02 1c 	lw $2,-30940($28)
  407728:	04 00 00 00 00 1f 00 02 	jalr $31,$2
  407730:	28 00 00 00 10 82 03 1c 	lw $3,-32240($28)
  407738:	42 00 00 00 00 10 02 00 	addu $16,$0,$2
  407740:	55 00 00 00 01 02 10 00 	sll $2,$16,0x1
  407748:	42 00 00 00 00 02 03 02 	addu $2,$2,$3
  407750:	26 00 00 00 00 00 02 02 	lhu $2,0($2)
  407758:	4f 00 00 00 08 00 02 02 	andi $2,$2,8
  407760:	06 00 00 00 e4 ff 00 02 	bne $2,$0,4076f8 <l_R+0x388>
  407768:	45 00 00 00 00 02 17 12 	subu $2,$18,$23
  407770:	a2 00 00 00 00 10 03 00 	lui $3,4096
  407778:	42 00 00 00 00 03 10 03 	addu $3,$3,$16
  407780:	22 00 00 00 71 26 03 03 	lbu $3,9841($3)
  407788:	42 00 00 00 00 14 02 14 	addu $20,$20,$2
  407790:	42 00 00 00 00 16 00 00 	addu $22,$0,$0
  407798:	4f 00 00 00 10 00 02 03 	andi $2,$3,16
  4077a0:	06 00 00 00 16 00 00 02 	bne $2,$0,407800 <l_R+0x490>
  4077a8:	05 00 00 00 6a 00 00 14 	beq $20,$0,407958 <l_R+0x5e8>
  4077b0:	4f 00 00 00 08 00 02 03 	andi $2,$3,8
  4077b8:	05 00 00 00 66 00 00 02 	beq $2,$0,407958 <l_R+0x5e8>
  4077c0:	28 00 00 00 24 87 02 1c 	lw $2,-30940($28)
  4077c8:	04 00 00 00 00 1f 00 02 	jalr $31,$2
  4077d0:	42 00 00 00 00 10 02 00 	addu $16,$0,$2
  4077d8:	a2 00 00 00 00 10 02 00 	lui $2,4096
  4077e0:	42 00 00 00 00 02 10 02 	addu $2,$2,$16
  4077e8:	22 00 00 00 71 26 02 02 	lbu $2,9841($2)
  4077f0:	4f 00 00 00 10 00 02 02 	andi $2,$2,16
  4077f8:	05 00 00 00 0c 00 00 02 	beq $2,$0,407830 <l_R+0x4c0>
  407800:	43 00 00 00 2d 00 02 00 	addiu $2,$0,45
  407808:	06 00 00 00 02 00 02 10 	bne $16,$2,407818 <l_R+0x4a8>
  407810:	43 00 00 00 01 00 16 00 	addiu $22,$0,1
  407818:	28 00 00 00 24 87 02 1c 	lw $2,-30940($28)
  407820:	04 00 00 00 00 1f 00 02 	jalr $31,$2
  407828:	42 00 00 00 00 10 02 00 	addu $16,$0,$2
  407830:	28 00 00 00 10 82 02 1c 	lw $2,-32240($28)
  407838:	55 00 00 00 01 03 10 00 	sll $3,$16,0x1
  407840:	42 00 00 00 00 03 02 03 	addu $3,$3,$2
  407848:	26 00 00 00 00 00 02 03 	lhu $2,0($3)
  407850:	4f 00 00 00 08 00 02 02 	andi $2,$2,8
  407858:	06 00 00 00 0e 00 00 02 	bne $2,$0,407898 <l_R+0x528>
  407860:	28 00 00 00 94 87 02 1c 	lw $2,-30828($28)
  407868:	28 00 00 00 00 00 04 02 	lw $4,0($2)
  407870:	43 00 00 00 70 00 05 00 	addiu $5,$0,112
  407878:	a2 00 00 00 00 10 06 00 	lui $6,4096
  407880:	43 00 00 00 c8 00 06 06 	addiu $6,$6,200
  407888:	02 00 00 00 94 3c 10 00 	jal 40f250 <err__fl>
  407890:	01 00 00 00 ca 1e 10 00 	j 407b28 <l_R+0x7b8>
  407898:	43 00 00 00 d0 ff 11 10 	addiu $17,$16,-48
  4078a0:	a2 00 00 00 f5 05 15 00 	lui $21,1525
  4078a8:	51 00 00 00 ff e0 15 15 	ori $21,$21,57599
  4078b0:	28 00 00 00 24 87 02 1c 	lw $2,-30940($28)
  4078b8:	04 00 00 00 00 1f 00 02 	jalr $31,$2
  4078c0:	28 00 00 00 10 82 03 1c 	lw $3,-32240($28)
  4078c8:	42 00 00 00 00 10 02 00 	addu $16,$0,$2
  4078d0:	55 00 00 00 01 02 10 00 	sll $2,$16,0x1
  4078d8:	42 00 00 00 00 02 03 02 	addu $2,$2,$3
  4078e0:	26 00 00 00 00 00 02 02 	lhu $2,0($2)
  4078e8:	4f 00 00 00 08 00 02 02 	andi $2,$2,8
  4078f0:	05 00 00 00 10 00 00 02 	beq $2,$0,407938 <l_R+0x5c8>
  4078f8:	55 00 00 00 02 02 11 00 	sll $2,$17,0x2
  407900:	42 00 00 00 00 02 11 02 	addu $2,$2,$17
  407908:	55 00 00 00 01 02 02 00 	sll $2,$2,0x1
  407910:	42 00 00 00 00 02 10 02 	addu $2,$2,$16
  407918:	43 00 00 00 d0 ff 11 02 	addiu $17,$2,-48
  407920:	5b 00 00 00 00 02 11 15 	slt $2,$21,$17
  407928:	06 00 00 00 cc ff 00 02 	bne $2,$0,407860 <l_R+0x4f0>
  407930:	01 00 00 00 2c 1e 10 00 	j 4078b0 <l_R+0x540>
  407938:	05 00 00 00 04 00 00 16 	beq $22,$0,407950 <l_R+0x5e0>
  407940:	45 00 00 00 00 13 11 13 	subu $19,$19,$17
  407948:	01 00 00 00 56 1e 10 00 	j 407958 <l_R+0x5e8>
  407950:	42 00 00 00 00 13 11 13 	addu $19,$19,$17
  407958:	28 00 00 00 ac 87 05 1c 	lw $5,-30804($28)
  407960:	28 00 00 00 2c 87 02 1c 	lw $2,-30932($28)
  407968:	42 00 00 00 00 04 10 00 	addu $4,$0,$16
  407970:	04 00 00 00 00 1f 00 02 	jalr $31,$2
  407978:	5d 00 00 00 00 02 12 17 	sltu $2,$23,$18
  407980:	05 00 00 00 2e 00 00 02 	beq $2,$0,407a40 <l_R+0x6d0>
  407988:	43 00 00 00 ff ff 12 12 	addiu $18,$18,-1
  407990:	20 00 00 00 00 00 03 12 	lb $3,0($18)
  407998:	43 00 00 00 01 00 14 14 	addiu $20,$20,1
  4079a0:	43 00 00 00 30 00 02 00 	addiu $2,$0,48
  4079a8:	06 00 00 00 0a 00 02 03 	bne $3,$2,4079d8 <l_R+0x668>
  4079b0:	43 00 00 00 30 00 03 00 	addiu $3,$0,48
  4079b8:	43 00 00 00 ff ff 12 12 	addiu $18,$18,-1
  4079c0:	20 00 00 00 00 00 02 12 	lb $2,0($18)
  4079c8:	43 00 00 00 01 00 13 13 	addiu $19,$19,1
  4079d0:	05 00 00 00 f8 ff 03 02 	beq $2,$3,4079b8 <l_R+0x648>
  4079d8:	05 00 00 00 0a 00 00 13 	beq $19,$0,407a08 <l_R+0x698>
  4079e0:	43 00 00 00 01 00 04 12 	addiu $4,$18,1
  4079e8:	43 00 00 00 d0 80 05 1c 	addiu $5,$28,-32560
  4079f0:	42 00 00 00 00 06 13 00 	addu $6,$0,$19
  4079f8:	02 00 00 00 80 46 10 00 	jal 411a00 <sprintf>
  407a00:	01 00 00 00 84 1e 10 00 	j 407a10 <l_R+0x6a0>
  407a08:	30 00 00 00 01 00 00 12 	sb $0,1($18)
  407a10:	43 00 00 00 10 00 04 1d 	addiu $4,$29,16
  407a18:	42 00 00 00 00 05 00 00 	addu $5,$0,$0
  407a20:	02 00 00 00 94 46 10 00 	jal 411a50 <strtod>
  407a28:	36 00 00 00 48 87 00 1c 	s.s $f0,-30904($28)
  407a30:	36 00 00 00 4c 87 01 1c 	s.s $f1,-30900($28)
  407a38:	01 00 00 00 94 1e 10 00 	j 407a50 <l_R+0x6e0>
  407a40:	34 00 00 00 48 87 00 1c 	sw $0,-30904($28)
  407a48:	34 00 00 00 4c 87 00 1c 	sw $0,-30900($28)
  407a50:	05 00 00 00 06 00 00 14 	beq $20,$0,407a70 <l_R+0x700>
  407a58:	43 00 00 00 03 00 02 00 	addiu $2,$0,3
  407a60:	34 00 00 00 20 87 02 1c 	sw $2,-30944($28)
  407a68:	01 00 00 00 c8 1e 10 00 	j 407b20 <l_R+0x7b0>
  407a70:	43 00 00 00 2c 00 02 00 	addiu $2,$0,44
  407a78:	05 00 00 00 28 00 02 10 	beq $16,$2,407b20 <l_R+0x7b0>
  407a80:	43 00 00 00 2f 00 02 00 	addiu $2,$0,47
  407a88:	05 00 00 00 24 00 02 10 	beq $16,$2,407b20 <l_R+0x7b0>
  407a90:	05 00 00 00 0a 00 00 1e 	beq $30,$0,407ac0 <l_R+0x750>
  407a98:	43 00 00 00 20 00 02 00 	addiu $2,$0,32
  407aa0:	05 00 00 00 1e 00 02 10 	beq $16,$2,407b20 <l_R+0x7b0>
  407aa8:	43 00 00 00 f7 ff 02 10 	addiu $2,$16,-9
  407ab0:	5e 00 00 00 02 00 02 02 	sltiu $2,$2,2
  407ab8:	06 00 00 00 18 00 00 02 	bne $2,$0,407b20 <l_R+0x7b0>
  407ac0:	28 00 00 00 34 87 02 1c 	lw $2,-30924($28)
  407ac8:	5c 00 00 00 02 00 02 02 	slti $2,$2,2
  407ad0:	05 00 00 00 0e 00 00 02 	beq $2,$0,407b10 <l_R+0x7a0>
  407ad8:	28 00 00 00 94 87 02 1c 	lw $2,-30828($28)
  407ae0:	28 00 00 00 00 00 04 02 	lw $4,0($2)
  407ae8:	43 00 00 00 70 00 05 00 	addiu $5,$0,112
  407af0:	a2 00 00 00 00 10 06 00 	lui $6,4096
  407af8:	43 00 00 00 d8 00 06 06 	addiu $6,$6,216
  407b00:	02 00 00 00 94 3c 10 00 	jal 40f250 <err__fl>
  407b08:	01 00 00 00 ca 1e 10 00 	j 407b28 <l_R+0x7b8>
  407b10:	43 00 00 00 02 00 02 00 	addiu $2,$0,2
  407b18:	34 00 00 00 3c 87 02 1c 	sw $2,-30916($28)
  407b20:	42 00 00 00 00 02 00 00 	addu $2,$0,$0
  407b28:	28 00 00 00 6c 00 1f 1d 	lw $31,108($29)
  407b30:	28 00 00 00 68 00 1e 1d 	lw $30,104($29)
  407b38:	28 00 00 00 64 00 17 1d 	lw $23,100($29)
  407b40:	28 00 00 00 60 00 16 1d 	lw $22,96($29)
  407b48:	28 00 00 00 5c 00 15 1d 	lw $21,92($29)
  407b50:	28 00 00 00 58 00 14 1d 	lw $20,88($29)
  407b58:	28 00 00 00 54 00 13 1d 	lw $19,84($29)
  407b60:	28 00 00 00 50 00 12 1d 	lw $18,80($29)
  407b68:	28 00 00 00 4c 00 11 1d 	lw $17,76($29)
  407b70:	28 00 00 00 48 00 10 1d 	lw $16,72($29)
  407b78:	43 00 00 00 70 00 1d 1d 	addiu $29,$29,112
  407b80:	03 00 00 00 00 00 00 1f 	jr $31

00407b88 <l_C>:
  407b88:	28 00 00 00 50 87 02 1c 	lw $2,-30896($28)
  407b90:	43 00 00 00 e0 ff 1d 1d 	addiu $29,$29,-32
  407b98:	34 00 00 00 14 00 1f 1d 	sw $31,20($29)
  407ba0:	34 00 00 00 10 00 10 1d 	sw $16,16($29)
  407ba8:	36 00 00 00 18 00 14 1d 	s.s $f20,24($29)
  407bb0:	36 00 00 00 1c 00 15 1d 	s.s $f21,28($29)
  407bb8:	07 00 00 00 04 00 00 02 	blez $2,407bd0 <l_C+0x48>
  407bc0:	42 00 00 00 00 02 00 00 	addu $2,$0,$0
  407bc8:	01 00 00 00 72 20 10 00 	j 4081c8 <l_C+0x640>
  407bd0:	28 00 00 00 24 87 02 1c 	lw $2,-30940($28)
  407bd8:	34 00 00 00 20 87 00 1c 	sw $0,-30944($28)
  407be0:	04 00 00 00 00 1f 00 02 	jalr $31,$2
  407be8:	42 00 00 00 00 04 02 00 	addu $4,$0,$2
  407bf0:	43 00 00 00 28 00 02 00 	addiu $2,$0,40
  407bf8:	05 00 00 00 b4 00 02 04 	beq $4,$2,407ed0 <l_C+0x348>
  407c00:	28 00 00 00 34 87 02 1c 	lw $2,-30924($28)
  407c08:	5c 00 00 00 02 00 02 02 	slti $2,$2,2
  407c10:	06 00 00 00 14 00 00 02 	bne $2,$0,407c68 <l_C+0xe0>
  407c18:	43 00 00 00 d0 ff 02 04 	addiu $2,$4,-48
  407c20:	5e 00 00 00 0a 00 02 02 	sltiu $2,$2,10
  407c28:	06 00 00 00 0e 00 00 02 	bne $2,$0,407c68 <l_C+0xe0>
  407c30:	28 00 00 00 ac 87 05 1c 	lw $5,-30804($28)
  407c38:	28 00 00 00 2c 87 02 1c 	lw $2,-30932($28)
  407c40:	04 00 00 00 00 1f 00 02 	jalr $31,$2
  407c48:	42 00 00 00 00 02 00 00 	addu $2,$0,$0
  407c50:	43 00 00 00 02 00 03 00 	addiu $3,$0,2
  407c58:	34 00 00 00 3c 87 03 1c 	sw $3,-30916($28)
  407c60:	01 00 00 00 72 20 10 00 	j 4081c8 <l_C+0x640>
  407c68:	43 00 00 00 d0 ff 04 04 	addiu $4,$4,-48
  407c70:	5e 00 00 00 0a 00 02 04 	sltiu $2,$4,10
  407c78:	06 00 00 00 04 00 00 02 	bne $2,$0,407c90 <l_C+0x108>
  407c80:	43 00 00 00 01 00 02 00 	addiu $2,$0,1
  407c88:	01 00 00 00 4e 1f 10 00 	j 407d38 <l_C+0x1b0>
  407c90:	34 00 00 00 50 87 04 1c 	sw $4,-30896($28)
  407c98:	28 00 00 00 24 87 02 1c 	lw $2,-30940($28)
  407ca0:	04 00 00 00 00 1f 00 02 	jalr $31,$2
  407ca8:	42 00 00 00 00 04 02 00 	addu $4,$0,$2
  407cb0:	5c 00 00 00 30 00 02 04 	slti $2,$4,48
  407cb8:	06 00 00 00 14 00 00 02 	bne $2,$0,407d10 <l_C+0x188>
  407cc0:	5c 00 00 00 3a 00 02 04 	slti $2,$4,58
  407cc8:	05 00 00 00 10 00 00 02 	beq $2,$0,407d10 <l_C+0x188>
  407cd0:	28 00 00 00 50 87 03 1c 	lw $3,-30896($28)
  407cd8:	55 00 00 00 02 02 03 00 	sll $2,$3,0x2
  407ce0:	42 00 00 00 00 02 03 02 	addu $2,$2,$3
  407ce8:	55 00 00 00 01 02 02 00 	sll $2,$2,0x1
  407cf0:	42 00 00 00 00 02 04 02 	addu $2,$2,$4
  407cf8:	43 00 00 00 d0 ff 02 02 	addiu $2,$2,-48
  407d00:	34 00 00 00 50 87 02 1c 	sw $2,-30896($28)
  407d08:	01 00 00 00 26 1f 10 00 	j 407c98 <l_C+0x110>
  407d10:	28 00 00 00 ac 87 05 1c 	lw $5,-30804($28)
  407d18:	28 00 00 00 2c 87 02 1c 	lw $2,-30932($28)
  407d20:	04 00 00 00 00 1f 00 02 	jalr $31,$2
  407d28:	28 00 00 00 50 87 02 1c 	lw $2,-30896($28)
  407d30:	5c 00 00 00 01 00 02 02 	slti $2,$2,1
  407d38:	05 00 00 00 1e 00 00 02 	beq $2,$0,407db8 <l_C+0x230>
  407d40:	28 00 00 00 ac 87 02 1c 	lw $2,-30804($28)
  407d48:	05 00 00 00 06 00 00 02 	beq $2,$0,407d68 <l_C+0x1e0>
  407d50:	28 00 00 00 4c 00 02 02 	lw $2,76($2)
  407d58:	4f 00 00 00 00 02 02 02 	andi $2,$2,512
  407d60:	06 00 00 00 0c 00 00 02 	bne $2,$0,407d98 <l_C+0x210>
  407d68:	28 00 00 00 94 87 02 1c 	lw $2,-30828($28)
  407d70:	28 00 00 00 00 00 04 02 	lw $4,0($2)
  407d78:	43 00 00 00 70 00 05 00 	addiu $5,$0,112
  407d80:	a2 00 00 00 00 10 06 00 	lui $6,4096
  407d88:	43 00 00 00 e8 00 06 06 	addiu $6,$6,232
  407d90:	01 00 00 00 70 20 10 00 	j 4081c0 <l_C+0x638>
  407d98:	28 00 00 00 94 87 02 1c 	lw $2,-30828($28)
  407da0:	28 00 00 00 00 00 02 02 	lw $2,0($2)
  407da8:	06 00 00 00 24 00 00 02 	bne $2,$0,407e40 <l_C+0x2b8>
  407db0:	01 00 00 00 96 1f 10 00 	j 407e58 <l_C+0x2d0>
  407db8:	28 00 00 00 24 87 02 1c 	lw $2,-30940($28)
  407dc0:	04 00 00 00 00 1f 00 02 	jalr $31,$2
  407dc8:	43 00 00 00 2a 00 03 00 	addiu $3,$0,42
  407dd0:	05 00 00 00 2a 00 03 02 	beq $2,$3,407e80 <l_C+0x2f8>
  407dd8:	28 00 00 00 ac 87 02 1c 	lw $2,-30804($28)
  407de0:	05 00 00 00 06 00 00 02 	beq $2,$0,407e00 <l_C+0x278>
  407de8:	28 00 00 00 4c 00 02 02 	lw $2,76($2)
  407df0:	4f 00 00 00 00 02 02 02 	andi $2,$2,512
  407df8:	06 00 00 00 0a 00 00 02 	bne $2,$0,407e28 <l_C+0x2a0>
  407e00:	28 00 00 00 94 87 02 1c 	lw $2,-30828($28)
  407e08:	28 00 00 00 00 00 04 02 	lw $4,0($2)
  407e10:	43 00 00 00 70 00 05 00 	addiu $5,$0,112
  407e18:	43 00 00 00 e0 80 06 1c 	addiu $6,$28,-32544
  407e20:	01 00 00 00 70 20 10 00 	j 4081c0 <l_C+0x638>
  407e28:	28 00 00 00 94 87 02 1c 	lw $2,-30828($28)
  407e30:	28 00 00 00 00 00 02 02 	lw $2,0($2)
  407e38:	05 00 00 00 06 00 00 02 	beq $2,$0,407e58 <l_C+0x2d0>
  407e40:	43 00 00 00 ff ff 02 00 	addiu $2,$0,-1
  407e48:	34 00 00 00 00 87 02 1c 	sw $2,-30976($28)
  407e50:	01 00 00 00 9c 1f 10 00 	j 407e70 <l_C+0x2e8>
  407e58:	43 00 00 00 ff ff 04 00 	addiu $4,$0,-1
  407e60:	43 00 00 00 d8 80 05 1c 	addiu $5,$28,-32552
  407e68:	02 00 00 00 aa 3a 10 00 	jal 40eaa8 <f__fatal>
  407e70:	43 00 00 00 ff ff 02 00 	addiu $2,$0,-1
  407e78:	01 00 00 00 72 20 10 00 	j 4081c8 <l_C+0x640>
  407e80:	28 00 00 00 24 87 02 1c 	lw $2,-30940($28)
  407e88:	04 00 00 00 00 1f 00 02 	jalr $31,$2
  407e90:	42 00 00 00 00 04 02 00 	addu $4,$0,$2
  407e98:	43 00 00 00 28 00 02 00 	addiu $2,$0,40
  407ea0:	05 00 00 00 0e 00 02 04 	beq $4,$2,407ee0 <l_C+0x358>
  407ea8:	28 00 00 00 ac 87 05 1c 	lw $5,-30804($28)
  407eb0:	28 00 00 00 2c 87 02 1c 	lw $2,-30932($28)
  407eb8:	04 00 00 00 00 1f 00 02 	jalr $31,$2
  407ec0:	42 00 00 00 00 02 00 00 	addu $2,$0,$0
  407ec8:	01 00 00 00 72 20 10 00 	j 4081c8 <l_C+0x640>
  407ed0:	43 00 00 00 01 00 02 00 	addiu $2,$0,1
  407ed8:	34 00 00 00 50 87 02 1c 	sw $2,-30896($28)
  407ee0:	28 00 00 00 24 87 02 1c 	lw $2,-30940($28)
  407ee8:	04 00 00 00 00 1f 00 02 	jalr $31,$2
  407ef0:	42 00 00 00 00 04 02 00 	addu $4,$0,$2
  407ef8:	a2 00 00 00 00 10 02 00 	lui $2,4096
  407f00:	42 00 00 00 00 02 04 02 	addu $2,$2,$4
  407f08:	22 00 00 00 71 26 02 02 	lbu $2,9841($2)
  407f10:	4f 00 00 00 20 00 02 02 	andi $2,$2,32
  407f18:	06 00 00 00 f0 ff 00 02 	bne $2,$0,407ee0 <l_C+0x358>
  407f20:	28 00 00 00 ac 87 05 1c 	lw $5,-30804($28)
  407f28:	28 00 00 00 2c 87 02 1c 	lw $2,-30932($28)
  407f30:	04 00 00 00 00 1f 00 02 	jalr $31,$2
  407f38:	28 00 00 00 34 87 10 1c 	lw $16,-30924($28)
  407f40:	43 00 00 00 01 00 04 00 	addiu $4,$0,1
  407f48:	34 00 00 00 34 87 00 1c 	sw $0,-30924($28)
  407f50:	02 00 00 00 dc 1c 10 00 	jal 407370 <l_R>
  407f58:	42 00 00 00 00 04 02 00 	addu $4,$0,$2
  407f60:	06 00 00 00 98 00 00 04 	bne $4,$0,4081c8 <l_C+0x640>
  407f68:	28 00 00 00 20 87 02 1c 	lw $2,-30944($28)
  407f70:	06 00 00 00 0c 00 00 02 	bne $2,$0,407fa8 <l_C+0x420>
  407f78:	28 00 00 00 94 87 02 1c 	lw $2,-30828($28)
  407f80:	28 00 00 00 00 00 04 02 	lw $4,0($2)
  407f88:	43 00 00 00 70 00 05 00 	addiu $5,$0,112
  407f90:	a2 00 00 00 00 10 06 00 	lui $6,4096
  407f98:	43 00 00 00 f8 00 06 06 	addiu $6,$6,248
  407fa0:	01 00 00 00 70 20 10 00 	j 4081c0 <l_C+0x638>
  407fa8:	2a 00 00 00 48 87 14 1c 	l.s $f20,-30904($28)
  407fb0:	2a 00 00 00 4c 87 15 1c 	l.s $f21,-30900($28)
  407fb8:	28 00 00 00 24 87 02 1c 	lw $2,-30940($28)
  407fc0:	04 00 00 00 00 1f 00 02 	jalr $31,$2
  407fc8:	42 00 00 00 00 04 02 00 	addu $4,$0,$2
  407fd0:	a2 00 00 00 00 10 02 00 	lui $2,4096
  407fd8:	42 00 00 00 00 02 04 02 	addu $2,$2,$4
  407fe0:	22 00 00 00 71 26 02 02 	lbu $2,9841($2)
  407fe8:	4f 00 00 00 20 00 02 02 	andi $2,$2,32
  407ff0:	06 00 00 00 f0 ff 00 02 	bne $2,$0,407fb8 <l_C+0x430>
  407ff8:	43 00 00 00 2c 00 02 00 	addiu $2,$0,44
  408000:	05 00 00 00 12 00 02 04 	beq $4,$2,408050 <l_C+0x4c8>
  408008:	28 00 00 00 ac 87 05 1c 	lw $5,-30804($28)
  408010:	28 00 00 00 2c 87 02 1c 	lw $2,-30932($28)
  408018:	04 00 00 00 00 1f 00 02 	jalr $31,$2
  408020:	28 00 00 00 94 87 02 1c 	lw $2,-30828($28)
  408028:	28 00 00 00 00 00 04 02 	lw $4,0($2)
  408030:	43 00 00 00 70 00 05 00 	addiu $5,$0,112
  408038:	a2 00 00 00 00 10 06 00 	lui $6,4096
  408040:	43 00 00 00 08 01 06 06 	addiu $6,$6,264
  408048:	01 00 00 00 70 20 10 00 	j 4081c0 <l_C+0x638>
  408050:	28 00 00 00 24 87 02 1c 	lw $2,-30940($28)
  408058:	04 00 00 00 00 1f 00 02 	jalr $31,$2
  408060:	42 00 00 00 00 04 02 00 	addu $4,$0,$2
  408068:	a2 00 00 00 00 10 02 00 	lui $2,4096
  408070:	42 00 00 00 00 02 04 02 	addu $2,$2,$4
  408078:	22 00 00 00 71 26 02 02 	lbu $2,9841($2)
  408080:	4f 00 00 00 20 00 02 02 	andi $2,$2,32
  408088:	06 00 00 00 f0 ff 00 02 	bne $2,$0,408050 <l_C+0x4c8>
  408090:	28 00 00 00 ac 87 05 1c 	lw $5,-30804($28)
  408098:	28 00 00 00 2c 87 02 1c 	lw $2,-30932($28)
  4080a0:	04 00 00 00 00 1f 00 02 	jalr $31,$2
  4080a8:	43 00 00 00 01 00 04 00 	addiu $4,$0,1
  4080b0:	02 00 00 00 dc 1c 10 00 	jal 407370 <l_R>
  4080b8:	42 00 00 00 00 04 02 00 	addu $4,$0,$2
  4080c0:	06 00 00 00 40 00 00 04 	bne $4,$0,4081c8 <l_C+0x640>
  4080c8:	28 00 00 00 20 87 02 1c 	lw $2,-30944($28)
  4080d0:	06 00 00 00 0c 00 00 02 	bne $2,$0,408108 <l_C+0x580>
  4080d8:	28 00 00 00 94 87 02 1c 	lw $2,-30828($28)
  4080e0:	28 00 00 00 00 00 04 02 	lw $4,0($2)
  4080e8:	43 00 00 00 70 00 05 00 	addiu $5,$0,112
  4080f0:	a2 00 00 00 00 10 06 00 	lui $6,4096
  4080f8:	43 00 00 00 14 01 06 06 	addiu $6,$6,276
  408100:	01 00 00 00 70 20 10 00 	j 4081c0 <l_C+0x638>
  408108:	28 00 00 00 24 87 02 1c 	lw $2,-30940($28)
  408110:	04 00 00 00 00 1f 00 02 	jalr $31,$2
  408118:	42 00 00 00 00 04 02 00 	addu $4,$0,$2
  408120:	a2 00 00 00 00 10 02 00 	lui $2,4096
  408128:	42 00 00 00 00 02 04 02 	addu $2,$2,$4
  408130:	22 00 00 00 71 26 02 02 	lbu $2,9841($2)
  408138:	4f 00 00 00 20 00 02 02 	andi $2,$2,32
  408140:	06 00 00 00 f0 ff 00 02 	bne $2,$0,408108 <l_C+0x580>
  408148:	43 00 00 00 29 00 02 00 	addiu $2,$0,41
  408150:	06 00 00 00 12 00 02 04 	bne $4,$2,4081a0 <l_C+0x618>
  408158:	2a 00 00 00 48 87 00 1c 	l.s $f0,-30904($28)
  408160:	2a 00 00 00 4c 87 01 1c 	l.s $f1,-30900($28)
  408168:	42 00 00 00 00 02 00 00 	addu $2,$0,$0
  408170:	34 00 00 00 34 87 10 1c 	sw $16,-30924($28)
  408178:	36 00 00 00 40 87 00 1c 	s.s $f0,-30912($28)
  408180:	36 00 00 00 44 87 01 1c 	s.s $f1,-30908($28)
  408188:	36 00 00 00 48 87 14 1c 	s.s $f20,-30904($28)
  408190:	36 00 00 00 4c 87 15 1c 	s.s $f21,-30900($28)
  408198:	01 00 00 00 72 20 10 00 	j 4081c8 <l_C+0x640>
  4081a0:	28 00 00 00 94 87 02 1c 	lw $2,-30828($28)
  4081a8:	28 00 00 00 00 00 04 02 	lw $4,0($2)
  4081b0:	43 00 00 00 70 00 05 00 	addiu $5,$0,112
  4081b8:	43 00 00 00 e8 80 06 1c 	addiu $6,$28,-32536
  4081c0:	02 00 00 00 94 3c 10 00 	jal 40f250 <err__fl>
  4081c8:	28 00 00 00 14 00 1f 1d 	lw $31,20($29)
  4081d0:	28 00 00 00 10 00 10 1d 	lw $16,16($29)
  4081d8:	2a 00 00 00 18 00 14 1d 	l.s $f20,24($29)
  4081e0:	2a 00 00 00 1c 00 15 1d 	l.s $f21,28($29)
  4081e8:	43 00 00 00 20 00 1d 1d 	addiu $29,$29,32
  4081f0:	03 00 00 00 00 00 00 1f 	jr $31

004081f8 <l_L>:
  4081f8:	28 00 00 00 50 87 02 1c 	lw $2,-30896($28)
  408200:	43 00 00 00 e8 ff 1d 1d 	addiu $29,$29,-24
  408208:	34 00 00 00 14 00 1f 1d 	sw $31,20($29)
  408210:	34 00 00 00 10 00 10 1d 	sw $16,16($29)
  408218:	08 00 00 00 fe 00 00 02 	bgtz $2,408618 <l_L+0x420>
  408220:	28 00 00 00 24 87 03 1c 	lw $3,-30940($28)
  408228:	43 00 00 00 01 00 02 00 	addiu $2,$0,1
  408230:	34 00 00 00 50 87 02 1c 	sw $2,-30896($28)
  408238:	34 00 00 00 20 87 00 1c 	sw $0,-30944($28)
  408240:	04 00 00 00 00 1f 00 03 	jalr $31,$3
  408248:	28 00 00 00 10 82 03 1c 	lw $3,-32240($28)
  408250:	42 00 00 00 00 04 02 00 	addu $4,$0,$2
  408258:	55 00 00 00 01 02 04 00 	sll $2,$4,0x1
  408260:	42 00 00 00 00 02 03 02 	addu $2,$2,$3
  408268:	26 00 00 00 00 00 02 02 	lhu $2,0($2)
  408270:	4f 00 00 00 08 00 02 02 	andi $2,$2,8
  408278:	05 00 00 00 66 00 00 02 	beq $2,$0,408418 <l_L+0x220>
  408280:	43 00 00 00 d0 ff 04 04 	addiu $4,$4,-48
  408288:	5e 00 00 00 0a 00 02 04 	sltiu $2,$4,10
  408290:	05 00 00 00 26 00 00 02 	beq $2,$0,408330 <l_L+0x138>
  408298:	34 00 00 00 50 87 04 1c 	sw $4,-30896($28)
  4082a0:	28 00 00 00 24 87 02 1c 	lw $2,-30940($28)
  4082a8:	04 00 00 00 00 1f 00 02 	jalr $31,$2
  4082b0:	42 00 00 00 00 04 02 00 	addu $4,$0,$2
  4082b8:	5c 00 00 00 30 00 02 04 	slti $2,$4,48
  4082c0:	06 00 00 00 14 00 00 02 	bne $2,$0,408318 <l_L+0x120>
  4082c8:	5c 00 00 00 3a 00 02 04 	slti $2,$4,58
  4082d0:	05 00 00 00 10 00 00 02 	beq $2,$0,408318 <l_L+0x120>
  4082d8:	28 00 00 00 50 87 03 1c 	lw $3,-30896($28)
  4082e0:	55 00 00 00 02 02 03 00 	sll $2,$3,0x2
  4082e8:	42 00 00 00 00 02 03 02 	addu $2,$2,$3
  4082f0:	55 00 00 00 01 02 02 00 	sll $2,$2,0x1
  4082f8:	42 00 00 00 00 02 04 02 	addu $2,$2,$4
  408300:	43 00 00 00 d0 ff 02 02 	addiu $2,$2,-48
  408308:	34 00 00 00 50 87 02 1c 	sw $2,-30896($28)
  408310:	01 00 00 00 a8 20 10 00 	j 4082a0 <l_L+0xa8>
  408318:	28 00 00 00 ac 87 05 1c 	lw $5,-30804($28)
  408320:	28 00 00 00 2c 87 02 1c 	lw $2,-30932($28)
  408328:	04 00 00 00 00 1f 00 02 	jalr $31,$2
  408330:	28 00 00 00 24 87 02 1c 	lw $2,-30940($28)
  408338:	04 00 00 00 00 1f 00 02 	jalr $31,$2
  408340:	43 00 00 00 2a 00 03 00 	addiu $3,$0,42
  408348:	05 00 00 00 2c 00 03 02 	beq $2,$3,408400 <l_L+0x208>
  408350:	28 00 00 00 ac 87 02 1c 	lw $2,-30804($28)
  408358:	05 00 00 00 06 00 00 02 	beq $2,$0,408378 <l_L+0x180>
  408360:	28 00 00 00 4c 00 02 02 	lw $2,76($2)
  408368:	4f 00 00 00 00 02 02 02 	andi $2,$2,512
  408370:	06 00 00 00 0c 00 00 02 	bne $2,$0,4083a8 <l_L+0x1b0>
  408378:	28 00 00 00 94 87 02 1c 	lw $2,-30828($28)
  408380:	28 00 00 00 00 00 04 02 	lw $4,0($2)
  408388:	43 00 00 00 70 00 05 00 	addiu $5,$0,112
  408390:	43 00 00 00 e0 80 06 1c 	addiu $6,$28,-32544
  408398:	02 00 00 00 94 3c 10 00 	jal 40f250 <err__fl>
  4083a0:	01 00 00 00 88 21 10 00 	j 408620 <l_L+0x428>
  4083a8:	28 00 00 00 94 87 02 1c 	lw $2,-30828($28)
  4083b0:	28 00 00 00 00 00 02 02 	lw $2,0($2)
  4083b8:	05 00 00 00 06 00 00 02 	beq $2,$0,4083d8 <l_L+0x1e0>
  4083c0:	43 00 00 00 ff ff 02 00 	addiu $2,$0,-1
  4083c8:	34 00 00 00 00 87 02 1c 	sw $2,-30976($28)
  4083d0:	01 00 00 00 fc 20 10 00 	j 4083f0 <l_L+0x1f8>
  4083d8:	43 00 00 00 ff ff 04 00 	addiu $4,$0,-1
  4083e0:	43 00 00 00 d8 80 05 1c 	addiu $5,$28,-32552
  4083e8:	02 00 00 00 aa 3a 10 00 	jal 40eaa8 <f__fatal>
  4083f0:	43 00 00 00 ff ff 02 00 	addiu $2,$0,-1
  4083f8:	01 00 00 00 88 21 10 00 	j 408620 <l_L+0x428>
  408400:	28 00 00 00 24 87 02 1c 	lw $2,-30940($28)
  408408:	04 00 00 00 00 1f 00 02 	jalr $31,$2
  408410:	42 00 00 00 00 04 02 00 	addu $4,$0,$2
  408418:	43 00 00 00 2e 00 02 00 	addiu $2,$0,46
  408420:	06 00 00 00 06 00 02 04 	bne $4,$2,408440 <l_L+0x248>
  408428:	28 00 00 00 24 87 02 1c 	lw $2,-30940($28)
  408430:	04 00 00 00 00 1f 00 02 	jalr $31,$2
  408438:	42 00 00 00 00 04 02 00 	addu $4,$0,$2
  408440:	43 00 00 00 54 00 02 00 	addiu $2,$0,84
  408448:	05 00 00 00 12 00 02 04 	beq $4,$2,408498 <l_L+0x2a0>
  408450:	5c 00 00 00 55 00 02 04 	slti $2,$4,85
  408458:	05 00 00 00 06 00 00 02 	beq $2,$0,408478 <l_L+0x280>
  408460:	43 00 00 00 46 00 02 00 	addiu $2,$0,70
  408468:	05 00 00 00 14 00 02 04 	beq $4,$2,4084c0 <l_L+0x2c8>
  408470:	01 00 00 00 36 21 10 00 	j 4084d8 <l_L+0x2e0>
  408478:	43 00 00 00 66 00 02 00 	addiu $2,$0,102
  408480:	05 00 00 00 0e 00 02 04 	beq $4,$2,4084c0 <l_L+0x2c8>
  408488:	43 00 00 00 74 00 02 00 	addiu $2,$0,116
  408490:	06 00 00 00 10 00 02 04 	bne $4,$2,4084d8 <l_L+0x2e0>
  408498:	2a 00 00 00 f8 80 00 1c 	l.s $f0,-32520($28)
  4084a0:	2a 00 00 00 fc 80 01 1c 	l.s $f1,-32516($28)
  4084a8:	36 00 00 00 48 87 00 1c 	s.s $f0,-30904($28)
  4084b0:	36 00 00 00 4c 87 01 1c 	s.s $f1,-30900($28)
  4084b8:	01 00 00 00 68 21 10 00 	j 4085a0 <l_L+0x3a8>
  4084c0:	34 00 00 00 48 87 00 1c 	sw $0,-30904($28)
  4084c8:	34 00 00 00 4c 87 00 1c 	sw $0,-30900($28)
  4084d0:	01 00 00 00 68 21 10 00 	j 4085a0 <l_L+0x3a8>
  4084d8:	a2 00 00 00 00 10 03 00 	lui $3,4096
  4084e0:	42 00 00 00 00 03 04 03 	addu $3,$3,$4
  4084e8:	22 00 00 00 71 26 03 03 	lbu $3,9841($3)
  4084f0:	4f 00 00 00 02 00 02 03 	andi $2,$3,2
  4084f8:	06 00 00 00 40 00 00 02 	bne $2,$0,408600 <l_L+0x408>
  408500:	4f 00 00 00 01 00 02 03 	andi $2,$3,1
  408508:	06 00 00 00 3c 00 00 02 	bne $2,$0,408600 <l_L+0x408>
  408510:	43 00 00 00 ff ff 02 00 	addiu $2,$0,-1
  408518:	05 00 00 00 38 00 02 04 	beq $4,$2,408600 <l_L+0x408>
  408520:	28 00 00 00 34 87 02 1c 	lw $2,-30924($28)
  408528:	5c 00 00 00 02 00 02 02 	slti $2,$2,2
  408530:	06 00 00 00 0e 00 00 02 	bne $2,$0,408570 <l_L+0x378>
  408538:	28 00 00 00 ac 87 05 1c 	lw $5,-30804($28)
  408540:	28 00 00 00 2c 87 02 1c 	lw $2,-30932($28)
  408548:	04 00 00 00 00 1f 00 02 	jalr $31,$2
  408550:	42 00 00 00 00 02 00 00 	addu $2,$0,$0
  408558:	43 00 00 00 02 00 03 00 	addiu $3,$0,2
  408560:	34 00 00 00 3c 87 03 1c 	sw $3,-30916($28)
  408568:	01 00 00 00 88 21 10 00 	j 408620 <l_L+0x428>
  408570:	28 00 00 00 94 87 02 1c 	lw $2,-30828($28)
  408578:	28 00 00 00 00 00 04 02 	lw $4,0($2)
  408580:	43 00 00 00 70 00 05 00 	addiu $5,$0,112
  408588:	43 00 00 00 f0 80 06 1c 	addiu $6,$28,-32528
  408590:	02 00 00 00 94 3c 10 00 	jal 40f250 <err__fl>
  408598:	01 00 00 00 88 21 10 00 	j 408620 <l_L+0x428>
  4085a0:	43 00 00 00 03 00 02 00 	addiu $2,$0,3
  4085a8:	34 00 00 00 20 87 02 1c 	sw $2,-30944($28)
  4085b0:	43 00 00 00 ff ff 10 00 	addiu $16,$0,-1
  4085b8:	28 00 00 00 24 87 02 1c 	lw $2,-30940($28)
  4085c0:	04 00 00 00 00 1f 00 02 	jalr $31,$2
  4085c8:	42 00 00 00 00 04 02 00 	addu $4,$0,$2
  4085d0:	a2 00 00 00 00 10 02 00 	lui $2,4096
  4085d8:	42 00 00 00 00 02 04 02 	addu $2,$2,$4
  4085e0:	22 00 00 00 71 26 02 02 	lbu $2,9841($2)
  4085e8:	4f 00 00 00 01 00 02 02 	andi $2,$2,1
  4085f0:	06 00 00 00 02 00 00 02 	bne $2,$0,408600 <l_L+0x408>
  4085f8:	06 00 00 00 ee ff 10 04 	bne $4,$16,4085b8 <l_L+0x3c0>
  408600:	28 00 00 00 ac 87 05 1c 	lw $5,-30804($28)
  408608:	28 00 00 00 2c 87 02 1c 	lw $2,-30932($28)
  408610:	04 00 00 00 00 1f 00 02 	jalr $31,$2
  408618:	42 00 00 00 00 02 00 00 	addu $2,$0,$0
  408620:	28 00 00 00 14 00 1f 1d 	lw $31,20($29)
  408628:	28 00 00 00 10 00 10 1d 	lw $16,16($29)
  408630:	43 00 00 00 18 00 1d 1d 	addiu $29,$29,24
  408638:	03 00 00 00 00 00 00 1f 	jr $31

00408640 <l_CHAR>:
  408640:	28 00 00 00 50 87 02 1c 	lw $2,-30896($28)
  408648:	43 00 00 00 c8 ff 1d 1d 	addiu $29,$29,-56
  408650:	34 00 00 00 30 00 1f 1d 	sw $31,48($29)
  408658:	34 00 00 00 2c 00 17 1d 	sw $23,44($29)
  408660:	34 00 00 00 28 00 16 1d 	sw $22,40($29)
  408668:	34 00 00 00 24 00 15 1d 	sw $21,36($29)
  408670:	34 00 00 00 20 00 14 1d 	sw $20,32($29)
  408678:	34 00 00 00 1c 00 13 1d 	sw $19,28($29)
  408680:	34 00 00 00 18 00 12 1d 	sw $18,24($29)
  408688:	34 00 00 00 14 00 11 1d 	sw $17,20($29)
  408690:	34 00 00 00 10 00 10 1d 	sw $16,16($29)
  408698:	07 00 00 00 04 00 00 02 	blez $2,4086b0 <l_CHAR+0x70>
  4086a0:	42 00 00 00 00 02 00 00 	addu $2,$0,$0
  4086a8:	01 00 00 00 5e 23 10 00 	j 408d78 <l_CHAR+0x738>
  4086b0:	28 00 00 00 38 87 04 1c 	lw $4,-30920($28)
  4086b8:	34 00 00 00 20 87 00 1c 	sw $0,-30944($28)
  4086c0:	05 00 00 00 02 00 00 04 	beq $4,$0,4086d0 <l_CHAR+0x90>
  4086c8:	02 00 00 00 3c 4a 10 00 	jal 4128f0 <free>
  4086d0:	43 00 00 00 80 00 14 00 	addiu $20,$0,128
  4086d8:	43 00 00 00 80 00 04 00 	addiu $4,$0,128
  4086e0:	02 00 00 00 ce 4b 10 00 	jal 412f38 <malloc>
  4086e8:	34 00 00 00 38 87 02 1c 	sw $2,-30920($28)
  4086f0:	42 00 00 00 00 12 02 00 	addu $18,$0,$2
  4086f8:	06 00 00 00 0e 00 00 12 	bne $18,$0,408738 <l_CHAR+0xf8>
  408700:	28 00 00 00 94 87 02 1c 	lw $2,-30828($28)
  408708:	28 00 00 00 00 00 04 02 	lw $4,0($2)
  408710:	43 00 00 00 71 00 05 00 	addiu $5,$0,113
  408718:	a2 00 00 00 00 10 06 00 	lui $6,4096
  408720:	43 00 00 00 28 01 06 06 	addiu $6,$6,296
  408728:	02 00 00 00 94 3c 10 00 	jal 40f250 <err__fl>
  408730:	01 00 00 00 5e 23 10 00 	j 408d78 <l_CHAR+0x738>
  408738:	28 00 00 00 24 87 02 1c 	lw $2,-30940($28)
  408740:	04 00 00 00 00 1f 00 02 	jalr $31,$2
  408748:	28 00 00 00 10 82 03 1c 	lw $3,-32240($28)
  408750:	42 00 00 00 00 10 02 00 	addu $16,$0,$2
  408758:	55 00 00 00 01 02 10 00 	sll $2,$16,0x1
  408760:	42 00 00 00 00 02 03 02 	addu $2,$2,$3
  408768:	26 00 00 00 00 00 02 02 	lhu $2,0($2)
  408770:	4f 00 00 00 08 00 02 02 	andi $2,$2,8
  408778:	05 00 00 00 70 00 00 02 	beq $2,$0,408940 <l_CHAR+0x300>
  408780:	43 00 00 00 d0 ff 02 10 	addiu $2,$16,-48
  408788:	34 00 00 00 50 87 02 1c 	sw $2,-30896($28)
  408790:	30 00 00 00 00 00 10 12 	sb $16,0($18)
  408798:	43 00 00 00 01 00 12 12 	addiu $18,$18,1
  4087a0:	43 00 00 00 01 00 11 00 	addiu $17,$0,1
  4087a8:	a2 00 00 00 00 10 13 00 	lui $19,4096
  4087b0:	43 00 00 00 40 01 13 13 	addiu $19,$19,320
  4087b8:	28 00 00 00 24 87 02 1c 	lw $2,-30940($28)
  4087c0:	04 00 00 00 00 1f 00 02 	jalr $31,$2
  4087c8:	42 00 00 00 00 10 02 00 	addu $16,$0,$2
  4087d0:	43 00 00 00 01 00 03 10 	addiu $3,$16,1
  4087d8:	5e 00 00 00 31 00 02 03 	sltiu $2,$3,49
  4087e0:	05 00 00 00 24 00 00 02 	beq $2,$0,408878 <l_CHAR+0x238>
  4087e8:	55 00 00 00 02 02 03 00 	sll $2,$3,0x2
  4087f0:	42 00 00 00 00 02 13 02 	addu $2,$2,$19
  4087f8:	28 00 00 00 00 00 02 02 	lw $2,0($2)
  408800:	03 00 00 00 00 00 00 02 	jr $2
  408808:	28 00 00 00 50 87 02 1c 	lw $2,-30896($28)
  408810:	05 00 00 00 b2 00 00 02 	beq $2,$0,408ae0 <l_CHAR+0x4a0>
  408818:	28 00 00 00 38 87 12 1c 	lw $18,-30920($28)
  408820:	01 00 00 00 58 22 10 00 	j 408960 <l_CHAR+0x320>
  408828:	28 00 00 00 ac 87 05 1c 	lw $5,-30804($28)
  408830:	28 00 00 00 2c 87 02 1c 	lw $2,-30932($28)
  408838:	42 00 00 00 00 04 10 00 	addu $4,$0,$16
  408840:	04 00 00 00 00 1f 00 02 	jalr $31,$2
  408848:	42 00 00 00 00 02 00 00 	addu $2,$0,$0
  408850:	43 00 00 00 01 00 03 00 	addiu $3,$0,1
  408858:	34 00 00 00 50 87 03 1c 	sw $3,-30896($28)
  408860:	43 00 00 00 09 00 03 00 	addiu $3,$0,9
  408868:	34 00 00 00 20 87 03 1c 	sw $3,-30944($28)
  408870:	01 00 00 00 5c 23 10 00 	j 408d70 <l_CHAR+0x730>
  408878:	28 00 00 00 10 82 02 1c 	lw $2,-32240($28)
  408880:	55 00 00 00 01 03 10 00 	sll $3,$16,0x1
  408888:	42 00 00 00 00 03 02 03 	addu $3,$3,$2
  408890:	26 00 00 00 00 00 02 03 	lhu $2,0($3)
  408898:	4f 00 00 00 08 00 02 02 	andi $2,$2,8
  4088a0:	05 00 00 00 8e 00 00 02 	beq $2,$0,408ae0 <l_CHAR+0x4a0>
  4088a8:	30 00 00 00 00 00 10 12 	sb $16,0($18)
  4088b0:	28 00 00 00 50 87 03 1c 	lw $3,-30896($28)
  4088b8:	43 00 00 00 01 00 12 12 	addiu $18,$18,1
  4088c0:	43 00 00 00 01 00 11 11 	addiu $17,$17,1
  4088c8:	55 00 00 00 02 02 03 00 	sll $2,$3,0x2
  4088d0:	42 00 00 00 00 02 03 02 	addu $2,$2,$3
  4088d8:	55 00 00 00 01 02 02 00 	sll $2,$2,0x1
  4088e0:	42 00 00 00 00 02 10 02 	addu $2,$2,$16
  4088e8:	43 00 00 00 d0 ff 02 02 	addiu $2,$2,-48
  4088f0:	34 00 00 00 50 87 02 1c 	sw $2,-30896($28)
  4088f8:	06 00 00 00 ae ff 14 11 	bne $17,$20,4087b8 <l_CHAR+0x178>
  408900:	28 00 00 00 38 87 04 1c 	lw $4,-30920($28)
  408908:	43 00 00 00 80 00 14 11 	addiu $20,$17,128
  408910:	42 00 00 00 00 05 14 00 	addu $5,$0,$20
  408918:	02 00 00 00 30 4e 10 00 	jal 4138c0 <realloc>
  408920:	34 00 00 00 38 87 02 1c 	sw $2,-30920($28)
  408928:	05 00 00 00 f8 00 00 02 	beq $2,$0,408d10 <l_CHAR+0x6d0>
  408930:	42 00 00 00 00 12 02 11 	addu $18,$17,$2
  408938:	01 00 00 00 ee 21 10 00 	j 4087b8 <l_CHAR+0x178>
  408940:	28 00 00 00 ac 87 05 1c 	lw $5,-30804($28)
  408948:	28 00 00 00 2c 87 02 1c 	lw $2,-30932($28)
  408950:	42 00 00 00 00 04 10 00 	addu $4,$0,$16
  408958:	04 00 00 00 00 1f 00 02 	jalr $31,$2
  408960:	28 00 00 00 24 87 02 1c 	lw $2,-30940($28)
  408968:	04 00 00 00 00 1f 00 02 	jalr $31,$2
  408970:	42 00 00 00 00 10 02 00 	addu $16,$0,$2
  408978:	43 00 00 00 27 00 02 00 	addiu $2,$0,39
  408980:	05 00 00 00 04 00 02 10 	beq $16,$2,408998 <l_CHAR+0x358>
  408988:	43 00 00 00 22 00 02 00 	addiu $2,$0,34
  408990:	06 00 00 00 04 00 02 10 	bne $16,$2,4089a8 <l_CHAR+0x368>
  408998:	42 00 00 00 00 17 10 00 	addu $23,$0,$16
  4089a0:	01 00 00 00 d4 22 10 00 	j 408b50 <l_CHAR+0x510>
  4089a8:	a2 00 00 00 00 10 03 00 	lui $3,4096
  4089b0:	42 00 00 00 00 03 10 03 	addu $3,$3,$16
  4089b8:	22 00 00 00 71 26 03 03 	lbu $3,9841($3)
  4089c0:	4f 00 00 00 02 00 02 03 	andi $2,$3,2
  4089c8:	06 00 00 00 0c 00 00 02 	bne $2,$0,408a00 <l_CHAR+0x3c0>
  4089d0:	4f 00 00 00 01 00 02 03 	andi $2,$3,1
  4089d8:	05 00 00 00 04 00 00 02 	beq $2,$0,4089f0 <l_CHAR+0x3b0>
  4089e0:	43 00 00 00 0a 00 02 00 	addiu $2,$0,10
  4089e8:	06 00 00 00 04 00 02 10 	bne $16,$2,408a00 <l_CHAR+0x3c0>
  4089f0:	43 00 00 00 ff ff 02 00 	addiu $2,$0,-1
  4089f8:	06 00 00 00 0c 00 02 10 	bne $16,$2,408a30 <l_CHAR+0x3f0>
  408a00:	28 00 00 00 ac 87 05 1c 	lw $5,-30804($28)
  408a08:	28 00 00 00 2c 87 02 1c 	lw $2,-30932($28)
  408a10:	42 00 00 00 00 04 10 00 	addu $4,$0,$16
  408a18:	04 00 00 00 00 1f 00 02 	jalr $31,$2
  408a20:	42 00 00 00 00 02 00 00 	addu $2,$0,$0
  408a28:	01 00 00 00 5e 23 10 00 	j 408d78 <l_CHAR+0x738>
  408a30:	30 00 00 00 00 00 10 12 	sb $16,0($18)
  408a38:	43 00 00 00 01 00 12 12 	addiu $18,$18,1
  408a40:	43 00 00 00 01 00 11 00 	addiu $17,$0,1
  408a48:	28 00 00 00 24 87 02 1c 	lw $2,-30940($28)
  408a50:	04 00 00 00 00 1f 00 02 	jalr $31,$2
  408a58:	42 00 00 00 00 10 02 00 	addu $16,$0,$2
  408a60:	43 00 00 00 01 00 03 10 	addiu $3,$16,1
  408a68:	5e 00 00 00 31 00 02 03 	sltiu $2,$3,49
  408a70:	05 00 00 00 1e 00 00 02 	beq $2,$0,408af0 <l_CHAR+0x4b0>
  408a78:	55 00 00 00 02 02 03 00 	sll $2,$3,0x2
  408a80:	a2 00 00 00 00 10 01 00 	lui $1,4096
  408a88:	42 00 00 00 00 01 02 01 	addu $1,$1,$2
  408a90:	28 00 00 00 08 02 02 01 	lw $2,520($1)
  408a98:	03 00 00 00 00 00 00 02 	jr $2
  408aa0:	28 00 00 00 ac 87 05 1c 	lw $5,-30804($28)
  408aa8:	28 00 00 00 2c 87 02 1c 	lw $2,-30932($28)
  408ab0:	42 00 00 00 00 04 10 00 	addu $4,$0,$16
  408ab8:	04 00 00 00 00 1f 00 02 	jalr $31,$2
  408ac0:	42 00 00 00 00 02 00 00 	addu $2,$0,$0
  408ac8:	43 00 00 00 09 00 03 00 	addiu $3,$0,9
  408ad0:	34 00 00 00 20 87 03 1c 	sw $3,-30944($28)
  408ad8:	01 00 00 00 5c 23 10 00 	j 408d70 <l_CHAR+0x730>
  408ae0:	43 00 00 00 01 00 02 00 	addiu $2,$0,1
  408ae8:	34 00 00 00 50 87 02 1c 	sw $2,-30896($28)
  408af0:	30 00 00 00 00 00 10 12 	sb $16,0($18)
  408af8:	43 00 00 00 01 00 12 12 	addiu $18,$18,1
  408b00:	43 00 00 00 01 00 11 11 	addiu $17,$17,1
  408b08:	06 00 00 00 ce ff 14 11 	bne $17,$20,408a48 <l_CHAR+0x408>
  408b10:	28 00 00 00 38 87 04 1c 	lw $4,-30920($28)
  408b18:	43 00 00 00 80 00 14 11 	addiu $20,$17,128
  408b20:	42 00 00 00 00 05 14 00 	addu $5,$0,$20
  408b28:	02 00 00 00 30 4e 10 00 	jal 4138c0 <realloc>
  408b30:	34 00 00 00 38 87 02 1c 	sw $2,-30920($28)
  408b38:	05 00 00 00 74 00 00 02 	beq $2,$0,408d10 <l_CHAR+0x6d0>
  408b40:	42 00 00 00 00 12 02 11 	addu $18,$17,$2
  408b48:	01 00 00 00 92 22 10 00 	j 408a48 <l_CHAR+0x408>
  408b50:	43 00 00 00 09 00 02 00 	addiu $2,$0,9
  408b58:	34 00 00 00 20 87 02 1c 	sw $2,-30944($28)
  408b60:	42 00 00 00 00 11 00 00 	addu $17,$0,$0
  408b68:	55 00 00 00 18 02 17 00 	sll $2,$23,0x18
  408b70:	59 00 00 00 18 13 02 00 	sra $19,$2,0x18
  408b78:	43 00 00 00 0a 00 16 00 	addiu $22,$0,10
  408b80:	43 00 00 00 ff ff 15 00 	addiu $21,$0,-1
  408b88:	28 00 00 00 24 87 02 1c 	lw $2,-30940($28)
  408b90:	04 00 00 00 00 1f 00 02 	jalr $31,$2
  408b98:	42 00 00 00 00 10 02 00 	addu $16,$0,$2
  408ba0:	05 00 00 00 10 00 13 10 	beq $16,$19,408be8 <l_CHAR+0x5a8>
  408ba8:	05 00 00 00 0e 00 16 10 	beq $16,$22,408be8 <l_CHAR+0x5a8>
  408bb0:	05 00 00 00 0c 00 15 10 	beq $16,$21,408be8 <l_CHAR+0x5a8>
  408bb8:	43 00 00 00 01 00 11 11 	addiu $17,$17,1
  408bc0:	5b 00 00 00 00 02 14 11 	slt $2,$17,$20
  408bc8:	05 00 00 00 06 00 00 02 	beq $2,$0,408be8 <l_CHAR+0x5a8>
  408bd0:	30 00 00 00 00 00 10 12 	sb $16,0($18)
  408bd8:	43 00 00 00 01 00 12 12 	addiu $18,$18,1
  408be0:	01 00 00 00 e2 22 10 00 	j 408b88 <l_CHAR+0x548>
  408be8:	06 00 00 00 14 00 14 11 	bne $17,$20,408c40 <l_CHAR+0x600>
  408bf0:	28 00 00 00 38 87 04 1c 	lw $4,-30920($28)
  408bf8:	43 00 00 00 80 00 14 14 	addiu $20,$20,128
  408c00:	42 00 00 00 00 05 14 00 	addu $5,$0,$20
  408c08:	02 00 00 00 30 4e 10 00 	jal 4138c0 <realloc>
  408c10:	34 00 00 00 38 87 02 1c 	sw $2,-30920($28)
  408c18:	05 00 00 00 3c 00 00 02 	beq $2,$0,408d10 <l_CHAR+0x6d0>
  408c20:	42 00 00 00 00 02 02 11 	addu $2,$17,$2
  408c28:	30 00 00 00 ff ff 10 02 	sb $16,-1($2)
  408c30:	42 00 00 00 00 12 02 00 	addu $18,$0,$2
  408c38:	01 00 00 00 da 22 10 00 	j 408b68 <l_CHAR+0x528>
  408c40:	43 00 00 00 ff ff 02 00 	addiu $2,$0,-1
  408c48:	05 00 00 00 4a 00 02 10 	beq $16,$2,408d78 <l_CHAR+0x738>
  408c50:	43 00 00 00 0a 00 02 00 	addiu $2,$0,10
  408c58:	06 00 00 00 14 00 02 10 	bne $16,$2,408cb0 <l_CHAR+0x670>
  408c60:	20 00 00 00 ff ff 03 12 	lb $3,-1($18)
  408c68:	43 00 00 00 5c 00 02 00 	addiu $2,$0,92
  408c70:	06 00 00 00 bc ff 02 03 	bne $3,$2,408b68 <l_CHAR+0x528>
  408c78:	43 00 00 00 ff ff 12 12 	addiu $18,$18,-1
  408c80:	5b 00 00 00 00 02 14 11 	slt $2,$17,$20
  408c88:	05 00 00 00 d8 ff 00 02 	beq $2,$0,408bf0 <l_CHAR+0x5b0>
  408c90:	43 00 00 00 0a 00 02 00 	addiu $2,$0,10
  408c98:	30 00 00 00 00 00 02 12 	sb $2,0($18)
  408ca0:	43 00 00 00 01 00 12 12 	addiu $18,$18,1
  408ca8:	01 00 00 00 da 22 10 00 	j 408b68 <l_CHAR+0x528>
  408cb0:	28 00 00 00 24 87 02 1c 	lw $2,-30940($28)
  408cb8:	04 00 00 00 00 1f 00 02 	jalr $31,$2
  408cc0:	42 00 00 00 00 10 02 00 	addu $16,$0,$2
  408cc8:	55 00 00 00 18 02 17 00 	sll $2,$23,0x18
  408cd0:	59 00 00 00 18 02 02 00 	sra $2,$2,0x18
  408cd8:	06 00 00 00 1a 00 02 10 	bne $16,$2,408d48 <l_CHAR+0x708>
  408ce0:	43 00 00 00 01 00 11 11 	addiu $17,$17,1
  408ce8:	5b 00 00 00 00 02 14 11 	slt $2,$17,$20
  408cf0:	05 00 00 00 be ff 00 02 	beq $2,$0,408bf0 <l_CHAR+0x5b0>
  408cf8:	30 00 00 00 00 00 10 12 	sb $16,0($18)
  408d00:	43 00 00 00 01 00 12 12 	addiu $18,$18,1
  408d08:	01 00 00 00 da 22 10 00 	j 408b68 <l_CHAR+0x528>
  408d10:	28 00 00 00 94 87 02 1c 	lw $2,-30828($28)
  408d18:	28 00 00 00 00 00 04 02 	lw $4,0($2)
  408d20:	43 00 00 00 71 00 05 00 	addiu $5,$0,113
  408d28:	a2 00 00 00 00 10 06 00 	lui $6,4096
  408d30:	43 00 00 00 f4 26 06 06 	addiu $6,$6,9972
  408d38:	02 00 00 00 94 3c 10 00 	jal 40f250 <err__fl>
  408d40:	01 00 00 00 5e 23 10 00 	j 408d78 <l_CHAR+0x738>
  408d48:	28 00 00 00 ac 87 05 1c 	lw $5,-30804($28)
  408d50:	28 00 00 00 2c 87 02 1c 	lw $2,-30932($28)
  408d58:	42 00 00 00 00 04 10 00 	addu $4,$0,$16
  408d60:	04 00 00 00 00 1f 00 02 	jalr $31,$2
  408d68:	42 00 00 00 00 02 00 00 	addu $2,$0,$0
  408d70:	30 00 00 00 00 00 00 12 	sb $0,0($18)
  408d78:	28 00 00 00 30 00 1f 1d 	lw $31,48($29)
  408d80:	28 00 00 00 2c 00 17 1d 	lw $23,44($29)
  408d88:	28 00 00 00 28 00 16 1d 	lw $22,40($29)
  408d90:	28 00 00 00 24 00 15 1d 	lw $21,36($29)
  408d98:	28 00 00 00 20 00 14 1d 	lw $20,32($29)
  408da0:	28 00 00 00 1c 00 13 1d 	lw $19,28($29)
  408da8:	28 00 00 00 18 00 12 1d 	lw $18,24($29)
  408db0:	28 00 00 00 14 00 11 1d 	lw $17,20($29)
  408db8:	28 00 00 00 10 00 10 1d 	lw $16,16($29)
  408dc0:	43 00 00 00 38 00 1d 1d 	addiu $29,$29,56
  408dc8:	03 00 00 00 00 00 00 1f 	jr $31

00408dd0 <c_le>:
  408dd0:	43 00 00 00 e8 ff 1d 1d 	addiu $29,$29,-24
  408dd8:	34 00 00 00 10 00 10 1d 	sw $16,16($29)
  408de0:	42 00 00 00 00 10 04 00 	addu $16,$0,$4
  408de8:	34 00 00 00 14 00 1f 1d 	sw $31,20($29)
  408df0:	28 00 00 00 04 00 02 10 	lw $2,4($16)
  408df8:	43 00 00 00 00 81 03 1c 	addiu $3,$28,-32512
  408e00:	34 00 00 00 9c 87 03 1c 	sw $3,-30820($28)
  408e08:	5e 00 00 00 64 00 02 02 	sltiu $2,$2,100
  408e10:	06 00 00 00 14 00 00 02 	bne $2,$0,408e68 <c_le+0x98>
  408e18:	28 00 00 00 00 00 02 10 	lw $2,0($16)
  408e20:	05 00 00 00 06 00 00 02 	beq $2,$0,408e40 <c_le+0x70>
  408e28:	43 00 00 00 65 00 02 00 	addiu $2,$0,101
  408e30:	34 00 00 00 00 87 02 1c 	sw $2,-30976($28)
  408e38:	01 00 00 00 96 23 10 00 	j 408e58 <c_le+0x88>
  408e40:	43 00 00 00 65 00 04 00 	addiu $4,$0,101
  408e48:	43 00 00 00 08 81 05 1c 	addiu $5,$28,-32504
  408e50:	02 00 00 00 aa 3a 10 00 	jal 40eaa8 <f__fatal>
  408e58:	43 00 00 00 65 00 02 00 	addiu $2,$0,101
  408e60:	01 00 00 00 f2 23 10 00 	j 408fc8 <c_le+0x1f8>
  408e68:	28 00 00 00 04 00 03 10 	lw $3,4($16)
  408e70:	55 00 00 00 01 02 03 00 	sll $2,$3,0x1
  408e78:	42 00 00 00 00 02 03 02 	addu $2,$2,$3
  408e80:	55 00 00 00 04 02 02 00 	sll $2,$2,0x4
  408e88:	a2 00 00 00 75 10 03 00 	lui $3,4213
  408e90:	43 00 00 00 e0 f8 03 03 	addiu $3,$3,-1824
  408e98:	42 00 00 00 00 02 03 02 	addu $2,$2,$3
  408ea0:	28 00 00 00 00 00 03 02 	lw $3,0($2)
  408ea8:	34 00 00 00 d4 87 00 1c 	sw $0,-30764($28)
  408eb0:	34 00 00 00 d0 87 00 1c 	sw $0,-30768($28)
  408eb8:	34 00 00 00 94 87 10 1c 	sw $16,-30828($28)
  408ec0:	34 00 00 00 a4 87 02 1c 	sw $2,-30812($28)
  408ec8:	06 00 00 00 1e 00 00 03 	bne $3,$0,408f48 <c_le+0x178>
  408ed0:	28 00 00 00 04 00 06 10 	lw $6,4($16)
  408ed8:	43 00 00 00 03 00 04 00 	addiu $4,$0,3
  408ee0:	43 00 00 00 05 00 05 00 	addiu $5,$0,5
  408ee8:	02 00 00 00 c0 51 10 00 	jal 414700 <fk_open>
  408ef0:	05 00 00 00 14 00 00 02 	beq $2,$0,408f48 <c_le+0x178>
  408ef8:	28 00 00 00 00 00 02 10 	lw $2,0($16)
  408f00:	05 00 00 00 06 00 00 02 	beq $2,$0,408f20 <c_le+0x150>
  408f08:	43 00 00 00 66 00 02 00 	addiu $2,$0,102
  408f10:	34 00 00 00 00 87 02 1c 	sw $2,-30976($28)
  408f18:	01 00 00 00 ce 23 10 00 	j 408f38 <c_le+0x168>
  408f20:	43 00 00 00 66 00 04 00 	addiu $4,$0,102
  408f28:	43 00 00 00 10 81 05 1c 	addiu $5,$28,-32496
  408f30:	02 00 00 00 aa 3a 10 00 	jal 40eaa8 <f__fatal>
  408f38:	43 00 00 00 66 00 02 00 	addiu $2,$0,102
  408f40:	01 00 00 00 f2 23 10 00 	j 408fc8 <c_le+0x1f8>
  408f48:	28 00 00 00 a4 87 02 1c 	lw $2,-30812($28)
  408f50:	28 00 00 00 00 00 03 02 	lw $3,0($2)
  408f58:	28 00 00 00 18 00 02 02 	lw $2,24($2)
  408f60:	34 00 00 00 ac 87 03 1c 	sw $3,-30804($28)
  408f68:	06 00 00 00 14 00 00 02 	bne $2,$0,408fc0 <c_le+0x1f0>
  408f70:	28 00 00 00 00 00 02 10 	lw $2,0($16)
  408f78:	05 00 00 00 06 00 00 02 	beq $2,$0,408f98 <c_le+0x1c8>
  408f80:	43 00 00 00 67 00 02 00 	addiu $2,$0,103
  408f88:	34 00 00 00 00 87 02 1c 	sw $2,-30976($28)
  408f90:	01 00 00 00 ec 23 10 00 	j 408fb0 <c_le+0x1e0>
  408f98:	43 00 00 00 67 00 04 00 	addiu $4,$0,103
  408fa0:	43 00 00 00 10 81 05 1c 	addiu $5,$28,-32496
  408fa8:	02 00 00 00 aa 3a 10 00 	jal 40eaa8 <f__fatal>
  408fb0:	43 00 00 00 67 00 02 00 	addiu $2,$0,103
  408fb8:	01 00 00 00 f2 23 10 00 	j 408fc8 <c_le+0x1f8>
  408fc0:	42 00 00 00 00 02 00 00 	addu $2,$0,$0
  408fc8:	28 00 00 00 14 00 1f 1d 	lw $31,20($29)
  408fd0:	28 00 00 00 10 00 10 1d 	lw $16,16($29)
  408fd8:	43 00 00 00 18 00 1d 1d 	addiu $29,$29,24
  408fe0:	03 00 00 00 00 00 00 1f 	jr $31

00408fe8 <l_read>:
  408fe8:	43 00 00 00 c0 ff 1d 1d 	addiu $29,$29,-64
  408ff0:	34 00 00 00 38 00 1e 1d 	sw $30,56($29)
  408ff8:	42 00 00 00 00 1e 04 00 	addu $30,$0,$4
  409000:	34 00 00 00 20 00 12 1d 	sw $18,32($29)
  409008:	42 00 00 00 00 12 05 00 	addu $18,$0,$5
  409010:	34 00 00 00 3c 00 1f 1d 	sw $31,60($29)
  409018:	34 00 00 00 34 00 17 1d 	sw $23,52($29)
  409020:	34 00 00 00 30 00 16 1d 	sw $22,48($29)
  409028:	34 00 00 00 2c 00 15 1d 	sw $21,44($29)
  409030:	34 00 00 00 28 00 14 1d 	sw $20,40($29)
  409038:	34 00 00 00 24 00 13 1d 	sw $19,36($29)
  409040:	34 00 00 00 1c 00 11 1d 	sw $17,28($29)
  409048:	34 00 00 00 18 00 10 1d 	sw $16,24($29)
  409050:	28 00 00 00 00 00 02 1e 	lw $2,0($30)
  409058:	42 00 00 00 00 15 06 00 	addu $21,$0,$6
  409060:	42 00 00 00 00 14 00 00 	addu $20,$0,$0
  409068:	07 00 00 00 4c 01 00 02 	blez $2,4095a0 <l_read+0x5b8>
  409070:	43 00 00 00 fe ff 16 07 	addiu $22,$7,-2
  409078:	55 00 00 00 02 17 16 00 	sll $23,$22,0x2
  409080:	43 00 00 00 08 00 13 05 	addiu $19,$5,8
  409088:	28 00 00 00 3c 87 02 1c 	lw $2,-30916($28)
  409090:	06 00 00 00 42 01 00 02 	bne $2,$0,4095a0 <l_read+0x5b8>
  409098:	28 00 00 00 30 87 02 1c 	lw $2,-30928($28)
  4090a0:	05 00 00 00 08 00 00 02 	beq $2,$0,4090c8 <l_read+0xe0>
  4090a8:	28 00 00 00 94 87 02 1c 	lw $2,-30828($28)
  4090b0:	28 00 00 00 08 00 02 02 	lw $2,8($2)
  4090b8:	06 00 00 00 88 00 00 02 	bne $2,$0,4092e0 <l_read+0x2f8>
  4090c0:	01 00 00 00 be 24 10 00 	j 4092f8 <l_read+0x310>
  4090c8:	28 00 00 00 50 87 02 1c 	lw $2,-30896($28)
  4090d0:	06 00 00 00 2c 00 00 02 	bne $2,$0,409188 <l_read+0x1a0>
  4090d8:	34 00 00 00 20 87 00 1c 	sw $0,-30944($28)
  4090e0:	28 00 00 00 24 87 02 1c 	lw $2,-30940($28)
  4090e8:	04 00 00 00 00 1f 00 02 	jalr $31,$2
  4090f0:	42 00 00 00 00 04 02 00 	addu $4,$0,$2
  4090f8:	43 00 00 00 01 00 03 04 	addiu $3,$4,1
  409100:	5e 00 00 00 31 00 02 03 	sltiu $2,$3,49
  409108:	05 00 00 00 18 00 00 02 	beq $2,$0,409170 <l_read+0x188>
  409110:	55 00 00 00 02 02 03 00 	sll $2,$3,0x2
  409118:	a2 00 00 00 00 10 08 00 	lui $8,4096
  409120:	43 00 00 00 d0 02 08 08 	addiu $8,$8,720
  409128:	42 00 00 00 00 02 08 02 	addu $2,$2,$8
  409130:	28 00 00 00 00 00 02 02 	lw $2,0($2)
  409138:	03 00 00 00 00 00 00 02 	jr $2
  409140:	43 00 00 00 01 00 08 00 	addiu $8,$0,1
  409148:	34 00 00 00 3c 87 08 1c 	sw $8,-30916($28)
  409150:	01 00 00 00 a4 24 10 00 	j 409290 <l_read+0x2a8>
  409158:	43 00 00 00 01 00 08 00 	addiu $8,$0,1
  409160:	34 00 00 00 50 87 08 1c 	sw $8,-30896($28)
  409168:	01 00 00 00 a4 24 10 00 	j 409290 <l_read+0x2a8>
  409170:	28 00 00 00 ac 87 05 1c 	lw $5,-30804($28)
  409178:	28 00 00 00 2c 87 02 1c 	lw $2,-30932($28)
  409180:	04 00 00 00 00 1f 00 02 	jalr $31,$2
  409188:	5e 00 00 00 0c 00 02 16 	sltiu $2,$22,12
  409190:	05 00 00 00 20 00 00 02 	beq $2,$0,409218 <l_read+0x230>
  409198:	a2 00 00 00 00 10 02 00 	lui $2,4096
  4091a0:	42 00 00 00 00 02 17 02 	addu $2,$2,$23
  4091a8:	28 00 00 00 98 03 02 02 	lw $2,920($2)
  4091b0:	03 00 00 00 00 00 00 02 	jr $2
  4091b8:	42 00 00 00 00 04 00 00 	addu $4,$0,$0
  4091c0:	02 00 00 00 dc 1c 10 00 	jal 407370 <l_R>
  4091c8:	05 00 00 00 12 00 00 02 	beq $2,$0,409218 <l_read+0x230>
  4091d0:	01 00 00 00 6a 25 10 00 	j 4095a8 <l_read+0x5c0>
  4091d8:	02 00 00 00 e2 1e 10 00 	jal 407b88 <l_C>
  4091e0:	05 00 00 00 0c 00 00 02 	beq $2,$0,409218 <l_read+0x230>
  4091e8:	01 00 00 00 6a 25 10 00 	j 4095a8 <l_read+0x5c0>
  4091f0:	02 00 00 00 7e 20 10 00 	jal 4081f8 <l_L>
  4091f8:	05 00 00 00 06 00 00 02 	beq $2,$0,409218 <l_read+0x230>
  409200:	01 00 00 00 6a 25 10 00 	j 4095a8 <l_read+0x5c0>
  409208:	02 00 00 00 90 21 10 00 	jal 408640 <l_CHAR>
  409210:	06 00 00 00 e4 00 00 02 	bne $2,$0,4095a8 <l_read+0x5c0>
  409218:	43 00 00 00 20 00 11 00 	addiu $17,$0,32
  409220:	43 00 00 00 09 00 10 00 	addiu $16,$0,9
  409228:	28 00 00 00 24 87 02 1c 	lw $2,-30940($28)
  409230:	04 00 00 00 00 1f 00 02 	jalr $31,$2
  409238:	42 00 00 00 00 04 02 00 	addu $4,$0,$2
  409240:	05 00 00 00 f8 ff 11 04 	beq $4,$17,409228 <l_read+0x240>
  409248:	05 00 00 00 f6 ff 10 04 	beq $4,$16,409228 <l_read+0x240>
  409250:	43 00 00 00 2c 00 02 00 	addiu $2,$0,44
  409258:	06 00 00 00 06 00 02 04 	bne $4,$2,409278 <l_read+0x290>
  409260:	28 00 00 00 50 87 02 1c 	lw $2,-30896($28)
  409268:	5c 00 00 00 02 00 02 02 	slti $2,$2,2
  409270:	06 00 00 00 06 00 00 02 	bne $2,$0,409290 <l_read+0x2a8>
  409278:	28 00 00 00 ac 87 05 1c 	lw $5,-30804($28)
  409280:	28 00 00 00 2c 87 02 1c 	lw $2,-30932($28)
  409288:	04 00 00 00 00 1f 00 02 	jalr $31,$2
  409290:	28 00 00 00 3c 87 02 1c 	lw $2,-30916($28)
  409298:	06 00 00 00 c0 00 00 02 	bne $2,$0,4095a0 <l_read+0x5b8>
  4092a0:	28 00 00 00 ac 87 04 1c 	lw $4,-30804($28)
  4092a8:	05 00 00 00 2e 00 00 04 	beq $4,$0,409368 <l_read+0x380>
  4092b0:	28 00 00 00 4c 00 03 04 	lw $3,76($4)
  4092b8:	4f 00 00 00 00 02 02 03 	andi $2,$3,512
  4092c0:	05 00 00 00 16 00 00 02 	beq $2,$0,409320 <l_read+0x338>
  4092c8:	28 00 00 00 94 87 02 1c 	lw $2,-30828($28)
  4092d0:	28 00 00 00 08 00 02 02 	lw $2,8($2)
  4092d8:	05 00 00 00 06 00 00 02 	beq $2,$0,4092f8 <l_read+0x310>
  4092e0:	43 00 00 00 ff ff 08 00 	addiu $8,$0,-1
  4092e8:	34 00 00 00 00 87 08 1c 	sw $8,-30976($28)
  4092f0:	01 00 00 00 c4 24 10 00 	j 409310 <l_read+0x328>
  4092f8:	43 00 00 00 ff ff 04 00 	addiu $4,$0,-1
  409300:	43 00 00 00 14 81 05 1c 	addiu $5,$28,-32492
  409308:	02 00 00 00 aa 3a 10 00 	jal 40eaa8 <f__fatal>
  409310:	43 00 00 00 ff ff 02 00 	addiu $2,$0,-1
  409318:	01 00 00 00 6a 25 10 00 	j 4095a8 <l_read+0x5c0>
  409320:	4f 00 00 00 00 04 02 03 	andi $2,$3,1024
  409328:	05 00 00 00 0e 00 00 02 	beq $2,$0,409368 <l_read+0x380>
  409330:	02 00 00 00 18 52 10 00 	jal 414860 <clearerr>
  409338:	28 00 00 00 94 87 02 1c 	lw $2,-30828($28)
  409340:	28 00 00 00 00 87 05 1c 	lw $5,-30976($28)
  409348:	28 00 00 00 00 00 04 02 	lw $4,0($2)
  409350:	43 00 00 00 14 81 06 1c 	addiu $6,$28,-32492
  409358:	02 00 00 00 94 3c 10 00 	jal 40f250 <err__fl>
  409360:	01 00 00 00 6a 25 10 00 	j 4095a8 <l_read+0x5c0>
  409368:	28 00 00 00 20 87 02 1c 	lw $2,-30944($28)
  409370:	05 00 00 00 6e 00 00 02 	beq $2,$0,409530 <l_read+0x548>
  409378:	5e 00 00 00 0c 00 02 16 	sltiu $2,$22,12
  409380:	05 00 00 00 6a 00 00 02 	beq $2,$0,409530 <l_read+0x548>
  409388:	a2 00 00 00 00 10 02 00 	lui $2,4096
  409390:	42 00 00 00 00 02 17 02 	addu $2,$2,$23
  409398:	28 00 00 00 c8 03 02 02 	lw $2,968($2)
  4093a0:	03 00 00 00 00 00 00 02 	jr $2
  4093a8:	2a 00 00 00 48 87 00 1c 	l.s $f0,-30904($28)
  4093b0:	2a 00 00 00 4c 87 01 1c 	l.s $f1,-30900($28)
  4093b8:	85 00 00 00 00 02 00 00 	cvt.w.d $f2,$f0
  4093c0:	a3 00 00 00 00 00 02 02 	mfc1 $2,$f2
  4093c8:	30 00 00 00 00 00 02 12 	sb $2,0($18)
  4093d0:	01 00 00 00 4c 25 10 00 	j 409530 <l_read+0x548>
  4093d8:	2a 00 00 00 48 87 00 1c 	l.s $f0,-30904($28)
  4093e0:	2a 00 00 00 4c 87 01 1c 	l.s $f1,-30900($28)
  4093e8:	85 00 00 00 00 02 00 00 	cvt.w.d $f2,$f0
  4093f0:	a3 00 00 00 00 00 02 02 	mfc1 $2,$f2
  4093f8:	32 00 00 00 00 00 02 12 	sh $2,0($18)
  409400:	01 00 00 00 4c 25 10 00 	j 409530 <l_read+0x548>
  409408:	2a 00 00 00 48 87 00 1c 	l.s $f0,-30904($28)
  409410:	2a 00 00 00 4c 87 01 1c 	l.s $f1,-30900($28)
  409418:	85 00 00 00 00 02 00 00 	cvt.w.d $f2,$f0
  409420:	36 00 00 00 00 00 02 12 	s.s $f2,0($18)
  409428:	01 00 00 00 4c 25 10 00 	j 409530 <l_read+0x548>
  409430:	2a 00 00 00 48 87 00 1c 	l.s $f0,-30904($28)
  409438:	2a 00 00 00 4c 87 01 1c 	l.s $f1,-30900($28)
  409440:	80 00 00 00 00 00 00 00 	cvt.s.d $f0,$f0
  409448:	36 00 00 00 00 00 00 12 	s.s $f0,0($18)
  409450:	01 00 00 00 4c 25 10 00 	j 409530 <l_read+0x548>
  409458:	2a 00 00 00 48 87 00 1c 	l.s $f0,-30904($28)
  409460:	2a 00 00 00 4c 87 01 1c 	l.s $f1,-30900($28)
  409468:	36 00 00 00 00 00 00 12 	s.s $f0,0($18)
  409470:	36 00 00 00 04 00 01 12 	s.s $f1,4($18)
  409478:	01 00 00 00 4c 25 10 00 	j 409530 <l_read+0x548>
  409480:	2a 00 00 00 48 87 00 1c 	l.s $f0,-30904($28)
  409488:	2a 00 00 00 4c 87 01 1c 	l.s $f1,-30900($28)
  409490:	80 00 00 00 00 00 00 00 	cvt.s.d $f0,$f0
  409498:	36 00 00 00 00 00 00 12 	s.s $f0,0($18)
  4094a0:	2a 00 00 00 40 87 00 1c 	l.s $f0,-30912($28)
  4094a8:	2a 00 00 00 44 87 01 1c 	l.s $f1,-30908($28)
  4094b0:	80 00 00 00 00 00 00 00 	cvt.s.d $f0,$f0
  4094b8:	36 00 00 00 fc ff 00 13 	s.s $f0,-4($19)
  4094c0:	01 00 00 00 4c 25 10 00 	j 409530 <l_read+0x548>
  4094c8:	2a 00 00 00 48 87 00 1c 	l.s $f0,-30904($28)
  4094d0:	2a 00 00 00 4c 87 01 1c 	l.s $f1,-30900($28)
  4094d8:	36 00 00 00 00 00 00 12 	s.s $f0,0($18)
  4094e0:	36 00 00 00 04 00 01 12 	s.s $f1,4($18)
  4094e8:	2a 00 00 00 40 87 00 1c 	l.s $f0,-30912($28)
  4094f0:	2a 00 00 00 44 87 01 1c 	l.s $f1,-30908($28)
  4094f8:	36 00 00 00 00 00 00 13 	s.s $f0,0($19)
  409500:	36 00 00 00 04 00 01 13 	s.s $f1,4($19)
  409508:	01 00 00 00 4c 25 10 00 	j 409530 <l_read+0x548>
  409510:	28 00 00 00 38 87 04 1c 	lw $4,-30920($28)
  409518:	42 00 00 00 00 05 12 00 	addu $5,$0,$18
  409520:	42 00 00 00 00 06 15 00 	addu $6,$0,$21
  409528:	02 00 00 00 54 52 10 00 	jal 414950 <b_char>
  409530:	28 00 00 00 50 87 02 1c 	lw $2,-30896($28)
  409538:	07 00 00 00 04 00 00 02 	blez $2,409550 <l_read+0x568>
  409540:	43 00 00 00 ff ff 02 02 	addiu $2,$2,-1
  409548:	34 00 00 00 50 87 02 1c 	sw $2,-30896($28)
  409550:	28 00 00 00 34 87 02 1c 	lw $2,-30924($28)
  409558:	42 00 00 00 00 13 15 13 	addu $19,$19,$21
  409560:	42 00 00 00 00 12 15 12 	addu $18,$18,$21
  409568:	05 00 00 00 04 00 00 02 	beq $2,$0,409580 <l_read+0x598>
  409570:	43 00 00 00 01 00 02 02 	addiu $2,$2,1
  409578:	34 00 00 00 34 87 02 1c 	sw $2,-30924($28)
  409580:	28 00 00 00 00 00 02 1e 	lw $2,0($30)
  409588:	43 00 00 00 01 00 14 14 	addiu $20,$20,1
  409590:	5b 00 00 00 00 02 02 14 	slt $2,$20,$2
  409598:	06 00 00 00 ba fe 00 02 	bne $2,$0,409088 <l_read+0xa0>
  4095a0:	42 00 00 00 00 02 00 00 	addu $2,$0,$0
  4095a8:	28 00 00 00 3c 00 1f 1d 	lw $31,60($29)
  4095b0:	28 00 00 00 38 00 1e 1d 	lw $30,56($29)
  4095b8:	28 00 00 00 34 00 17 1d 	lw $23,52($29)
  4095c0:	28 00 00 00 30 00 16 1d 	lw $22,48($29)
  4095c8:	28 00 00 00 2c 00 15 1d 	lw $21,44($29)
  4095d0:	28 00 00 00 28 00 14 1d 	lw $20,40($29)
  4095d8:	28 00 00 00 24 00 13 1d 	lw $19,36($29)
  4095e0:	28 00 00 00 20 00 12 1d 	lw $18,32($29)
  4095e8:	28 00 00 00 1c 00 11 1d 	lw $17,28($29)
  4095f0:	28 00 00 00 18 00 10 1d 	lw $16,24($29)
  4095f8:	43 00 00 00 40 00 1d 1d 	addiu $29,$29,64
  409600:	03 00 00 00 00 00 00 1f 	jr $31

00409608 <s_rsle>:
  409608:	28 00 00 00 bc 87 02 1c 	lw $2,-30788($28)
  409610:	43 00 00 00 e8 ff 1d 1d 	addiu $29,$29,-24
  409618:	34 00 00 00 10 00 10 1d 	sw $16,16($29)
  409620:	42 00 00 00 00 10 04 00 	addu $16,$0,$4
  409628:	34 00 00 00 14 00 1f 1d 	sw $31,20($29)
  409630:	06 00 00 00 02 00 00 02 	bne $2,$0,409640 <s_rsle+0x38>
  409638:	02 00 00 00 7a 3b 10 00 	jal 40ede8 <f_init>
  409640:	28 00 00 00 04 00 02 10 	lw $2,4($16)
  409648:	43 00 00 00 00 81 03 1c 	addiu $3,$28,-32512
  409650:	34 00 00 00 9c 87 03 1c 	sw $3,-30820($28)
  409658:	5e 00 00 00 64 00 02 02 	sltiu $2,$2,100
  409660:	06 00 00 00 14 00 00 02 	bne $2,$0,4096b8 <s_rsle+0xb0>
  409668:	28 00 00 00 00 00 02 10 	lw $2,0($16)
  409670:	05 00 00 00 06 00 00 02 	beq $2,$0,409690 <s_rsle+0x88>
  409678:	43 00 00 00 65 00 02 00 	addiu $2,$0,101
  409680:	34 00 00 00 00 87 02 1c 	sw $2,-30976($28)
  409688:	01 00 00 00 aa 25 10 00 	j 4096a8 <s_rsle+0xa0>
  409690:	43 00 00 00 65 00 04 00 	addiu $4,$0,101
  409698:	43 00 00 00 08 81 05 1c 	addiu $5,$28,-32504
  4096a0:	02 00 00 00 aa 3a 10 00 	jal 40eaa8 <f__fatal>
  4096a8:	43 00 00 00 65 00 02 00 	addiu $2,$0,101
  4096b0:	01 00 00 00 06 26 10 00 	j 409818 <s_rsle+0x210>
  4096b8:	28 00 00 00 04 00 03 10 	lw $3,4($16)
  4096c0:	55 00 00 00 01 02 03 00 	sll $2,$3,0x1
  4096c8:	42 00 00 00 00 02 03 02 	addu $2,$2,$3
  4096d0:	55 00 00 00 04 02 02 00 	sll $2,$2,0x4
  4096d8:	a2 00 00 00 75 10 03 00 	lui $3,4213
  4096e0:	43 00 00 00 e0 f8 03 03 	addiu $3,$3,-1824
  4096e8:	42 00 00 00 00 02 03 02 	addu $2,$2,$3
  4096f0:	28 00 00 00 00 00 03 02 	lw $3,0($2)
  4096f8:	34 00 00 00 d4 87 00 1c 	sw $0,-30764($28)
  409700:	34 00 00 00 d0 87 00 1c 	sw $0,-30768($28)
  409708:	34 00 00 00 94 87 10 1c 	sw $16,-30828($28)
  409710:	34 00 00 00 a4 87 02 1c 	sw $2,-30812($28)
  409718:	06 00 00 00 1e 00 00 03 	bne $3,$0,409798 <s_rsle+0x190>
  409720:	28 00 00 00 04 00 06 10 	lw $6,4($16)
  409728:	43 00 00 00 03 00 04 00 	addiu $4,$0,3
  409730:	43 00 00 00 05 00 05 00 	addiu $5,$0,5
  409738:	02 00 00 00 c0 51 10 00 	jal 414700 <fk_open>
  409740:	05 00 00 00 14 00 00 02 	beq $2,$0,409798 <s_rsle+0x190>
  409748:	28 00 00 00 00 00 02 10 	lw $2,0($16)
  409750:	05 00 00 00 06 00 00 02 	beq $2,$0,409770 <s_rsle+0x168>
  409758:	43 00 00 00 66 00 02 00 	addiu $2,$0,102
  409760:	34 00 00 00 00 87 02 1c 	sw $2,-30976($28)
  409768:	01 00 00 00 e2 25 10 00 	j 409788 <s_rsle+0x180>
  409770:	43 00 00 00 66 00 04 00 	addiu $4,$0,102
  409778:	43 00 00 00 10 81 05 1c 	addiu $5,$28,-32496
  409780:	02 00 00 00 aa 3a 10 00 	jal 40eaa8 <f__fatal>
  409788:	43 00 00 00 66 00 02 00 	addiu $2,$0,102
  409790:	01 00 00 00 06 26 10 00 	j 409818 <s_rsle+0x210>
  409798:	28 00 00 00 a4 87 02 1c 	lw $2,-30812($28)
  4097a0:	28 00 00 00 00 00 03 02 	lw $3,0($2)
  4097a8:	28 00 00 00 18 00 02 02 	lw $2,24($2)
  4097b0:	34 00 00 00 ac 87 03 1c 	sw $3,-30804($28)
  4097b8:	06 00 00 00 14 00 00 02 	bne $2,$0,409810 <s_rsle+0x208>
  4097c0:	28 00 00 00 00 00 02 10 	lw $2,0($16)
  4097c8:	05 00 00 00 06 00 00 02 	beq $2,$0,4097e8 <s_rsle+0x1e0>
  4097d0:	43 00 00 00 67 00 02 00 	addiu $2,$0,103
  4097d8:	34 00 00 00 00 87 02 1c 	sw $2,-30976($28)
  4097e0:	01 00 00 00 00 26 10 00 	j 409800 <s_rsle+0x1f8>
  4097e8:	43 00 00 00 67 00 04 00 	addiu $4,$0,103
  4097f0:	43 00 00 00 10 81 05 1c 	addiu $5,$28,-32496
  4097f8:	02 00 00 00 aa 3a 10 00 	jal 40eaa8 <f__fatal>
  409800:	43 00 00 00 67 00 02 00 	addiu $2,$0,103
  409808:	01 00 00 00 06 26 10 00 	j 409818 <s_rsle+0x210>
  409810:	42 00 00 00 00 02 00 00 	addu $2,$0,$0
  409818:	06 00 00 00 42 00 00 02 	bne $2,$0,409928 <s_rsle+0x320>
  409820:	28 00 00 00 a4 87 04 1c 	lw $4,-30812($28)
  409828:	28 00 00 00 28 00 02 04 	lw $2,40($4)
  409830:	43 00 00 00 01 00 03 00 	addiu $3,$0,1
  409838:	34 00 00 00 b4 87 03 1c 	sw $3,-30796($28)
  409840:	34 00 00 00 b0 87 03 1c 	sw $3,-30800($28)
  409848:	34 00 00 00 dc 87 03 1c 	sw $3,-30756($28)
  409850:	a2 00 00 00 41 00 03 00 	lui $3,65
  409858:	43 00 00 00 e8 8f 03 03 	addiu $3,$3,-28696
  409860:	34 00 00 00 28 87 03 1c 	sw $3,-30936($28)
  409868:	34 00 00 00 3c 87 00 1c 	sw $0,-30916($28)
  409870:	34 00 00 00 50 87 00 1c 	sw $0,-30896($28)
  409878:	34 00 00 00 30 87 00 1c 	sw $0,-30928($28)
  409880:	05 00 00 00 14 00 00 02 	beq $2,$0,4098d8 <s_rsle+0x2d0>
  409888:	02 00 00 00 e8 3b 10 00 	jal 40efa0 <f__nowreading>
  409890:	05 00 00 00 10 00 00 02 	beq $2,$0,4098d8 <s_rsle+0x2d0>
  409898:	28 00 00 00 00 00 02 10 	lw $2,0($16)
  4098a0:	06 00 00 00 08 00 00 02 	bne $2,$0,4098c8 <s_rsle+0x2c0>
  4098a8:	28 00 00 00 00 87 04 1c 	lw $4,-30976($28)
  4098b0:	a2 00 00 00 00 10 05 00 	lui $5,4096
  4098b8:	43 00 00 00 34 01 05 05 	addiu $5,$5,308
  4098c0:	02 00 00 00 aa 3a 10 00 	jal 40eaa8 <f__fatal>
  4098c8:	28 00 00 00 00 87 02 1c 	lw $2,-30976($28)
  4098d0:	01 00 00 00 4a 26 10 00 	j 409928 <s_rsle+0x320>
  4098d8:	42 00 00 00 00 02 00 00 	addu $2,$0,$0
  4098e0:	a2 00 00 00 40 00 03 00 	lui $3,64
  4098e8:	43 00 00 00 20 71 03 03 	addiu $3,$3,28960
  4098f0:	34 00 00 00 24 87 03 1c 	sw $3,-30940($28)
  4098f8:	a2 00 00 00 41 00 03 00 	lui $3,65
  409900:	43 00 00 00 00 4a 03 03 	addiu $3,$3,18944
  409908:	34 00 00 00 2c 87 03 1c 	sw $3,-30932($28)
  409910:	a2 00 00 00 41 00 03 00 	lui $3,65
